ARM GAS  /var/folders/z0/6xlwn_996xz3mwq1cgzkbq4r0000gp/T//ccFLqfFe.s 			page 1


   1              		.syntax unified
   2              		.cpu cortex-m0
   3              		.fpu softvfp
   4              		.eabi_attribute 20, 1	@ Tag_ABI_FP_denormal
   5              		.eabi_attribute 21, 1	@ Tag_ABI_FP_exceptions
   6              		.eabi_attribute 23, 3	@ Tag_ABI_FP_number_model
   7              		.eabi_attribute 24, 1	@ Tag_ABI_align8_needed
   8              		.eabi_attribute 25, 1	@ Tag_ABI_align8_preserved
   9              		.eabi_attribute 26, 1	@ Tag_ABI_enum_size
  10              		.eabi_attribute 30, 2	@ Tag_ABI_optimization_goals
  11              		.eabi_attribute 34, 0	@ Tag_CPU_unaligned_access
  12              		.eabi_attribute 18, 4	@ Tag_ABI_PCS_wchar_t
  13              		.file	"adc_11xx.c"
  14              	@ GNU C89 (GNU Tools for ARM Embedded Processors) version 5.4.1 20160919 (release) [ARM/embedded-5-
  15              	@	compiled by GNU C version 4.2.1 (Based on Apple Inc. build 5658) (LLVM build 2336.9.00), GMP vers
  16              	@ GGC heuristics: --param ggc-min-expand=100 --param ggc-min-heapsize=131072
  17              	@ options passed:  -I . -I inc/
  18              	@ -I ../../lib/lpc11cx4-library/lpc_chip_11cxx_lib/inc
  19              	@ -I ../../lib/lpc11cx4-library/evt_lib/inc/ -I ../../lib/CANlib
  20              	@ -imultilib armv6-m
  21              	@ -iprefix /usr/local/Cellar/gcc-arm-none-eabi/20160928/bin/../lib/gcc/arm-none-eabi/5.4.1/
  22              	@ -isysroot /usr/local/Cellar/gcc-arm-none-eabi/20160928/bin/../arm-none-eabi
  23              	@ -MD bin/adc_11xx.d -MF bin/adc_11xx.d -MP -MQ bin/adc_11xx.o
  24              	@ -D__USES_INITFINI__ -D UART_BAUD=57600 -D CORE_M0 -D DEBUG_ENABLE
  25              	@ -D FSAE_DRIVERS -D CAN_ARCHITECTURE_ARM
  26              	@ ../../lib/lpc11cx4-library/lpc_chip_11cxx_lib/src/adc_11xx.c
  27              	@ -mcpu=cortex-m0 -mthumb -auxbase-strip bin/adc_11xx.o -g -ggdb3 -O2 -Wall
  28              	@ -Wstrict-prototypes -Wextra -std=gnu90 -ffunction-sections
  29              	@ -fdata-sections -fdiagnostics-color=always -fverbose-asm
  30              	@ options enabled:  -faggressive-loop-optimizations -falign-functions
  31              	@ -falign-jumps -falign-labels -falign-loops -fauto-inc-dec
  32              	@ -fbranch-count-reg -fcaller-saves -fchkp-check-incomplete-type
  33              	@ -fchkp-check-read -fchkp-check-write -fchkp-instrument-calls
  34              	@ -fchkp-narrow-bounds -fchkp-optimize -fchkp-store-bounds
  35              	@ -fchkp-use-static-bounds -fchkp-use-static-const-bounds
  36              	@ -fchkp-use-wrappers -fcombine-stack-adjustments -fcommon -fcompare-elim
  37              	@ -fcprop-registers -fcrossjumping -fcse-follow-jumps -fdata-sections
  38              	@ -fdefer-pop -fdelete-null-pointer-checks -fdevirtualize
  39              	@ -fdevirtualize-speculatively -fdwarf2-cfi-asm -fearly-inlining
  40              	@ -feliminate-unused-debug-types -fexpensive-optimizations
  41              	@ -fforward-propagate -ffunction-cse -ffunction-sections -fgcse -fgcse-lm
  42              	@ -fgnu-runtime -fgnu-unique -fguess-branch-probability
  43              	@ -fhoist-adjacent-loads -fident -fif-conversion -fif-conversion2
  44              	@ -findirect-inlining -finline -finline-atomics
  45              	@ -finline-functions-called-once -finline-small-functions -fipa-cp
  46              	@ -fipa-cp-alignment -fipa-icf -fipa-icf-functions -fipa-icf-variables
  47              	@ -fipa-profile -fipa-pure-const -fipa-reference -fipa-sra
  48              	@ -fira-hoist-pressure -fira-share-save-slots -fira-share-spill-slots
  49              	@ -fisolate-erroneous-paths-dereference -fivopts -fkeep-static-consts
  50              	@ -fleading-underscore -flifetime-dse -flra-remat -flto-odr-type-merging
  51              	@ -fmath-errno -fmerge-constants -fmerge-debug-strings
  52              	@ -fmove-loop-invariants -fomit-frame-pointer -foptimize-sibling-calls
  53              	@ -foptimize-strlen -fpartial-inlining -fpeephole -fpeephole2
  54              	@ -fprefetch-loop-arrays -freg-struct-return -freorder-blocks
  55              	@ -freorder-functions -frerun-cse-after-loop
  56              	@ -fsched-critical-path-heuristic -fsched-dep-count-heuristic
  57              	@ -fsched-group-heuristic -fsched-interblock -fsched-last-insn-heuristic
ARM GAS  /var/folders/z0/6xlwn_996xz3mwq1cgzkbq4r0000gp/T//ccFLqfFe.s 			page 2


  58              	@ -fsched-pressure -fsched-rank-heuristic -fsched-spec
  59              	@ -fsched-spec-insn-heuristic -fsched-stalled-insns-dep -fschedule-insns2
  60              	@ -fsection-anchors -fsemantic-interposition -fshow-column -fshrink-wrap
  61              	@ -fsigned-zeros -fsplit-ivs-in-unroller -fsplit-wide-types -fssa-phiopt
  62              	@ -fstdarg-opt -fstrict-aliasing -fstrict-overflow
  63              	@ -fstrict-volatile-bitfields -fsync-libcalls -fthread-jumps
  64              	@ -ftoplevel-reorder -ftrapping-math -ftree-bit-ccp -ftree-builtin-call-dce
  65              	@ -ftree-ccp -ftree-ch -ftree-coalesce-vars -ftree-copy-prop
  66              	@ -ftree-copyrename -ftree-cselim -ftree-dce -ftree-dominator-opts
  67              	@ -ftree-dse -ftree-forwprop -ftree-fre -ftree-loop-if-convert
  68              	@ -ftree-loop-im -ftree-loop-ivcanon -ftree-loop-optimize
  69              	@ -ftree-parallelize-loops= -ftree-phiprop -ftree-pre -ftree-pta
  70              	@ -ftree-reassoc -ftree-scev-cprop -ftree-sink -ftree-slsr -ftree-sra
  71              	@ -ftree-switch-conversion -ftree-tail-merge -ftree-ter -ftree-vrp
  72              	@ -funit-at-a-time -fvar-tracking -fvar-tracking-assignments -fverbose-asm
  73              	@ -fzero-initialized-in-bss -mlittle-endian -mpic-data-is-text-relative
  74              	@ -msched-prolog -mthumb -mvectorize-with-neon-quad
  75              	
  76              		.text
  77              	.Ltext0:
  78              		.cfi_sections	.debug_frame
  79              		.section	.text.setStartMode,"ax",%progbits
  80              		.align	2
  81              		.global	setStartMode
  82              		.code	16
  83              		.thumb_func
  84              		.type	setStartMode, %function
  85              	setStartMode:
  86              	.LFB200:
  87              		.file 1 "../../lib/lpc11cx4-library/lpc_chip_11cxx_lib/src/adc_11xx.c"
   1:../../lib/lpc11cx4-library/lpc_chip_11cxx_lib/src/adc_11xx.c **** /*
   2:../../lib/lpc11cx4-library/lpc_chip_11cxx_lib/src/adc_11xx.c ****  * @brief LPC11xx A/D conversion driver
   3:../../lib/lpc11cx4-library/lpc_chip_11cxx_lib/src/adc_11xx.c ****  *
   4:../../lib/lpc11cx4-library/lpc_chip_11cxx_lib/src/adc_11xx.c ****  * @note
   5:../../lib/lpc11cx4-library/lpc_chip_11cxx_lib/src/adc_11xx.c ****  * Copyright(C) NXP Semiconductors, 2012
   6:../../lib/lpc11cx4-library/lpc_chip_11cxx_lib/src/adc_11xx.c ****  * All rights reserved.
   7:../../lib/lpc11cx4-library/lpc_chip_11cxx_lib/src/adc_11xx.c ****  *
   8:../../lib/lpc11cx4-library/lpc_chip_11cxx_lib/src/adc_11xx.c ****  * @par
   9:../../lib/lpc11cx4-library/lpc_chip_11cxx_lib/src/adc_11xx.c ****  * Software that is described herein is for illustrative purposes only
  10:../../lib/lpc11cx4-library/lpc_chip_11cxx_lib/src/adc_11xx.c ****  * which provides customers with programming information regarding the
  11:../../lib/lpc11cx4-library/lpc_chip_11cxx_lib/src/adc_11xx.c ****  * LPC products.  This software is supplied "AS IS" without any warranties of
  12:../../lib/lpc11cx4-library/lpc_chip_11cxx_lib/src/adc_11xx.c ****  * any kind, and NXP Semiconductors and its licensor disclaim any and
  13:../../lib/lpc11cx4-library/lpc_chip_11cxx_lib/src/adc_11xx.c ****  * all warranties, express or implied, including all implied warranties of
  14:../../lib/lpc11cx4-library/lpc_chip_11cxx_lib/src/adc_11xx.c ****  * merchantability, fitness for a particular purpose and non-infringement of
  15:../../lib/lpc11cx4-library/lpc_chip_11cxx_lib/src/adc_11xx.c ****  * intellectual property rights.  NXP Semiconductors assumes no responsibility
  16:../../lib/lpc11cx4-library/lpc_chip_11cxx_lib/src/adc_11xx.c ****  * or liability for the use of the software, conveys no license or rights under any
  17:../../lib/lpc11cx4-library/lpc_chip_11cxx_lib/src/adc_11xx.c ****  * patent, copyright, mask work right, or any other intellectual property rights in
  18:../../lib/lpc11cx4-library/lpc_chip_11cxx_lib/src/adc_11xx.c ****  * or to any products. NXP Semiconductors reserves the right to make changes
  19:../../lib/lpc11cx4-library/lpc_chip_11cxx_lib/src/adc_11xx.c ****  * in the software without notification. NXP Semiconductors also makes no
  20:../../lib/lpc11cx4-library/lpc_chip_11cxx_lib/src/adc_11xx.c ****  * representation or warranty that such application will be suitable for the
  21:../../lib/lpc11cx4-library/lpc_chip_11cxx_lib/src/adc_11xx.c ****  * specified use without further testing or modification.
  22:../../lib/lpc11cx4-library/lpc_chip_11cxx_lib/src/adc_11xx.c ****  *
  23:../../lib/lpc11cx4-library/lpc_chip_11cxx_lib/src/adc_11xx.c ****  * @par
  24:../../lib/lpc11cx4-library/lpc_chip_11cxx_lib/src/adc_11xx.c ****  * Permission to use, copy, modify, and distribute this software and its
  25:../../lib/lpc11cx4-library/lpc_chip_11cxx_lib/src/adc_11xx.c ****  * documentation is hereby granted, under NXP Semiconductors' and its
  26:../../lib/lpc11cx4-library/lpc_chip_11cxx_lib/src/adc_11xx.c ****  * licensor's relevant copyrights in the software, without fee, provided that it
  27:../../lib/lpc11cx4-library/lpc_chip_11cxx_lib/src/adc_11xx.c ****  * is used in conjunction with NXP Semiconductors microcontrollers.  This
ARM GAS  /var/folders/z0/6xlwn_996xz3mwq1cgzkbq4r0000gp/T//ccFLqfFe.s 			page 3


  28:../../lib/lpc11cx4-library/lpc_chip_11cxx_lib/src/adc_11xx.c ****  * copyright, permission, and disclaimer notice must appear in all copies of
  29:../../lib/lpc11cx4-library/lpc_chip_11cxx_lib/src/adc_11xx.c ****  * this code.
  30:../../lib/lpc11cx4-library/lpc_chip_11cxx_lib/src/adc_11xx.c ****  */
  31:../../lib/lpc11cx4-library/lpc_chip_11cxx_lib/src/adc_11xx.c **** 
  32:../../lib/lpc11cx4-library/lpc_chip_11cxx_lib/src/adc_11xx.c **** #include "chip.h"
  33:../../lib/lpc11cx4-library/lpc_chip_11cxx_lib/src/adc_11xx.c **** 
  34:../../lib/lpc11cx4-library/lpc_chip_11cxx_lib/src/adc_11xx.c **** #if !defined(CHIP_LPC1125)
  35:../../lib/lpc11cx4-library/lpc_chip_11cxx_lib/src/adc_11xx.c **** 
  36:../../lib/lpc11cx4-library/lpc_chip_11cxx_lib/src/adc_11xx.c **** /*****************************************************************************
  37:../../lib/lpc11cx4-library/lpc_chip_11cxx_lib/src/adc_11xx.c ****  * Private types/enumerations/variables
  38:../../lib/lpc11cx4-library/lpc_chip_11cxx_lib/src/adc_11xx.c ****  ****************************************************************************/
  39:../../lib/lpc11cx4-library/lpc_chip_11cxx_lib/src/adc_11xx.c **** 
  40:../../lib/lpc11cx4-library/lpc_chip_11cxx_lib/src/adc_11xx.c **** /*****************************************************************************
  41:../../lib/lpc11cx4-library/lpc_chip_11cxx_lib/src/adc_11xx.c ****  * Public types/enumerations/variables
  42:../../lib/lpc11cx4-library/lpc_chip_11cxx_lib/src/adc_11xx.c ****  ****************************************************************************/
  43:../../lib/lpc11cx4-library/lpc_chip_11cxx_lib/src/adc_11xx.c **** 
  44:../../lib/lpc11cx4-library/lpc_chip_11cxx_lib/src/adc_11xx.c **** /*****************************************************************************
  45:../../lib/lpc11cx4-library/lpc_chip_11cxx_lib/src/adc_11xx.c ****  * Private functions
  46:../../lib/lpc11cx4-library/lpc_chip_11cxx_lib/src/adc_11xx.c ****  ****************************************************************************/
  47:../../lib/lpc11cx4-library/lpc_chip_11cxx_lib/src/adc_11xx.c **** 
  48:../../lib/lpc11cx4-library/lpc_chip_11cxx_lib/src/adc_11xx.c **** /* Get the number of clock for a full conversion */
  49:../../lib/lpc11cx4-library/lpc_chip_11cxx_lib/src/adc_11xx.c **** STATIC INLINE uint8_t getFullConvClk(void)
  50:../../lib/lpc11cx4-library/lpc_chip_11cxx_lib/src/adc_11xx.c **** {
  51:../../lib/lpc11cx4-library/lpc_chip_11cxx_lib/src/adc_11xx.c **** 	return 11;
  52:../../lib/lpc11cx4-library/lpc_chip_11cxx_lib/src/adc_11xx.c **** }
  53:../../lib/lpc11cx4-library/lpc_chip_11cxx_lib/src/adc_11xx.c **** 
  54:../../lib/lpc11cx4-library/lpc_chip_11cxx_lib/src/adc_11xx.c **** /* Get divider value */
  55:../../lib/lpc11cx4-library/lpc_chip_11cxx_lib/src/adc_11xx.c **** STATIC uint8_t getClkDiv(bool burstMode, uint32_t adcRate, uint8_t clks)
  56:../../lib/lpc11cx4-library/lpc_chip_11cxx_lib/src/adc_11xx.c **** {
  57:../../lib/lpc11cx4-library/lpc_chip_11cxx_lib/src/adc_11xx.c **** 	uint32_t adcBlockFreq;
  58:../../lib/lpc11cx4-library/lpc_chip_11cxx_lib/src/adc_11xx.c **** 	uint32_t fullAdcRate;
  59:../../lib/lpc11cx4-library/lpc_chip_11cxx_lib/src/adc_11xx.c **** 	uint8_t div;
  60:../../lib/lpc11cx4-library/lpc_chip_11cxx_lib/src/adc_11xx.c **** 
  61:../../lib/lpc11cx4-library/lpc_chip_11cxx_lib/src/adc_11xx.c **** 	/* The APB clock (PCLK_ADC0) is divided by (CLKDIV+1) to produce the clock for
  62:../../lib/lpc11cx4-library/lpc_chip_11cxx_lib/src/adc_11xx.c **** 	   A/D converter, which should be less than or equal to 4.5MHz.
  63:../../lib/lpc11cx4-library/lpc_chip_11cxx_lib/src/adc_11xx.c **** 	   A fully conversion requires (bits_accuracy+1) of these clocks.
  64:../../lib/lpc11cx4-library/lpc_chip_11cxx_lib/src/adc_11xx.c **** 	   ADC Clock = PCLK_ADC0 / (CLKDIV + 1);
  65:../../lib/lpc11cx4-library/lpc_chip_11cxx_lib/src/adc_11xx.c **** 	   ADC rate = ADC clock / (the number of clocks required for each conversion);
  66:../../lib/lpc11cx4-library/lpc_chip_11cxx_lib/src/adc_11xx.c **** 	 */
  67:../../lib/lpc11cx4-library/lpc_chip_11cxx_lib/src/adc_11xx.c **** 	adcBlockFreq = Chip_Clock_GetSystemClockRate();
  68:../../lib/lpc11cx4-library/lpc_chip_11cxx_lib/src/adc_11xx.c **** 
  69:../../lib/lpc11cx4-library/lpc_chip_11cxx_lib/src/adc_11xx.c **** 	if (burstMode) {
  70:../../lib/lpc11cx4-library/lpc_chip_11cxx_lib/src/adc_11xx.c **** 		fullAdcRate = adcRate * clks;
  71:../../lib/lpc11cx4-library/lpc_chip_11cxx_lib/src/adc_11xx.c **** 	}
  72:../../lib/lpc11cx4-library/lpc_chip_11cxx_lib/src/adc_11xx.c **** 	else {
  73:../../lib/lpc11cx4-library/lpc_chip_11cxx_lib/src/adc_11xx.c **** 		fullAdcRate = adcRate * getFullConvClk();
  74:../../lib/lpc11cx4-library/lpc_chip_11cxx_lib/src/adc_11xx.c **** 	}
  75:../../lib/lpc11cx4-library/lpc_chip_11cxx_lib/src/adc_11xx.c **** 
  76:../../lib/lpc11cx4-library/lpc_chip_11cxx_lib/src/adc_11xx.c **** 	/* Get the round value by fomular: (2*A + B)/(2*B) */
  77:../../lib/lpc11cx4-library/lpc_chip_11cxx_lib/src/adc_11xx.c **** 	div = ((adcBlockFreq * 2 + fullAdcRate) / (fullAdcRate * 2)) - 1;
  78:../../lib/lpc11cx4-library/lpc_chip_11cxx_lib/src/adc_11xx.c **** 	return div;
  79:../../lib/lpc11cx4-library/lpc_chip_11cxx_lib/src/adc_11xx.c **** }
  80:../../lib/lpc11cx4-library/lpc_chip_11cxx_lib/src/adc_11xx.c **** 
  81:../../lib/lpc11cx4-library/lpc_chip_11cxx_lib/src/adc_11xx.c **** /* Set start mode for ADC */
  82:../../lib/lpc11cx4-library/lpc_chip_11cxx_lib/src/adc_11xx.c **** void setStartMode(LPC_ADC_T *pADC, uint8_t start_mode)
  83:../../lib/lpc11cx4-library/lpc_chip_11cxx_lib/src/adc_11xx.c **** {
  88              		.loc 1 83 0
ARM GAS  /var/folders/z0/6xlwn_996xz3mwq1cgzkbq4r0000gp/T//ccFLqfFe.s 			page 4


  89              		.cfi_startproc
  90              		@ args = 0, pretend = 0, frame = 0
  91              		@ frame_needed = 0, uses_anonymous_args = 0
  92              		@ link register save eliminated.
  93              	.LVL0:
  84:../../lib/lpc11cx4-library/lpc_chip_11cxx_lib/src/adc_11xx.c **** 	uint32_t temp;
  85:../../lib/lpc11cx4-library/lpc_chip_11cxx_lib/src/adc_11xx.c **** 	temp = pADC->CR & (~ADC_CR_START_MASK);
  94              		.loc 1 85 0
  95 0000 0268     		ldr	r2, [r0]	@ D.6428, pADC_2(D)->CR
  96              	.LVL1:
  86:../../lib/lpc11cx4-library/lpc_chip_11cxx_lib/src/adc_11xx.c **** 	pADC->CR = temp | (ADC_CR_START_MODE_SEL((uint32_t) start_mode));
  97              		.loc 1 86 0
  98 0002 034B     		ldr	r3, .L2	@ tmp118,
  99 0004 0906     		lsls	r1, r1, #24	@ D.6428, start_mode,
 100              	.LVL2:
 101 0006 1340     		ands	r3, r2	@ temp, D.6428
 102              	.LVL3:
 103 0008 1943     		orrs	r1, r3	@ D.6428, temp
 104 000a 0160     		str	r1, [r0]	@ D.6428, pADC_2(D)->CR
  87:../../lib/lpc11cx4-library/lpc_chip_11cxx_lib/src/adc_11xx.c **** }
 105              		.loc 1 87 0
 106              		@ sp needed	@
 107 000c 7047     		bx	lr
 108              	.L3:
 109 000e C046     		.align	2
 110              	.L2:
 111 0010 FFFFFFF8 		.word	-117440513
 112              		.cfi_endproc
 113              	.LFE200:
 114              		.size	setStartMode, .-setStartMode
 115              		.section	.text.readAdcVal,"ax",%progbits
 116              		.align	2
 117              		.global	readAdcVal
 118              		.code	16
 119              		.thumb_func
 120              		.type	readAdcVal, %function
 121              	readAdcVal:
 122              	.LFB214:
 123              		.cfi_startproc
 124              		@ args = 0, pretend = 0, frame = 0
 125              		@ frame_needed = 0, uses_anonymous_args = 0
 126              		@ link register save eliminated.
 127 0000 0431     		adds	r1, r1, #4	@ tmp121,
 128 0002 8900     		lsls	r1, r1, #2	@ tmp122, tmp121,
 129 0004 0B58     		ldr	r3, [r1, r0]	@ temp, pADC_2(D)->DR
 130 0006 0020     		movs	r0, #0	@ D.6440,
 131 0008 002B     		cmp	r3, #0	@ temp,
 132 000a 03DA     		bge	.L5	@,
 133 000c 1B04     		lsls	r3, r3, #16	@ tmp126, temp,
 134 000e 9B0D     		lsrs	r3, r3, #22	@ tmp125, tmp126,
 135 0010 1380     		strh	r3, [r2]	@ tmp125, *data_4(D)
 136 0012 0130     		adds	r0, r0, #1	@ D.6440,
 137              	.L5:
 138              		@ sp needed	@
 139 0014 7047     		bx	lr
 140              		.cfi_endproc
 141              	.LFE214:
ARM GAS  /var/folders/z0/6xlwn_996xz3mwq1cgzkbq4r0000gp/T//ccFLqfFe.s 			page 5


 142              		.size	readAdcVal, .-readAdcVal
 143              		.global	__aeabi_uidiv
 144 0016 C046     		.section	.text.Chip_ADC_Init,"ax",%progbits
 145              		.align	2
 146              		.global	Chip_ADC_Init
 147              		.code	16
 148              		.thumb_func
 149              		.type	Chip_ADC_Init, %function
 150              	Chip_ADC_Init:
 151              	.LFB202:
  88:../../lib/lpc11cx4-library/lpc_chip_11cxx_lib/src/adc_11xx.c **** 
  89:../../lib/lpc11cx4-library/lpc_chip_11cxx_lib/src/adc_11xx.c **** /* Get the ADC value */
  90:../../lib/lpc11cx4-library/lpc_chip_11cxx_lib/src/adc_11xx.c **** Status readAdcVal(LPC_ADC_T *pADC, uint8_t channel, uint16_t *data)
  91:../../lib/lpc11cx4-library/lpc_chip_11cxx_lib/src/adc_11xx.c **** {
  92:../../lib/lpc11cx4-library/lpc_chip_11cxx_lib/src/adc_11xx.c **** 	uint32_t temp;
  93:../../lib/lpc11cx4-library/lpc_chip_11cxx_lib/src/adc_11xx.c **** 	temp = pADC->DR[channel];
  94:../../lib/lpc11cx4-library/lpc_chip_11cxx_lib/src/adc_11xx.c **** 	if (!ADC_DR_DONE(temp)) {
  95:../../lib/lpc11cx4-library/lpc_chip_11cxx_lib/src/adc_11xx.c **** 		return ERROR;
  96:../../lib/lpc11cx4-library/lpc_chip_11cxx_lib/src/adc_11xx.c **** 	}
  97:../../lib/lpc11cx4-library/lpc_chip_11cxx_lib/src/adc_11xx.c **** 	/*	if(ADC_DR_OVERRUN(temp) && (pADC->CR & ADC_CR_BURST)) */
  98:../../lib/lpc11cx4-library/lpc_chip_11cxx_lib/src/adc_11xx.c **** 	/*	return ERROR; */
  99:../../lib/lpc11cx4-library/lpc_chip_11cxx_lib/src/adc_11xx.c **** 	*data = (uint16_t) ADC_DR_RESULT(temp);
 100:../../lib/lpc11cx4-library/lpc_chip_11cxx_lib/src/adc_11xx.c **** 	return SUCCESS;
 101:../../lib/lpc11cx4-library/lpc_chip_11cxx_lib/src/adc_11xx.c **** }
 102:../../lib/lpc11cx4-library/lpc_chip_11cxx_lib/src/adc_11xx.c **** 
 103:../../lib/lpc11cx4-library/lpc_chip_11cxx_lib/src/adc_11xx.c **** /*****************************************************************************
 104:../../lib/lpc11cx4-library/lpc_chip_11cxx_lib/src/adc_11xx.c ****  * Public functions
 105:../../lib/lpc11cx4-library/lpc_chip_11cxx_lib/src/adc_11xx.c ****  ****************************************************************************/
 106:../../lib/lpc11cx4-library/lpc_chip_11cxx_lib/src/adc_11xx.c **** 
 107:../../lib/lpc11cx4-library/lpc_chip_11cxx_lib/src/adc_11xx.c **** /* Initialize the ADC peripheral and the ADC setup structure to default value */
 108:../../lib/lpc11cx4-library/lpc_chip_11cxx_lib/src/adc_11xx.c **** void Chip_ADC_Init(LPC_ADC_T *pADC, ADC_CLOCK_SETUP_T *ADCSetup)
 109:../../lib/lpc11cx4-library/lpc_chip_11cxx_lib/src/adc_11xx.c **** {
 152              		.loc 1 109 0
 153              		.cfi_startproc
 154              		@ args = 0, pretend = 0, frame = 0
 155              		@ frame_needed = 0, uses_anonymous_args = 0
 156              	.LVL4:
 157              		.loc 1 109 0
 158 0000 70B5     		push	{r4, r5, r6, lr}	@
 159              		.cfi_def_cfa_offset 16
 160              		.cfi_offset 4, -16
 161              		.cfi_offset 5, -12
 162              		.cfi_offset 6, -8
 163              		.cfi_offset 14, -4
 164              		.loc 1 109 0
 165 0002 0400     		movs	r4, r0	@ pADC, pADC
 110:../../lib/lpc11cx4-library/lpc_chip_11cxx_lib/src/adc_11xx.c **** 	uint8_t div;
 111:../../lib/lpc11cx4-library/lpc_chip_11cxx_lib/src/adc_11xx.c **** 	uint32_t cr = 0;
 112:../../lib/lpc11cx4-library/lpc_chip_11cxx_lib/src/adc_11xx.c **** 	uint32_t clk;
 113:../../lib/lpc11cx4-library/lpc_chip_11cxx_lib/src/adc_11xx.c **** 
 114:../../lib/lpc11cx4-library/lpc_chip_11cxx_lib/src/adc_11xx.c **** 	Chip_SYSCTL_PowerUp(SYSCTL_POWERDOWN_ADC_PD);
 166              		.loc 1 114 0
 167 0004 1020     		movs	r0, #16	@,
 168              	.LVL5:
 109:../../lib/lpc11cx4-library/lpc_chip_11cxx_lib/src/adc_11xx.c **** 	uint8_t div;
 169              		.loc 1 109 0
 170 0006 0D00     		movs	r5, r1	@ ADCSetup, ADCSetup
ARM GAS  /var/folders/z0/6xlwn_996xz3mwq1cgzkbq4r0000gp/T//ccFLqfFe.s 			page 6


 171              		.loc 1 114 0
 172 0008 FFF7FEFF 		bl	Chip_SYSCTL_PowerUp	@
 173              	.LVL6:
 174              	.LBB20:
 175              	.LBB21:
 176              		.file 2 "../../lib/lpc11cx4-library/lpc_chip_11cxx_lib/inc/clock_11xx.h"
   1:../../lib/lpc11cx4-library/lpc_chip_11cxx_lib/inc/clock_11xx.h **** /*
   2:../../lib/lpc11cx4-library/lpc_chip_11cxx_lib/inc/clock_11xx.h ****  * @brief LPC11XX Clock control functions
   3:../../lib/lpc11cx4-library/lpc_chip_11cxx_lib/inc/clock_11xx.h ****  *
   4:../../lib/lpc11cx4-library/lpc_chip_11cxx_lib/inc/clock_11xx.h ****  * @note
   5:../../lib/lpc11cx4-library/lpc_chip_11cxx_lib/inc/clock_11xx.h ****  * Copyright(C) NXP Semiconductors, 2012
   6:../../lib/lpc11cx4-library/lpc_chip_11cxx_lib/inc/clock_11xx.h ****  * All rights reserved.
   7:../../lib/lpc11cx4-library/lpc_chip_11cxx_lib/inc/clock_11xx.h ****  *
   8:../../lib/lpc11cx4-library/lpc_chip_11cxx_lib/inc/clock_11xx.h ****  * @par
   9:../../lib/lpc11cx4-library/lpc_chip_11cxx_lib/inc/clock_11xx.h ****  * Software that is described herein is for illustrative purposes only
  10:../../lib/lpc11cx4-library/lpc_chip_11cxx_lib/inc/clock_11xx.h ****  * which provides customers with programming information regarding the
  11:../../lib/lpc11cx4-library/lpc_chip_11cxx_lib/inc/clock_11xx.h ****  * LPC products.  This software is supplied "AS IS" without any warranties of
  12:../../lib/lpc11cx4-library/lpc_chip_11cxx_lib/inc/clock_11xx.h ****  * any kind, and NXP Semiconductors and its licensor disclaim any and
  13:../../lib/lpc11cx4-library/lpc_chip_11cxx_lib/inc/clock_11xx.h ****  * all warranties, express or implied, including all implied warranties of
  14:../../lib/lpc11cx4-library/lpc_chip_11cxx_lib/inc/clock_11xx.h ****  * merchantability, fitness for a particular purpose and non-infringement of
  15:../../lib/lpc11cx4-library/lpc_chip_11cxx_lib/inc/clock_11xx.h ****  * intellectual property rights.  NXP Semiconductors assumes no responsibility
  16:../../lib/lpc11cx4-library/lpc_chip_11cxx_lib/inc/clock_11xx.h ****  * or liability for the use of the software, conveys no license or rights under any
  17:../../lib/lpc11cx4-library/lpc_chip_11cxx_lib/inc/clock_11xx.h ****  * patent, copyright, mask work right, or any other intellectual property rights in
  18:../../lib/lpc11cx4-library/lpc_chip_11cxx_lib/inc/clock_11xx.h ****  * or to any products. NXP Semiconductors reserves the right to make changes
  19:../../lib/lpc11cx4-library/lpc_chip_11cxx_lib/inc/clock_11xx.h ****  * in the software without notification. NXP Semiconductors also makes no
  20:../../lib/lpc11cx4-library/lpc_chip_11cxx_lib/inc/clock_11xx.h ****  * representation or warranty that such application will be suitable for the
  21:../../lib/lpc11cx4-library/lpc_chip_11cxx_lib/inc/clock_11xx.h ****  * specified use without further testing or modification.
  22:../../lib/lpc11cx4-library/lpc_chip_11cxx_lib/inc/clock_11xx.h ****  *
  23:../../lib/lpc11cx4-library/lpc_chip_11cxx_lib/inc/clock_11xx.h ****  * @par
  24:../../lib/lpc11cx4-library/lpc_chip_11cxx_lib/inc/clock_11xx.h ****  * Permission to use, copy, modify, and distribute this software and its
  25:../../lib/lpc11cx4-library/lpc_chip_11cxx_lib/inc/clock_11xx.h ****  * documentation is hereby granted, under NXP Semiconductors' and its
  26:../../lib/lpc11cx4-library/lpc_chip_11cxx_lib/inc/clock_11xx.h ****  * licensor's relevant copyrights in the software, without fee, provided that it
  27:../../lib/lpc11cx4-library/lpc_chip_11cxx_lib/inc/clock_11xx.h ****  * is used in conjunction with NXP Semiconductors microcontrollers.  This
  28:../../lib/lpc11cx4-library/lpc_chip_11cxx_lib/inc/clock_11xx.h ****  * copyright, permission, and disclaimer notice must appear in all copies of
  29:../../lib/lpc11cx4-library/lpc_chip_11cxx_lib/inc/clock_11xx.h ****  * this code.
  30:../../lib/lpc11cx4-library/lpc_chip_11cxx_lib/inc/clock_11xx.h ****  */
  31:../../lib/lpc11cx4-library/lpc_chip_11cxx_lib/inc/clock_11xx.h **** 
  32:../../lib/lpc11cx4-library/lpc_chip_11cxx_lib/inc/clock_11xx.h **** #ifndef __CLOCK_11XX_H_
  33:../../lib/lpc11cx4-library/lpc_chip_11cxx_lib/inc/clock_11xx.h **** #define __CLOCK_11XX_H_
  34:../../lib/lpc11cx4-library/lpc_chip_11cxx_lib/inc/clock_11xx.h **** 
  35:../../lib/lpc11cx4-library/lpc_chip_11cxx_lib/inc/clock_11xx.h **** #ifdef __cplusplus
  36:../../lib/lpc11cx4-library/lpc_chip_11cxx_lib/inc/clock_11xx.h **** extern "C" {
  37:../../lib/lpc11cx4-library/lpc_chip_11cxx_lib/inc/clock_11xx.h **** #endif
  38:../../lib/lpc11cx4-library/lpc_chip_11cxx_lib/inc/clock_11xx.h **** 
  39:../../lib/lpc11cx4-library/lpc_chip_11cxx_lib/inc/clock_11xx.h **** /** @defgroup CLOCK_11XX CHIP: LPC11xx Clock Control block driver
  40:../../lib/lpc11cx4-library/lpc_chip_11cxx_lib/inc/clock_11xx.h ****  * @ingroup CHIP_11XX_Drivers
  41:../../lib/lpc11cx4-library/lpc_chip_11cxx_lib/inc/clock_11xx.h ****  * @{
  42:../../lib/lpc11cx4-library/lpc_chip_11cxx_lib/inc/clock_11xx.h ****  */
  43:../../lib/lpc11cx4-library/lpc_chip_11cxx_lib/inc/clock_11xx.h **** 
  44:../../lib/lpc11cx4-library/lpc_chip_11cxx_lib/inc/clock_11xx.h **** /** Internal oscillator frequency */
  45:../../lib/lpc11cx4-library/lpc_chip_11cxx_lib/inc/clock_11xx.h **** #define SYSCTL_IRC_FREQ (12000000)
  46:../../lib/lpc11cx4-library/lpc_chip_11cxx_lib/inc/clock_11xx.h **** 
  47:../../lib/lpc11cx4-library/lpc_chip_11cxx_lib/inc/clock_11xx.h **** /**
  48:../../lib/lpc11cx4-library/lpc_chip_11cxx_lib/inc/clock_11xx.h ****  * @brief	Set System PLL divider values
  49:../../lib/lpc11cx4-library/lpc_chip_11cxx_lib/inc/clock_11xx.h ****  * @param	msel    : PLL feedback divider value. M = msel + 1.
  50:../../lib/lpc11cx4-library/lpc_chip_11cxx_lib/inc/clock_11xx.h ****  * @param	psel    : PLL post divider value. P =  (1<<psel).
  51:../../lib/lpc11cx4-library/lpc_chip_11cxx_lib/inc/clock_11xx.h ****  * @return	Nothing
ARM GAS  /var/folders/z0/6xlwn_996xz3mwq1cgzkbq4r0000gp/T//ccFLqfFe.s 			page 7


  52:../../lib/lpc11cx4-library/lpc_chip_11cxx_lib/inc/clock_11xx.h ****  * @note	See the user manual for how to setup the PLL.
  53:../../lib/lpc11cx4-library/lpc_chip_11cxx_lib/inc/clock_11xx.h ****  */
  54:../../lib/lpc11cx4-library/lpc_chip_11cxx_lib/inc/clock_11xx.h **** STATIC INLINE void Chip_Clock_SetupSystemPLL(uint8_t msel, uint8_t psel)
  55:../../lib/lpc11cx4-library/lpc_chip_11cxx_lib/inc/clock_11xx.h **** {
  56:../../lib/lpc11cx4-library/lpc_chip_11cxx_lib/inc/clock_11xx.h **** 	LPC_SYSCTL->SYSPLLCTRL = (msel & 0x1F) | ((psel & 0x3) << 5);
  57:../../lib/lpc11cx4-library/lpc_chip_11cxx_lib/inc/clock_11xx.h **** }
  58:../../lib/lpc11cx4-library/lpc_chip_11cxx_lib/inc/clock_11xx.h **** 
  59:../../lib/lpc11cx4-library/lpc_chip_11cxx_lib/inc/clock_11xx.h **** /**
  60:../../lib/lpc11cx4-library/lpc_chip_11cxx_lib/inc/clock_11xx.h ****  * @brief	Read System PLL lock status
  61:../../lib/lpc11cx4-library/lpc_chip_11cxx_lib/inc/clock_11xx.h ****  * @return	true of the PLL is locked. false if not locked
  62:../../lib/lpc11cx4-library/lpc_chip_11cxx_lib/inc/clock_11xx.h ****  */
  63:../../lib/lpc11cx4-library/lpc_chip_11cxx_lib/inc/clock_11xx.h **** STATIC INLINE bool Chip_Clock_IsSystemPLLLocked(void)
  64:../../lib/lpc11cx4-library/lpc_chip_11cxx_lib/inc/clock_11xx.h **** {
  65:../../lib/lpc11cx4-library/lpc_chip_11cxx_lib/inc/clock_11xx.h **** 	return (bool) ((LPC_SYSCTL->SYSPLLSTAT & 1) != 0);
  66:../../lib/lpc11cx4-library/lpc_chip_11cxx_lib/inc/clock_11xx.h **** }
  67:../../lib/lpc11cx4-library/lpc_chip_11cxx_lib/inc/clock_11xx.h **** 
  68:../../lib/lpc11cx4-library/lpc_chip_11cxx_lib/inc/clock_11xx.h **** /**
  69:../../lib/lpc11cx4-library/lpc_chip_11cxx_lib/inc/clock_11xx.h ****  * Clock sources for system and USB PLLs
  70:../../lib/lpc11cx4-library/lpc_chip_11cxx_lib/inc/clock_11xx.h ****  */
  71:../../lib/lpc11cx4-library/lpc_chip_11cxx_lib/inc/clock_11xx.h **** typedef enum CHIP_SYSCTL_PLLCLKSRC {
  72:../../lib/lpc11cx4-library/lpc_chip_11cxx_lib/inc/clock_11xx.h **** 	SYSCTL_PLLCLKSRC_IRC = 0,		/*!< Internal oscillator in */
  73:../../lib/lpc11cx4-library/lpc_chip_11cxx_lib/inc/clock_11xx.h **** 	SYSCTL_PLLCLKSRC_MAINOSC,		/*!< Crystal (main) oscillator in */
  74:../../lib/lpc11cx4-library/lpc_chip_11cxx_lib/inc/clock_11xx.h **** #if defined(CHIP_LPC11AXX)
  75:../../lib/lpc11cx4-library/lpc_chip_11cxx_lib/inc/clock_11xx.h **** 	SYSCTL_PLLCLKSRC_EXT_CLKIN,	/*!< External clock in (11Axx only) */
  76:../../lib/lpc11cx4-library/lpc_chip_11cxx_lib/inc/clock_11xx.h **** #else
  77:../../lib/lpc11cx4-library/lpc_chip_11cxx_lib/inc/clock_11xx.h **** 	SYSCTL_PLLCLKSRC_RESERVED1,	/*!< Reserved */
  78:../../lib/lpc11cx4-library/lpc_chip_11cxx_lib/inc/clock_11xx.h **** #endif
  79:../../lib/lpc11cx4-library/lpc_chip_11cxx_lib/inc/clock_11xx.h **** 	SYSCTL_PLLCLKSRC_RESERVED2,	/*!< Reserved */
  80:../../lib/lpc11cx4-library/lpc_chip_11cxx_lib/inc/clock_11xx.h **** } CHIP_SYSCTL_PLLCLKSRC_T;
  81:../../lib/lpc11cx4-library/lpc_chip_11cxx_lib/inc/clock_11xx.h **** 
  82:../../lib/lpc11cx4-library/lpc_chip_11cxx_lib/inc/clock_11xx.h **** /**
  83:../../lib/lpc11cx4-library/lpc_chip_11cxx_lib/inc/clock_11xx.h ****  * @brief	Set System PLL clock source
  84:../../lib/lpc11cx4-library/lpc_chip_11cxx_lib/inc/clock_11xx.h ****  * @param	src	: Clock source for system PLL
  85:../../lib/lpc11cx4-library/lpc_chip_11cxx_lib/inc/clock_11xx.h ****  * @return	Nothing
  86:../../lib/lpc11cx4-library/lpc_chip_11cxx_lib/inc/clock_11xx.h ****  * @note	This function will also toggle the clock source update register
  87:../../lib/lpc11cx4-library/lpc_chip_11cxx_lib/inc/clock_11xx.h ****  * to update the clock source.
  88:../../lib/lpc11cx4-library/lpc_chip_11cxx_lib/inc/clock_11xx.h ****  */
  89:../../lib/lpc11cx4-library/lpc_chip_11cxx_lib/inc/clock_11xx.h **** void Chip_Clock_SetSystemPLLSource(CHIP_SYSCTL_PLLCLKSRC_T src);
  90:../../lib/lpc11cx4-library/lpc_chip_11cxx_lib/inc/clock_11xx.h **** 
  91:../../lib/lpc11cx4-library/lpc_chip_11cxx_lib/inc/clock_11xx.h **** #if defined(CHIP_LPC11UXX)
  92:../../lib/lpc11cx4-library/lpc_chip_11cxx_lib/inc/clock_11xx.h **** /**
  93:../../lib/lpc11cx4-library/lpc_chip_11cxx_lib/inc/clock_11xx.h ****  * @brief	Set USB PLL divider values
  94:../../lib/lpc11cx4-library/lpc_chip_11cxx_lib/inc/clock_11xx.h ****  * @param	msel    : PLL feedback divider value. M = msel + 1.
  95:../../lib/lpc11cx4-library/lpc_chip_11cxx_lib/inc/clock_11xx.h ****  * @param	psel    : PLL post divider value. P = (1<<psel).
  96:../../lib/lpc11cx4-library/lpc_chip_11cxx_lib/inc/clock_11xx.h ****  * @return	Nothing
  97:../../lib/lpc11cx4-library/lpc_chip_11cxx_lib/inc/clock_11xx.h ****  * @note	See the user manual for how to setup the PLL.
  98:../../lib/lpc11cx4-library/lpc_chip_11cxx_lib/inc/clock_11xx.h ****  */
  99:../../lib/lpc11cx4-library/lpc_chip_11cxx_lib/inc/clock_11xx.h **** STATIC INLINE void Chip_Clock_SetupUSBPLL(uint8_t msel, uint8_t psel)
 100:../../lib/lpc11cx4-library/lpc_chip_11cxx_lib/inc/clock_11xx.h **** {
 101:../../lib/lpc11cx4-library/lpc_chip_11cxx_lib/inc/clock_11xx.h **** 	LPC_SYSCTL->USBPLLCTRL = (msel & 0x1F) | ((psel & 0x3) << 5);
 102:../../lib/lpc11cx4-library/lpc_chip_11cxx_lib/inc/clock_11xx.h **** }
 103:../../lib/lpc11cx4-library/lpc_chip_11cxx_lib/inc/clock_11xx.h **** 
 104:../../lib/lpc11cx4-library/lpc_chip_11cxx_lib/inc/clock_11xx.h **** /**
 105:../../lib/lpc11cx4-library/lpc_chip_11cxx_lib/inc/clock_11xx.h ****  * @brief	Read USB PLL lock status
 106:../../lib/lpc11cx4-library/lpc_chip_11cxx_lib/inc/clock_11xx.h ****  * @return	true of the PLL is locked. false if not locked
 107:../../lib/lpc11cx4-library/lpc_chip_11cxx_lib/inc/clock_11xx.h ****  */
 108:../../lib/lpc11cx4-library/lpc_chip_11cxx_lib/inc/clock_11xx.h **** STATIC INLINE bool Chip_Clock_IsUSBPLLLocked(void)
ARM GAS  /var/folders/z0/6xlwn_996xz3mwq1cgzkbq4r0000gp/T//ccFLqfFe.s 			page 8


 109:../../lib/lpc11cx4-library/lpc_chip_11cxx_lib/inc/clock_11xx.h **** {
 110:../../lib/lpc11cx4-library/lpc_chip_11cxx_lib/inc/clock_11xx.h **** 	return (bool) ((LPC_SYSCTL->USBPLLSTAT & 1) != 0);
 111:../../lib/lpc11cx4-library/lpc_chip_11cxx_lib/inc/clock_11xx.h **** }
 112:../../lib/lpc11cx4-library/lpc_chip_11cxx_lib/inc/clock_11xx.h **** 
 113:../../lib/lpc11cx4-library/lpc_chip_11cxx_lib/inc/clock_11xx.h **** /**
 114:../../lib/lpc11cx4-library/lpc_chip_11cxx_lib/inc/clock_11xx.h ****  * @brief	Set USB PLL clock source
 115:../../lib/lpc11cx4-library/lpc_chip_11cxx_lib/inc/clock_11xx.h ****  * @param	src	: Clock source for USB PLL
 116:../../lib/lpc11cx4-library/lpc_chip_11cxx_lib/inc/clock_11xx.h ****  * @return	Nothing
 117:../../lib/lpc11cx4-library/lpc_chip_11cxx_lib/inc/clock_11xx.h ****  * @note	This function will also toggle the clock source update register
 118:../../lib/lpc11cx4-library/lpc_chip_11cxx_lib/inc/clock_11xx.h ****  * to update the clock source.
 119:../../lib/lpc11cx4-library/lpc_chip_11cxx_lib/inc/clock_11xx.h ****  */
 120:../../lib/lpc11cx4-library/lpc_chip_11cxx_lib/inc/clock_11xx.h **** void Chip_Clock_SetUSBPLLSource(CHIP_SYSCTL_PLLCLKSRC_T src);
 121:../../lib/lpc11cx4-library/lpc_chip_11cxx_lib/inc/clock_11xx.h **** 
 122:../../lib/lpc11cx4-library/lpc_chip_11cxx_lib/inc/clock_11xx.h **** #endif /*defined(CHIP_LPC11UXX)*/
 123:../../lib/lpc11cx4-library/lpc_chip_11cxx_lib/inc/clock_11xx.h **** 
 124:../../lib/lpc11cx4-library/lpc_chip_11cxx_lib/inc/clock_11xx.h **** /**
 125:../../lib/lpc11cx4-library/lpc_chip_11cxx_lib/inc/clock_11xx.h ****  * @brief	Bypass System Oscillator and set oscillator frequency range
 126:../../lib/lpc11cx4-library/lpc_chip_11cxx_lib/inc/clock_11xx.h ****  * @param	bypass	: Flag to bypass oscillator
 127:../../lib/lpc11cx4-library/lpc_chip_11cxx_lib/inc/clock_11xx.h ****  * @param	highfr	: Flag to set oscillator range from 15-25 MHz
 128:../../lib/lpc11cx4-library/lpc_chip_11cxx_lib/inc/clock_11xx.h ****  * @return	Nothing
 129:../../lib/lpc11cx4-library/lpc_chip_11cxx_lib/inc/clock_11xx.h ****  * @note	Sets the PLL input to bypass the oscillator. This would be
 130:../../lib/lpc11cx4-library/lpc_chip_11cxx_lib/inc/clock_11xx.h ****  * used if an external clock that is not an oscillator is attached
 131:../../lib/lpc11cx4-library/lpc_chip_11cxx_lib/inc/clock_11xx.h ****  * to the XTALIN pin.
 132:../../lib/lpc11cx4-library/lpc_chip_11cxx_lib/inc/clock_11xx.h ****  */
 133:../../lib/lpc11cx4-library/lpc_chip_11cxx_lib/inc/clock_11xx.h **** void Chip_Clock_SetPLLBypass(bool bypass, bool highfr);
 134:../../lib/lpc11cx4-library/lpc_chip_11cxx_lib/inc/clock_11xx.h **** 
 135:../../lib/lpc11cx4-library/lpc_chip_11cxx_lib/inc/clock_11xx.h **** /**
 136:../../lib/lpc11cx4-library/lpc_chip_11cxx_lib/inc/clock_11xx.h ****  * Watchdog and low frequency oscillator frequencies plus or minus 40%
 137:../../lib/lpc11cx4-library/lpc_chip_11cxx_lib/inc/clock_11xx.h ****  */
 138:../../lib/lpc11cx4-library/lpc_chip_11cxx_lib/inc/clock_11xx.h **** typedef enum CHIP_WDTLFO_OSC {
 139:../../lib/lpc11cx4-library/lpc_chip_11cxx_lib/inc/clock_11xx.h **** 	WDTLFO_OSC_ILLEGAL,
 140:../../lib/lpc11cx4-library/lpc_chip_11cxx_lib/inc/clock_11xx.h **** 	WDTLFO_OSC_0_60,	/*!< 0.6 MHz watchdog/LFO rate */
 141:../../lib/lpc11cx4-library/lpc_chip_11cxx_lib/inc/clock_11xx.h **** 	WDTLFO_OSC_1_05,	/*!< 1.05 MHz watchdog/LFO rate */
 142:../../lib/lpc11cx4-library/lpc_chip_11cxx_lib/inc/clock_11xx.h **** 	WDTLFO_OSC_1_40,	/*!< 1.4 MHz watchdog/LFO rate */
 143:../../lib/lpc11cx4-library/lpc_chip_11cxx_lib/inc/clock_11xx.h **** 	WDTLFO_OSC_1_75,	/*!< 1.75 MHz watchdog/LFO rate */
 144:../../lib/lpc11cx4-library/lpc_chip_11cxx_lib/inc/clock_11xx.h **** 	WDTLFO_OSC_2_10,	/*!< 2.1 MHz watchdog/LFO rate */
 145:../../lib/lpc11cx4-library/lpc_chip_11cxx_lib/inc/clock_11xx.h **** 	WDTLFO_OSC_2_40,	/*!< 2.4 MHz watchdog/LFO rate */
 146:../../lib/lpc11cx4-library/lpc_chip_11cxx_lib/inc/clock_11xx.h **** 	WDTLFO_OSC_2_70,	/*!< 2.7 MHz watchdog/LFO rate */
 147:../../lib/lpc11cx4-library/lpc_chip_11cxx_lib/inc/clock_11xx.h **** 	WDTLFO_OSC_3_00,	/*!< 3.0 MHz watchdog/LFO rate */
 148:../../lib/lpc11cx4-library/lpc_chip_11cxx_lib/inc/clock_11xx.h **** 	WDTLFO_OSC_3_25,	/*!< 3.25 MHz watchdog/LFO rate */
 149:../../lib/lpc11cx4-library/lpc_chip_11cxx_lib/inc/clock_11xx.h **** 	WDTLFO_OSC_3_50,	/*!< 3.5 MHz watchdog/LFO rate */
 150:../../lib/lpc11cx4-library/lpc_chip_11cxx_lib/inc/clock_11xx.h **** 	WDTLFO_OSC_3_75,	/*!< 3.75 MHz watchdog/LFO rate */
 151:../../lib/lpc11cx4-library/lpc_chip_11cxx_lib/inc/clock_11xx.h **** 	WDTLFO_OSC_4_00,	/*!< 4.0 MHz watchdog/LFO rate */
 152:../../lib/lpc11cx4-library/lpc_chip_11cxx_lib/inc/clock_11xx.h **** 	WDTLFO_OSC_4_20,	/*!< 4.2 MHz watchdog/LFO rate */
 153:../../lib/lpc11cx4-library/lpc_chip_11cxx_lib/inc/clock_11xx.h **** 	WDTLFO_OSC_4_40,	/*!< 4.4 MHz watchdog/LFO rate */
 154:../../lib/lpc11cx4-library/lpc_chip_11cxx_lib/inc/clock_11xx.h **** 	WDTLFO_OSC_4_60		/*!< 4.6 MHz watchdog/LFO rate */
 155:../../lib/lpc11cx4-library/lpc_chip_11cxx_lib/inc/clock_11xx.h **** } CHIP_WDTLFO_OSC_T;
 156:../../lib/lpc11cx4-library/lpc_chip_11cxx_lib/inc/clock_11xx.h **** 
 157:../../lib/lpc11cx4-library/lpc_chip_11cxx_lib/inc/clock_11xx.h **** /**
 158:../../lib/lpc11cx4-library/lpc_chip_11cxx_lib/inc/clock_11xx.h ****  * @brief	Setup Watchdog oscillator rate and divider
 159:../../lib/lpc11cx4-library/lpc_chip_11cxx_lib/inc/clock_11xx.h ****  * @param	wdtclk	: Selected watchdog clock rate
 160:../../lib/lpc11cx4-library/lpc_chip_11cxx_lib/inc/clock_11xx.h ****  * @param	div		: Watchdog divider value, even value between 2 and 64
 161:../../lib/lpc11cx4-library/lpc_chip_11cxx_lib/inc/clock_11xx.h ****  * @return	Nothing
 162:../../lib/lpc11cx4-library/lpc_chip_11cxx_lib/inc/clock_11xx.h ****  * @note	Watchdog rate = selected rate divided by divider rate
 163:../../lib/lpc11cx4-library/lpc_chip_11cxx_lib/inc/clock_11xx.h ****  */
 164:../../lib/lpc11cx4-library/lpc_chip_11cxx_lib/inc/clock_11xx.h **** STATIC INLINE void Chip_Clock_SetWDTOSC(CHIP_WDTLFO_OSC_T wdtclk, uint8_t div)
 165:../../lib/lpc11cx4-library/lpc_chip_11cxx_lib/inc/clock_11xx.h **** {
ARM GAS  /var/folders/z0/6xlwn_996xz3mwq1cgzkbq4r0000gp/T//ccFLqfFe.s 			page 9


 166:../../lib/lpc11cx4-library/lpc_chip_11cxx_lib/inc/clock_11xx.h **** 	LPC_SYSCTL->WDTOSCCTRL  = (((uint32_t) wdtclk) << 5) | ((div >> 1) - 1);
 167:../../lib/lpc11cx4-library/lpc_chip_11cxx_lib/inc/clock_11xx.h **** }
 168:../../lib/lpc11cx4-library/lpc_chip_11cxx_lib/inc/clock_11xx.h **** 
 169:../../lib/lpc11cx4-library/lpc_chip_11cxx_lib/inc/clock_11xx.h **** #if defined(CHIP_LPC11AXX)
 170:../../lib/lpc11cx4-library/lpc_chip_11cxx_lib/inc/clock_11xx.h **** /**
 171:../../lib/lpc11cx4-library/lpc_chip_11cxx_lib/inc/clock_11xx.h ****  * @brief	Setup low frequency oscillator rate and divider
 172:../../lib/lpc11cx4-library/lpc_chip_11cxx_lib/inc/clock_11xx.h ****  * @param	lfoclk	: Selected low frequency clock rate
 173:../../lib/lpc11cx4-library/lpc_chip_11cxx_lib/inc/clock_11xx.h ****  * @param	div		: Low frequency divider value, even value between 2 and 64
 174:../../lib/lpc11cx4-library/lpc_chip_11cxx_lib/inc/clock_11xx.h ****  * @return	Nothing
 175:../../lib/lpc11cx4-library/lpc_chip_11cxx_lib/inc/clock_11xx.h ****  * @note	Low frequency oscillator rate = selected rate divided by divider rate
 176:../../lib/lpc11cx4-library/lpc_chip_11cxx_lib/inc/clock_11xx.h ****  */
 177:../../lib/lpc11cx4-library/lpc_chip_11cxx_lib/inc/clock_11xx.h **** STATIC INLINE void Chip_Clock_SetLFOSC(CHIP_WDTLFO_OSC_T lfoclk, uint8_t div)
 178:../../lib/lpc11cx4-library/lpc_chip_11cxx_lib/inc/clock_11xx.h **** {
 179:../../lib/lpc11cx4-library/lpc_chip_11cxx_lib/inc/clock_11xx.h **** 	LPC_SYSCTL->LFOSCCTRL  = (((uint32_t) lfoclk) << 5) | ((div >> 1) - 1);
 180:../../lib/lpc11cx4-library/lpc_chip_11cxx_lib/inc/clock_11xx.h **** }
 181:../../lib/lpc11cx4-library/lpc_chip_11cxx_lib/inc/clock_11xx.h **** 
 182:../../lib/lpc11cx4-library/lpc_chip_11cxx_lib/inc/clock_11xx.h **** #endif /*CHIP_LPC11AXX*/
 183:../../lib/lpc11cx4-library/lpc_chip_11cxx_lib/inc/clock_11xx.h **** 
 184:../../lib/lpc11cx4-library/lpc_chip_11cxx_lib/inc/clock_11xx.h **** /**
 185:../../lib/lpc11cx4-library/lpc_chip_11cxx_lib/inc/clock_11xx.h ****  * Clock sources for main system clock
 186:../../lib/lpc11cx4-library/lpc_chip_11cxx_lib/inc/clock_11xx.h ****  */
 187:../../lib/lpc11cx4-library/lpc_chip_11cxx_lib/inc/clock_11xx.h **** typedef enum CHIP_SYSCTL_MAINCLKSRC {
 188:../../lib/lpc11cx4-library/lpc_chip_11cxx_lib/inc/clock_11xx.h **** 	SYSCTL_MAINCLKSRC_IRC = 0,		/*!< Internal oscillator */
 189:../../lib/lpc11cx4-library/lpc_chip_11cxx_lib/inc/clock_11xx.h **** 	SYSCTL_MAINCLKSRC_PLLIN,		/*!< System PLL input */
 190:../../lib/lpc11cx4-library/lpc_chip_11cxx_lib/inc/clock_11xx.h **** 	SYSCTL_MAINCLKSRC_LFOSC,		/*!< LF oscillator rate (11Axx only) */
 191:../../lib/lpc11cx4-library/lpc_chip_11cxx_lib/inc/clock_11xx.h **** 	SYSCTL_MAINCLKSRC_WDTOSC = SYSCTL_MAINCLKSRC_LFOSC,	/*!< Watchdog oscillator rate */
 192:../../lib/lpc11cx4-library/lpc_chip_11cxx_lib/inc/clock_11xx.h **** 	SYSCTL_MAINCLKSRC_PLLOUT,		/*!< System PLL output */
 193:../../lib/lpc11cx4-library/lpc_chip_11cxx_lib/inc/clock_11xx.h **** } CHIP_SYSCTL_MAINCLKSRC_T;
 194:../../lib/lpc11cx4-library/lpc_chip_11cxx_lib/inc/clock_11xx.h **** 
 195:../../lib/lpc11cx4-library/lpc_chip_11cxx_lib/inc/clock_11xx.h **** /**
 196:../../lib/lpc11cx4-library/lpc_chip_11cxx_lib/inc/clock_11xx.h ****  * @brief	Set main system clock source
 197:../../lib/lpc11cx4-library/lpc_chip_11cxx_lib/inc/clock_11xx.h ****  * @param	src	: Clock source for main system
 198:../../lib/lpc11cx4-library/lpc_chip_11cxx_lib/inc/clock_11xx.h ****  * @return	Nothing
 199:../../lib/lpc11cx4-library/lpc_chip_11cxx_lib/inc/clock_11xx.h ****  * @note	This function will also toggle the clock source update register
 200:../../lib/lpc11cx4-library/lpc_chip_11cxx_lib/inc/clock_11xx.h ****  * to update the clock source.
 201:../../lib/lpc11cx4-library/lpc_chip_11cxx_lib/inc/clock_11xx.h ****  */
 202:../../lib/lpc11cx4-library/lpc_chip_11cxx_lib/inc/clock_11xx.h **** void Chip_Clock_SetMainClockSource(CHIP_SYSCTL_MAINCLKSRC_T src);
 203:../../lib/lpc11cx4-library/lpc_chip_11cxx_lib/inc/clock_11xx.h **** 
 204:../../lib/lpc11cx4-library/lpc_chip_11cxx_lib/inc/clock_11xx.h **** /**
 205:../../lib/lpc11cx4-library/lpc_chip_11cxx_lib/inc/clock_11xx.h ****  * @brief   Returns the main clock source
 206:../../lib/lpc11cx4-library/lpc_chip_11cxx_lib/inc/clock_11xx.h ****  * @return	Which clock is used for the core clock source?
 207:../../lib/lpc11cx4-library/lpc_chip_11cxx_lib/inc/clock_11xx.h ****  */
 208:../../lib/lpc11cx4-library/lpc_chip_11cxx_lib/inc/clock_11xx.h **** STATIC INLINE CHIP_SYSCTL_MAINCLKSRC_T Chip_Clock_GetMainClockSource(void)
 209:../../lib/lpc11cx4-library/lpc_chip_11cxx_lib/inc/clock_11xx.h **** {
 210:../../lib/lpc11cx4-library/lpc_chip_11cxx_lib/inc/clock_11xx.h **** 	return (CHIP_SYSCTL_MAINCLKSRC_T) (LPC_SYSCTL->MAINCLKSEL);
 211:../../lib/lpc11cx4-library/lpc_chip_11cxx_lib/inc/clock_11xx.h **** }
 212:../../lib/lpc11cx4-library/lpc_chip_11cxx_lib/inc/clock_11xx.h **** 
 213:../../lib/lpc11cx4-library/lpc_chip_11cxx_lib/inc/clock_11xx.h **** /**
 214:../../lib/lpc11cx4-library/lpc_chip_11cxx_lib/inc/clock_11xx.h ****  * @brief	Set system clock divider
 215:../../lib/lpc11cx4-library/lpc_chip_11cxx_lib/inc/clock_11xx.h ****  * @param	div	: divider for system clock
 216:../../lib/lpc11cx4-library/lpc_chip_11cxx_lib/inc/clock_11xx.h ****  * @return	Nothing
 217:../../lib/lpc11cx4-library/lpc_chip_11cxx_lib/inc/clock_11xx.h ****  * @note	Use 0 to disable, or a divider value of 1 to 255. The system clock
 218:../../lib/lpc11cx4-library/lpc_chip_11cxx_lib/inc/clock_11xx.h ****  * rate is the main system clock divided by this value.
 219:../../lib/lpc11cx4-library/lpc_chip_11cxx_lib/inc/clock_11xx.h ****  */
 220:../../lib/lpc11cx4-library/lpc_chip_11cxx_lib/inc/clock_11xx.h **** STATIC INLINE void Chip_Clock_SetSysClockDiv(uint32_t div)
 221:../../lib/lpc11cx4-library/lpc_chip_11cxx_lib/inc/clock_11xx.h **** {
 222:../../lib/lpc11cx4-library/lpc_chip_11cxx_lib/inc/clock_11xx.h **** 	LPC_SYSCTL->SYSAHBCLKDIV  = div;
ARM GAS  /var/folders/z0/6xlwn_996xz3mwq1cgzkbq4r0000gp/T//ccFLqfFe.s 			page 10


 223:../../lib/lpc11cx4-library/lpc_chip_11cxx_lib/inc/clock_11xx.h **** }
 224:../../lib/lpc11cx4-library/lpc_chip_11cxx_lib/inc/clock_11xx.h **** 
 225:../../lib/lpc11cx4-library/lpc_chip_11cxx_lib/inc/clock_11xx.h **** /**
 226:../../lib/lpc11cx4-library/lpc_chip_11cxx_lib/inc/clock_11xx.h ****  * System and peripheral clocks
 227:../../lib/lpc11cx4-library/lpc_chip_11cxx_lib/inc/clock_11xx.h ****  */
 228:../../lib/lpc11cx4-library/lpc_chip_11cxx_lib/inc/clock_11xx.h **** typedef enum CHIP_SYSCTL_CLOCK {
 229:../../lib/lpc11cx4-library/lpc_chip_11cxx_lib/inc/clock_11xx.h **** 	SYSCTL_CLOCK_SYS = 0,				/*!< 0: System clock */
 230:../../lib/lpc11cx4-library/lpc_chip_11cxx_lib/inc/clock_11xx.h **** 	SYSCTL_CLOCK_ROM,					/*!<1:  ROM clock */
 231:../../lib/lpc11cx4-library/lpc_chip_11cxx_lib/inc/clock_11xx.h **** 	SYSCTL_CLOCK_RAM,					/*!< 2: RAM clock */
 232:../../lib/lpc11cx4-library/lpc_chip_11cxx_lib/inc/clock_11xx.h **** 	SYSCTL_CLOCK_FLASHREG,				/*!< 3: FLASH register interface clock */
 233:../../lib/lpc11cx4-library/lpc_chip_11cxx_lib/inc/clock_11xx.h **** 	SYSCTL_CLOCK_FLASHARRAY,			/*!< 4: FLASH array access clock */
 234:../../lib/lpc11cx4-library/lpc_chip_11cxx_lib/inc/clock_11xx.h **** #if defined(CHIP_LPC110X)
 235:../../lib/lpc11cx4-library/lpc_chip_11cxx_lib/inc/clock_11xx.h **** 	SYSCTL_CLOCK_RESERVED5,				/*!< 5: Reserved */
 236:../../lib/lpc11cx4-library/lpc_chip_11cxx_lib/inc/clock_11xx.h **** #else
 237:../../lib/lpc11cx4-library/lpc_chip_11cxx_lib/inc/clock_11xx.h **** 	SYSCTL_CLOCK_I2C,					/*!< 5: I2C clock, not on LPC110x */
 238:../../lib/lpc11cx4-library/lpc_chip_11cxx_lib/inc/clock_11xx.h **** #endif
 239:../../lib/lpc11cx4-library/lpc_chip_11cxx_lib/inc/clock_11xx.h **** 	SYSCTL_CLOCK_GPIO,					/*!< 6: GPIO clock */
 240:../../lib/lpc11cx4-library/lpc_chip_11cxx_lib/inc/clock_11xx.h **** 	SYSCTL_CLOCK_CT16B0,				/*!< 7: 16-bit Counter/timer 0 clock */
 241:../../lib/lpc11cx4-library/lpc_chip_11cxx_lib/inc/clock_11xx.h **** 	SYSCTL_CLOCK_CT16B1,				/*!< 8: 16-bit Counter/timer 1 clock */
 242:../../lib/lpc11cx4-library/lpc_chip_11cxx_lib/inc/clock_11xx.h **** 	SYSCTL_CLOCK_CT32B0,				/*!< 9: 32-bit Counter/timer 0 clock */
 243:../../lib/lpc11cx4-library/lpc_chip_11cxx_lib/inc/clock_11xx.h **** 	SYSCTL_CLOCK_CT32B1,				/*!< 10: 32-bit Counter/timer 1 clock */
 244:../../lib/lpc11cx4-library/lpc_chip_11cxx_lib/inc/clock_11xx.h **** 	SYSCTL_CLOCK_SSP0,					/*!< 11: SSP0 clock */
 245:../../lib/lpc11cx4-library/lpc_chip_11cxx_lib/inc/clock_11xx.h **** 	SYSCTL_CLOCK_UART0,					/*!< 12: UART0 clock */
 246:../../lib/lpc11cx4-library/lpc_chip_11cxx_lib/inc/clock_11xx.h **** 	SYSCTL_CLOCK_ADC,					/*!< 13: ADC clock */
 247:../../lib/lpc11cx4-library/lpc_chip_11cxx_lib/inc/clock_11xx.h **** #if defined(CHIP_LPC11UXX)
 248:../../lib/lpc11cx4-library/lpc_chip_11cxx_lib/inc/clock_11xx.h **** 	SYSCTL_CLOCK_USB,					/*!< 14: USB clock, LPC11Uxx only */
 249:../../lib/lpc11cx4-library/lpc_chip_11cxx_lib/inc/clock_11xx.h **** #else
 250:../../lib/lpc11cx4-library/lpc_chip_11cxx_lib/inc/clock_11xx.h **** 	SYSCTL_CLOCK_RESERVED14,			/*!< 14: Reserved */
 251:../../lib/lpc11cx4-library/lpc_chip_11cxx_lib/inc/clock_11xx.h **** #endif
 252:../../lib/lpc11cx4-library/lpc_chip_11cxx_lib/inc/clock_11xx.h **** 	SYSCTL_CLOCK_WDT,					/*!< 15: Watchdog timer clock */
 253:../../lib/lpc11cx4-library/lpc_chip_11cxx_lib/inc/clock_11xx.h **** 	SYSCTL_CLOCK_IOCON,					/*!< 16: IOCON block clock */
 254:../../lib/lpc11cx4-library/lpc_chip_11cxx_lib/inc/clock_11xx.h **** #if defined(CHIP_LPC11CXX)
 255:../../lib/lpc11cx4-library/lpc_chip_11cxx_lib/inc/clock_11xx.h **** 	SYSCTL_CLOCK_CAN,					/*!< 17: CAN clock, LPC11Cxx only */
 256:../../lib/lpc11cx4-library/lpc_chip_11cxx_lib/inc/clock_11xx.h **** #else
 257:../../lib/lpc11cx4-library/lpc_chip_11cxx_lib/inc/clock_11xx.h **** 	SYSCTL_CLOCK_RESERVED17,			/*!< 17: Reserved */
 258:../../lib/lpc11cx4-library/lpc_chip_11cxx_lib/inc/clock_11xx.h **** #endif
 259:../../lib/lpc11cx4-library/lpc_chip_11cxx_lib/inc/clock_11xx.h **** #if !(defined(CHIP_LPC110X) || defined(CHIP_LPC11XXLV))  
 260:../../lib/lpc11cx4-library/lpc_chip_11cxx_lib/inc/clock_11xx.h **** 	SYSCTL_CLOCK_SSP1,					/*!< 18: SSP1 clock, LPC11A/C/E/Uxx//1125 only */
 261:../../lib/lpc11cx4-library/lpc_chip_11cxx_lib/inc/clock_11xx.h **** #if !defined(CHIP_LPC11CXX)
 262:../../lib/lpc11cx4-library/lpc_chip_11cxx_lib/inc/clock_11xx.h **** 	SYSCTL_CLOCK_PINT,					/*!< 19: GPIO Pin int register interface clock, LPC11A/E/Uxx only */
 263:../../lib/lpc11cx4-library/lpc_chip_11cxx_lib/inc/clock_11xx.h **** #if defined(CHIP_LPC11AXX)
 264:../../lib/lpc11cx4-library/lpc_chip_11cxx_lib/inc/clock_11xx.h **** 	SYSCTL_CLOCK_ACOMP,					/*!< 20: Analog comparator clock, LPC11Axx only */
 265:../../lib/lpc11cx4-library/lpc_chip_11cxx_lib/inc/clock_11xx.h **** 	SYSCTL_CLOCK_DAC,					/*!< 21: DAC clock, LPC11Axx only */
 266:../../lib/lpc11cx4-library/lpc_chip_11cxx_lib/inc/clock_11xx.h **** #else
 267:../../lib/lpc11cx4-library/lpc_chip_11cxx_lib/inc/clock_11xx.h **** 	SYSCTL_CLOCK_RESERVED20,			/*!< 20: Reserved */
 268:../../lib/lpc11cx4-library/lpc_chip_11cxx_lib/inc/clock_11xx.h **** 	SYSCTL_CLOCK_RESERVED21,			/*!< 21: Reserved */
 269:../../lib/lpc11cx4-library/lpc_chip_11cxx_lib/inc/clock_11xx.h **** #endif
 270:../../lib/lpc11cx4-library/lpc_chip_11cxx_lib/inc/clock_11xx.h **** 	SYSCTL_CLOCK_RESERVED22,			/*!< 22: Reserved */
 271:../../lib/lpc11cx4-library/lpc_chip_11cxx_lib/inc/clock_11xx.h **** 	SYSCTL_CLOCK_P0INT,					/*!< 23: GPIO GROUP1 interrupt register clock, LPC11Axx only */
 272:../../lib/lpc11cx4-library/lpc_chip_11cxx_lib/inc/clock_11xx.h **** 	SYSCTL_CLOCK_GROUP0INT = SYSCTL_CLOCK_P0INT,/*!< 23: GPIO GROUP0 interrupt register interface cloc
 273:../../lib/lpc11cx4-library/lpc_chip_11cxx_lib/inc/clock_11xx.h **** 	SYSCTL_CLOCK_P1INT,					/*!< 24: GPIO GROUP1 interrupt register clock, LPC11Axx only */
 274:../../lib/lpc11cx4-library/lpc_chip_11cxx_lib/inc/clock_11xx.h **** 	SYSCTL_CLOCK_GROUP1INT = SYSCTL_CLOCK_P1INT,/*!< 24: GPIO GROUP1 interrupt register interface cloc
 275:../../lib/lpc11cx4-library/lpc_chip_11cxx_lib/inc/clock_11xx.h **** 	SYSCTL_CLOCK_RESERVED25,			/*!< 25: Reserved */
 276:../../lib/lpc11cx4-library/lpc_chip_11cxx_lib/inc/clock_11xx.h **** #if defined(CHIP_LPC11EXX)  || defined(CHIP_LPC11UXX)
 277:../../lib/lpc11cx4-library/lpc_chip_11cxx_lib/inc/clock_11xx.h **** 	SYSCTL_CLOCK_RAM1,					/*!< 26: SRAM block (0x20000000) clock, LPC11E/Uxx only */
 278:../../lib/lpc11cx4-library/lpc_chip_11cxx_lib/inc/clock_11xx.h **** #else
 279:../../lib/lpc11cx4-library/lpc_chip_11cxx_lib/inc/clock_11xx.h **** 	SYSCTL_CLOCK_RESERVED26,			/*!< 26: Reserved */
ARM GAS  /var/folders/z0/6xlwn_996xz3mwq1cgzkbq4r0000gp/T//ccFLqfFe.s 			page 11


 280:../../lib/lpc11cx4-library/lpc_chip_11cxx_lib/inc/clock_11xx.h **** #endif
 281:../../lib/lpc11cx4-library/lpc_chip_11cxx_lib/inc/clock_11xx.h **** #if defined(CHIP_LPC11UXX)
 282:../../lib/lpc11cx4-library/lpc_chip_11cxx_lib/inc/clock_11xx.h **** 	SYSCTL_CLOCK_USBRAM,				/*!< 27: USB SRAM block clock, LPC11Uxx only */
 283:../../lib/lpc11cx4-library/lpc_chip_11cxx_lib/inc/clock_11xx.h **** #else
 284:../../lib/lpc11cx4-library/lpc_chip_11cxx_lib/inc/clock_11xx.h **** 	SYSCTL_CLOCK_RESERVED27,			/*!< 27: Reserved */
 285:../../lib/lpc11cx4-library/lpc_chip_11cxx_lib/inc/clock_11xx.h **** #endif
 286:../../lib/lpc11cx4-library/lpc_chip_11cxx_lib/inc/clock_11xx.h **** #endif /* !defined(CHIP_LPC11CXX) */
 287:../../lib/lpc11cx4-library/lpc_chip_11cxx_lib/inc/clock_11xx.h **** #endif /* !(defined(CHIP_LPC110X) || defined(CHIP_LPC11XXLV)) */
 288:../../lib/lpc11cx4-library/lpc_chip_11cxx_lib/inc/clock_11xx.h **** } CHIP_SYSCTL_CLOCK_T;
 289:../../lib/lpc11cx4-library/lpc_chip_11cxx_lib/inc/clock_11xx.h **** 
 290:../../lib/lpc11cx4-library/lpc_chip_11cxx_lib/inc/clock_11xx.h **** /**
 291:../../lib/lpc11cx4-library/lpc_chip_11cxx_lib/inc/clock_11xx.h ****  * @brief	Enable a system or peripheral clock
 292:../../lib/lpc11cx4-library/lpc_chip_11cxx_lib/inc/clock_11xx.h ****  * @param	clk	: Clock to enable
 293:../../lib/lpc11cx4-library/lpc_chip_11cxx_lib/inc/clock_11xx.h ****  * @return	Nothing
 294:../../lib/lpc11cx4-library/lpc_chip_11cxx_lib/inc/clock_11xx.h ****  */
 295:../../lib/lpc11cx4-library/lpc_chip_11cxx_lib/inc/clock_11xx.h **** STATIC INLINE void Chip_Clock_EnablePeriphClock(CHIP_SYSCTL_CLOCK_T clk)
 296:../../lib/lpc11cx4-library/lpc_chip_11cxx_lib/inc/clock_11xx.h **** {
 297:../../lib/lpc11cx4-library/lpc_chip_11cxx_lib/inc/clock_11xx.h **** 	LPC_SYSCTL->SYSAHBCLKCTRL |= (1 << clk);
 177              		.loc 2 297 0
 178 000c 8022     		movs	r2, #128	@ tmp131,
 179 000e 8020     		movs	r0, #128	@ tmp132,
 180 0010 1149     		ldr	r1, .L9	@ tmp130,
 181 0012 8001     		lsls	r0, r0, #6	@ tmp132, tmp132,
 182 0014 8B58     		ldr	r3, [r1, r2]	@ D.6443, MEM[(struct LPC_SYSCTL_T *)1074036736B].SYSAHBCLKCTRL
 183              	.LBE21:
 184              	.LBE20:
 115:../../lib/lpc11cx4-library/lpc_chip_11cxx_lib/src/adc_11xx.c **** 
 116:../../lib/lpc11cx4-library/lpc_chip_11cxx_lib/src/adc_11xx.c **** 	Chip_Clock_EnablePeriphClock(SYSCTL_CLOCK_ADC);
 117:../../lib/lpc11cx4-library/lpc_chip_11cxx_lib/src/adc_11xx.c **** 
 118:../../lib/lpc11cx4-library/lpc_chip_11cxx_lib/src/adc_11xx.c **** 	pADC->INTEN = 0;		/* Disable all interrupts */
 119:../../lib/lpc11cx4-library/lpc_chip_11cxx_lib/src/adc_11xx.c **** 
 120:../../lib/lpc11cx4-library/lpc_chip_11cxx_lib/src/adc_11xx.c **** 	cr |= ADC_CR_PDN;
 121:../../lib/lpc11cx4-library/lpc_chip_11cxx_lib/src/adc_11xx.c **** 
 122:../../lib/lpc11cx4-library/lpc_chip_11cxx_lib/src/adc_11xx.c **** 	ADCSetup->adcRate = ADC_MAX_SAMPLE_RATE;
 123:../../lib/lpc11cx4-library/lpc_chip_11cxx_lib/src/adc_11xx.c **** 	ADCSetup->bitsAccuracy = ADC_10BITS;
 124:../../lib/lpc11cx4-library/lpc_chip_11cxx_lib/src/adc_11xx.c **** 	clk = 11;
 125:../../lib/lpc11cx4-library/lpc_chip_11cxx_lib/src/adc_11xx.c **** 
 126:../../lib/lpc11cx4-library/lpc_chip_11cxx_lib/src/adc_11xx.c **** 	ADCSetup->burstMode = false;
 127:../../lib/lpc11cx4-library/lpc_chip_11cxx_lib/src/adc_11xx.c **** 	div = getClkDiv(false, ADCSetup->adcRate, clk);
 128:../../lib/lpc11cx4-library/lpc_chip_11cxx_lib/src/adc_11xx.c **** 	cr |= ADC_CR_CLKDIV(div);
 129:../../lib/lpc11cx4-library/lpc_chip_11cxx_lib/src/adc_11xx.c **** 	cr |= ADC_CR_BITACC(ADCSetup->bitsAccuracy);
 130:../../lib/lpc11cx4-library/lpc_chip_11cxx_lib/src/adc_11xx.c **** 	pADC->CR = cr;
 131:../../lib/lpc11cx4-library/lpc_chip_11cxx_lib/src/adc_11xx.c **** }
 185              		.loc 1 131 0
 186              		@ sp needed	@
 187              	.LBB23:
 188              	.LBB22:
 189              		.loc 2 297 0
 190 0016 0343     		orrs	r3, r0	@ D.6443, tmp132
 191 0018 8B50     		str	r3, [r1, r2]	@ D.6443, MEM[(struct LPC_SYSCTL_T *)1074036736B].SYSAHBCLKCTRL
 192              	.LVL7:
 193              	.LBE22:
 194              	.LBE23:
 118:../../lib/lpc11cx4-library/lpc_chip_11cxx_lib/src/adc_11xx.c **** 
 195              		.loc 1 118 0
 196 001a 0023     		movs	r3, #0	@ tmp135,
 122:../../lib/lpc11cx4-library/lpc_chip_11cxx_lib/src/adc_11xx.c **** 	ADCSetup->bitsAccuracy = ADC_10BITS;
ARM GAS  /var/folders/z0/6xlwn_996xz3mwq1cgzkbq4r0000gp/T//ccFLqfFe.s 			page 12


 197              		.loc 1 122 0
 198 001c 0F4A     		ldr	r2, .L9+4	@ tmp136,
 118:../../lib/lpc11cx4-library/lpc_chip_11cxx_lib/src/adc_11xx.c **** 
 199              		.loc 1 118 0
 200 001e E360     		str	r3, [r4, #12]	@ tmp135, pADC_3(D)->INTEN
 201              	.LVL8:
 122:../../lib/lpc11cx4-library/lpc_chip_11cxx_lib/src/adc_11xx.c **** 	ADCSetup->bitsAccuracy = ADC_10BITS;
 202              		.loc 1 122 0
 203 0020 2A60     		str	r2, [r5]	@ tmp136, ADCSetup_5(D)->adcRate
 123:../../lib/lpc11cx4-library/lpc_chip_11cxx_lib/src/adc_11xx.c **** 	clk = 11;
 204              		.loc 1 123 0
 205 0022 2B71     		strb	r3, [r5, #4]	@ tmp135, ADCSetup_5(D)->bitsAccuracy
 206              	.LVL9:
 126:../../lib/lpc11cx4-library/lpc_chip_11cxx_lib/src/adc_11xx.c **** 	div = getClkDiv(false, ADCSetup->adcRate, clk);
 207              		.loc 1 126 0
 208 0024 6B71     		strb	r3, [r5, #5]	@ tmp135, ADCSetup_5(D)->burstMode
 209              	.LVL10:
 210              	.LBB24:
 211              	.LBB25:
  67:../../lib/lpc11cx4-library/lpc_chip_11cxx_lib/src/adc_11xx.c **** 
 212              		.loc 1 67 0
 213 0026 FFF7FEFF 		bl	Chip_Clock_GetSystemClockRate	@
 214              	.LVL11:
 215              	.LBE25:
 216              	.LBE24:
 129:../../lib/lpc11cx4-library/lpc_chip_11cxx_lib/src/adc_11xx.c **** 	pADC->CR = cr;
 217              		.loc 1 129 0
 218 002a 0D4B     		ldr	r3, .L9+8	@ tmp160,
 219 002c 4000     		lsls	r0, r0, #1	@ D.6443, adcBlockFreq,
 220              	.LVL12:
 221 002e 9C46     		mov	ip, r3	@ tmp160, tmp160
 222 0030 0C49     		ldr	r1, .L9+12	@,
 223 0032 6044     		add	r0, r0, ip	@ D.6443, tmp160
 224              	.LVL13:
 225 0034 FFF7FEFF 		bl	__aeabi_uidiv	@
 226              	.LVL14:
 227 0038 0138     		subs	r0, r0, #1	@ tmp148,
 228 003a C0B2     		uxtb	r0, r0	@ D.6444, tmp148
 229 003c 0102     		lsls	r1, r0, #8	@ D.6444, D.6444,
 230 003e 2879     		ldrb	r0, [r5, #4]	@ D.6444,
 231 0040 E022     		movs	r2, #224	@ tmp154,
 232 0042 4004     		lsls	r0, r0, #17	@ D.6444, D.6444,
 233 0044 0300     		movs	r3, r0	@ D.6444, D.6444
 234 0046 8020     		movs	r0, #128	@ tmp156,
 235 0048 1203     		lsls	r2, r2, #12	@ tmp154, tmp154,
 236 004a 1340     		ands	r3, r2	@ D.6444, tmp154
 237 004c 8003     		lsls	r0, r0, #14	@ tmp156, tmp156,
 238 004e 1843     		orrs	r0, r3	@ D.6446, D.6443
 239 0050 0843     		orrs	r0, r1	@ cr, D.6444
 240              	.LVL15:
 130:../../lib/lpc11cx4-library/lpc_chip_11cxx_lib/src/adc_11xx.c **** }
 241              		.loc 1 130 0
 242 0052 2060     		str	r0, [r4]	@ cr, pADC_3(D)->CR
 243              	.LVL16:
 244              	.LVL17:
 245              		.loc 1 131 0
 246 0054 70BD     		pop	{r4, r5, r6, pc}
ARM GAS  /var/folders/z0/6xlwn_996xz3mwq1cgzkbq4r0000gp/T//ccFLqfFe.s 			page 13


 247              	.L10:
 248 0056 C046     		.align	2
 249              	.L9:
 250 0058 00800440 		.word	1074036736
 251 005c 801A0600 		.word	400000
 252 0060 80234300 		.word	4400000
 253 0064 00478600 		.word	8800000
 254              		.cfi_endproc
 255              	.LFE202:
 256              		.size	Chip_ADC_Init, .-Chip_ADC_Init
 257              		.section	.text.Chip_ADC_DeInit,"ax",%progbits
 258              		.align	2
 259              		.global	Chip_ADC_DeInit
 260              		.code	16
 261              		.thumb_func
 262              		.type	Chip_ADC_DeInit, %function
 263              	Chip_ADC_DeInit:
 264              	.LFB203:
 132:../../lib/lpc11cx4-library/lpc_chip_11cxx_lib/src/adc_11xx.c **** 
 133:../../lib/lpc11cx4-library/lpc_chip_11cxx_lib/src/adc_11xx.c **** /* Shutdown ADC */
 134:../../lib/lpc11cx4-library/lpc_chip_11cxx_lib/src/adc_11xx.c **** void Chip_ADC_DeInit(LPC_ADC_T *pADC)
 135:../../lib/lpc11cx4-library/lpc_chip_11cxx_lib/src/adc_11xx.c **** {
 265              		.loc 1 135 0
 266              		.cfi_startproc
 267              		@ args = 0, pretend = 0, frame = 0
 268              		@ frame_needed = 0, uses_anonymous_args = 0
 269              	.LVL18:
 136:../../lib/lpc11cx4-library/lpc_chip_11cxx_lib/src/adc_11xx.c **** 	pADC->INTEN = 0x00000100;
 270              		.loc 1 136 0
 271 0000 8023     		movs	r3, #128	@ tmp113,
 272 0002 5B00     		lsls	r3, r3, #1	@ tmp113, tmp113,
 135:../../lib/lpc11cx4-library/lpc_chip_11cxx_lib/src/adc_11xx.c **** 	pADC->INTEN = 0x00000100;
 273              		.loc 1 135 0
 274 0004 10B5     		push	{r4, lr}	@
 275              		.cfi_def_cfa_offset 8
 276              		.cfi_offset 4, -8
 277              		.cfi_offset 14, -4
 278              		.loc 1 136 0
 279 0006 C360     		str	r3, [r0, #12]	@ tmp113, pADC_2(D)->INTEN
 137:../../lib/lpc11cx4-library/lpc_chip_11cxx_lib/src/adc_11xx.c **** 	pADC->CR = 0;
 280              		.loc 1 137 0
 281 0008 0023     		movs	r3, #0	@ tmp114,
 282              	.LBB26:
 283              	.LBB27:
 298:../../lib/lpc11cx4-library/lpc_chip_11cxx_lib/inc/clock_11xx.h **** }
 299:../../lib/lpc11cx4-library/lpc_chip_11cxx_lib/inc/clock_11xx.h **** 
 300:../../lib/lpc11cx4-library/lpc_chip_11cxx_lib/inc/clock_11xx.h **** /**
 301:../../lib/lpc11cx4-library/lpc_chip_11cxx_lib/inc/clock_11xx.h ****  * @brief	Disable a system or peripheral clock
 302:../../lib/lpc11cx4-library/lpc_chip_11cxx_lib/inc/clock_11xx.h ****  * @param	clk	: Clock to disable
 303:../../lib/lpc11cx4-library/lpc_chip_11cxx_lib/inc/clock_11xx.h ****  * @return	Nothing
 304:../../lib/lpc11cx4-library/lpc_chip_11cxx_lib/inc/clock_11xx.h ****  */
 305:../../lib/lpc11cx4-library/lpc_chip_11cxx_lib/inc/clock_11xx.h **** STATIC INLINE void Chip_Clock_DisablePeriphClock(CHIP_SYSCTL_CLOCK_T clk)
 306:../../lib/lpc11cx4-library/lpc_chip_11cxx_lib/inc/clock_11xx.h **** {
 307:../../lib/lpc11cx4-library/lpc_chip_11cxx_lib/inc/clock_11xx.h **** 	LPC_SYSCTL->SYSAHBCLKCTRL &= ~(1 << clk);
 284              		.loc 2 307 0
 285 000a 8022     		movs	r2, #128	@ tmp116,
 286 000c 0449     		ldr	r1, .L12	@ tmp115,
ARM GAS  /var/folders/z0/6xlwn_996xz3mwq1cgzkbq4r0000gp/T//ccFLqfFe.s 			page 14


 287              	.LBE27:
 288              	.LBE26:
 289              		.loc 1 137 0
 290 000e 0360     		str	r3, [r0]	@ tmp114, pADC_2(D)->CR
 291              	.LVL19:
 292              	.LBB30:
 293              	.LBB28:
 294              		.loc 2 307 0
 295 0010 8858     		ldr	r0, [r1, r2]	@ D.6449, MEM[(struct LPC_SYSCTL_T *)1074036736B].SYSAHBCLKCTRL
 296              	.LVL20:
 297 0012 044B     		ldr	r3, .L12+4	@ tmp117,
 298              	.LBE28:
 299              	.LBE30:
 138:../../lib/lpc11cx4-library/lpc_chip_11cxx_lib/src/adc_11xx.c **** 	Chip_Clock_DisablePeriphClock(SYSCTL_CLOCK_ADC);
 139:../../lib/lpc11cx4-library/lpc_chip_11cxx_lib/src/adc_11xx.c **** 	Chip_SYSCTL_PowerDown(SYSCTL_POWERDOWN_ADC_PD);
 140:../../lib/lpc11cx4-library/lpc_chip_11cxx_lib/src/adc_11xx.c **** }
 300              		.loc 1 140 0
 301              		@ sp needed	@
 302              	.LBB31:
 303              	.LBB29:
 304              		.loc 2 307 0
 305 0014 0340     		ands	r3, r0	@ D.6449, D.6449
 306 0016 8B50     		str	r3, [r1, r2]	@ D.6449, MEM[(struct LPC_SYSCTL_T *)1074036736B].SYSAHBCLKCTRL
 307              	.LVL21:
 308              	.LBE29:
 309              	.LBE31:
 139:../../lib/lpc11cx4-library/lpc_chip_11cxx_lib/src/adc_11xx.c **** }
 310              		.loc 1 139 0
 311 0018 1020     		movs	r0, #16	@,
 312 001a FFF7FEFF 		bl	Chip_SYSCTL_PowerDown	@
 313              	.LVL22:
 314              		.loc 1 140 0
 315 001e 10BD     		pop	{r4, pc}
 316              	.L13:
 317              		.align	2
 318              	.L12:
 319 0020 00800440 		.word	1074036736
 320 0024 FFDFFFFF 		.word	-8193
 321              		.cfi_endproc
 322              	.LFE203:
 323              		.size	Chip_ADC_DeInit, .-Chip_ADC_DeInit
 324              		.section	.text.Chip_ADC_ReadValue,"ax",%progbits
 325              		.align	2
 326              		.global	Chip_ADC_ReadValue
 327              		.code	16
 328              		.thumb_func
 329              		.type	Chip_ADC_ReadValue, %function
 330              	Chip_ADC_ReadValue:
 331              	.LFB204:
 141:../../lib/lpc11cx4-library/lpc_chip_11cxx_lib/src/adc_11xx.c **** 
 142:../../lib/lpc11cx4-library/lpc_chip_11cxx_lib/src/adc_11xx.c **** /* Get the ADC value */
 143:../../lib/lpc11cx4-library/lpc_chip_11cxx_lib/src/adc_11xx.c **** Status Chip_ADC_ReadValue(LPC_ADC_T *pADC, uint8_t channel, uint16_t *data)
 144:../../lib/lpc11cx4-library/lpc_chip_11cxx_lib/src/adc_11xx.c **** {
 332              		.loc 1 144 0
 333              		.cfi_startproc
 334              		@ args = 0, pretend = 0, frame = 0
 335              		@ frame_needed = 0, uses_anonymous_args = 0
ARM GAS  /var/folders/z0/6xlwn_996xz3mwq1cgzkbq4r0000gp/T//ccFLqfFe.s 			page 15


 336              		@ link register save eliminated.
 337              	.LVL23:
 338              	.LBB32:
 339              	.LBB33:
  93:../../lib/lpc11cx4-library/lpc_chip_11cxx_lib/src/adc_11xx.c **** 	if (!ADC_DR_DONE(temp)) {
 340              		.loc 1 93 0
 341 0000 0431     		adds	r1, r1, #4	@ tmp121,
 342              	.LVL24:
 343 0002 8900     		lsls	r1, r1, #2	@ tmp122, tmp121,
 344 0004 0B58     		ldr	r3, [r1, r0]	@ temp, pADC_2(D)->DR
 345              	.LVL25:
  95:../../lib/lpc11cx4-library/lpc_chip_11cxx_lib/src/adc_11xx.c **** 	}
 346              		.loc 1 95 0
 347 0006 0020     		movs	r0, #0	@ D.6456,
 348              	.LVL26:
  94:../../lib/lpc11cx4-library/lpc_chip_11cxx_lib/src/adc_11xx.c **** 		return ERROR;
 349              		.loc 1 94 0
 350 0008 002B     		cmp	r3, #0	@ temp,
 351 000a 03DA     		bge	.L15	@,
  99:../../lib/lpc11cx4-library/lpc_chip_11cxx_lib/src/adc_11xx.c **** 	return SUCCESS;
 352              		.loc 1 99 0
 353 000c 1B04     		lsls	r3, r3, #16	@ tmp126, temp,
 354              	.LVL27:
 355 000e 9B0D     		lsrs	r3, r3, #22	@ tmp125, tmp126,
 356 0010 1380     		strh	r3, [r2]	@ tmp125, *data_4(D)
 100:../../lib/lpc11cx4-library/lpc_chip_11cxx_lib/src/adc_11xx.c **** }
 357              		.loc 1 100 0
 358 0012 0130     		adds	r0, r0, #1	@ D.6456,
 359              	.L15:
 360              	.LVL28:
 361              	.LBE33:
 362              	.LBE32:
 145:../../lib/lpc11cx4-library/lpc_chip_11cxx_lib/src/adc_11xx.c **** 	return readAdcVal(pADC, channel, data);
 146:../../lib/lpc11cx4-library/lpc_chip_11cxx_lib/src/adc_11xx.c **** }
 363              		.loc 1 146 0
 364              		@ sp needed	@
 365 0014 7047     		bx	lr
 366              		.cfi_endproc
 367              	.LFE204:
 368              		.size	Chip_ADC_ReadValue, .-Chip_ADC_ReadValue
 369 0016 C046     		.section	.text.Chip_ADC_ReadStatus,"ax",%progbits
 370              		.align	2
 371              		.global	Chip_ADC_ReadStatus
 372              		.code	16
 373              		.thumb_func
 374              		.type	Chip_ADC_ReadStatus, %function
 375              	Chip_ADC_ReadStatus:
 376              	.LFB205:
 147:../../lib/lpc11cx4-library/lpc_chip_11cxx_lib/src/adc_11xx.c **** 
 148:../../lib/lpc11cx4-library/lpc_chip_11cxx_lib/src/adc_11xx.c **** /* Get ADC Channel status from ADC data register */
 149:../../lib/lpc11cx4-library/lpc_chip_11cxx_lib/src/adc_11xx.c **** FlagStatus Chip_ADC_ReadStatus(LPC_ADC_T *pADC, uint8_t channel, uint32_t StatusType)
 150:../../lib/lpc11cx4-library/lpc_chip_11cxx_lib/src/adc_11xx.c **** {
 377              		.loc 1 150 0
 378              		.cfi_startproc
 379              		@ args = 0, pretend = 0, frame = 0
 380              		@ frame_needed = 0, uses_anonymous_args = 0
 381              		@ link register save eliminated.
ARM GAS  /var/folders/z0/6xlwn_996xz3mwq1cgzkbq4r0000gp/T//ccFLqfFe.s 			page 16


 382              	.LVL29:
 151:../../lib/lpc11cx4-library/lpc_chip_11cxx_lib/src/adc_11xx.c **** 	switch (StatusType) {
 383              		.loc 1 151 0
 384 0000 012A     		cmp	r2, #1	@ StatusType,
 385 0002 10D0     		beq	.L19	@,
 386 0004 002A     		cmp	r2, #0	@ StatusType,
 387 0006 09D0     		beq	.L20	@,
 388 0008 022A     		cmp	r2, #2	@ StatusType,
 389 000a 01D0     		beq	.L21	@,
 152:../../lib/lpc11cx4-library/lpc_chip_11cxx_lib/src/adc_11xx.c **** 	case ADC_DR_DONE_STAT:
 153:../../lib/lpc11cx4-library/lpc_chip_11cxx_lib/src/adc_11xx.c **** 		return (pADC->STAT & (1UL << channel)) ? SET : RESET;
 154:../../lib/lpc11cx4-library/lpc_chip_11cxx_lib/src/adc_11xx.c **** 
 155:../../lib/lpc11cx4-library/lpc_chip_11cxx_lib/src/adc_11xx.c **** 	case ADC_DR_OVERRUN_STAT:
 156:../../lib/lpc11cx4-library/lpc_chip_11cxx_lib/src/adc_11xx.c **** 		channel += 8;
 157:../../lib/lpc11cx4-library/lpc_chip_11cxx_lib/src/adc_11xx.c **** 		return (pADC->STAT & (1UL << channel)) ? SET : RESET;
 158:../../lib/lpc11cx4-library/lpc_chip_11cxx_lib/src/adc_11xx.c **** 
 159:../../lib/lpc11cx4-library/lpc_chip_11cxx_lib/src/adc_11xx.c **** 	case ADC_DR_ADINT_STAT:
 160:../../lib/lpc11cx4-library/lpc_chip_11cxx_lib/src/adc_11xx.c **** 		return pADC->STAT >> 16 ? SET : RESET;
 161:../../lib/lpc11cx4-library/lpc_chip_11cxx_lib/src/adc_11xx.c **** 
 162:../../lib/lpc11cx4-library/lpc_chip_11cxx_lib/src/adc_11xx.c **** 	default:
 163:../../lib/lpc11cx4-library/lpc_chip_11cxx_lib/src/adc_11xx.c **** 		break;
 164:../../lib/lpc11cx4-library/lpc_chip_11cxx_lib/src/adc_11xx.c **** 	}
 165:../../lib/lpc11cx4-library/lpc_chip_11cxx_lib/src/adc_11xx.c **** 	return RESET;
 390              		.loc 1 165 0
 391 000c 0020     		movs	r0, #0	@ D.6461,
 392              	.LVL30:
 393              	.L18:
 166:../../lib/lpc11cx4-library/lpc_chip_11cxx_lib/src/adc_11xx.c **** }
 394              		.loc 1 166 0
 395              		@ sp needed	@
 396 000e 7047     		bx	lr
 397              	.LVL31:
 398              	.L21:
 160:../../lib/lpc11cx4-library/lpc_chip_11cxx_lib/src/adc_11xx.c **** 
 399              		.loc 1 160 0
 400 0010 006B     		ldr	r0, [r0, #48]	@ D.6462, pADC_4(D)->STAT
 401              	.LVL32:
 402 0012 000C     		lsrs	r0, r0, #16	@ D.6462, D.6462,
 403 0014 431E     		subs	r3, r0, #1	@ tmp144, D.6462
 404 0016 9841     		sbcs	r0, r0, r3	@ tmp143, D.6462, tmp144
 405 0018 C0B2     		uxtb	r0, r0	@ D.6461, tmp143
 406 001a F8E7     		b	.L18	@
 407              	.LVL33:
 408              	.L20:
 153:../../lib/lpc11cx4-library/lpc_chip_11cxx_lib/src/adc_11xx.c **** 
 409              		.loc 1 153 0
 410 001c 006B     		ldr	r0, [r0, #48]	@ D.6462, pADC_4(D)->STAT
 411              	.LVL34:
 412 001e 0122     		movs	r2, #1	@ tmp132,
 413              	.LVL35:
 414 0020 C840     		lsrs	r0, r0, r1	@ D.6462, D.6462, channel
 415 0022 1040     		ands	r0, r2	@ D.6461, tmp132
 416 0024 F3E7     		b	.L18	@
 417              	.LVL36:
 418              	.L19:
 157:../../lib/lpc11cx4-library/lpc_chip_11cxx_lib/src/adc_11xx.c **** 
 419              		.loc 1 157 0
ARM GAS  /var/folders/z0/6xlwn_996xz3mwq1cgzkbq4r0000gp/T//ccFLqfFe.s 			page 17


 420 0026 006B     		ldr	r0, [r0, #48]	@ D.6462, pADC_4(D)->STAT
 421              	.LVL37:
 422 0028 0831     		adds	r1, r1, #8	@ tmp133,
 423              	.LVL38:
 424 002a C9B2     		uxtb	r1, r1	@ D.6463, tmp133
 425 002c C840     		lsrs	r0, r0, r1	@ D.6462, D.6462, D.6463
 426 002e 0240     		ands	r2, r0	@ tmp139, D.6462
 427              	.LVL39:
 428 0030 D0B2     		uxtb	r0, r2	@ D.6461, tmp139
 429 0032 ECE7     		b	.L18	@
 430              		.cfi_endproc
 431              	.LFE205:
 432              		.size	Chip_ADC_ReadStatus, .-Chip_ADC_ReadStatus
 433              		.section	.text.Chip_ADC_Int_SetChannelCmd,"ax",%progbits
 434              		.align	2
 435              		.global	Chip_ADC_Int_SetChannelCmd
 436              		.code	16
 437              		.thumb_func
 438              		.type	Chip_ADC_Int_SetChannelCmd, %function
 439              	Chip_ADC_Int_SetChannelCmd:
 440              	.LFB206:
 167:../../lib/lpc11cx4-library/lpc_chip_11cxx_lib/src/adc_11xx.c **** 
 168:../../lib/lpc11cx4-library/lpc_chip_11cxx_lib/src/adc_11xx.c **** /* Enable/Disable interrupt for ADC channel */
 169:../../lib/lpc11cx4-library/lpc_chip_11cxx_lib/src/adc_11xx.c **** void Chip_ADC_Int_SetChannelCmd(LPC_ADC_T *pADC, uint8_t channel, FunctionalState NewState)
 170:../../lib/lpc11cx4-library/lpc_chip_11cxx_lib/src/adc_11xx.c **** {
 441              		.loc 1 170 0
 442              		.cfi_startproc
 443              		@ args = 0, pretend = 0, frame = 0
 444              		@ frame_needed = 0, uses_anonymous_args = 0
 445              		@ link register save eliminated.
 446              	.LVL40:
 171:../../lib/lpc11cx4-library/lpc_chip_11cxx_lib/src/adc_11xx.c **** 	if (NewState == ENABLE) {
 172:../../lib/lpc11cx4-library/lpc_chip_11cxx_lib/src/adc_11xx.c **** 		pADC->INTEN |= (1UL << channel);
 447              		.loc 1 172 0
 448 0000 C368     		ldr	r3, [r0, #12]	@ D.6467,
 171:../../lib/lpc11cx4-library/lpc_chip_11cxx_lib/src/adc_11xx.c **** 	if (NewState == ENABLE) {
 449              		.loc 1 171 0
 450 0002 012A     		cmp	r2, #1	@ NewState,
 451 0004 04D0     		beq	.L28	@,
 173:../../lib/lpc11cx4-library/lpc_chip_11cxx_lib/src/adc_11xx.c **** 	}
 174:../../lib/lpc11cx4-library/lpc_chip_11cxx_lib/src/adc_11xx.c **** 	else {
 175:../../lib/lpc11cx4-library/lpc_chip_11cxx_lib/src/adc_11xx.c **** 		pADC->INTEN &= (~(1UL << channel));
 452              		.loc 1 175 0
 453 0006 0122     		movs	r2, #1	@ tmp125,
 454              	.LVL41:
 455 0008 8A40     		lsls	r2, r2, r1	@ D.6467, tmp125, channel
 456 000a 9343     		bics	r3, r2	@ D.6467, D.6467
 457 000c C360     		str	r3, [r0, #12]	@ D.6467, pADC_4(D)->INTEN
 458              	.L25:
 176:../../lib/lpc11cx4-library/lpc_chip_11cxx_lib/src/adc_11xx.c **** 	}
 177:../../lib/lpc11cx4-library/lpc_chip_11cxx_lib/src/adc_11xx.c **** }
 459              		.loc 1 177 0
 460              		@ sp needed	@
 461 000e 7047     		bx	lr
 462              	.LVL42:
 463              	.L28:
 172:../../lib/lpc11cx4-library/lpc_chip_11cxx_lib/src/adc_11xx.c **** 	}
ARM GAS  /var/folders/z0/6xlwn_996xz3mwq1cgzkbq4r0000gp/T//ccFLqfFe.s 			page 18


 464              		.loc 1 172 0
 465 0010 8A40     		lsls	r2, r2, r1	@ D.6467, NewState, channel
 466              	.LVL43:
 467 0012 1A43     		orrs	r2, r3	@ D.6467, D.6467
 468 0014 C260     		str	r2, [r0, #12]	@ D.6467, pADC_4(D)->INTEN
 469 0016 FAE7     		b	.L25	@
 470              		.cfi_endproc
 471              	.LFE206:
 472              		.size	Chip_ADC_Int_SetChannelCmd, .-Chip_ADC_Int_SetChannelCmd
 473              		.section	.text.Chip_ADC_SetStartMode,"ax",%progbits
 474              		.align	2
 475              		.global	Chip_ADC_SetStartMode
 476              		.code	16
 477              		.thumb_func
 478              		.type	Chip_ADC_SetStartMode, %function
 479              	Chip_ADC_SetStartMode:
 480              	.LFB207:
 178:../../lib/lpc11cx4-library/lpc_chip_11cxx_lib/src/adc_11xx.c **** 
 179:../../lib/lpc11cx4-library/lpc_chip_11cxx_lib/src/adc_11xx.c **** /* Select the mode starting the AD conversion */
 180:../../lib/lpc11cx4-library/lpc_chip_11cxx_lib/src/adc_11xx.c **** void Chip_ADC_SetStartMode(LPC_ADC_T *pADC, ADC_START_MODE_T mode, ADC_EDGE_CFG_T EdgeOption)
 181:../../lib/lpc11cx4-library/lpc_chip_11cxx_lib/src/adc_11xx.c **** {
 481              		.loc 1 181 0
 482              		.cfi_startproc
 483              		@ args = 0, pretend = 0, frame = 0
 484              		@ frame_needed = 0, uses_anonymous_args = 0
 485              		@ link register save eliminated.
 486              	.LVL44:
 182:../../lib/lpc11cx4-library/lpc_chip_11cxx_lib/src/adc_11xx.c **** 	if ((mode != ADC_START_NOW) && (mode != ADC_NO_START)) {
 487              		.loc 1 182 0
 488 0000 0129     		cmp	r1, #1	@ mode,
 489 0002 05D9     		bls	.L30	@,
 183:../../lib/lpc11cx4-library/lpc_chip_11cxx_lib/src/adc_11xx.c **** 		if (EdgeOption) {
 490              		.loc 1 183 0
 491 0004 002A     		cmp	r2, #0	@ EdgeOption,
 492 0006 0AD1     		bne	.L32	@,
 184:../../lib/lpc11cx4-library/lpc_chip_11cxx_lib/src/adc_11xx.c **** 			pADC->CR |= ADC_CR_EDGE;
 185:../../lib/lpc11cx4-library/lpc_chip_11cxx_lib/src/adc_11xx.c **** 		}
 186:../../lib/lpc11cx4-library/lpc_chip_11cxx_lib/src/adc_11xx.c **** 		else {
 187:../../lib/lpc11cx4-library/lpc_chip_11cxx_lib/src/adc_11xx.c **** 			pADC->CR &= ~ADC_CR_EDGE;
 493              		.loc 1 187 0
 494 0008 0268     		ldr	r2, [r0]	@ D.6471, pADC_5(D)->CR
 495              	.LVL45:
 496 000a 084B     		ldr	r3, .L33	@ tmp123,
 497 000c 1340     		ands	r3, r2	@ D.6471, D.6471
 498 000e 0360     		str	r3, [r0]	@ D.6471,* pADC
 499              	.L30:
 500              	.LVL46:
 501              	.LBB34:
 502              	.LBB35:
  85:../../lib/lpc11cx4-library/lpc_chip_11cxx_lib/src/adc_11xx.c **** 	pADC->CR = temp | (ADC_CR_START_MODE_SEL((uint32_t) start_mode));
 503              		.loc 1 85 0
 504 0010 0268     		ldr	r2, [r0]	@ D.6471, pADC_5(D)->CR
 505              	.LVL47:
  86:../../lib/lpc11cx4-library/lpc_chip_11cxx_lib/src/adc_11xx.c **** }
 506              		.loc 1 86 0
 507 0012 074B     		ldr	r3, .L33+4	@ tmp125,
 508 0014 0906     		lsls	r1, r1, #24	@ D.6471, mode,
ARM GAS  /var/folders/z0/6xlwn_996xz3mwq1cgzkbq4r0000gp/T//ccFLqfFe.s 			page 19


 509              	.LVL48:
 510 0016 1340     		ands	r3, r2	@ temp, D.6471
 511              	.LVL49:
 512 0018 1943     		orrs	r1, r3	@ D.6471, temp
 513 001a 0160     		str	r1, [r0]	@ D.6471, pADC_5(D)->CR
 514              	.LVL50:
 515              	.LBE35:
 516              	.LBE34:
 188:../../lib/lpc11cx4-library/lpc_chip_11cxx_lib/src/adc_11xx.c **** 		}
 189:../../lib/lpc11cx4-library/lpc_chip_11cxx_lib/src/adc_11xx.c **** 	}
 190:../../lib/lpc11cx4-library/lpc_chip_11cxx_lib/src/adc_11xx.c **** 	setStartMode(pADC, (uint8_t) mode);
 191:../../lib/lpc11cx4-library/lpc_chip_11cxx_lib/src/adc_11xx.c **** }
 517              		.loc 1 191 0
 518              		@ sp needed	@
 519 001c 7047     		bx	lr
 520              	.LVL51:
 521              	.L32:
 184:../../lib/lpc11cx4-library/lpc_chip_11cxx_lib/src/adc_11xx.c **** 		}
 522              		.loc 1 184 0
 523 001e 8022     		movs	r2, #128	@ tmp122,
 524              	.LVL52:
 525 0020 0368     		ldr	r3, [r0]	@ D.6471, pADC_5(D)->CR
 526 0022 1205     		lsls	r2, r2, #20	@ tmp122, tmp122,
 527 0024 1343     		orrs	r3, r2	@ D.6471, tmp122
 528 0026 0360     		str	r3, [r0]	@ D.6471,* pADC
 529 0028 F2E7     		b	.L30	@
 530              	.L34:
 531 002a C046     		.align	2
 532              	.L33:
 533 002c FFFFFFF7 		.word	-134217729
 534 0030 FFFFFFF8 		.word	-117440513
 535              		.cfi_endproc
 536              	.LFE207:
 537              		.size	Chip_ADC_SetStartMode, .-Chip_ADC_SetStartMode
 538              		.section	.text.Chip_ADC_SetSampleRate,"ax",%progbits
 539              		.align	2
 540              		.global	Chip_ADC_SetSampleRate
 541              		.code	16
 542              		.thumb_func
 543              		.type	Chip_ADC_SetSampleRate, %function
 544              	Chip_ADC_SetSampleRate:
 545              	.LFB208:
 192:../../lib/lpc11cx4-library/lpc_chip_11cxx_lib/src/adc_11xx.c **** 
 193:../../lib/lpc11cx4-library/lpc_chip_11cxx_lib/src/adc_11xx.c **** /* Set the ADC Sample rate */
 194:../../lib/lpc11cx4-library/lpc_chip_11cxx_lib/src/adc_11xx.c **** void Chip_ADC_SetSampleRate(LPC_ADC_T *pADC, ADC_CLOCK_SETUP_T *ADCSetup, uint32_t rate)
 195:../../lib/lpc11cx4-library/lpc_chip_11cxx_lib/src/adc_11xx.c **** {
 546              		.loc 1 195 0
 547              		.cfi_startproc
 548              		@ args = 0, pretend = 0, frame = 0
 549              		@ frame_needed = 0, uses_anonymous_args = 0
 550              	.LVL53:
 551 0000 F8B5     		push	{r3, r4, r5, r6, r7, lr}	@
 552              		.cfi_def_cfa_offset 24
 553              		.cfi_offset 3, -24
 554              		.cfi_offset 4, -20
 555              		.cfi_offset 5, -16
 556              		.cfi_offset 6, -12
ARM GAS  /var/folders/z0/6xlwn_996xz3mwq1cgzkbq4r0000gp/T//ccFLqfFe.s 			page 20


 557              		.cfi_offset 7, -8
 558              		.cfi_offset 14, -4
 559 0002 4F46     		mov	r7, r9	@,
 560 0004 4646     		mov	r6, r8	@,
 561 0006 C0B4     		push	{r6, r7}	@
 562              		.cfi_def_cfa_offset 32
 563              		.cfi_offset 8, -32
 564              		.cfi_offset 9, -28
 565              		.loc 1 195 0
 566 0008 0F00     		movs	r7, r1	@ ADCSetup, ADCSetup
 196:../../lib/lpc11cx4-library/lpc_chip_11cxx_lib/src/adc_11xx.c **** 	uint8_t div;
 197:../../lib/lpc11cx4-library/lpc_chip_11cxx_lib/src/adc_11xx.c **** 	uint32_t cr;
 198:../../lib/lpc11cx4-library/lpc_chip_11cxx_lib/src/adc_11xx.c **** 
 199:../../lib/lpc11cx4-library/lpc_chip_11cxx_lib/src/adc_11xx.c **** 	cr = pADC->CR & (~ADC_SAMPLE_RATE_CONFIG_MASK);
 567              		.loc 1 199 0
 568 000a 0568     		ldr	r5, [r0]	@ D.6474, pADC_2(D)->CR
 569 000c 154B     		ldr	r3, .L39	@ tmp137,
 200:../../lib/lpc11cx4-library/lpc_chip_11cxx_lib/src/adc_11xx.c **** 	ADCSetup->adcRate = rate;
 570              		.loc 1 200 0
 571 000e 3A60     		str	r2, [r7]	@ rate, ADCSetup_5(D)->adcRate
 199:../../lib/lpc11cx4-library/lpc_chip_11cxx_lib/src/adc_11xx.c **** 	ADCSetup->adcRate = rate;
 572              		.loc 1 199 0
 573 0010 1D40     		ands	r5, r3	@ cr, tmp137
 574              	.LVL54:
 201:../../lib/lpc11cx4-library/lpc_chip_11cxx_lib/src/adc_11xx.c **** 	div = getClkDiv(ADCSetup->burstMode, rate, (11 - ADCSetup->bitsAccuracy));
 575              		.loc 1 201 0
 576 0012 4B79     		ldrb	r3, [r1, #5]	@ D.6475,
 195:../../lib/lpc11cx4-library/lpc_chip_11cxx_lib/src/adc_11xx.c **** 	uint8_t div;
 577              		.loc 1 195 0
 578 0014 0600     		movs	r6, r0	@ pADC, pADC
 579              		.loc 1 201 0
 580 0016 9846     		mov	r8, r3	@ D.6475, D.6475
 581 0018 0B79     		ldrb	r3, [r1, #4]	@ D.6476,
 195:../../lib/lpc11cx4-library/lpc_chip_11cxx_lib/src/adc_11xx.c **** 	uint8_t div;
 582              		.loc 1 195 0
 583 001a 1400     		movs	r4, r2	@ rate, rate
 584              		.loc 1 201 0
 585 001c 9946     		mov	r9, r3	@ D.6476, D.6476
 586              	.LVL55:
 587              	.LBB36:
 588              	.LBB37:
  67:../../lib/lpc11cx4-library/lpc_chip_11cxx_lib/src/adc_11xx.c **** 
 589              		.loc 1 67 0
 590 001e FFF7FEFF 		bl	Chip_Clock_GetSystemClockRate	@
 591              	.LVL56:
  69:../../lib/lpc11cx4-library/lpc_chip_11cxx_lib/src/adc_11xx.c **** 		fullAdcRate = adcRate * clks;
 592              		.loc 1 69 0
 593 0022 4346     		mov	r3, r8	@ D.6475, D.6475
 594 0024 002B     		cmp	r3, #0	@ D.6475,
 595 0026 17D1     		bne	.L38	@,
  73:../../lib/lpc11cx4-library/lpc_chip_11cxx_lib/src/adc_11xx.c **** 	}
 596              		.loc 1 73 0
 597 0028 A100     		lsls	r1, r4, #2	@ tmp143, rate,
 598 002a 0919     		adds	r1, r1, r4	@ tmp144, tmp143, rate
 599 002c 4900     		lsls	r1, r1, #1	@ tmp145, tmp144,
 600 002e 0C19     		adds	r4, r1, r4	@ fullAdcRate, tmp145, rate
 601              	.LVL57:
ARM GAS  /var/folders/z0/6xlwn_996xz3mwq1cgzkbq4r0000gp/T//ccFLqfFe.s 			page 21


 602              	.L37:
 603 0030 E022     		movs	r2, #224	@ tmp150,
 604 0032 3B79     		ldrb	r3, [r7, #4]	@ D.6477,
 605 0034 1203     		lsls	r2, r2, #12	@ tmp150, tmp150,
 606 0036 5B04     		lsls	r3, r3, #17	@ D.6477, D.6477,
 607              	.LBE37:
 608              	.LBE36:
 202:../../lib/lpc11cx4-library/lpc_chip_11cxx_lib/src/adc_11xx.c **** 	cr |= ADC_CR_CLKDIV(div);
 203:../../lib/lpc11cx4-library/lpc_chip_11cxx_lib/src/adc_11xx.c **** 	cr |= ADC_CR_BITACC(ADCSetup->bitsAccuracy);
 609              		.loc 1 203 0
 610 0038 4000     		lsls	r0, r0, #1	@ D.6474, adcBlockFreq,
 611              	.LVL58:
 612 003a 1340     		ands	r3, r2	@ D.6474, tmp150
 613 003c 0019     		adds	r0, r0, r4	@ D.6474, D.6474, fullAdcRate
 614              	.LVL59:
 615 003e 6100     		lsls	r1, r4, #1	@ D.6474, fullAdcRate,
 616 0040 1D43     		orrs	r5, r3	@ D.6478, D.6474
 617 0042 FFF7FEFF 		bl	__aeabi_uidiv	@
 618              	.LVL60:
 619 0046 0138     		subs	r0, r0, #1	@ tmp159,
 620 0048 C0B2     		uxtb	r0, r0	@ D.6477, tmp159
 621 004a 0002     		lsls	r0, r0, #8	@ D.6477, D.6477,
 622 004c 0543     		orrs	r5, r0	@ cr, D.6477
 623              	.LVL61:
 204:../../lib/lpc11cx4-library/lpc_chip_11cxx_lib/src/adc_11xx.c **** 	pADC->CR = cr;
 624              		.loc 1 204 0
 625 004e 3560     		str	r5, [r6]	@ cr, pADC_2(D)->CR
 205:../../lib/lpc11cx4-library/lpc_chip_11cxx_lib/src/adc_11xx.c **** }
 626              		.loc 1 205 0
 627              		@ sp needed	@
 628              	.LVL62:
 629              	.LVL63:
 630              	.LVL64:
 631 0050 0CBC     		pop	{r2, r3}
 632 0052 9046     		mov	r8, r2
 633 0054 9946     		mov	r9, r3
 634 0056 F8BD     		pop	{r3, r4, r5, r6, r7, pc}
 635              	.LVL65:
 636              	.L38:
 637              	.LBB39:
 638              	.LBB38:
  70:../../lib/lpc11cx4-library/lpc_chip_11cxx_lib/src/adc_11xx.c **** 	}
 639              		.loc 1 70 0
 640 0058 0B21     		movs	r1, #11	@ tmp138,
 641 005a 4B46     		mov	r3, r9	@ D.6476, D.6476
 642 005c C91A     		subs	r1, r1, r3	@ tmp140, tmp138, D.6476
 643 005e C9B2     		uxtb	r1, r1	@ D.6474, tmp140
 644 0060 4C43     		muls	r4, r1	@ fullAdcRate, D.6474
 645              	.LVL66:
 646 0062 E5E7     		b	.L37	@
 647              	.L40:
 648              		.align	2
 649              	.L39:
 650 0064 FF00F1FF 		.word	-982785
 651              	.LBE38:
 652              	.LBE39:
 653              		.cfi_endproc
ARM GAS  /var/folders/z0/6xlwn_996xz3mwq1cgzkbq4r0000gp/T//ccFLqfFe.s 			page 22


 654              	.LFE208:
 655              		.size	Chip_ADC_SetSampleRate, .-Chip_ADC_SetSampleRate
 656              		.section	.text.Chip_ADC_SetResolution,"ax",%progbits
 657              		.align	2
 658              		.global	Chip_ADC_SetResolution
 659              		.code	16
 660              		.thumb_func
 661              		.type	Chip_ADC_SetResolution, %function
 662              	Chip_ADC_SetResolution:
 663              	.LFB209:
 206:../../lib/lpc11cx4-library/lpc_chip_11cxx_lib/src/adc_11xx.c **** 
 207:../../lib/lpc11cx4-library/lpc_chip_11cxx_lib/src/adc_11xx.c **** /* Set the ADC accuracy bits */
 208:../../lib/lpc11cx4-library/lpc_chip_11cxx_lib/src/adc_11xx.c **** void Chip_ADC_SetResolution(LPC_ADC_T *pADC, ADC_CLOCK_SETUP_T *ADCSetup, ADC_RESOLUTION_T resoluti
 209:../../lib/lpc11cx4-library/lpc_chip_11cxx_lib/src/adc_11xx.c **** {
 664              		.loc 1 209 0
 665              		.cfi_startproc
 666              		@ args = 0, pretend = 0, frame = 0
 667              		@ frame_needed = 0, uses_anonymous_args = 0
 668              	.LVL67:
 669 0000 10B5     		push	{r4, lr}	@
 670              		.cfi_def_cfa_offset 8
 671              		.cfi_offset 4, -8
 672              		.cfi_offset 14, -4
 210:../../lib/lpc11cx4-library/lpc_chip_11cxx_lib/src/adc_11xx.c **** 	ADCSetup->bitsAccuracy = resolution;
 673              		.loc 1 210 0
 674 0002 0A71     		strb	r2, [r1, #4]	@ resolution, ADCSetup_2(D)->bitsAccuracy
 211:../../lib/lpc11cx4-library/lpc_chip_11cxx_lib/src/adc_11xx.c **** 	Chip_ADC_SetSampleRate(pADC, ADCSetup, ADCSetup->adcRate);
 675              		.loc 1 211 0
 676 0004 0A68     		ldr	r2, [r1]	@, ADCSetup_2(D)->adcRate
 677              	.LVL68:
 678 0006 FFF7FEFF 		bl	Chip_ADC_SetSampleRate	@
 679              	.LVL69:
 212:../../lib/lpc11cx4-library/lpc_chip_11cxx_lib/src/adc_11xx.c **** }
 680              		.loc 1 212 0
 681              		@ sp needed	@
 682 000a 10BD     		pop	{r4, pc}
 683              		.cfi_endproc
 684              	.LFE209:
 685              		.size	Chip_ADC_SetResolution, .-Chip_ADC_SetResolution
 686              		.section	.text.Chip_ADC_EnableChannel,"ax",%progbits
 687              		.align	2
 688              		.global	Chip_ADC_EnableChannel
 689              		.code	16
 690              		.thumb_func
 691              		.type	Chip_ADC_EnableChannel, %function
 692              	Chip_ADC_EnableChannel:
 693              	.LFB210:
 213:../../lib/lpc11cx4-library/lpc_chip_11cxx_lib/src/adc_11xx.c **** 
 214:../../lib/lpc11cx4-library/lpc_chip_11cxx_lib/src/adc_11xx.c **** /* Enable or disable the ADC channel on ADC peripheral */
 215:../../lib/lpc11cx4-library/lpc_chip_11cxx_lib/src/adc_11xx.c **** void Chip_ADC_EnableChannel(LPC_ADC_T *pADC, ADC_CHANNEL_T channel, FunctionalState NewState)
 216:../../lib/lpc11cx4-library/lpc_chip_11cxx_lib/src/adc_11xx.c **** {
 694              		.loc 1 216 0
 695              		.cfi_startproc
 696              		@ args = 0, pretend = 0, frame = 0
 697              		@ frame_needed = 0, uses_anonymous_args = 0
 698              		@ link register save eliminated.
 699              	.LVL70:
ARM GAS  /var/folders/z0/6xlwn_996xz3mwq1cgzkbq4r0000gp/T//ccFLqfFe.s 			page 23


 217:../../lib/lpc11cx4-library/lpc_chip_11cxx_lib/src/adc_11xx.c **** 	if (NewState == ENABLE) {
 700              		.loc 1 217 0
 701 0000 012A     		cmp	r2, #1	@ NewState,
 702 0002 09D0     		beq	.L45	@,
 218:../../lib/lpc11cx4-library/lpc_chip_11cxx_lib/src/adc_11xx.c **** 		pADC->CR |= ADC_CR_CH_SEL(channel);
 219:../../lib/lpc11cx4-library/lpc_chip_11cxx_lib/src/adc_11xx.c **** 	}
 220:../../lib/lpc11cx4-library/lpc_chip_11cxx_lib/src/adc_11xx.c **** 	else {
 221:../../lib/lpc11cx4-library/lpc_chip_11cxx_lib/src/adc_11xx.c **** 		pADC->CR &= ~ADC_CR_START_MASK;
 703              		.loc 1 221 0
 704 0004 0268     		ldr	r2, [r0]	@ D.6484, pADC_4(D)->CR
 705              	.LVL71:
 706 0006 074B     		ldr	r3, .L46	@ tmp126,
 707 0008 1340     		ands	r3, r2	@ D.6484, D.6484
 222:../../lib/lpc11cx4-library/lpc_chip_11cxx_lib/src/adc_11xx.c **** 		pADC->CR &= ~ADC_CR_CH_SEL(channel);
 708              		.loc 1 222 0
 709 000a 0122     		movs	r2, #1	@ tmp128,
 710 000c 8A40     		lsls	r2, r2, r1	@ D.6484, tmp128, channel
 221:../../lib/lpc11cx4-library/lpc_chip_11cxx_lib/src/adc_11xx.c **** 		pADC->CR &= ~ADC_CR_CH_SEL(channel);
 711              		.loc 1 221 0
 712 000e 0360     		str	r3, [r0]	@ D.6484, pADC_4(D)->CR
 713              		.loc 1 222 0
 714 0010 0368     		ldr	r3, [r0]	@ D.6484, pADC_4(D)->CR
 715 0012 9343     		bics	r3, r2	@ D.6484, D.6484
 716 0014 0360     		str	r3, [r0]	@ D.6484, pADC_4(D)->CR
 717              	.L42:
 223:../../lib/lpc11cx4-library/lpc_chip_11cxx_lib/src/adc_11xx.c **** 	}
 224:../../lib/lpc11cx4-library/lpc_chip_11cxx_lib/src/adc_11xx.c **** }
 718              		.loc 1 224 0
 719              		@ sp needed	@
 720 0016 7047     		bx	lr
 721              	.LVL72:
 722              	.L45:
 218:../../lib/lpc11cx4-library/lpc_chip_11cxx_lib/src/adc_11xx.c **** 	}
 723              		.loc 1 218 0
 724 0018 8A40     		lsls	r2, r2, r1	@ D.6484, NewState, channel
 725              	.LVL73:
 726 001a 0368     		ldr	r3, [r0]	@ D.6484, pADC_4(D)->CR
 727 001c 1A43     		orrs	r2, r3	@ D.6484, D.6484
 728 001e 0260     		str	r2, [r0]	@ D.6484, pADC_4(D)->CR
 729 0020 F9E7     		b	.L42	@
 730              	.L47:
 731 0022 C046     		.align	2
 732              	.L46:
 733 0024 FFFFFFF8 		.word	-117440513
 734              		.cfi_endproc
 735              	.LFE210:
 736              		.size	Chip_ADC_EnableChannel, .-Chip_ADC_EnableChannel
 737              		.section	.text.Chip_ADC_SetBurstCmd,"ax",%progbits
 738              		.align	2
 739              		.global	Chip_ADC_SetBurstCmd
 740              		.code	16
 741              		.thumb_func
 742              		.type	Chip_ADC_SetBurstCmd, %function
 743              	Chip_ADC_SetBurstCmd:
 744              	.LFB211:
 225:../../lib/lpc11cx4-library/lpc_chip_11cxx_lib/src/adc_11xx.c **** 
 226:../../lib/lpc11cx4-library/lpc_chip_11cxx_lib/src/adc_11xx.c **** /* Enable burst mode */
ARM GAS  /var/folders/z0/6xlwn_996xz3mwq1cgzkbq4r0000gp/T//ccFLqfFe.s 			page 24


 227:../../lib/lpc11cx4-library/lpc_chip_11cxx_lib/src/adc_11xx.c **** void Chip_ADC_SetBurstCmd(LPC_ADC_T *pADC, FunctionalState NewState)
 228:../../lib/lpc11cx4-library/lpc_chip_11cxx_lib/src/adc_11xx.c **** {
 745              		.loc 1 228 0
 746              		.cfi_startproc
 747              		@ args = 0, pretend = 0, frame = 0
 748              		@ frame_needed = 0, uses_anonymous_args = 0
 749              		@ link register save eliminated.
 750              	.LVL74:
 751              	.LBB40:
 752              	.LBB41:
  85:../../lib/lpc11cx4-library/lpc_chip_11cxx_lib/src/adc_11xx.c **** 	pADC->CR = temp | (ADC_CR_START_MODE_SEL((uint32_t) start_mode));
 753              		.loc 1 85 0
 754 0000 0268     		ldr	r2, [r0]	@ D.6488, pADC_3(D)->CR
 755 0002 084B     		ldr	r3, .L52	@ tmp118,
 756 0004 1340     		ands	r3, r2	@ temp, D.6488
 757              	.LVL75:
  86:../../lib/lpc11cx4-library/lpc_chip_11cxx_lib/src/adc_11xx.c **** }
 758              		.loc 1 86 0
 759 0006 0360     		str	r3, [r0]	@ temp, pADC_3(D)->CR
 760              	.LVL76:
 761              	.LBE41:
 762              	.LBE40:
 229:../../lib/lpc11cx4-library/lpc_chip_11cxx_lib/src/adc_11xx.c **** 	setStartMode(pADC, ADC_NO_START);
 230:../../lib/lpc11cx4-library/lpc_chip_11cxx_lib/src/adc_11xx.c **** 
 231:../../lib/lpc11cx4-library/lpc_chip_11cxx_lib/src/adc_11xx.c **** 	if (NewState == DISABLE) {
 763              		.loc 1 231 0
 764 0008 0029     		cmp	r1, #0	@ NewState,
 765 000a 05D0     		beq	.L51	@,
 232:../../lib/lpc11cx4-library/lpc_chip_11cxx_lib/src/adc_11xx.c **** 		pADC->CR &= ~ADC_CR_BURST;
 233:../../lib/lpc11cx4-library/lpc_chip_11cxx_lib/src/adc_11xx.c **** 	}
 234:../../lib/lpc11cx4-library/lpc_chip_11cxx_lib/src/adc_11xx.c **** 	else {
 235:../../lib/lpc11cx4-library/lpc_chip_11cxx_lib/src/adc_11xx.c **** 		pADC->CR |= ADC_CR_BURST;
 766              		.loc 1 235 0
 767 000c 8022     		movs	r2, #128	@ tmp120,
 768 000e 0368     		ldr	r3, [r0]	@ D.6488, pADC_3(D)->CR
 769 0010 5202     		lsls	r2, r2, #9	@ tmp120, tmp120,
 770 0012 1343     		orrs	r3, r2	@ D.6488, tmp120
 771 0014 0360     		str	r3, [r0]	@ D.6488,* pADC
 772              	.L48:
 236:../../lib/lpc11cx4-library/lpc_chip_11cxx_lib/src/adc_11xx.c **** 	}
 237:../../lib/lpc11cx4-library/lpc_chip_11cxx_lib/src/adc_11xx.c **** }
 773              		.loc 1 237 0
 774              		@ sp needed	@
 775 0016 7047     		bx	lr
 776              	.L51:
 232:../../lib/lpc11cx4-library/lpc_chip_11cxx_lib/src/adc_11xx.c **** 		pADC->CR &= ~ADC_CR_BURST;
 777              		.loc 1 232 0
 778 0018 0268     		ldr	r2, [r0]	@ D.6488, pADC_3(D)->CR
 779 001a 034B     		ldr	r3, .L52+4	@ tmp119,
 780 001c 1340     		ands	r3, r2	@ D.6488, D.6488
 781 001e 0360     		str	r3, [r0]	@ D.6488,* pADC
 782 0020 F9E7     		b	.L48	@
 783              	.L53:
 784 0022 C046     		.align	2
 785              	.L52:
 786 0024 FFFFFFF8 		.word	-117440513
 787 0028 FFFFFEFF 		.word	-65537
ARM GAS  /var/folders/z0/6xlwn_996xz3mwq1cgzkbq4r0000gp/T//ccFLqfFe.s 			page 25


 788              		.cfi_endproc
 789              	.LFE211:
 790              		.size	Chip_ADC_SetBurstCmd, .-Chip_ADC_SetBurstCmd
 791              		.section	.text.Chip_ADC_ReadByte,"ax",%progbits
 792              		.align	2
 793              		.global	Chip_ADC_ReadByte
 794              		.code	16
 795              		.thumb_func
 796              		.type	Chip_ADC_ReadByte, %function
 797              	Chip_ADC_ReadByte:
 798              	.LFB212:
 238:../../lib/lpc11cx4-library/lpc_chip_11cxx_lib/src/adc_11xx.c **** 
 239:../../lib/lpc11cx4-library/lpc_chip_11cxx_lib/src/adc_11xx.c **** /* Read the ADC value and convert it to 8bits value */
 240:../../lib/lpc11cx4-library/lpc_chip_11cxx_lib/src/adc_11xx.c **** Status Chip_ADC_ReadByte(LPC_ADC_T *pADC, ADC_CHANNEL_T channel, uint8_t *data)
 241:../../lib/lpc11cx4-library/lpc_chip_11cxx_lib/src/adc_11xx.c **** {
 799              		.loc 1 241 0
 800              		.cfi_startproc
 801              		@ args = 0, pretend = 0, frame = 0
 802              		@ frame_needed = 0, uses_anonymous_args = 0
 803              		@ link register save eliminated.
 804              	.LVL77:
 805              	.LBB42:
 806              	.LBB43:
  93:../../lib/lpc11cx4-library/lpc_chip_11cxx_lib/src/adc_11xx.c **** 	if (!ADC_DR_DONE(temp)) {
 807              		.loc 1 93 0
 808 0000 0431     		adds	r1, r1, #4	@ tmp122,
 809              	.LVL78:
 810 0002 8900     		lsls	r1, r1, #2	@ tmp123, tmp122,
 811 0004 0B58     		ldr	r3, [r1, r0]	@ temp, pADC_2(D)->DR
 812              	.LVL79:
  94:../../lib/lpc11cx4-library/lpc_chip_11cxx_lib/src/adc_11xx.c **** 		return ERROR;
 813              		.loc 1 94 0
 814 0006 002B     		cmp	r3, #0	@ temp,
 815 0008 03DB     		blt	.L57	@,
 816 000a 0023     		movs	r3, #0	@ D.6496,
 817              	.LVL80:
  95:../../lib/lpc11cx4-library/lpc_chip_11cxx_lib/src/adc_11xx.c **** 	}
 818              		.loc 1 95 0
 819 000c 0020     		movs	r0, #0	@ D.6495,
 820              	.LVL81:
 821              	.L55:
 822              	.LBE43:
 823              	.LBE42:
 242:../../lib/lpc11cx4-library/lpc_chip_11cxx_lib/src/adc_11xx.c **** 	uint16_t temp = 0;
 243:../../lib/lpc11cx4-library/lpc_chip_11cxx_lib/src/adc_11xx.c **** 	Status rt;
 244:../../lib/lpc11cx4-library/lpc_chip_11cxx_lib/src/adc_11xx.c **** 
 245:../../lib/lpc11cx4-library/lpc_chip_11cxx_lib/src/adc_11xx.c **** 	rt = readAdcVal(pADC, channel, &temp);
 246:../../lib/lpc11cx4-library/lpc_chip_11cxx_lib/src/adc_11xx.c **** 	*data = (uint8_t) temp;
 824              		.loc 1 246 0
 825 000e 1370     		strb	r3, [r2]	@ D.6496, *data_5(D)
 247:../../lib/lpc11cx4-library/lpc_chip_11cxx_lib/src/adc_11xx.c **** 
 248:../../lib/lpc11cx4-library/lpc_chip_11cxx_lib/src/adc_11xx.c **** 	return rt;
 249:../../lib/lpc11cx4-library/lpc_chip_11cxx_lib/src/adc_11xx.c **** }
 826              		.loc 1 249 0
 827              		@ sp needed	@
 828 0010 7047     		bx	lr
 829              	.LVL82:
ARM GAS  /var/folders/z0/6xlwn_996xz3mwq1cgzkbq4r0000gp/T//ccFLqfFe.s 			page 26


 830              	.L57:
 831 0012 9B04     		lsls	r3, r3, #18	@ tmp126, temp,
 832              	.LVL83:
 833 0014 1B0E     		lsrs	r3, r3, #24	@ D.6496, tmp126,
 834              	.LBB45:
 835              	.LBB44:
 100:../../lib/lpc11cx4-library/lpc_chip_11cxx_lib/src/adc_11xx.c **** }
 836              		.loc 1 100 0
 837 0016 0120     		movs	r0, #1	@ D.6495,
 838              	.LVL84:
 839 0018 F9E7     		b	.L55	@
 840              	.LBE44:
 841              	.LBE45:
 842              		.cfi_endproc
 843              	.LFE212:
 844              		.size	Chip_ADC_ReadByte, .-Chip_ADC_ReadByte
 845              		.text
 846              	.Letext0:
 847              		.file 3 "/usr/local/Cellar/gcc-arm-none-eabi/20160928/arm-none-eabi/include/machine/_default_types
 848              		.file 4 "/usr/local/Cellar/gcc-arm-none-eabi/20160928/arm-none-eabi/include/sys/_stdint.h"
 849              		.file 5 "../../lib/lpc11cx4-library/lpc_chip_11cxx_lib/inc/lpc_types.h"
 850              		.file 6 "../../lib/lpc11cx4-library/lpc_chip_11cxx_lib/inc/sysctl_11xx.h"
 851              		.file 7 "../../lib/lpc11cx4-library/lpc_chip_11cxx_lib/inc/adc_11xx.h"
 852              		.file 8 "../../lib/lpc11cx4-library/lpc_chip_11cxx_lib/inc/chip.h"