ARM GAS  /var/folders/z0/6xlwn_996xz3mwq1cgzkbq4r0000gp/T//ccmGTjkW.s 			page 1


   1              		.syntax unified
   2              		.cpu cortex-m0
   3              		.fpu softvfp
   4              		.eabi_attribute 20, 1	@ Tag_ABI_FP_denormal
   5              		.eabi_attribute 21, 1	@ Tag_ABI_FP_exceptions
   6              		.eabi_attribute 23, 3	@ Tag_ABI_FP_number_model
   7              		.eabi_attribute 24, 1	@ Tag_ABI_align8_needed
   8              		.eabi_attribute 25, 1	@ Tag_ABI_align8_preserved
   9              		.eabi_attribute 26, 1	@ Tag_ABI_enum_size
  10              		.eabi_attribute 30, 2	@ Tag_ABI_optimization_goals
  11              		.eabi_attribute 34, 0	@ Tag_CPU_unaligned_access
  12              		.eabi_attribute 18, 4	@ Tag_ABI_PCS_wchar_t
  13              		.file	"board.c"
  14              	@ GNU C89 (GNU Tools for ARM Embedded Processors) version 5.4.1 20160919 (release) [ARM/embedded-5-
  15              	@	compiled by GNU C version 4.2.1 (Based on Apple Inc. build 5658) (LLVM build 2336.9.00), GMP vers
  16              	@ GGC heuristics: --param ggc-min-expand=100 --param ggc-min-heapsize=131072
  17              	@ options passed:  -I . -I inc/
  18              	@ -I ../../lib/lpc11cx4-library/lpc_chip_11cxx_lib/inc
  19              	@ -I ../../lib/lpc11cx4-library/evt_lib/inc/ -I ../../lib/CANlib
  20              	@ -imultilib armv6-m
  21              	@ -iprefix /usr/local/Cellar/gcc-arm-none-eabi/20160928/bin/../lib/gcc/arm-none-eabi/5.4.1/
  22              	@ -isysroot /usr/local/Cellar/gcc-arm-none-eabi/20160928/bin/../arm-none-eabi
  23              	@ -MD bin/board.d -MF bin/board.d -MP -MQ bin/board.o -D__USES_INITFINI__
  24              	@ -D UART_BAUD=57600 -D CORE_M0 -D DEBUG_ENABLE -D FSAE_DRIVERS
  25              	@ -D CAN_ARCHITECTURE_ARM src/board.c -mcpu=cortex-m0 -mthumb
  26              	@ -auxbase-strip bin/board.o -g -ggdb3 -O2 -Wall -Wstrict-prototypes
  27              	@ -Wextra -std=gnu90 -ffunction-sections -fdata-sections
  28              	@ -fdiagnostics-color=always -fverbose-asm
  29              	@ options enabled:  -faggressive-loop-optimizations -falign-functions
  30              	@ -falign-jumps -falign-labels -falign-loops -fauto-inc-dec
  31              	@ -fbranch-count-reg -fcaller-saves -fchkp-check-incomplete-type
  32              	@ -fchkp-check-read -fchkp-check-write -fchkp-instrument-calls
  33              	@ -fchkp-narrow-bounds -fchkp-optimize -fchkp-store-bounds
  34              	@ -fchkp-use-static-bounds -fchkp-use-static-const-bounds
  35              	@ -fchkp-use-wrappers -fcombine-stack-adjustments -fcommon -fcompare-elim
  36              	@ -fcprop-registers -fcrossjumping -fcse-follow-jumps -fdata-sections
  37              	@ -fdefer-pop -fdelete-null-pointer-checks -fdevirtualize
  38              	@ -fdevirtualize-speculatively -fdwarf2-cfi-asm -fearly-inlining
  39              	@ -feliminate-unused-debug-types -fexpensive-optimizations
  40              	@ -fforward-propagate -ffunction-cse -ffunction-sections -fgcse -fgcse-lm
  41              	@ -fgnu-runtime -fgnu-unique -fguess-branch-probability
  42              	@ -fhoist-adjacent-loads -fident -fif-conversion -fif-conversion2
  43              	@ -findirect-inlining -finline -finline-atomics
  44              	@ -finline-functions-called-once -finline-small-functions -fipa-cp
  45              	@ -fipa-cp-alignment -fipa-icf -fipa-icf-functions -fipa-icf-variables
  46              	@ -fipa-profile -fipa-pure-const -fipa-reference -fipa-sra
  47              	@ -fira-hoist-pressure -fira-share-save-slots -fira-share-spill-slots
  48              	@ -fisolate-erroneous-paths-dereference -fivopts -fkeep-static-consts
  49              	@ -fleading-underscore -flifetime-dse -flra-remat -flto-odr-type-merging
  50              	@ -fmath-errno -fmerge-constants -fmerge-debug-strings
  51              	@ -fmove-loop-invariants -fomit-frame-pointer -foptimize-sibling-calls
  52              	@ -foptimize-strlen -fpartial-inlining -fpeephole -fpeephole2
  53              	@ -fprefetch-loop-arrays -freg-struct-return -freorder-blocks
  54              	@ -freorder-functions -frerun-cse-after-loop
  55              	@ -fsched-critical-path-heuristic -fsched-dep-count-heuristic
  56              	@ -fsched-group-heuristic -fsched-interblock -fsched-last-insn-heuristic
  57              	@ -fsched-pressure -fsched-rank-heuristic -fsched-spec
ARM GAS  /var/folders/z0/6xlwn_996xz3mwq1cgzkbq4r0000gp/T//ccmGTjkW.s 			page 2


  58              	@ -fsched-spec-insn-heuristic -fsched-stalled-insns-dep -fschedule-insns2
  59              	@ -fsection-anchors -fsemantic-interposition -fshow-column -fshrink-wrap
  60              	@ -fsigned-zeros -fsplit-ivs-in-unroller -fsplit-wide-types -fssa-phiopt
  61              	@ -fstdarg-opt -fstrict-aliasing -fstrict-overflow
  62              	@ -fstrict-volatile-bitfields -fsync-libcalls -fthread-jumps
  63              	@ -ftoplevel-reorder -ftrapping-math -ftree-bit-ccp -ftree-builtin-call-dce
  64              	@ -ftree-ccp -ftree-ch -ftree-coalesce-vars -ftree-copy-prop
  65              	@ -ftree-copyrename -ftree-cselim -ftree-dce -ftree-dominator-opts
  66              	@ -ftree-dse -ftree-forwprop -ftree-fre -ftree-loop-if-convert
  67              	@ -ftree-loop-im -ftree-loop-ivcanon -ftree-loop-optimize
  68              	@ -ftree-parallelize-loops= -ftree-phiprop -ftree-pre -ftree-pta
  69              	@ -ftree-reassoc -ftree-scev-cprop -ftree-sink -ftree-slsr -ftree-sra
  70              	@ -ftree-switch-conversion -ftree-tail-merge -ftree-ter -ftree-vrp
  71              	@ -funit-at-a-time -fvar-tracking -fvar-tracking-assignments -fverbose-asm
  72              	@ -fzero-initialized-in-bss -mlittle-endian -mpic-data-is-text-relative
  73              	@ -msched-prolog -mthumb -mvectorize-with-neon-quad
  74              	
  75              		.text
  76              	.Ltext0:
  77              		.cfi_sections	.debug_frame
  78              		.section	.text.UART_IRQHandler,"ax",%progbits
  79              		.align	2
  80              		.global	UART_IRQHandler
  81              		.code	16
  82              		.thumb_func
  83              		.type	UART_IRQHandler, %function
  84              	UART_IRQHandler:
  85              	.LFB198:
  86              		.file 1 "src/board.c"
   1:src/board.c   **** #include "board.h"
   2:src/board.c   **** #include "CAN_Library.h"
   3:src/board.c   **** #include "config.h"
   4:src/board.c   **** #include "charge.h"
   5:src/board.c   **** #include "pins.h"
   6:src/board.c   **** 
   7:src/board.c   **** #include <stdlib.h>
   8:src/board.c   **** 
   9:src/board.c   **** const uint32_t OscRateIn = 0;
  10:src/board.c   **** 
  11:src/board.c   **** static uint32_t last_csb_elcon_command_time = 0;
  12:src/board.c   **** static uint32_t last_csb_bms_mode_time = 0;
  13:src/board.c   **** static uint32_t last_bms_switch_time = 0;
  14:src/board.c   **** 
  15:src/board.c   **** static RINGBUFF_T uart_rx_ring;
  16:src/board.c   **** static uint8_t _uart_rx_ring[UART_BUFFER_SIZE];
  17:src/board.c   **** static RINGBUFF_T uart_tx_ring;
  18:src/board.c   **** static uint8_t _uart_tx_ring[UART_BUFFER_SIZE];
  19:src/board.c   **** 
  20:src/board.c   **** static char str[10];
  21:src/board.c   **** 
  22:src/board.c   **** static bool isResetting = false;
  23:src/board.c   **** 
  24:src/board.c   **** void handle_can_error(Can_ErrorID_T err, uint32_t baud_rate);
  25:src/board.c   **** void Send_Elcon_Command(CSB_OUTPUT_T *csb_output);
  26:src/board.c   **** void Send_Bms_Switch(void);
  27:src/board.c   **** void Send_Bms_Mode(CSB_STATE_T *csb_state);
  28:src/board.c   **** 
ARM GAS  /var/folders/z0/6xlwn_996xz3mwq1cgzkbq4r0000gp/T//ccmGTjkW.s 			page 3


  29:src/board.c   **** void UART_IRQHandler(void) {
  87              		.loc 1 29 0
  88              		.cfi_startproc
  89              		@ args = 0, pretend = 0, frame = 0
  90              		@ frame_needed = 0, uses_anonymous_args = 0
  91 0000 10B5     		push	{r4, lr}	@
  92              		.cfi_def_cfa_offset 8
  93              		.cfi_offset 4, -8
  94              		.cfi_offset 14, -4
  30:src/board.c   ****   Chip_UART_IRQRBHandler(LPC_USART, &uart_rx_ring, &uart_tx_ring);
  95              		.loc 1 30 0
  96 0002 034A     		ldr	r2, .L2	@,
  97 0004 0349     		ldr	r1, .L2+4	@,
  98 0006 0448     		ldr	r0, .L2+8	@,
  99 0008 FFF7FEFF 		bl	Chip_UART_IRQRBHandler	@
 100              	.LVL0:
  31:src/board.c   **** }
 101              		.loc 1 31 0
 102              		@ sp needed	@
 103 000c 10BD     		pop	{r4, pc}
 104              	.L3:
 105 000e C046     		.align	2
 106              	.L2:
 107 0010 00000000 		.word	.LANCHOR0
 108 0014 00000000 		.word	.LANCHOR1
 109 0018 00800040 		.word	1073774592
 110              		.cfi_endproc
 111              	.LFE198:
 112              		.size	UART_IRQHandler, .-UART_IRQHandler
 113              		.section	.text.SysTick_Handler,"ax",%progbits
 114              		.align	2
 115              		.global	SysTick_Handler
 116              		.code	16
 117              		.thumb_func
 118              		.type	SysTick_Handler, %function
 119              	SysTick_Handler:
 120              	.LFB199:
  32:src/board.c   **** 
  33:src/board.c   **** void SysTick_Handler(void) {
 121              		.loc 1 33 0
 122              		.cfi_startproc
 123              		@ args = 0, pretend = 0, frame = 0
 124              		@ frame_needed = 0, uses_anonymous_args = 0
 125              		@ link register save eliminated.
  34:src/board.c   ****   msTicks++;
 126              		.loc 1 34 0
 127 0000 024A     		ldr	r2, .L5	@ tmp112,
  35:src/board.c   **** }
 128              		.loc 1 35 0
 129              		@ sp needed	@
  34:src/board.c   ****   msTicks++;
 130              		.loc 1 34 0
 131 0002 1368     		ldr	r3, [r2]	@ D.8149, msTicks
 132 0004 0133     		adds	r3, r3, #1	@ D.8149,
 133 0006 1360     		str	r3, [r2]	@ D.8149, msTicks
 134              		.loc 1 35 0
 135 0008 7047     		bx	lr
ARM GAS  /var/folders/z0/6xlwn_996xz3mwq1cgzkbq4r0000gp/T//ccmGTjkW.s 			page 4


 136              	.L6:
 137 000a C046     		.align	2
 138              	.L5:
 139 000c 00000000 		.word	msTicks
 140              		.cfi_endproc
 141              	.LFE199:
 142              		.size	SysTick_Handler, .-SysTick_Handler
 143              		.global	__aeabi_uidiv
 144              		.section	.text.Board_Chip_Init,"ax",%progbits
 145              		.align	2
 146              		.global	Board_Chip_Init
 147              		.code	16
 148              		.thumb_func
 149              		.type	Board_Chip_Init, %function
 150              	Board_Chip_Init:
 151              	.LFB200:
  36:src/board.c   **** 
  37:src/board.c   **** void Board_Chip_Init(void) {
 152              		.loc 1 37 0
 153              		.cfi_startproc
 154              		@ args = 0, pretend = 0, frame = 0
 155              		@ frame_needed = 0, uses_anonymous_args = 0
 156              	.LVL1:
 157              	.LBB34:
 158              	.LBB35:
 159              		.file 2 "../../lib/lpc11cx4-library/lpc_chip_11cxx_lib/inc/core_cm0.h"
   1:../../lib/lpc11cx4-library/lpc_chip_11cxx_lib/inc/core_cm0.h **** /**************************************************************************//**
   2:../../lib/lpc11cx4-library/lpc_chip_11cxx_lib/inc/core_cm0.h ****  * @file     core_cm0.h
   3:../../lib/lpc11cx4-library/lpc_chip_11cxx_lib/inc/core_cm0.h ****  * @brief    CMSIS Cortex-M0 Core Peripheral Access Layer Header File
   4:../../lib/lpc11cx4-library/lpc_chip_11cxx_lib/inc/core_cm0.h ****  * @version  V3.01
   5:../../lib/lpc11cx4-library/lpc_chip_11cxx_lib/inc/core_cm0.h ****  * @date     13. March 2012
   6:../../lib/lpc11cx4-library/lpc_chip_11cxx_lib/inc/core_cm0.h ****  *
   7:../../lib/lpc11cx4-library/lpc_chip_11cxx_lib/inc/core_cm0.h ****  * @note
   8:../../lib/lpc11cx4-library/lpc_chip_11cxx_lib/inc/core_cm0.h ****  * Copyright (C) 2009-2012 ARM Limited. All rights reserved.
   9:../../lib/lpc11cx4-library/lpc_chip_11cxx_lib/inc/core_cm0.h ****  *
  10:../../lib/lpc11cx4-library/lpc_chip_11cxx_lib/inc/core_cm0.h ****  * @par
  11:../../lib/lpc11cx4-library/lpc_chip_11cxx_lib/inc/core_cm0.h ****  * ARM Limited (ARM) is supplying this software for use with Cortex-M
  12:../../lib/lpc11cx4-library/lpc_chip_11cxx_lib/inc/core_cm0.h ****  * processor based microcontrollers.  This file can be freely distributed
  13:../../lib/lpc11cx4-library/lpc_chip_11cxx_lib/inc/core_cm0.h ****  * within development tools that are supporting such ARM based processors.
  14:../../lib/lpc11cx4-library/lpc_chip_11cxx_lib/inc/core_cm0.h ****  *
  15:../../lib/lpc11cx4-library/lpc_chip_11cxx_lib/inc/core_cm0.h ****  * @par
  16:../../lib/lpc11cx4-library/lpc_chip_11cxx_lib/inc/core_cm0.h ****  * THIS SOFTWARE IS PROVIDED "AS IS".  NO WARRANTIES, WHETHER EXPRESS, IMPLIED
  17:../../lib/lpc11cx4-library/lpc_chip_11cxx_lib/inc/core_cm0.h ****  * OR STATUTORY, INCLUDING, BUT NOT LIMITED TO, IMPLIED WARRANTIES OF
  18:../../lib/lpc11cx4-library/lpc_chip_11cxx_lib/inc/core_cm0.h ****  * MERCHANTABILITY AND FITNESS FOR A PARTICULAR PURPOSE APPLY TO THIS SOFTWARE.
  19:../../lib/lpc11cx4-library/lpc_chip_11cxx_lib/inc/core_cm0.h ****  * ARM SHALL NOT, IN ANY CIRCUMSTANCES, BE LIABLE FOR SPECIAL, INCIDENTAL, OR
  20:../../lib/lpc11cx4-library/lpc_chip_11cxx_lib/inc/core_cm0.h ****  * CONSEQUENTIAL DAMAGES, FOR ANY REASON WHATSOEVER.
  21:../../lib/lpc11cx4-library/lpc_chip_11cxx_lib/inc/core_cm0.h ****  *
  22:../../lib/lpc11cx4-library/lpc_chip_11cxx_lib/inc/core_cm0.h ****  ******************************************************************************/
  23:../../lib/lpc11cx4-library/lpc_chip_11cxx_lib/inc/core_cm0.h **** #if defined ( __ICCARM__ )
  24:../../lib/lpc11cx4-library/lpc_chip_11cxx_lib/inc/core_cm0.h ****  #pragma system_include  /* treat file as system include file for MISRA check */
  25:../../lib/lpc11cx4-library/lpc_chip_11cxx_lib/inc/core_cm0.h **** #endif
  26:../../lib/lpc11cx4-library/lpc_chip_11cxx_lib/inc/core_cm0.h **** 
  27:../../lib/lpc11cx4-library/lpc_chip_11cxx_lib/inc/core_cm0.h **** #ifdef __cplusplus
  28:../../lib/lpc11cx4-library/lpc_chip_11cxx_lib/inc/core_cm0.h ****  extern "C" {
  29:../../lib/lpc11cx4-library/lpc_chip_11cxx_lib/inc/core_cm0.h **** #endif
  30:../../lib/lpc11cx4-library/lpc_chip_11cxx_lib/inc/core_cm0.h **** 
  31:../../lib/lpc11cx4-library/lpc_chip_11cxx_lib/inc/core_cm0.h **** #ifndef __CORE_CM0_H_GENERIC
ARM GAS  /var/folders/z0/6xlwn_996xz3mwq1cgzkbq4r0000gp/T//ccmGTjkW.s 			page 5


  32:../../lib/lpc11cx4-library/lpc_chip_11cxx_lib/inc/core_cm0.h **** #define __CORE_CM0_H_GENERIC
  33:../../lib/lpc11cx4-library/lpc_chip_11cxx_lib/inc/core_cm0.h **** 
  34:../../lib/lpc11cx4-library/lpc_chip_11cxx_lib/inc/core_cm0.h **** /** \page CMSIS_MISRA_Exceptions  MISRA-C:2004 Compliance Exceptions
  35:../../lib/lpc11cx4-library/lpc_chip_11cxx_lib/inc/core_cm0.h ****   CMSIS violates the following MISRA-C:2004 rules:
  36:../../lib/lpc11cx4-library/lpc_chip_11cxx_lib/inc/core_cm0.h **** 
  37:../../lib/lpc11cx4-library/lpc_chip_11cxx_lib/inc/core_cm0.h ****    \li Required Rule 8.5, object/function definition in header file.<br>
  38:../../lib/lpc11cx4-library/lpc_chip_11cxx_lib/inc/core_cm0.h ****      Function definitions in header files are used to allow 'inlining'.
  39:../../lib/lpc11cx4-library/lpc_chip_11cxx_lib/inc/core_cm0.h **** 
  40:../../lib/lpc11cx4-library/lpc_chip_11cxx_lib/inc/core_cm0.h ****    \li Required Rule 18.4, declaration of union type or object of union type: '{...}'.<br>
  41:../../lib/lpc11cx4-library/lpc_chip_11cxx_lib/inc/core_cm0.h ****      Unions are used for effective representation of core registers.
  42:../../lib/lpc11cx4-library/lpc_chip_11cxx_lib/inc/core_cm0.h **** 
  43:../../lib/lpc11cx4-library/lpc_chip_11cxx_lib/inc/core_cm0.h ****    \li Advisory Rule 19.7, Function-like macro defined.<br>
  44:../../lib/lpc11cx4-library/lpc_chip_11cxx_lib/inc/core_cm0.h ****      Function-like macros are used to allow more efficient code.
  45:../../lib/lpc11cx4-library/lpc_chip_11cxx_lib/inc/core_cm0.h ****  */
  46:../../lib/lpc11cx4-library/lpc_chip_11cxx_lib/inc/core_cm0.h **** 
  47:../../lib/lpc11cx4-library/lpc_chip_11cxx_lib/inc/core_cm0.h **** 
  48:../../lib/lpc11cx4-library/lpc_chip_11cxx_lib/inc/core_cm0.h **** /*******************************************************************************
  49:../../lib/lpc11cx4-library/lpc_chip_11cxx_lib/inc/core_cm0.h ****  *                 CMSIS definitions
  50:../../lib/lpc11cx4-library/lpc_chip_11cxx_lib/inc/core_cm0.h ****  ******************************************************************************/
  51:../../lib/lpc11cx4-library/lpc_chip_11cxx_lib/inc/core_cm0.h **** /** \ingroup Cortex_M0
  52:../../lib/lpc11cx4-library/lpc_chip_11cxx_lib/inc/core_cm0.h ****   @{
  53:../../lib/lpc11cx4-library/lpc_chip_11cxx_lib/inc/core_cm0.h ****  */
  54:../../lib/lpc11cx4-library/lpc_chip_11cxx_lib/inc/core_cm0.h **** 
  55:../../lib/lpc11cx4-library/lpc_chip_11cxx_lib/inc/core_cm0.h **** /*  CMSIS CM0 definitions */
  56:../../lib/lpc11cx4-library/lpc_chip_11cxx_lib/inc/core_cm0.h **** #define __CM0_CMSIS_VERSION_MAIN  (0x03)                                   /*!< [31:16] CMSIS HAL m
  57:../../lib/lpc11cx4-library/lpc_chip_11cxx_lib/inc/core_cm0.h **** #define __CM0_CMSIS_VERSION_SUB   (0x01)                                   /*!< [15:0]  CMSIS HAL s
  58:../../lib/lpc11cx4-library/lpc_chip_11cxx_lib/inc/core_cm0.h **** #define __CM0_CMSIS_VERSION       ((__CM0_CMSIS_VERSION_MAIN << 16) | \
  59:../../lib/lpc11cx4-library/lpc_chip_11cxx_lib/inc/core_cm0.h ****                                     __CM0_CMSIS_VERSION_SUB          )     /*!< CMSIS HAL version n
  60:../../lib/lpc11cx4-library/lpc_chip_11cxx_lib/inc/core_cm0.h **** 
  61:../../lib/lpc11cx4-library/lpc_chip_11cxx_lib/inc/core_cm0.h **** #define __CORTEX_M                (0x00)                                   /*!< Cortex-M Core      
  62:../../lib/lpc11cx4-library/lpc_chip_11cxx_lib/inc/core_cm0.h **** 
  63:../../lib/lpc11cx4-library/lpc_chip_11cxx_lib/inc/core_cm0.h **** 
  64:../../lib/lpc11cx4-library/lpc_chip_11cxx_lib/inc/core_cm0.h **** #if   defined ( __CC_ARM )
  65:../../lib/lpc11cx4-library/lpc_chip_11cxx_lib/inc/core_cm0.h ****   #define __ASM            __asm                                      /*!< asm keyword for ARM Comp
  66:../../lib/lpc11cx4-library/lpc_chip_11cxx_lib/inc/core_cm0.h ****   #define __INLINE         __inline                                   /*!< inline keyword for ARM C
  67:../../lib/lpc11cx4-library/lpc_chip_11cxx_lib/inc/core_cm0.h ****   #define __STATIC_INLINE  static __inline
  68:../../lib/lpc11cx4-library/lpc_chip_11cxx_lib/inc/core_cm0.h **** 
  69:../../lib/lpc11cx4-library/lpc_chip_11cxx_lib/inc/core_cm0.h **** #elif defined ( __ICCARM__ )
  70:../../lib/lpc11cx4-library/lpc_chip_11cxx_lib/inc/core_cm0.h ****   #define __ASM            __asm                                      /*!< asm keyword for IAR Comp
  71:../../lib/lpc11cx4-library/lpc_chip_11cxx_lib/inc/core_cm0.h ****   #define __INLINE         inline                                     /*!< inline keyword for IAR C
  72:../../lib/lpc11cx4-library/lpc_chip_11cxx_lib/inc/core_cm0.h ****   #define __STATIC_INLINE  static inline
  73:../../lib/lpc11cx4-library/lpc_chip_11cxx_lib/inc/core_cm0.h **** 
  74:../../lib/lpc11cx4-library/lpc_chip_11cxx_lib/inc/core_cm0.h **** #elif defined ( __GNUC__ )
  75:../../lib/lpc11cx4-library/lpc_chip_11cxx_lib/inc/core_cm0.h ****   #define __ASM            __asm                                      /*!< asm keyword for GNU Comp
  76:../../lib/lpc11cx4-library/lpc_chip_11cxx_lib/inc/core_cm0.h ****   #define __INLINE         inline                                     /*!< inline keyword for GNU C
  77:../../lib/lpc11cx4-library/lpc_chip_11cxx_lib/inc/core_cm0.h ****   #define __STATIC_INLINE  static inline
  78:../../lib/lpc11cx4-library/lpc_chip_11cxx_lib/inc/core_cm0.h **** 
  79:../../lib/lpc11cx4-library/lpc_chip_11cxx_lib/inc/core_cm0.h **** #elif defined ( __TASKING__ )
  80:../../lib/lpc11cx4-library/lpc_chip_11cxx_lib/inc/core_cm0.h ****   #define __ASM            __asm                                      /*!< asm keyword for TASKING 
  81:../../lib/lpc11cx4-library/lpc_chip_11cxx_lib/inc/core_cm0.h ****   #define __INLINE         inline                                     /*!< inline keyword for TASKI
  82:../../lib/lpc11cx4-library/lpc_chip_11cxx_lib/inc/core_cm0.h ****   #define __STATIC_INLINE  static inline
  83:../../lib/lpc11cx4-library/lpc_chip_11cxx_lib/inc/core_cm0.h **** 
  84:../../lib/lpc11cx4-library/lpc_chip_11cxx_lib/inc/core_cm0.h **** #endif
  85:../../lib/lpc11cx4-library/lpc_chip_11cxx_lib/inc/core_cm0.h **** 
  86:../../lib/lpc11cx4-library/lpc_chip_11cxx_lib/inc/core_cm0.h **** /** __FPU_USED indicates whether an FPU is used or not. This core does not support an FPU at all
  87:../../lib/lpc11cx4-library/lpc_chip_11cxx_lib/inc/core_cm0.h **** */
  88:../../lib/lpc11cx4-library/lpc_chip_11cxx_lib/inc/core_cm0.h **** #define __FPU_USED       0
ARM GAS  /var/folders/z0/6xlwn_996xz3mwq1cgzkbq4r0000gp/T//ccmGTjkW.s 			page 6


  89:../../lib/lpc11cx4-library/lpc_chip_11cxx_lib/inc/core_cm0.h **** 
  90:../../lib/lpc11cx4-library/lpc_chip_11cxx_lib/inc/core_cm0.h **** #if defined ( __CC_ARM )
  91:../../lib/lpc11cx4-library/lpc_chip_11cxx_lib/inc/core_cm0.h ****   #if defined __TARGET_FPU_VFP
  92:../../lib/lpc11cx4-library/lpc_chip_11cxx_lib/inc/core_cm0.h ****     #warning "Compiler generates FPU instructions for a device without an FPU (check __FPU_PRESENT)
  93:../../lib/lpc11cx4-library/lpc_chip_11cxx_lib/inc/core_cm0.h ****   #endif
  94:../../lib/lpc11cx4-library/lpc_chip_11cxx_lib/inc/core_cm0.h **** 
  95:../../lib/lpc11cx4-library/lpc_chip_11cxx_lib/inc/core_cm0.h **** #elif defined ( __ICCARM__ )
  96:../../lib/lpc11cx4-library/lpc_chip_11cxx_lib/inc/core_cm0.h ****   #if defined __ARMVFP__
  97:../../lib/lpc11cx4-library/lpc_chip_11cxx_lib/inc/core_cm0.h ****     #warning "Compiler generates FPU instructions for a device without an FPU (check __FPU_PRESENT)
  98:../../lib/lpc11cx4-library/lpc_chip_11cxx_lib/inc/core_cm0.h ****   #endif
  99:../../lib/lpc11cx4-library/lpc_chip_11cxx_lib/inc/core_cm0.h **** 
 100:../../lib/lpc11cx4-library/lpc_chip_11cxx_lib/inc/core_cm0.h **** #elif defined ( __GNUC__ )
 101:../../lib/lpc11cx4-library/lpc_chip_11cxx_lib/inc/core_cm0.h ****   #if defined (__VFP_FP__) && !defined(__SOFTFP__)
 102:../../lib/lpc11cx4-library/lpc_chip_11cxx_lib/inc/core_cm0.h ****     #warning "Compiler generates FPU instructions for a device without an FPU (check __FPU_PRESENT)
 103:../../lib/lpc11cx4-library/lpc_chip_11cxx_lib/inc/core_cm0.h ****   #endif
 104:../../lib/lpc11cx4-library/lpc_chip_11cxx_lib/inc/core_cm0.h **** 
 105:../../lib/lpc11cx4-library/lpc_chip_11cxx_lib/inc/core_cm0.h **** #elif defined ( __TASKING__ )
 106:../../lib/lpc11cx4-library/lpc_chip_11cxx_lib/inc/core_cm0.h ****   #if defined __FPU_VFP__
 107:../../lib/lpc11cx4-library/lpc_chip_11cxx_lib/inc/core_cm0.h ****     #error "Compiler generates FPU instructions for a device without an FPU (check __FPU_PRESENT)"
 108:../../lib/lpc11cx4-library/lpc_chip_11cxx_lib/inc/core_cm0.h ****   #endif
 109:../../lib/lpc11cx4-library/lpc_chip_11cxx_lib/inc/core_cm0.h **** #endif
 110:../../lib/lpc11cx4-library/lpc_chip_11cxx_lib/inc/core_cm0.h **** 
 111:../../lib/lpc11cx4-library/lpc_chip_11cxx_lib/inc/core_cm0.h **** #include <stdint.h>                      /* standard types definitions                      */
 112:../../lib/lpc11cx4-library/lpc_chip_11cxx_lib/inc/core_cm0.h **** #include <core_cmInstr.h>                /* Core Instruction Access                         */
 113:../../lib/lpc11cx4-library/lpc_chip_11cxx_lib/inc/core_cm0.h **** #include <core_cmFunc.h>                 /* Core Function Access                            */
 114:../../lib/lpc11cx4-library/lpc_chip_11cxx_lib/inc/core_cm0.h **** 
 115:../../lib/lpc11cx4-library/lpc_chip_11cxx_lib/inc/core_cm0.h **** #endif /* __CORE_CM0_H_GENERIC */
 116:../../lib/lpc11cx4-library/lpc_chip_11cxx_lib/inc/core_cm0.h **** 
 117:../../lib/lpc11cx4-library/lpc_chip_11cxx_lib/inc/core_cm0.h **** #ifndef __CMSIS_GENERIC
 118:../../lib/lpc11cx4-library/lpc_chip_11cxx_lib/inc/core_cm0.h **** 
 119:../../lib/lpc11cx4-library/lpc_chip_11cxx_lib/inc/core_cm0.h **** #ifndef __CORE_CM0_H_DEPENDANT
 120:../../lib/lpc11cx4-library/lpc_chip_11cxx_lib/inc/core_cm0.h **** #define __CORE_CM0_H_DEPENDANT
 121:../../lib/lpc11cx4-library/lpc_chip_11cxx_lib/inc/core_cm0.h **** 
 122:../../lib/lpc11cx4-library/lpc_chip_11cxx_lib/inc/core_cm0.h **** /* check device defines and use defaults */
 123:../../lib/lpc11cx4-library/lpc_chip_11cxx_lib/inc/core_cm0.h **** #if defined __CHECK_DEVICE_DEFINES
 124:../../lib/lpc11cx4-library/lpc_chip_11cxx_lib/inc/core_cm0.h ****   #ifndef __CM0_REV
 125:../../lib/lpc11cx4-library/lpc_chip_11cxx_lib/inc/core_cm0.h ****     #define __CM0_REV               0x0000
 126:../../lib/lpc11cx4-library/lpc_chip_11cxx_lib/inc/core_cm0.h ****     #warning "__CM0_REV not defined in device header file; using default!"
 127:../../lib/lpc11cx4-library/lpc_chip_11cxx_lib/inc/core_cm0.h ****   #endif
 128:../../lib/lpc11cx4-library/lpc_chip_11cxx_lib/inc/core_cm0.h **** 
 129:../../lib/lpc11cx4-library/lpc_chip_11cxx_lib/inc/core_cm0.h ****   #ifndef __NVIC_PRIO_BITS
 130:../../lib/lpc11cx4-library/lpc_chip_11cxx_lib/inc/core_cm0.h ****     #define __NVIC_PRIO_BITS          2
 131:../../lib/lpc11cx4-library/lpc_chip_11cxx_lib/inc/core_cm0.h ****     #warning "__NVIC_PRIO_BITS not defined in device header file; using default!"
 132:../../lib/lpc11cx4-library/lpc_chip_11cxx_lib/inc/core_cm0.h ****   #endif
 133:../../lib/lpc11cx4-library/lpc_chip_11cxx_lib/inc/core_cm0.h **** 
 134:../../lib/lpc11cx4-library/lpc_chip_11cxx_lib/inc/core_cm0.h ****   #ifndef __Vendor_SysTickConfig
 135:../../lib/lpc11cx4-library/lpc_chip_11cxx_lib/inc/core_cm0.h ****     #define __Vendor_SysTickConfig    0
 136:../../lib/lpc11cx4-library/lpc_chip_11cxx_lib/inc/core_cm0.h ****     #warning "__Vendor_SysTickConfig not defined in device header file; using default!"
 137:../../lib/lpc11cx4-library/lpc_chip_11cxx_lib/inc/core_cm0.h ****   #endif
 138:../../lib/lpc11cx4-library/lpc_chip_11cxx_lib/inc/core_cm0.h **** #endif
 139:../../lib/lpc11cx4-library/lpc_chip_11cxx_lib/inc/core_cm0.h **** 
 140:../../lib/lpc11cx4-library/lpc_chip_11cxx_lib/inc/core_cm0.h **** /* IO definitions (access restrictions to peripheral registers) */
 141:../../lib/lpc11cx4-library/lpc_chip_11cxx_lib/inc/core_cm0.h **** /**
 142:../../lib/lpc11cx4-library/lpc_chip_11cxx_lib/inc/core_cm0.h ****     \defgroup CMSIS_glob_defs CMSIS Global Defines
 143:../../lib/lpc11cx4-library/lpc_chip_11cxx_lib/inc/core_cm0.h **** 
 144:../../lib/lpc11cx4-library/lpc_chip_11cxx_lib/inc/core_cm0.h ****     <strong>IO Type Qualifiers</strong> are used
 145:../../lib/lpc11cx4-library/lpc_chip_11cxx_lib/inc/core_cm0.h ****     \li to specify the access to peripheral variables.
ARM GAS  /var/folders/z0/6xlwn_996xz3mwq1cgzkbq4r0000gp/T//ccmGTjkW.s 			page 7


 146:../../lib/lpc11cx4-library/lpc_chip_11cxx_lib/inc/core_cm0.h ****     \li for automatic generation of peripheral register debug information.
 147:../../lib/lpc11cx4-library/lpc_chip_11cxx_lib/inc/core_cm0.h **** */
 148:../../lib/lpc11cx4-library/lpc_chip_11cxx_lib/inc/core_cm0.h **** #ifdef __cplusplus
 149:../../lib/lpc11cx4-library/lpc_chip_11cxx_lib/inc/core_cm0.h ****   #define   __I     volatile             /*!< Defines 'read only' permissions                 */
 150:../../lib/lpc11cx4-library/lpc_chip_11cxx_lib/inc/core_cm0.h **** #else
 151:../../lib/lpc11cx4-library/lpc_chip_11cxx_lib/inc/core_cm0.h ****   #define   __I     volatile const       /*!< Defines 'read only' permissions                 */
 152:../../lib/lpc11cx4-library/lpc_chip_11cxx_lib/inc/core_cm0.h **** #endif
 153:../../lib/lpc11cx4-library/lpc_chip_11cxx_lib/inc/core_cm0.h **** #define     __O     volatile             /*!< Defines 'write only' permissions                */
 154:../../lib/lpc11cx4-library/lpc_chip_11cxx_lib/inc/core_cm0.h **** #define     __IO    volatile             /*!< Defines 'read / write' permissions              */
 155:../../lib/lpc11cx4-library/lpc_chip_11cxx_lib/inc/core_cm0.h **** 
 156:../../lib/lpc11cx4-library/lpc_chip_11cxx_lib/inc/core_cm0.h **** /*@} end of group Cortex_M0 */
 157:../../lib/lpc11cx4-library/lpc_chip_11cxx_lib/inc/core_cm0.h **** 
 158:../../lib/lpc11cx4-library/lpc_chip_11cxx_lib/inc/core_cm0.h **** 
 159:../../lib/lpc11cx4-library/lpc_chip_11cxx_lib/inc/core_cm0.h **** 
 160:../../lib/lpc11cx4-library/lpc_chip_11cxx_lib/inc/core_cm0.h **** /*******************************************************************************
 161:../../lib/lpc11cx4-library/lpc_chip_11cxx_lib/inc/core_cm0.h ****  *                 Register Abstraction
 162:../../lib/lpc11cx4-library/lpc_chip_11cxx_lib/inc/core_cm0.h ****   Core Register contain:
 163:../../lib/lpc11cx4-library/lpc_chip_11cxx_lib/inc/core_cm0.h ****   - Core Register
 164:../../lib/lpc11cx4-library/lpc_chip_11cxx_lib/inc/core_cm0.h ****   - Core NVIC Register
 165:../../lib/lpc11cx4-library/lpc_chip_11cxx_lib/inc/core_cm0.h ****   - Core SCB Register
 166:../../lib/lpc11cx4-library/lpc_chip_11cxx_lib/inc/core_cm0.h ****   - Core SysTick Register
 167:../../lib/lpc11cx4-library/lpc_chip_11cxx_lib/inc/core_cm0.h ****  ******************************************************************************/
 168:../../lib/lpc11cx4-library/lpc_chip_11cxx_lib/inc/core_cm0.h **** /** \defgroup CMSIS_core_register Defines and Type Definitions
 169:../../lib/lpc11cx4-library/lpc_chip_11cxx_lib/inc/core_cm0.h ****     \brief Type definitions and defines for Cortex-M processor based devices.
 170:../../lib/lpc11cx4-library/lpc_chip_11cxx_lib/inc/core_cm0.h **** */
 171:../../lib/lpc11cx4-library/lpc_chip_11cxx_lib/inc/core_cm0.h **** 
 172:../../lib/lpc11cx4-library/lpc_chip_11cxx_lib/inc/core_cm0.h **** /** \ingroup    CMSIS_core_register
 173:../../lib/lpc11cx4-library/lpc_chip_11cxx_lib/inc/core_cm0.h ****     \defgroup   CMSIS_CORE  Status and Control Registers
 174:../../lib/lpc11cx4-library/lpc_chip_11cxx_lib/inc/core_cm0.h ****     \brief  Core Register type definitions.
 175:../../lib/lpc11cx4-library/lpc_chip_11cxx_lib/inc/core_cm0.h ****   @{
 176:../../lib/lpc11cx4-library/lpc_chip_11cxx_lib/inc/core_cm0.h ****  */
 177:../../lib/lpc11cx4-library/lpc_chip_11cxx_lib/inc/core_cm0.h **** 
 178:../../lib/lpc11cx4-library/lpc_chip_11cxx_lib/inc/core_cm0.h **** /** \brief  Union type to access the Application Program Status Register (APSR).
 179:../../lib/lpc11cx4-library/lpc_chip_11cxx_lib/inc/core_cm0.h ****  */
 180:../../lib/lpc11cx4-library/lpc_chip_11cxx_lib/inc/core_cm0.h **** typedef union
 181:../../lib/lpc11cx4-library/lpc_chip_11cxx_lib/inc/core_cm0.h **** {
 182:../../lib/lpc11cx4-library/lpc_chip_11cxx_lib/inc/core_cm0.h ****   struct
 183:../../lib/lpc11cx4-library/lpc_chip_11cxx_lib/inc/core_cm0.h ****   {
 184:../../lib/lpc11cx4-library/lpc_chip_11cxx_lib/inc/core_cm0.h **** #if (__CORTEX_M != 0x04)
 185:../../lib/lpc11cx4-library/lpc_chip_11cxx_lib/inc/core_cm0.h ****     uint32_t _reserved0:27;              /*!< bit:  0..26  Reserved                           */
 186:../../lib/lpc11cx4-library/lpc_chip_11cxx_lib/inc/core_cm0.h **** #else
 187:../../lib/lpc11cx4-library/lpc_chip_11cxx_lib/inc/core_cm0.h ****     uint32_t _reserved0:16;              /*!< bit:  0..15  Reserved                           */
 188:../../lib/lpc11cx4-library/lpc_chip_11cxx_lib/inc/core_cm0.h ****     uint32_t GE:4;                       /*!< bit: 16..19  Greater than or Equal flags        */
 189:../../lib/lpc11cx4-library/lpc_chip_11cxx_lib/inc/core_cm0.h ****     uint32_t _reserved1:7;               /*!< bit: 20..26  Reserved                           */
 190:../../lib/lpc11cx4-library/lpc_chip_11cxx_lib/inc/core_cm0.h **** #endif
 191:../../lib/lpc11cx4-library/lpc_chip_11cxx_lib/inc/core_cm0.h ****     uint32_t Q:1;                        /*!< bit:     27  Saturation condition flag          */
 192:../../lib/lpc11cx4-library/lpc_chip_11cxx_lib/inc/core_cm0.h ****     uint32_t V:1;                        /*!< bit:     28  Overflow condition code flag       */
 193:../../lib/lpc11cx4-library/lpc_chip_11cxx_lib/inc/core_cm0.h ****     uint32_t C:1;                        /*!< bit:     29  Carry condition code flag          */
 194:../../lib/lpc11cx4-library/lpc_chip_11cxx_lib/inc/core_cm0.h ****     uint32_t Z:1;                        /*!< bit:     30  Zero condition code flag           */
 195:../../lib/lpc11cx4-library/lpc_chip_11cxx_lib/inc/core_cm0.h ****     uint32_t N:1;                        /*!< bit:     31  Negative condition code flag       */
 196:../../lib/lpc11cx4-library/lpc_chip_11cxx_lib/inc/core_cm0.h ****   } b;                                   /*!< Structure used for bit  access                  */
 197:../../lib/lpc11cx4-library/lpc_chip_11cxx_lib/inc/core_cm0.h ****   uint32_t w;                            /*!< Type      used for word access                  */
 198:../../lib/lpc11cx4-library/lpc_chip_11cxx_lib/inc/core_cm0.h **** } APSR_Type;
 199:../../lib/lpc11cx4-library/lpc_chip_11cxx_lib/inc/core_cm0.h **** 
 200:../../lib/lpc11cx4-library/lpc_chip_11cxx_lib/inc/core_cm0.h **** 
 201:../../lib/lpc11cx4-library/lpc_chip_11cxx_lib/inc/core_cm0.h **** /** \brief  Union type to access the Interrupt Program Status Register (IPSR).
 202:../../lib/lpc11cx4-library/lpc_chip_11cxx_lib/inc/core_cm0.h ****  */
ARM GAS  /var/folders/z0/6xlwn_996xz3mwq1cgzkbq4r0000gp/T//ccmGTjkW.s 			page 8


 203:../../lib/lpc11cx4-library/lpc_chip_11cxx_lib/inc/core_cm0.h **** typedef union
 204:../../lib/lpc11cx4-library/lpc_chip_11cxx_lib/inc/core_cm0.h **** {
 205:../../lib/lpc11cx4-library/lpc_chip_11cxx_lib/inc/core_cm0.h ****   struct
 206:../../lib/lpc11cx4-library/lpc_chip_11cxx_lib/inc/core_cm0.h ****   {
 207:../../lib/lpc11cx4-library/lpc_chip_11cxx_lib/inc/core_cm0.h ****     uint32_t ISR:9;                      /*!< bit:  0.. 8  Exception number                   */
 208:../../lib/lpc11cx4-library/lpc_chip_11cxx_lib/inc/core_cm0.h ****     uint32_t _reserved0:23;              /*!< bit:  9..31  Reserved                           */
 209:../../lib/lpc11cx4-library/lpc_chip_11cxx_lib/inc/core_cm0.h ****   } b;                                   /*!< Structure used for bit  access                  */
 210:../../lib/lpc11cx4-library/lpc_chip_11cxx_lib/inc/core_cm0.h ****   uint32_t w;                            /*!< Type      used for word access                  */
 211:../../lib/lpc11cx4-library/lpc_chip_11cxx_lib/inc/core_cm0.h **** } IPSR_Type;
 212:../../lib/lpc11cx4-library/lpc_chip_11cxx_lib/inc/core_cm0.h **** 
 213:../../lib/lpc11cx4-library/lpc_chip_11cxx_lib/inc/core_cm0.h **** 
 214:../../lib/lpc11cx4-library/lpc_chip_11cxx_lib/inc/core_cm0.h **** /** \brief  Union type to access the Special-Purpose Program Status Registers (xPSR).
 215:../../lib/lpc11cx4-library/lpc_chip_11cxx_lib/inc/core_cm0.h ****  */
 216:../../lib/lpc11cx4-library/lpc_chip_11cxx_lib/inc/core_cm0.h **** typedef union
 217:../../lib/lpc11cx4-library/lpc_chip_11cxx_lib/inc/core_cm0.h **** {
 218:../../lib/lpc11cx4-library/lpc_chip_11cxx_lib/inc/core_cm0.h ****   struct
 219:../../lib/lpc11cx4-library/lpc_chip_11cxx_lib/inc/core_cm0.h ****   {
 220:../../lib/lpc11cx4-library/lpc_chip_11cxx_lib/inc/core_cm0.h ****     uint32_t ISR:9;                      /*!< bit:  0.. 8  Exception number                   */
 221:../../lib/lpc11cx4-library/lpc_chip_11cxx_lib/inc/core_cm0.h **** #if (__CORTEX_M != 0x04)
 222:../../lib/lpc11cx4-library/lpc_chip_11cxx_lib/inc/core_cm0.h ****     uint32_t _reserved0:15;              /*!< bit:  9..23  Reserved                           */
 223:../../lib/lpc11cx4-library/lpc_chip_11cxx_lib/inc/core_cm0.h **** #else
 224:../../lib/lpc11cx4-library/lpc_chip_11cxx_lib/inc/core_cm0.h ****     uint32_t _reserved0:7;               /*!< bit:  9..15  Reserved                           */
 225:../../lib/lpc11cx4-library/lpc_chip_11cxx_lib/inc/core_cm0.h ****     uint32_t GE:4;                       /*!< bit: 16..19  Greater than or Equal flags        */
 226:../../lib/lpc11cx4-library/lpc_chip_11cxx_lib/inc/core_cm0.h ****     uint32_t _reserved1:4;               /*!< bit: 20..23  Reserved                           */
 227:../../lib/lpc11cx4-library/lpc_chip_11cxx_lib/inc/core_cm0.h **** #endif
 228:../../lib/lpc11cx4-library/lpc_chip_11cxx_lib/inc/core_cm0.h ****     uint32_t T:1;                        /*!< bit:     24  Thumb bit        (read 0)          */
 229:../../lib/lpc11cx4-library/lpc_chip_11cxx_lib/inc/core_cm0.h ****     uint32_t IT:2;                       /*!< bit: 25..26  saved IT state   (read 0)          */
 230:../../lib/lpc11cx4-library/lpc_chip_11cxx_lib/inc/core_cm0.h ****     uint32_t Q:1;                        /*!< bit:     27  Saturation condition flag          */
 231:../../lib/lpc11cx4-library/lpc_chip_11cxx_lib/inc/core_cm0.h ****     uint32_t V:1;                        /*!< bit:     28  Overflow condition code flag       */
 232:../../lib/lpc11cx4-library/lpc_chip_11cxx_lib/inc/core_cm0.h ****     uint32_t C:1;                        /*!< bit:     29  Carry condition code flag          */
 233:../../lib/lpc11cx4-library/lpc_chip_11cxx_lib/inc/core_cm0.h ****     uint32_t Z:1;                        /*!< bit:     30  Zero condition code flag           */
 234:../../lib/lpc11cx4-library/lpc_chip_11cxx_lib/inc/core_cm0.h ****     uint32_t N:1;                        /*!< bit:     31  Negative condition code flag       */
 235:../../lib/lpc11cx4-library/lpc_chip_11cxx_lib/inc/core_cm0.h ****   } b;                                   /*!< Structure used for bit  access                  */
 236:../../lib/lpc11cx4-library/lpc_chip_11cxx_lib/inc/core_cm0.h ****   uint32_t w;                            /*!< Type      used for word access                  */
 237:../../lib/lpc11cx4-library/lpc_chip_11cxx_lib/inc/core_cm0.h **** } xPSR_Type;
 238:../../lib/lpc11cx4-library/lpc_chip_11cxx_lib/inc/core_cm0.h **** 
 239:../../lib/lpc11cx4-library/lpc_chip_11cxx_lib/inc/core_cm0.h **** 
 240:../../lib/lpc11cx4-library/lpc_chip_11cxx_lib/inc/core_cm0.h **** /** \brief  Union type to access the Control Registers (CONTROL).
 241:../../lib/lpc11cx4-library/lpc_chip_11cxx_lib/inc/core_cm0.h ****  */
 242:../../lib/lpc11cx4-library/lpc_chip_11cxx_lib/inc/core_cm0.h **** typedef union
 243:../../lib/lpc11cx4-library/lpc_chip_11cxx_lib/inc/core_cm0.h **** {
 244:../../lib/lpc11cx4-library/lpc_chip_11cxx_lib/inc/core_cm0.h ****   struct
 245:../../lib/lpc11cx4-library/lpc_chip_11cxx_lib/inc/core_cm0.h ****   {
 246:../../lib/lpc11cx4-library/lpc_chip_11cxx_lib/inc/core_cm0.h ****     uint32_t nPRIV:1;                    /*!< bit:      0  Execution privilege in Thread mode */
 247:../../lib/lpc11cx4-library/lpc_chip_11cxx_lib/inc/core_cm0.h ****     uint32_t SPSEL:1;                    /*!< bit:      1  Stack to be used                   */
 248:../../lib/lpc11cx4-library/lpc_chip_11cxx_lib/inc/core_cm0.h ****     uint32_t FPCA:1;                     /*!< bit:      2  FP extension active flag           */
 249:../../lib/lpc11cx4-library/lpc_chip_11cxx_lib/inc/core_cm0.h ****     uint32_t _reserved0:29;              /*!< bit:  3..31  Reserved                           */
 250:../../lib/lpc11cx4-library/lpc_chip_11cxx_lib/inc/core_cm0.h ****   } b;                                   /*!< Structure used for bit  access                  */
 251:../../lib/lpc11cx4-library/lpc_chip_11cxx_lib/inc/core_cm0.h ****   uint32_t w;                            /*!< Type      used for word access                  */
 252:../../lib/lpc11cx4-library/lpc_chip_11cxx_lib/inc/core_cm0.h **** } CONTROL_Type;
 253:../../lib/lpc11cx4-library/lpc_chip_11cxx_lib/inc/core_cm0.h **** 
 254:../../lib/lpc11cx4-library/lpc_chip_11cxx_lib/inc/core_cm0.h **** /*@} end of group CMSIS_CORE */
 255:../../lib/lpc11cx4-library/lpc_chip_11cxx_lib/inc/core_cm0.h **** 
 256:../../lib/lpc11cx4-library/lpc_chip_11cxx_lib/inc/core_cm0.h **** 
 257:../../lib/lpc11cx4-library/lpc_chip_11cxx_lib/inc/core_cm0.h **** /** \ingroup    CMSIS_core_register
 258:../../lib/lpc11cx4-library/lpc_chip_11cxx_lib/inc/core_cm0.h ****     \defgroup   CMSIS_NVIC  Nested Vectored Interrupt Controller (NVIC)
 259:../../lib/lpc11cx4-library/lpc_chip_11cxx_lib/inc/core_cm0.h ****     \brief      Type definitions for the NVIC Registers
ARM GAS  /var/folders/z0/6xlwn_996xz3mwq1cgzkbq4r0000gp/T//ccmGTjkW.s 			page 9


 260:../../lib/lpc11cx4-library/lpc_chip_11cxx_lib/inc/core_cm0.h ****   @{
 261:../../lib/lpc11cx4-library/lpc_chip_11cxx_lib/inc/core_cm0.h ****  */
 262:../../lib/lpc11cx4-library/lpc_chip_11cxx_lib/inc/core_cm0.h **** 
 263:../../lib/lpc11cx4-library/lpc_chip_11cxx_lib/inc/core_cm0.h **** /** \brief  Structure type to access the Nested Vectored Interrupt Controller (NVIC).
 264:../../lib/lpc11cx4-library/lpc_chip_11cxx_lib/inc/core_cm0.h ****  */
 265:../../lib/lpc11cx4-library/lpc_chip_11cxx_lib/inc/core_cm0.h **** typedef struct
 266:../../lib/lpc11cx4-library/lpc_chip_11cxx_lib/inc/core_cm0.h **** {
 267:../../lib/lpc11cx4-library/lpc_chip_11cxx_lib/inc/core_cm0.h ****   __IO uint32_t ISER[1];                 /*!< Offset: 0x000 (R/W)  Interrupt Set Enable Register   
 268:../../lib/lpc11cx4-library/lpc_chip_11cxx_lib/inc/core_cm0.h ****        uint32_t RESERVED0[31];
 269:../../lib/lpc11cx4-library/lpc_chip_11cxx_lib/inc/core_cm0.h ****   __IO uint32_t ICER[1];                 /*!< Offset: 0x080 (R/W)  Interrupt Clear Enable Register 
 270:../../lib/lpc11cx4-library/lpc_chip_11cxx_lib/inc/core_cm0.h ****        uint32_t RSERVED1[31];
 271:../../lib/lpc11cx4-library/lpc_chip_11cxx_lib/inc/core_cm0.h ****   __IO uint32_t ISPR[1];                 /*!< Offset: 0x100 (R/W)  Interrupt Set Pending Register  
 272:../../lib/lpc11cx4-library/lpc_chip_11cxx_lib/inc/core_cm0.h ****        uint32_t RESERVED2[31];
 273:../../lib/lpc11cx4-library/lpc_chip_11cxx_lib/inc/core_cm0.h ****   __IO uint32_t ICPR[1];                 /*!< Offset: 0x180 (R/W)  Interrupt Clear Pending Register
 274:../../lib/lpc11cx4-library/lpc_chip_11cxx_lib/inc/core_cm0.h ****        uint32_t RESERVED3[31];
 275:../../lib/lpc11cx4-library/lpc_chip_11cxx_lib/inc/core_cm0.h ****        uint32_t RESERVED4[64];
 276:../../lib/lpc11cx4-library/lpc_chip_11cxx_lib/inc/core_cm0.h ****   __IO uint32_t IP[8];                   /*!< Offset: 0x300 (R/W)  Interrupt Priority Register     
 277:../../lib/lpc11cx4-library/lpc_chip_11cxx_lib/inc/core_cm0.h **** }  NVIC_Type;
 278:../../lib/lpc11cx4-library/lpc_chip_11cxx_lib/inc/core_cm0.h **** 
 279:../../lib/lpc11cx4-library/lpc_chip_11cxx_lib/inc/core_cm0.h **** /*@} end of group CMSIS_NVIC */
 280:../../lib/lpc11cx4-library/lpc_chip_11cxx_lib/inc/core_cm0.h **** 
 281:../../lib/lpc11cx4-library/lpc_chip_11cxx_lib/inc/core_cm0.h **** 
 282:../../lib/lpc11cx4-library/lpc_chip_11cxx_lib/inc/core_cm0.h **** /** \ingroup  CMSIS_core_register
 283:../../lib/lpc11cx4-library/lpc_chip_11cxx_lib/inc/core_cm0.h ****     \defgroup CMSIS_SCB     System Control Block (SCB)
 284:../../lib/lpc11cx4-library/lpc_chip_11cxx_lib/inc/core_cm0.h ****     \brief      Type definitions for the System Control Block Registers
 285:../../lib/lpc11cx4-library/lpc_chip_11cxx_lib/inc/core_cm0.h ****   @{
 286:../../lib/lpc11cx4-library/lpc_chip_11cxx_lib/inc/core_cm0.h ****  */
 287:../../lib/lpc11cx4-library/lpc_chip_11cxx_lib/inc/core_cm0.h **** 
 288:../../lib/lpc11cx4-library/lpc_chip_11cxx_lib/inc/core_cm0.h **** /** \brief  Structure type to access the System Control Block (SCB).
 289:../../lib/lpc11cx4-library/lpc_chip_11cxx_lib/inc/core_cm0.h ****  */
 290:../../lib/lpc11cx4-library/lpc_chip_11cxx_lib/inc/core_cm0.h **** typedef struct
 291:../../lib/lpc11cx4-library/lpc_chip_11cxx_lib/inc/core_cm0.h **** {
 292:../../lib/lpc11cx4-library/lpc_chip_11cxx_lib/inc/core_cm0.h ****   __I  uint32_t CPUID;                   /*!< Offset: 0x000 (R/ )  CPUID Base Register             
 293:../../lib/lpc11cx4-library/lpc_chip_11cxx_lib/inc/core_cm0.h ****   __IO uint32_t ICSR;                    /*!< Offset: 0x004 (R/W)  Interrupt Control and State Regi
 294:../../lib/lpc11cx4-library/lpc_chip_11cxx_lib/inc/core_cm0.h ****        uint32_t RESERVED0;
 295:../../lib/lpc11cx4-library/lpc_chip_11cxx_lib/inc/core_cm0.h ****   __IO uint32_t AIRCR;                   /*!< Offset: 0x00C (R/W)  Application Interrupt and Reset 
 296:../../lib/lpc11cx4-library/lpc_chip_11cxx_lib/inc/core_cm0.h ****   __IO uint32_t SCR;                     /*!< Offset: 0x010 (R/W)  System Control Register         
 297:../../lib/lpc11cx4-library/lpc_chip_11cxx_lib/inc/core_cm0.h ****   __IO uint32_t CCR;                     /*!< Offset: 0x014 (R/W)  Configuration Control Register  
 298:../../lib/lpc11cx4-library/lpc_chip_11cxx_lib/inc/core_cm0.h ****        uint32_t RESERVED1;
 299:../../lib/lpc11cx4-library/lpc_chip_11cxx_lib/inc/core_cm0.h ****   __IO uint32_t SHP[2];                  /*!< Offset: 0x01C (R/W)  System Handlers Priority Registe
 300:../../lib/lpc11cx4-library/lpc_chip_11cxx_lib/inc/core_cm0.h ****   __IO uint32_t SHCSR;                   /*!< Offset: 0x024 (R/W)  System Handler Control and State
 301:../../lib/lpc11cx4-library/lpc_chip_11cxx_lib/inc/core_cm0.h **** } SCB_Type;
 302:../../lib/lpc11cx4-library/lpc_chip_11cxx_lib/inc/core_cm0.h **** 
 303:../../lib/lpc11cx4-library/lpc_chip_11cxx_lib/inc/core_cm0.h **** /* SCB CPUID Register Definitions */
 304:../../lib/lpc11cx4-library/lpc_chip_11cxx_lib/inc/core_cm0.h **** #define SCB_CPUID_IMPLEMENTER_Pos          24                                             /*!< SCB 
 305:../../lib/lpc11cx4-library/lpc_chip_11cxx_lib/inc/core_cm0.h **** #define SCB_CPUID_IMPLEMENTER_Msk          (0xFFUL << SCB_CPUID_IMPLEMENTER_Pos)          /*!< SCB 
 306:../../lib/lpc11cx4-library/lpc_chip_11cxx_lib/inc/core_cm0.h **** 
 307:../../lib/lpc11cx4-library/lpc_chip_11cxx_lib/inc/core_cm0.h **** #define SCB_CPUID_VARIANT_Pos              20                                             /*!< SCB 
 308:../../lib/lpc11cx4-library/lpc_chip_11cxx_lib/inc/core_cm0.h **** #define SCB_CPUID_VARIANT_Msk              (0xFUL << SCB_CPUID_VARIANT_Pos)               /*!< SCB 
 309:../../lib/lpc11cx4-library/lpc_chip_11cxx_lib/inc/core_cm0.h **** 
 310:../../lib/lpc11cx4-library/lpc_chip_11cxx_lib/inc/core_cm0.h **** #define SCB_CPUID_ARCHITECTURE_Pos         16                                             /*!< SCB 
 311:../../lib/lpc11cx4-library/lpc_chip_11cxx_lib/inc/core_cm0.h **** #define SCB_CPUID_ARCHITECTURE_Msk         (0xFUL << SCB_CPUID_ARCHITECTURE_Pos)          /*!< SCB 
 312:../../lib/lpc11cx4-library/lpc_chip_11cxx_lib/inc/core_cm0.h **** 
 313:../../lib/lpc11cx4-library/lpc_chip_11cxx_lib/inc/core_cm0.h **** #define SCB_CPUID_PARTNO_Pos                4                                             /*!< SCB 
 314:../../lib/lpc11cx4-library/lpc_chip_11cxx_lib/inc/core_cm0.h **** #define SCB_CPUID_PARTNO_Msk               (0xFFFUL << SCB_CPUID_PARTNO_Pos)              /*!< SCB 
 315:../../lib/lpc11cx4-library/lpc_chip_11cxx_lib/inc/core_cm0.h **** 
 316:../../lib/lpc11cx4-library/lpc_chip_11cxx_lib/inc/core_cm0.h **** #define SCB_CPUID_REVISION_Pos              0                                             /*!< SCB 
ARM GAS  /var/folders/z0/6xlwn_996xz3mwq1cgzkbq4r0000gp/T//ccmGTjkW.s 			page 10


 317:../../lib/lpc11cx4-library/lpc_chip_11cxx_lib/inc/core_cm0.h **** #define SCB_CPUID_REVISION_Msk             (0xFUL << SCB_CPUID_REVISION_Pos)              /*!< SCB 
 318:../../lib/lpc11cx4-library/lpc_chip_11cxx_lib/inc/core_cm0.h **** 
 319:../../lib/lpc11cx4-library/lpc_chip_11cxx_lib/inc/core_cm0.h **** /* SCB Interrupt Control State Register Definitions */
 320:../../lib/lpc11cx4-library/lpc_chip_11cxx_lib/inc/core_cm0.h **** #define SCB_ICSR_NMIPENDSET_Pos            31                                             /*!< SCB 
 321:../../lib/lpc11cx4-library/lpc_chip_11cxx_lib/inc/core_cm0.h **** #define SCB_ICSR_NMIPENDSET_Msk            (1UL << SCB_ICSR_NMIPENDSET_Pos)               /*!< SCB 
 322:../../lib/lpc11cx4-library/lpc_chip_11cxx_lib/inc/core_cm0.h **** 
 323:../../lib/lpc11cx4-library/lpc_chip_11cxx_lib/inc/core_cm0.h **** #define SCB_ICSR_PENDSVSET_Pos             28                                             /*!< SCB 
 324:../../lib/lpc11cx4-library/lpc_chip_11cxx_lib/inc/core_cm0.h **** #define SCB_ICSR_PENDSVSET_Msk             (1UL << SCB_ICSR_PENDSVSET_Pos)                /*!< SCB 
 325:../../lib/lpc11cx4-library/lpc_chip_11cxx_lib/inc/core_cm0.h **** 
 326:../../lib/lpc11cx4-library/lpc_chip_11cxx_lib/inc/core_cm0.h **** #define SCB_ICSR_PENDSVCLR_Pos             27                                             /*!< SCB 
 327:../../lib/lpc11cx4-library/lpc_chip_11cxx_lib/inc/core_cm0.h **** #define SCB_ICSR_PENDSVCLR_Msk             (1UL << SCB_ICSR_PENDSVCLR_Pos)                /*!< SCB 
 328:../../lib/lpc11cx4-library/lpc_chip_11cxx_lib/inc/core_cm0.h **** 
 329:../../lib/lpc11cx4-library/lpc_chip_11cxx_lib/inc/core_cm0.h **** #define SCB_ICSR_PENDSTSET_Pos             26                                             /*!< SCB 
 330:../../lib/lpc11cx4-library/lpc_chip_11cxx_lib/inc/core_cm0.h **** #define SCB_ICSR_PENDSTSET_Msk             (1UL << SCB_ICSR_PENDSTSET_Pos)                /*!< SCB 
 331:../../lib/lpc11cx4-library/lpc_chip_11cxx_lib/inc/core_cm0.h **** 
 332:../../lib/lpc11cx4-library/lpc_chip_11cxx_lib/inc/core_cm0.h **** #define SCB_ICSR_PENDSTCLR_Pos             25                                             /*!< SCB 
 333:../../lib/lpc11cx4-library/lpc_chip_11cxx_lib/inc/core_cm0.h **** #define SCB_ICSR_PENDSTCLR_Msk             (1UL << SCB_ICSR_PENDSTCLR_Pos)                /*!< SCB 
 334:../../lib/lpc11cx4-library/lpc_chip_11cxx_lib/inc/core_cm0.h **** 
 335:../../lib/lpc11cx4-library/lpc_chip_11cxx_lib/inc/core_cm0.h **** #define SCB_ICSR_ISRPREEMPT_Pos            23                                             /*!< SCB 
 336:../../lib/lpc11cx4-library/lpc_chip_11cxx_lib/inc/core_cm0.h **** #define SCB_ICSR_ISRPREEMPT_Msk            (1UL << SCB_ICSR_ISRPREEMPT_Pos)               /*!< SCB 
 337:../../lib/lpc11cx4-library/lpc_chip_11cxx_lib/inc/core_cm0.h **** 
 338:../../lib/lpc11cx4-library/lpc_chip_11cxx_lib/inc/core_cm0.h **** #define SCB_ICSR_ISRPENDING_Pos            22                                             /*!< SCB 
 339:../../lib/lpc11cx4-library/lpc_chip_11cxx_lib/inc/core_cm0.h **** #define SCB_ICSR_ISRPENDING_Msk            (1UL << SCB_ICSR_ISRPENDING_Pos)               /*!< SCB 
 340:../../lib/lpc11cx4-library/lpc_chip_11cxx_lib/inc/core_cm0.h **** 
 341:../../lib/lpc11cx4-library/lpc_chip_11cxx_lib/inc/core_cm0.h **** #define SCB_ICSR_VECTPENDING_Pos           12                                             /*!< SCB 
 342:../../lib/lpc11cx4-library/lpc_chip_11cxx_lib/inc/core_cm0.h **** #define SCB_ICSR_VECTPENDING_Msk           (0x1FFUL << SCB_ICSR_VECTPENDING_Pos)          /*!< SCB 
 343:../../lib/lpc11cx4-library/lpc_chip_11cxx_lib/inc/core_cm0.h **** 
 344:../../lib/lpc11cx4-library/lpc_chip_11cxx_lib/inc/core_cm0.h **** #define SCB_ICSR_VECTACTIVE_Pos             0                                             /*!< SCB 
 345:../../lib/lpc11cx4-library/lpc_chip_11cxx_lib/inc/core_cm0.h **** #define SCB_ICSR_VECTACTIVE_Msk            (0x1FFUL << SCB_ICSR_VECTACTIVE_Pos)           /*!< SCB 
 346:../../lib/lpc11cx4-library/lpc_chip_11cxx_lib/inc/core_cm0.h **** 
 347:../../lib/lpc11cx4-library/lpc_chip_11cxx_lib/inc/core_cm0.h **** /* SCB Application Interrupt and Reset Control Register Definitions */
 348:../../lib/lpc11cx4-library/lpc_chip_11cxx_lib/inc/core_cm0.h **** #define SCB_AIRCR_VECTKEY_Pos              16                                             /*!< SCB 
 349:../../lib/lpc11cx4-library/lpc_chip_11cxx_lib/inc/core_cm0.h **** #define SCB_AIRCR_VECTKEY_Msk              (0xFFFFUL << SCB_AIRCR_VECTKEY_Pos)            /*!< SCB 
 350:../../lib/lpc11cx4-library/lpc_chip_11cxx_lib/inc/core_cm0.h **** 
 351:../../lib/lpc11cx4-library/lpc_chip_11cxx_lib/inc/core_cm0.h **** #define SCB_AIRCR_VECTKEYSTAT_Pos          16                                             /*!< SCB 
 352:../../lib/lpc11cx4-library/lpc_chip_11cxx_lib/inc/core_cm0.h **** #define SCB_AIRCR_VECTKEYSTAT_Msk          (0xFFFFUL << SCB_AIRCR_VECTKEYSTAT_Pos)        /*!< SCB 
 353:../../lib/lpc11cx4-library/lpc_chip_11cxx_lib/inc/core_cm0.h **** 
 354:../../lib/lpc11cx4-library/lpc_chip_11cxx_lib/inc/core_cm0.h **** #define SCB_AIRCR_ENDIANESS_Pos            15                                             /*!< SCB 
 355:../../lib/lpc11cx4-library/lpc_chip_11cxx_lib/inc/core_cm0.h **** #define SCB_AIRCR_ENDIANESS_Msk            (1UL << SCB_AIRCR_ENDIANESS_Pos)               /*!< SCB 
 356:../../lib/lpc11cx4-library/lpc_chip_11cxx_lib/inc/core_cm0.h **** 
 357:../../lib/lpc11cx4-library/lpc_chip_11cxx_lib/inc/core_cm0.h **** #define SCB_AIRCR_SYSRESETREQ_Pos           2                                             /*!< SCB 
 358:../../lib/lpc11cx4-library/lpc_chip_11cxx_lib/inc/core_cm0.h **** #define SCB_AIRCR_SYSRESETREQ_Msk          (1UL << SCB_AIRCR_SYSRESETREQ_Pos)             /*!< SCB 
 359:../../lib/lpc11cx4-library/lpc_chip_11cxx_lib/inc/core_cm0.h **** 
 360:../../lib/lpc11cx4-library/lpc_chip_11cxx_lib/inc/core_cm0.h **** #define SCB_AIRCR_VECTCLRACTIVE_Pos         1                                             /*!< SCB 
 361:../../lib/lpc11cx4-library/lpc_chip_11cxx_lib/inc/core_cm0.h **** #define SCB_AIRCR_VECTCLRACTIVE_Msk        (1UL << SCB_AIRCR_VECTCLRACTIVE_Pos)           /*!< SCB 
 362:../../lib/lpc11cx4-library/lpc_chip_11cxx_lib/inc/core_cm0.h **** 
 363:../../lib/lpc11cx4-library/lpc_chip_11cxx_lib/inc/core_cm0.h **** /* SCB System Control Register Definitions */
 364:../../lib/lpc11cx4-library/lpc_chip_11cxx_lib/inc/core_cm0.h **** #define SCB_SCR_SEVONPEND_Pos               4                                             /*!< SCB 
 365:../../lib/lpc11cx4-library/lpc_chip_11cxx_lib/inc/core_cm0.h **** #define SCB_SCR_SEVONPEND_Msk              (1UL << SCB_SCR_SEVONPEND_Pos)                 /*!< SCB 
 366:../../lib/lpc11cx4-library/lpc_chip_11cxx_lib/inc/core_cm0.h **** 
 367:../../lib/lpc11cx4-library/lpc_chip_11cxx_lib/inc/core_cm0.h **** #define SCB_SCR_SLEEPDEEP_Pos               2                                             /*!< SCB 
 368:../../lib/lpc11cx4-library/lpc_chip_11cxx_lib/inc/core_cm0.h **** #define SCB_SCR_SLEEPDEEP_Msk              (1UL << SCB_SCR_SLEEPDEEP_Pos)                 /*!< SCB 
 369:../../lib/lpc11cx4-library/lpc_chip_11cxx_lib/inc/core_cm0.h **** 
 370:../../lib/lpc11cx4-library/lpc_chip_11cxx_lib/inc/core_cm0.h **** #define SCB_SCR_SLEEPONEXIT_Pos             1                                             /*!< SCB 
 371:../../lib/lpc11cx4-library/lpc_chip_11cxx_lib/inc/core_cm0.h **** #define SCB_SCR_SLEEPONEXIT_Msk            (1UL << SCB_SCR_SLEEPONEXIT_Pos)               /*!< SCB 
 372:../../lib/lpc11cx4-library/lpc_chip_11cxx_lib/inc/core_cm0.h **** 
 373:../../lib/lpc11cx4-library/lpc_chip_11cxx_lib/inc/core_cm0.h **** /* SCB Configuration Control Register Definitions */
ARM GAS  /var/folders/z0/6xlwn_996xz3mwq1cgzkbq4r0000gp/T//ccmGTjkW.s 			page 11


 374:../../lib/lpc11cx4-library/lpc_chip_11cxx_lib/inc/core_cm0.h **** #define SCB_CCR_STKALIGN_Pos                9                                             /*!< SCB 
 375:../../lib/lpc11cx4-library/lpc_chip_11cxx_lib/inc/core_cm0.h **** #define SCB_CCR_STKALIGN_Msk               (1UL << SCB_CCR_STKALIGN_Pos)                  /*!< SCB 
 376:../../lib/lpc11cx4-library/lpc_chip_11cxx_lib/inc/core_cm0.h **** 
 377:../../lib/lpc11cx4-library/lpc_chip_11cxx_lib/inc/core_cm0.h **** #define SCB_CCR_UNALIGN_TRP_Pos             3                                             /*!< SCB 
 378:../../lib/lpc11cx4-library/lpc_chip_11cxx_lib/inc/core_cm0.h **** #define SCB_CCR_UNALIGN_TRP_Msk            (1UL << SCB_CCR_UNALIGN_TRP_Pos)               /*!< SCB 
 379:../../lib/lpc11cx4-library/lpc_chip_11cxx_lib/inc/core_cm0.h **** 
 380:../../lib/lpc11cx4-library/lpc_chip_11cxx_lib/inc/core_cm0.h **** /* SCB System Handler Control and State Register Definitions */
 381:../../lib/lpc11cx4-library/lpc_chip_11cxx_lib/inc/core_cm0.h **** #define SCB_SHCSR_SVCALLPENDED_Pos         15                                             /*!< SCB 
 382:../../lib/lpc11cx4-library/lpc_chip_11cxx_lib/inc/core_cm0.h **** #define SCB_SHCSR_SVCALLPENDED_Msk         (1UL << SCB_SHCSR_SVCALLPENDED_Pos)            /*!< SCB 
 383:../../lib/lpc11cx4-library/lpc_chip_11cxx_lib/inc/core_cm0.h **** 
 384:../../lib/lpc11cx4-library/lpc_chip_11cxx_lib/inc/core_cm0.h **** /*@} end of group CMSIS_SCB */
 385:../../lib/lpc11cx4-library/lpc_chip_11cxx_lib/inc/core_cm0.h **** 
 386:../../lib/lpc11cx4-library/lpc_chip_11cxx_lib/inc/core_cm0.h **** 
 387:../../lib/lpc11cx4-library/lpc_chip_11cxx_lib/inc/core_cm0.h **** /** \ingroup  CMSIS_core_register
 388:../../lib/lpc11cx4-library/lpc_chip_11cxx_lib/inc/core_cm0.h ****     \defgroup CMSIS_SysTick     System Tick Timer (SysTick)
 389:../../lib/lpc11cx4-library/lpc_chip_11cxx_lib/inc/core_cm0.h ****     \brief      Type definitions for the System Timer Registers.
 390:../../lib/lpc11cx4-library/lpc_chip_11cxx_lib/inc/core_cm0.h ****   @{
 391:../../lib/lpc11cx4-library/lpc_chip_11cxx_lib/inc/core_cm0.h ****  */
 392:../../lib/lpc11cx4-library/lpc_chip_11cxx_lib/inc/core_cm0.h **** 
 393:../../lib/lpc11cx4-library/lpc_chip_11cxx_lib/inc/core_cm0.h **** /** \brief  Structure type to access the System Timer (SysTick).
 394:../../lib/lpc11cx4-library/lpc_chip_11cxx_lib/inc/core_cm0.h ****  */
 395:../../lib/lpc11cx4-library/lpc_chip_11cxx_lib/inc/core_cm0.h **** typedef struct
 396:../../lib/lpc11cx4-library/lpc_chip_11cxx_lib/inc/core_cm0.h **** {
 397:../../lib/lpc11cx4-library/lpc_chip_11cxx_lib/inc/core_cm0.h ****   __IO uint32_t CTRL;                    /*!< Offset: 0x000 (R/W)  SysTick Control and Status Regis
 398:../../lib/lpc11cx4-library/lpc_chip_11cxx_lib/inc/core_cm0.h ****   __IO uint32_t LOAD;                    /*!< Offset: 0x004 (R/W)  SysTick Reload Value Register   
 399:../../lib/lpc11cx4-library/lpc_chip_11cxx_lib/inc/core_cm0.h ****   __IO uint32_t VAL;                     /*!< Offset: 0x008 (R/W)  SysTick Current Value Register  
 400:../../lib/lpc11cx4-library/lpc_chip_11cxx_lib/inc/core_cm0.h ****   __I  uint32_t CALIB;                   /*!< Offset: 0x00C (R/ )  SysTick Calibration Register    
 401:../../lib/lpc11cx4-library/lpc_chip_11cxx_lib/inc/core_cm0.h **** } SysTick_Type;
 402:../../lib/lpc11cx4-library/lpc_chip_11cxx_lib/inc/core_cm0.h **** 
 403:../../lib/lpc11cx4-library/lpc_chip_11cxx_lib/inc/core_cm0.h **** /* SysTick Control / Status Register Definitions */
 404:../../lib/lpc11cx4-library/lpc_chip_11cxx_lib/inc/core_cm0.h **** #define SysTick_CTRL_COUNTFLAG_Pos         16                                             /*!< SysT
 405:../../lib/lpc11cx4-library/lpc_chip_11cxx_lib/inc/core_cm0.h **** #define SysTick_CTRL_COUNTFLAG_Msk         (1UL << SysTick_CTRL_COUNTFLAG_Pos)            /*!< SysT
 406:../../lib/lpc11cx4-library/lpc_chip_11cxx_lib/inc/core_cm0.h **** 
 407:../../lib/lpc11cx4-library/lpc_chip_11cxx_lib/inc/core_cm0.h **** #define SysTick_CTRL_CLKSOURCE_Pos          2                                             /*!< SysT
 408:../../lib/lpc11cx4-library/lpc_chip_11cxx_lib/inc/core_cm0.h **** #define SysTick_CTRL_CLKSOURCE_Msk         (1UL << SysTick_CTRL_CLKSOURCE_Pos)            /*!< SysT
 409:../../lib/lpc11cx4-library/lpc_chip_11cxx_lib/inc/core_cm0.h **** 
 410:../../lib/lpc11cx4-library/lpc_chip_11cxx_lib/inc/core_cm0.h **** #define SysTick_CTRL_TICKINT_Pos            1                                             /*!< SysT
 411:../../lib/lpc11cx4-library/lpc_chip_11cxx_lib/inc/core_cm0.h **** #define SysTick_CTRL_TICKINT_Msk           (1UL << SysTick_CTRL_TICKINT_Pos)              /*!< SysT
 412:../../lib/lpc11cx4-library/lpc_chip_11cxx_lib/inc/core_cm0.h **** 
 413:../../lib/lpc11cx4-library/lpc_chip_11cxx_lib/inc/core_cm0.h **** #define SysTick_CTRL_ENABLE_Pos             0                                             /*!< SysT
 414:../../lib/lpc11cx4-library/lpc_chip_11cxx_lib/inc/core_cm0.h **** #define SysTick_CTRL_ENABLE_Msk            (1UL << SysTick_CTRL_ENABLE_Pos)               /*!< SysT
 415:../../lib/lpc11cx4-library/lpc_chip_11cxx_lib/inc/core_cm0.h **** 
 416:../../lib/lpc11cx4-library/lpc_chip_11cxx_lib/inc/core_cm0.h **** /* SysTick Reload Register Definitions */
 417:../../lib/lpc11cx4-library/lpc_chip_11cxx_lib/inc/core_cm0.h **** #define SysTick_LOAD_RELOAD_Pos             0                                             /*!< SysT
 418:../../lib/lpc11cx4-library/lpc_chip_11cxx_lib/inc/core_cm0.h **** #define SysTick_LOAD_RELOAD_Msk            (0xFFFFFFUL << SysTick_LOAD_RELOAD_Pos)        /*!< SysT
 419:../../lib/lpc11cx4-library/lpc_chip_11cxx_lib/inc/core_cm0.h **** 
 420:../../lib/lpc11cx4-library/lpc_chip_11cxx_lib/inc/core_cm0.h **** /* SysTick Current Register Definitions */
 421:../../lib/lpc11cx4-library/lpc_chip_11cxx_lib/inc/core_cm0.h **** #define SysTick_VAL_CURRENT_Pos             0                                             /*!< SysT
 422:../../lib/lpc11cx4-library/lpc_chip_11cxx_lib/inc/core_cm0.h **** #define SysTick_VAL_CURRENT_Msk            (0xFFFFFFUL << SysTick_VAL_CURRENT_Pos)        /*!< SysT
 423:../../lib/lpc11cx4-library/lpc_chip_11cxx_lib/inc/core_cm0.h **** 
 424:../../lib/lpc11cx4-library/lpc_chip_11cxx_lib/inc/core_cm0.h **** /* SysTick Calibration Register Definitions */
 425:../../lib/lpc11cx4-library/lpc_chip_11cxx_lib/inc/core_cm0.h **** #define SysTick_CALIB_NOREF_Pos            31                                             /*!< SysT
 426:../../lib/lpc11cx4-library/lpc_chip_11cxx_lib/inc/core_cm0.h **** #define SysTick_CALIB_NOREF_Msk            (1UL << SysTick_CALIB_NOREF_Pos)               /*!< SysT
 427:../../lib/lpc11cx4-library/lpc_chip_11cxx_lib/inc/core_cm0.h **** 
 428:../../lib/lpc11cx4-library/lpc_chip_11cxx_lib/inc/core_cm0.h **** #define SysTick_CALIB_SKEW_Pos             30                                             /*!< SysT
 429:../../lib/lpc11cx4-library/lpc_chip_11cxx_lib/inc/core_cm0.h **** #define SysTick_CALIB_SKEW_Msk             (1UL << SysTick_CALIB_SKEW_Pos)                /*!< SysT
 430:../../lib/lpc11cx4-library/lpc_chip_11cxx_lib/inc/core_cm0.h **** 
ARM GAS  /var/folders/z0/6xlwn_996xz3mwq1cgzkbq4r0000gp/T//ccmGTjkW.s 			page 12


 431:../../lib/lpc11cx4-library/lpc_chip_11cxx_lib/inc/core_cm0.h **** #define SysTick_CALIB_TENMS_Pos             0                                             /*!< SysT
 432:../../lib/lpc11cx4-library/lpc_chip_11cxx_lib/inc/core_cm0.h **** #define SysTick_CALIB_TENMS_Msk            (0xFFFFFFUL << SysTick_VAL_CURRENT_Pos)        /*!< SysT
 433:../../lib/lpc11cx4-library/lpc_chip_11cxx_lib/inc/core_cm0.h **** 
 434:../../lib/lpc11cx4-library/lpc_chip_11cxx_lib/inc/core_cm0.h **** /*@} end of group CMSIS_SysTick */
 435:../../lib/lpc11cx4-library/lpc_chip_11cxx_lib/inc/core_cm0.h **** 
 436:../../lib/lpc11cx4-library/lpc_chip_11cxx_lib/inc/core_cm0.h **** 
 437:../../lib/lpc11cx4-library/lpc_chip_11cxx_lib/inc/core_cm0.h **** /** \ingroup  CMSIS_core_register
 438:../../lib/lpc11cx4-library/lpc_chip_11cxx_lib/inc/core_cm0.h ****     \defgroup CMSIS_CoreDebug       Core Debug Registers (CoreDebug)
 439:../../lib/lpc11cx4-library/lpc_chip_11cxx_lib/inc/core_cm0.h ****     \brief      Cortex-M0 Core Debug Registers (DCB registers, SHCSR, and DFSR)
 440:../../lib/lpc11cx4-library/lpc_chip_11cxx_lib/inc/core_cm0.h ****                 are only accessible over DAP and not via processor. Therefore
 441:../../lib/lpc11cx4-library/lpc_chip_11cxx_lib/inc/core_cm0.h ****                 they are not covered by the Cortex-M0 header file.
 442:../../lib/lpc11cx4-library/lpc_chip_11cxx_lib/inc/core_cm0.h ****   @{
 443:../../lib/lpc11cx4-library/lpc_chip_11cxx_lib/inc/core_cm0.h ****  */
 444:../../lib/lpc11cx4-library/lpc_chip_11cxx_lib/inc/core_cm0.h **** /*@} end of group CMSIS_CoreDebug */
 445:../../lib/lpc11cx4-library/lpc_chip_11cxx_lib/inc/core_cm0.h **** 
 446:../../lib/lpc11cx4-library/lpc_chip_11cxx_lib/inc/core_cm0.h **** 
 447:../../lib/lpc11cx4-library/lpc_chip_11cxx_lib/inc/core_cm0.h **** /** \ingroup    CMSIS_core_register
 448:../../lib/lpc11cx4-library/lpc_chip_11cxx_lib/inc/core_cm0.h ****     \defgroup   CMSIS_core_base     Core Definitions
 449:../../lib/lpc11cx4-library/lpc_chip_11cxx_lib/inc/core_cm0.h ****     \brief      Definitions for base addresses, unions, and structures.
 450:../../lib/lpc11cx4-library/lpc_chip_11cxx_lib/inc/core_cm0.h ****   @{
 451:../../lib/lpc11cx4-library/lpc_chip_11cxx_lib/inc/core_cm0.h ****  */
 452:../../lib/lpc11cx4-library/lpc_chip_11cxx_lib/inc/core_cm0.h **** 
 453:../../lib/lpc11cx4-library/lpc_chip_11cxx_lib/inc/core_cm0.h **** /* Memory mapping of Cortex-M0 Hardware */
 454:../../lib/lpc11cx4-library/lpc_chip_11cxx_lib/inc/core_cm0.h **** #define SCS_BASE            (0xE000E000UL)                            /*!< System Control Space Bas
 455:../../lib/lpc11cx4-library/lpc_chip_11cxx_lib/inc/core_cm0.h **** #define SysTick_BASE        (SCS_BASE +  0x0010UL)                    /*!< SysTick Base Address    
 456:../../lib/lpc11cx4-library/lpc_chip_11cxx_lib/inc/core_cm0.h **** #define NVIC_BASE           (SCS_BASE +  0x0100UL)                    /*!< NVIC Base Address       
 457:../../lib/lpc11cx4-library/lpc_chip_11cxx_lib/inc/core_cm0.h **** #define SCB_BASE            (SCS_BASE +  0x0D00UL)                    /*!< System Control Block Bas
 458:../../lib/lpc11cx4-library/lpc_chip_11cxx_lib/inc/core_cm0.h **** 
 459:../../lib/lpc11cx4-library/lpc_chip_11cxx_lib/inc/core_cm0.h **** #define SCB                 ((SCB_Type       *)     SCB_BASE      )   /*!< SCB configuration struct
 460:../../lib/lpc11cx4-library/lpc_chip_11cxx_lib/inc/core_cm0.h **** #define SysTick             ((SysTick_Type   *)     SysTick_BASE  )   /*!< SysTick configuration st
 461:../../lib/lpc11cx4-library/lpc_chip_11cxx_lib/inc/core_cm0.h **** #define NVIC                ((NVIC_Type      *)     NVIC_BASE     )   /*!< NVIC configuration struc
 462:../../lib/lpc11cx4-library/lpc_chip_11cxx_lib/inc/core_cm0.h **** 
 463:../../lib/lpc11cx4-library/lpc_chip_11cxx_lib/inc/core_cm0.h **** 
 464:../../lib/lpc11cx4-library/lpc_chip_11cxx_lib/inc/core_cm0.h **** /*@} */
 465:../../lib/lpc11cx4-library/lpc_chip_11cxx_lib/inc/core_cm0.h **** 
 466:../../lib/lpc11cx4-library/lpc_chip_11cxx_lib/inc/core_cm0.h **** 
 467:../../lib/lpc11cx4-library/lpc_chip_11cxx_lib/inc/core_cm0.h **** 
 468:../../lib/lpc11cx4-library/lpc_chip_11cxx_lib/inc/core_cm0.h **** /*******************************************************************************
 469:../../lib/lpc11cx4-library/lpc_chip_11cxx_lib/inc/core_cm0.h ****  *                Hardware Abstraction Layer
 470:../../lib/lpc11cx4-library/lpc_chip_11cxx_lib/inc/core_cm0.h ****   Core Function Interface contains:
 471:../../lib/lpc11cx4-library/lpc_chip_11cxx_lib/inc/core_cm0.h ****   - Core NVIC Functions
 472:../../lib/lpc11cx4-library/lpc_chip_11cxx_lib/inc/core_cm0.h ****   - Core SysTick Functions
 473:../../lib/lpc11cx4-library/lpc_chip_11cxx_lib/inc/core_cm0.h ****   - Core Register Access Functions
 474:../../lib/lpc11cx4-library/lpc_chip_11cxx_lib/inc/core_cm0.h ****  ******************************************************************************/
 475:../../lib/lpc11cx4-library/lpc_chip_11cxx_lib/inc/core_cm0.h **** /** \defgroup CMSIS_Core_FunctionInterface Functions and Instructions Reference
 476:../../lib/lpc11cx4-library/lpc_chip_11cxx_lib/inc/core_cm0.h **** */
 477:../../lib/lpc11cx4-library/lpc_chip_11cxx_lib/inc/core_cm0.h **** 
 478:../../lib/lpc11cx4-library/lpc_chip_11cxx_lib/inc/core_cm0.h **** 
 479:../../lib/lpc11cx4-library/lpc_chip_11cxx_lib/inc/core_cm0.h **** 
 480:../../lib/lpc11cx4-library/lpc_chip_11cxx_lib/inc/core_cm0.h **** /* ##########################   NVIC functions  #################################### */
 481:../../lib/lpc11cx4-library/lpc_chip_11cxx_lib/inc/core_cm0.h **** /** \ingroup  CMSIS_Core_FunctionInterface
 482:../../lib/lpc11cx4-library/lpc_chip_11cxx_lib/inc/core_cm0.h ****     \defgroup CMSIS_Core_NVICFunctions NVIC Functions
 483:../../lib/lpc11cx4-library/lpc_chip_11cxx_lib/inc/core_cm0.h ****     \brief      Functions that manage interrupts and exceptions via the NVIC.
 484:../../lib/lpc11cx4-library/lpc_chip_11cxx_lib/inc/core_cm0.h ****     @{
 485:../../lib/lpc11cx4-library/lpc_chip_11cxx_lib/inc/core_cm0.h ****  */
 486:../../lib/lpc11cx4-library/lpc_chip_11cxx_lib/inc/core_cm0.h **** 
 487:../../lib/lpc11cx4-library/lpc_chip_11cxx_lib/inc/core_cm0.h **** /* Interrupt Priorities are WORD accessible only under ARMv6M                   */
ARM GAS  /var/folders/z0/6xlwn_996xz3mwq1cgzkbq4r0000gp/T//ccmGTjkW.s 			page 13


 488:../../lib/lpc11cx4-library/lpc_chip_11cxx_lib/inc/core_cm0.h **** /* The following MACROS handle generation of the register offset and byte masks */
 489:../../lib/lpc11cx4-library/lpc_chip_11cxx_lib/inc/core_cm0.h **** #define _BIT_SHIFT(IRQn)         (  (((uint32_t)(IRQn)       )    &  0x03) * 8 )
 490:../../lib/lpc11cx4-library/lpc_chip_11cxx_lib/inc/core_cm0.h **** #define _SHP_IDX(IRQn)           ( ((((uint32_t)(IRQn) & 0x0F)-8) >>    2)     )
 491:../../lib/lpc11cx4-library/lpc_chip_11cxx_lib/inc/core_cm0.h **** #define _IP_IDX(IRQn)            (   ((uint32_t)(IRQn)            >>    2)     )
 492:../../lib/lpc11cx4-library/lpc_chip_11cxx_lib/inc/core_cm0.h **** 
 493:../../lib/lpc11cx4-library/lpc_chip_11cxx_lib/inc/core_cm0.h **** 
 494:../../lib/lpc11cx4-library/lpc_chip_11cxx_lib/inc/core_cm0.h **** /** \brief  Enable External Interrupt
 495:../../lib/lpc11cx4-library/lpc_chip_11cxx_lib/inc/core_cm0.h **** 
 496:../../lib/lpc11cx4-library/lpc_chip_11cxx_lib/inc/core_cm0.h ****     The function enables a device-specific interrupt in the NVIC interrupt controller.
 497:../../lib/lpc11cx4-library/lpc_chip_11cxx_lib/inc/core_cm0.h **** 
 498:../../lib/lpc11cx4-library/lpc_chip_11cxx_lib/inc/core_cm0.h ****     \param [in]      IRQn  External interrupt number. Value cannot be negative.
 499:../../lib/lpc11cx4-library/lpc_chip_11cxx_lib/inc/core_cm0.h ****  */
 500:../../lib/lpc11cx4-library/lpc_chip_11cxx_lib/inc/core_cm0.h **** __STATIC_INLINE void NVIC_EnableIRQ(IRQn_Type IRQn)
 501:../../lib/lpc11cx4-library/lpc_chip_11cxx_lib/inc/core_cm0.h **** {
 502:../../lib/lpc11cx4-library/lpc_chip_11cxx_lib/inc/core_cm0.h ****   NVIC->ISER[0] = (1 << ((uint32_t)(IRQn) & 0x1F));
 503:../../lib/lpc11cx4-library/lpc_chip_11cxx_lib/inc/core_cm0.h **** }
 504:../../lib/lpc11cx4-library/lpc_chip_11cxx_lib/inc/core_cm0.h **** 
 505:../../lib/lpc11cx4-library/lpc_chip_11cxx_lib/inc/core_cm0.h **** 
 506:../../lib/lpc11cx4-library/lpc_chip_11cxx_lib/inc/core_cm0.h **** /** \brief  Disable External Interrupt
 507:../../lib/lpc11cx4-library/lpc_chip_11cxx_lib/inc/core_cm0.h **** 
 508:../../lib/lpc11cx4-library/lpc_chip_11cxx_lib/inc/core_cm0.h ****     The function disables a device-specific interrupt in the NVIC interrupt controller.
 509:../../lib/lpc11cx4-library/lpc_chip_11cxx_lib/inc/core_cm0.h **** 
 510:../../lib/lpc11cx4-library/lpc_chip_11cxx_lib/inc/core_cm0.h ****     \param [in]      IRQn  External interrupt number. Value cannot be negative.
 511:../../lib/lpc11cx4-library/lpc_chip_11cxx_lib/inc/core_cm0.h ****  */
 512:../../lib/lpc11cx4-library/lpc_chip_11cxx_lib/inc/core_cm0.h **** __STATIC_INLINE void NVIC_DisableIRQ(IRQn_Type IRQn)
 513:../../lib/lpc11cx4-library/lpc_chip_11cxx_lib/inc/core_cm0.h **** {
 514:../../lib/lpc11cx4-library/lpc_chip_11cxx_lib/inc/core_cm0.h ****   NVIC->ICER[0] = (1 << ((uint32_t)(IRQn) & 0x1F));
 515:../../lib/lpc11cx4-library/lpc_chip_11cxx_lib/inc/core_cm0.h **** }
 516:../../lib/lpc11cx4-library/lpc_chip_11cxx_lib/inc/core_cm0.h **** 
 517:../../lib/lpc11cx4-library/lpc_chip_11cxx_lib/inc/core_cm0.h **** 
 518:../../lib/lpc11cx4-library/lpc_chip_11cxx_lib/inc/core_cm0.h **** /** \brief  Get Pending Interrupt
 519:../../lib/lpc11cx4-library/lpc_chip_11cxx_lib/inc/core_cm0.h **** 
 520:../../lib/lpc11cx4-library/lpc_chip_11cxx_lib/inc/core_cm0.h ****     The function reads the pending register in the NVIC and returns the pending bit
 521:../../lib/lpc11cx4-library/lpc_chip_11cxx_lib/inc/core_cm0.h ****     for the specified interrupt.
 522:../../lib/lpc11cx4-library/lpc_chip_11cxx_lib/inc/core_cm0.h **** 
 523:../../lib/lpc11cx4-library/lpc_chip_11cxx_lib/inc/core_cm0.h ****     \param [in]      IRQn  Interrupt number.
 524:../../lib/lpc11cx4-library/lpc_chip_11cxx_lib/inc/core_cm0.h **** 
 525:../../lib/lpc11cx4-library/lpc_chip_11cxx_lib/inc/core_cm0.h ****     \return             0  Interrupt status is not pending.
 526:../../lib/lpc11cx4-library/lpc_chip_11cxx_lib/inc/core_cm0.h ****     \return             1  Interrupt status is pending.
 527:../../lib/lpc11cx4-library/lpc_chip_11cxx_lib/inc/core_cm0.h ****  */
 528:../../lib/lpc11cx4-library/lpc_chip_11cxx_lib/inc/core_cm0.h **** __STATIC_INLINE uint32_t NVIC_GetPendingIRQ(IRQn_Type IRQn)
 529:../../lib/lpc11cx4-library/lpc_chip_11cxx_lib/inc/core_cm0.h **** {
 530:../../lib/lpc11cx4-library/lpc_chip_11cxx_lib/inc/core_cm0.h ****   return((uint32_t) ((NVIC->ISPR[0] & (1 << ((uint32_t)(IRQn) & 0x1F)))?1:0));
 531:../../lib/lpc11cx4-library/lpc_chip_11cxx_lib/inc/core_cm0.h **** }
 532:../../lib/lpc11cx4-library/lpc_chip_11cxx_lib/inc/core_cm0.h **** 
 533:../../lib/lpc11cx4-library/lpc_chip_11cxx_lib/inc/core_cm0.h **** 
 534:../../lib/lpc11cx4-library/lpc_chip_11cxx_lib/inc/core_cm0.h **** /** \brief  Set Pending Interrupt
 535:../../lib/lpc11cx4-library/lpc_chip_11cxx_lib/inc/core_cm0.h **** 
 536:../../lib/lpc11cx4-library/lpc_chip_11cxx_lib/inc/core_cm0.h ****     The function sets the pending bit of an external interrupt.
 537:../../lib/lpc11cx4-library/lpc_chip_11cxx_lib/inc/core_cm0.h **** 
 538:../../lib/lpc11cx4-library/lpc_chip_11cxx_lib/inc/core_cm0.h ****     \param [in]      IRQn  Interrupt number. Value cannot be negative.
 539:../../lib/lpc11cx4-library/lpc_chip_11cxx_lib/inc/core_cm0.h ****  */
 540:../../lib/lpc11cx4-library/lpc_chip_11cxx_lib/inc/core_cm0.h **** __STATIC_INLINE void NVIC_SetPendingIRQ(IRQn_Type IRQn)
 541:../../lib/lpc11cx4-library/lpc_chip_11cxx_lib/inc/core_cm0.h **** {
 542:../../lib/lpc11cx4-library/lpc_chip_11cxx_lib/inc/core_cm0.h ****   NVIC->ISPR[0] = (1 << ((uint32_t)(IRQn) & 0x1F));
 543:../../lib/lpc11cx4-library/lpc_chip_11cxx_lib/inc/core_cm0.h **** }
 544:../../lib/lpc11cx4-library/lpc_chip_11cxx_lib/inc/core_cm0.h **** 
ARM GAS  /var/folders/z0/6xlwn_996xz3mwq1cgzkbq4r0000gp/T//ccmGTjkW.s 			page 14


 545:../../lib/lpc11cx4-library/lpc_chip_11cxx_lib/inc/core_cm0.h **** 
 546:../../lib/lpc11cx4-library/lpc_chip_11cxx_lib/inc/core_cm0.h **** /** \brief  Clear Pending Interrupt
 547:../../lib/lpc11cx4-library/lpc_chip_11cxx_lib/inc/core_cm0.h **** 
 548:../../lib/lpc11cx4-library/lpc_chip_11cxx_lib/inc/core_cm0.h ****     The function clears the pending bit of an external interrupt.
 549:../../lib/lpc11cx4-library/lpc_chip_11cxx_lib/inc/core_cm0.h **** 
 550:../../lib/lpc11cx4-library/lpc_chip_11cxx_lib/inc/core_cm0.h ****     \param [in]      IRQn  External interrupt number. Value cannot be negative.
 551:../../lib/lpc11cx4-library/lpc_chip_11cxx_lib/inc/core_cm0.h ****  */
 552:../../lib/lpc11cx4-library/lpc_chip_11cxx_lib/inc/core_cm0.h **** __STATIC_INLINE void NVIC_ClearPendingIRQ(IRQn_Type IRQn)
 553:../../lib/lpc11cx4-library/lpc_chip_11cxx_lib/inc/core_cm0.h **** {
 554:../../lib/lpc11cx4-library/lpc_chip_11cxx_lib/inc/core_cm0.h ****   NVIC->ICPR[0] = (1 << ((uint32_t)(IRQn) & 0x1F)); /* Clear pending interrupt */
 555:../../lib/lpc11cx4-library/lpc_chip_11cxx_lib/inc/core_cm0.h **** }
 556:../../lib/lpc11cx4-library/lpc_chip_11cxx_lib/inc/core_cm0.h **** 
 557:../../lib/lpc11cx4-library/lpc_chip_11cxx_lib/inc/core_cm0.h **** 
 558:../../lib/lpc11cx4-library/lpc_chip_11cxx_lib/inc/core_cm0.h **** /** \brief  Set Interrupt Priority
 559:../../lib/lpc11cx4-library/lpc_chip_11cxx_lib/inc/core_cm0.h **** 
 560:../../lib/lpc11cx4-library/lpc_chip_11cxx_lib/inc/core_cm0.h ****     The function sets the priority of an interrupt.
 561:../../lib/lpc11cx4-library/lpc_chip_11cxx_lib/inc/core_cm0.h **** 
 562:../../lib/lpc11cx4-library/lpc_chip_11cxx_lib/inc/core_cm0.h ****     \note The priority cannot be set for every core interrupt.
 563:../../lib/lpc11cx4-library/lpc_chip_11cxx_lib/inc/core_cm0.h **** 
 564:../../lib/lpc11cx4-library/lpc_chip_11cxx_lib/inc/core_cm0.h ****     \param [in]      IRQn  Interrupt number.
 565:../../lib/lpc11cx4-library/lpc_chip_11cxx_lib/inc/core_cm0.h ****     \param [in]  priority  Priority to set.
 566:../../lib/lpc11cx4-library/lpc_chip_11cxx_lib/inc/core_cm0.h ****  */
 567:../../lib/lpc11cx4-library/lpc_chip_11cxx_lib/inc/core_cm0.h **** __STATIC_INLINE void NVIC_SetPriority(IRQn_Type IRQn, uint32_t priority)
 568:../../lib/lpc11cx4-library/lpc_chip_11cxx_lib/inc/core_cm0.h **** {
 569:../../lib/lpc11cx4-library/lpc_chip_11cxx_lib/inc/core_cm0.h ****   if(IRQn < 0) {
 570:../../lib/lpc11cx4-library/lpc_chip_11cxx_lib/inc/core_cm0.h ****     SCB->SHP[_SHP_IDX(IRQn)] = (SCB->SHP[_SHP_IDX(IRQn)] & ~(0xFF << _BIT_SHIFT(IRQn))) |
 571:../../lib/lpc11cx4-library/lpc_chip_11cxx_lib/inc/core_cm0.h ****         (((priority << (8 - __NVIC_PRIO_BITS)) & 0xFF) << _BIT_SHIFT(IRQn)); }
 572:../../lib/lpc11cx4-library/lpc_chip_11cxx_lib/inc/core_cm0.h ****   else {
 573:../../lib/lpc11cx4-library/lpc_chip_11cxx_lib/inc/core_cm0.h ****     NVIC->IP[_IP_IDX(IRQn)] = (NVIC->IP[_IP_IDX(IRQn)] & ~(0xFF << _BIT_SHIFT(IRQn))) |
 574:../../lib/lpc11cx4-library/lpc_chip_11cxx_lib/inc/core_cm0.h ****         (((priority << (8 - __NVIC_PRIO_BITS)) & 0xFF) << _BIT_SHIFT(IRQn)); }
 575:../../lib/lpc11cx4-library/lpc_chip_11cxx_lib/inc/core_cm0.h **** }
 576:../../lib/lpc11cx4-library/lpc_chip_11cxx_lib/inc/core_cm0.h **** 
 577:../../lib/lpc11cx4-library/lpc_chip_11cxx_lib/inc/core_cm0.h **** 
 578:../../lib/lpc11cx4-library/lpc_chip_11cxx_lib/inc/core_cm0.h **** /** \brief  Get Interrupt Priority
 579:../../lib/lpc11cx4-library/lpc_chip_11cxx_lib/inc/core_cm0.h **** 
 580:../../lib/lpc11cx4-library/lpc_chip_11cxx_lib/inc/core_cm0.h ****     The function reads the priority of an interrupt. The interrupt
 581:../../lib/lpc11cx4-library/lpc_chip_11cxx_lib/inc/core_cm0.h ****     number can be positive to specify an external (device specific)
 582:../../lib/lpc11cx4-library/lpc_chip_11cxx_lib/inc/core_cm0.h ****     interrupt, or negative to specify an internal (core) interrupt.
 583:../../lib/lpc11cx4-library/lpc_chip_11cxx_lib/inc/core_cm0.h **** 
 584:../../lib/lpc11cx4-library/lpc_chip_11cxx_lib/inc/core_cm0.h **** 
 585:../../lib/lpc11cx4-library/lpc_chip_11cxx_lib/inc/core_cm0.h ****     \param [in]   IRQn  Interrupt number.
 586:../../lib/lpc11cx4-library/lpc_chip_11cxx_lib/inc/core_cm0.h ****     \return             Interrupt Priority. Value is aligned automatically to the implemented
 587:../../lib/lpc11cx4-library/lpc_chip_11cxx_lib/inc/core_cm0.h ****                         priority bits of the microcontroller.
 588:../../lib/lpc11cx4-library/lpc_chip_11cxx_lib/inc/core_cm0.h ****  */
 589:../../lib/lpc11cx4-library/lpc_chip_11cxx_lib/inc/core_cm0.h **** __STATIC_INLINE uint32_t NVIC_GetPriority(IRQn_Type IRQn)
 590:../../lib/lpc11cx4-library/lpc_chip_11cxx_lib/inc/core_cm0.h **** {
 591:../../lib/lpc11cx4-library/lpc_chip_11cxx_lib/inc/core_cm0.h **** 
 592:../../lib/lpc11cx4-library/lpc_chip_11cxx_lib/inc/core_cm0.h ****   if(IRQn < 0) {
 593:../../lib/lpc11cx4-library/lpc_chip_11cxx_lib/inc/core_cm0.h ****     return((uint32_t)((SCB->SHP[_SHP_IDX(IRQn)] >> _BIT_SHIFT(IRQn) ) >> (8 - __NVIC_PRIO_BITS))); 
 594:../../lib/lpc11cx4-library/lpc_chip_11cxx_lib/inc/core_cm0.h ****   else {
 595:../../lib/lpc11cx4-library/lpc_chip_11cxx_lib/inc/core_cm0.h ****     return((uint32_t)((NVIC->IP[ _IP_IDX(IRQn)] >> _BIT_SHIFT(IRQn) ) >> (8 - __NVIC_PRIO_BITS))); 
 596:../../lib/lpc11cx4-library/lpc_chip_11cxx_lib/inc/core_cm0.h **** }
 597:../../lib/lpc11cx4-library/lpc_chip_11cxx_lib/inc/core_cm0.h **** 
 598:../../lib/lpc11cx4-library/lpc_chip_11cxx_lib/inc/core_cm0.h **** 
 599:../../lib/lpc11cx4-library/lpc_chip_11cxx_lib/inc/core_cm0.h **** /** \brief  System Reset
 600:../../lib/lpc11cx4-library/lpc_chip_11cxx_lib/inc/core_cm0.h **** 
 601:../../lib/lpc11cx4-library/lpc_chip_11cxx_lib/inc/core_cm0.h ****     The function initiates a system reset request to reset the MCU.
ARM GAS  /var/folders/z0/6xlwn_996xz3mwq1cgzkbq4r0000gp/T//ccmGTjkW.s 			page 15


 602:../../lib/lpc11cx4-library/lpc_chip_11cxx_lib/inc/core_cm0.h ****  */
 603:../../lib/lpc11cx4-library/lpc_chip_11cxx_lib/inc/core_cm0.h **** __STATIC_INLINE void NVIC_SystemReset(void)
 604:../../lib/lpc11cx4-library/lpc_chip_11cxx_lib/inc/core_cm0.h **** {
 605:../../lib/lpc11cx4-library/lpc_chip_11cxx_lib/inc/core_cm0.h ****   __DSB();                                                     /* Ensure all outstanding memory acc
 606:../../lib/lpc11cx4-library/lpc_chip_11cxx_lib/inc/core_cm0.h ****                                                                   buffered write are completed befo
 607:../../lib/lpc11cx4-library/lpc_chip_11cxx_lib/inc/core_cm0.h ****   SCB->AIRCR  = ((0x5FA << SCB_AIRCR_VECTKEY_Pos)      |
 608:../../lib/lpc11cx4-library/lpc_chip_11cxx_lib/inc/core_cm0.h ****                  SCB_AIRCR_SYSRESETREQ_Msk);
 609:../../lib/lpc11cx4-library/lpc_chip_11cxx_lib/inc/core_cm0.h ****   __DSB();                                                     /* Ensure completion of memory acces
 610:../../lib/lpc11cx4-library/lpc_chip_11cxx_lib/inc/core_cm0.h ****   while(1);                                                    /* wait until reset */
 611:../../lib/lpc11cx4-library/lpc_chip_11cxx_lib/inc/core_cm0.h **** }
 612:../../lib/lpc11cx4-library/lpc_chip_11cxx_lib/inc/core_cm0.h **** 
 613:../../lib/lpc11cx4-library/lpc_chip_11cxx_lib/inc/core_cm0.h **** /*@} end of CMSIS_Core_NVICFunctions */
 614:../../lib/lpc11cx4-library/lpc_chip_11cxx_lib/inc/core_cm0.h **** 
 615:../../lib/lpc11cx4-library/lpc_chip_11cxx_lib/inc/core_cm0.h **** 
 616:../../lib/lpc11cx4-library/lpc_chip_11cxx_lib/inc/core_cm0.h **** 
 617:../../lib/lpc11cx4-library/lpc_chip_11cxx_lib/inc/core_cm0.h **** /* ##################################    SysTick function  ########################################
 618:../../lib/lpc11cx4-library/lpc_chip_11cxx_lib/inc/core_cm0.h **** /** \ingroup  CMSIS_Core_FunctionInterface
 619:../../lib/lpc11cx4-library/lpc_chip_11cxx_lib/inc/core_cm0.h ****     \defgroup CMSIS_Core_SysTickFunctions SysTick Functions
 620:../../lib/lpc11cx4-library/lpc_chip_11cxx_lib/inc/core_cm0.h ****     \brief      Functions that configure the System.
 621:../../lib/lpc11cx4-library/lpc_chip_11cxx_lib/inc/core_cm0.h ****   @{
 622:../../lib/lpc11cx4-library/lpc_chip_11cxx_lib/inc/core_cm0.h ****  */
 623:../../lib/lpc11cx4-library/lpc_chip_11cxx_lib/inc/core_cm0.h **** 
 624:../../lib/lpc11cx4-library/lpc_chip_11cxx_lib/inc/core_cm0.h **** #if (__Vendor_SysTickConfig == 0)
 625:../../lib/lpc11cx4-library/lpc_chip_11cxx_lib/inc/core_cm0.h **** 
 626:../../lib/lpc11cx4-library/lpc_chip_11cxx_lib/inc/core_cm0.h **** /** \brief  System Tick Configuration
 627:../../lib/lpc11cx4-library/lpc_chip_11cxx_lib/inc/core_cm0.h **** 
 628:../../lib/lpc11cx4-library/lpc_chip_11cxx_lib/inc/core_cm0.h ****     The function initializes the System Timer and its interrupt, and starts the System Tick Timer.
 629:../../lib/lpc11cx4-library/lpc_chip_11cxx_lib/inc/core_cm0.h ****     Counter is in free running mode to generate periodic interrupts.
 630:../../lib/lpc11cx4-library/lpc_chip_11cxx_lib/inc/core_cm0.h **** 
 631:../../lib/lpc11cx4-library/lpc_chip_11cxx_lib/inc/core_cm0.h ****     \param [in]  ticks  Number of ticks between two interrupts.
 632:../../lib/lpc11cx4-library/lpc_chip_11cxx_lib/inc/core_cm0.h **** 
 633:../../lib/lpc11cx4-library/lpc_chip_11cxx_lib/inc/core_cm0.h ****     \return          0  Function succeeded.
 634:../../lib/lpc11cx4-library/lpc_chip_11cxx_lib/inc/core_cm0.h ****     \return          1  Function failed.
 635:../../lib/lpc11cx4-library/lpc_chip_11cxx_lib/inc/core_cm0.h **** 
 636:../../lib/lpc11cx4-library/lpc_chip_11cxx_lib/inc/core_cm0.h ****     \note     When the variable <b>__Vendor_SysTickConfig</b> is set to 1, then the
 637:../../lib/lpc11cx4-library/lpc_chip_11cxx_lib/inc/core_cm0.h ****     function <b>SysTick_Config</b> is not included. In this case, the file <b><i>device</i>.h</b>
 638:../../lib/lpc11cx4-library/lpc_chip_11cxx_lib/inc/core_cm0.h ****     must contain a vendor-specific implementation of this function.
 639:../../lib/lpc11cx4-library/lpc_chip_11cxx_lib/inc/core_cm0.h **** 
 640:../../lib/lpc11cx4-library/lpc_chip_11cxx_lib/inc/core_cm0.h ****  */
 641:../../lib/lpc11cx4-library/lpc_chip_11cxx_lib/inc/core_cm0.h **** __STATIC_INLINE uint32_t SysTick_Config(uint32_t ticks)
 642:../../lib/lpc11cx4-library/lpc_chip_11cxx_lib/inc/core_cm0.h **** {
 643:../../lib/lpc11cx4-library/lpc_chip_11cxx_lib/inc/core_cm0.h ****   if (ticks > SysTick_LOAD_RELOAD_Msk)  return (1);            /* Reload value impossible */
 644:../../lib/lpc11cx4-library/lpc_chip_11cxx_lib/inc/core_cm0.h **** 
 645:../../lib/lpc11cx4-library/lpc_chip_11cxx_lib/inc/core_cm0.h ****   SysTick->LOAD  = (ticks & SysTick_LOAD_RELOAD_Msk) - 1;      /* set reload register */
 160              		.loc 2 645 0
 161 0000 FA21     		movs	r1, #250	@,
 162              	.LBE35:
 163              	.LBE34:
  38:src/board.c   ****   SysTick_Config(Hertz2Ticks(1000));
 164              		.loc 1 38 0
 165 0002 0B4B     		ldr	r3, .L8	@ tmp116,
 166              	.LVL2:
  37:src/board.c   ****   SysTick_Config(Hertz2Ticks(1000));
 167              		.loc 1 37 0
 168 0004 10B5     		push	{r4, lr}	@
 169              		.cfi_def_cfa_offset 8
 170              		.cfi_offset 4, -8
ARM GAS  /var/folders/z0/6xlwn_996xz3mwq1cgzkbq4r0000gp/T//ccmGTjkW.s 			page 16


 171              		.cfi_offset 14, -4
 172              	.LBB42:
 173              	.LBB40:
 174              		.loc 2 645 0
 175 0006 1868     		ldr	r0, [r3]	@ SystemCoreClock, SystemCoreClock
 176 0008 8900     		lsls	r1, r1, #2	@,,
 177 000a FFF7FEFF 		bl	__aeabi_uidiv	@
 178              	.LVL3:
 179 000e 094A     		ldr	r2, .L8+4	@ tmp122,
 180 0010 0138     		subs	r0, r0, #1	@ D.8152,
 181 0012 5060     		str	r0, [r2, #4]	@ D.8152, MEM[(struct SysTick_Type *)3758153744B].LOAD
 182              	.LVL4:
 183              	.LBB36:
 184              	.LBB37:
 570:../../lib/lpc11cx4-library/lpc_chip_11cxx_lib/inc/core_cm0.h ****         (((priority << (8 - __NVIC_PRIO_BITS)) & 0xFF) << _BIT_SHIFT(IRQn)); }
 185              		.loc 2 570 0
 186 0014 C020     		movs	r0, #192	@ tmp126,
 187 0016 0849     		ldr	r1, .L8+8	@ tmp123,
 188 0018 0006     		lsls	r0, r0, #24	@ tmp126, tmp126,
 189 001a 0B6A     		ldr	r3, [r1, #32]	@ D.8152, MEM[(struct SCB_Type *)3758157056B].SHP
 190              	.LBE37:
 191              	.LBE36:
 192              	.LBE40:
 193              	.LBE42:
  39:src/board.c   **** }
 194              		.loc 1 39 0
 195              		@ sp needed	@
 196              	.LBB43:
 197              	.LBB41:
 198              	.LBB39:
 199              	.LBB38:
 570:../../lib/lpc11cx4-library/lpc_chip_11cxx_lib/inc/core_cm0.h ****         (((priority << (8 - __NVIC_PRIO_BITS)) & 0xFF) << _BIT_SHIFT(IRQn)); }
 200              		.loc 2 570 0
 201 001c 1B02     		lsls	r3, r3, #8	@ tmp125, D.8152,
 202 001e 1B0A     		lsrs	r3, r3, #8	@ D.8152, tmp125,
 203 0020 0343     		orrs	r3, r0	@ D.8152, tmp126
 204 0022 0B62     		str	r3, [r1, #32]	@ D.8152, MEM[(struct SCB_Type *)3758157056B].SHP
 205              	.LVL5:
 206              	.LBE38:
 207              	.LBE39:
 646:../../lib/lpc11cx4-library/lpc_chip_11cxx_lib/inc/core_cm0.h ****   NVIC_SetPriority (SysTick_IRQn, (1<<__NVIC_PRIO_BITS) - 1);  /* set Priority for Systick Interrup
 647:../../lib/lpc11cx4-library/lpc_chip_11cxx_lib/inc/core_cm0.h ****   SysTick->VAL   = 0;                                          /* Load the SysTick Counter Value */
 208              		.loc 2 647 0
 209 0024 0023     		movs	r3, #0	@ tmp129,
 210 0026 9360     		str	r3, [r2, #8]	@ tmp129, MEM[(struct SysTick_Type *)3758153744B].VAL
 648:../../lib/lpc11cx4-library/lpc_chip_11cxx_lib/inc/core_cm0.h ****   SysTick->CTRL  = SysTick_CTRL_CLKSOURCE_Msk |
 211              		.loc 2 648 0
 212 0028 0733     		adds	r3, r3, #7	@ tmp131,
 213 002a 1360     		str	r3, [r2]	@ tmp131, MEM[(struct SysTick_Type *)3758153744B].CTRL
 214              	.LBE41:
 215              	.LBE43:
 216              		.loc 1 39 0
 217 002c 10BD     		pop	{r4, pc}
 218              	.L9:
 219 002e C046     		.align	2
 220              	.L8:
 221 0030 00000000 		.word	SystemCoreClock
ARM GAS  /var/folders/z0/6xlwn_996xz3mwq1cgzkbq4r0000gp/T//ccmGTjkW.s 			page 17


 222 0034 10E000E0 		.word	-536813552
 223 0038 00ED00E0 		.word	-536810240
 224              		.cfi_endproc
 225              	.LFE200:
 226              		.size	Board_Chip_Init, .-Board_Chip_Init
 227              		.section	.text.Board_Print,"ax",%progbits
 228              		.align	2
 229              		.global	Board_Print
 230              		.code	16
 231              		.thumb_func
 232              		.type	Board_Print, %function
 233              	Board_Print:
 234              	.LFB201:
  40:src/board.c   **** 
  41:src/board.c   **** uint32_t Board_Print(const char *str) {
 235              		.loc 1 41 0
 236              		.cfi_startproc
 237              		@ args = 0, pretend = 0, frame = 0
 238              		@ frame_needed = 0, uses_anonymous_args = 0
 239              	.LVL6:
 240 0000 10B5     		push	{r4, lr}	@
 241              		.cfi_def_cfa_offset 8
 242              		.cfi_offset 4, -8
 243              		.cfi_offset 14, -4
 244              		.loc 1 41 0
 245 0002 0400     		movs	r4, r0	@ str, str
  42:src/board.c   ****   return Chip_UART_SendRB(LPC_USART, &uart_tx_ring, str, strlen(str));
 246              		.loc 1 42 0
 247 0004 FFF7FEFF 		bl	strlen	@
 248              	.LVL7:
 249 0008 2200     		movs	r2, r4	@, str
 250 000a 0300     		movs	r3, r0	@ tmp115,
 251 000c 0249     		ldr	r1, .L11	@,
 252 000e 0348     		ldr	r0, .L11+4	@,
 253 0010 FFF7FEFF 		bl	Chip_UART_SendRB	@
 254              	.LVL8:
  43:src/board.c   **** }
 255              		.loc 1 43 0
 256              		@ sp needed	@
 257              	.LVL9:
 258 0014 10BD     		pop	{r4, pc}
 259              	.L12:
 260 0016 C046     		.align	2
 261              	.L11:
 262 0018 00000000 		.word	.LANCHOR0
 263 001c 00800040 		.word	1073774592
 264              		.cfi_endproc
 265              	.LFE201:
 266              		.size	Board_Print, .-Board_Print
 267              		.section	.text.Board_BlockingDelay,"ax",%progbits
 268              		.align	2
 269              		.global	Board_BlockingDelay
 270              		.code	16
 271              		.thumb_func
 272              		.type	Board_BlockingDelay, %function
 273              	Board_BlockingDelay:
 274              	.LFB202:
ARM GAS  /var/folders/z0/6xlwn_996xz3mwq1cgzkbq4r0000gp/T//ccmGTjkW.s 			page 18


  44:src/board.c   **** 
  45:src/board.c   **** void Board_BlockingDelay(uint32_t dlyTicks) {
 275              		.loc 1 45 0
 276              		.cfi_startproc
 277              		@ args = 0, pretend = 0, frame = 0
 278              		@ frame_needed = 0, uses_anonymous_args = 0
 279              		@ link register save eliminated.
 280              	.LVL10:
  46:src/board.c   ****   uint32_t curTicks = msTicks;
 281              		.loc 1 46 0
 282 0000 034A     		ldr	r2, .L17	@ tmp117,
 283 0002 1168     		ldr	r1, [r2]	@ curTicks, msTicks
 284              	.LVL11:
 285              	.L14:
  47:src/board.c   ****   while ((msTicks - curTicks) < dlyTicks);
 286              		.loc 1 47 0 discriminator 1
 287 0004 1368     		ldr	r3, [r2]	@ D.8161, msTicks
 288 0006 5B1A     		subs	r3, r3, r1	@ D.8161, D.8161, curTicks
 289 0008 8342     		cmp	r3, r0	@ D.8161, dlyTicks
 290 000a FBD3     		bcc	.L14	@,
  48:src/board.c   **** }
 291              		.loc 1 48 0
 292              		@ sp needed	@
 293 000c 7047     		bx	lr
 294              	.L18:
 295 000e C046     		.align	2
 296              	.L17:
 297 0010 00000000 		.word	msTicks
 298              		.cfi_endproc
 299              	.LFE202:
 300              		.size	Board_BlockingDelay, .-Board_BlockingDelay
 301              		.section	.text.Board_Println,"ax",%progbits
 302              		.align	2
 303              		.global	Board_Println
 304              		.code	16
 305              		.thumb_func
 306              		.type	Board_Println, %function
 307              	Board_Println:
 308              	.LFB203:
  49:src/board.c   **** 
  50:src/board.c   **** uint32_t Board_Println(const char *str) {
 309              		.loc 1 50 0
 310              		.cfi_startproc
 311              		@ args = 0, pretend = 0, frame = 0
 312              		@ frame_needed = 0, uses_anonymous_args = 0
 313              	.LVL12:
 314 0000 10B5     		push	{r4, lr}	@
 315              		.cfi_def_cfa_offset 8
 316              		.cfi_offset 4, -8
 317              		.cfi_offset 14, -4
  51:src/board.c   ****   uint32_t count = Board_Print(str);
 318              		.loc 1 51 0
 319 0002 FFF7FEFF 		bl	Board_Print	@
 320              	.LVL13:
 321 0006 0400     		movs	r4, r0	@ count,
 322              	.LVL14:
  52:src/board.c   ****   return count + Board_Print("\r\n");
ARM GAS  /var/folders/z0/6xlwn_996xz3mwq1cgzkbq4r0000gp/T//ccmGTjkW.s 			page 19


 323              		.loc 1 52 0
 324 0008 0248     		ldr	r0, .L20	@,
 325              	.LVL15:
 326 000a FFF7FEFF 		bl	Board_Print	@
 327              	.LVL16:
  53:src/board.c   **** }
 328              		.loc 1 53 0
 329              		@ sp needed	@
  52:src/board.c   ****   return count + Board_Print("\r\n");
 330              		.loc 1 52 0
 331 000e 2018     		adds	r0, r4, r0	@ D.8165, count, D.8164
 332              	.LVL17:
 333              		.loc 1 53 0
 334 0010 10BD     		pop	{r4, pc}
 335              	.L21:
 336 0012 C046     		.align	2
 337              	.L20:
 338 0014 00000000 		.word	.LC6
 339              		.cfi_endproc
 340              	.LFE203:
 341              		.size	Board_Println, .-Board_Println
 342              		.section	.text.Board_PrintNum,"ax",%progbits
 343              		.align	2
 344              		.global	Board_PrintNum
 345              		.code	16
 346              		.thumb_func
 347              		.type	Board_PrintNum, %function
 348              	Board_PrintNum:
 349              	.LFB204:
  54:src/board.c   **** 
  55:src/board.c   **** uint32_t Board_PrintNum(uint32_t a, uint8_t base) {
 350              		.loc 1 55 0
 351              		.cfi_startproc
 352              		@ args = 0, pretend = 0, frame = 0
 353              		@ frame_needed = 0, uses_anonymous_args = 0
 354              	.LVL18:
 355 0000 10B5     		push	{r4, lr}	@
 356              		.cfi_def_cfa_offset 8
 357              		.cfi_offset 4, -8
 358              		.cfi_offset 14, -4
  56:src/board.c   ****   itoa(a, str, base);
 359              		.loc 1 56 0
 360 0002 044C     		ldr	r4, .L23	@ tmp116,
  55:src/board.c   ****   itoa(a, str, base);
 361              		.loc 1 55 0
 362 0004 0A00     		movs	r2, r1	@ base, base
 363              		.loc 1 56 0
 364 0006 2100     		movs	r1, r4	@, tmp116
 365              	.LVL19:
 366 0008 FFF7FEFF 		bl	itoa	@
 367              	.LVL20:
  57:src/board.c   ****   return Board_Print(str);
 368              		.loc 1 57 0
 369 000c 2000     		movs	r0, r4	@, tmp116
 370 000e FFF7FEFF 		bl	Board_Print	@
 371              	.LVL21:
  58:src/board.c   **** }
ARM GAS  /var/folders/z0/6xlwn_996xz3mwq1cgzkbq4r0000gp/T//ccmGTjkW.s 			page 20


 372              		.loc 1 58 0
 373              		@ sp needed	@
 374 0012 10BD     		pop	{r4, pc}
 375              	.L24:
 376              		.align	2
 377              	.L23:
 378 0014 00000000 		.word	.LANCHOR2
 379              		.cfi_endproc
 380              	.LFE204:
 381              		.size	Board_PrintNum, .-Board_PrintNum
 382              		.section	.text.Board_Write,"ax",%progbits
 383              		.align	2
 384              		.global	Board_Write
 385              		.code	16
 386              		.thumb_func
 387              		.type	Board_Write, %function
 388              	Board_Write:
 389              	.LFB205:
  59:src/board.c   **** 
  60:src/board.c   **** uint32_t Board_Write(const char *str, uint32_t count) {
 390              		.loc 1 60 0
 391              		.cfi_startproc
 392              		@ args = 0, pretend = 0, frame = 0
 393              		@ frame_needed = 0, uses_anonymous_args = 0
 394              	.LVL22:
 395 0000 10B5     		push	{r4, lr}	@
 396              		.cfi_def_cfa_offset 8
 397              		.cfi_offset 4, -8
 398              		.cfi_offset 14, -4
 399              		.loc 1 60 0
 400 0002 0200     		movs	r2, r0	@ str, str
 401 0004 0B00     		movs	r3, r1	@ count, count
  61:src/board.c   ****   return Chip_UART_SendRB(LPC_USART, &uart_tx_ring, str, count);
 402              		.loc 1 61 0
 403 0006 0248     		ldr	r0, .L26	@,
 404              	.LVL23:
 405 0008 0249     		ldr	r1, .L26+4	@,
 406              	.LVL24:
 407 000a FFF7FEFF 		bl	Chip_UART_SendRB	@
 408              	.LVL25:
  62:src/board.c   **** }
 409              		.loc 1 62 0
 410              		@ sp needed	@
 411 000e 10BD     		pop	{r4, pc}
 412              	.L27:
 413              		.align	2
 414              	.L26:
 415 0010 00800040 		.word	1073774592
 416 0014 00000000 		.word	.LANCHOR0
 417              		.cfi_endproc
 418              	.LFE205:
 419              		.size	Board_Write, .-Board_Write
 420              		.section	.text.Board_Read,"ax",%progbits
 421              		.align	2
 422              		.global	Board_Read
 423              		.code	16
 424              		.thumb_func
ARM GAS  /var/folders/z0/6xlwn_996xz3mwq1cgzkbq4r0000gp/T//ccmGTjkW.s 			page 21


 425              		.type	Board_Read, %function
 426              	Board_Read:
 427              	.LFB206:
  63:src/board.c   **** 
  64:src/board.c   **** uint32_t Board_Read(char *charBuffer, uint32_t length) {
 428              		.loc 1 64 0
 429              		.cfi_startproc
 430              		@ args = 0, pretend = 0, frame = 0
 431              		@ frame_needed = 0, uses_anonymous_args = 0
 432              	.LVL26:
 433 0000 10B5     		push	{r4, lr}	@
 434              		.cfi_def_cfa_offset 8
 435              		.cfi_offset 4, -8
 436              		.cfi_offset 14, -4
 437              		.loc 1 64 0
 438 0002 0200     		movs	r2, r0	@ charBuffer, charBuffer
 439 0004 0B00     		movs	r3, r1	@ length, length
  65:src/board.c   ****   return Chip_UART_ReadRB(LPC_USART, &uart_rx_ring, charBuffer, length);
 440              		.loc 1 65 0
 441 0006 0248     		ldr	r0, .L29	@,
 442              	.LVL27:
 443 0008 0249     		ldr	r1, .L29+4	@,
 444              	.LVL28:
 445 000a FFF7FEFF 		bl	Chip_UART_ReadRB	@
 446              	.LVL29:
  66:src/board.c   **** }
 447              		.loc 1 66 0
 448              		@ sp needed	@
 449 000e 10BD     		pop	{r4, pc}
 450              	.L30:
 451              		.align	2
 452              	.L29:
 453 0010 00800040 		.word	1073774592
 454 0014 00000000 		.word	.LANCHOR1
 455              		.cfi_endproc
 456              	.LFE206:
 457              		.size	Board_Read, .-Board_Read
 458              		.section	.text.Board_Print_BLOCKING,"ax",%progbits
 459              		.align	2
 460              		.global	Board_Print_BLOCKING
 461              		.code	16
 462              		.thumb_func
 463              		.type	Board_Print_BLOCKING, %function
 464              	Board_Print_BLOCKING:
 465              	.LFB207:
  67:src/board.c   **** 
  68:src/board.c   **** // USE THESE SPARINGLY. ONLY WHEN A PRINT WOULD RESULT IN A BUFFER OVERFLOW
  69:src/board.c   **** uint32_t Board_Print_BLOCKING(const char *str) {
 466              		.loc 1 69 0
 467              		.cfi_startproc
 468              		@ args = 0, pretend = 0, frame = 0
 469              		@ frame_needed = 0, uses_anonymous_args = 0
 470              	.LVL30:
 471 0000 10B5     		push	{r4, lr}	@
 472              		.cfi_def_cfa_offset 8
 473              		.cfi_offset 4, -8
 474              		.cfi_offset 14, -4
ARM GAS  /var/folders/z0/6xlwn_996xz3mwq1cgzkbq4r0000gp/T//ccmGTjkW.s 			page 22


 475              		.loc 1 69 0
 476 0002 0400     		movs	r4, r0	@ str, str
  70:src/board.c   ****   return Chip_UART_SendBlocking(LPC_USART, str, strlen(str));
 477              		.loc 1 70 0
 478 0004 FFF7FEFF 		bl	strlen	@
 479              	.LVL31:
 480 0008 2100     		movs	r1, r4	@, str
 481 000a 0200     		movs	r2, r0	@ tmp116,
 482 000c 0148     		ldr	r0, .L32	@,
 483 000e FFF7FEFF 		bl	Chip_UART_SendBlocking	@
 484              	.LVL32:
  71:src/board.c   **** }
 485              		.loc 1 71 0
 486              		@ sp needed	@
 487              	.LVL33:
 488 0012 10BD     		pop	{r4, pc}
 489              	.L33:
 490              		.align	2
 491              	.L32:
 492 0014 00800040 		.word	1073774592
 493              		.cfi_endproc
 494              	.LFE207:
 495              		.size	Board_Print_BLOCKING, .-Board_Print_BLOCKING
 496              		.section	.text.Board_Println_BLOCKING,"ax",%progbits
 497              		.align	2
 498              		.global	Board_Println_BLOCKING
 499              		.code	16
 500              		.thumb_func
 501              		.type	Board_Println_BLOCKING, %function
 502              	Board_Println_BLOCKING:
 503              	.LFB208:
  72:src/board.c   **** 
  73:src/board.c   **** uint32_t Board_Println_BLOCKING(const char *str) {
 504              		.loc 1 73 0
 505              		.cfi_startproc
 506              		@ args = 0, pretend = 0, frame = 0
 507              		@ frame_needed = 0, uses_anonymous_args = 0
 508              	.LVL34:
 509 0000 10B5     		push	{r4, lr}	@
 510              		.cfi_def_cfa_offset 8
 511              		.cfi_offset 4, -8
 512              		.cfi_offset 14, -4
  74:src/board.c   ****   uint32_t count = Board_Print_BLOCKING(str);
 513              		.loc 1 74 0
 514 0002 FFF7FEFF 		bl	Board_Print_BLOCKING	@
 515              	.LVL35:
 516 0006 0400     		movs	r4, r0	@ count,
 517              	.LVL36:
  75:src/board.c   ****   return count + Board_Print_BLOCKING("\r\n");
 518              		.loc 1 75 0
 519 0008 0248     		ldr	r0, .L35	@,
 520              	.LVL37:
 521 000a FFF7FEFF 		bl	Board_Print_BLOCKING	@
 522              	.LVL38:
  76:src/board.c   **** }
 523              		.loc 1 76 0
 524              		@ sp needed	@
ARM GAS  /var/folders/z0/6xlwn_996xz3mwq1cgzkbq4r0000gp/T//ccmGTjkW.s 			page 23


  75:src/board.c   ****   return count + Board_Print_BLOCKING("\r\n");
 525              		.loc 1 75 0
 526 000e 2018     		adds	r0, r4, r0	@ D.8190, count, D.8189
 527              	.LVL39:
 528              		.loc 1 76 0
 529 0010 10BD     		pop	{r4, pc}
 530              	.L36:
 531 0012 C046     		.align	2
 532              	.L35:
 533 0014 00000000 		.word	.LC6
 534              		.cfi_endproc
 535              	.LFE208:
 536              		.size	Board_Println_BLOCKING, .-Board_Println_BLOCKING
 537              		.section	.text.Board_Can_Init,"ax",%progbits
 538              		.align	2
 539              		.global	Board_Can_Init
 540              		.code	16
 541              		.thumb_func
 542              		.type	Board_Can_Init, %function
 543              	Board_Can_Init:
 544              	.LFB209:
  77:src/board.c   **** 
  78:src/board.c   **** void Board_Can_Init(uint32_t baud_rate) {
 545              		.loc 1 78 0
 546              		.cfi_startproc
 547              		@ args = 0, pretend = 0, frame = 0
 548              		@ frame_needed = 0, uses_anonymous_args = 0
 549              	.LVL40:
 550 0000 10B5     		push	{r4, lr}	@
 551              		.cfi_def_cfa_offset 8
 552              		.cfi_offset 4, -8
 553              		.cfi_offset 14, -4
  79:src/board.c   ****   Can0_Csb_Init(baud_rate);
 554              		.loc 1 79 0
 555 0002 FFF7FEFF 		bl	Can0_Csb_Init	@
 556              	.LVL41:
  80:src/board.c   **** }
 557              		.loc 1 80 0
 558              		@ sp needed	@
 559 0006 10BD     		pop	{r4, pc}
 560              		.cfi_endproc
 561              	.LFE209:
 562              		.size	Board_Can_Init, .-Board_Can_Init
 563              		.section	.text.Board_UART_Init,"ax",%progbits
 564              		.align	2
 565              		.global	Board_UART_Init
 566              		.code	16
 567              		.thumb_func
 568              		.type	Board_UART_Init, %function
 569              	Board_UART_Init:
 570              	.LFB210:
  81:src/board.c   **** 
  82:src/board.c   **** void Board_UART_Init(uint32_t baudRateHz) {
 571              		.loc 1 82 0
 572              		.cfi_startproc
 573              		@ args = 0, pretend = 0, frame = 0
 574              		@ frame_needed = 0, uses_anonymous_args = 0
ARM GAS  /var/folders/z0/6xlwn_996xz3mwq1cgzkbq4r0000gp/T//ccmGTjkW.s 			page 24


 575              	.LVL42:
 576 0000 70B5     		push	{r4, r5, r6, lr}	@
 577              		.cfi_def_cfa_offset 16
 578              		.cfi_offset 4, -16
 579              		.cfi_offset 5, -12
 580              		.cfi_offset 6, -8
 581              		.cfi_offset 14, -4
 582              	.LBB44:
 583              	.LBB45:
 584              		.file 3 "../../lib/lpc11cx4-library/lpc_chip_11cxx_lib/inc/ring_buffer.h"
   1:../../lib/lpc11cx4-library/lpc_chip_11cxx_lib/inc/ring_buffer.h **** /*
   2:../../lib/lpc11cx4-library/lpc_chip_11cxx_lib/inc/ring_buffer.h ****  * @brief Common ring buffer support functions
   3:../../lib/lpc11cx4-library/lpc_chip_11cxx_lib/inc/ring_buffer.h ****  *
   4:../../lib/lpc11cx4-library/lpc_chip_11cxx_lib/inc/ring_buffer.h ****  * @note
   5:../../lib/lpc11cx4-library/lpc_chip_11cxx_lib/inc/ring_buffer.h ****  * Copyright(C) NXP Semiconductors, 2012
   6:../../lib/lpc11cx4-library/lpc_chip_11cxx_lib/inc/ring_buffer.h ****  * All rights reserved.
   7:../../lib/lpc11cx4-library/lpc_chip_11cxx_lib/inc/ring_buffer.h ****  *
   8:../../lib/lpc11cx4-library/lpc_chip_11cxx_lib/inc/ring_buffer.h ****  * @par
   9:../../lib/lpc11cx4-library/lpc_chip_11cxx_lib/inc/ring_buffer.h ****  * Software that is described herein is for illustrative purposes only
  10:../../lib/lpc11cx4-library/lpc_chip_11cxx_lib/inc/ring_buffer.h ****  * which provides customers with programming information regarding the
  11:../../lib/lpc11cx4-library/lpc_chip_11cxx_lib/inc/ring_buffer.h ****  * LPC products.  This software is supplied "AS IS" without any warranties of
  12:../../lib/lpc11cx4-library/lpc_chip_11cxx_lib/inc/ring_buffer.h ****  * any kind, and NXP Semiconductors and its licensor disclaim any and
  13:../../lib/lpc11cx4-library/lpc_chip_11cxx_lib/inc/ring_buffer.h ****  * all warranties, express or implied, including all implied warranties of
  14:../../lib/lpc11cx4-library/lpc_chip_11cxx_lib/inc/ring_buffer.h ****  * merchantability, fitness for a particular purpose and non-infringement of
  15:../../lib/lpc11cx4-library/lpc_chip_11cxx_lib/inc/ring_buffer.h ****  * intellectual property rights.  NXP Semiconductors assumes no responsibility
  16:../../lib/lpc11cx4-library/lpc_chip_11cxx_lib/inc/ring_buffer.h ****  * or liability for the use of the software, conveys no license or rights under any
  17:../../lib/lpc11cx4-library/lpc_chip_11cxx_lib/inc/ring_buffer.h ****  * patent, copyright, mask work right, or any other intellectual property rights in
  18:../../lib/lpc11cx4-library/lpc_chip_11cxx_lib/inc/ring_buffer.h ****  * or to any products. NXP Semiconductors reserves the right to make changes
  19:../../lib/lpc11cx4-library/lpc_chip_11cxx_lib/inc/ring_buffer.h ****  * in the software without notification. NXP Semiconductors also makes no
  20:../../lib/lpc11cx4-library/lpc_chip_11cxx_lib/inc/ring_buffer.h ****  * representation or warranty that such application will be suitable for the
  21:../../lib/lpc11cx4-library/lpc_chip_11cxx_lib/inc/ring_buffer.h ****  * specified use without further testing or modification.
  22:../../lib/lpc11cx4-library/lpc_chip_11cxx_lib/inc/ring_buffer.h ****  *
  23:../../lib/lpc11cx4-library/lpc_chip_11cxx_lib/inc/ring_buffer.h ****  * @par
  24:../../lib/lpc11cx4-library/lpc_chip_11cxx_lib/inc/ring_buffer.h ****  * Permission to use, copy, modify, and distribute this software and its
  25:../../lib/lpc11cx4-library/lpc_chip_11cxx_lib/inc/ring_buffer.h ****  * documentation is hereby granted, under NXP Semiconductors' and its
  26:../../lib/lpc11cx4-library/lpc_chip_11cxx_lib/inc/ring_buffer.h ****  * licensor's relevant copyrights in the software, without fee, provided that it
  27:../../lib/lpc11cx4-library/lpc_chip_11cxx_lib/inc/ring_buffer.h ****  * is used in conjunction with NXP Semiconductors microcontrollers.  This
  28:../../lib/lpc11cx4-library/lpc_chip_11cxx_lib/inc/ring_buffer.h ****  * copyright, permission, and disclaimer notice must appear in all copies of
  29:../../lib/lpc11cx4-library/lpc_chip_11cxx_lib/inc/ring_buffer.h ****  * this code.
  30:../../lib/lpc11cx4-library/lpc_chip_11cxx_lib/inc/ring_buffer.h ****  */
  31:../../lib/lpc11cx4-library/lpc_chip_11cxx_lib/inc/ring_buffer.h **** 
  32:../../lib/lpc11cx4-library/lpc_chip_11cxx_lib/inc/ring_buffer.h **** #ifndef __RING_BUFFER_H_
  33:../../lib/lpc11cx4-library/lpc_chip_11cxx_lib/inc/ring_buffer.h **** #define __RING_BUFFER_H_
  34:../../lib/lpc11cx4-library/lpc_chip_11cxx_lib/inc/ring_buffer.h **** 
  35:../../lib/lpc11cx4-library/lpc_chip_11cxx_lib/inc/ring_buffer.h **** #include "lpc_types.h"
  36:../../lib/lpc11cx4-library/lpc_chip_11cxx_lib/inc/ring_buffer.h **** 
  37:../../lib/lpc11cx4-library/lpc_chip_11cxx_lib/inc/ring_buffer.h **** /** @defgroup Ring_Buffer CHIP: Simple ring buffer implementation
  38:../../lib/lpc11cx4-library/lpc_chip_11cxx_lib/inc/ring_buffer.h ****  * @ingroup CHIP_Common
  39:../../lib/lpc11cx4-library/lpc_chip_11cxx_lib/inc/ring_buffer.h ****  * @{
  40:../../lib/lpc11cx4-library/lpc_chip_11cxx_lib/inc/ring_buffer.h ****  */
  41:../../lib/lpc11cx4-library/lpc_chip_11cxx_lib/inc/ring_buffer.h **** 
  42:../../lib/lpc11cx4-library/lpc_chip_11cxx_lib/inc/ring_buffer.h **** /**
  43:../../lib/lpc11cx4-library/lpc_chip_11cxx_lib/inc/ring_buffer.h ****  * @brief Ring buffer structure
  44:../../lib/lpc11cx4-library/lpc_chip_11cxx_lib/inc/ring_buffer.h ****  */
  45:../../lib/lpc11cx4-library/lpc_chip_11cxx_lib/inc/ring_buffer.h **** typedef struct {
  46:../../lib/lpc11cx4-library/lpc_chip_11cxx_lib/inc/ring_buffer.h **** 	void *data;
  47:../../lib/lpc11cx4-library/lpc_chip_11cxx_lib/inc/ring_buffer.h **** 	uint32_t count;
ARM GAS  /var/folders/z0/6xlwn_996xz3mwq1cgzkbq4r0000gp/T//ccmGTjkW.s 			page 25


  48:../../lib/lpc11cx4-library/lpc_chip_11cxx_lib/inc/ring_buffer.h **** 	uint32_t itemSz;
  49:../../lib/lpc11cx4-library/lpc_chip_11cxx_lib/inc/ring_buffer.h **** 	uint32_t head;
  50:../../lib/lpc11cx4-library/lpc_chip_11cxx_lib/inc/ring_buffer.h **** 	uint32_t tail;
  51:../../lib/lpc11cx4-library/lpc_chip_11cxx_lib/inc/ring_buffer.h **** } RINGBUFF_T;
  52:../../lib/lpc11cx4-library/lpc_chip_11cxx_lib/inc/ring_buffer.h **** 
  53:../../lib/lpc11cx4-library/lpc_chip_11cxx_lib/inc/ring_buffer.h **** /**
  54:../../lib/lpc11cx4-library/lpc_chip_11cxx_lib/inc/ring_buffer.h ****  * @def		RB_VHEAD(rb)
  55:../../lib/lpc11cx4-library/lpc_chip_11cxx_lib/inc/ring_buffer.h ****  * volatile typecasted head index
  56:../../lib/lpc11cx4-library/lpc_chip_11cxx_lib/inc/ring_buffer.h ****  */
  57:../../lib/lpc11cx4-library/lpc_chip_11cxx_lib/inc/ring_buffer.h **** // #define RB_VHEAD(rb)              (*(volatile uint32_t *) &(rb)->head)
  58:../../lib/lpc11cx4-library/lpc_chip_11cxx_lib/inc/ring_buffer.h **** #define RB_VHEAD(rb)				((volatile uint32_t)(rb->head))
  59:../../lib/lpc11cx4-library/lpc_chip_11cxx_lib/inc/ring_buffer.h **** 
  60:../../lib/lpc11cx4-library/lpc_chip_11cxx_lib/inc/ring_buffer.h **** /**
  61:../../lib/lpc11cx4-library/lpc_chip_11cxx_lib/inc/ring_buffer.h ****  * @def		RB_VTAIL(rb)
  62:../../lib/lpc11cx4-library/lpc_chip_11cxx_lib/inc/ring_buffer.h ****  * volatile typecasted tail index
  63:../../lib/lpc11cx4-library/lpc_chip_11cxx_lib/inc/ring_buffer.h ****  */
  64:../../lib/lpc11cx4-library/lpc_chip_11cxx_lib/inc/ring_buffer.h **** // #define RB_VTAIL(rb)              (*(volatile uint32_t *) &(rb)->tail)
  65:../../lib/lpc11cx4-library/lpc_chip_11cxx_lib/inc/ring_buffer.h **** #define RB_VTAIL(rb)				((volatile uint32_t)(rb->tail))
  66:../../lib/lpc11cx4-library/lpc_chip_11cxx_lib/inc/ring_buffer.h **** 
  67:../../lib/lpc11cx4-library/lpc_chip_11cxx_lib/inc/ring_buffer.h **** /**
  68:../../lib/lpc11cx4-library/lpc_chip_11cxx_lib/inc/ring_buffer.h ****  * @brief	Initialize ring buffer
  69:../../lib/lpc11cx4-library/lpc_chip_11cxx_lib/inc/ring_buffer.h ****  * @param	RingBuff	: Pointer to ring buffer to initialize
  70:../../lib/lpc11cx4-library/lpc_chip_11cxx_lib/inc/ring_buffer.h ****  * @param	buffer		: Pointer to buffer to associate with RingBuff
  71:../../lib/lpc11cx4-library/lpc_chip_11cxx_lib/inc/ring_buffer.h ****  * @param	itemSize	: Size of each buffer item size
  72:../../lib/lpc11cx4-library/lpc_chip_11cxx_lib/inc/ring_buffer.h ****  * @param	count		: Size of ring buffer
  73:../../lib/lpc11cx4-library/lpc_chip_11cxx_lib/inc/ring_buffer.h ****  * @note	Memory pointed by @a buffer must have correct alignment of
  74:../../lib/lpc11cx4-library/lpc_chip_11cxx_lib/inc/ring_buffer.h ****  * 			@a itemSize, and @a count must be a power of 2 and must at
  75:../../lib/lpc11cx4-library/lpc_chip_11cxx_lib/inc/ring_buffer.h ****  * 			least be 2 or greater.
  76:../../lib/lpc11cx4-library/lpc_chip_11cxx_lib/inc/ring_buffer.h ****  * @return	Nothing
  77:../../lib/lpc11cx4-library/lpc_chip_11cxx_lib/inc/ring_buffer.h ****  */
  78:../../lib/lpc11cx4-library/lpc_chip_11cxx_lib/inc/ring_buffer.h **** int RingBuffer_Init(RINGBUFF_T *RingBuff, void *buffer, uint32_t itemSize, uint32_t count);
  79:../../lib/lpc11cx4-library/lpc_chip_11cxx_lib/inc/ring_buffer.h **** 
  80:../../lib/lpc11cx4-library/lpc_chip_11cxx_lib/inc/ring_buffer.h **** /**
  81:../../lib/lpc11cx4-library/lpc_chip_11cxx_lib/inc/ring_buffer.h ****  * @brief	Resets the ring buffer to empty
  82:../../lib/lpc11cx4-library/lpc_chip_11cxx_lib/inc/ring_buffer.h ****  * @param	RingBuff	: Pointer to ring buffer
  83:../../lib/lpc11cx4-library/lpc_chip_11cxx_lib/inc/ring_buffer.h ****  * @return	Nothing
  84:../../lib/lpc11cx4-library/lpc_chip_11cxx_lib/inc/ring_buffer.h ****  */
  85:../../lib/lpc11cx4-library/lpc_chip_11cxx_lib/inc/ring_buffer.h **** STATIC INLINE void RingBuffer_Flush(RINGBUFF_T *RingBuff)
  86:../../lib/lpc11cx4-library/lpc_chip_11cxx_lib/inc/ring_buffer.h **** {
  87:../../lib/lpc11cx4-library/lpc_chip_11cxx_lib/inc/ring_buffer.h **** 	RingBuff->head = RingBuff->tail = 0;
 585              		.loc 3 87 0
 586 0002 0024     		movs	r4, #0	@ tmp116,
 587              	.LBE45:
 588              	.LBE44:
  83:src/board.c   ****   // Initialize UART Buffers
  84:src/board.c   ****   RingBuffer_Init(&uart_rx_ring, _uart_rx_ring, sizeof(uint8_t), UART_BUFFER_SIZE);
 589              		.loc 1 84 0
 590 0004 184D     		ldr	r5, .L39	@ tmp114,
  82:src/board.c   ****   // Initialize UART Buffers
 591              		.loc 1 82 0
 592 0006 0600     		movs	r6, r0	@ baudRateHz, baudRateHz
 593              		.loc 1 84 0
 594 0008 6423     		movs	r3, #100	@,
 595 000a 0122     		movs	r2, #1	@,
 596 000c 1749     		ldr	r1, .L39+4	@,
 597 000e 2800     		movs	r0, r5	@, tmp114
 598              	.LVL43:
ARM GAS  /var/folders/z0/6xlwn_996xz3mwq1cgzkbq4r0000gp/T//ccmGTjkW.s 			page 26


 599 0010 FFF7FEFF 		bl	RingBuffer_Init	@
 600              	.LVL44:
 601              	.LBB47:
 602              	.LBB46:
 603              		.loc 3 87 0
 604 0014 2C61     		str	r4, [r5, #16]	@ tmp116, MEM[(uint32_t *)&uart_rx_ring + 16B]
 605 0016 EC60     		str	r4, [r5, #12]	@ tmp116, MEM[(uint32_t *)&uart_rx_ring + 12B]
 606              	.LBE46:
 607              	.LBE47:
  85:src/board.c   ****   RingBuffer_Flush(&uart_rx_ring);
  86:src/board.c   ****   RingBuffer_Init(&uart_tx_ring, _uart_tx_ring, sizeof(uint8_t), UART_BUFFER_SIZE);
 608              		.loc 1 86 0
 609 0018 154D     		ldr	r5, .L39+8	@ tmp120,
 610 001a 1649     		ldr	r1, .L39+12	@,
 611 001c 6423     		movs	r3, #100	@,
 612 001e 0122     		movs	r2, #1	@,
 613 0020 2800     		movs	r0, r5	@, tmp120
 614 0022 FFF7FEFF 		bl	RingBuffer_Init	@
 615              	.LVL45:
 616              	.LBB48:
 617              	.LBB49:
 618              		.loc 3 87 0
 619 0026 2C61     		str	r4, [r5, #16]	@ tmp116, MEM[(uint32_t *)&uart_tx_ring + 16B]
 620 0028 EC60     		str	r4, [r5, #12]	@ tmp116, MEM[(uint32_t *)&uart_tx_ring + 12B]
 621              	.LVL46:
 622              	.LBE49:
 623              	.LBE48:
 624              	.LBB50:
 625              	.LBB51:
 626              		.file 4 "../../lib/lpc11cx4-library/lpc_chip_11cxx_lib/inc/iocon_11xx.h"
   1:../../lib/lpc11cx4-library/lpc_chip_11cxx_lib/inc/iocon_11xx.h **** /*
   2:../../lib/lpc11cx4-library/lpc_chip_11cxx_lib/inc/iocon_11xx.h ****  * @brief IOCON registers and control functions
   3:../../lib/lpc11cx4-library/lpc_chip_11cxx_lib/inc/iocon_11xx.h ****  *
   4:../../lib/lpc11cx4-library/lpc_chip_11cxx_lib/inc/iocon_11xx.h ****  * @note
   5:../../lib/lpc11cx4-library/lpc_chip_11cxx_lib/inc/iocon_11xx.h ****  * Copyright(C) NXP Semiconductors, 2012
   6:../../lib/lpc11cx4-library/lpc_chip_11cxx_lib/inc/iocon_11xx.h ****  * All rights reserved.
   7:../../lib/lpc11cx4-library/lpc_chip_11cxx_lib/inc/iocon_11xx.h ****  *
   8:../../lib/lpc11cx4-library/lpc_chip_11cxx_lib/inc/iocon_11xx.h ****  * @par
   9:../../lib/lpc11cx4-library/lpc_chip_11cxx_lib/inc/iocon_11xx.h ****  * Software that is described herein is for illustrative purposes only
  10:../../lib/lpc11cx4-library/lpc_chip_11cxx_lib/inc/iocon_11xx.h ****  * which provides customers with programming information regarding the
  11:../../lib/lpc11cx4-library/lpc_chip_11cxx_lib/inc/iocon_11xx.h ****  * LPC products.  This software is supplied "AS IS" without any warranties of
  12:../../lib/lpc11cx4-library/lpc_chip_11cxx_lib/inc/iocon_11xx.h ****  * any kind, and NXP Semiconductors and its licensor disclaim any and
  13:../../lib/lpc11cx4-library/lpc_chip_11cxx_lib/inc/iocon_11xx.h ****  * all warranties, express or implied, including all implied warranties of
  14:../../lib/lpc11cx4-library/lpc_chip_11cxx_lib/inc/iocon_11xx.h ****  * merchantability, fitness for a particular purpose and non-infringement of
  15:../../lib/lpc11cx4-library/lpc_chip_11cxx_lib/inc/iocon_11xx.h ****  * intellectual property rights.  NXP Semiconductors assumes no responsibility
  16:../../lib/lpc11cx4-library/lpc_chip_11cxx_lib/inc/iocon_11xx.h ****  * or liability for the use of the software, conveys no license or rights under any
  17:../../lib/lpc11cx4-library/lpc_chip_11cxx_lib/inc/iocon_11xx.h ****  * patent, copyright, mask work right, or any other intellectual property rights in
  18:../../lib/lpc11cx4-library/lpc_chip_11cxx_lib/inc/iocon_11xx.h ****  * or to any products. NXP Semiconductors reserves the right to make changes
  19:../../lib/lpc11cx4-library/lpc_chip_11cxx_lib/inc/iocon_11xx.h ****  * in the software without notification. NXP Semiconductors also makes no
  20:../../lib/lpc11cx4-library/lpc_chip_11cxx_lib/inc/iocon_11xx.h ****  * representation or warranty that such application will be suitable for the
  21:../../lib/lpc11cx4-library/lpc_chip_11cxx_lib/inc/iocon_11xx.h ****  * specified use without further testing or modification.
  22:../../lib/lpc11cx4-library/lpc_chip_11cxx_lib/inc/iocon_11xx.h ****  *
  23:../../lib/lpc11cx4-library/lpc_chip_11cxx_lib/inc/iocon_11xx.h ****  * @par
  24:../../lib/lpc11cx4-library/lpc_chip_11cxx_lib/inc/iocon_11xx.h ****  * Permission to use, copy, modify, and distribute this software and its
  25:../../lib/lpc11cx4-library/lpc_chip_11cxx_lib/inc/iocon_11xx.h ****  * documentation is hereby granted, under NXP Semiconductors' and its
  26:../../lib/lpc11cx4-library/lpc_chip_11cxx_lib/inc/iocon_11xx.h ****  * licensor's relevant copyrights in the software, without fee, provided that it
  27:../../lib/lpc11cx4-library/lpc_chip_11cxx_lib/inc/iocon_11xx.h ****  * is used in conjunction with NXP Semiconductors microcontrollers.  This
ARM GAS  /var/folders/z0/6xlwn_996xz3mwq1cgzkbq4r0000gp/T//ccmGTjkW.s 			page 27


  28:../../lib/lpc11cx4-library/lpc_chip_11cxx_lib/inc/iocon_11xx.h ****  * copyright, permission, and disclaimer notice must appear in all copies of
  29:../../lib/lpc11cx4-library/lpc_chip_11cxx_lib/inc/iocon_11xx.h ****  * this code.
  30:../../lib/lpc11cx4-library/lpc_chip_11cxx_lib/inc/iocon_11xx.h ****  */
  31:../../lib/lpc11cx4-library/lpc_chip_11cxx_lib/inc/iocon_11xx.h **** 
  32:../../lib/lpc11cx4-library/lpc_chip_11cxx_lib/inc/iocon_11xx.h **** #ifndef __IOCON_11XX_H_
  33:../../lib/lpc11cx4-library/lpc_chip_11cxx_lib/inc/iocon_11xx.h **** #define __IOCON_11XX_H_
  34:../../lib/lpc11cx4-library/lpc_chip_11cxx_lib/inc/iocon_11xx.h **** 
  35:../../lib/lpc11cx4-library/lpc_chip_11cxx_lib/inc/iocon_11xx.h **** #ifdef __cplusplus
  36:../../lib/lpc11cx4-library/lpc_chip_11cxx_lib/inc/iocon_11xx.h **** extern "C" {
  37:../../lib/lpc11cx4-library/lpc_chip_11cxx_lib/inc/iocon_11xx.h **** #endif
  38:../../lib/lpc11cx4-library/lpc_chip_11cxx_lib/inc/iocon_11xx.h **** 
  39:../../lib/lpc11cx4-library/lpc_chip_11cxx_lib/inc/iocon_11xx.h **** /** @defgroup IOCON_11XX CHIP: LPC11xx IO Control driver
  40:../../lib/lpc11cx4-library/lpc_chip_11cxx_lib/inc/iocon_11xx.h ****  * @ingroup CHIP_11XX_Drivers
  41:../../lib/lpc11cx4-library/lpc_chip_11cxx_lib/inc/iocon_11xx.h ****  * @{
  42:../../lib/lpc11cx4-library/lpc_chip_11cxx_lib/inc/iocon_11xx.h ****  */
  43:../../lib/lpc11cx4-library/lpc_chip_11cxx_lib/inc/iocon_11xx.h **** 
  44:../../lib/lpc11cx4-library/lpc_chip_11cxx_lib/inc/iocon_11xx.h **** /**
  45:../../lib/lpc11cx4-library/lpc_chip_11cxx_lib/inc/iocon_11xx.h ****  * @brief IO Configuration Unit register block structure
  46:../../lib/lpc11cx4-library/lpc_chip_11cxx_lib/inc/iocon_11xx.h ****  */
  47:../../lib/lpc11cx4-library/lpc_chip_11cxx_lib/inc/iocon_11xx.h **** #if defined(CHIP_LPC11UXX) || defined(CHIP_LPC11EXX) || defined(CHIP_LPC11AXX)
  48:../../lib/lpc11cx4-library/lpc_chip_11cxx_lib/inc/iocon_11xx.h **** typedef struct {						/*!< LPC11AXX/LPC11UXX/LPC11EXX IOCON Structure */
  49:../../lib/lpc11cx4-library/lpc_chip_11cxx_lib/inc/iocon_11xx.h **** 	__IO uint32_t  PIO0[24];
  50:../../lib/lpc11cx4-library/lpc_chip_11cxx_lib/inc/iocon_11xx.h **** 	__IO uint32_t  PIO1[32];
  51:../../lib/lpc11cx4-library/lpc_chip_11cxx_lib/inc/iocon_11xx.h **** } LPC_IOCON_T;
  52:../../lib/lpc11cx4-library/lpc_chip_11cxx_lib/inc/iocon_11xx.h **** 
  53:../../lib/lpc11cx4-library/lpc_chip_11cxx_lib/inc/iocon_11xx.h **** #else
  54:../../lib/lpc11cx4-library/lpc_chip_11cxx_lib/inc/iocon_11xx.h **** /**
  55:../../lib/lpc11cx4-library/lpc_chip_11cxx_lib/inc/iocon_11xx.h ****  * @brief LPC11XX I/O Configuration register offset
  56:../../lib/lpc11cx4-library/lpc_chip_11cxx_lib/inc/iocon_11xx.h ****  */
  57:../../lib/lpc11cx4-library/lpc_chip_11cxx_lib/inc/iocon_11xx.h **** typedef enum CHIP_IOCON_PIO {
  58:../../lib/lpc11cx4-library/lpc_chip_11cxx_lib/inc/iocon_11xx.h **** 	IOCON_PIO0_0 = (0x00C >> 2),
  59:../../lib/lpc11cx4-library/lpc_chip_11cxx_lib/inc/iocon_11xx.h **** 	IOCON_PIO0_1 = (0x010 >> 2),
  60:../../lib/lpc11cx4-library/lpc_chip_11cxx_lib/inc/iocon_11xx.h **** 	IOCON_PIO0_2 = (0x01C >> 2),
  61:../../lib/lpc11cx4-library/lpc_chip_11cxx_lib/inc/iocon_11xx.h **** 	IOCON_PIO0_3 = (0x02C >> 2),
  62:../../lib/lpc11cx4-library/lpc_chip_11cxx_lib/inc/iocon_11xx.h **** 	IOCON_PIO0_4 = (0x030 >> 2),
  63:../../lib/lpc11cx4-library/lpc_chip_11cxx_lib/inc/iocon_11xx.h **** 	IOCON_PIO0_5 = (0x034 >> 2),
  64:../../lib/lpc11cx4-library/lpc_chip_11cxx_lib/inc/iocon_11xx.h **** 	IOCON_PIO0_6 = (0x04C >> 2),
  65:../../lib/lpc11cx4-library/lpc_chip_11cxx_lib/inc/iocon_11xx.h **** 	IOCON_PIO0_7 = (0x050 >> 2),
  66:../../lib/lpc11cx4-library/lpc_chip_11cxx_lib/inc/iocon_11xx.h **** 	IOCON_PIO0_8 = (0x060 >> 2),
  67:../../lib/lpc11cx4-library/lpc_chip_11cxx_lib/inc/iocon_11xx.h **** 	IOCON_PIO0_9 = (0x064 >> 2),
  68:../../lib/lpc11cx4-library/lpc_chip_11cxx_lib/inc/iocon_11xx.h **** 	IOCON_PIO0_10 = (0x068 >> 2),
  69:../../lib/lpc11cx4-library/lpc_chip_11cxx_lib/inc/iocon_11xx.h **** 	IOCON_PIO0_11 = (0x074 >> 2),
  70:../../lib/lpc11cx4-library/lpc_chip_11cxx_lib/inc/iocon_11xx.h **** 
  71:../../lib/lpc11cx4-library/lpc_chip_11cxx_lib/inc/iocon_11xx.h **** 	IOCON_PIO1_0 = (0x078 >> 2),
  72:../../lib/lpc11cx4-library/lpc_chip_11cxx_lib/inc/iocon_11xx.h **** 	IOCON_PIO1_1 = (0x07C >> 2),
  73:../../lib/lpc11cx4-library/lpc_chip_11cxx_lib/inc/iocon_11xx.h **** 	IOCON_PIO1_2 = (0x080 >> 2),
  74:../../lib/lpc11cx4-library/lpc_chip_11cxx_lib/inc/iocon_11xx.h **** 	IOCON_PIO1_3 = (0x090 >> 2),
  75:../../lib/lpc11cx4-library/lpc_chip_11cxx_lib/inc/iocon_11xx.h **** 	IOCON_PIO1_4 = (0x094 >> 2),
  76:../../lib/lpc11cx4-library/lpc_chip_11cxx_lib/inc/iocon_11xx.h **** 	IOCON_PIO1_5 = (0x0A0 >> 2),
  77:../../lib/lpc11cx4-library/lpc_chip_11cxx_lib/inc/iocon_11xx.h **** 	IOCON_PIO1_6 = (0x0A4 >> 2),
  78:../../lib/lpc11cx4-library/lpc_chip_11cxx_lib/inc/iocon_11xx.h **** 	IOCON_PIO1_7 = (0x0A8 >> 2),
  79:../../lib/lpc11cx4-library/lpc_chip_11cxx_lib/inc/iocon_11xx.h **** 	IOCON_PIO1_8 = (0x014 >> 2),
  80:../../lib/lpc11cx4-library/lpc_chip_11cxx_lib/inc/iocon_11xx.h **** 	IOCON_PIO1_9 = (0x038 >> 2),
  81:../../lib/lpc11cx4-library/lpc_chip_11cxx_lib/inc/iocon_11xx.h **** 	IOCON_PIO1_10 = (0x06C >> 2),
  82:../../lib/lpc11cx4-library/lpc_chip_11cxx_lib/inc/iocon_11xx.h **** 	IOCON_PIO1_11 = (0x098 >> 2),
  83:../../lib/lpc11cx4-library/lpc_chip_11cxx_lib/inc/iocon_11xx.h **** 
  84:../../lib/lpc11cx4-library/lpc_chip_11cxx_lib/inc/iocon_11xx.h **** 	IOCON_PIO2_0 = (0x008 >> 2),
ARM GAS  /var/folders/z0/6xlwn_996xz3mwq1cgzkbq4r0000gp/T//ccmGTjkW.s 			page 28


  85:../../lib/lpc11cx4-library/lpc_chip_11cxx_lib/inc/iocon_11xx.h **** 	IOCON_PIO2_1 = (0x028 >> 2),
  86:../../lib/lpc11cx4-library/lpc_chip_11cxx_lib/inc/iocon_11xx.h **** 	IOCON_PIO2_2 = (0x05C >> 2),
  87:../../lib/lpc11cx4-library/lpc_chip_11cxx_lib/inc/iocon_11xx.h **** 	IOCON_PIO2_3 = (0x08C >> 2),
  88:../../lib/lpc11cx4-library/lpc_chip_11cxx_lib/inc/iocon_11xx.h **** 	IOCON_PIO2_4 = (0x040 >> 2),
  89:../../lib/lpc11cx4-library/lpc_chip_11cxx_lib/inc/iocon_11xx.h **** 	IOCON_PIO2_5 = (0x044 >> 2),
  90:../../lib/lpc11cx4-library/lpc_chip_11cxx_lib/inc/iocon_11xx.h **** 	IOCON_PIO2_6 = (0x000 >> 2),
  91:../../lib/lpc11cx4-library/lpc_chip_11cxx_lib/inc/iocon_11xx.h **** 	IOCON_PIO2_7 = (0x020 >> 2),
  92:../../lib/lpc11cx4-library/lpc_chip_11cxx_lib/inc/iocon_11xx.h **** 	IOCON_PIO2_8 = (0x024 >> 2),
  93:../../lib/lpc11cx4-library/lpc_chip_11cxx_lib/inc/iocon_11xx.h **** 	IOCON_PIO2_9 = (0x054 >> 2),
  94:../../lib/lpc11cx4-library/lpc_chip_11cxx_lib/inc/iocon_11xx.h **** 	IOCON_PIO2_10 = (0x058 >> 2),
  95:../../lib/lpc11cx4-library/lpc_chip_11cxx_lib/inc/iocon_11xx.h **** #if !defined(CHIP_LPC1125)
  96:../../lib/lpc11cx4-library/lpc_chip_11cxx_lib/inc/iocon_11xx.h **** 	IOCON_PIO2_11 = (0x070 >> 2),
  97:../../lib/lpc11cx4-library/lpc_chip_11cxx_lib/inc/iocon_11xx.h **** #endif
  98:../../lib/lpc11cx4-library/lpc_chip_11cxx_lib/inc/iocon_11xx.h **** 
  99:../../lib/lpc11cx4-library/lpc_chip_11cxx_lib/inc/iocon_11xx.h **** 	IOCON_PIO3_0 = (0x084 >> 2),
 100:../../lib/lpc11cx4-library/lpc_chip_11cxx_lib/inc/iocon_11xx.h **** #if !defined(CHIP_LPC1125)
 101:../../lib/lpc11cx4-library/lpc_chip_11cxx_lib/inc/iocon_11xx.h **** 	IOCON_PIO3_1 = (0x088 >> 2),
 102:../../lib/lpc11cx4-library/lpc_chip_11cxx_lib/inc/iocon_11xx.h **** #endif    
 103:../../lib/lpc11cx4-library/lpc_chip_11cxx_lib/inc/iocon_11xx.h **** 	IOCON_PIO3_2 = (0x09C >> 2),
 104:../../lib/lpc11cx4-library/lpc_chip_11cxx_lib/inc/iocon_11xx.h **** 	IOCON_PIO3_3 = (0x0AC >> 2),
 105:../../lib/lpc11cx4-library/lpc_chip_11cxx_lib/inc/iocon_11xx.h **** 	IOCON_PIO3_4 = (0x03C >> 2),
 106:../../lib/lpc11cx4-library/lpc_chip_11cxx_lib/inc/iocon_11xx.h **** 	IOCON_PIO3_5 = (0x048 >> 2),
 107:../../lib/lpc11cx4-library/lpc_chip_11cxx_lib/inc/iocon_11xx.h **** } CHIP_IOCON_PIO_T;
 108:../../lib/lpc11cx4-library/lpc_chip_11cxx_lib/inc/iocon_11xx.h **** 
 109:../../lib/lpc11cx4-library/lpc_chip_11cxx_lib/inc/iocon_11xx.h **** /**
 110:../../lib/lpc11cx4-library/lpc_chip_11cxx_lib/inc/iocon_11xx.h ****  * @brief LPC11XX Pin location select
 111:../../lib/lpc11cx4-library/lpc_chip_11cxx_lib/inc/iocon_11xx.h ****  */
 112:../../lib/lpc11cx4-library/lpc_chip_11cxx_lib/inc/iocon_11xx.h **** typedef enum CHIP_IOCON_PIN_LOC {
 113:../../lib/lpc11cx4-library/lpc_chip_11cxx_lib/inc/iocon_11xx.h **** 	IOCON_SCKLOC_PIO0_10        = (0xB0),		/*!< Selects SCK0 function in pin location PIO0_10 */
 114:../../lib/lpc11cx4-library/lpc_chip_11cxx_lib/inc/iocon_11xx.h **** #if !defined(CHIP_LPC1125)
 115:../../lib/lpc11cx4-library/lpc_chip_11cxx_lib/inc/iocon_11xx.h **** 	IOCON_SCKLOC_PIO2_11        = (0xB0 | 1),	/*!< Selects SCK0 function in pin location PIO2_11 */
 116:../../lib/lpc11cx4-library/lpc_chip_11cxx_lib/inc/iocon_11xx.h **** #endif    
 117:../../lib/lpc11cx4-library/lpc_chip_11cxx_lib/inc/iocon_11xx.h **** 	IOCON_SCKLOC_PIO0_6         = (0xB0 | 2),	/*!< Selects SCK0 function in pin location PIO0_6 */
 118:../../lib/lpc11cx4-library/lpc_chip_11cxx_lib/inc/iocon_11xx.h ****     
 119:../../lib/lpc11cx4-library/lpc_chip_11cxx_lib/inc/iocon_11xx.h **** 	IOCON_DSRLOC_PIO2_1         = (0xB4),		/*!< Selects DSR function in pin location PIO2_1 */
 120:../../lib/lpc11cx4-library/lpc_chip_11cxx_lib/inc/iocon_11xx.h **** #if !defined(CHIP_LPC1125)
 121:../../lib/lpc11cx4-library/lpc_chip_11cxx_lib/inc/iocon_11xx.h **** 	IOCON_DSRLOC_PIO3_1         = (0xB4 | 1),	/*!< Selects DSR function in pin location PIO3_1 */
 122:../../lib/lpc11cx4-library/lpc_chip_11cxx_lib/inc/iocon_11xx.h **** #endif    
 123:../../lib/lpc11cx4-library/lpc_chip_11cxx_lib/inc/iocon_11xx.h ****     
 124:../../lib/lpc11cx4-library/lpc_chip_11cxx_lib/inc/iocon_11xx.h **** 	IOCON_DCDLOC_PIO2_2         = (0xB8),		/*!< Selects DCD function in pin location PIO2_2 */
 125:../../lib/lpc11cx4-library/lpc_chip_11cxx_lib/inc/iocon_11xx.h **** 	IOCON_DCDLOC_PIO3_2         = (0xB8 | 1),	/*!< Selects DCD function in pin location PIO3_2 */
 126:../../lib/lpc11cx4-library/lpc_chip_11cxx_lib/inc/iocon_11xx.h ****     
 127:../../lib/lpc11cx4-library/lpc_chip_11cxx_lib/inc/iocon_11xx.h **** 	IOCON_RILOC_PIO2_3          = (0xBC),		/*!< Selects RI function in pin location PIO2_3 */
 128:../../lib/lpc11cx4-library/lpc_chip_11cxx_lib/inc/iocon_11xx.h **** 	IOCON_RILOC_PIO3_3          = (0xBC | 1),	/*!< Selects Ri function in pin location PIO3_3 */
 129:../../lib/lpc11cx4-library/lpc_chip_11cxx_lib/inc/iocon_11xx.h **** 
 130:../../lib/lpc11cx4-library/lpc_chip_11cxx_lib/inc/iocon_11xx.h **** #if defined(CHIP_LPC1125)
 131:../../lib/lpc11cx4-library/lpc_chip_11cxx_lib/inc/iocon_11xx.h **** 	IOCON_SSEL1_LOC_PIO2_2      = (0x18),		/*!< Selects SSEL1 function in pin location PIO2_2 */
 132:../../lib/lpc11cx4-library/lpc_chip_11cxx_lib/inc/iocon_11xx.h **** 	IOCON_SSEL1_LOC_PIO2_4      = (0x18 | 1),	/*!< Selects SSEL1 function in pin location PIO2_4 */
 133:../../lib/lpc11cx4-library/lpc_chip_11cxx_lib/inc/iocon_11xx.h **** 	
 134:../../lib/lpc11cx4-library/lpc_chip_11cxx_lib/inc/iocon_11xx.h ****     IOCON_CT16B0_CAP0_LOC_PIO0_2 = (0xC0),		/*!< Selects SSEL1 CTB16B0_CAP0 function in pin locatio
 135:../../lib/lpc11cx4-library/lpc_chip_11cxx_lib/inc/iocon_11xx.h ****     IOCON_CT16B0_CAP0_LOC_PIO3_3 = (0xC0 | 1),	/*!< Selects SSEL1 CTB16B0_CAP0 function in pin loca
 136:../../lib/lpc11cx4-library/lpc_chip_11cxx_lib/inc/iocon_11xx.h ****     
 137:../../lib/lpc11cx4-library/lpc_chip_11cxx_lib/inc/iocon_11xx.h ****     IOCON_SCK1_LOC_PIO2_1       = (0xC4),		/*!< Selects SCK1 function in pin location PIO2_1 */
 138:../../lib/lpc11cx4-library/lpc_chip_11cxx_lib/inc/iocon_11xx.h ****     IOCON_SCK1_LOC_PIO3_2       = (0xC4 | 1),	/*!< Selects SCK1 function in pin location PIO3_2 */
 139:../../lib/lpc11cx4-library/lpc_chip_11cxx_lib/inc/iocon_11xx.h ****     
 140:../../lib/lpc11cx4-library/lpc_chip_11cxx_lib/inc/iocon_11xx.h ****     IOCON_MISO1_LOC_PIO2_2      = (0xC8),		/*!< Selects MISO1 function in pin location PIO2_2 */
 141:../../lib/lpc11cx4-library/lpc_chip_11cxx_lib/inc/iocon_11xx.h ****     IOCON_MISO1_LOC_PIO1_10     = (0xC8 | 1),	/*!< Selects MISO1 function in pin location PIO1_10 *
ARM GAS  /var/folders/z0/6xlwn_996xz3mwq1cgzkbq4r0000gp/T//ccmGTjkW.s 			page 29


 142:../../lib/lpc11cx4-library/lpc_chip_11cxx_lib/inc/iocon_11xx.h ****     
 143:../../lib/lpc11cx4-library/lpc_chip_11cxx_lib/inc/iocon_11xx.h ****     IOCON_MOSI1_LOC_PIO2_3      = (0xCC),		/*!< Selects MOSI1 function in pin location PIO2_3 */
 144:../../lib/lpc11cx4-library/lpc_chip_11cxx_lib/inc/iocon_11xx.h ****     IOCON_MOSI1_LOC_PIO1_9      = (0xCC),		/*!< Selects MOSI1 function in pin location PIO1_9 */
 145:../../lib/lpc11cx4-library/lpc_chip_11cxx_lib/inc/iocon_11xx.h ****     
 146:../../lib/lpc11cx4-library/lpc_chip_11cxx_lib/inc/iocon_11xx.h ****     IOCON_CT326B0_CAP0_LOC_PIO1_5 = (0xD0),		/*!< Selects CT32B0_CAP0 function in pin location PIO1
 147:../../lib/lpc11cx4-library/lpc_chip_11cxx_lib/inc/iocon_11xx.h ****     IOCON_CT326B0_CAP0_LOC_PIO2_9 = (0xD0 | 1),	/*!< Selects CT32B0_CAP0 function in pin location P
 148:../../lib/lpc11cx4-library/lpc_chip_11cxx_lib/inc/iocon_11xx.h ****     
 149:../../lib/lpc11cx4-library/lpc_chip_11cxx_lib/inc/iocon_11xx.h ****     IOCON_U0_RXD_LOC_PIO1_6     = (0xD4),		/*!< Selects U0 RXD function in pin location PIO1_6 */
 150:../../lib/lpc11cx4-library/lpc_chip_11cxx_lib/inc/iocon_11xx.h ****     IOCON_U0_RXD_LOC_PIO2_7     = (0xD4 | 1),   /*!< Selects U0 RXD function in pin location PIO2_7
 151:../../lib/lpc11cx4-library/lpc_chip_11cxx_lib/inc/iocon_11xx.h ****     IOCON_U0_RXD_LOC_PIO3_4     = (0xD4 | 3),   /*!< Selects U0 RXD function in pin location PIO3_4
 152:../../lib/lpc11cx4-library/lpc_chip_11cxx_lib/inc/iocon_11xx.h **** #endif
 153:../../lib/lpc11cx4-library/lpc_chip_11cxx_lib/inc/iocon_11xx.h **** 
 154:../../lib/lpc11cx4-library/lpc_chip_11cxx_lib/inc/iocon_11xx.h **** } CHIP_IOCON_PIN_LOC_T;
 155:../../lib/lpc11cx4-library/lpc_chip_11cxx_lib/inc/iocon_11xx.h **** 
 156:../../lib/lpc11cx4-library/lpc_chip_11cxx_lib/inc/iocon_11xx.h **** typedef struct {						/*!< LPC11XX/LPC11XXLV/LPC11UXX IOCON Structure */
 157:../../lib/lpc11cx4-library/lpc_chip_11cxx_lib/inc/iocon_11xx.h **** 	__IO uint32_t  REG[48];
 158:../../lib/lpc11cx4-library/lpc_chip_11cxx_lib/inc/iocon_11xx.h **** } LPC_IOCON_T;
 159:../../lib/lpc11cx4-library/lpc_chip_11cxx_lib/inc/iocon_11xx.h **** #endif
 160:../../lib/lpc11cx4-library/lpc_chip_11cxx_lib/inc/iocon_11xx.h **** 
 161:../../lib/lpc11cx4-library/lpc_chip_11cxx_lib/inc/iocon_11xx.h **** /**
 162:../../lib/lpc11cx4-library/lpc_chip_11cxx_lib/inc/iocon_11xx.h ****  * IOCON function and mode selection definitions
 163:../../lib/lpc11cx4-library/lpc_chip_11cxx_lib/inc/iocon_11xx.h ****  * See the User Manual for specific modes and functions supported by the
 164:../../lib/lpc11cx4-library/lpc_chip_11cxx_lib/inc/iocon_11xx.h ****  * various LPC11xx devices. Functionality can vary per device.
 165:../../lib/lpc11cx4-library/lpc_chip_11cxx_lib/inc/iocon_11xx.h ****  */
 166:../../lib/lpc11cx4-library/lpc_chip_11cxx_lib/inc/iocon_11xx.h **** #define IOCON_FUNC0             0x0				/*!< Selects pin function 0 */
 167:../../lib/lpc11cx4-library/lpc_chip_11cxx_lib/inc/iocon_11xx.h **** #define IOCON_FUNC1             0x1				/*!< Selects pin function 1 */
 168:../../lib/lpc11cx4-library/lpc_chip_11cxx_lib/inc/iocon_11xx.h **** #define IOCON_FUNC2             0x2				/*!< Selects pin function 2 */
 169:../../lib/lpc11cx4-library/lpc_chip_11cxx_lib/inc/iocon_11xx.h **** #define IOCON_FUNC3             0x3				/*!< Selects pin function 3 */
 170:../../lib/lpc11cx4-library/lpc_chip_11cxx_lib/inc/iocon_11xx.h **** #define IOCON_FUNC4             0x4				/*!< Selects pin function 4 */
 171:../../lib/lpc11cx4-library/lpc_chip_11cxx_lib/inc/iocon_11xx.h **** #define IOCON_FUNC5             0x5				/*!< Selects pin function 5 */
 172:../../lib/lpc11cx4-library/lpc_chip_11cxx_lib/inc/iocon_11xx.h **** #define IOCON_FUNC6             0x6				/*!< Selects pin function 6 */
 173:../../lib/lpc11cx4-library/lpc_chip_11cxx_lib/inc/iocon_11xx.h **** #define IOCON_FUNC7             0x7				/*!< Selects pin function 7 */
 174:../../lib/lpc11cx4-library/lpc_chip_11cxx_lib/inc/iocon_11xx.h **** #define IOCON_MODE_INACT        (0x0 << 3)		/*!< No addition pin function */
 175:../../lib/lpc11cx4-library/lpc_chip_11cxx_lib/inc/iocon_11xx.h **** #define IOCON_MODE_PULLDOWN     (0x1 << 3)		/*!< Selects pull-down function */
 176:../../lib/lpc11cx4-library/lpc_chip_11cxx_lib/inc/iocon_11xx.h **** #define IOCON_MODE_PULLUP       (0x2 << 3)		/*!< Selects pull-up function */
 177:../../lib/lpc11cx4-library/lpc_chip_11cxx_lib/inc/iocon_11xx.h **** #define IOCON_MODE_REPEATER     (0x3 << 3)		/*!< Selects pin repeater function */
 178:../../lib/lpc11cx4-library/lpc_chip_11cxx_lib/inc/iocon_11xx.h **** #define IOCON_HYS_EN            (0x1 << 5)		/*!< Enables hysteresis */
 179:../../lib/lpc11cx4-library/lpc_chip_11cxx_lib/inc/iocon_11xx.h **** #define IOCON_INV_EN            (0x1 << 6)		/*!< Enables invert function on input */
 180:../../lib/lpc11cx4-library/lpc_chip_11cxx_lib/inc/iocon_11xx.h **** #define IOCON_ADMODE_EN         (0x0 << 7)		/*!< Enables analog input function (analog pins only) *
 181:../../lib/lpc11cx4-library/lpc_chip_11cxx_lib/inc/iocon_11xx.h **** #define IOCON_DIGMODE_EN        (0x1 << 7)		/*!< Enables digital function (analog pins only) */
 182:../../lib/lpc11cx4-library/lpc_chip_11cxx_lib/inc/iocon_11xx.h **** #define IOCON_SFI2C_EN          (0x0 << 8)		/*!< I2C standard mode/fast-mode */
 183:../../lib/lpc11cx4-library/lpc_chip_11cxx_lib/inc/iocon_11xx.h **** #define IOCON_STDI2C_EN         (0x1 << 8)		/*!< I2C standard I/O functionality */
 184:../../lib/lpc11cx4-library/lpc_chip_11cxx_lib/inc/iocon_11xx.h **** #define IOCON_FASTI2C_EN        (0x2 << 8)		/*!< I2C Fast-mode Plus */
 185:../../lib/lpc11cx4-library/lpc_chip_11cxx_lib/inc/iocon_11xx.h **** #define IOCON_FILT_DIS          (0x1 << 8)		/*!< Disables noise pulses filtering (10nS glitch filte
 186:../../lib/lpc11cx4-library/lpc_chip_11cxx_lib/inc/iocon_11xx.h **** #define IOCON_OPENDRAIN_EN      (0x1 << 10)		/*!< Enables open-drain function */
 187:../../lib/lpc11cx4-library/lpc_chip_11cxx_lib/inc/iocon_11xx.h **** 
 188:../../lib/lpc11cx4-library/lpc_chip_11cxx_lib/inc/iocon_11xx.h **** /**
 189:../../lib/lpc11cx4-library/lpc_chip_11cxx_lib/inc/iocon_11xx.h ****  * IOCON function and mode selection definitions (old)
 190:../../lib/lpc11cx4-library/lpc_chip_11cxx_lib/inc/iocon_11xx.h ****  * For backwards compatibility.
 191:../../lib/lpc11cx4-library/lpc_chip_11cxx_lib/inc/iocon_11xx.h ****  */
 192:../../lib/lpc11cx4-library/lpc_chip_11cxx_lib/inc/iocon_11xx.h **** #define MD_PLN					(0x0 << 3)		/*!< Disable pull-down and pull-up resistor at resistor at pad */
 193:../../lib/lpc11cx4-library/lpc_chip_11cxx_lib/inc/iocon_11xx.h **** #define MD_PDN					(0x1 << 3)		/*!< Enable pull-down resistor at pad */
 194:../../lib/lpc11cx4-library/lpc_chip_11cxx_lib/inc/iocon_11xx.h **** #define MD_PUP					(0x2 << 3)		/*!< Enable pull-up resistor at pad */
 195:../../lib/lpc11cx4-library/lpc_chip_11cxx_lib/inc/iocon_11xx.h **** #define MD_BUK					(0x3 << 3)		/*!< Enable pull-down and pull-up resistor at resistor at pad (repea
 196:../../lib/lpc11cx4-library/lpc_chip_11cxx_lib/inc/iocon_11xx.h **** #define MD_HYS					(0x1 << 5)		/*!< Enable hysteresis */
 197:../../lib/lpc11cx4-library/lpc_chip_11cxx_lib/inc/iocon_11xx.h **** #define MD_INV					(0x1 << 6)		/*!< Invert enable */
 198:../../lib/lpc11cx4-library/lpc_chip_11cxx_lib/inc/iocon_11xx.h **** #define MD_ADMODE				(0x0 << 7)		/*!< Select analog mode */
ARM GAS  /var/folders/z0/6xlwn_996xz3mwq1cgzkbq4r0000gp/T//ccmGTjkW.s 			page 30


 199:../../lib/lpc11cx4-library/lpc_chip_11cxx_lib/inc/iocon_11xx.h **** #define MD_DIGMODE				(0x1 << 7)		/*!< Select digitial mode */
 200:../../lib/lpc11cx4-library/lpc_chip_11cxx_lib/inc/iocon_11xx.h **** #define MD_DISFIL				(0x0 << 8)		/*!< Disable 10nS input glitch filter */
 201:../../lib/lpc11cx4-library/lpc_chip_11cxx_lib/inc/iocon_11xx.h **** #define MD_ENFIL				(0x1 << 8)		/*!< Enable 10nS input glitch filter */
 202:../../lib/lpc11cx4-library/lpc_chip_11cxx_lib/inc/iocon_11xx.h **** #define MD_SFI2C				(0x0 << 8)		/*!< I2C standard mode/fast-mode */
 203:../../lib/lpc11cx4-library/lpc_chip_11cxx_lib/inc/iocon_11xx.h **** #define MD_STDI2C				(0x1 << 8)		/*!< I2C standard I/O functionality */
 204:../../lib/lpc11cx4-library/lpc_chip_11cxx_lib/inc/iocon_11xx.h **** #define MD_FASTI2C				(0x2 << 8)		/*!< I2C Fast-mode Plus */
 205:../../lib/lpc11cx4-library/lpc_chip_11cxx_lib/inc/iocon_11xx.h **** #define MD_OPENDRAIN			(0x1 << 10)		/*!< Open drain mode bit */
 206:../../lib/lpc11cx4-library/lpc_chip_11cxx_lib/inc/iocon_11xx.h **** #define FUNC0 0x0
 207:../../lib/lpc11cx4-library/lpc_chip_11cxx_lib/inc/iocon_11xx.h **** #define FUNC1 0x1
 208:../../lib/lpc11cx4-library/lpc_chip_11cxx_lib/inc/iocon_11xx.h **** #define FUNC2 0x2
 209:../../lib/lpc11cx4-library/lpc_chip_11cxx_lib/inc/iocon_11xx.h **** #define FUNC3 0x3
 210:../../lib/lpc11cx4-library/lpc_chip_11cxx_lib/inc/iocon_11xx.h **** #define FUNC4 0x4
 211:../../lib/lpc11cx4-library/lpc_chip_11cxx_lib/inc/iocon_11xx.h **** #define FUNC5 0x5
 212:../../lib/lpc11cx4-library/lpc_chip_11cxx_lib/inc/iocon_11xx.h **** #define FUNC6 0x6
 213:../../lib/lpc11cx4-library/lpc_chip_11cxx_lib/inc/iocon_11xx.h **** #define FUNC7 0x7
 214:../../lib/lpc11cx4-library/lpc_chip_11cxx_lib/inc/iocon_11xx.h **** 
 215:../../lib/lpc11cx4-library/lpc_chip_11cxx_lib/inc/iocon_11xx.h **** #if defined(CHIP_LPC11UXX) || defined(CHIP_LPC11EXX) || defined(CHIP_LPC11AXX)
 216:../../lib/lpc11cx4-library/lpc_chip_11cxx_lib/inc/iocon_11xx.h **** /**
 217:../../lib/lpc11cx4-library/lpc_chip_11cxx_lib/inc/iocon_11xx.h ****  * @brief	Sets I/O Control pin mux
 218:../../lib/lpc11cx4-library/lpc_chip_11cxx_lib/inc/iocon_11xx.h ****  * @param	pIOCON		: The base of IOCON peripheral on the chip
 219:../../lib/lpc11cx4-library/lpc_chip_11cxx_lib/inc/iocon_11xx.h ****  * @param	port		: GPIO port to mux
 220:../../lib/lpc11cx4-library/lpc_chip_11cxx_lib/inc/iocon_11xx.h ****  * @param	pin			: GPIO pin to mux
 221:../../lib/lpc11cx4-library/lpc_chip_11cxx_lib/inc/iocon_11xx.h ****  * @param	modefunc	: OR'ed values or type IOCON_*
 222:../../lib/lpc11cx4-library/lpc_chip_11cxx_lib/inc/iocon_11xx.h ****  * @return	Nothing
 223:../../lib/lpc11cx4-library/lpc_chip_11cxx_lib/inc/iocon_11xx.h ****  */
 224:../../lib/lpc11cx4-library/lpc_chip_11cxx_lib/inc/iocon_11xx.h **** void Chip_IOCON_PinMuxSet(LPC_IOCON_T *pIOCON, uint8_t port, uint8_t pin, uint32_t modefunc);
 225:../../lib/lpc11cx4-library/lpc_chip_11cxx_lib/inc/iocon_11xx.h **** 
 226:../../lib/lpc11cx4-library/lpc_chip_11cxx_lib/inc/iocon_11xx.h **** /**
 227:../../lib/lpc11cx4-library/lpc_chip_11cxx_lib/inc/iocon_11xx.h ****  * @brief	I/O Control pin mux
 228:../../lib/lpc11cx4-library/lpc_chip_11cxx_lib/inc/iocon_11xx.h ****  * @param	pIOCON	: The base of IOCON peripheral on the chip
 229:../../lib/lpc11cx4-library/lpc_chip_11cxx_lib/inc/iocon_11xx.h ****  * @param	port	: GPIO port to mux
 230:../../lib/lpc11cx4-library/lpc_chip_11cxx_lib/inc/iocon_11xx.h ****  * @param	pin		: GPIO pin to mux
 231:../../lib/lpc11cx4-library/lpc_chip_11cxx_lib/inc/iocon_11xx.h ****  * @param	mode	: OR'ed values or type IOCON_*
 232:../../lib/lpc11cx4-library/lpc_chip_11cxx_lib/inc/iocon_11xx.h ****  * @param	func	: Pin function, value of type IOCON_FUNC?
 233:../../lib/lpc11cx4-library/lpc_chip_11cxx_lib/inc/iocon_11xx.h ****  * @return	Nothing
 234:../../lib/lpc11cx4-library/lpc_chip_11cxx_lib/inc/iocon_11xx.h ****  */
 235:../../lib/lpc11cx4-library/lpc_chip_11cxx_lib/inc/iocon_11xx.h **** STATIC INLINE void Chip_IOCON_PinMux(LPC_IOCON_T *pIOCON, uint8_t port, uint8_t pin, uint16_t mode,
 236:../../lib/lpc11cx4-library/lpc_chip_11cxx_lib/inc/iocon_11xx.h **** {
 237:../../lib/lpc11cx4-library/lpc_chip_11cxx_lib/inc/iocon_11xx.h **** 	Chip_IOCON_PinMuxSet(pIOCON, port, pin, (uint32_t) (mode | func));
 238:../../lib/lpc11cx4-library/lpc_chip_11cxx_lib/inc/iocon_11xx.h **** }
 239:../../lib/lpc11cx4-library/lpc_chip_11cxx_lib/inc/iocon_11xx.h **** 
 240:../../lib/lpc11cx4-library/lpc_chip_11cxx_lib/inc/iocon_11xx.h **** #else
 241:../../lib/lpc11cx4-library/lpc_chip_11cxx_lib/inc/iocon_11xx.h **** 
 242:../../lib/lpc11cx4-library/lpc_chip_11cxx_lib/inc/iocon_11xx.h **** /**
 243:../../lib/lpc11cx4-library/lpc_chip_11cxx_lib/inc/iocon_11xx.h ****  * @brief	Sets I/O Control pin mux
 244:../../lib/lpc11cx4-library/lpc_chip_11cxx_lib/inc/iocon_11xx.h ****  * @param	pIOCON		: The base of IOCON peripheral on the chip
 245:../../lib/lpc11cx4-library/lpc_chip_11cxx_lib/inc/iocon_11xx.h ****  * @param	pin			: GPIO pin to mux
 246:../../lib/lpc11cx4-library/lpc_chip_11cxx_lib/inc/iocon_11xx.h ****  * @param	modefunc	: OR'ed values or type IOCON_*
 247:../../lib/lpc11cx4-library/lpc_chip_11cxx_lib/inc/iocon_11xx.h ****  * @return	Nothing
 248:../../lib/lpc11cx4-library/lpc_chip_11cxx_lib/inc/iocon_11xx.h ****  */
 249:../../lib/lpc11cx4-library/lpc_chip_11cxx_lib/inc/iocon_11xx.h **** STATIC INLINE void Chip_IOCON_PinMuxSet(LPC_IOCON_T *pIOCON, CHIP_IOCON_PIO_T pin, uint32_t modefun
 250:../../lib/lpc11cx4-library/lpc_chip_11cxx_lib/inc/iocon_11xx.h **** {
 251:../../lib/lpc11cx4-library/lpc_chip_11cxx_lib/inc/iocon_11xx.h **** 	pIOCON->REG[pin] = modefunc;
 627              		.loc 4 251 0
 628 002a A422     		movs	r2, #164	@ tmp126,
 629 002c 0125     		movs	r5, #1	@ tmp127,
 630 002e 124B     		ldr	r3, .L39+16	@ tmp125,
ARM GAS  /var/folders/z0/6xlwn_996xz3mwq1cgzkbq4r0000gp/T//ccmGTjkW.s 			page 31


 631              	.LBE51:
 632              	.LBE50:
  87:src/board.c   ****   RingBuffer_Flush(&uart_tx_ring);
  88:src/board.c   **** 
  89:src/board.c   ****   Chip_IOCON_PinMuxSet(LPC_IOCON, IOCON_PIO1_6, (IOCON_FUNC1 | IOCON_MODE_INACT));/* RXD */
  90:src/board.c   ****   Chip_IOCON_PinMuxSet(LPC_IOCON, IOCON_PIO1_7, (IOCON_FUNC1 | IOCON_MODE_INACT));/* TXD */
  91:src/board.c   **** 
  92:src/board.c   ****   Chip_UART_Init(LPC_USART);
 633              		.loc 1 92 0
 634 0030 124C     		ldr	r4, .L39+20	@ tmp131,
 635              	.LBB53:
 636              	.LBB52:
 637              		.loc 4 251 0
 638 0032 9D50     		str	r5, [r3, r2]	@ tmp127, MEM[(struct LPC_IOCON_T *)1074020352B].REG
 639              	.LVL47:
 640              	.LBE52:
 641              	.LBE53:
 642              	.LBB54:
 643              	.LBB55:
 644 0034 0432     		adds	r2, r2, #4	@ tmp129,
 645 0036 9D50     		str	r5, [r3, r2]	@ tmp127, MEM[(struct LPC_IOCON_T *)1074020352B].REG
 646              	.LVL48:
 647              	.LBE55:
 648              	.LBE54:
 649              		.loc 1 92 0
 650 0038 2000     		movs	r0, r4	@, tmp131
 651 003a FFF7FEFF 		bl	Chip_UART_Init	@
 652              	.LVL49:
  93:src/board.c   ****   Chip_UART_SetBaudFDR(LPC_USART, baudRateHz);
 653              		.loc 1 93 0
 654 003e 3100     		movs	r1, r6	@, baudRateHz
 655 0040 2000     		movs	r0, r4	@, tmp131
 656 0042 FFF7FEFF 		bl	Chip_UART_SetBaudFDR	@
 657              	.LVL50:
 658              	.LBB56:
 659              	.LBB57:
 660              		.file 5 "../../lib/lpc11cx4-library/lpc_chip_11cxx_lib/inc/uart_11xx.h"
   1:../../lib/lpc11cx4-library/lpc_chip_11cxx_lib/inc/uart_11xx.h **** /*
   2:../../lib/lpc11cx4-library/lpc_chip_11cxx_lib/inc/uart_11xx.h ****  * @brief LPC11xx UART chip driver
   3:../../lib/lpc11cx4-library/lpc_chip_11cxx_lib/inc/uart_11xx.h ****  *
   4:../../lib/lpc11cx4-library/lpc_chip_11cxx_lib/inc/uart_11xx.h ****  * @note
   5:../../lib/lpc11cx4-library/lpc_chip_11cxx_lib/inc/uart_11xx.h ****  * Copyright(C) NXP Semiconductors, 2012
   6:../../lib/lpc11cx4-library/lpc_chip_11cxx_lib/inc/uart_11xx.h ****  * All rights reserved.
   7:../../lib/lpc11cx4-library/lpc_chip_11cxx_lib/inc/uart_11xx.h ****  *
   8:../../lib/lpc11cx4-library/lpc_chip_11cxx_lib/inc/uart_11xx.h ****  * @par
   9:../../lib/lpc11cx4-library/lpc_chip_11cxx_lib/inc/uart_11xx.h ****  * Software that is described herein is for illustrative purposes only
  10:../../lib/lpc11cx4-library/lpc_chip_11cxx_lib/inc/uart_11xx.h ****  * which provides customers with programming information regarding the
  11:../../lib/lpc11cx4-library/lpc_chip_11cxx_lib/inc/uart_11xx.h ****  * LPC products.  This software is supplied "AS IS" without any warranties of
  12:../../lib/lpc11cx4-library/lpc_chip_11cxx_lib/inc/uart_11xx.h ****  * any kind, and NXP Semiconductors and its licensor disclaim any and
  13:../../lib/lpc11cx4-library/lpc_chip_11cxx_lib/inc/uart_11xx.h ****  * all warranties, express or implied, including all implied warranties of
  14:../../lib/lpc11cx4-library/lpc_chip_11cxx_lib/inc/uart_11xx.h ****  * merchantability, fitness for a particular purpose and non-infringement of
  15:../../lib/lpc11cx4-library/lpc_chip_11cxx_lib/inc/uart_11xx.h ****  * intellectual property rights.  NXP Semiconductors assumes no responsibility
  16:../../lib/lpc11cx4-library/lpc_chip_11cxx_lib/inc/uart_11xx.h ****  * or liability for the use of the software, conveys no license or rights under any
  17:../../lib/lpc11cx4-library/lpc_chip_11cxx_lib/inc/uart_11xx.h ****  * patent, copyright, mask work right, or any other intellectual property rights in
  18:../../lib/lpc11cx4-library/lpc_chip_11cxx_lib/inc/uart_11xx.h ****  * or to any products. NXP Semiconductors reserves the right to make changes
  19:../../lib/lpc11cx4-library/lpc_chip_11cxx_lib/inc/uart_11xx.h ****  * in the software without notification. NXP Semiconductors also makes no
  20:../../lib/lpc11cx4-library/lpc_chip_11cxx_lib/inc/uart_11xx.h ****  * representation or warranty that such application will be suitable for the
ARM GAS  /var/folders/z0/6xlwn_996xz3mwq1cgzkbq4r0000gp/T//ccmGTjkW.s 			page 32


  21:../../lib/lpc11cx4-library/lpc_chip_11cxx_lib/inc/uart_11xx.h ****  * specified use without further testing or modification.
  22:../../lib/lpc11cx4-library/lpc_chip_11cxx_lib/inc/uart_11xx.h ****  *
  23:../../lib/lpc11cx4-library/lpc_chip_11cxx_lib/inc/uart_11xx.h ****  * @par
  24:../../lib/lpc11cx4-library/lpc_chip_11cxx_lib/inc/uart_11xx.h ****  * Permission to use, copy, modify, and distribute this software and its
  25:../../lib/lpc11cx4-library/lpc_chip_11cxx_lib/inc/uart_11xx.h ****  * documentation is hereby granted, under NXP Semiconductors' and its
  26:../../lib/lpc11cx4-library/lpc_chip_11cxx_lib/inc/uart_11xx.h ****  * licensor's relevant copyrights in the software, without fee, provided that it
  27:../../lib/lpc11cx4-library/lpc_chip_11cxx_lib/inc/uart_11xx.h ****  * is used in conjunction with NXP Semiconductors microcontrollers.  This
  28:../../lib/lpc11cx4-library/lpc_chip_11cxx_lib/inc/uart_11xx.h ****  * copyright, permission, and disclaimer notice must appear in all copies of
  29:../../lib/lpc11cx4-library/lpc_chip_11cxx_lib/inc/uart_11xx.h ****  * this code.
  30:../../lib/lpc11cx4-library/lpc_chip_11cxx_lib/inc/uart_11xx.h ****  */
  31:../../lib/lpc11cx4-library/lpc_chip_11cxx_lib/inc/uart_11xx.h **** 
  32:../../lib/lpc11cx4-library/lpc_chip_11cxx_lib/inc/uart_11xx.h **** #ifndef __UART_11XX_H_
  33:../../lib/lpc11cx4-library/lpc_chip_11cxx_lib/inc/uart_11xx.h **** #define __UART_11XX_H_
  34:../../lib/lpc11cx4-library/lpc_chip_11cxx_lib/inc/uart_11xx.h **** 
  35:../../lib/lpc11cx4-library/lpc_chip_11cxx_lib/inc/uart_11xx.h **** #include "ring_buffer.h"
  36:../../lib/lpc11cx4-library/lpc_chip_11cxx_lib/inc/uart_11xx.h **** 
  37:../../lib/lpc11cx4-library/lpc_chip_11cxx_lib/inc/uart_11xx.h **** #ifdef __cplusplus
  38:../../lib/lpc11cx4-library/lpc_chip_11cxx_lib/inc/uart_11xx.h **** extern "C" {
  39:../../lib/lpc11cx4-library/lpc_chip_11cxx_lib/inc/uart_11xx.h **** #endif
  40:../../lib/lpc11cx4-library/lpc_chip_11cxx_lib/inc/uart_11xx.h **** 
  41:../../lib/lpc11cx4-library/lpc_chip_11cxx_lib/inc/uart_11xx.h **** /** @defgroup UART_11XX CHIP: LPC11xx UART driver
  42:../../lib/lpc11cx4-library/lpc_chip_11cxx_lib/inc/uart_11xx.h ****  * @ingroup CHIP_11XX_Drivers
  43:../../lib/lpc11cx4-library/lpc_chip_11cxx_lib/inc/uart_11xx.h ****  * @{
  44:../../lib/lpc11cx4-library/lpc_chip_11cxx_lib/inc/uart_11xx.h ****  */
  45:../../lib/lpc11cx4-library/lpc_chip_11cxx_lib/inc/uart_11xx.h **** 
  46:../../lib/lpc11cx4-library/lpc_chip_11cxx_lib/inc/uart_11xx.h **** /**
  47:../../lib/lpc11cx4-library/lpc_chip_11cxx_lib/inc/uart_11xx.h ****  * @brief USART register block structure
  48:../../lib/lpc11cx4-library/lpc_chip_11cxx_lib/inc/uart_11xx.h ****  */
  49:../../lib/lpc11cx4-library/lpc_chip_11cxx_lib/inc/uart_11xx.h **** typedef struct {					/*!< USARTn Structure       */
  50:../../lib/lpc11cx4-library/lpc_chip_11cxx_lib/inc/uart_11xx.h **** 
  51:../../lib/lpc11cx4-library/lpc_chip_11cxx_lib/inc/uart_11xx.h **** 	union {
  52:../../lib/lpc11cx4-library/lpc_chip_11cxx_lib/inc/uart_11xx.h **** 		__IO uint32_t  DLL;			/*!< Divisor Latch LSB. Least significant byte of the baud rate divisor val
  53:../../lib/lpc11cx4-library/lpc_chip_11cxx_lib/inc/uart_11xx.h **** 		__O  uint32_t  THR;			/*!< Transmit Holding Register. The next character to be transmitted is wri
  54:../../lib/lpc11cx4-library/lpc_chip_11cxx_lib/inc/uart_11xx.h **** 		__I  uint32_t  RBR;			/*!< Receiver Buffer Register. Contains the next received character to be r
  55:../../lib/lpc11cx4-library/lpc_chip_11cxx_lib/inc/uart_11xx.h **** 	};
  56:../../lib/lpc11cx4-library/lpc_chip_11cxx_lib/inc/uart_11xx.h **** 
  57:../../lib/lpc11cx4-library/lpc_chip_11cxx_lib/inc/uart_11xx.h **** 	union {
  58:../../lib/lpc11cx4-library/lpc_chip_11cxx_lib/inc/uart_11xx.h **** 		__IO uint32_t IER;			/*!< Interrupt Enable Register. Contains individual interrupt enable bits fo
  59:../../lib/lpc11cx4-library/lpc_chip_11cxx_lib/inc/uart_11xx.h **** 		__IO uint32_t DLM;			/*!< Divisor Latch MSB. Most significant byte of the baud rate divisor value
  60:../../lib/lpc11cx4-library/lpc_chip_11cxx_lib/inc/uart_11xx.h **** 	};
  61:../../lib/lpc11cx4-library/lpc_chip_11cxx_lib/inc/uart_11xx.h **** 
  62:../../lib/lpc11cx4-library/lpc_chip_11cxx_lib/inc/uart_11xx.h **** 	union {
  63:../../lib/lpc11cx4-library/lpc_chip_11cxx_lib/inc/uart_11xx.h **** 		__O  uint32_t FCR;			/*!< FIFO Control Register. Controls UART FIFO usage and modes. */
  64:../../lib/lpc11cx4-library/lpc_chip_11cxx_lib/inc/uart_11xx.h **** 		__I  uint32_t IIR;			/*!< Interrupt ID Register. Identifies which interrupt(s) are pending. */
  65:../../lib/lpc11cx4-library/lpc_chip_11cxx_lib/inc/uart_11xx.h **** 	};
  66:../../lib/lpc11cx4-library/lpc_chip_11cxx_lib/inc/uart_11xx.h **** 
  67:../../lib/lpc11cx4-library/lpc_chip_11cxx_lib/inc/uart_11xx.h **** 	__IO uint32_t LCR;				/*!< Line Control Register. Contains controls for frame formatting and break
  68:../../lib/lpc11cx4-library/lpc_chip_11cxx_lib/inc/uart_11xx.h **** 	__IO uint32_t MCR;				/*!< Modem Control Register. Only present on USART ports with full modem sup
  69:../../lib/lpc11cx4-library/lpc_chip_11cxx_lib/inc/uart_11xx.h **** 	__I  uint32_t LSR;				/*!< Line Status Register. Contains flags for transmit and receive status, i
  70:../../lib/lpc11cx4-library/lpc_chip_11cxx_lib/inc/uart_11xx.h **** 	__I  uint32_t MSR;				/*!< Modem Status Register. Only present on USART ports with full modem supp
  71:../../lib/lpc11cx4-library/lpc_chip_11cxx_lib/inc/uart_11xx.h **** 	__IO uint32_t SCR;				/*!< Scratch Pad Register. Eight-bit temporary storage for software. */
  72:../../lib/lpc11cx4-library/lpc_chip_11cxx_lib/inc/uart_11xx.h **** 	__IO uint32_t ACR;				/*!< Auto-baud Control Register. Contains controls for the auto-baud feature
  73:../../lib/lpc11cx4-library/lpc_chip_11cxx_lib/inc/uart_11xx.h **** 	__IO uint32_t ICR;				/*!< IrDA control register (not all UARTS) */
  74:../../lib/lpc11cx4-library/lpc_chip_11cxx_lib/inc/uart_11xx.h **** 	__IO uint32_t FDR;				/*!< Fractional Divider Register. Generates a clock input for the baud rate 
  75:../../lib/lpc11cx4-library/lpc_chip_11cxx_lib/inc/uart_11xx.h **** 	__IO uint32_t OSR;				/*!< Oversampling Register. Controls the degree of oversampling during each 
  76:../../lib/lpc11cx4-library/lpc_chip_11cxx_lib/inc/uart_11xx.h **** 	__IO uint32_t TER1;				/*!< Transmit Enable Register. Turns off USART transmitter for use with sof
  77:../../lib/lpc11cx4-library/lpc_chip_11cxx_lib/inc/uart_11xx.h **** 	uint32_t  RESERVED0[3];
ARM GAS  /var/folders/z0/6xlwn_996xz3mwq1cgzkbq4r0000gp/T//ccmGTjkW.s 			page 33


  78:../../lib/lpc11cx4-library/lpc_chip_11cxx_lib/inc/uart_11xx.h ****     __IO uint32_t HDEN;				/*!< Half-duplex enable Register- only on some UARTs */
  79:../../lib/lpc11cx4-library/lpc_chip_11cxx_lib/inc/uart_11xx.h **** 	__I  uint32_t RESERVED1[1];
  80:../../lib/lpc11cx4-library/lpc_chip_11cxx_lib/inc/uart_11xx.h **** 	__IO uint32_t SCICTRL;			/*!< Smart card interface control register- only on some UARTs */
  81:../../lib/lpc11cx4-library/lpc_chip_11cxx_lib/inc/uart_11xx.h **** 
  82:../../lib/lpc11cx4-library/lpc_chip_11cxx_lib/inc/uart_11xx.h **** 	__IO uint32_t RS485CTRL;		/*!< RS-485/EIA-485 Control. Contains controls to configure various aspe
  83:../../lib/lpc11cx4-library/lpc_chip_11cxx_lib/inc/uart_11xx.h **** 	__IO uint32_t RS485ADRMATCH;	/*!< RS-485/EIA-485 address match. Contains the address match value f
  84:../../lib/lpc11cx4-library/lpc_chip_11cxx_lib/inc/uart_11xx.h **** 	__IO uint32_t RS485DLY;			/*!< RS-485/EIA-485 direction control delay. */
  85:../../lib/lpc11cx4-library/lpc_chip_11cxx_lib/inc/uart_11xx.h **** 
  86:../../lib/lpc11cx4-library/lpc_chip_11cxx_lib/inc/uart_11xx.h **** 	union {
  87:../../lib/lpc11cx4-library/lpc_chip_11cxx_lib/inc/uart_11xx.h **** 		__IO uint32_t SYNCCTRL;		/*!< Synchronous mode control register. Only on USARTs. */
  88:../../lib/lpc11cx4-library/lpc_chip_11cxx_lib/inc/uart_11xx.h **** 		__I  uint32_t FIFOLVL;		/*!< FIFO Level register. Provides the current fill levels of the transmi
  89:../../lib/lpc11cx4-library/lpc_chip_11cxx_lib/inc/uart_11xx.h **** 	};
  90:../../lib/lpc11cx4-library/lpc_chip_11cxx_lib/inc/uart_11xx.h **** 
  91:../../lib/lpc11cx4-library/lpc_chip_11cxx_lib/inc/uart_11xx.h **** 	__IO uint32_t TER2;				/*!< Transmit Enable Register. Only on LPC177X_8X UART4 and LPC18XX/43XX US
  92:../../lib/lpc11cx4-library/lpc_chip_11cxx_lib/inc/uart_11xx.h **** } LPC_USART_T;
  93:../../lib/lpc11cx4-library/lpc_chip_11cxx_lib/inc/uart_11xx.h **** 
  94:../../lib/lpc11cx4-library/lpc_chip_11cxx_lib/inc/uart_11xx.h **** 
  95:../../lib/lpc11cx4-library/lpc_chip_11cxx_lib/inc/uart_11xx.h **** /**
  96:../../lib/lpc11cx4-library/lpc_chip_11cxx_lib/inc/uart_11xx.h ****  * @brief Macro defines for UART Receive Buffer register
  97:../../lib/lpc11cx4-library/lpc_chip_11cxx_lib/inc/uart_11xx.h ****  */
  98:../../lib/lpc11cx4-library/lpc_chip_11cxx_lib/inc/uart_11xx.h **** #define UART_RBR_MASKBIT    (0xFF)		        /*!< UART Received Buffer mask bit (8 bits) */
  99:../../lib/lpc11cx4-library/lpc_chip_11cxx_lib/inc/uart_11xx.h **** 
 100:../../lib/lpc11cx4-library/lpc_chip_11cxx_lib/inc/uart_11xx.h **** /**
 101:../../lib/lpc11cx4-library/lpc_chip_11cxx_lib/inc/uart_11xx.h ****  * @brief Macro defines for UART Divisor Latch LSB register
 102:../../lib/lpc11cx4-library/lpc_chip_11cxx_lib/inc/uart_11xx.h ****  */
 103:../../lib/lpc11cx4-library/lpc_chip_11cxx_lib/inc/uart_11xx.h **** #define UART_LOAD_DLL(div)  ((div) & 0xFF)		/*!< Macro for loading LSB of divisor */
 104:../../lib/lpc11cx4-library/lpc_chip_11cxx_lib/inc/uart_11xx.h **** #define UART_DLL_MASKBIT    (0xFF)	            /*!< Divisor latch LSB bit mask */
 105:../../lib/lpc11cx4-library/lpc_chip_11cxx_lib/inc/uart_11xx.h **** 
 106:../../lib/lpc11cx4-library/lpc_chip_11cxx_lib/inc/uart_11xx.h **** /**
 107:../../lib/lpc11cx4-library/lpc_chip_11cxx_lib/inc/uart_11xx.h ****  * @brief Macro defines for UART Divisor Latch MSB register
 108:../../lib/lpc11cx4-library/lpc_chip_11cxx_lib/inc/uart_11xx.h ****  */
 109:../../lib/lpc11cx4-library/lpc_chip_11cxx_lib/inc/uart_11xx.h **** #define UART_LOAD_DLM(div)  (((div) >> 8) & 0xFF)	/*!< Macro for loading MSB of divisors */
 110:../../lib/lpc11cx4-library/lpc_chip_11cxx_lib/inc/uart_11xx.h **** #define UART_DLM_MASKBIT    (0xFF)		            /*!< Divisor latch MSB bit mask */
 111:../../lib/lpc11cx4-library/lpc_chip_11cxx_lib/inc/uart_11xx.h **** 
 112:../../lib/lpc11cx4-library/lpc_chip_11cxx_lib/inc/uart_11xx.h **** /**
 113:../../lib/lpc11cx4-library/lpc_chip_11cxx_lib/inc/uart_11xx.h ****  * @brief Macro defines for UART Interrupt Enable Register
 114:../../lib/lpc11cx4-library/lpc_chip_11cxx_lib/inc/uart_11xx.h ****  */
 115:../../lib/lpc11cx4-library/lpc_chip_11cxx_lib/inc/uart_11xx.h **** #define UART_IER_RBRINT      (1 << 0)	/*!< RBR Interrupt enable */
 116:../../lib/lpc11cx4-library/lpc_chip_11cxx_lib/inc/uart_11xx.h **** #define UART_IER_THREINT     (1 << 1)	/*!< THR Interrupt enable */
 117:../../lib/lpc11cx4-library/lpc_chip_11cxx_lib/inc/uart_11xx.h **** #define UART_IER_RLSINT      (1 << 2)	/*!< RX line status interrupt enable */
 118:../../lib/lpc11cx4-library/lpc_chip_11cxx_lib/inc/uart_11xx.h **** #define UART_IER_MSINT       (1 << 3)	/*!< Modem status interrupt enable - valid for 11xx, 17xx/40x
 119:../../lib/lpc11cx4-library/lpc_chip_11cxx_lib/inc/uart_11xx.h **** #define UART_IER_CTSINT      (1 << 7)	/*!< CTS signal transition interrupt enable - valid for 17xx/
 120:../../lib/lpc11cx4-library/lpc_chip_11cxx_lib/inc/uart_11xx.h **** #define UART_IER_ABEOINT     (1 << 8)	/*!< Enables the end of auto-baud interrupt */
 121:../../lib/lpc11cx4-library/lpc_chip_11cxx_lib/inc/uart_11xx.h **** #define UART_IER_ABTOINT     (1 << 9)	/*!< Enables the auto-baud time-out interrupt */
 122:../../lib/lpc11cx4-library/lpc_chip_11cxx_lib/inc/uart_11xx.h **** #define UART_IER_BITMASK     (0x307)	/*!< UART interrupt enable register bit mask  - valid for 13xx
 123:../../lib/lpc11cx4-library/lpc_chip_11cxx_lib/inc/uart_11xx.h **** #define UART1_IER_BITMASK    (0x30F)	/*!< UART1 interrupt enable register bit mask - valid for 11xx
 124:../../lib/lpc11cx4-library/lpc_chip_11cxx_lib/inc/uart_11xx.h **** #define UART2_IER_BITMASK    (0x38F)	/*!< UART2 interrupt enable register bit mask - valid for 17xx
 125:../../lib/lpc11cx4-library/lpc_chip_11cxx_lib/inc/uart_11xx.h **** 
 126:../../lib/lpc11cx4-library/lpc_chip_11cxx_lib/inc/uart_11xx.h **** /**
 127:../../lib/lpc11cx4-library/lpc_chip_11cxx_lib/inc/uart_11xx.h ****  * @brief Macro defines for UART Interrupt Identification Register
 128:../../lib/lpc11cx4-library/lpc_chip_11cxx_lib/inc/uart_11xx.h ****  */
 129:../../lib/lpc11cx4-library/lpc_chip_11cxx_lib/inc/uart_11xx.h **** #define UART_IIR_INTSTAT_PEND   (1 << 0)	/*!< Interrupt pending status - Active low */
 130:../../lib/lpc11cx4-library/lpc_chip_11cxx_lib/inc/uart_11xx.h **** #define UART_IIR_FIFO_EN        (3 << 6)	/*!< These bits are equivalent to FCR[0] */
 131:../../lib/lpc11cx4-library/lpc_chip_11cxx_lib/inc/uart_11xx.h **** #define UART_IIR_ABEO_INT       (1 << 8)	/*!< End of auto-baud interrupt */
 132:../../lib/lpc11cx4-library/lpc_chip_11cxx_lib/inc/uart_11xx.h **** #define UART_IIR_ABTO_INT       (1 << 9)	/*!< Auto-baud time-out interrupt */
 133:../../lib/lpc11cx4-library/lpc_chip_11cxx_lib/inc/uart_11xx.h **** #define UART_IIR_BITMASK        (0x3CF)		/*!< UART interrupt identification register bit mask */
 134:../../lib/lpc11cx4-library/lpc_chip_11cxx_lib/inc/uart_11xx.h **** 
ARM GAS  /var/folders/z0/6xlwn_996xz3mwq1cgzkbq4r0000gp/T//ccmGTjkW.s 			page 34


 135:../../lib/lpc11cx4-library/lpc_chip_11cxx_lib/inc/uart_11xx.h **** /* Interrupt ID bit definitions */
 136:../../lib/lpc11cx4-library/lpc_chip_11cxx_lib/inc/uart_11xx.h **** #define UART_IIR_INTID_MASK     (7 << 1)	/*!< Interrupt identification: Interrupt ID mask */
 137:../../lib/lpc11cx4-library/lpc_chip_11cxx_lib/inc/uart_11xx.h **** #define UART_IIR_INTID_RLS      (3 << 1)	/*!< Interrupt identification: Receive line interrupt */
 138:../../lib/lpc11cx4-library/lpc_chip_11cxx_lib/inc/uart_11xx.h **** #define UART_IIR_INTID_RDA      (2 << 1)	/*!< Interrupt identification: Receive data available inte
 139:../../lib/lpc11cx4-library/lpc_chip_11cxx_lib/inc/uart_11xx.h **** #define UART_IIR_INTID_CTI      (6 << 1)	/*!< Interrupt identification: Character time-out indicato
 140:../../lib/lpc11cx4-library/lpc_chip_11cxx_lib/inc/uart_11xx.h **** #define UART_IIR_INTID_THRE     (1 << 1)	/*!< Interrupt identification: THRE interrupt */
 141:../../lib/lpc11cx4-library/lpc_chip_11cxx_lib/inc/uart_11xx.h **** #define UART_IIR_INTID_MODEM    (0 << 1)	/*!< Interrupt identification: Modem interrupt */
 142:../../lib/lpc11cx4-library/lpc_chip_11cxx_lib/inc/uart_11xx.h **** 
 143:../../lib/lpc11cx4-library/lpc_chip_11cxx_lib/inc/uart_11xx.h **** /**
 144:../../lib/lpc11cx4-library/lpc_chip_11cxx_lib/inc/uart_11xx.h ****  * @brief Macro defines for UART FIFO Control Register
 145:../../lib/lpc11cx4-library/lpc_chip_11cxx_lib/inc/uart_11xx.h ****  */
 146:../../lib/lpc11cx4-library/lpc_chip_11cxx_lib/inc/uart_11xx.h **** #define UART_FCR_FIFO_EN        (1 << 0)	/*!< UART FIFO enable */
 147:../../lib/lpc11cx4-library/lpc_chip_11cxx_lib/inc/uart_11xx.h **** #define UART_FCR_RX_RS          (1 << 1)	/*!< UART RX FIFO reset */
 148:../../lib/lpc11cx4-library/lpc_chip_11cxx_lib/inc/uart_11xx.h **** #define UART_FCR_TX_RS          (1 << 2)	/*!< UART TX FIFO reset */
 149:../../lib/lpc11cx4-library/lpc_chip_11cxx_lib/inc/uart_11xx.h **** #define UART_FCR_DMAMODE_SEL    (1 << 3)	/*!< UART DMA mode selection - valid for 17xx/40xx, 18xx/4
 150:../../lib/lpc11cx4-library/lpc_chip_11cxx_lib/inc/uart_11xx.h **** #define UART_FCR_BITMASK        (0xCF)		/*!< UART FIFO control bit mask */
 151:../../lib/lpc11cx4-library/lpc_chip_11cxx_lib/inc/uart_11xx.h **** 
 152:../../lib/lpc11cx4-library/lpc_chip_11cxx_lib/inc/uart_11xx.h **** #define UART_TX_FIFO_SIZE       (16)
 153:../../lib/lpc11cx4-library/lpc_chip_11cxx_lib/inc/uart_11xx.h **** 
 154:../../lib/lpc11cx4-library/lpc_chip_11cxx_lib/inc/uart_11xx.h **** /* FIFO trigger level bit definitions */
 155:../../lib/lpc11cx4-library/lpc_chip_11cxx_lib/inc/uart_11xx.h **** #define UART_FCR_TRG_LEV0       (0)			/*!< UART FIFO trigger level 0: 1 character */
 156:../../lib/lpc11cx4-library/lpc_chip_11cxx_lib/inc/uart_11xx.h **** #define UART_FCR_TRG_LEV1       (1 << 6)	/*!< UART FIFO trigger level 1: 4 character */
 157:../../lib/lpc11cx4-library/lpc_chip_11cxx_lib/inc/uart_11xx.h **** #define UART_FCR_TRG_LEV2       (2 << 6)	/*!< UART FIFO trigger level 2: 8 character */
 158:../../lib/lpc11cx4-library/lpc_chip_11cxx_lib/inc/uart_11xx.h **** #define UART_FCR_TRG_LEV3       (3 << 6)	/*!< UART FIFO trigger level 3: 14 character */
 159:../../lib/lpc11cx4-library/lpc_chip_11cxx_lib/inc/uart_11xx.h **** 
 160:../../lib/lpc11cx4-library/lpc_chip_11cxx_lib/inc/uart_11xx.h **** /**
 161:../../lib/lpc11cx4-library/lpc_chip_11cxx_lib/inc/uart_11xx.h ****  * @brief Macro defines for UART Line Control Register
 162:../../lib/lpc11cx4-library/lpc_chip_11cxx_lib/inc/uart_11xx.h ****  */
 163:../../lib/lpc11cx4-library/lpc_chip_11cxx_lib/inc/uart_11xx.h **** /* UART word length select bit definitions */
 164:../../lib/lpc11cx4-library/lpc_chip_11cxx_lib/inc/uart_11xx.h **** #define UART_LCR_WLEN_MASK      (3 << 0)		/*!< UART word length select bit mask */
 165:../../lib/lpc11cx4-library/lpc_chip_11cxx_lib/inc/uart_11xx.h **** #define UART_LCR_WLEN5          (0 << 0)		/*!< UART word length select: 5 bit data mode */
 166:../../lib/lpc11cx4-library/lpc_chip_11cxx_lib/inc/uart_11xx.h **** #define UART_LCR_WLEN6          (1 << 0)		/*!< UART word length select: 6 bit data mode */
 167:../../lib/lpc11cx4-library/lpc_chip_11cxx_lib/inc/uart_11xx.h **** #define UART_LCR_WLEN7          (2 << 0)		/*!< UART word length select: 7 bit data mode */
 168:../../lib/lpc11cx4-library/lpc_chip_11cxx_lib/inc/uart_11xx.h **** #define UART_LCR_WLEN8          (3 << 0)		/*!< UART word length select: 8 bit data mode */
 169:../../lib/lpc11cx4-library/lpc_chip_11cxx_lib/inc/uart_11xx.h **** 
 170:../../lib/lpc11cx4-library/lpc_chip_11cxx_lib/inc/uart_11xx.h **** /* UART Stop bit select bit definitions */
 171:../../lib/lpc11cx4-library/lpc_chip_11cxx_lib/inc/uart_11xx.h **** #define UART_LCR_SBS_MASK       (1 << 2)		/*!< UART stop bit select: bit mask */
 172:../../lib/lpc11cx4-library/lpc_chip_11cxx_lib/inc/uart_11xx.h **** #define UART_LCR_SBS_1BIT       (0 << 2)		/*!< UART stop bit select: 1 stop bit */
 173:../../lib/lpc11cx4-library/lpc_chip_11cxx_lib/inc/uart_11xx.h **** #define UART_LCR_SBS_2BIT       (1 << 2)		/*!< UART stop bit select: 2 stop bits (in 5 bit data mod
 174:../../lib/lpc11cx4-library/lpc_chip_11cxx_lib/inc/uart_11xx.h **** 
 175:../../lib/lpc11cx4-library/lpc_chip_11cxx_lib/inc/uart_11xx.h **** /* UART Parity enable bit definitions */
 176:../../lib/lpc11cx4-library/lpc_chip_11cxx_lib/inc/uart_11xx.h **** #define UART_LCR_PARITY_EN      (1 << 3)		/*!< UART Parity Enable */
 177:../../lib/lpc11cx4-library/lpc_chip_11cxx_lib/inc/uart_11xx.h **** #define UART_LCR_PARITY_DIS     (0 << 3)		/*!< UART Parity Disable */
 178:../../lib/lpc11cx4-library/lpc_chip_11cxx_lib/inc/uart_11xx.h **** #define UART_LCR_PARITY_ODD     (0 << 4)		/*!< UART Parity select: Odd parity */
 179:../../lib/lpc11cx4-library/lpc_chip_11cxx_lib/inc/uart_11xx.h **** #define UART_LCR_PARITY_EVEN    (1 << 4)		/*!< UART Parity select: Even parity */
 180:../../lib/lpc11cx4-library/lpc_chip_11cxx_lib/inc/uart_11xx.h **** #define UART_LCR_PARITY_F_1     (2 << 4)		/*!< UART Parity select: Forced 1 stick parity */
 181:../../lib/lpc11cx4-library/lpc_chip_11cxx_lib/inc/uart_11xx.h **** #define UART_LCR_PARITY_F_0     (3 << 4)		/*!< UART Parity select: Forced 0 stick parity */
 182:../../lib/lpc11cx4-library/lpc_chip_11cxx_lib/inc/uart_11xx.h **** #define UART_LCR_BREAK_EN       (1 << 6)		/*!< UART Break transmission enable */
 183:../../lib/lpc11cx4-library/lpc_chip_11cxx_lib/inc/uart_11xx.h **** #define UART_LCR_DLAB_EN        (1 << 7)		/*!< UART Divisor Latches Access bit enable */
 184:../../lib/lpc11cx4-library/lpc_chip_11cxx_lib/inc/uart_11xx.h **** #define UART_LCR_BITMASK        (0xFF)			/*!< UART line control bit mask */
 185:../../lib/lpc11cx4-library/lpc_chip_11cxx_lib/inc/uart_11xx.h **** 
 186:../../lib/lpc11cx4-library/lpc_chip_11cxx_lib/inc/uart_11xx.h **** /**
 187:../../lib/lpc11cx4-library/lpc_chip_11cxx_lib/inc/uart_11xx.h ****  * @brief Macro defines for UART Modem Control Register
 188:../../lib/lpc11cx4-library/lpc_chip_11cxx_lib/inc/uart_11xx.h ****  */
 189:../../lib/lpc11cx4-library/lpc_chip_11cxx_lib/inc/uart_11xx.h **** #define UART_MCR_DTR_CTRL       (1 << 0)		/*!< Source for modem output pin DTR */
 190:../../lib/lpc11cx4-library/lpc_chip_11cxx_lib/inc/uart_11xx.h **** #define UART_MCR_RTS_CTRL       (1 << 1)		/*!< Source for modem output pin RTS */
 191:../../lib/lpc11cx4-library/lpc_chip_11cxx_lib/inc/uart_11xx.h **** #define UART_MCR_LOOPB_EN       (1 << 4)		/*!< Loop back mode select */
ARM GAS  /var/folders/z0/6xlwn_996xz3mwq1cgzkbq4r0000gp/T//ccmGTjkW.s 			page 35


 192:../../lib/lpc11cx4-library/lpc_chip_11cxx_lib/inc/uart_11xx.h **** #define UART_MCR_AUTO_RTS_EN    (1 << 6)		/*!< Enable Auto RTS flow-control */
 193:../../lib/lpc11cx4-library/lpc_chip_11cxx_lib/inc/uart_11xx.h **** #define UART_MCR_AUTO_CTS_EN    (1 << 7)		/*!< Enable Auto CTS flow-control */
 194:../../lib/lpc11cx4-library/lpc_chip_11cxx_lib/inc/uart_11xx.h **** #define UART_MCR_BITMASK        (0xD3)			/*!< UART bit mask value */
 195:../../lib/lpc11cx4-library/lpc_chip_11cxx_lib/inc/uart_11xx.h **** 
 196:../../lib/lpc11cx4-library/lpc_chip_11cxx_lib/inc/uart_11xx.h **** /**
 197:../../lib/lpc11cx4-library/lpc_chip_11cxx_lib/inc/uart_11xx.h ****  * @brief Macro defines for UART Line Status Register
 198:../../lib/lpc11cx4-library/lpc_chip_11cxx_lib/inc/uart_11xx.h ****  */
 199:../../lib/lpc11cx4-library/lpc_chip_11cxx_lib/inc/uart_11xx.h **** #define UART_LSR_RDR        (1 << 0)	/*!< Line status: Receive data ready */
 200:../../lib/lpc11cx4-library/lpc_chip_11cxx_lib/inc/uart_11xx.h **** #define UART_LSR_OE         (1 << 1)	/*!< Line status: Overrun error */
 201:../../lib/lpc11cx4-library/lpc_chip_11cxx_lib/inc/uart_11xx.h **** #define UART_LSR_PE         (1 << 2)	/*!< Line status: Parity error */
 202:../../lib/lpc11cx4-library/lpc_chip_11cxx_lib/inc/uart_11xx.h **** #define UART_LSR_FE         (1 << 3)	/*!< Line status: Framing error */
 203:../../lib/lpc11cx4-library/lpc_chip_11cxx_lib/inc/uart_11xx.h **** #define UART_LSR_BI         (1 << 4)	/*!< Line status: Break interrupt */
 204:../../lib/lpc11cx4-library/lpc_chip_11cxx_lib/inc/uart_11xx.h **** #define UART_LSR_THRE       (1 << 5)	/*!< Line status: Transmit holding register empty */
 205:../../lib/lpc11cx4-library/lpc_chip_11cxx_lib/inc/uart_11xx.h **** #define UART_LSR_TEMT       (1 << 6)	/*!< Line status: Transmitter empty */
 206:../../lib/lpc11cx4-library/lpc_chip_11cxx_lib/inc/uart_11xx.h **** #define UART_LSR_RXFE       (1 << 7)	/*!< Line status: Error in RX FIFO */
 207:../../lib/lpc11cx4-library/lpc_chip_11cxx_lib/inc/uart_11xx.h **** #define UART_LSR_TXFE       (1 << 8)	/*!< Line status: Error in RX FIFO */
 208:../../lib/lpc11cx4-library/lpc_chip_11cxx_lib/inc/uart_11xx.h **** #define UART_LSR_BITMASK    (0xFF)		/*!< UART Line status bit mask */
 209:../../lib/lpc11cx4-library/lpc_chip_11cxx_lib/inc/uart_11xx.h **** #define UART1_LSR_BITMASK   (0x1FF)		/*!< UART1 Line status bit mask - valid for 11xx, 18xx/43xx UA
 210:../../lib/lpc11cx4-library/lpc_chip_11cxx_lib/inc/uart_11xx.h **** 
 211:../../lib/lpc11cx4-library/lpc_chip_11cxx_lib/inc/uart_11xx.h **** /**
 212:../../lib/lpc11cx4-library/lpc_chip_11cxx_lib/inc/uart_11xx.h ****  * @brief Macro defines for UART Modem Status Register
 213:../../lib/lpc11cx4-library/lpc_chip_11cxx_lib/inc/uart_11xx.h ****  */
 214:../../lib/lpc11cx4-library/lpc_chip_11cxx_lib/inc/uart_11xx.h **** #define UART_MSR_DELTA_CTS      (1 << 0)	/*!< Modem status: State change of input CTS */
 215:../../lib/lpc11cx4-library/lpc_chip_11cxx_lib/inc/uart_11xx.h **** #define UART_MSR_DELTA_DSR      (1 << 1)	/*!< Modem status: State change of input DSR */
 216:../../lib/lpc11cx4-library/lpc_chip_11cxx_lib/inc/uart_11xx.h **** #define UART_MSR_LO2HI_RI       (1 << 2)	/*!< Modem status: Low to high transition of input RI */
 217:../../lib/lpc11cx4-library/lpc_chip_11cxx_lib/inc/uart_11xx.h **** #define UART_MSR_DELTA_DCD      (1 << 3)	/*!< Modem status: State change of input DCD */
 218:../../lib/lpc11cx4-library/lpc_chip_11cxx_lib/inc/uart_11xx.h **** #define UART_MSR_CTS            (1 << 4)	/*!< Modem status: Clear To Send State */
 219:../../lib/lpc11cx4-library/lpc_chip_11cxx_lib/inc/uart_11xx.h **** #define UART_MSR_DSR            (1 << 5)	/*!< Modem status: Data Set Ready State */
 220:../../lib/lpc11cx4-library/lpc_chip_11cxx_lib/inc/uart_11xx.h **** #define UART_MSR_RI             (1 << 6)	/*!< Modem status: Ring Indicator State */
 221:../../lib/lpc11cx4-library/lpc_chip_11cxx_lib/inc/uart_11xx.h **** #define UART_MSR_DCD            (1 << 7)	/*!< Modem status: Data Carrier Detect State */
 222:../../lib/lpc11cx4-library/lpc_chip_11cxx_lib/inc/uart_11xx.h **** #define UART_MSR_BITMASK        (0xFF)		/*!< Modem status: MSR register bit-mask value */
 223:../../lib/lpc11cx4-library/lpc_chip_11cxx_lib/inc/uart_11xx.h **** 
 224:../../lib/lpc11cx4-library/lpc_chip_11cxx_lib/inc/uart_11xx.h **** /**
 225:../../lib/lpc11cx4-library/lpc_chip_11cxx_lib/inc/uart_11xx.h ****  * @brief Macro defines for UART Auto baudrate control register
 226:../../lib/lpc11cx4-library/lpc_chip_11cxx_lib/inc/uart_11xx.h ****  */
 227:../../lib/lpc11cx4-library/lpc_chip_11cxx_lib/inc/uart_11xx.h **** #define UART_ACR_START              (1 << 0)	/*!< UART Auto-baud start */
 228:../../lib/lpc11cx4-library/lpc_chip_11cxx_lib/inc/uart_11xx.h **** #define UART_ACR_MODE               (1 << 1)	/*!< UART Auto baudrate Mode 1 */
 229:../../lib/lpc11cx4-library/lpc_chip_11cxx_lib/inc/uart_11xx.h **** #define UART_ACR_AUTO_RESTART       (1 << 2)	/*!< UART Auto baudrate restart */
 230:../../lib/lpc11cx4-library/lpc_chip_11cxx_lib/inc/uart_11xx.h **** #define UART_ACR_ABEOINT_CLR        (1 << 8)	/*!< UART End of auto-baud interrupt clear */
 231:../../lib/lpc11cx4-library/lpc_chip_11cxx_lib/inc/uart_11xx.h **** #define UART_ACR_ABTOINT_CLR        (1 << 9)	/*!< UART Auto-baud time-out interrupt clear */
 232:../../lib/lpc11cx4-library/lpc_chip_11cxx_lib/inc/uart_11xx.h **** #define UART_ACR_BITMASK            (0x307)		/*!< UART Auto Baudrate register bit mask */
 233:../../lib/lpc11cx4-library/lpc_chip_11cxx_lib/inc/uart_11xx.h **** 
 234:../../lib/lpc11cx4-library/lpc_chip_11cxx_lib/inc/uart_11xx.h **** /**
 235:../../lib/lpc11cx4-library/lpc_chip_11cxx_lib/inc/uart_11xx.h ****  * @brief Macro defines for UART RS485 Control register
 236:../../lib/lpc11cx4-library/lpc_chip_11cxx_lib/inc/uart_11xx.h ****  */
 237:../../lib/lpc11cx4-library/lpc_chip_11cxx_lib/inc/uart_11xx.h **** #define UART_RS485CTRL_NMM_EN       (1 << 0)	/*!< RS-485/EIA-485 Normal Multi-drop Mode (NMM) is di
 238:../../lib/lpc11cx4-library/lpc_chip_11cxx_lib/inc/uart_11xx.h **** #define UART_RS485CTRL_RX_DIS       (1 << 1)	/*!< The receiver is disabled */
 239:../../lib/lpc11cx4-library/lpc_chip_11cxx_lib/inc/uart_11xx.h **** #define UART_RS485CTRL_AADEN        (1 << 2)	/*!< Auto Address Detect (AAD) is enabled */
 240:../../lib/lpc11cx4-library/lpc_chip_11cxx_lib/inc/uart_11xx.h **** #define UART_RS485CTRL_SEL_DTR      (1 << 3)	/*!< If direction control is enabled (bit DCTRL = 1), 
 241:../../lib/lpc11cx4-library/lpc_chip_11cxx_lib/inc/uart_11xx.h **** 												        used for direction control */
 242:../../lib/lpc11cx4-library/lpc_chip_11cxx_lib/inc/uart_11xx.h **** #define UART_RS485CTRL_DCTRL_EN     (1 << 4)	/*!< Enable Auto Direction Control */
 243:../../lib/lpc11cx4-library/lpc_chip_11cxx_lib/inc/uart_11xx.h **** #define UART_RS485CTRL_OINV_1       (1 << 5)	/*!< This bit reverses the polarity of the direction
 244:../../lib/lpc11cx4-library/lpc_chip_11cxx_lib/inc/uart_11xx.h **** 												       control signal on the RTS (or DTR) pin. The direction control pin
 245:../../lib/lpc11cx4-library/lpc_chip_11cxx_lib/inc/uart_11xx.h **** 												       will be driven to logic "1" when the transmitter has data to be sent */
 246:../../lib/lpc11cx4-library/lpc_chip_11cxx_lib/inc/uart_11xx.h **** #define UART_RS485CTRL_BITMASK      (0x3F)		/*!< RS485 control bit-mask value */
 247:../../lib/lpc11cx4-library/lpc_chip_11cxx_lib/inc/uart_11xx.h **** 
 248:../../lib/lpc11cx4-library/lpc_chip_11cxx_lib/inc/uart_11xx.h **** /**
ARM GAS  /var/folders/z0/6xlwn_996xz3mwq1cgzkbq4r0000gp/T//ccmGTjkW.s 			page 36


 249:../../lib/lpc11cx4-library/lpc_chip_11cxx_lib/inc/uart_11xx.h ****  * @brief Macro defines for UART IrDA Control Register - valid for 11xx, 17xx/40xx UART0/2/3, 18xx/
 250:../../lib/lpc11cx4-library/lpc_chip_11cxx_lib/inc/uart_11xx.h ****  */
 251:../../lib/lpc11cx4-library/lpc_chip_11cxx_lib/inc/uart_11xx.h **** #define UART_ICR_IRDAEN         (1 << 0)			/*!< IrDA mode enable */
 252:../../lib/lpc11cx4-library/lpc_chip_11cxx_lib/inc/uart_11xx.h **** #define UART_ICR_IRDAINV        (1 << 1)			/*!< IrDA serial input inverted */
 253:../../lib/lpc11cx4-library/lpc_chip_11cxx_lib/inc/uart_11xx.h **** #define UART_ICR_FIXPULSE_EN    (1 << 2)			/*!< IrDA fixed pulse width mode */
 254:../../lib/lpc11cx4-library/lpc_chip_11cxx_lib/inc/uart_11xx.h **** #define UART_ICR_PULSEDIV(n)    ((n & 0x07) << 3)	/*!< PulseDiv - Configures the pulse when FixPuls
 255:../../lib/lpc11cx4-library/lpc_chip_11cxx_lib/inc/uart_11xx.h **** #define UART_ICR_BITMASK        (0x3F)				/*!< UART IRDA bit mask */
 256:../../lib/lpc11cx4-library/lpc_chip_11cxx_lib/inc/uart_11xx.h **** 
 257:../../lib/lpc11cx4-library/lpc_chip_11cxx_lib/inc/uart_11xx.h **** /**
 258:../../lib/lpc11cx4-library/lpc_chip_11cxx_lib/inc/uart_11xx.h ****  * @brief Macro defines for UART half duplex register - ????
 259:../../lib/lpc11cx4-library/lpc_chip_11cxx_lib/inc/uart_11xx.h ****  */
 260:../../lib/lpc11cx4-library/lpc_chip_11cxx_lib/inc/uart_11xx.h **** #define UART_HDEN_HDEN          ((1 << 0))			/*!< enable half-duplex mode*/
 261:../../lib/lpc11cx4-library/lpc_chip_11cxx_lib/inc/uart_11xx.h **** 
 262:../../lib/lpc11cx4-library/lpc_chip_11cxx_lib/inc/uart_11xx.h **** /**
 263:../../lib/lpc11cx4-library/lpc_chip_11cxx_lib/inc/uart_11xx.h ****  * @brief Macro defines for UART Smart card interface Control Register - valid for 11xx, 18xx/43xx 
 264:../../lib/lpc11cx4-library/lpc_chip_11cxx_lib/inc/uart_11xx.h ****  */
 265:../../lib/lpc11cx4-library/lpc_chip_11cxx_lib/inc/uart_11xx.h **** #define UART_SCICTRL_SCIEN        (1 << 0)			/*!< enable asynchronous half-duplex smart card interf
 266:../../lib/lpc11cx4-library/lpc_chip_11cxx_lib/inc/uart_11xx.h **** #define UART_SCICTRL_NACKDIS      (1 << 1)			/*!< NACK response is inhibited*/
 267:../../lib/lpc11cx4-library/lpc_chip_11cxx_lib/inc/uart_11xx.h **** #define UART_SCICTRL_PROTSEL_T1   (1 << 2)			/*!< ISO7816-3 protocol T1 is selected*/
 268:../../lib/lpc11cx4-library/lpc_chip_11cxx_lib/inc/uart_11xx.h **** #define UART_SCICTRL_TXRETRY(n)   ((n & 0x07) << 5)	/*!< number of retransmission*/
 269:../../lib/lpc11cx4-library/lpc_chip_11cxx_lib/inc/uart_11xx.h **** #define UART_SCICTRL_GUARDTIME(n) ((n & 0xFF) << 8)	/*!< Extra guard time*/
 270:../../lib/lpc11cx4-library/lpc_chip_11cxx_lib/inc/uart_11xx.h **** 
 271:../../lib/lpc11cx4-library/lpc_chip_11cxx_lib/inc/uart_11xx.h **** /**
 272:../../lib/lpc11cx4-library/lpc_chip_11cxx_lib/inc/uart_11xx.h ****  * @brief Macro defines for UART Fractional Divider Register
 273:../../lib/lpc11cx4-library/lpc_chip_11cxx_lib/inc/uart_11xx.h ****  */
 274:../../lib/lpc11cx4-library/lpc_chip_11cxx_lib/inc/uart_11xx.h **** #define UART_FDR_DIVADDVAL(n)   (n & 0x0F)			/*!< Baud-rate generation pre-scaler divisor */
 275:../../lib/lpc11cx4-library/lpc_chip_11cxx_lib/inc/uart_11xx.h **** #define UART_FDR_MULVAL(n)      ((n << 4) & 0xF0)	/*!< Baud-rate pre-scaler multiplier value */
 276:../../lib/lpc11cx4-library/lpc_chip_11cxx_lib/inc/uart_11xx.h **** #define UART_FDR_BITMASK        (0xFF)				/*!< UART Fractional Divider register bit mask */
 277:../../lib/lpc11cx4-library/lpc_chip_11cxx_lib/inc/uart_11xx.h **** 
 278:../../lib/lpc11cx4-library/lpc_chip_11cxx_lib/inc/uart_11xx.h **** /**
 279:../../lib/lpc11cx4-library/lpc_chip_11cxx_lib/inc/uart_11xx.h ****  * @brief Macro defines for UART Tx Enable Register
 280:../../lib/lpc11cx4-library/lpc_chip_11cxx_lib/inc/uart_11xx.h ****  */
 281:../../lib/lpc11cx4-library/lpc_chip_11cxx_lib/inc/uart_11xx.h **** #define UART_TER1_TXEN      (1 << 7)		/*!< Transmit enable bit  - valid for 11xx, 13xx, 17xx/40xx o
 282:../../lib/lpc11cx4-library/lpc_chip_11cxx_lib/inc/uart_11xx.h **** #define UART_TER2_TXEN      (1 << 0)		/*!< Transmit enable bit  - valid for 18xx/43xx only */
 283:../../lib/lpc11cx4-library/lpc_chip_11cxx_lib/inc/uart_11xx.h **** 
 284:../../lib/lpc11cx4-library/lpc_chip_11cxx_lib/inc/uart_11xx.h **** /**
 285:../../lib/lpc11cx4-library/lpc_chip_11cxx_lib/inc/uart_11xx.h ****  * @brief Macro defines for UART Synchronous Control Register - 11xx, 18xx/43xx UART0/2/3 only 
 286:../../lib/lpc11cx4-library/lpc_chip_11cxx_lib/inc/uart_11xx.h ****  */
 287:../../lib/lpc11cx4-library/lpc_chip_11cxx_lib/inc/uart_11xx.h **** #define UART_SYNCCTRL_SYNC             (1 << 0)			/*!< enable synchronous mode*/
 288:../../lib/lpc11cx4-library/lpc_chip_11cxx_lib/inc/uart_11xx.h **** #define UART_SYNCCTRL_CSRC_MASTER      (1 << 1)  		/*!< synchronous master mode*/
 289:../../lib/lpc11cx4-library/lpc_chip_11cxx_lib/inc/uart_11xx.h **** #define UART_SYNCCTRL_FES              (1 << 2)			/*!< sample on falling edge*/
 290:../../lib/lpc11cx4-library/lpc_chip_11cxx_lib/inc/uart_11xx.h **** #define UART_SYNCCTRL_TSBYPASS         (1 << 3)			/*!< to be defined*/
 291:../../lib/lpc11cx4-library/lpc_chip_11cxx_lib/inc/uart_11xx.h **** #define UART_SYNCCTRL_CSCEN            (1 << 4)			/*!< Continuous running clock enable (master mode
 292:../../lib/lpc11cx4-library/lpc_chip_11cxx_lib/inc/uart_11xx.h **** #define UART_SYNCCTRL_STARTSTOPDISABLE (1 << 5)	        /*!< Do not send start/stop bit*/
 293:../../lib/lpc11cx4-library/lpc_chip_11cxx_lib/inc/uart_11xx.h **** #define UART_SYNCCTRL_CCCLR            (1 << 6)			/*!< stop continuous clock*/
 294:../../lib/lpc11cx4-library/lpc_chip_11cxx_lib/inc/uart_11xx.h **** 
 295:../../lib/lpc11cx4-library/lpc_chip_11cxx_lib/inc/uart_11xx.h **** /**
 296:../../lib/lpc11cx4-library/lpc_chip_11cxx_lib/inc/uart_11xx.h ****  * @brief	Enable transmission on UART TxD pin
 297:../../lib/lpc11cx4-library/lpc_chip_11cxx_lib/inc/uart_11xx.h ****  * @param	pUART	: Pointer to selected pUART peripheral
 298:../../lib/lpc11cx4-library/lpc_chip_11cxx_lib/inc/uart_11xx.h ****  * @return Nothing
 299:../../lib/lpc11cx4-library/lpc_chip_11cxx_lib/inc/uart_11xx.h ****  */
 300:../../lib/lpc11cx4-library/lpc_chip_11cxx_lib/inc/uart_11xx.h **** STATIC INLINE void Chip_UART_TXEnable(LPC_USART_T *pUART)
 301:../../lib/lpc11cx4-library/lpc_chip_11cxx_lib/inc/uart_11xx.h **** {
 302:../../lib/lpc11cx4-library/lpc_chip_11cxx_lib/inc/uart_11xx.h **** 	pUART->TER1 = UART_TER1_TXEN;
 303:../../lib/lpc11cx4-library/lpc_chip_11cxx_lib/inc/uart_11xx.h **** }
 304:../../lib/lpc11cx4-library/lpc_chip_11cxx_lib/inc/uart_11xx.h **** 
 305:../../lib/lpc11cx4-library/lpc_chip_11cxx_lib/inc/uart_11xx.h **** /**
ARM GAS  /var/folders/z0/6xlwn_996xz3mwq1cgzkbq4r0000gp/T//ccmGTjkW.s 			page 37


 306:../../lib/lpc11cx4-library/lpc_chip_11cxx_lib/inc/uart_11xx.h ****  * @brief	Disable transmission on UART TxD pin
 307:../../lib/lpc11cx4-library/lpc_chip_11cxx_lib/inc/uart_11xx.h ****  * @param	pUART	: Pointer to selected pUART peripheral
 308:../../lib/lpc11cx4-library/lpc_chip_11cxx_lib/inc/uart_11xx.h ****  * @return Nothing
 309:../../lib/lpc11cx4-library/lpc_chip_11cxx_lib/inc/uart_11xx.h ****  */
 310:../../lib/lpc11cx4-library/lpc_chip_11cxx_lib/inc/uart_11xx.h **** STATIC INLINE void Chip_UART_TXDisable(LPC_USART_T *pUART)
 311:../../lib/lpc11cx4-library/lpc_chip_11cxx_lib/inc/uart_11xx.h **** {
 312:../../lib/lpc11cx4-library/lpc_chip_11cxx_lib/inc/uart_11xx.h **** 	pUART->TER1 = 0;
 313:../../lib/lpc11cx4-library/lpc_chip_11cxx_lib/inc/uart_11xx.h **** }
 314:../../lib/lpc11cx4-library/lpc_chip_11cxx_lib/inc/uart_11xx.h **** 
 315:../../lib/lpc11cx4-library/lpc_chip_11cxx_lib/inc/uart_11xx.h **** /**
 316:../../lib/lpc11cx4-library/lpc_chip_11cxx_lib/inc/uart_11xx.h ****  * @brief	Transmit a single data byte through the UART peripheral
 317:../../lib/lpc11cx4-library/lpc_chip_11cxx_lib/inc/uart_11xx.h ****  * @param	pUART	: Pointer to selected UART peripheral
 318:../../lib/lpc11cx4-library/lpc_chip_11cxx_lib/inc/uart_11xx.h ****  * @param	data	: Byte to transmit
 319:../../lib/lpc11cx4-library/lpc_chip_11cxx_lib/inc/uart_11xx.h ****  * @return	Nothing
 320:../../lib/lpc11cx4-library/lpc_chip_11cxx_lib/inc/uart_11xx.h ****  * @note	This function attempts to place a byte into the UART transmit
 321:../../lib/lpc11cx4-library/lpc_chip_11cxx_lib/inc/uart_11xx.h ****  *			FIFO or transmit hold register regard regardless of UART state
 322:../../lib/lpc11cx4-library/lpc_chip_11cxx_lib/inc/uart_11xx.h ****  */
 323:../../lib/lpc11cx4-library/lpc_chip_11cxx_lib/inc/uart_11xx.h **** STATIC INLINE void Chip_UART_SendByte(LPC_USART_T *pUART, uint8_t data)
 324:../../lib/lpc11cx4-library/lpc_chip_11cxx_lib/inc/uart_11xx.h **** {
 325:../../lib/lpc11cx4-library/lpc_chip_11cxx_lib/inc/uart_11xx.h **** 	pUART->THR = (uint32_t) data;
 326:../../lib/lpc11cx4-library/lpc_chip_11cxx_lib/inc/uart_11xx.h **** }
 327:../../lib/lpc11cx4-library/lpc_chip_11cxx_lib/inc/uart_11xx.h **** 
 328:../../lib/lpc11cx4-library/lpc_chip_11cxx_lib/inc/uart_11xx.h **** /**
 329:../../lib/lpc11cx4-library/lpc_chip_11cxx_lib/inc/uart_11xx.h ****  * @brief	Read a single byte data from the UART peripheral
 330:../../lib/lpc11cx4-library/lpc_chip_11cxx_lib/inc/uart_11xx.h ****  * @param	pUART	: Pointer to selected UART peripheral
 331:../../lib/lpc11cx4-library/lpc_chip_11cxx_lib/inc/uart_11xx.h ****  * @return	A single byte of data read
 332:../../lib/lpc11cx4-library/lpc_chip_11cxx_lib/inc/uart_11xx.h ****  * @note	This function reads a byte from the UART receive FIFO or
 333:../../lib/lpc11cx4-library/lpc_chip_11cxx_lib/inc/uart_11xx.h ****  *			receive hold register regard regardless of UART state. The
 334:../../lib/lpc11cx4-library/lpc_chip_11cxx_lib/inc/uart_11xx.h ****  *			FIFO status should be read first prior to using this function
 335:../../lib/lpc11cx4-library/lpc_chip_11cxx_lib/inc/uart_11xx.h ****  */
 336:../../lib/lpc11cx4-library/lpc_chip_11cxx_lib/inc/uart_11xx.h **** STATIC INLINE uint8_t Chip_UART_ReadByte(LPC_USART_T *pUART)
 337:../../lib/lpc11cx4-library/lpc_chip_11cxx_lib/inc/uart_11xx.h **** {
 338:../../lib/lpc11cx4-library/lpc_chip_11cxx_lib/inc/uart_11xx.h **** 	return (uint8_t) (pUART->RBR & UART_RBR_MASKBIT);
 339:../../lib/lpc11cx4-library/lpc_chip_11cxx_lib/inc/uart_11xx.h **** }
 340:../../lib/lpc11cx4-library/lpc_chip_11cxx_lib/inc/uart_11xx.h **** 
 341:../../lib/lpc11cx4-library/lpc_chip_11cxx_lib/inc/uart_11xx.h **** /**
 342:../../lib/lpc11cx4-library/lpc_chip_11cxx_lib/inc/uart_11xx.h ****  * @brief	Enable UART interrupts
 343:../../lib/lpc11cx4-library/lpc_chip_11cxx_lib/inc/uart_11xx.h ****  * @param	pUART	: Pointer to selected UART peripheral
 344:../../lib/lpc11cx4-library/lpc_chip_11cxx_lib/inc/uart_11xx.h ****  * @param	intMask	: OR'ed Interrupts to enable in the Interrupt Enable Register (IER)
 345:../../lib/lpc11cx4-library/lpc_chip_11cxx_lib/inc/uart_11xx.h ****  * @return	Nothing
 346:../../lib/lpc11cx4-library/lpc_chip_11cxx_lib/inc/uart_11xx.h ****  * @note	Use an OR'ed value of UART_IER_* definitions with this function
 347:../../lib/lpc11cx4-library/lpc_chip_11cxx_lib/inc/uart_11xx.h ****  *			to enable specific UART interrupts. The Divisor Latch Access Bit
 348:../../lib/lpc11cx4-library/lpc_chip_11cxx_lib/inc/uart_11xx.h ****  *			(DLAB) in LCR must be cleared in order to access the IER register.
 349:../../lib/lpc11cx4-library/lpc_chip_11cxx_lib/inc/uart_11xx.h ****  *			This function doesn't alter the DLAB state
 350:../../lib/lpc11cx4-library/lpc_chip_11cxx_lib/inc/uart_11xx.h ****  */
 351:../../lib/lpc11cx4-library/lpc_chip_11cxx_lib/inc/uart_11xx.h **** STATIC INLINE void Chip_UART_IntEnable(LPC_USART_T *pUART, uint32_t intMask)
 352:../../lib/lpc11cx4-library/lpc_chip_11cxx_lib/inc/uart_11xx.h **** {
 353:../../lib/lpc11cx4-library/lpc_chip_11cxx_lib/inc/uart_11xx.h **** 	pUART->IER |= intMask;
 354:../../lib/lpc11cx4-library/lpc_chip_11cxx_lib/inc/uart_11xx.h **** }
 355:../../lib/lpc11cx4-library/lpc_chip_11cxx_lib/inc/uart_11xx.h **** 
 356:../../lib/lpc11cx4-library/lpc_chip_11cxx_lib/inc/uart_11xx.h **** /**
 357:../../lib/lpc11cx4-library/lpc_chip_11cxx_lib/inc/uart_11xx.h ****  * @brief	Disable UART interrupts
 358:../../lib/lpc11cx4-library/lpc_chip_11cxx_lib/inc/uart_11xx.h ****  * @param	pUART	: Pointer to selected UART peripheral
 359:../../lib/lpc11cx4-library/lpc_chip_11cxx_lib/inc/uart_11xx.h ****  * @param	intMask	: OR'ed Interrupts to disable in the Interrupt Enable Register (IER)
 360:../../lib/lpc11cx4-library/lpc_chip_11cxx_lib/inc/uart_11xx.h ****  * @return	Nothing
 361:../../lib/lpc11cx4-library/lpc_chip_11cxx_lib/inc/uart_11xx.h ****  * @note	Use an OR'ed value of UART_IER_* definitions with this function
 362:../../lib/lpc11cx4-library/lpc_chip_11cxx_lib/inc/uart_11xx.h ****  *			to disable specific UART interrupts. The Divisor Latch Access Bit
ARM GAS  /var/folders/z0/6xlwn_996xz3mwq1cgzkbq4r0000gp/T//ccmGTjkW.s 			page 38


 363:../../lib/lpc11cx4-library/lpc_chip_11cxx_lib/inc/uart_11xx.h ****  *			(DLAB) in LCR must be cleared in order to access the IER register.
 364:../../lib/lpc11cx4-library/lpc_chip_11cxx_lib/inc/uart_11xx.h ****  *			This function doesn't alter the DLAB state
 365:../../lib/lpc11cx4-library/lpc_chip_11cxx_lib/inc/uart_11xx.h ****  */
 366:../../lib/lpc11cx4-library/lpc_chip_11cxx_lib/inc/uart_11xx.h **** STATIC INLINE void Chip_UART_IntDisable(LPC_USART_T *pUART, uint32_t intMask)
 367:../../lib/lpc11cx4-library/lpc_chip_11cxx_lib/inc/uart_11xx.h **** {
 368:../../lib/lpc11cx4-library/lpc_chip_11cxx_lib/inc/uart_11xx.h **** 	pUART->IER &= ~intMask;
 369:../../lib/lpc11cx4-library/lpc_chip_11cxx_lib/inc/uart_11xx.h **** }
 370:../../lib/lpc11cx4-library/lpc_chip_11cxx_lib/inc/uart_11xx.h **** 
 371:../../lib/lpc11cx4-library/lpc_chip_11cxx_lib/inc/uart_11xx.h **** /**
 372:../../lib/lpc11cx4-library/lpc_chip_11cxx_lib/inc/uart_11xx.h ****  * @brief	Returns UART interrupts that are enabled
 373:../../lib/lpc11cx4-library/lpc_chip_11cxx_lib/inc/uart_11xx.h ****  * @param	pUART	: Pointer to selected UART peripheral
 374:../../lib/lpc11cx4-library/lpc_chip_11cxx_lib/inc/uart_11xx.h ****  * @return	Returns the enabled UART interrupts
 375:../../lib/lpc11cx4-library/lpc_chip_11cxx_lib/inc/uart_11xx.h ****  * @note	Use an OR'ed value of UART_IER_* definitions with this function
 376:../../lib/lpc11cx4-library/lpc_chip_11cxx_lib/inc/uart_11xx.h ****  *			to determine which interrupts are enabled. You can check
 377:../../lib/lpc11cx4-library/lpc_chip_11cxx_lib/inc/uart_11xx.h ****  *			for multiple enabled bits if needed.
 378:../../lib/lpc11cx4-library/lpc_chip_11cxx_lib/inc/uart_11xx.h ****  */
 379:../../lib/lpc11cx4-library/lpc_chip_11cxx_lib/inc/uart_11xx.h **** STATIC INLINE uint32_t Chip_UART_GetIntsEnabled(LPC_USART_T *pUART)
 380:../../lib/lpc11cx4-library/lpc_chip_11cxx_lib/inc/uart_11xx.h **** {
 381:../../lib/lpc11cx4-library/lpc_chip_11cxx_lib/inc/uart_11xx.h **** 	return pUART->IER;
 382:../../lib/lpc11cx4-library/lpc_chip_11cxx_lib/inc/uart_11xx.h **** }
 383:../../lib/lpc11cx4-library/lpc_chip_11cxx_lib/inc/uart_11xx.h **** 
 384:../../lib/lpc11cx4-library/lpc_chip_11cxx_lib/inc/uart_11xx.h **** /**
 385:../../lib/lpc11cx4-library/lpc_chip_11cxx_lib/inc/uart_11xx.h ****  * @brief	Read the Interrupt Identification Register (IIR)
 386:../../lib/lpc11cx4-library/lpc_chip_11cxx_lib/inc/uart_11xx.h ****  * @param	pUART	: Pointer to selected UART peripheral
 387:../../lib/lpc11cx4-library/lpc_chip_11cxx_lib/inc/uart_11xx.h ****  * @return	Current pending interrupt status per the IIR register
 388:../../lib/lpc11cx4-library/lpc_chip_11cxx_lib/inc/uart_11xx.h ****  */
 389:../../lib/lpc11cx4-library/lpc_chip_11cxx_lib/inc/uart_11xx.h **** STATIC INLINE uint32_t Chip_UART_ReadIntIDReg(LPC_USART_T *pUART)
 390:../../lib/lpc11cx4-library/lpc_chip_11cxx_lib/inc/uart_11xx.h **** {
 391:../../lib/lpc11cx4-library/lpc_chip_11cxx_lib/inc/uart_11xx.h **** 	return pUART->IIR;
 392:../../lib/lpc11cx4-library/lpc_chip_11cxx_lib/inc/uart_11xx.h **** }
 393:../../lib/lpc11cx4-library/lpc_chip_11cxx_lib/inc/uart_11xx.h **** 
 394:../../lib/lpc11cx4-library/lpc_chip_11cxx_lib/inc/uart_11xx.h **** /**
 395:../../lib/lpc11cx4-library/lpc_chip_11cxx_lib/inc/uart_11xx.h ****  * @brief	Setup the UART FIFOs
 396:../../lib/lpc11cx4-library/lpc_chip_11cxx_lib/inc/uart_11xx.h ****  * @param	pUART	: Pointer to selected UART peripheral
 397:../../lib/lpc11cx4-library/lpc_chip_11cxx_lib/inc/uart_11xx.h ****  * @param	fcr		: FIFO control register setup OR'ed flags
 398:../../lib/lpc11cx4-library/lpc_chip_11cxx_lib/inc/uart_11xx.h ****  * @return	Nothing
 399:../../lib/lpc11cx4-library/lpc_chip_11cxx_lib/inc/uart_11xx.h ****  * @note	Use OR'ed value of UART_FCR_* definitions with this function
 400:../../lib/lpc11cx4-library/lpc_chip_11cxx_lib/inc/uart_11xx.h ****  *			to select specific options. For example, to enable the FIFOs
 401:../../lib/lpc11cx4-library/lpc_chip_11cxx_lib/inc/uart_11xx.h ****  *			with a RX trip level of 8 characters, use something like
 402:../../lib/lpc11cx4-library/lpc_chip_11cxx_lib/inc/uart_11xx.h ****  *			(UART_FCR_FIFO_EN | UART_FCR_TRG_LEV2)
 403:../../lib/lpc11cx4-library/lpc_chip_11cxx_lib/inc/uart_11xx.h ****  */
 404:../../lib/lpc11cx4-library/lpc_chip_11cxx_lib/inc/uart_11xx.h **** STATIC INLINE void Chip_UART_SetupFIFOS(LPC_USART_T *pUART, uint32_t fcr)
 405:../../lib/lpc11cx4-library/lpc_chip_11cxx_lib/inc/uart_11xx.h **** {
 406:../../lib/lpc11cx4-library/lpc_chip_11cxx_lib/inc/uart_11xx.h **** 	pUART->FCR = fcr;
 407:../../lib/lpc11cx4-library/lpc_chip_11cxx_lib/inc/uart_11xx.h **** }
 408:../../lib/lpc11cx4-library/lpc_chip_11cxx_lib/inc/uart_11xx.h **** 
 409:../../lib/lpc11cx4-library/lpc_chip_11cxx_lib/inc/uart_11xx.h **** /**
 410:../../lib/lpc11cx4-library/lpc_chip_11cxx_lib/inc/uart_11xx.h ****  * @brief	Configure data width, parity and stop bits
 411:../../lib/lpc11cx4-library/lpc_chip_11cxx_lib/inc/uart_11xx.h ****  * @param	pUART	: Pointer to selected pUART peripheral
 412:../../lib/lpc11cx4-library/lpc_chip_11cxx_lib/inc/uart_11xx.h ****  * @param	config	: UART configuration, OR'ed values of UART_LCR_* defines
 413:../../lib/lpc11cx4-library/lpc_chip_11cxx_lib/inc/uart_11xx.h ****  * @return	Nothing
 414:../../lib/lpc11cx4-library/lpc_chip_11cxx_lib/inc/uart_11xx.h ****  * @note	Select OR'ed config options for the UART from the UART_LCR_*
 415:../../lib/lpc11cx4-library/lpc_chip_11cxx_lib/inc/uart_11xx.h ****  *			definitions. For example, a configuration of 8 data bits, 1
 416:../../lib/lpc11cx4-library/lpc_chip_11cxx_lib/inc/uart_11xx.h ****  *			stop bit, and even (enabled) parity would be
 417:../../lib/lpc11cx4-library/lpc_chip_11cxx_lib/inc/uart_11xx.h ****  *			(UART_LCR_WLEN8 | UART_LCR_SBS_1BIT | UART_LCR_PARITY_EN | UART_LCR_PARITY_EVEN)
 418:../../lib/lpc11cx4-library/lpc_chip_11cxx_lib/inc/uart_11xx.h ****  */
 419:../../lib/lpc11cx4-library/lpc_chip_11cxx_lib/inc/uart_11xx.h **** STATIC INLINE void Chip_UART_ConfigData(LPC_USART_T *pUART, uint32_t config)
ARM GAS  /var/folders/z0/6xlwn_996xz3mwq1cgzkbq4r0000gp/T//ccmGTjkW.s 			page 39


 420:../../lib/lpc11cx4-library/lpc_chip_11cxx_lib/inc/uart_11xx.h **** {
 421:../../lib/lpc11cx4-library/lpc_chip_11cxx_lib/inc/uart_11xx.h **** 	pUART->LCR = config;
 661              		.loc 5 421 0
 662 0046 0323     		movs	r3, #3	@ tmp134,
 663              	.LBE57:
 664              	.LBE56:
 665              	.LBB59:
 666              	.LBB60:
 554:../../lib/lpc11cx4-library/lpc_chip_11cxx_lib/inc/core_cm0.h **** }
 667              		.loc 2 554 0
 668 0048 8022     		movs	r2, #128	@ tmp144,
 669 004a C021     		movs	r1, #192	@ tmp143,
 670              	.LBE60:
 671              	.LBE59:
 672              	.LBB64:
 673              	.LBB58:
 674              		.loc 5 421 0
 675 004c E360     		str	r3, [r4, #12]	@ tmp134, MEM[(struct LPC_USART_T *)1073774592B].LCR
 676              	.LVL51:
 677              	.LBE58:
 678              	.LBE64:
 679              	.LBB65:
 680              	.LBB66:
 406:../../lib/lpc11cx4-library/lpc_chip_11cxx_lib/inc/uart_11xx.h **** }
 681              		.loc 5 406 0
 682 004e 7E33     		adds	r3, r3, #126	@ tmp136,
 683 0050 A360     		str	r3, [r4, #8]	@ tmp136, MEM[(struct LPC_USART_T *)1073774592B].D.5642.FCR
 684              	.LVL52:
 685              	.LBE66:
 686              	.LBE65:
 687              	.LBB67:
 688              	.LBB68:
 302:../../lib/lpc11cx4-library/lpc_chip_11cxx_lib/inc/uart_11xx.h **** }
 689              		.loc 5 302 0
 690 0052 013B     		subs	r3, r3, #1	@ tmp138,
 691 0054 2363     		str	r3, [r4, #48]	@ tmp138, MEM[(struct LPC_USART_T *)1073774592B].TER1
 692              	.LVL53:
 693              	.LBE68:
 694              	.LBE67:
 695              	.LBB69:
 696              	.LBB70:
 353:../../lib/lpc11cx4-library/lpc_chip_11cxx_lib/inc/uart_11xx.h **** }
 697              		.loc 5 353 0
 698 0056 6368     		ldr	r3, [r4, #4]	@ D.8195, MEM[(struct LPC_USART_T *)1073774592B].D.5638.IER
 699              	.LBE70:
 700              	.LBE69:
 701              	.LBB73:
 702              	.LBB61:
 554:../../lib/lpc11cx4-library/lpc_chip_11cxx_lib/inc/core_cm0.h **** }
 703              		.loc 2 554 0
 704 0058 9203     		lsls	r2, r2, #14	@ tmp144, tmp144,
 705              	.LBE61:
 706              	.LBE73:
 707              	.LBB74:
 708              	.LBB71:
 353:../../lib/lpc11cx4-library/lpc_chip_11cxx_lib/inc/uart_11xx.h **** }
 709              		.loc 5 353 0
ARM GAS  /var/folders/z0/6xlwn_996xz3mwq1cgzkbq4r0000gp/T//ccmGTjkW.s 			page 40


 710 005a 1D43     		orrs	r5, r3	@ D.8195, D.8195
 711              	.LBE71:
 712              	.LBE74:
 713              	.LBB75:
 714              	.LBB62:
 554:../../lib/lpc11cx4-library/lpc_chip_11cxx_lib/inc/core_cm0.h **** }
 715              		.loc 2 554 0
 716 005c 084B     		ldr	r3, .L39+24	@ tmp142,
 717 005e 4900     		lsls	r1, r1, #1	@ tmp143, tmp143,
 718              	.LBE62:
 719              	.LBE75:
 720              	.LBB76:
 721              	.LBB72:
 353:../../lib/lpc11cx4-library/lpc_chip_11cxx_lib/inc/uart_11xx.h **** }
 722              		.loc 5 353 0
 723 0060 6560     		str	r5, [r4, #4]	@ D.8195, MEM[(struct LPC_USART_T *)1073774592B].D.5638.IER
 724              	.LVL54:
 725              	.LBE72:
 726              	.LBE76:
  94:src/board.c   ****   Chip_UART_ConfigData(LPC_USART, (UART_LCR_WLEN8 | UART_LCR_SBS_1BIT | UART_LCR_PARITY_DIS));
  95:src/board.c   ****   Chip_UART_SetupFIFOS(LPC_USART, (UART_FCR_FIFO_EN | UART_FCR_TRG_LEV2));
  96:src/board.c   ****   Chip_UART_TXEnable(LPC_USART);
  97:src/board.c   **** 
  98:src/board.c   ****   Chip_UART_IntEnable(LPC_USART, UART_IER_RBRINT);
  99:src/board.c   ****   NVIC_ClearPendingIRQ(UART0_IRQn);
 100:src/board.c   ****   NVIC_EnableIRQ(UART0_IRQn);
 101:src/board.c   **** }
 727              		.loc 1 101 0
 728              		@ sp needed	@
 729              	.LBB77:
 730              	.LBB63:
 554:../../lib/lpc11cx4-library/lpc_chip_11cxx_lib/inc/core_cm0.h **** }
 731              		.loc 2 554 0
 732 0062 5A50     		str	r2, [r3, r1]	@ tmp144, MEM[(struct NVIC_Type *)3758153984B].ICPR
 733              	.LVL55:
 734              	.LBE63:
 735              	.LBE77:
 736              	.LBB78:
 737              	.LBB79:
 502:../../lib/lpc11cx4-library/lpc_chip_11cxx_lib/inc/core_cm0.h **** }
 738              		.loc 2 502 0
 739 0064 1A60     		str	r2, [r3]	@ tmp144, MEM[(struct NVIC_Type *)3758153984B].ISER
 740              	.LVL56:
 741              	.LVL57:
 742              	.LBE79:
 743              	.LBE78:
 744              		.loc 1 101 0
 745 0066 70BD     		pop	{r4, r5, r6, pc}
 746              	.L40:
 747              		.align	2
 748              	.L39:
 749 0068 00000000 		.word	.LANCHOR1
 750 006c 00000000 		.word	.LANCHOR3
 751 0070 00000000 		.word	.LANCHOR0
 752 0074 00000000 		.word	.LANCHOR4
 753 0078 00400440 		.word	1074020352
 754 007c 00800040 		.word	1073774592
ARM GAS  /var/folders/z0/6xlwn_996xz3mwq1cgzkbq4r0000gp/T//ccmGTjkW.s 			page 41


 755 0080 00E100E0 		.word	-536813312
 756              		.cfi_endproc
 757              	.LFE210:
 758              		.size	Board_UART_Init, .-Board_UART_Init
 759              		.section	.text.Board_Contactors_Closed,"ax",%progbits
 760              		.align	2
 761              		.global	Board_Contactors_Closed
 762              		.code	16
 763              		.thumb_func
 764              		.type	Board_Contactors_Closed, %function
 765              	Board_Contactors_Closed:
 766              	.LFB216:
 102:src/board.c   **** 
 103:src/board.c   **** void Board_Can_ProcessInput(CSB_INPUT_T *csb_input, CSB_STATE_T *csb_state){
 104:src/board.c   ****   Can_MsgID_T msgType = Can_MsgType();
 105:src/board.c   **** 
 106:src/board.c   ****   if (msgType == Can_No_Msg) {
 107:src/board.c   ****       // No message, so do nothing this round
 108:src/board.c   ****       return;
 109:src/board.c   ****   } else if (msgType == Can_Error_Msg) {
 110:src/board.c   ****       Can_ErrorID_T err = Can_Error_Read();
 111:src/board.c   ****       handle_can_error(err, csb_state->curr_baud_rate);
 112:src/board.c   ****       return;
 113:src/board.c   ****   }
 114:src/board.c   **** 
 115:src/board.c   ****   // We had a successful reception, so finish reset (if it's still happening)
 116:src/board.c   ****   isResetting = false;
 117:src/board.c   **** 
 118:src/board.c   ****   if (msgType == Can_Unknown_Msg) {
 119:src/board.c   ****       Frame f;
 120:src/board.c   ****       Can_Unknown_Read(&f);
 121:src/board.c   ****   } else if (msgType == Can_ElconHeartbeat_Msg) {
 122:src/board.c   ****       Can_ElconHeartbeat_T msg;
 123:src/board.c   ****       Can_ElconHeartbeat_Read(&msg);
 124:src/board.c   ****       csb_input->elcon_status->elcon_output_voltage = msg.output_voltage;
 125:src/board.c   ****       csb_input->elcon_status->elcon_output_current = msg.output_current;
 126:src/board.c   ****       csb_input->elcon_status->elcon_has_hardware_failure = msg.has_hardware_failure;
 127:src/board.c   ****       csb_input->elcon_status->elcon_over_temp_protection_on = msg.over_temp_protection_on;
 128:src/board.c   ****       csb_input->elcon_status->elcon_is_input_voltage_wrong = msg.is_input_voltage_wrong;
 129:src/board.c   ****       csb_input->elcon_status->elcon_battery_voltage_not_detected = msg.battery_voltage_not_detecte
 130:src/board.c   ****       csb_input->elcon_status->elcon_is_comms_bad = msg.elcon_is_comms_bad;
 131:src/board.c   ****       if (msg.has_hardware_failure || msg.over_temp_protection_on ||
 132:src/board.c   ****           msg.is_input_voltage_wrong || msg.battery_voltage_not_detected ||
 133:src/board.c   ****           msg.elcon_is_comms_bad) {
 134:src/board.c   ****           csb_input->elcon_status->elcon_on = false;
 135:src/board.c   ****       } else {
 136:src/board.c   ****           csb_input->elcon_status->elcon_on = true;
 137:src/board.c   ****       }
 138:src/board.c   ****       // TODO: create some sort of threshold
 139:src/board.c   ****       if (msg.output_current == 0) {
 140:src/board.c   ****           csb_input->elcon_status->elcon_charging = false;
 141:src/board.c   ****       } else {
 142:src/board.c   ****           csb_input->elcon_status->elcon_charging = true;
 143:src/board.c   ****       }
 144:src/board.c   ****   } else if (msgType == Can_BmsPackStatus_Msg) {
 145:src/board.c   ****       Can_BmsPackStatus_T msg;
 146:src/board.c   ****       Can_BmsPackStatus_Read(&msg);
ARM GAS  /var/folders/z0/6xlwn_996xz3mwq1cgzkbq4r0000gp/T//ccmGTjkW.s 			page 42


 147:src/board.c   ****       csb_input->pack_status->pack_cell_max_mV = msg.max_cell_voltage;
 148:src/board.c   ****       csb_input->pack_status->pack_current_mA = msg.pack_current;
 149:src/board.c   ****       csb_input->pack_status->pack_voltage_mV= msg.pack_voltage;
 150:src/board.c   ****       csb_input->balance_req = msg.balancing_needed;
 151:src/board.c   ****       //TODO:check this maybe gotta check if the above read correctly from CAN extended
 152:src/board.c   ****       csb_input->receive_bms_config = true;
 153:src/board.c   ****   } else if (msgType == Can_BMSErrors_Msg) {
 154:src/board.c   ****     Can_BMSErrors_T msg;
 155:src/board.c   ****     Can_BMSErrors_Read(&msg);
 156:src/board.c   ****     csb_input->bms_error = msg.type;
 157:src/board.c   ****   } else {
 158:src/board.c   ****       // note other errors
 159:src/board.c   ****   }
 160:src/board.c   **** }
 161:src/board.c   **** 
 162:src/board.c   **** void Board_Can_ProcessOutput(CSB_INPUT_T *csb_input, CSB_STATE_T *csb_state, CSB_OUTPUT_T *csb_outp
 163:src/board.c   ****   uint32_t msTicks = csb_input->msTicks;
 164:src/board.c   ****   if ((csb_state->curr_mode == CSB_SSM_MODE_CHARGE) && (csb_state->charge_state == CSB_CHARGE_SWITC
 165:src/board.c   ****       CAN_ResetPeripheral();
 166:src/board.c   ****       Board_Can_Init(BMS_CAN_BAUD);
 167:src/board.c   ****   }
 168:src/board.c   ****   if ((csb_state->curr_mode == CSB_SSM_MODE_CHARGE) && (csb_state->charge_state == CSB_CHARGE_SWITC
 169:src/board.c   ****       CAN_ResetPeripheral();
 170:src/board.c   ****       Board_Can_Init(CSB_CAN_BAUD);
 171:src/board.c   ****   }
 172:src/board.c   ****   if ( ((msTicks - last_csb_elcon_command_time) > CSB_ELCON_COMMAND_PERIOD) && (csb_state->curr_mod
 173:src/board.c   ****       last_csb_elcon_command_time = msTicks;
 174:src/board.c   ****       Send_Elcon_Command(csb_output);
 175:src/board.c   ****   }
 176:src/board.c   ****   if (((msTicks - last_bms_switch_time) > INIT_SEND_TIME_MAX) && (csb_output->send_bms_config == tr
 177:src/board.c   ****       last_bms_switch_time = msTicks;
 178:src/board.c   ****       Send_Bms_Switch();
 179:src/board.c   ****   }
 180:src/board.c   ****   if ( ((msTicks - last_csb_bms_mode_time) > CSB_BMS_MODE_PERIOD) && (csb_state->curr_mode != CSB_S
 181:src/board.c   ****       last_csb_bms_mode_time = msTicks;
 182:src/board.c   ****       Send_Bms_Mode(csb_state);
 183:src/board.c   ****   }
 184:src/board.c   **** }
 185:src/board.c   **** 
 186:src/board.c   **** void Send_Elcon_Command(CSB_OUTPUT_T *csb_output) {
 187:src/board.c   ****   Can_ElconCommand_T elcon_command;
 188:src/board.c   ****   elcon_command.max_terminal_voltage = csb_output->voltage_req_mV;
 189:src/board.c   ****   elcon_command.max_current = csb_output->current_req_mA;
 190:src/board.c   ****   elcon_command.control = csb_output->charger_on;
 191:src/board.c   **** 
 192:src/board.c   ****   handle_can_error(Can_ElconCommand_Write(&elcon_command), CSB_CAN_BAUD);
 193:src/board.c   **** }
 194:src/board.c   **** 
 195:src/board.c   **** void Send_Bms_Switch(void) {
 196:src/board.c   ****   Can_BMS_CSB_Switch_T switch_msg;
 197:src/board.c   ****   switch_msg.always_true = true;
 198:src/board.c   **** 
 199:src/board.c   ****   handle_can_error(Can_BMS_CSB_Switch_Write(&switch_msg), BMS_CAN_BAUD);
 200:src/board.c   **** }
 201:src/board.c   **** 
 202:src/board.c   **** void Send_Bms_Mode(CSB_STATE_T *csb_state) {
 203:src/board.c   ****   Can_BMS_Mode_T mode_msg;
ARM GAS  /var/folders/z0/6xlwn_996xz3mwq1cgzkbq4r0000gp/T//ccmGTjkW.s 			page 43


 204:src/board.c   **** 
 205:src/board.c   ****   switch (csb_state->curr_mode) {
 206:src/board.c   ****     case CSB_SSM_MODE_CHARGE:
 207:src/board.c   ****       mode_msg.requested_mode = ____BMS_MODE__REQUESTED_MODE__CHARGE;
 208:src/board.c   ****       break;
 209:src/board.c   ****     case CSB_SSM_MODE_BALANCE:
 210:src/board.c   ****       mode_msg.requested_mode = ____BMS_MODE__REQUESTED_MODE__BALANCE;
 211:src/board.c   ****       break;
 212:src/board.c   ****     case CSB_SSM_MODE_INIT:
 213:src/board.c   ****     case CSB_SSM_MODE_IDLE:
 214:src/board.c   ****     default:
 215:src/board.c   ****       mode_msg.requested_mode = ____BMS_MODE__REQUESTED_MODE__IDLE;
 216:src/board.c   ****       break;
 217:src/board.c   ****   }
 218:src/board.c   **** 
 219:src/board.c   ****   handle_can_error(Can_BMS_Mode_Write(&mode_msg), CSB_CAN_BAUD);
 220:src/board.c   **** }
 221:src/board.c   **** 
 222:src/board.c   **** bool Board_Contactors_Closed(void) {
 767              		.loc 1 222 0
 768              		.cfi_startproc
 769              		@ args = 0, pretend = 0, frame = 0
 770              		@ frame_needed = 0, uses_anonymous_args = 0
 771 0000 10B5     		push	{r4, lr}	@
 772              		.cfi_def_cfa_offset 8
 773              		.cfi_offset 4, -8
 774              		.cfi_offset 14, -4
 223:src/board.c   ****   return Low_Side_Contactor_Pin_Get();
 775              		.loc 1 223 0
 776 0002 FFF7FEFF 		bl	Low_Side_Contactor_Pin_Get	@
 777              	.LVL58:
 224:src/board.c   **** }
 778              		.loc 1 224 0
 779              		@ sp needed	@
 780 0006 10BD     		pop	{r4, pc}
 781              		.cfi_endproc
 782              	.LFE216:
 783              		.size	Board_Contactors_Closed, .-Board_Contactors_Closed
 784              		.section	.text.Board_GetModeRequest,"ax",%progbits
 785              		.align	2
 786              		.global	Board_GetModeRequest
 787              		.code	16
 788              		.thumb_func
 789              		.type	Board_GetModeRequest, %function
 790              	Board_GetModeRequest:
 791              	.LFB217:
 225:src/board.c   **** 
 226:src/board.c   **** void Board_GetModeRequest(const CONSOLE_OUTPUT_T *console_output, CSB_INPUT_T *csb_input, CSB_STATE
 792              		.loc 1 226 0
 793              		.cfi_startproc
 794              		@ args = 0, pretend = 0, frame = 0
 795              		@ frame_needed = 0, uses_anonymous_args = 0
 796              		@ link register save eliminated.
 797              	.LVL59:
 227:src/board.c   ****   CSB_SSM_MODE_T console_mode_request = CSB_SSM_MODE_IDLE;
 228:src/board.c   ****   if (console_output->valid_mode_request) {
 798              		.loc 1 228 0
ARM GAS  /var/folders/z0/6xlwn_996xz3mwq1cgzkbq4r0000gp/T//ccmGTjkW.s 			page 44


 799 0000 0278     		ldrb	r2, [r0]	@ *console_output_4(D), *console_output_4(D)
 800              	.LVL60:
 227:src/board.c   ****   CSB_SSM_MODE_T console_mode_request = CSB_SSM_MODE_IDLE;
 801              		.loc 1 227 0
 802 0002 0123     		movs	r3, #1	@ console_mode_request,
 803              		.loc 1 228 0
 804 0004 002A     		cmp	r2, #0	@ *console_output_4(D),
 805 0006 02D0     		beq	.L43	@,
 229:src/board.c   ****       console_mode_request = console_output->mode_request;
 230:src/board.c   ****       csb_input->balance_mV = console_output->balance_mV;
 806              		.loc 1 230 0
 807 0008 4268     		ldr	r2, [r0, #4]	@ tmp119, console_output_4(D)->balance_mV
 229:src/board.c   ****       console_mode_request = console_output->mode_request;
 808              		.loc 1 229 0
 809 000a 8378     		ldrb	r3, [r0, #2]	@ console_mode_request,
 810              	.LVL61:
 811              		.loc 1 230 0
 812 000c CA60     		str	r2, [r1, #12]	@ tmp119, csb_input_8(D)->balance_mV
 813              	.LVL62:
 814              	.L43:
 231:src/board.c   ****   }
 232:src/board.c   ****   csb_input->mode_request = console_mode_request;
 815              		.loc 1 232 0
 816 000e 0B72     		strb	r3, [r1, #8]	@ console_mode_request, csb_input_8(D)->mode_request
 233:src/board.c   **** }
 817              		.loc 1 233 0
 818              		@ sp needed	@
 819 0010 7047     		bx	lr
 820              		.cfi_endproc
 821              	.LFE217:
 822              		.size	Board_GetModeRequest, .-Board_GetModeRequest
 823 0012 C046     		.section	.text.Board_Contactors_Set,"ax",%progbits
 824              		.align	2
 825              		.global	Board_Contactors_Set
 826              		.code	16
 827              		.thumb_func
 828              		.type	Board_Contactors_Set, %function
 829              	Board_Contactors_Set:
 830              	.LFB218:
 234:src/board.c   **** 
 235:src/board.c   **** void Board_Contactors_Set(bool close_contactors) {
 831              		.loc 1 235 0
 832              		.cfi_startproc
 833              		@ args = 0, pretend = 0, frame = 0
 834              		@ frame_needed = 0, uses_anonymous_args = 0
 835              	.LVL63:
 836 0000 10B5     		push	{r4, lr}	@
 837              		.cfi_def_cfa_offset 8
 838              		.cfi_offset 4, -8
 839              		.cfi_offset 14, -4
 236:src/board.c   ****   High_Side_Contactor_Pin_Set(close_contactors);
 840              		.loc 1 236 0
 841 0002 FFF7FEFF 		bl	High_Side_Contactor_Pin_Set	@
 842              	.LVL64:
 237:src/board.c   **** }
 843              		.loc 1 237 0
 844              		@ sp needed	@
ARM GAS  /var/folders/z0/6xlwn_996xz3mwq1cgzkbq4r0000gp/T//ccmGTjkW.s 			page 45


 845 0006 10BD     		pop	{r4, pc}
 846              		.cfi_endproc
 847              	.LFE218:
 848              		.size	Board_Contactors_Set, .-Board_Contactors_Set
 849              		.section	.text.Board_Check_Faults,"ax",%progbits
 850              		.align	2
 851              		.global	Board_Check_Faults
 852              		.code	16
 853              		.thumb_func
 854              		.type	Board_Check_Faults, %function
 855              	Board_Check_Faults:
 856              	.LFB219:
 238:src/board.c   **** 
 239:src/board.c   **** void Board_Check_Faults(CSB_INPUT_T *csb_input) {
 857              		.loc 1 239 0
 858              		.cfi_startproc
 859              		@ args = 0, pretend = 0, frame = 0
 860              		@ frame_needed = 0, uses_anonymous_args = 0
 861              	.LVL65:
 862 0000 10B5     		push	{r4, lr}	@
 863              		.cfi_def_cfa_offset 8
 864              		.cfi_offset 4, -8
 865              		.cfi_offset 14, -4
 866              		.loc 1 239 0
 867 0002 0400     		movs	r4, r0	@ csb_input, csb_input
 240:src/board.c   ****   csb_input->imd_fault = IMD_Pin_Get();
 868              		.loc 1 240 0
 869 0004 FFF7FEFF 		bl	IMD_Pin_Get	@
 870              	.LVL66:
 871 0008 E075     		strb	r0, [r4, #23]	@ tmp115, csb_input_4(D)->imd_fault
 241:src/board.c   ****   csb_input->int_fault = Interlock_Pin_Get();
 872              		.loc 1 241 0
 873 000a FFF7FEFF 		bl	Interlock_Pin_Get	@
 874              	.LVL67:
 875 000e 2076     		strb	r0, [r4, #24]	@ tmp118, csb_input_4(D)->int_fault
 242:src/board.c   ****   csb_input->bms_fault = BMS_Pin_Get();
 876              		.loc 1 242 0
 877 0010 FFF7FEFF 		bl	BMS_Pin_Get	@
 878              	.LVL68:
 879 0014 6076     		strb	r0, [r4, #25]	@ tmp121, csb_input_4(D)->bms_fault
 243:src/board.c   ****   csb_input->low_side_cntr_fault = Low_Side_Contactor_Pin_Get();
 880              		.loc 1 243 0
 881 0016 FFF7FEFF 		bl	Low_Side_Contactor_Pin_Get	@
 882              	.LVL69:
 244:src/board.c   **** }
 883              		.loc 1 244 0
 884              		@ sp needed	@
 243:src/board.c   ****   csb_input->low_side_cntr_fault = Low_Side_Contactor_Pin_Get();
 885              		.loc 1 243 0
 886 001a A076     		strb	r0, [r4, #26]	@ tmp124, csb_input_4(D)->low_side_cntr_fault
 887              	.LVL70:
 888              		.loc 1 244 0
 889 001c 10BD     		pop	{r4, pc}
 890              		.cfi_endproc
 891              	.LFE219:
 892              		.size	Board_Check_Faults, .-Board_Check_Faults
 893 001e C046     		.section	.text.handle_can_error,"ax",%progbits
ARM GAS  /var/folders/z0/6xlwn_996xz3mwq1cgzkbq4r0000gp/T//ccmGTjkW.s 			page 46


 894              		.align	2
 895              		.global	handle_can_error
 896              		.code	16
 897              		.thumb_func
 898              		.type	handle_can_error, %function
 899              	handle_can_error:
 900              	.LFB220:
 245:src/board.c   **** 
 246:src/board.c   **** void handle_can_error(Can_ErrorID_T err, uint32_t baud_rate) {
 901              		.loc 1 246 0
 902              		.cfi_startproc
 903              		@ args = 0, pretend = 0, frame = 0
 904              		@ frame_needed = 0, uses_anonymous_args = 0
 905              	.LVL71:
 906 0000 70B5     		push	{r4, r5, r6, lr}	@
 907              		.cfi_def_cfa_offset 16
 908              		.cfi_offset 4, -16
 909              		.cfi_offset 5, -12
 910              		.cfi_offset 6, -8
 911              		.cfi_offset 14, -4
 912              		.loc 1 246 0
 913 0002 0400     		movs	r4, r0	@ err, err
 914 0004 0D00     		movs	r5, r1	@ baud_rate, baud_rate
 247:src/board.c   ****     if (err == Can_Error_NONE || err == Can_Error_NO_RX) {
 915              		.loc 1 247 0
 916 0006 0128     		cmp	r0, #1	@ err,
 917 0008 49D9     		bls	.L67	@,
 248:src/board.c   ****         // Neither of these are real errors
 249:src/board.c   ****         isResetting = false;
 250:src/board.c   ****         return;
 251:src/board.c   ****     }
 252:src/board.c   ****     if (!isResetting) {
 918              		.loc 1 252 0
 919 000a 274B     		ldr	r3, .L69	@ tmp116,
 920 000c 1A78     		ldrb	r2, [r3]	@ isResetting, isResetting
 921 000e 002A     		cmp	r2, #0	@ isResetting,
 922 0010 09D0     		beq	.L68	@,
 923              	.LVL72:
 924              	.L51:
 253:src/board.c   ****         // We have an error, and should start a reset.
 254:src/board.c   ****         // TODO change behavior depending on error type.
 255:src/board.c   ****         isResetting = true;
 256:src/board.c   ****         CAN_ResetPeripheral();
 257:src/board.c   ****         Board_Can_Init(baud_rate);
 258:src/board.c   ****         UNUSED(err);
 259:src/board.c   ****     }
 260:src/board.c   **** 
 261:src/board.c   ****     switch(err) {
 925              		.loc 1 261 0
 926 0012 0F2C     		cmp	r4, #15	@ err,
 927 0014 06D8     		bhi	.L48	@,
 928 0016 254B     		ldr	r3, .L69+4	@ tmp123,
 929 0018 A400     		lsls	r4, r4, #2	@ tmp121, err,
 930 001a 1B59     		ldr	r3, [r3, r4]	@ tmp124,
 931 001c 9F46     		mov	pc, r3	@ tmp124
 932              		.section	.rodata.handle_can_error,"a",%progbits
 933              		.align	2
ARM GAS  /var/folders/z0/6xlwn_996xz3mwq1cgzkbq4r0000gp/T//ccmGTjkW.s 			page 47


 934              	.L53:
 935 0000 24000000 		.word	.L48
 936 0004 24000000 		.word	.L48
 937 0008 3E000000 		.word	.L52
 938 000c 46000000 		.word	.L54
 939 0010 4E000000 		.word	.L55
 940 0014 56000000 		.word	.L56
 941 0018 5E000000 		.word	.L57
 942 001c 66000000 		.word	.L58
 943 0020 6E000000 		.word	.L59
 944 0024 76000000 		.word	.L60
 945 0028 7E000000 		.word	.L61
 946 002c 86000000 		.word	.L62
 947 0030 8E000000 		.word	.L63
 948 0034 96000000 		.word	.L64
 949 0038 36000000 		.word	.L65
 950 003c 1E000000 		.word	.L66
 951              		.section	.text.handle_can_error
 952              	.L66:
 262:src/board.c   ****       case Can_Error_EPASS:
 263:src/board.c   ****         Board_Println("Can_Error_EPASS");
 264:src/board.c   ****         break;
 265:src/board.c   ****       case Can_Error_CRC:
 266:src/board.c   ****         Board_Println("Can_Error_CRC");
 267:src/board.c   ****         break;
 268:src/board.c   ****       case Can_Error_WARN:
 269:src/board.c   ****         Board_Println("Can_Error_WARN");
 270:src/board.c   ****         break;
 271:src/board.c   ****       case Can_Error_BOFF:
 272:src/board.c   ****         Board_Println("Can_Error_BOFF");
 273:src/board.c   ****         break;
 274:src/board.c   ****       case Can_Error_STUF:
 275:src/board.c   ****         Board_Println("Can_Error_STUF");
 276:src/board.c   ****         break;
 277:src/board.c   ****       case Can_Error_FORM:
 278:src/board.c   ****         Board_Println("Can_Error_FORM");
 279:src/board.c   ****         break;
 280:src/board.c   ****       case Can_Error_ACK:
 281:src/board.c   ****         Board_Println("Can_Error_ACK");
 282:src/board.c   ****         break;
 283:src/board.c   ****       case Can_Error_BIT1:
 284:src/board.c   ****         Board_Println("Can_Error_BIT1");
 285:src/board.c   ****         break;
 286:src/board.c   ****       case Can_Error_BIT0:
 287:src/board.c   ****         Board_Println("Can_Error_BIT0");
 288:src/board.c   ****         break;
 289:src/board.c   ****       case Can_Error_UNUSED:
 290:src/board.c   ****         Board_Println("Can_Error_UNUSED");
 291:src/board.c   ****         break;
 292:src/board.c   ****       case Can_Error_UNRECOGNIZED_MSGOBJ:
 293:src/board.c   ****         Board_Println("Can_Error_UNRECOGNIZED_MSGOBJ");
 294:src/board.c   ****         break;
 295:src/board.c   ****       case Can_Error_UNRECOGNIZED_ERROR:
 296:src/board.c   ****         Board_Println("Can_Error_UNRECOGNIZED_ERROR");
 297:src/board.c   ****         break;
 298:src/board.c   ****       case Can_Error_TX_BUFFER_FULL:
 299:src/board.c   ****         Board_Println("Can_Error_TX_BUFFER_FULL");
ARM GAS  /var/folders/z0/6xlwn_996xz3mwq1cgzkbq4r0000gp/T//ccmGTjkW.s 			page 48


 300:src/board.c   ****         break;
 301:src/board.c   ****       case Can_Error_RX_BUFFER_FULL:
 302:src/board.c   ****         Board_Println("Can_Error_RX_BUFFER_FULL");
 953              		.loc 1 302 0
 954 001e 2448     		ldr	r0, .L69+8	@,
 955 0020 FFF7FEFF 		bl	Board_Println	@
 956              	.LVL73:
 957              	.L48:
 303:src/board.c   ****         break;
 304:src/board.c   ****       case Can_Error_NONE:
 305:src/board.c   ****       case Can_Error_NO_RX:
 306:src/board.c   ****         break;
 307:src/board.c   ****     }
 308:src/board.c   **** }
 958              		.loc 1 308 0
 959              		@ sp needed	@
 960              	.LVL74:
 961 0024 70BD     		pop	{r4, r5, r6, pc}
 962              	.LVL75:
 963              	.L68:
 255:src/board.c   ****         CAN_ResetPeripheral();
 964              		.loc 1 255 0
 965 0026 0132     		adds	r2, r2, #1	@ tmp119,
 966 0028 1A70     		strb	r2, [r3]	@ tmp119, isResetting
 256:src/board.c   ****         Board_Can_Init(baud_rate);
 967              		.loc 1 256 0
 968 002a FFF7FEFF 		bl	CAN_ResetPeripheral	@
 969              	.LVL76:
 970              	.LBB80:
 971              	.LBB81:
  79:src/board.c   **** }
 972              		.loc 1 79 0
 973 002e 2800     		movs	r0, r5	@, baud_rate
 974 0030 FFF7FEFF 		bl	Can0_Csb_Init	@
 975              	.LVL77:
 976 0034 EDE7     		b	.L51	@
 977              	.LVL78:
 978              	.L65:
 979              	.LBE81:
 980              	.LBE80:
 299:src/board.c   ****         break;
 981              		.loc 1 299 0
 982 0036 1F48     		ldr	r0, .L69+12	@,
 983 0038 FFF7FEFF 		bl	Board_Println	@
 984              	.LVL79:
 300:src/board.c   ****       case Can_Error_RX_BUFFER_FULL:
 985              		.loc 1 300 0
 986 003c F2E7     		b	.L48	@
 987              	.L52:
 263:src/board.c   ****         break;
 988              		.loc 1 263 0
 989 003e 1E48     		ldr	r0, .L69+16	@,
 990 0040 FFF7FEFF 		bl	Board_Println	@
 991              	.LVL80:
 264:src/board.c   ****       case Can_Error_CRC:
 992              		.loc 1 264 0
 993 0044 EEE7     		b	.L48	@
ARM GAS  /var/folders/z0/6xlwn_996xz3mwq1cgzkbq4r0000gp/T//ccmGTjkW.s 			page 49


 994              	.L54:
 269:src/board.c   ****         break;
 995              		.loc 1 269 0
 996 0046 1D48     		ldr	r0, .L69+20	@,
 997 0048 FFF7FEFF 		bl	Board_Println	@
 998              	.LVL81:
 270:src/board.c   ****       case Can_Error_BOFF:
 999              		.loc 1 270 0
 1000 004c EAE7     		b	.L48	@
 1001              	.L55:
 272:src/board.c   ****         break;
 1002              		.loc 1 272 0
 1003 004e 1C48     		ldr	r0, .L69+24	@,
 1004 0050 FFF7FEFF 		bl	Board_Println	@
 1005              	.LVL82:
 273:src/board.c   ****       case Can_Error_STUF:
 1006              		.loc 1 273 0
 1007 0054 E6E7     		b	.L48	@
 1008              	.L56:
 275:src/board.c   ****         break;
 1009              		.loc 1 275 0
 1010 0056 1B48     		ldr	r0, .L69+28	@,
 1011 0058 FFF7FEFF 		bl	Board_Println	@
 1012              	.LVL83:
 276:src/board.c   ****       case Can_Error_FORM:
 1013              		.loc 1 276 0
 1014 005c E2E7     		b	.L48	@
 1015              	.L57:
 278:src/board.c   ****         break;
 1016              		.loc 1 278 0
 1017 005e 1A48     		ldr	r0, .L69+32	@,
 1018 0060 FFF7FEFF 		bl	Board_Println	@
 1019              	.LVL84:
 279:src/board.c   ****       case Can_Error_ACK:
 1020              		.loc 1 279 0
 1021 0064 DEE7     		b	.L48	@
 1022              	.L58:
 281:src/board.c   ****         break;
 1023              		.loc 1 281 0
 1024 0066 1948     		ldr	r0, .L69+36	@,
 1025 0068 FFF7FEFF 		bl	Board_Println	@
 1026              	.LVL85:
 282:src/board.c   ****       case Can_Error_BIT1:
 1027              		.loc 1 282 0
 1028 006c DAE7     		b	.L48	@
 1029              	.L59:
 284:src/board.c   ****         break;
 1030              		.loc 1 284 0
 1031 006e 1848     		ldr	r0, .L69+40	@,
 1032 0070 FFF7FEFF 		bl	Board_Println	@
 1033              	.LVL86:
 285:src/board.c   ****       case Can_Error_BIT0:
 1034              		.loc 1 285 0
 1035 0074 D6E7     		b	.L48	@
 1036              	.L60:
 287:src/board.c   ****         break;
 1037              		.loc 1 287 0
ARM GAS  /var/folders/z0/6xlwn_996xz3mwq1cgzkbq4r0000gp/T//ccmGTjkW.s 			page 50


 1038 0076 1748     		ldr	r0, .L69+44	@,
 1039 0078 FFF7FEFF 		bl	Board_Println	@
 1040              	.LVL87:
 288:src/board.c   ****       case Can_Error_UNUSED:
 1041              		.loc 1 288 0
 1042 007c D2E7     		b	.L48	@
 1043              	.L61:
 266:src/board.c   ****         break;
 1044              		.loc 1 266 0
 1045 007e 1648     		ldr	r0, .L69+48	@,
 1046 0080 FFF7FEFF 		bl	Board_Println	@
 1047              	.LVL88:
 267:src/board.c   ****       case Can_Error_WARN:
 1048              		.loc 1 267 0
 1049 0084 CEE7     		b	.L48	@
 1050              	.L62:
 290:src/board.c   ****         break;
 1051              		.loc 1 290 0
 1052 0086 1548     		ldr	r0, .L69+52	@,
 1053 0088 FFF7FEFF 		bl	Board_Println	@
 1054              	.LVL89:
 291:src/board.c   ****       case Can_Error_UNRECOGNIZED_MSGOBJ:
 1055              		.loc 1 291 0
 1056 008c CAE7     		b	.L48	@
 1057              	.L63:
 293:src/board.c   ****         break;
 1058              		.loc 1 293 0
 1059 008e 1448     		ldr	r0, .L69+56	@,
 1060 0090 FFF7FEFF 		bl	Board_Println	@
 1061              	.LVL90:
 294:src/board.c   ****       case Can_Error_UNRECOGNIZED_ERROR:
 1062              		.loc 1 294 0
 1063 0094 C6E7     		b	.L48	@
 1064              	.L64:
 296:src/board.c   ****         break;
 1065              		.loc 1 296 0
 1066 0096 1348     		ldr	r0, .L69+60	@,
 1067 0098 FFF7FEFF 		bl	Board_Println	@
 1068              	.LVL91:
 297:src/board.c   ****       case Can_Error_TX_BUFFER_FULL:
 1069              		.loc 1 297 0
 1070 009c C2E7     		b	.L48	@
 1071              	.LVL92:
 1072              	.L67:
 249:src/board.c   ****         return;
 1073              		.loc 1 249 0
 1074 009e 0022     		movs	r2, #0	@ tmp114,
 1075 00a0 014B     		ldr	r3, .L69	@ tmp113,
 1076 00a2 1A70     		strb	r2, [r3]	@ tmp114, isResetting
 250:src/board.c   ****     }
 1077              		.loc 1 250 0
 1078 00a4 BEE7     		b	.L48	@
 1079              	.L70:
 1080 00a6 C046     		.align	2
 1081              	.L69:
 1082 00a8 00000000 		.word	.LANCHOR5
 1083 00ac 00000000 		.word	.L53
ARM GAS  /var/folders/z0/6xlwn_996xz3mwq1cgzkbq4r0000gp/T//ccmGTjkW.s 			page 51


 1084 00b0 04010000 		.word	.LC44
 1085 00b4 E8000000 		.word	.LC42
 1086 00b8 04000000 		.word	.LC18
 1087 00bc 24000000 		.word	.LC22
 1088 00c0 34000000 		.word	.LC24
 1089 00c4 44000000 		.word	.LC26
 1090 00c8 54000000 		.word	.LC28
 1091 00cc 64000000 		.word	.LC30
 1092 00d0 74000000 		.word	.LC32
 1093 00d4 84000000 		.word	.LC34
 1094 00d8 14000000 		.word	.LC20
 1095 00dc 94000000 		.word	.LC36
 1096 00e0 A8000000 		.word	.LC38
 1097 00e4 C8000000 		.word	.LC40
 1098              		.cfi_endproc
 1099              	.LFE220:
 1100              		.size	handle_can_error, .-handle_can_error
 1101              		.section	.text.Board_Can_ProcessInput,"ax",%progbits
 1102              		.align	2
 1103              		.global	Board_Can_ProcessInput
 1104              		.code	16
 1105              		.thumb_func
 1106              		.type	Board_Can_ProcessInput, %function
 1107              	Board_Can_ProcessInput:
 1108              	.LFB211:
 103:src/board.c   ****   Can_MsgID_T msgType = Can_MsgType();
 1109              		.loc 1 103 0
 1110              		.cfi_startproc
 1111              		@ args = 0, pretend = 0, frame = 16
 1112              		@ frame_needed = 0, uses_anonymous_args = 0
 1113              	.LVL93:
 1114 0000 70B5     		push	{r4, r5, r6, lr}	@
 1115              		.cfi_def_cfa_offset 16
 1116              		.cfi_offset 4, -16
 1117              		.cfi_offset 5, -12
 1118              		.cfi_offset 6, -8
 1119              		.cfi_offset 14, -4
 1120 0002 84B0     		sub	sp, sp, #16	@,,
 1121              		.cfi_def_cfa_offset 32
 103:src/board.c   ****   Can_MsgID_T msgType = Can_MsgType();
 1122              		.loc 1 103 0
 1123 0004 0400     		movs	r4, r0	@ csb_input, csb_input
 1124 0006 0D00     		movs	r5, r1	@ csb_state, csb_state
 104:src/board.c   **** 
 1125              		.loc 1 104 0
 1126 0008 FFF7FEFF 		bl	Can_MsgType	@
 1127              	.LVL94:
 106:src/board.c   ****       // No message, so do nothing this round
 1128              		.loc 1 106 0
 1129 000c 0028     		cmp	r0, #0	@ tmp132,
 1130 000e 0CD0     		beq	.L71	@,
 109:src/board.c   ****       Can_ErrorID_T err = Can_Error_Read();
 1131              		.loc 1 109 0
 1132 0010 0228     		cmp	r0, #2	@ tmp132,
 1133 0012 3FD0     		beq	.L85	@,
 116:src/board.c   **** 
 1134              		.loc 1 116 0
ARM GAS  /var/folders/z0/6xlwn_996xz3mwq1cgzkbq4r0000gp/T//ccmGTjkW.s 			page 52


 1135 0014 0022     		movs	r2, #0	@ tmp138,
 1136 0016 304B     		ldr	r3, .L91	@ tmp137,
 1137 0018 1A70     		strb	r2, [r3]	@ tmp138, isResetting
 118:src/board.c   ****       Frame f;
 1138              		.loc 1 118 0
 1139 001a 0128     		cmp	r0, #1	@ tmp132,
 1140 001c 40D0     		beq	.L86	@,
 121:src/board.c   ****       Can_ElconHeartbeat_T msg;
 1141              		.loc 1 121 0
 1142 001e 0728     		cmp	r0, #7	@ tmp132,
 1143 0020 0CD0     		beq	.L87	@,
 144:src/board.c   ****       Can_BmsPackStatus_T msg;
 1144              		.loc 1 144 0
 1145 0022 1028     		cmp	r0, #16	@ tmp132,
 1146 0024 43D0     		beq	.L88	@,
 153:src/board.c   ****     Can_BMSErrors_T msg;
 1147              		.loc 1 153 0
 1148 0026 0B28     		cmp	r0, #11	@ tmp132,
 1149 0028 01D0     		beq	.L89	@,
 1150              	.LVL95:
 1151              	.L71:
 160:src/board.c   **** 
 1152              		.loc 1 160 0
 1153 002a 04B0     		add	sp, sp, #16	@,,
 1154              		@ sp needed	@
 1155 002c 70BD     		pop	{r4, r5, r6, pc}
 1156              	.LVL96:
 1157              	.L89:
 1158              	.LBB82:
 155:src/board.c   ****     csb_input->bms_error = msg.type;
 1159              		.loc 1 155 0 discriminator 5
 1160 002e 6846     		mov	r0, sp	@,
 1161              	.LVL97:
 1162 0030 FFF7FEFF 		bl	Can_BMSErrors_Read	@
 1163              	.LVL98:
 156:src/board.c   ****   } else {
 1164              		.loc 1 156 0 discriminator 5
 1165 0034 6B46     		mov	r3, sp	@ tmp193,
 1166 0036 1B78     		ldrb	r3, [r3]	@ msg, msg
 1167 0038 E376     		strb	r3, [r4, #27]	@ msg, csb_input_16(D)->bms_error
 1168              	.LBE82:
 1169 003a F6E7     		b	.L71	@
 1170              	.LVL99:
 1171              	.L87:
 1172              	.LBB83:
 123:src/board.c   ****       csb_input->elcon_status->elcon_output_voltage = msg.output_voltage;
 1173              		.loc 1 123 0
 1174 003c 6846     		mov	r0, sp	@,
 1175              	.LVL100:
 1176 003e FFF7FEFF 		bl	Can_ElconHeartbeat_Read	@
 1177              	.LVL101:
 124:src/board.c   ****       csb_input->elcon_status->elcon_output_current = msg.output_current;
 1178              		.loc 1 124 0
 1179 0042 6A46     		mov	r2, sp	@ tmp182,
 1180 0044 6368     		ldr	r3, [r4, #4]	@ D.8236, csb_input_16(D)->elcon_status
 1181 0046 5288     		ldrh	r2, [r2, #2]	@ tmp143,
 126:src/board.c   ****       csb_input->elcon_status->elcon_over_temp_protection_on = msg.over_temp_protection_on;
ARM GAS  /var/folders/z0/6xlwn_996xz3mwq1cgzkbq4r0000gp/T//ccmGTjkW.s 			page 53


 1182              		.loc 1 126 0
 1183 0048 6946     		mov	r1, sp	@ tmp184,
 124:src/board.c   ****       csb_input->elcon_status->elcon_output_current = msg.output_current;
 1184              		.loc 1 124 0
 1185 004a 1A80     		strh	r2, [r3]	@ tmp143, _17->elcon_output_voltage
 125:src/board.c   ****       csb_input->elcon_status->elcon_has_hardware_failure = msg.has_hardware_failure;
 1186              		.loc 1 125 0
 1187 004c 6A46     		mov	r2, sp	@ tmp183,
 127:src/board.c   ****       csb_input->elcon_status->elcon_is_input_voltage_wrong = msg.is_input_voltage_wrong;
 1188              		.loc 1 127 0
 1189 004e 6846     		mov	r0, sp	@ tmp185,
 128:src/board.c   ****       csb_input->elcon_status->elcon_battery_voltage_not_detected = msg.battery_voltage_not_detecte
 1190              		.loc 1 128 0
 1191 0050 6C46     		mov	r4, sp	@ tmp186,
 1192              	.LVL102:
 129:src/board.c   ****       csb_input->elcon_status->elcon_is_comms_bad = msg.elcon_is_comms_bad;
 1193              		.loc 1 129 0
 1194 0052 6D46     		mov	r5, sp	@ tmp187,
 1195              	.LVL103:
 130:src/board.c   ****       if (msg.has_hardware_failure || msg.over_temp_protection_on ||
 1196              		.loc 1 130 0
 1197 0054 6E46     		mov	r6, sp	@ tmp188,
 125:src/board.c   ****       csb_input->elcon_status->elcon_has_hardware_failure = msg.has_hardware_failure;
 1198              		.loc 1 125 0
 1199 0056 1289     		ldrh	r2, [r2, #8]	@ D.8237,
 126:src/board.c   ****       csb_input->elcon_status->elcon_over_temp_protection_on = msg.over_temp_protection_on;
 1200              		.loc 1 126 0
 1201 0058 0978     		ldrb	r1, [r1]	@ D.8238, msg
 125:src/board.c   ****       csb_input->elcon_status->elcon_has_hardware_failure = msg.has_hardware_failure;
 1202              		.loc 1 125 0
 1203 005a 5A80     		strh	r2, [r3, #2]	@ D.8237, _17->elcon_output_current
 126:src/board.c   ****       csb_input->elcon_status->elcon_over_temp_protection_on = msg.over_temp_protection_on;
 1204              		.loc 1 126 0
 1205 005c 1971     		strb	r1, [r3, #4]	@ D.8238, _17->elcon_has_hardware_failure
 127:src/board.c   ****       csb_input->elcon_status->elcon_is_input_voltage_wrong = msg.is_input_voltage_wrong;
 1206              		.loc 1 127 0
 1207 005e C079     		ldrb	r0, [r0, #7]	@ D.8238,
 1208 0060 5871     		strb	r0, [r3, #5]	@ D.8238, _17->elcon_over_temp_protection_on
 128:src/board.c   ****       csb_input->elcon_status->elcon_battery_voltage_not_detected = msg.battery_voltage_not_detecte
 1209              		.loc 1 128 0
 1210 0062 2479     		ldrb	r4, [r4, #4]	@ D.8238,
 1211 0064 9C71     		strb	r4, [r3, #6]	@ D.8238, _17->elcon_is_input_voltage_wrong
 129:src/board.c   ****       csb_input->elcon_status->elcon_is_comms_bad = msg.elcon_is_comms_bad;
 1212              		.loc 1 129 0
 1213 0066 AD79     		ldrb	r5, [r5, #6]	@ D.8238,
 1214 0068 DD71     		strb	r5, [r3, #7]	@ D.8238, _17->elcon_battery_voltage_not_detected
 130:src/board.c   ****       if (msg.has_hardware_failure || msg.over_temp_protection_on ||
 1215              		.loc 1 130 0
 1216 006a 7679     		ldrb	r6, [r6, #5]	@ D.8238,
 1217 006c 1E72     		strb	r6, [r3, #8]	@ D.8238, _17->elcon_is_comms_bad
 131:src/board.c   ****           msg.is_input_voltage_wrong || msg.battery_voltage_not_detected ||
 1218              		.loc 1 131 0
 1219 006e 0029     		cmp	r1, #0	@ D.8238,
 1220 0070 0AD1     		bne	.L77	@,
 131:src/board.c   ****           msg.is_input_voltage_wrong || msg.battery_voltage_not_detected ||
 1221              		.loc 1 131 0 is_stmt 0 discriminator 1
 1222 0072 0028     		cmp	r0, #0	@ D.8238,
ARM GAS  /var/folders/z0/6xlwn_996xz3mwq1cgzkbq4r0000gp/T//ccmGTjkW.s 			page 54


 1223 0074 08D1     		bne	.L77	@,
 131:src/board.c   ****           msg.is_input_voltage_wrong || msg.battery_voltage_not_detected ||
 1224              		.loc 1 131 0 discriminator 2
 1225 0076 002C     		cmp	r4, #0	@ D.8238,
 1226 0078 06D1     		bne	.L77	@,
 132:src/board.c   ****           msg.elcon_is_comms_bad) {
 1227              		.loc 1 132 0 is_stmt 1
 1228 007a 002D     		cmp	r5, #0	@ D.8238,
 1229 007c 04D1     		bne	.L77	@,
 132:src/board.c   ****           msg.elcon_is_comms_bad) {
 1230              		.loc 1 132 0 is_stmt 0 discriminator 1
 1231 007e 002E     		cmp	r6, #0	@ D.8238,
 1232 0080 02D1     		bne	.L77	@,
 136:src/board.c   ****       }
 1233              		.loc 1 136 0 is_stmt 1
 1234 0082 0121     		movs	r1, #1	@ tmp159,
 1235 0084 5972     		strb	r1, [r3, #9]	@ tmp159, _17->elcon_on
 1236 0086 01E0     		b	.L79	@
 1237              	.L77:
 134:src/board.c   ****       } else {
 1238              		.loc 1 134 0
 1239 0088 0021     		movs	r1, #0	@ tmp157,
 1240 008a 5972     		strb	r1, [r3, #9]	@ tmp157, _17->elcon_on
 1241              	.L79:
 139:src/board.c   ****           csb_input->elcon_status->elcon_charging = false;
 1242              		.loc 1 139 0
 1243 008c 002A     		cmp	r2, #0	@ D.8237,
 1244 008e 0BD1     		bne	.L90	@,
 142:src/board.c   ****       }
 1245              		.loc 1 142 0
 1246 0090 9A72     		strb	r2, [r3, #10]	@ tmp163, _17->elcon_charging
 1247 0092 CAE7     		b	.L71	@
 1248              	.LVL104:
 1249              	.L85:
 1250              	.LBE83:
 1251              	.LBB84:
 110:src/board.c   ****       handle_can_error(err, csb_state->curr_baud_rate);
 1252              		.loc 1 110 0
 1253 0094 FFF7FEFF 		bl	Can_Error_Read	@
 1254              	.LVL105:
 111:src/board.c   ****       return;
 1255              		.loc 1 111 0
 1256 0098 A968     		ldr	r1, [r5, #8]	@ csb_state_9(D)->curr_baud_rate, csb_state_9(D)->curr_baud_rate
 1257 009a FFF7FEFF 		bl	handle_can_error	@
 1258              	.LVL106:
 112:src/board.c   ****   }
 1259              		.loc 1 112 0
 1260 009e C4E7     		b	.L71	@
 1261              	.LVL107:
 1262              	.L86:
 1263              	.LBE84:
 1264              	.LBB85:
 120:src/board.c   ****   } else if (msgType == Can_ElconHeartbeat_Msg) {
 1265              		.loc 1 120 0 discriminator 2
 1266 00a0 6846     		mov	r0, sp	@,
 1267              	.LVL108:
 1268 00a2 FFF7FEFF 		bl	Can_Unknown_Read	@
ARM GAS  /var/folders/z0/6xlwn_996xz3mwq1cgzkbq4r0000gp/T//ccmGTjkW.s 			page 55


 1269              	.LVL109:
 1270              	.LBE85:
 1271 00a6 C0E7     		b	.L71	@
 1272              	.LVL110:
 1273              	.L90:
 1274              	.LBB86:
 142:src/board.c   ****       }
 1275              		.loc 1 142 0
 1276 00a8 0122     		movs	r2, #1	@ tmp163,
 1277 00aa 9A72     		strb	r2, [r3, #10]	@ tmp163, _17->elcon_charging
 1278 00ac BDE7     		b	.L71	@
 1279              	.LVL111:
 1280              	.L88:
 1281              	.LBE86:
 1282              	.LBB87:
 146:src/board.c   ****       csb_input->pack_status->pack_cell_max_mV = msg.max_cell_voltage;
 1283              		.loc 1 146 0 discriminator 4
 1284 00ae 6846     		mov	r0, sp	@,
 1285              	.LVL112:
 1286 00b0 FFF7FEFF 		bl	Can_BmsPackStatus_Read	@
 1287              	.LVL113:
 147:src/board.c   ****       csb_input->pack_status->pack_current_mA = msg.pack_current;
 1288              		.loc 1 147 0 discriminator 4
 1289 00b4 6A46     		mov	r2, sp	@ tmp189,
 1290 00b6 2368     		ldr	r3, [r4]	@ D.8239, csb_input_16(D)->pack_status
 1291 00b8 5288     		ldrh	r2, [r2, #2]	@ tmp167,
 1292 00ba 1A60     		str	r2, [r3]	@ tmp167, _38->pack_cell_max_mV
 148:src/board.c   ****       csb_input->pack_status->pack_voltage_mV= msg.pack_voltage;
 1293              		.loc 1 148 0 discriminator 4
 1294 00bc 6A46     		mov	r2, sp	@ tmp190,
 1295 00be 0821     		movs	r1, #8	@ tmp181,
 1296 00c0 525E     		ldrsh	r2, [r2, r1]	@ tmp169, tmp190, tmp181
 1297 00c2 5A60     		str	r2, [r3, #4]	@ tmp169, _38->pack_current_mA
 149:src/board.c   ****       csb_input->balance_req = msg.balancing_needed;
 1298              		.loc 1 149 0 discriminator 4
 1299 00c4 6A46     		mov	r2, sp	@ tmp191,
 1300 00c6 D288     		ldrh	r2, [r2, #6]	@ tmp171,
 1301 00c8 9A60     		str	r2, [r3, #8]	@ tmp171, _38->pack_voltage_mV
 150:src/board.c   ****       //TODO:check this maybe gotta check if the above read correctly from CAN extended
 1302              		.loc 1 150 0 discriminator 4
 1303 00ca 6B46     		mov	r3, sp	@ tmp192,
 1304 00cc 1B78     		ldrb	r3, [r3]	@ msg, msg
 1305 00ce 6375     		strb	r3, [r4, #21]	@ msg, csb_input_16(D)->balance_req
 152:src/board.c   ****   } else if (msgType == Can_BMSErrors_Msg) {
 1306              		.loc 1 152 0 discriminator 4
 1307 00d0 0123     		movs	r3, #1	@ tmp175,
 1308 00d2 2375     		strb	r3, [r4, #20]	@ tmp175, csb_input_16(D)->receive_bms_config
 1309              	.LBE87:
 1310 00d4 A9E7     		b	.L71	@
 1311              	.L92:
 1312 00d6 C046     		.align	2
 1313              	.L91:
 1314 00d8 00000000 		.word	.LANCHOR5
 1315              		.cfi_endproc
 1316              	.LFE211:
 1317              		.size	Board_Can_ProcessInput, .-Board_Can_ProcessInput
 1318              		.section	.text.Send_Elcon_Command,"ax",%progbits
ARM GAS  /var/folders/z0/6xlwn_996xz3mwq1cgzkbq4r0000gp/T//ccmGTjkW.s 			page 56


 1319              		.align	2
 1320              		.global	Send_Elcon_Command
 1321              		.code	16
 1322              		.thumb_func
 1323              		.type	Send_Elcon_Command, %function
 1324              	Send_Elcon_Command:
 1325              	.LFB213:
 186:src/board.c   ****   Can_ElconCommand_T elcon_command;
 1326              		.loc 1 186 0
 1327              		.cfi_startproc
 1328              		@ args = 0, pretend = 0, frame = 8
 1329              		@ frame_needed = 0, uses_anonymous_args = 0
 1330              	.LVL114:
 1331 0000 00B5     		push	{lr}	@
 1332              		.cfi_def_cfa_offset 4
 1333              		.cfi_offset 14, -4
 1334 0002 83B0     		sub	sp, sp, #12	@,,
 1335              		.cfi_def_cfa_offset 16
 188:src/board.c   ****   elcon_command.max_current = csb_output->current_req_mA;
 1336              		.loc 1 188 0
 1337 0004 6B46     		mov	r3, sp	@ tmp131,
 1338 0006 0288     		ldrh	r2, [r0]	@, csb_output_2(D)->voltage_req_mV
 1339 0008 9A80     		strh	r2, [r3, #4]	@ tmp132, elcon_command.max_terminal_voltage
 189:src/board.c   ****   elcon_command.control = csb_output->charger_on;
 1340              		.loc 1 189 0
 1341 000a 8288     		ldrh	r2, [r0, #4]	@, csb_output_2(D)->current_req_mA
 1342 000c 1A80     		strh	r2, [r3]	@ tmp134, elcon_command.max_current
 190:src/board.c   **** 
 1343              		.loc 1 190 0
 1344 000e 6A46     		mov	r2, sp	@ tmp135,
 1345 0010 837A     		ldrb	r3, [r0, #10]	@ tmp125,
 192:src/board.c   **** }
 1346              		.loc 1 192 0
 1347 0012 6846     		mov	r0, sp	@,
 1348              	.LVL115:
 190:src/board.c   **** 
 1349              		.loc 1 190 0
 1350 0014 9370     		strb	r3, [r2, #2]	@ tmp125, elcon_command.control
 192:src/board.c   **** }
 1351              		.loc 1 192 0
 1352 0016 FFF7FEFF 		bl	Can_ElconCommand_Write	@
 1353              	.LVL116:
 1354 001a 0249     		ldr	r1, .L94	@,
 1355 001c FFF7FEFF 		bl	handle_can_error	@
 1356              	.LVL117:
 193:src/board.c   **** 
 1357              		.loc 1 193 0
 1358 0020 03B0     		add	sp, sp, #12	@,,
 1359              		@ sp needed	@
 1360 0022 00BD     		pop	{pc}
 1361              	.L95:
 1362              		.align	2
 1363              	.L94:
 1364 0024 90D00300 		.word	250000
 1365              		.cfi_endproc
 1366              	.LFE213:
 1367              		.size	Send_Elcon_Command, .-Send_Elcon_Command
ARM GAS  /var/folders/z0/6xlwn_996xz3mwq1cgzkbq4r0000gp/T//ccmGTjkW.s 			page 57


 1368              		.section	.text.Send_Bms_Switch,"ax",%progbits
 1369              		.align	2
 1370              		.global	Send_Bms_Switch
 1371              		.code	16
 1372              		.thumb_func
 1373              		.type	Send_Bms_Switch, %function
 1374              	Send_Bms_Switch:
 1375              	.LFB214:
 195:src/board.c   ****   Can_BMS_CSB_Switch_T switch_msg;
 1376              		.loc 1 195 0
 1377              		.cfi_startproc
 1378              		@ args = 0, pretend = 0, frame = 8
 1379              		@ frame_needed = 0, uses_anonymous_args = 0
 197:src/board.c   **** 
 1380              		.loc 1 197 0
 1381 0000 0123     		movs	r3, #1	@ tmp112,
 195:src/board.c   ****   Can_BMS_CSB_Switch_T switch_msg;
 1382              		.loc 1 195 0
 1383 0002 00B5     		push	{lr}	@
 1384              		.cfi_def_cfa_offset 4
 1385              		.cfi_offset 14, -4
 1386 0004 83B0     		sub	sp, sp, #12	@,,
 1387              		.cfi_def_cfa_offset 16
 197:src/board.c   **** 
 1388              		.loc 1 197 0
 1389 0006 01A8     		add	r0, sp, #4	@ tmp111,,
 1390 0008 0370     		strb	r3, [r0]	@ tmp112, switch_msg.always_true
 199:src/board.c   **** }
 1391              		.loc 1 199 0
 1392 000a FFF7FEFF 		bl	Can_BMS_CSB_Switch_Write	@
 1393              	.LVL118:
 1394 000e 0249     		ldr	r1, .L97	@,
 1395 0010 FFF7FEFF 		bl	handle_can_error	@
 1396              	.LVL119:
 200:src/board.c   **** 
 1397              		.loc 1 200 0
