ARM GAS  /var/folders/z0/6xlwn_996xz3mwq1cgzkbq4r0000gp/T//ccNseOV6.s 			page 1


   1              		.syntax unified
   2              		.cpu cortex-m0
   3              		.fpu softvfp
   4              		.eabi_attribute 20, 1	@ Tag_ABI_FP_denormal
   5              		.eabi_attribute 21, 1	@ Tag_ABI_FP_exceptions
   6              		.eabi_attribute 23, 3	@ Tag_ABI_FP_number_model
   7              		.eabi_attribute 24, 1	@ Tag_ABI_align8_needed
   8              		.eabi_attribute 25, 1	@ Tag_ABI_align8_preserved
   9              		.eabi_attribute 26, 1	@ Tag_ABI_enum_size
  10              		.eabi_attribute 30, 2	@ Tag_ABI_optimization_goals
  11              		.eabi_attribute 34, 0	@ Tag_CPU_unaligned_access
  12              		.eabi_attribute 18, 4	@ Tag_ABI_PCS_wchar_t
  13              		.file	"brusa.c"
  14              	@ GNU C89 (GNU Tools for ARM Embedded Processors) version 5.4.1 20160919 (release) [ARM/embedded-5-
  15              	@	compiled by GNU C version 4.2.1 (Based on Apple Inc. build 5658) (LLVM build 2336.9.00), GMP vers
  16              	@ GGC heuristics: --param ggc-min-expand=100 --param ggc-min-heapsize=131072
  17              	@ options passed:  -I . -I inc/
  18              	@ -I ../../lib/lpc11cx4-library/lpc_chip_11cxx_lib/inc
  19              	@ -I ../../lib/lpc11cx4-library/evt_lib/inc/ -I ../../lib/CANlib
  20              	@ -imultilib armv6-m
  21              	@ -iprefix /usr/local/Cellar/gcc-arm-none-eabi/20160928/bin/../lib/gcc/arm-none-eabi/5.4.1/
  22              	@ -isysroot /usr/local/Cellar/gcc-arm-none-eabi/20160928/bin/../arm-none-eabi
  23              	@ -MD bin/brusa.d -MF bin/brusa.d -MP -MQ bin/brusa.o -D__USES_INITFINI__
  24              	@ -D UART_BAUD=57600 -D CORE_M0 -D DEBUG_ENABLE -D FSAE_DRIVERS
  25              	@ -D CAN_ARCHITECTURE_ARM ../../lib/lpc11cx4-library/evt_lib/src/brusa.c
  26              	@ -mcpu=cortex-m0 -mthumb -auxbase-strip bin/brusa.o -g -ggdb3 -O2 -Wall
  27              	@ -Wstrict-prototypes -Wextra -std=gnu90 -ffunction-sections
  28              	@ -fdata-sections -fdiagnostics-color=always -fverbose-asm
  29              	@ options enabled:  -faggressive-loop-optimizations -falign-functions
  30              	@ -falign-jumps -falign-labels -falign-loops -fauto-inc-dec
  31              	@ -fbranch-count-reg -fcaller-saves -fchkp-check-incomplete-type
  32              	@ -fchkp-check-read -fchkp-check-write -fchkp-instrument-calls
  33              	@ -fchkp-narrow-bounds -fchkp-optimize -fchkp-store-bounds
  34              	@ -fchkp-use-static-bounds -fchkp-use-static-const-bounds
  35              	@ -fchkp-use-wrappers -fcombine-stack-adjustments -fcommon -fcompare-elim
  36              	@ -fcprop-registers -fcrossjumping -fcse-follow-jumps -fdata-sections
  37              	@ -fdefer-pop -fdelete-null-pointer-checks -fdevirtualize
  38              	@ -fdevirtualize-speculatively -fdwarf2-cfi-asm -fearly-inlining
  39              	@ -feliminate-unused-debug-types -fexpensive-optimizations
  40              	@ -fforward-propagate -ffunction-cse -ffunction-sections -fgcse -fgcse-lm
  41              	@ -fgnu-runtime -fgnu-unique -fguess-branch-probability
  42              	@ -fhoist-adjacent-loads -fident -fif-conversion -fif-conversion2
  43              	@ -findirect-inlining -finline -finline-atomics
  44              	@ -finline-functions-called-once -finline-small-functions -fipa-cp
  45              	@ -fipa-cp-alignment -fipa-icf -fipa-icf-functions -fipa-icf-variables
  46              	@ -fipa-profile -fipa-pure-const -fipa-reference -fipa-sra
  47              	@ -fira-hoist-pressure -fira-share-save-slots -fira-share-spill-slots
  48              	@ -fisolate-erroneous-paths-dereference -fivopts -fkeep-static-consts
  49              	@ -fleading-underscore -flifetime-dse -flra-remat -flto-odr-type-merging
  50              	@ -fmath-errno -fmerge-constants -fmerge-debug-strings
  51              	@ -fmove-loop-invariants -fomit-frame-pointer -foptimize-sibling-calls
  52              	@ -foptimize-strlen -fpartial-inlining -fpeephole -fpeephole2
  53              	@ -fprefetch-loop-arrays -freg-struct-return -freorder-blocks
  54              	@ -freorder-functions -frerun-cse-after-loop
  55              	@ -fsched-critical-path-heuristic -fsched-dep-count-heuristic
  56              	@ -fsched-group-heuristic -fsched-interblock -fsched-last-insn-heuristic
  57              	@ -fsched-pressure -fsched-rank-heuristic -fsched-spec
ARM GAS  /var/folders/z0/6xlwn_996xz3mwq1cgzkbq4r0000gp/T//ccNseOV6.s 			page 2


  58              	@ -fsched-spec-insn-heuristic -fsched-stalled-insns-dep -fschedule-insns2
  59              	@ -fsection-anchors -fsemantic-interposition -fshow-column -fshrink-wrap
  60              	@ -fsigned-zeros -fsplit-ivs-in-unroller -fsplit-wide-types -fssa-phiopt
  61              	@ -fstdarg-opt -fstrict-aliasing -fstrict-overflow
  62              	@ -fstrict-volatile-bitfields -fsync-libcalls -fthread-jumps
  63              	@ -ftoplevel-reorder -ftrapping-math -ftree-bit-ccp -ftree-builtin-call-dce
  64              	@ -ftree-ccp -ftree-ch -ftree-coalesce-vars -ftree-copy-prop
  65              	@ -ftree-copyrename -ftree-cselim -ftree-dce -ftree-dominator-opts
  66              	@ -ftree-dse -ftree-forwprop -ftree-fre -ftree-loop-if-convert
  67              	@ -ftree-loop-im -ftree-loop-ivcanon -ftree-loop-optimize
  68              	@ -ftree-parallelize-loops= -ftree-phiprop -ftree-pre -ftree-pta
  69              	@ -ftree-reassoc -ftree-scev-cprop -ftree-sink -ftree-slsr -ftree-sra
  70              	@ -ftree-switch-conversion -ftree-tail-merge -ftree-ter -ftree-vrp
  71              	@ -funit-at-a-time -fvar-tracking -fvar-tracking-assignments -fverbose-asm
  72              	@ -fzero-initialized-in-bss -mlittle-endian -mpic-data-is-text-relative
  73              	@ -msched-prolog -mthumb -mvectorize-with-neon-quad
  74              	
  75              		.text
  76              	.Ltext0:
  77              		.cfi_sections	.debug_frame
  78              		.global	__aeabi_uidiv
  79              		.section	.text.Brusa_MakeCTL,"ax",%progbits
  80              		.align	2
  81              		.global	Brusa_MakeCTL
  82              		.code	16
  83              		.thumb_func
  84              		.type	Brusa_MakeCTL, %function
  85              	Brusa_MakeCTL:
  86              	.LFB198:
  87              		.file 1 "../../lib/lpc11cx4-library/evt_lib/src/brusa.c"
   1:../../lib/lpc11cx4-library/evt_lib/src/brusa.c **** #include "brusa.h"
   2:../../lib/lpc11cx4-library/evt_lib/src/brusa.c **** 
   3:../../lib/lpc11cx4-library/evt_lib/src/brusa.c **** void Brusa_MakeCTL(NLG5_CTL_T *contents, CCAN_MSG_OBJ_T *msg_obj) {
  88              		.loc 1 3 0
  89              		.cfi_startproc
  90              		@ args = 0, pretend = 0, frame = 0
  91              		@ frame_needed = 0, uses_anonymous_args = 0
  92              	.LVL0:
   4:../../lib/lpc11cx4-library/evt_lib/src/brusa.c **** 	msg_obj->mode_id = NLG5_CTL;
  93              		.loc 1 4 0
  94 0000 C323     		movs	r3, #195	@ tmp145,
  95 0002 DB00     		lsls	r3, r3, #3	@ tmp145, tmp145,
   3:../../lib/lpc11cx4-library/evt_lib/src/brusa.c **** 	msg_obj->mode_id = NLG5_CTL;
  96              		.loc 1 3 0
  97 0004 70B5     		push	{r4, r5, r6, lr}	@
  98              		.cfi_def_cfa_offset 16
  99              		.cfi_offset 4, -16
 100              		.cfi_offset 5, -12
 101              		.cfi_offset 6, -8
 102              		.cfi_offset 14, -4
 103              		.loc 1 4 0
 104 0006 0B60     		str	r3, [r1]	@ tmp145, msg_obj_2(D)->mode_id
   5:../../lib/lpc11cx4-library/evt_lib/src/brusa.c **** 	msg_obj->dlc = NLG5_CTL_DLC;
 105              		.loc 1 5 0
 106 0008 0723     		movs	r3, #7	@ tmp146,
   3:../../lib/lpc11cx4-library/evt_lib/src/brusa.c **** 	msg_obj->mode_id = NLG5_CTL;
 107              		.loc 1 3 0
ARM GAS  /var/folders/z0/6xlwn_996xz3mwq1cgzkbq4r0000gp/T//ccNseOV6.s 			page 3


 108 000a 0C00     		movs	r4, r1	@ msg_obj, msg_obj
 109              		.loc 1 5 0
 110 000c 0B74     		strb	r3, [r1, #16]	@ tmp146, msg_obj_2(D)->dlc
   6:../../lib/lpc11cx4-library/evt_lib/src/brusa.c **** 	msg_obj->data[0] = ((contents->enable & 1) << 7) | 
 111              		.loc 1 6 0
 112 000e 4021     		movs	r1, #64	@ tmp154,
 113              	.LVL1:
 114 0010 4378     		ldrb	r3, [r0, #1]	@ D.6512,
 115 0012 8278     		ldrb	r2, [r0, #2]	@ D.6512,
 116 0014 9B01     		lsls	r3, r3, #6	@ D.6512, D.6512,
 117 0016 1940     		ands	r1, r3	@ tmp153, D.6512
 118 0018 2023     		movs	r3, #32	@ tmp161,
 119 001a 5201     		lsls	r2, r2, #5	@ D.6512, D.6512,
 120 001c 1340     		ands	r3, r2	@ tmp160, D.6512
 121 001e 0278     		ldrb	r2, [r0]	@ D.6512, *contents_5(D)
 122 0020 0B43     		orrs	r3, r1	@ tmp164, tmp153
 123 0022 D201     		lsls	r2, r2, #7	@ D.6512, D.6512,
 124 0024 1343     		orrs	r3, r2	@ tmp169, D.6512
 125 0026 2372     		strb	r3, [r4, #8]	@ tmp169, msg_obj_2(D)->D.6061.data
   3:../../lib/lpc11cx4-library/evt_lib/src/brusa.c **** 	msg_obj->mode_id = NLG5_CTL;
 126              		.loc 1 3 0
 127 0028 0500     		movs	r5, r0	@ contents, contents
   7:../../lib/lpc11cx4-library/evt_lib/src/brusa.c **** 				  ((contents->clear_error & 1) << 6) | 
   8:../../lib/lpc11cx4-library/evt_lib/src/brusa.c **** 				  ((contents->ventilation_request & 1) << 5);
   9:../../lib/lpc11cx4-library/evt_lib/src/brusa.c **** 	uint16_t mains_dAmps = contents->max_mains_cAmps / 10;
 128              		.loc 1 9 0
 129 002a 0A21     		movs	r1, #10	@,
 130 002c 8088     		ldrh	r0, [r0, #4]	@ tmp172,
 131              	.LVL2:
 132 002e FFF7FEFF 		bl	__aeabi_uidiv	@
 133              	.LVL3:
 134 0032 80B2     		uxth	r0, r0	@ mains_dAmps, tmp175
 135              	.LVL4:
  10:../../lib/lpc11cx4-library/evt_lib/src/brusa.c **** 	msg_obj->data[1] = mains_dAmps >> 8;
 136              		.loc 1 10 0
 137 0034 030A     		lsrs	r3, r0, #8	@ tmp176, mains_dAmps,
 138 0036 6372     		strb	r3, [r4, #9]	@ tmp176, msg_obj_2(D)->D.6061.data
  11:../../lib/lpc11cx4-library/evt_lib/src/brusa.c **** 	msg_obj->data[2] = mains_dAmps & 0xFF;
 139              		.loc 1 11 0
 140 0038 A072     		strb	r0, [r4, #10]	@ mains_dAmps, msg_obj_2(D)->D.6061.data
  12:../../lib/lpc11cx4-library/evt_lib/src/brusa.c **** 	uint16_t out_dVolts = contents->output_mV / 100;
 141              		.loc 1 12 0
 142 003a A868     		ldr	r0, [r5, #8]	@, contents_5(D)->output_mV
 143              	.LVL5:
 144 003c 6421     		movs	r1, #100	@,
 145 003e FFF7FEFF 		bl	__aeabi_uidiv	@
 146              	.LVL6:
  13:../../lib/lpc11cx4-library/evt_lib/src/brusa.c **** 	msg_obj->data[3] = out_dVolts >> 8;
 147              		.loc 1 13 0
 148 0042 030A     		lsrs	r3, r0, #8	@ tmp184, tmp182,
 149 0044 E372     		strb	r3, [r4, #11]	@ tmp184, msg_obj_2(D)->D.6061.data
  14:../../lib/lpc11cx4-library/evt_lib/src/brusa.c **** 	msg_obj->data[4] = out_dVolts & 0xFF;
 150              		.loc 1 14 0
 151 0046 2073     		strb	r0, [r4, #12]	@ tmp182, msg_obj_2(D)->D.6061.data
  15:../../lib/lpc11cx4-library/evt_lib/src/brusa.c **** 	uint16_t out_dAmps = contents->output_cA / 10;
 152              		.loc 1 15 0
 153 0048 A889     		ldrh	r0, [r5, #12]	@ tmp188,
ARM GAS  /var/folders/z0/6xlwn_996xz3mwq1cgzkbq4r0000gp/T//ccNseOV6.s 			page 4


 154              	.LVL7:
 155 004a 0A21     		movs	r1, #10	@,
 156 004c FFF7FEFF 		bl	__aeabi_uidiv	@
 157              	.LVL8:
 158 0050 80B2     		uxth	r0, r0	@ out_dAmps, tmp191
 159              	.LVL9:
  16:../../lib/lpc11cx4-library/evt_lib/src/brusa.c **** 	msg_obj->data[5] = out_dAmps >> 8;
 160              		.loc 1 16 0
 161 0052 030A     		lsrs	r3, r0, #8	@ tmp192, out_dAmps,
 162 0054 6373     		strb	r3, [r4, #13]	@ tmp192, msg_obj_2(D)->D.6061.data
  17:../../lib/lpc11cx4-library/evt_lib/src/brusa.c **** 	msg_obj->data[6] = out_dAmps & 0xFF;
 163              		.loc 1 17 0
 164 0056 A073     		strb	r0, [r4, #14]	@ out_dAmps, msg_obj_2(D)->D.6061.data
  18:../../lib/lpc11cx4-library/evt_lib/src/brusa.c **** }
 165              		.loc 1 18 0
 166              		@ sp needed	@
 167              	.LVL10:
 168              	.LVL11:
 169 0058 70BD     		pop	{r4, r5, r6, pc}
 170              		.cfi_endproc
 171              	.LFE198:
 172              		.size	Brusa_MakeCTL, .-Brusa_MakeCTL
 173 005a C046     		.section	.text.Brusa_DecodeStatus,"ax",%progbits
 174              		.align	2
 175              		.global	Brusa_DecodeStatus
 176              		.code	16
 177              		.thumb_func
 178              		.type	Brusa_DecodeStatus, %function
 179              	Brusa_DecodeStatus:
 180              	.LFB199:
  19:../../lib/lpc11cx4-library/evt_lib/src/brusa.c **** 
  20:../../lib/lpc11cx4-library/evt_lib/src/brusa.c **** int Brusa_DecodeStatus(NLG5_STATUS_T *contents, CCAN_MSG_OBJ_T *msg_obj) {
 181              		.loc 1 20 0
 182              		.cfi_startproc
 183              		@ args = 0, pretend = 0, frame = 0
 184              		@ frame_needed = 0, uses_anonymous_args = 0
 185              		@ link register save eliminated.
 186              	.LVL12:
  21:../../lib/lpc11cx4-library/evt_lib/src/brusa.c **** 	if (msg_obj->dlc != NLG5_STATUS_DLC) {
 187              		.loc 1 21 0
 188 0000 0B7C     		ldrb	r3, [r1, #16]	@ tmp142,
 189 0002 042B     		cmp	r3, #4	@ tmp142,
 190 0004 23D1     		bne	.L4	@,
  22:../../lib/lpc11cx4-library/evt_lib/src/brusa.c **** 		return -1;
  23:../../lib/lpc11cx4-library/evt_lib/src/brusa.c **** 	}
  24:../../lib/lpc11cx4-library/evt_lib/src/brusa.c **** 
  25:../../lib/lpc11cx4-library/evt_lib/src/brusa.c **** 	contents->power_enabled = msg_obj->data[0] >> 7;
  26:../../lib/lpc11cx4-library/evt_lib/src/brusa.c **** 	contents->general_error_latch = (msg_obj->data[0] >> 6) & 1;
 191              		.loc 1 26 0
 192 0006 0122     		movs	r2, #1	@ tmp152,
  25:../../lib/lpc11cx4-library/evt_lib/src/brusa.c **** 	contents->general_error_latch = (msg_obj->data[0] >> 6) & 1;
 193              		.loc 1 25 0
 194 0008 0B7A     		ldrb	r3, [r1, #8]	@ tmp143,
 195 000a DB09     		lsrs	r3, r3, #7	@ tmp144, tmp143,
 196 000c 0370     		strb	r3, [r0]	@ tmp144, contents_8(D)->power_enabled
 197              		.loc 1 26 0
 198 000e 0B7A     		ldrb	r3, [r1, #8]	@ tmp146,
ARM GAS  /var/folders/z0/6xlwn_996xz3mwq1cgzkbq4r0000gp/T//ccNseOV6.s 			page 5


 199 0010 9B09     		lsrs	r3, r3, #6	@ tmp147, tmp146,
 200 0012 1340     		ands	r3, r2	@ tmp151, tmp152
 201 0014 4370     		strb	r3, [r0, #1]	@ tmp151, contents_8(D)->general_error_latch
  27:../../lib/lpc11cx4-library/evt_lib/src/brusa.c **** 	contents->general_limit_warning = (msg_obj->data[0] >> 5) & 1;
 202              		.loc 1 27 0
 203 0016 0B7A     		ldrb	r3, [r1, #8]	@ tmp154,
 204 0018 5B09     		lsrs	r3, r3, #5	@ tmp155, tmp154,
 205 001a 1340     		ands	r3, r2	@ tmp159, tmp152
 206 001c 8370     		strb	r3, [r0, #2]	@ tmp159, contents_8(D)->general_limit_warning
  28:../../lib/lpc11cx4-library/evt_lib/src/brusa.c **** 	contents->fan_active = (msg_obj->data[0] >> 4) & 1;
 207              		.loc 1 28 0
 208 001e 0B7A     		ldrb	r3, [r1, #8]	@ tmp162,
 209 0020 1B09     		lsrs	r3, r3, #4	@ tmp163, tmp162,
 210 0022 1340     		ands	r3, r2	@ tmp167, tmp152
 211 0024 C370     		strb	r3, [r0, #3]	@ tmp167, contents_8(D)->fan_active
  29:../../lib/lpc11cx4-library/evt_lib/src/brusa.c **** 	contents->mains_type = (msg_obj->data[0] >> 1) & 0x7;
 212              		.loc 1 29 0
 213 0026 0B7A     		ldrb	r3, [r1, #8]	@ tmp170,
 214 0028 1B07     		lsls	r3, r3, #28	@ tmp176, tmp170,
 215 002a 5B0F     		lsrs	r3, r3, #29	@ tmp175, tmp176,
 216 002c 0371     		strb	r3, [r0, #4]	@ tmp175, contents_8(D)->mains_type
  30:../../lib/lpc11cx4-library/evt_lib/src/brusa.c **** 	contents->control_pilot_detected = msg_obj->data[0] & 1;
 217              		.loc 1 30 0
 218 002e 0B7A     		ldrb	r3, [r1, #8]	@ tmp181,
 219 0030 1A40     		ands	r2, r3	@ tmp182, tmp181
 220 0032 4271     		strb	r2, [r0, #5]	@ tmp182, contents_8(D)->control_pilot_detected
  31:../../lib/lpc11cx4-library/evt_lib/src/brusa.c **** 
  32:../../lib/lpc11cx4-library/evt_lib/src/brusa.c **** 	contents->bypass_detection = (msg_obj->data[1] >> 6) & 0x3;
  33:../../lib/lpc11cx4-library/evt_lib/src/brusa.c **** 	contents->limitation = ((msg_obj->data[1] & 0x1F) << 8) | msg_obj->data[2];
 221              		.loc 1 33 0
 222 0034 F822     		movs	r2, #248	@ tmp192,
  32:../../lib/lpc11cx4-library/evt_lib/src/brusa.c **** 	contents->limitation = ((msg_obj->data[1] & 0x1F) << 8) | msg_obj->data[2];
 223              		.loc 1 32 0
 224 0036 4B7A     		ldrb	r3, [r1, #9]	@ tmp185,
 225              		.loc 1 33 0
 226 0038 5201     		lsls	r2, r2, #5	@ tmp192, tmp192,
  32:../../lib/lpc11cx4-library/evt_lib/src/brusa.c **** 	contents->limitation = ((msg_obj->data[1] & 0x1F) << 8) | msg_obj->data[2];
 227              		.loc 1 32 0
 228 003a 9B09     		lsrs	r3, r3, #6	@ tmp186, tmp185,
 229 003c 8371     		strb	r3, [r0, #6]	@ tmp186, contents_8(D)->bypass_detection
 230              		.loc 1 33 0
 231 003e 4B7A     		ldrb	r3, [r1, #9]	@ D.6518,
 232 0040 1B02     		lsls	r3, r3, #8	@ D.6518, D.6518,
 233 0042 1340     		ands	r3, r2	@ tmp191, tmp192
 234 0044 8A7A     		ldrb	r2, [r1, #10]	@ tmp194,
 235 0046 1343     		orrs	r3, r2	@ tmp196, tmp194
 236 0048 0381     		strh	r3, [r0, #8]	@ tmp196, contents_8(D)->limitation
  34:../../lib/lpc11cx4-library/evt_lib/src/brusa.c **** 
  35:../../lib/lpc11cx4-library/evt_lib/src/brusa.c **** 	return 0;
 237              		.loc 1 35 0
 238 004a 0020     		movs	r0, #0	@ D.6518,
 239              	.LVL13:
 240              	.L3:
  36:../../lib/lpc11cx4-library/evt_lib/src/brusa.c **** }
 241              		.loc 1 36 0
 242              		@ sp needed	@
 243 004c 7047     		bx	lr
ARM GAS  /var/folders/z0/6xlwn_996xz3mwq1cgzkbq4r0000gp/T//ccNseOV6.s 			page 6


 244              	.LVL14:
 245              	.L4:
  22:../../lib/lpc11cx4-library/evt_lib/src/brusa.c **** 	}
 246              		.loc 1 22 0
 247 004e 0120     		movs	r0, #1	@ D.6518,
 248              	.LVL15:
 249 0050 4042     		rsbs	r0, r0, #0	@ D.6518, D.6518
 250 0052 FBE7     		b	.L3	@
 251              		.cfi_endproc
 252              	.LFE199:
 253              		.size	Brusa_DecodeStatus, .-Brusa_DecodeStatus
 254              		.section	.text.Brusa_CheckOn,"ax",%progbits
 255              		.align	2
 256              		.global	Brusa_CheckOn
 257              		.code	16
 258              		.thumb_func
 259              		.type	Brusa_CheckOn, %function
 260              	Brusa_CheckOn:
 261              	.LFB200:
  37:../../lib/lpc11cx4-library/evt_lib/src/brusa.c **** 
  38:../../lib/lpc11cx4-library/evt_lib/src/brusa.c **** bool Brusa_CheckOn(CCAN_MSG_OBJ_T *msg_obj) {
 262              		.loc 1 38 0
 263              		.cfi_startproc
 264              		@ args = 0, pretend = 0, frame = 0
 265              		@ frame_needed = 0, uses_anonymous_args = 0
 266              		@ link register save eliminated.
 267              	.LVL16:
 268 0000 007C     		ldrb	r0, [r0, #16]	@ tmp115,
 269              	.LVL17:
  39:../../lib/lpc11cx4-library/evt_lib/src/brusa.c **** 	if (msg_obj->dlc != NLG5_STATUS_DLC) {
  40:../../lib/lpc11cx4-library/evt_lib/src/brusa.c **** 		return false;
  41:../../lib/lpc11cx4-library/evt_lib/src/brusa.c **** 	}
  42:../../lib/lpc11cx4-library/evt_lib/src/brusa.c **** 
  43:../../lib/lpc11cx4-library/evt_lib/src/brusa.c **** 	return true;
  44:../../lib/lpc11cx4-library/evt_lib/src/brusa.c **** 	
  45:../../lib/lpc11cx4-library/evt_lib/src/brusa.c **** }
 270              		.loc 1 45 0
 271              		@ sp needed	@
 272 0002 0438     		subs	r0, r0, #4	@ tmp117,
 273 0004 4342     		rsbs	r3, r0, #0	@ tmp118, tmp117
 274 0006 5841     		adcs	r0, r0, r3	@ tmp116, tmp117, tmp118
 275 0008 C0B2     		uxtb	r0, r0	@ D.6525, tmp116
 276 000a 7047     		bx	lr
 277              		.cfi_endproc
 278              	.LFE200:
 279              		.size	Brusa_CheckOn, .-Brusa_CheckOn
 280              		.section	.text.Brusa_DecodeActI,"ax",%progbits
 281              		.align	2
 282              		.global	Brusa_DecodeActI
 283              		.code	16
 284              		.thumb_func
 285              		.type	Brusa_DecodeActI, %function
 286              	Brusa_DecodeActI:
 287              	.LFB201:
  46:../../lib/lpc11cx4-library/evt_lib/src/brusa.c **** 
  47:../../lib/lpc11cx4-library/evt_lib/src/brusa.c **** int Brusa_DecodeActI(NLG5_ACT_I_T *contents, CCAN_MSG_OBJ_T *msg_obj) {
 288              		.loc 1 47 0
ARM GAS  /var/folders/z0/6xlwn_996xz3mwq1cgzkbq4r0000gp/T//ccNseOV6.s 			page 7


 289              		.cfi_startproc
 290              		@ args = 0, pretend = 0, frame = 0
 291              		@ frame_needed = 0, uses_anonymous_args = 0
 292              	.LVL18:
  48:../../lib/lpc11cx4-library/evt_lib/src/brusa.c **** 	if (msg_obj->dlc != NLG5_ACT_I_DLC) {
 293              		.loc 1 48 0
 294 0000 0B7C     		ldrb	r3, [r1, #16]	@ tmp141,
  47:../../lib/lpc11cx4-library/evt_lib/src/brusa.c **** 	if (msg_obj->dlc != NLG5_ACT_I_DLC) {
 295              		.loc 1 47 0
 296 0002 10B5     		push	{r4, lr}	@
 297              		.cfi_def_cfa_offset 8
 298              		.cfi_offset 4, -8
 299              		.cfi_offset 14, -4
 300              		.loc 1 48 0
 301 0004 082B     		cmp	r3, #8	@ tmp141,
 302 0006 16D1     		bne	.L9	@,
  49:../../lib/lpc11cx4-library/evt_lib/src/brusa.c **** 		return -1;
  50:../../lib/lpc11cx4-library/evt_lib/src/brusa.c **** 	}
  51:../../lib/lpc11cx4-library/evt_lib/src/brusa.c **** 
  52:../../lib/lpc11cx4-library/evt_lib/src/brusa.c **** 	contents->mains_cAmps = (msg_obj->data[0] << 8) | msg_obj->data[1];
  53:../../lib/lpc11cx4-library/evt_lib/src/brusa.c **** 	// Value originally in deciVolts
  54:../../lib/lpc11cx4-library/evt_lib/src/brusa.c **** 	contents->mains_mVolts = ((msg_obj->data[2] << 8) | msg_obj->data[3]) * 100; 
 303              		.loc 1 54 0
 304 0008 6424     		movs	r4, #100	@ tmp153,
  52:../../lib/lpc11cx4-library/evt_lib/src/brusa.c **** 	// Value originally in deciVolts
 305              		.loc 1 52 0
 306 000a 0B7A     		ldrb	r3, [r1, #8]	@ D.6528,
 307 000c 4A7A     		ldrb	r2, [r1, #9]	@ tmp145,
 308 000e 1B02     		lsls	r3, r3, #8	@ D.6528, D.6528,
 309 0010 1343     		orrs	r3, r2	@ tmp147, tmp145
 310 0012 0380     		strh	r3, [r0]	@ tmp147, contents_14(D)->mains_cAmps
 311              		.loc 1 54 0
 312 0014 4B89     		ldrh	r3, [r1, #10]	@ MEM[(uint8_t[8] *)msg_obj_4(D) + 10B], MEM[(uint8_t[8] *)msg_obj_4(D) + 10B]
 313 0016 5BBA     		rev16	r3, r3	@ D.6531, MEM[(uint8_t[8] *)msg_obj_4(D) + 10B]
 314 0018 9BB2     		uxth	r3, r3	@ D.6528, D.6531
 315 001a 6343     		muls	r3, r4	@ D.6528, tmp153
 316 001c 4360     		str	r3, [r0, #4]	@ D.6528, contents_14(D)->mains_mVolts
  55:../../lib/lpc11cx4-library/evt_lib/src/brusa.c **** 	// Value originally in deciVolts
  56:../../lib/lpc11cx4-library/evt_lib/src/brusa.c **** 	contents->output_mVolts = ((msg_obj->data[4] << 8) | msg_obj->data[5]) * 100; 
 317              		.loc 1 56 0
 318 001e 8A89     		ldrh	r2, [r1, #12]	@ MEM[(uint8_t[8] *)msg_obj_4(D) + 12B], MEM[(uint8_t[8] *)msg_obj_4(D) + 12B]
 319 0020 52BA     		rev16	r2, r2	@ D.6531, MEM[(uint8_t[8] *)msg_obj_4(D) + 12B]
 320 0022 93B2     		uxth	r3, r2	@ D.6528, D.6531
 321 0024 6343     		muls	r3, r4	@ D.6528, tmp153
 322 0026 8360     		str	r3, [r0, #8]	@ D.6528, contents_14(D)->output_mVolts
  57:../../lib/lpc11cx4-library/evt_lib/src/brusa.c **** 	contents->output_cAmps = (msg_obj->data[6] << 8) | msg_obj->data[7];
 323              		.loc 1 57 0
 324 0028 8B7B     		ldrb	r3, [r1, #14]	@ D.6528,
 325 002a CA7B     		ldrb	r2, [r1, #15]	@ tmp164,
 326 002c 1B02     		lsls	r3, r3, #8	@ D.6528, D.6528,
 327 002e 1343     		orrs	r3, r2	@ tmp166, tmp164
 328 0030 8381     		strh	r3, [r0, #12]	@ tmp166, contents_14(D)->output_cAmps
  58:../../lib/lpc11cx4-library/evt_lib/src/brusa.c **** 
  59:../../lib/lpc11cx4-library/evt_lib/src/brusa.c **** 	return 0;
 329              		.loc 1 59 0
 330 0032 0020     		movs	r0, #0	@ D.6528,
 331              	.LVL19:
ARM GAS  /var/folders/z0/6xlwn_996xz3mwq1cgzkbq4r0000gp/T//ccNseOV6.s 			page 8


 332              	.L8:
  60:../../lib/lpc11cx4-library/evt_lib/src/brusa.c **** }
 333              		.loc 1 60 0
 334              		@ sp needed	@
 335 0034 10BD     		pop	{r4, pc}
 336              	.LVL20:
 337              	.L9:
  49:../../lib/lpc11cx4-library/evt_lib/src/brusa.c **** 	}
 338              		.loc 1 49 0
 339 0036 0120     		movs	r0, #1	@ D.6528,
 340              	.LVL21:
 341 0038 4042     		rsbs	r0, r0, #0	@ D.6528, D.6528
 342 003a FBE7     		b	.L8	@
 343              		.cfi_endproc
 344              	.LFE201:
 345              		.size	Brusa_DecodeActI, .-Brusa_DecodeActI
 346              		.section	.text.Brusa_DecodeActII,"ax",%progbits
 347              		.align	2
 348              		.global	Brusa_DecodeActII
 349              		.code	16
 350              		.thumb_func
 351              		.type	Brusa_DecodeActII, %function
 352              	Brusa_DecodeActII:
 353              	.LFB202:
  61:../../lib/lpc11cx4-library/evt_lib/src/brusa.c **** 
  62:../../lib/lpc11cx4-library/evt_lib/src/brusa.c **** int Brusa_DecodeActII(NLG5_ACT_II_T *contents, CCAN_MSG_OBJ_T *msg_obj) {
 354              		.loc 1 62 0
 355              		.cfi_startproc
 356              		@ args = 0, pretend = 0, frame = 0
 357              		@ frame_needed = 0, uses_anonymous_args = 0
 358              		@ link register save eliminated.
 359              	.LVL22:
  63:../../lib/lpc11cx4-library/evt_lib/src/brusa.c **** 	if (msg_obj->dlc != NLG5_ACT_II_DLC) {
 360              		.loc 1 63 0
 361 0000 0B7C     		ldrb	r3, [r1, #16]	@ tmp141,
 362 0002 082B     		cmp	r3, #8	@ tmp141,
 363 0004 14D1     		bne	.L12	@,
  64:../../lib/lpc11cx4-library/evt_lib/src/brusa.c **** 		return -1;
  65:../../lib/lpc11cx4-library/evt_lib/src/brusa.c **** 	}
  66:../../lib/lpc11cx4-library/evt_lib/src/brusa.c **** 
  67:../../lib/lpc11cx4-library/evt_lib/src/brusa.c **** 	contents->mains_current_max_pilot = (msg_obj->data[0] << 8) | msg_obj->data[1];
 364              		.loc 1 67 0
 365 0006 0B7A     		ldrb	r3, [r1, #8]	@ D.6535,
 366 0008 4A7A     		ldrb	r2, [r1, #9]	@ tmp145,
 367 000a 1B02     		lsls	r3, r3, #8	@ D.6535, D.6535,
 368 000c 1343     		orrs	r3, r2	@ tmp147, tmp145
 369 000e 0380     		strh	r3, [r0]	@ tmp147, contents_14(D)->mains_current_max_pilot
  68:../../lib/lpc11cx4-library/evt_lib/src/brusa.c **** 	contents->mains_current_max_power_ind = msg_obj->data[2];
 370              		.loc 1 68 0
 371 0010 8B7A     		ldrb	r3, [r1, #10]	@ D.6536,
 372 0012 8370     		strb	r3, [r0, #2]	@ D.6536, contents_14(D)->mains_current_max_power_ind
  69:../../lib/lpc11cx4-library/evt_lib/src/brusa.c **** 	contents->aux_battery_voltage = msg_obj->data[3];
 373              		.loc 1 69 0
 374 0014 CB7A     		ldrb	r3, [r1, #11]	@ D.6536,
 375 0016 C370     		strb	r3, [r0, #3]	@ D.6536, contents_14(D)->aux_battery_voltage
  70:../../lib/lpc11cx4-library/evt_lib/src/brusa.c **** 	contents->amp_hours_ext_shunt = (msg_obj->data[4] << 8) | msg_obj->data[5];
 376              		.loc 1 70 0
ARM GAS  /var/folders/z0/6xlwn_996xz3mwq1cgzkbq4r0000gp/T//ccNseOV6.s 			page 9


 377 0018 0B7B     		ldrb	r3, [r1, #12]	@ D.6535,
 378 001a 4A7B     		ldrb	r2, [r1, #13]	@ tmp154,
 379 001c 1B02     		lsls	r3, r3, #8	@ D.6535, D.6535,
 380 001e 1343     		orrs	r3, r2	@ tmp156, tmp154
 381 0020 8380     		strh	r3, [r0, #4]	@ tmp156, contents_14(D)->amp_hours_ext_shunt
  71:../../lib/lpc11cx4-library/evt_lib/src/brusa.c **** 	contents->booster_output_current = (msg_obj->data[6] << 8) | msg_obj->data[7];
 382              		.loc 1 71 0
 383 0022 8B7B     		ldrb	r3, [r1, #14]	@ D.6535,
 384 0024 CA7B     		ldrb	r2, [r1, #15]	@ tmp161,
 385 0026 1B02     		lsls	r3, r3, #8	@ D.6535, D.6535,
 386 0028 1343     		orrs	r3, r2	@ tmp163, tmp161
 387 002a C380     		strh	r3, [r0, #6]	@ tmp163, contents_14(D)->booster_output_current
  72:../../lib/lpc11cx4-library/evt_lib/src/brusa.c **** 
  73:../../lib/lpc11cx4-library/evt_lib/src/brusa.c **** 	return 0;
 388              		.loc 1 73 0
 389 002c 0020     		movs	r0, #0	@ D.6535,
 390              	.LVL23:
 391              	.L11:
  74:../../lib/lpc11cx4-library/evt_lib/src/brusa.c **** }
 392              		.loc 1 74 0
 393              		@ sp needed	@
 394 002e 7047     		bx	lr
 395              	.LVL24:
 396              	.L12:
  64:../../lib/lpc11cx4-library/evt_lib/src/brusa.c **** 	}
 397              		.loc 1 64 0
 398 0030 0120     		movs	r0, #1	@ D.6535,
 399              	.LVL25:
 400 0032 4042     		rsbs	r0, r0, #0	@ D.6535, D.6535
 401 0034 FBE7     		b	.L11	@
 402              		.cfi_endproc
 403              	.LFE202:
 404              		.size	Brusa_DecodeActII, .-Brusa_DecodeActII
 405 0036 C046     		.section	.text.Brusa_DecodeTemp,"ax",%progbits
 406              		.align	2
 407              		.global	Brusa_DecodeTemp
 408              		.code	16
 409              		.thumb_func
 410              		.type	Brusa_DecodeTemp, %function
 411              	Brusa_DecodeTemp:
 412              	.LFB203:
  75:../../lib/lpc11cx4-library/evt_lib/src/brusa.c **** 
  76:../../lib/lpc11cx4-library/evt_lib/src/brusa.c **** int Brusa_DecodeTemp(NLG5_TEMP_T *contents, CCAN_MSG_OBJ_T *msg_obj)  {
 413              		.loc 1 76 0
 414              		.cfi_startproc
 415              		@ args = 0, pretend = 0, frame = 0
 416              		@ frame_needed = 0, uses_anonymous_args = 0
 417              		@ link register save eliminated.
 418              	.LVL26:
  77:../../lib/lpc11cx4-library/evt_lib/src/brusa.c **** 	if (msg_obj->dlc != NLG5_TEMP_DLC) {
 419              		.loc 1 77 0
 420 0000 0B7C     		ldrb	r3, [r1, #16]	@ tmp147,
 421 0002 082B     		cmp	r3, #8	@ tmp147,
 422 0004 15D1     		bne	.L15	@,
  78:../../lib/lpc11cx4-library/evt_lib/src/brusa.c **** 		return -1;
  79:../../lib/lpc11cx4-library/evt_lib/src/brusa.c **** 	}
  80:../../lib/lpc11cx4-library/evt_lib/src/brusa.c **** 
ARM GAS  /var/folders/z0/6xlwn_996xz3mwq1cgzkbq4r0000gp/T//ccNseOV6.s 			page 10


  81:../../lib/lpc11cx4-library/evt_lib/src/brusa.c **** 	contents->power_temp = (msg_obj->data[0] << 8) | msg_obj->data[1];
 423              		.loc 1 81 0
 424 0006 0B7A     		ldrb	r3, [r1, #8]	@ D.6541,
 425 0008 4A7A     		ldrb	r2, [r1, #9]	@ tmp151,
 426 000a 1B02     		lsls	r3, r3, #8	@ D.6541, D.6541,
 427 000c 1343     		orrs	r3, r2	@ tmp153, tmp151
 428 000e 0380     		strh	r3, [r0]	@ tmp153, contents_14(D)->power_temp
  82:../../lib/lpc11cx4-library/evt_lib/src/brusa.c **** 	contents->temp_1 = (msg_obj->data[2] << 8) | msg_obj->data[3];
 429              		.loc 1 82 0
 430 0010 8B7A     		ldrb	r3, [r1, #10]	@ D.6541,
 431 0012 CA7A     		ldrb	r2, [r1, #11]	@ tmp158,
 432 0014 1B02     		lsls	r3, r3, #8	@ D.6541, D.6541,
 433 0016 1343     		orrs	r3, r2	@ tmp160, tmp158
 434 0018 4380     		strh	r3, [r0, #2]	@ tmp160, contents_14(D)->temp_1
  83:../../lib/lpc11cx4-library/evt_lib/src/brusa.c **** 	contents->temp_2 = (msg_obj->data[4] << 8) | msg_obj->data[5];
 435              		.loc 1 83 0
 436 001a 0B7B     		ldrb	r3, [r1, #12]	@ D.6541,
 437 001c 4A7B     		ldrb	r2, [r1, #13]	@ tmp165,
 438 001e 1B02     		lsls	r3, r3, #8	@ D.6541, D.6541,
 439 0020 1343     		orrs	r3, r2	@ tmp167, tmp165
 440 0022 8380     		strh	r3, [r0, #4]	@ tmp167, contents_14(D)->temp_2
  84:../../lib/lpc11cx4-library/evt_lib/src/brusa.c **** 	contents->temp_3 = (msg_obj->data[6] << 8) | msg_obj->data[7];
 441              		.loc 1 84 0
 442 0024 8B7B     		ldrb	r3, [r1, #14]	@ D.6541,
 443 0026 CA7B     		ldrb	r2, [r1, #15]	@ tmp172,
 444 0028 1B02     		lsls	r3, r3, #8	@ D.6541, D.6541,
 445 002a 1343     		orrs	r3, r2	@ tmp174, tmp172
 446 002c C380     		strh	r3, [r0, #6]	@ tmp174, contents_14(D)->temp_3
  85:../../lib/lpc11cx4-library/evt_lib/src/brusa.c **** 
  86:../../lib/lpc11cx4-library/evt_lib/src/brusa.c **** 	return 0;
 447              		.loc 1 86 0
 448 002e 0020     		movs	r0, #0	@ D.6541,
 449              	.LVL27:
 450              	.L14:
  87:../../lib/lpc11cx4-library/evt_lib/src/brusa.c **** }
 451              		.loc 1 87 0
 452              		@ sp needed	@
 453 0030 7047     		bx	lr
 454              	.LVL28:
 455              	.L15:
  78:../../lib/lpc11cx4-library/evt_lib/src/brusa.c **** 	}
 456              		.loc 1 78 0
 457 0032 0120     		movs	r0, #1	@ D.6541,
 458              	.LVL29:
 459 0034 4042     		rsbs	r0, r0, #0	@ D.6541, D.6541
 460 0036 FBE7     		b	.L14	@
 461              		.cfi_endproc
 462              	.LFE203:
 463              		.size	Brusa_DecodeTemp, .-Brusa_DecodeTemp
 464              		.section	.text.Brusa_DecodeErr,"ax",%progbits
 465              		.align	2
 466              		.global	Brusa_DecodeErr
 467              		.code	16
 468              		.thumb_func
 469              		.type	Brusa_DecodeErr, %function
 470              	Brusa_DecodeErr:
 471              	.LFB204:
ARM GAS  /var/folders/z0/6xlwn_996xz3mwq1cgzkbq4r0000gp/T//ccNseOV6.s 			page 11


  88:../../lib/lpc11cx4-library/evt_lib/src/brusa.c **** 
  89:../../lib/lpc11cx4-library/evt_lib/src/brusa.c **** int Brusa_DecodeErr(NLG5_ERR_T *contents, CCAN_MSG_OBJ_T *msg_obj) {
 472              		.loc 1 89 0
 473              		.cfi_startproc
 474              		@ args = 0, pretend = 0, frame = 0
 475              		@ frame_needed = 0, uses_anonymous_args = 0
 476              	.LVL30:
 477 0000 10B5     		push	{r4, lr}	@
 478              		.cfi_def_cfa_offset 8
 479              		.cfi_offset 4, -8
 480              		.cfi_offset 14, -4
  90:../../lib/lpc11cx4-library/evt_lib/src/brusa.c **** 	if (msg_obj->dlc != NLG5_ERR_DLC) {
 481              		.loc 1 90 0
 482 0002 0B7C     		ldrb	r3, [r1, #16]	@ tmp164,
 483 0004 052B     		cmp	r3, #5	@ tmp164,
 484 0006 0DD1     		bne	.L19	@,
  91:../../lib/lpc11cx4-library/evt_lib/src/brusa.c **** 		return -1;
  92:../../lib/lpc11cx4-library/evt_lib/src/brusa.c **** 	}
  93:../../lib/lpc11cx4-library/evt_lib/src/brusa.c **** 
  94:../../lib/lpc11cx4-library/evt_lib/src/brusa.c **** 	// msg_obj->data[4] &= 0xF0;
  95:../../lib/lpc11cx4-library/evt_lib/src/brusa.c **** 	*(contents) = 0;
 485              		.loc 1 95 0
 486 0008 0023     		movs	r3, #0	@ tmp165,
 487 000a 0024     		movs	r4, #0	@ D.6566,
 488 000c 0360     		str	r3, [r0]	@ tmp165, *contents_8(D)
 489              	.LVL31:
 490 000e 0831     		adds	r1, r1, #8	@ ivtmp.31,
 491              	.LVL32:
 492              	.L18:
 493              	.LBB10:
 494              	.LBB11:
  96:../../lib/lpc11cx4-library/evt_lib/src/brusa.c **** 	uint8_t i;
  97:../../lib/lpc11cx4-library/evt_lib/src/brusa.c **** 	for (i = 0; i < NLG5_ERR_DLC - 1; i++) {
  98:../../lib/lpc11cx4-library/evt_lib/src/brusa.c **** 		*(contents) |= (msg_obj->data[i] << (8 * i));
 495              		.loc 1 98 0
 496 0010 0A78     		ldrb	r2, [r1]	@ D.6563, MEM[base: _4, offset: 0B]
 497 0012 0131     		adds	r1, r1, #1	@ ivtmp.31,
 498              	.LVL33:
 499 0014 9A40     		lsls	r2, r2, r3	@ D.6563, D.6563, ivtmp.33
 500 0016 0833     		adds	r3, r3, #8	@ ivtmp.33,
 501 0018 1443     		orrs	r4, r2	@ D.6566, D.6563
 502 001a 0460     		str	r4, [r0]	@ D.6566, *contents_8(D)
  97:../../lib/lpc11cx4-library/evt_lib/src/brusa.c **** 		*(contents) |= (msg_obj->data[i] << (8 * i));
 503              		.loc 1 97 0
 504 001c 202B     		cmp	r3, #32	@ ivtmp.33,
 505 001e F7D1     		bne	.L18	@,
 506 0020 0020     		movs	r0, #0	@ D.6563,
 507              	.LVL34:
 508              	.L17:
 509              	.LBE11:
 510              	.LBE10:
  99:../../lib/lpc11cx4-library/evt_lib/src/brusa.c **** 	}
 100:../../lib/lpc11cx4-library/evt_lib/src/brusa.c **** 
 101:../../lib/lpc11cx4-library/evt_lib/src/brusa.c **** 	return 0;
 102:../../lib/lpc11cx4-library/evt_lib/src/brusa.c **** }
 511              		.loc 1 102 0
 512              		@ sp needed	@
ARM GAS  /var/folders/z0/6xlwn_996xz3mwq1cgzkbq4r0000gp/T//ccNseOV6.s 			page 12


 513 0022 10BD     		pop	{r4, pc}
 514              	.LVL35:
 515              	.L19:
  91:../../lib/lpc11cx4-library/evt_lib/src/brusa.c **** 	}
 516              		.loc 1 91 0
 517 0024 0120     		movs	r0, #1	@ D.6563,
 518              	.LVL36:
 519 0026 4042     		rsbs	r0, r0, #0	@ D.6563, D.6563
 520 0028 FBE7     		b	.L17	@
 521              		.cfi_endproc
 522              	.LFE204:
 523              		.size	Brusa_DecodeErr, .-Brusa_DecodeErr
 524 002a C046     		.section	.text.Brusa_CheckErr,"ax",%progbits
 525              		.align	2
 526              		.global	Brusa_CheckErr
 527              		.code	16
 528              		.thumb_func
 529              		.type	Brusa_CheckErr, %function
 530              	Brusa_CheckErr:
 531              	.LFB205:
 103:../../lib/lpc11cx4-library/evt_lib/src/brusa.c **** 
 104:../../lib/lpc11cx4-library/evt_lib/src/brusa.c **** bool Brusa_CheckErr(CCAN_MSG_OBJ_T *msg_obj) {
 532              		.loc 1 104 0
 533              		.cfi_startproc
 534              		@ args = 0, pretend = 0, frame = 0
 535              		@ frame_needed = 0, uses_anonymous_args = 0
 536              		@ link register save eliminated.
 537              	.LVL37:
 105:../../lib/lpc11cx4-library/evt_lib/src/brusa.c **** 	if (msg_obj->dlc != NLG5_ERR_DLC) {
 538              		.loc 1 105 0
 539 0000 037C     		ldrb	r3, [r0, #16]	@ tmp136,
 106:../../lib/lpc11cx4-library/evt_lib/src/brusa.c **** 		return true;
 540              		.loc 1 106 0
 541 0002 0122     		movs	r2, #1	@ D.6578,
 105:../../lib/lpc11cx4-library/evt_lib/src/brusa.c **** 	if (msg_obj->dlc != NLG5_ERR_DLC) {
 542              		.loc 1 105 0
 543 0004 052B     		cmp	r3, #5	@ tmp136,
 544 0006 01D0     		beq	.L26	@,
 545              	.LVL38:
 546              	.L22:
 107:../../lib/lpc11cx4-library/evt_lib/src/brusa.c **** 	}
 108:../../lib/lpc11cx4-library/evt_lib/src/brusa.c **** 
 109:../../lib/lpc11cx4-library/evt_lib/src/brusa.c **** 	uint8_t mask = 0;
 110:../../lib/lpc11cx4-library/evt_lib/src/brusa.c **** 	uint8_t i;
 111:../../lib/lpc11cx4-library/evt_lib/src/brusa.c **** 	for (i = 0; i < msg_obj->dlc; i++) {
 112:../../lib/lpc11cx4-library/evt_lib/src/brusa.c **** 		mask |= msg_obj->data[i];
 113:../../lib/lpc11cx4-library/evt_lib/src/brusa.c **** 	}
 114:../../lib/lpc11cx4-library/evt_lib/src/brusa.c **** 
 115:../../lib/lpc11cx4-library/evt_lib/src/brusa.c **** 	return (!mask);
 116:../../lib/lpc11cx4-library/evt_lib/src/brusa.c **** }
 547              		.loc 1 116 0
 548 0008 1000     		movs	r0, r2	@, D.6578
 549              		@ sp needed	@
 550 000a 7047     		bx	lr
 551              	.LVL39:
 552              	.L26:
 553 000c 0300     		movs	r3, r0	@ ivtmp.43, msg_obj
ARM GAS  /var/folders/z0/6xlwn_996xz3mwq1cgzkbq4r0000gp/T//ccNseOV6.s 			page 13


 105:../../lib/lpc11cx4-library/evt_lib/src/brusa.c **** 		return true;
 554              		.loc 1 105 0
 555 000e 0022     		movs	r2, #0	@ mask,
 556 0010 0833     		adds	r3, r3, #8	@ ivtmp.43,
 557 0012 0D30     		adds	r0, r0, #13	@ D.6583,
 558              	.LVL40:
 559              	.L23:
 112:../../lib/lpc11cx4-library/evt_lib/src/brusa.c **** 	}
 560              		.loc 1 112 0 discriminator 3
 561 0014 1978     		ldrb	r1, [r3]	@ MEM[base: _19, offset: 0B], MEM[base: _19, offset: 0B]
 562 0016 0133     		adds	r3, r3, #1	@ ivtmp.43,
 563              	.LVL41:
 564 0018 0A43     		orrs	r2, r1	@ mask, MEM[base: _19, offset: 0B]
 565              	.LVL42:
 111:../../lib/lpc11cx4-library/evt_lib/src/brusa.c **** 		mask |= msg_obj->data[i];
 566              		.loc 1 111 0 discriminator 3
 567 001a 8342     		cmp	r3, r0	@ ivtmp.43, D.6583
 568 001c FAD1     		bne	.L23	@,
 115:../../lib/lpc11cx4-library/evt_lib/src/brusa.c **** }
 569              		.loc 1 115 0
 570 001e 5042     		rsbs	r0, r2, #0	@ tmp142, mask
 571 0020 4241     		adcs	r2, r2, r0	@ tmp141, mask, tmp142
 572              	.LVL43:
 573 0022 D2B2     		uxtb	r2, r2	@ D.6578, tmp141
 574 0024 F0E7     		b	.L22	@
 575              		.cfi_endproc
 576              	.LFE205:
 577              		.size	Brusa_CheckErr, .-Brusa_CheckErr
 578 0026 C046     		.section	.text.Brusa_Decode,"ax",%progbits
 579              		.align	2
 580              		.global	Brusa_Decode
 581              		.code	16
 582              		.thumb_func
 583              		.type	Brusa_Decode, %function
 584              	Brusa_Decode:
 585              	.LFB206:
 117:../../lib/lpc11cx4-library/evt_lib/src/brusa.c **** 
 118:../../lib/lpc11cx4-library/evt_lib/src/brusa.c **** /**
 119:../../lib/lpc11cx4-library/evt_lib/src/brusa.c ****  * @details Takes a CAN messege object and determines if it is a valid Brusa message.
 120:../../lib/lpc11cx4-library/evt_lib/src/brusa.c ****  * If so, it stuffs it into the appropriate static struct
 121:../../lib/lpc11cx4-library/evt_lib/src/brusa.c ****  * 
 122:../../lib/lpc11cx4-library/evt_lib/src/brusa.c ****  * @param msg CAN message object to decode
 123:../../lib/lpc11cx4-library/evt_lib/src/brusa.c ****  * @return 0 if properly decodes, -1 otherwise
 124:../../lib/lpc11cx4-library/evt_lib/src/brusa.c ****  */
 125:../../lib/lpc11cx4-library/evt_lib/src/brusa.c **** int8_t Brusa_Decode(NLG5_MESSAGES_T *state, CCAN_MSG_OBJ_T *msg) {
 586              		.loc 1 125 0
 587              		.cfi_startproc
 588              		@ args = 0, pretend = 0, frame = 0
 589              		@ frame_needed = 0, uses_anonymous_args = 0
 590              	.LVL44:
 126:../../lib/lpc11cx4-library/evt_lib/src/brusa.c **** 	if (msg->mode_id == NLG5_STATUS) {
 591              		.loc 1 126 0
 592 0000 C222     		movs	r2, #194	@ tmp208,
 593 0002 0B68     		ldr	r3, [r1]	@ D.6600, msg_4(D)->mode_id
 125:../../lib/lpc11cx4-library/evt_lib/src/brusa.c **** 	if (msg->mode_id == NLG5_STATUS) {
 594              		.loc 1 125 0
 595 0004 10B5     		push	{r4, lr}	@
ARM GAS  /var/folders/z0/6xlwn_996xz3mwq1cgzkbq4r0000gp/T//ccNseOV6.s 			page 14


 596              		.cfi_def_cfa_offset 8
 597              		.cfi_offset 4, -8
 598              		.cfi_offset 14, -4
 599              		.loc 1 126 0
 600 0006 D200     		lsls	r2, r2, #3	@ tmp208, tmp208,
 601 0008 9342     		cmp	r3, r2	@ D.6600, tmp208
 602 000a 44D0     		beq	.L42	@,
 127:../../lib/lpc11cx4-library/evt_lib/src/brusa.c **** 		return Brusa_DecodeStatus(state->stat, msg);
 128:../../lib/lpc11cx4-library/evt_lib/src/brusa.c **** 	} else if (msg->mode_id == NLG5_TEMP) {
 603              		.loc 1 128 0
 604 000c 2E4A     		ldr	r2, .L47	@ tmp210,
 605 000e 9342     		cmp	r3, r2	@ D.6600, tmp210
 606 0010 0ED0     		beq	.L43	@,
 129:../../lib/lpc11cx4-library/evt_lib/src/brusa.c **** 		return Brusa_DecodeTemp(state->temp, msg);
 130:../../lib/lpc11cx4-library/evt_lib/src/brusa.c **** 	} else if (msg->mode_id == NLG5_ACT_I) {
 607              		.loc 1 130 0
 608 0012 2E4A     		ldr	r2, .L47+4	@ tmp240,
 609 0014 9342     		cmp	r3, r2	@ D.6600, tmp240
 610 0016 43D0     		beq	.L44	@,
 131:../../lib/lpc11cx4-library/evt_lib/src/brusa.c **** 		return Brusa_DecodeActI(state->act_i, msg);
 132:../../lib/lpc11cx4-library/evt_lib/src/brusa.c **** 	} else if (msg->mode_id == NLG5_ACT_II) {
 611              		.loc 1 132 0
 612 0018 2D4A     		ldr	r2, .L47+8	@ tmp242,
 613 001a 9342     		cmp	r3, r2	@ D.6600, tmp242
 614 001c 22D0     		beq	.L45	@,
 133:../../lib/lpc11cx4-library/evt_lib/src/brusa.c **** 		return Brusa_DecodeActII(state->act_ii, msg);
 134:../../lib/lpc11cx4-library/evt_lib/src/brusa.c **** 	} else if (msg->mode_id == NLG5_ERR) {
 615              		.loc 1 134 0
 616 001e 2D4A     		ldr	r2, .L47+12	@ tmp267,
 617 0020 9342     		cmp	r3, r2	@ D.6600, tmp267
 618 0022 02D1     		bne	.L39	@,
 619              	.LVL45:
 620              	.LBB20:
 621              	.LBB21:
  90:../../lib/lpc11cx4-library/evt_lib/src/brusa.c **** 		return -1;
 622              		.loc 1 90 0
 623 0024 0B7C     		ldrb	r3, [r1, #16]	@ tmp268,
 624 0026 052B     		cmp	r3, #5	@ tmp268,
 625 0028 3FD0     		beq	.L46	@,
 626              	.LVL46:
 627              	.L39:
 628              	.LBE21:
 629              	.LBE20:
 135:../../lib/lpc11cx4-library/evt_lib/src/brusa.c **** 		return Brusa_DecodeErr(state->err, msg);
 136:../../lib/lpc11cx4-library/evt_lib/src/brusa.c **** 	} else {
 137:../../lib/lpc11cx4-library/evt_lib/src/brusa.c **** 		return -1;
 630              		.loc 1 137 0
 631 002a 0120     		movs	r0, #1	@ D.6599,
 632              	.LVL47:
 633 002c 4042     		rsbs	r0, r0, #0	@ D.6599, D.6599
 634              	.LVL48:
 635              	.L29:
 138:../../lib/lpc11cx4-library/evt_lib/src/brusa.c **** 	}
 139:../../lib/lpc11cx4-library/evt_lib/src/brusa.c **** 
 140:../../lib/lpc11cx4-library/evt_lib/src/brusa.c **** 	return 0;
 141:../../lib/lpc11cx4-library/evt_lib/src/brusa.c **** }
 636              		.loc 1 141 0
ARM GAS  /var/folders/z0/6xlwn_996xz3mwq1cgzkbq4r0000gp/T//ccNseOV6.s 			page 15


 637              		@ sp needed	@
 638 002e 10BD     		pop	{r4, pc}
 639              	.LVL49:
 640              	.L43:
 641              	.LBB26:
 642              	.LBB27:
  77:../../lib/lpc11cx4-library/evt_lib/src/brusa.c **** 		return -1;
 643              		.loc 1 77 0
 644 0030 0B7C     		ldrb	r3, [r1, #16]	@ tmp211,
 645 0032 082B     		cmp	r3, #8	@ tmp211,
 646 0034 F9D1     		bne	.L39	@,
  81:../../lib/lpc11cx4-library/evt_lib/src/brusa.c **** 	contents->temp_1 = (msg_obj->data[2] << 8) | msg_obj->data[3];
 647              		.loc 1 81 0
 648 0036 0B7A     		ldrb	r3, [r1, #8]	@ D.6602,
 649              	.LBE27:
 650              	.LBE26:
 129:../../lib/lpc11cx4-library/evt_lib/src/brusa.c **** 	} else if (msg->mode_id == NLG5_ACT_I) {
 651              		.loc 1 129 0
 652 0038 C268     		ldr	r2, [r0, #12]	@ D.6603, state_6(D)->temp
 653              	.LBB29:
 654              	.LBB28:
  81:../../lib/lpc11cx4-library/evt_lib/src/brusa.c **** 	contents->temp_1 = (msg_obj->data[2] << 8) | msg_obj->data[3];
 655              		.loc 1 81 0
 656 003a 487A     		ldrb	r0, [r1, #9]	@ tmp215,
 657              	.LVL50:
 658 003c 1B02     		lsls	r3, r3, #8	@ D.6602, D.6602,
 659 003e 0343     		orrs	r3, r0	@ tmp217, tmp215
 660 0040 1380     		strh	r3, [r2]	@ tmp217, _11->power_temp
  82:../../lib/lpc11cx4-library/evt_lib/src/brusa.c **** 	contents->temp_2 = (msg_obj->data[4] << 8) | msg_obj->data[5];
 661              		.loc 1 82 0
 662 0042 8B7A     		ldrb	r3, [r1, #10]	@ D.6602,
 663 0044 C87A     		ldrb	r0, [r1, #11]	@ tmp222,
 664 0046 1B02     		lsls	r3, r3, #8	@ D.6602, D.6602,
 665 0048 0343     		orrs	r3, r0	@ tmp224, tmp222
 666 004a 5380     		strh	r3, [r2, #2]	@ tmp224, _11->temp_1
  83:../../lib/lpc11cx4-library/evt_lib/src/brusa.c **** 	contents->temp_3 = (msg_obj->data[6] << 8) | msg_obj->data[7];
 667              		.loc 1 83 0
 668 004c 0B7B     		ldrb	r3, [r1, #12]	@ D.6602,
 669 004e 487B     		ldrb	r0, [r1, #13]	@ tmp229,
 670 0050 1B02     		lsls	r3, r3, #8	@ D.6602, D.6602,
 671 0052 0343     		orrs	r3, r0	@ tmp231, tmp229
 672 0054 9380     		strh	r3, [r2, #4]	@ tmp231, _11->temp_2
  84:../../lib/lpc11cx4-library/evt_lib/src/brusa.c **** 
 673              		.loc 1 84 0
 674 0056 8B7B     		ldrb	r3, [r1, #14]	@ D.6602,
 675 0058 C97B     		ldrb	r1, [r1, #15]	@ tmp236,
 676              	.LVL51:
 677 005a 1B02     		lsls	r3, r3, #8	@ D.6602, D.6602,
 678 005c 0B43     		orrs	r3, r1	@ tmp238, tmp236
 679 005e D380     		strh	r3, [r2, #6]	@ tmp238, _11->temp_3
 680 0060 0020     		movs	r0, #0	@ D.6599,
 681 0062 E4E7     		b	.L29	@
 682              	.LVL52:
 683              	.L45:
 684              	.LBE28:
 685              	.LBE29:
 686              	.LBB30:
ARM GAS  /var/folders/z0/6xlwn_996xz3mwq1cgzkbq4r0000gp/T//ccNseOV6.s 			page 16


 687              	.LBB31:
  63:../../lib/lpc11cx4-library/evt_lib/src/brusa.c **** 		return -1;
 688              		.loc 1 63 0
 689 0064 0B7C     		ldrb	r3, [r1, #16]	@ tmp243,
 690 0066 082B     		cmp	r3, #8	@ tmp243,
 691 0068 DFD1     		bne	.L39	@,
  67:../../lib/lpc11cx4-library/evt_lib/src/brusa.c **** 	contents->mains_current_max_power_ind = msg_obj->data[2];
 692              		.loc 1 67 0
 693 006a 0A7A     		ldrb	r2, [r1, #8]	@ D.6602,
 694              	.LBE31:
 695              	.LBE30:
 133:../../lib/lpc11cx4-library/evt_lib/src/brusa.c **** 	} else if (msg->mode_id == NLG5_ERR) {
 696              		.loc 1 133 0
 697 006c 8368     		ldr	r3, [r0, #8]	@ D.6606, state_6(D)->act_ii
 698              	.LBB33:
 699              	.LBB32:
  67:../../lib/lpc11cx4-library/evt_lib/src/brusa.c **** 	contents->mains_current_max_power_ind = msg_obj->data[2];
 700              		.loc 1 67 0
 701 006e 487A     		ldrb	r0, [r1, #9]	@ tmp247,
 702              	.LVL53:
 703 0070 1202     		lsls	r2, r2, #8	@ D.6602, D.6602,
 704 0072 0243     		orrs	r2, r0	@ tmp249, tmp247
 705 0074 1A80     		strh	r2, [r3]	@ tmp249, _18->mains_current_max_pilot
  68:../../lib/lpc11cx4-library/evt_lib/src/brusa.c **** 	contents->aux_battery_voltage = msg_obj->data[3];
 706              		.loc 1 68 0
 707 0076 8A7A     		ldrb	r2, [r1, #10]	@ D.6604,
 708 0078 9A70     		strb	r2, [r3, #2]	@ D.6604, _18->mains_current_max_power_ind
  69:../../lib/lpc11cx4-library/evt_lib/src/brusa.c **** 	contents->amp_hours_ext_shunt = (msg_obj->data[4] << 8) | msg_obj->data[5];
 709              		.loc 1 69 0
 710 007a CA7A     		ldrb	r2, [r1, #11]	@ D.6604,
 711 007c DA70     		strb	r2, [r3, #3]	@ D.6604, _18->aux_battery_voltage
  70:../../lib/lpc11cx4-library/evt_lib/src/brusa.c **** 	contents->booster_output_current = (msg_obj->data[6] << 8) | msg_obj->data[7];
 712              		.loc 1 70 0
 713 007e 0A7B     		ldrb	r2, [r1, #12]	@ D.6602,
 714 0080 487B     		ldrb	r0, [r1, #13]	@ tmp256,
 715 0082 1202     		lsls	r2, r2, #8	@ D.6602, D.6602,
 716 0084 0243     		orrs	r2, r0	@ tmp258, tmp256
 717 0086 9A80     		strh	r2, [r3, #4]	@ tmp258, _18->amp_hours_ext_shunt
  71:../../lib/lpc11cx4-library/evt_lib/src/brusa.c **** 
 718              		.loc 1 71 0
 719 0088 8A7B     		ldrb	r2, [r1, #14]	@ D.6602,
 720 008a C97B     		ldrb	r1, [r1, #15]	@ tmp263,
 721              	.LVL54:
 722 008c 1202     		lsls	r2, r2, #8	@ D.6602, D.6602,
 723 008e 0A43     		orrs	r2, r1	@ tmp265, tmp263
 724 0090 DA80     		strh	r2, [r3, #6]	@ tmp265, _18->booster_output_current
 725 0092 0020     		movs	r0, #0	@ D.6599,
 726 0094 CBE7     		b	.L29	@
 727              	.LVL55:
 728              	.L42:
 729              	.LBE32:
 730              	.LBE33:
 127:../../lib/lpc11cx4-library/evt_lib/src/brusa.c **** 	} else if (msg->mode_id == NLG5_TEMP) {
 731              		.loc 1 127 0
 732 0096 0068     		ldr	r0, [r0]	@ state_6(D)->stat, state_6(D)->stat
 733              	.LVL56:
 734 0098 FFF7FEFF 		bl	Brusa_DecodeStatus	@
ARM GAS  /var/folders/z0/6xlwn_996xz3mwq1cgzkbq4r0000gp/T//ccNseOV6.s 			page 17


 735              	.LVL57:
 736 009c 40B2     		sxtb	r0, r0	@ D.6599, D.6602
 737 009e C6E7     		b	.L29	@
 738              	.LVL58:
 739              	.L44:
 131:../../lib/lpc11cx4-library/evt_lib/src/brusa.c **** 	} else if (msg->mode_id == NLG5_ACT_II) {
 740              		.loc 1 131 0
 741 00a0 4068     		ldr	r0, [r0, #4]	@ state_6(D)->act_i, state_6(D)->act_i
 742              	.LVL59:
 743 00a2 FFF7FEFF 		bl	Brusa_DecodeActI	@
 744              	.LVL60:
 745 00a6 40B2     		sxtb	r0, r0	@ D.6599, D.6602
 746 00a8 C1E7     		b	.L29	@
 747              	.LVL61:
 748              	.L46:
 749              	.LBB34:
 750              	.LBB24:
  95:../../lib/lpc11cx4-library/evt_lib/src/brusa.c **** 	uint8_t i;
 751              		.loc 1 95 0
 752 00aa 0023     		movs	r3, #0	@ tmp269,
 753              	.LBE24:
 754              	.LBE34:
 135:../../lib/lpc11cx4-library/evt_lib/src/brusa.c **** 	} else {
 755              		.loc 1 135 0
 756 00ac 0469     		ldr	r4, [r0, #16]	@ D.6607, state_6(D)->err
 757              	.LBB35:
 758              	.LBB25:
  95:../../lib/lpc11cx4-library/evt_lib/src/brusa.c **** 	uint8_t i;
 759              		.loc 1 95 0
 760 00ae 0020     		movs	r0, #0	@ D.6600,
 761              	.LVL62:
 762 00b0 2360     		str	r3, [r4]	@ tmp269, *_21
 763              	.LVL63:
 764 00b2 0831     		adds	r1, r1, #8	@ ivtmp.53,
 765              	.LVL64:
 766              	.L36:
 767              	.LBB22:
 768              	.LBB23:
  98:../../lib/lpc11cx4-library/evt_lib/src/brusa.c **** 	}
 769              		.loc 1 98 0
 770 00b4 0A78     		ldrb	r2, [r1]	@ D.6602, MEM[base: _114, offset: 0B]
 771 00b6 0131     		adds	r1, r1, #1	@ ivtmp.53,
 772              	.LVL65:
 773 00b8 9A40     		lsls	r2, r2, r3	@ D.6602, D.6602, ivtmp.55
 774 00ba 0833     		adds	r3, r3, #8	@ ivtmp.55,
 775 00bc 1043     		orrs	r0, r2	@ D.6600, D.6602
 776 00be 2060     		str	r0, [r4]	@ D.6600, *_21
  97:../../lib/lpc11cx4-library/evt_lib/src/brusa.c **** 		*(contents) |= (msg_obj->data[i] << (8 * i));
 777              		.loc 1 97 0
 778 00c0 202B     		cmp	r3, #32	@ ivtmp.55,
 779 00c2 F7D1     		bne	.L36	@,
 780 00c4 0020     		movs	r0, #0	@ D.6599,
 781 00c6 B2E7     		b	.L29	@
 782              	.L48:
 783              		.align	2
 784              	.L47:
 785 00c8 13060000 		.word	1555
ARM GAS  /var/folders/z0/6xlwn_996xz3mwq1cgzkbq4r0000gp/T//ccNseOV6.s 			page 18


 786 00cc 11060000 		.word	1553
 787 00d0 12060000 		.word	1554
 788 00d4 14060000 		.word	1556
 789              	.LBE23:
 790              	.LBE22:
 791              	.LBE25:
 792              	.LBE35:
 793              		.cfi_endproc
 794              	.LFE206:
 795              		.size	Brusa_Decode, .-Brusa_Decode
 796              		.text
 797              	.Letext0:
 798              		.file 2 "/usr/local/Cellar/gcc-arm-none-eabi/20160928/arm-none-eabi/include/machine/_default_types
 799              		.file 3 "/usr/local/Cellar/gcc-arm-none-eabi/20160928/arm-none-eabi/include/sys/_stdint.h"
 800              		.file 4 "../../lib/lpc11cx4-library/lpc_chip_11cxx_lib/inc/ccand_11xx.h"
 801              		.file 5 "../../lib/lpc11cx4-library/evt_lib/inc/brusa.h"
 802              		.file 6 "../../lib/lpc11cx4-library/lpc_chip_11cxx_lib/inc/chip.h"