ARM GAS  /var/folders/z0/6xlwn_996xz3mwq1cgzkbq4r0000gp/T//ccjakVr1.s 			page 1


   1              		.syntax unified
   2              		.cpu cortex-m0
   3              		.fpu softvfp
   4              		.eabi_attribute 20, 1	@ Tag_ABI_FP_denormal
   5              		.eabi_attribute 21, 1	@ Tag_ABI_FP_exceptions
   6              		.eabi_attribute 23, 3	@ Tag_ABI_FP_number_model
   7              		.eabi_attribute 24, 1	@ Tag_ABI_align8_needed
   8              		.eabi_attribute 25, 1	@ Tag_ABI_align8_preserved
   9              		.eabi_attribute 26, 1	@ Tag_ABI_enum_size
  10              		.eabi_attribute 30, 2	@ Tag_ABI_optimization_goals
  11              		.eabi_attribute 34, 0	@ Tag_CPU_unaligned_access
  12              		.eabi_attribute 18, 4	@ Tag_ABI_PCS_wchar_t
  13              		.file	"can.c"
  14              	@ GNU C89 (GNU Tools for ARM Embedded Processors) version 5.4.1 20160919 (release) [ARM/embedded-5-
  15              	@	compiled by GNU C version 4.2.1 (Based on Apple Inc. build 5658) (LLVM build 2336.9.00), GMP vers
  16              	@ GGC heuristics: --param ggc-min-expand=100 --param ggc-min-heapsize=131072
  17              	@ options passed:  -I . -I inc/
  18              	@ -I ../../lib/lpc11cx4-library/lpc_chip_11cxx_lib/inc
  19              	@ -I ../../lib/lpc11cx4-library/evt_lib/inc/ -I ../../lib/CANlib
  20              	@ -imultilib armv6-m
  21              	@ -iprefix /usr/local/Cellar/gcc-arm-none-eabi/20160928/bin/../lib/gcc/arm-none-eabi/5.4.1/
  22              	@ -isysroot /usr/local/Cellar/gcc-arm-none-eabi/20160928/bin/../arm-none-eabi
  23              	@ -MD bin/can.d -MF bin/can.d -MP -MQ bin/can.o -D__USES_INITFINI__
  24              	@ -D UART_BAUD=57600 -D CORE_M0 -D DEBUG_ENABLE -D FSAE_DRIVERS
  25              	@ -D CAN_ARCHITECTURE_ARM ../../lib/lpc11cx4-library/evt_lib/src/can.c
  26              	@ -mcpu=cortex-m0 -mthumb -auxbase-strip bin/can.o -g -ggdb3 -O2 -Wall
  27              	@ -Wstrict-prototypes -Wextra -std=gnu90 -ffunction-sections
  28              	@ -fdata-sections -fdiagnostics-color=always -fverbose-asm
  29              	@ options enabled:  -faggressive-loop-optimizations -falign-functions
  30              	@ -falign-jumps -falign-labels -falign-loops -fauto-inc-dec
  31              	@ -fbranch-count-reg -fcaller-saves -fchkp-check-incomplete-type
  32              	@ -fchkp-check-read -fchkp-check-write -fchkp-instrument-calls
  33              	@ -fchkp-narrow-bounds -fchkp-optimize -fchkp-store-bounds
  34              	@ -fchkp-use-static-bounds -fchkp-use-static-const-bounds
  35              	@ -fchkp-use-wrappers -fcombine-stack-adjustments -fcommon -fcompare-elim
  36              	@ -fcprop-registers -fcrossjumping -fcse-follow-jumps -fdata-sections
  37              	@ -fdefer-pop -fdelete-null-pointer-checks -fdevirtualize
  38              	@ -fdevirtualize-speculatively -fdwarf2-cfi-asm -fearly-inlining
  39              	@ -feliminate-unused-debug-types -fexpensive-optimizations
  40              	@ -fforward-propagate -ffunction-cse -ffunction-sections -fgcse -fgcse-lm
  41              	@ -fgnu-runtime -fgnu-unique -fguess-branch-probability
  42              	@ -fhoist-adjacent-loads -fident -fif-conversion -fif-conversion2
  43              	@ -findirect-inlining -finline -finline-atomics
  44              	@ -finline-functions-called-once -finline-small-functions -fipa-cp
  45              	@ -fipa-cp-alignment -fipa-icf -fipa-icf-functions -fipa-icf-variables
  46              	@ -fipa-profile -fipa-pure-const -fipa-reference -fipa-sra
  47              	@ -fira-hoist-pressure -fira-share-save-slots -fira-share-spill-slots
  48              	@ -fisolate-erroneous-paths-dereference -fivopts -fkeep-static-consts
  49              	@ -fleading-underscore -flifetime-dse -flra-remat -flto-odr-type-merging
  50              	@ -fmath-errno -fmerge-constants -fmerge-debug-strings
  51              	@ -fmove-loop-invariants -fomit-frame-pointer -foptimize-sibling-calls
  52              	@ -foptimize-strlen -fpartial-inlining -fpeephole -fpeephole2
  53              	@ -fprefetch-loop-arrays -freg-struct-return -freorder-blocks
  54              	@ -freorder-functions -frerun-cse-after-loop
  55              	@ -fsched-critical-path-heuristic -fsched-dep-count-heuristic
  56              	@ -fsched-group-heuristic -fsched-interblock -fsched-last-insn-heuristic
  57              	@ -fsched-pressure -fsched-rank-heuristic -fsched-spec
ARM GAS  /var/folders/z0/6xlwn_996xz3mwq1cgzkbq4r0000gp/T//ccjakVr1.s 			page 2


  58              	@ -fsched-spec-insn-heuristic -fsched-stalled-insns-dep -fschedule-insns2
  59              	@ -fsection-anchors -fsemantic-interposition -fshow-column -fshrink-wrap
  60              	@ -fsigned-zeros -fsplit-ivs-in-unroller -fsplit-wide-types -fssa-phiopt
  61              	@ -fstdarg-opt -fstrict-aliasing -fstrict-overflow
  62              	@ -fstrict-volatile-bitfields -fsync-libcalls -fthread-jumps
  63              	@ -ftoplevel-reorder -ftrapping-math -ftree-bit-ccp -ftree-builtin-call-dce
  64              	@ -ftree-ccp -ftree-ch -ftree-coalesce-vars -ftree-copy-prop
  65              	@ -ftree-copyrename -ftree-cselim -ftree-dce -ftree-dominator-opts
  66              	@ -ftree-dse -ftree-forwprop -ftree-fre -ftree-loop-if-convert
  67              	@ -ftree-loop-im -ftree-loop-ivcanon -ftree-loop-optimize
  68              	@ -ftree-parallelize-loops= -ftree-phiprop -ftree-pre -ftree-pta
  69              	@ -ftree-reassoc -ftree-scev-cprop -ftree-sink -ftree-slsr -ftree-sra
  70              	@ -ftree-switch-conversion -ftree-tail-merge -ftree-ter -ftree-vrp
  71              	@ -funit-at-a-time -fvar-tracking -fvar-tracking-assignments -fverbose-asm
  72              	@ -fzero-initialized-in-bss -mlittle-endian -mpic-data-is-text-relative
  73              	@ -msched-prolog -mthumb -mvectorize-with-neon-quad
  74              	
  75              		.text
  76              	.Ltext0:
  77              		.cfi_sections	.debug_frame
  78              		.section	.text.CAN_error,"ax",%progbits
  79              		.align	2
  80              		.global	CAN_error
  81              		.code	16
  82              		.thumb_func
  83              		.type	CAN_error, %function
  84              	CAN_error:
  85              	.LFB206:
  86              		.file 1 "../../lib/lpc11cx4-library/evt_lib/src/can.c"
   1:../../lib/lpc11cx4-library/evt_lib/src/can.c **** #ifndef _LEGACY_
   2:../../lib/lpc11cx4-library/evt_lib/src/can.c **** #include "chip.h"
   3:../../lib/lpc11cx4-library/evt_lib/src/can.c **** #include <string.h>
   4:../../lib/lpc11cx4-library/evt_lib/src/can.c **** #include "can.h"
   5:../../lib/lpc11cx4-library/evt_lib/src/can.c **** 
   6:../../lib/lpc11cx4-library/evt_lib/src/can.c **** #define CAN_BUF_SIZE 16
   7:../../lib/lpc11cx4-library/evt_lib/src/can.c **** 
   8:../../lib/lpc11cx4-library/evt_lib/src/can.c **** CCAN_MSG_OBJ_T msg_obj;
   9:../../lib/lpc11cx4-library/evt_lib/src/can.c **** static RINGBUFF_T rx_buffer;
  10:../../lib/lpc11cx4-library/evt_lib/src/can.c **** CCAN_MSG_OBJ_T _rx_buffer[CAN_BUF_SIZE];
  11:../../lib/lpc11cx4-library/evt_lib/src/can.c **** 
  12:../../lib/lpc11cx4-library/evt_lib/src/can.c **** static RINGBUFF_T tx_buffer;
  13:../../lib/lpc11cx4-library/evt_lib/src/can.c **** CCAN_MSG_OBJ_T _tx_buffer[CAN_BUF_SIZE];
  14:../../lib/lpc11cx4-library/evt_lib/src/can.c **** CCAN_MSG_OBJ_T tmp_msg_obj; // temporarily store data/CAN ID to insert into tx_buf
  15:../../lib/lpc11cx4-library/evt_lib/src/can.c **** CCAN_MSG_OBJ_T tmp_msg_obj_2;
  16:../../lib/lpc11cx4-library/evt_lib/src/can.c **** 
  17:../../lib/lpc11cx4-library/evt_lib/src/can.c **** static bool can_error_flag;
  18:../../lib/lpc11cx4-library/evt_lib/src/can.c **** static uint32_t can_error_info;
  19:../../lib/lpc11cx4-library/evt_lib/src/can.c **** 
  20:../../lib/lpc11cx4-library/evt_lib/src/can.c **** 
  21:../../lib/lpc11cx4-library/evt_lib/src/can.c **** #define NUM_MSG_OBJS 2
  22:../../lib/lpc11cx4-library/evt_lib/src/can.c **** #if NUM_MSG_OBJS > 2
  23:../../lib/lpc11cx4-library/evt_lib/src/can.c **** 	#error "Allocating too many message objects to CAN Tx can cause bad shit"
  24:../../lib/lpc11cx4-library/evt_lib/src/can.c **** #endif
  25:../../lib/lpc11cx4-library/evt_lib/src/can.c **** static bool msg_obj_stat[NUM_MSG_OBJS + 1];
  26:../../lib/lpc11cx4-library/evt_lib/src/can.c **** 
  27:../../lib/lpc11cx4-library/evt_lib/src/can.c **** 
  28:../../lib/lpc11cx4-library/evt_lib/src/can.c **** bool CAN_IsTxBusy(void);
ARM GAS  /var/folders/z0/6xlwn_996xz3mwq1cgzkbq4r0000gp/T//ccjakVr1.s 			page 3


  29:../../lib/lpc11cx4-library/evt_lib/src/can.c **** void Baudrate_Calculate(uint32_t baud_rate, uint32_t *can_api_timing_cfg);
  30:../../lib/lpc11cx4-library/evt_lib/src/can.c **** CAN_ERROR_T Convert_To_CAN_Error(uint32_t can_error);
  31:../../lib/lpc11cx4-library/evt_lib/src/can.c **** 
  32:../../lib/lpc11cx4-library/evt_lib/src/can.c **** 
  33:../../lib/lpc11cx4-library/evt_lib/src/can.c **** /*************************************************
  34:../../lib/lpc11cx4-library/evt_lib/src/can.c ****  *                  HELPERS
  35:../../lib/lpc11cx4-library/evt_lib/src/can.c ****  * ************************************************/
  36:../../lib/lpc11cx4-library/evt_lib/src/can.c **** 
  37:../../lib/lpc11cx4-library/evt_lib/src/can.c **** // TODO EXPLAIN WHAT THIS DOES AND SIMPLIFY
  38:../../lib/lpc11cx4-library/evt_lib/src/can.c **** void Baudrate_Calculate(uint32_t baud_rate, uint32_t *can_api_timing_cfg) {
  39:../../lib/lpc11cx4-library/evt_lib/src/can.c **** 	uint32_t pClk, div, quanta, segs, seg1, seg2, clk_per_bit, can_sjw;
  40:../../lib/lpc11cx4-library/evt_lib/src/can.c **** 	Chip_Clock_EnablePeriphClock(SYSCTL_CLOCK_CAN);
  41:../../lib/lpc11cx4-library/evt_lib/src/can.c **** 	pClk = Chip_Clock_GetMainClockRate();
  42:../../lib/lpc11cx4-library/evt_lib/src/can.c **** 
  43:../../lib/lpc11cx4-library/evt_lib/src/can.c **** 	clk_per_bit = pClk / baud_rate;
  44:../../lib/lpc11cx4-library/evt_lib/src/can.c **** 
  45:../../lib/lpc11cx4-library/evt_lib/src/can.c **** 	for (div = 0; div <= 15; div++) {
  46:../../lib/lpc11cx4-library/evt_lib/src/can.c **** 		for (quanta = 1; quanta <= 32; quanta++) {
  47:../../lib/lpc11cx4-library/evt_lib/src/can.c **** 			for (segs = 3; segs <= 17; segs++) {
  48:../../lib/lpc11cx4-library/evt_lib/src/can.c **** 				if (clk_per_bit == (segs * quanta * (div + 1))) {
  49:../../lib/lpc11cx4-library/evt_lib/src/can.c **** 					segs -= 3;
  50:../../lib/lpc11cx4-library/evt_lib/src/can.c **** 					seg1 = segs / 2;
  51:../../lib/lpc11cx4-library/evt_lib/src/can.c **** 					seg2 = segs - seg1;
  52:../../lib/lpc11cx4-library/evt_lib/src/can.c **** 					can_sjw = seg1 > 3 ? 3 : seg1;
  53:../../lib/lpc11cx4-library/evt_lib/src/can.c **** 					can_api_timing_cfg[0] = div;
  54:../../lib/lpc11cx4-library/evt_lib/src/can.c **** 					can_api_timing_cfg[1] =
  55:../../lib/lpc11cx4-library/evt_lib/src/can.c **** 						((quanta - 1) & 0x3F) | (can_sjw & 0x03) << 6 | (seg1 & 0x0F) << 8 | (seg2 & 0x07) << 12;
  56:../../lib/lpc11cx4-library/evt_lib/src/can.c **** 					return;
  57:../../lib/lpc11cx4-library/evt_lib/src/can.c **** 				}
  58:../../lib/lpc11cx4-library/evt_lib/src/can.c **** 			}
  59:../../lib/lpc11cx4-library/evt_lib/src/can.c **** 		}
  60:../../lib/lpc11cx4-library/evt_lib/src/can.c **** 	}
  61:../../lib/lpc11cx4-library/evt_lib/src/can.c **** }
  62:../../lib/lpc11cx4-library/evt_lib/src/can.c **** 
  63:../../lib/lpc11cx4-library/evt_lib/src/can.c **** uint8_t CAN_GetTxErrorCount(void) {
  64:../../lib/lpc11cx4-library/evt_lib/src/can.c ****     // page 290 in the user manual
  65:../../lib/lpc11cx4-library/evt_lib/src/can.c ****     return LPC_CCAN->CANEC & 0x000000FF;
  66:../../lib/lpc11cx4-library/evt_lib/src/can.c **** }
  67:../../lib/lpc11cx4-library/evt_lib/src/can.c **** 
  68:../../lib/lpc11cx4-library/evt_lib/src/can.c **** uint8_t CAN_GetRxErrorCount(void) {
  69:../../lib/lpc11cx4-library/evt_lib/src/can.c ****     // page 290 in the user manual
  70:../../lib/lpc11cx4-library/evt_lib/src/can.c ****     return (LPC_CCAN->CANEC & 0x00007F00) >> 8;
  71:../../lib/lpc11cx4-library/evt_lib/src/can.c **** }
  72:../../lib/lpc11cx4-library/evt_lib/src/can.c **** 
  73:../../lib/lpc11cx4-library/evt_lib/src/can.c **** bool CAN_IsTxBusy(void) {
  74:../../lib/lpc11cx4-library/evt_lib/src/can.c ****     // page 302 in the user manual
  75:../../lib/lpc11cx4-library/evt_lib/src/can.c ****     return ((LPC_CCAN->CANTXREQ1 & 0x00000002) >> 1) == 1;
  76:../../lib/lpc11cx4-library/evt_lib/src/can.c **** }
  77:../../lib/lpc11cx4-library/evt_lib/src/can.c **** 
  78:../../lib/lpc11cx4-library/evt_lib/src/can.c **** // TODO SAVE CURRENT IN FLIGHT MESSAGE SO THAT ON RESET ANY IN FLIGHT MESSAGES CAN BE RE-SENT
  79:../../lib/lpc11cx4-library/evt_lib/src/can.c **** 
  80:../../lib/lpc11cx4-library/evt_lib/src/can.c **** bool CAN_ResetPeripheral(void) {
  81:../../lib/lpc11cx4-library/evt_lib/src/can.c **** 	if(LPC_CCAN->CANSTAT>>7&0x01) {
  82:../../lib/lpc11cx4-library/evt_lib/src/can.c ****     	Chip_SYSCTL_PeriphReset(RESET_CAN0);
  83:../../lib/lpc11cx4-library/evt_lib/src/can.c ****     	return true;
  84:../../lib/lpc11cx4-library/evt_lib/src/can.c ****     }
  85:../../lib/lpc11cx4-library/evt_lib/src/can.c ****    return false;
ARM GAS  /var/folders/z0/6xlwn_996xz3mwq1cgzkbq4r0000gp/T//ccjakVr1.s 			page 4


  86:../../lib/lpc11cx4-library/evt_lib/src/can.c **** }
  87:../../lib/lpc11cx4-library/evt_lib/src/can.c **** 
  88:../../lib/lpc11cx4-library/evt_lib/src/can.c **** CAN_ERROR_T Convert_To_CAN_Error(uint32_t can_error) {
  89:../../lib/lpc11cx4-library/evt_lib/src/can.c **** 	if (!can_error) return NO_CAN_ERROR;
  90:../../lib/lpc11cx4-library/evt_lib/src/can.c ****     switch(can_error & 0x6) {
  91:../../lib/lpc11cx4-library/evt_lib/src/can.c ****        case 0x1: return STUF_CAN_ERROR;
  92:../../lib/lpc11cx4-library/evt_lib/src/can.c ****        case 0x2: return FORM_CAN_ERROR;
  93:../../lib/lpc11cx4-library/evt_lib/src/can.c ****        case 0x3: return ACK_CAN_ERROR;
  94:../../lib/lpc11cx4-library/evt_lib/src/can.c ****        case 0x4: return BIT1_CAN_ERROR;
  95:../../lib/lpc11cx4-library/evt_lib/src/can.c ****        case 0x5: return BIT0_CAN_ERROR;
  96:../../lib/lpc11cx4-library/evt_lib/src/can.c ****        case 0x6: return CRC_CAN_ERROR;
  97:../../lib/lpc11cx4-library/evt_lib/src/can.c ****        case 0x7: return UNUSED_CAN_ERROR;
  98:../../lib/lpc11cx4-library/evt_lib/src/can.c ****     }
  99:../../lib/lpc11cx4-library/evt_lib/src/can.c ****     if (can_error == 0x400) return UNRECOGNIZED_MSGOBJ_CAN_ERROR;
 100:../../lib/lpc11cx4-library/evt_lib/src/can.c ****     if (can_error == 0x800) return RX_BUFFER_FULL_CAN_ERROR;
 101:../../lib/lpc11cx4-library/evt_lib/src/can.c ****     return UNRECOGNIZED_ERROR_CODE;
 102:../../lib/lpc11cx4-library/evt_lib/src/can.c **** }
 103:../../lib/lpc11cx4-library/evt_lib/src/can.c **** 
 104:../../lib/lpc11cx4-library/evt_lib/src/can.c **** /*************************************************
 105:../../lib/lpc11cx4-library/evt_lib/src/can.c ****  *                  CALLBACKS
 106:../../lib/lpc11cx4-library/evt_lib/src/can.c ****  * ************************************************/
 107:../../lib/lpc11cx4-library/evt_lib/src/can.c **** 
 108:../../lib/lpc11cx4-library/evt_lib/src/can.c **** /*	CAN receive callback */
 109:../../lib/lpc11cx4-library/evt_lib/src/can.c **** void CAN_rx(uint8_t msg_obj_num) {
 110:../../lib/lpc11cx4-library/evt_lib/src/can.c **** 	/* Determine which CAN message has been received */
 111:../../lib/lpc11cx4-library/evt_lib/src/can.c **** 	msg_obj.msgobj = msg_obj_num;
 112:../../lib/lpc11cx4-library/evt_lib/src/can.c **** 	/* Now load up the msg_obj structure with the CAN message */
 113:../../lib/lpc11cx4-library/evt_lib/src/can.c **** 	LPC_CCAN_API->can_receive(&msg_obj);
 114:../../lib/lpc11cx4-library/evt_lib/src/can.c **** 	if (!RingBuffer_Insert(&rx_buffer, &msg_obj)) {
 115:../../lib/lpc11cx4-library/evt_lib/src/can.c **** 		can_error_flag = true;
 116:../../lib/lpc11cx4-library/evt_lib/src/can.c **** 		can_error_info = 0x800;
 117:../../lib/lpc11cx4-library/evt_lib/src/can.c **** 	}
 118:../../lib/lpc11cx4-library/evt_lib/src/can.c **** }
 119:../../lib/lpc11cx4-library/evt_lib/src/can.c **** 
 120:../../lib/lpc11cx4-library/evt_lib/src/can.c **** /*	CAN transmit callback */
 121:../../lib/lpc11cx4-library/evt_lib/src/can.c **** void CAN_tx(uint8_t msg_obj_num) {
 122:../../lib/lpc11cx4-library/evt_lib/src/can.c **** 	if (msg_obj_num <= NUM_MSG_OBJS) {
 123:../../lib/lpc11cx4-library/evt_lib/src/can.c **** 		msg_obj_stat[msg_obj_num] = false;
 124:../../lib/lpc11cx4-library/evt_lib/src/can.c **** 
 125:../../lib/lpc11cx4-library/evt_lib/src/can.c **** 		if (RingBuffer_Pop(&tx_buffer, &tmp_msg_obj_2)){
 126:../../lib/lpc11cx4-library/evt_lib/src/can.c **** 			tmp_msg_obj_2.msgobj = msg_obj_num;
 127:../../lib/lpc11cx4-library/evt_lib/src/can.c **** 			LPC_CCAN_API->can_transmit(&tmp_msg_obj_2);
 128:../../lib/lpc11cx4-library/evt_lib/src/can.c **** 			msg_obj_stat[msg_obj_num] = true;
 129:../../lib/lpc11cx4-library/evt_lib/src/can.c **** 		}
 130:../../lib/lpc11cx4-library/evt_lib/src/can.c **** 	} else {
 131:../../lib/lpc11cx4-library/evt_lib/src/can.c **** 		can_error_flag = true;
 132:../../lib/lpc11cx4-library/evt_lib/src/can.c **** 		can_error_info = 0x400;
 133:../../lib/lpc11cx4-library/evt_lib/src/can.c **** 	}
 134:../../lib/lpc11cx4-library/evt_lib/src/can.c **** }
 135:../../lib/lpc11cx4-library/evt_lib/src/can.c **** 
 136:../../lib/lpc11cx4-library/evt_lib/src/can.c **** /*	CAN error callback */
 137:../../lib/lpc11cx4-library/evt_lib/src/can.c **** void CAN_error(uint32_t error_info) {
  87              		.loc 1 137 0
  88              		.cfi_startproc
  89              		@ args = 0, pretend = 0, frame = 0
  90              		@ frame_needed = 0, uses_anonymous_args = 0
  91              		@ link register save eliminated.
ARM GAS  /var/folders/z0/6xlwn_996xz3mwq1cgzkbq4r0000gp/T//ccjakVr1.s 			page 5


  92              	.LVL0:
 138:../../lib/lpc11cx4-library/evt_lib/src/can.c **** 	can_error_info = error_info;
 139:../../lib/lpc11cx4-library/evt_lib/src/can.c **** 	can_error_flag = true;
  93              		.loc 1 139 0
  94 0000 0122     		movs	r2, #1	@ tmp113,
 138:../../lib/lpc11cx4-library/evt_lib/src/can.c **** 	can_error_info = error_info;
  95              		.loc 1 138 0
  96 0002 024B     		ldr	r3, .L2	@ tmp111,
 140:../../lib/lpc11cx4-library/evt_lib/src/can.c **** }
  97              		.loc 1 140 0
  98              		@ sp needed	@
 138:../../lib/lpc11cx4-library/evt_lib/src/can.c **** 	can_error_info = error_info;
  99              		.loc 1 138 0
 100 0004 1860     		str	r0, [r3]	@ error_info, can_error_info
 139:../../lib/lpc11cx4-library/evt_lib/src/can.c **** }
 101              		.loc 1 139 0
 102 0006 024B     		ldr	r3, .L2+4	@ tmp112,
 103 0008 1A70     		strb	r2, [r3]	@ tmp113, can_error_flag
 104              		.loc 1 140 0
 105 000a 7047     		bx	lr
 106              	.L3:
 107              		.align	2
 108              	.L2:
 109 000c 00000000 		.word	.LANCHOR0
 110 0010 00000000 		.word	.LANCHOR1
 111              		.cfi_endproc
 112              	.LFE206:
 113              		.size	CAN_error, .-CAN_error
 114              		.section	.text.CAN_rx,"ax",%progbits
 115              		.align	2
 116              		.global	CAN_rx
 117              		.code	16
 118              		.thumb_func
 119              		.type	CAN_rx, %function
 120              	CAN_rx:
 121              	.LFB204:
 109:../../lib/lpc11cx4-library/evt_lib/src/can.c **** 	/* Determine which CAN message has been received */
 122              		.loc 1 109 0
 123              		.cfi_startproc
 124              		@ args = 0, pretend = 0, frame = 0
 125              		@ frame_needed = 0, uses_anonymous_args = 0
 126              	.LVL1:
 127 0000 10B5     		push	{r4, lr}	@
 128              		.cfi_def_cfa_offset 8
 129              		.cfi_offset 4, -8
 130              		.cfi_offset 14, -4
 111:../../lib/lpc11cx4-library/evt_lib/src/can.c **** 	/* Now load up the msg_obj structure with the CAN message */
 131              		.loc 1 111 0
 132 0002 0B4C     		ldr	r4, .L7	@ tmp116,
 113:../../lib/lpc11cx4-library/evt_lib/src/can.c **** 	if (!RingBuffer_Insert(&rx_buffer, &msg_obj)) {
 133              		.loc 1 113 0
 134 0004 0B4B     		ldr	r3, .L7+4	@ tmp119,
 111:../../lib/lpc11cx4-library/evt_lib/src/can.c **** 	/* Now load up the msg_obj structure with the CAN message */
 135              		.loc 1 111 0
 136 0006 6074     		strb	r0, [r4, #17]	@ msg_obj_num, msg_obj.msgobj
 113:../../lib/lpc11cx4-library/evt_lib/src/can.c **** 	if (!RingBuffer_Insert(&rx_buffer, &msg_obj)) {
 137              		.loc 1 113 0
ARM GAS  /var/folders/z0/6xlwn_996xz3mwq1cgzkbq4r0000gp/T//ccjakVr1.s 			page 6


 138 0008 1B68     		ldr	r3, [r3]	@ MEM[(struct LPC_ROM_API_T * *)536813560B], MEM[(struct LPC_ROM_API_T * *)536813560B
 139 000a 2000     		movs	r0, r4	@, tmp116
 140              	.LVL2:
 141 000c 9B68     		ldr	r3, [r3, #8]	@ _5->candApiBase, _5->candApiBase
 142 000e DB68     		ldr	r3, [r3, #12]	@ _7->can_receive, _7->can_receive
 143 0010 9847     		blx	r3	@ _7->can_receive
 144              	.LVL3:
 114:../../lib/lpc11cx4-library/evt_lib/src/can.c **** 		can_error_flag = true;
 145              		.loc 1 114 0
 146 0012 2100     		movs	r1, r4	@, tmp116
 147 0014 0848     		ldr	r0, .L7+8	@,
 148 0016 FFF7FEFF 		bl	RingBuffer_Insert	@
 149              	.LVL4:
 150 001a 0028     		cmp	r0, #0	@ D.6920,
 151 001c 06D1     		bne	.L4	@,
 115:../../lib/lpc11cx4-library/evt_lib/src/can.c **** 		can_error_info = 0x800;
 152              		.loc 1 115 0
 153 001e 0122     		movs	r2, #1	@ tmp126,
 154 0020 064B     		ldr	r3, .L7+12	@ tmp125,
 155 0022 1A70     		strb	r2, [r3]	@ tmp126, can_error_flag
 116:../../lib/lpc11cx4-library/evt_lib/src/can.c **** 	}
 156              		.loc 1 116 0
 157 0024 8022     		movs	r2, #128	@ tmp129,
 158 0026 064B     		ldr	r3, .L7+16	@ tmp128,
 159 0028 1201     		lsls	r2, r2, #4	@ tmp129, tmp129,
 160 002a 1A60     		str	r2, [r3]	@ tmp129, can_error_info
 161              	.L4:
 118:../../lib/lpc11cx4-library/evt_lib/src/can.c **** 
 162              		.loc 1 118 0
 163              		@ sp needed	@
 164 002c 10BD     		pop	{r4, pc}
 165              	.L8:
 166 002e C046     		.align	2
 167              	.L7:
 168 0030 00000000 		.word	msg_obj
 169 0034 F81FFF1F 		.word	536813560
 170 0038 00000000 		.word	.LANCHOR2
 171 003c 00000000 		.word	.LANCHOR1
 172 0040 00000000 		.word	.LANCHOR0
 173              		.cfi_endproc
 174              	.LFE204:
 175              		.size	CAN_rx, .-CAN_rx
 176              		.section	.text.CAN_tx,"ax",%progbits
 177              		.align	2
 178              		.global	CAN_tx
 179              		.code	16
 180              		.thumb_func
 181              		.type	CAN_tx, %function
 182              	CAN_tx:
 183              	.LFB205:
 121:../../lib/lpc11cx4-library/evt_lib/src/can.c **** 	if (msg_obj_num <= NUM_MSG_OBJS) {
 184              		.loc 1 121 0
 185              		.cfi_startproc
 186              		@ args = 0, pretend = 0, frame = 0
 187              		@ frame_needed = 0, uses_anonymous_args = 0
 188              	.LVL5:
 189 0000 70B5     		push	{r4, r5, r6, lr}	@
ARM GAS  /var/folders/z0/6xlwn_996xz3mwq1cgzkbq4r0000gp/T//ccjakVr1.s 			page 7


 190              		.cfi_def_cfa_offset 16
 191              		.cfi_offset 4, -16
 192              		.cfi_offset 5, -12
 193              		.cfi_offset 6, -8
 194              		.cfi_offset 14, -4
 121:../../lib/lpc11cx4-library/evt_lib/src/can.c **** 	if (msg_obj_num <= NUM_MSG_OBJS) {
 195              		.loc 1 121 0
 196 0002 0400     		movs	r4, r0	@ msg_obj_num, msg_obj_num
 122:../../lib/lpc11cx4-library/evt_lib/src/can.c **** 		msg_obj_stat[msg_obj_num] = false;
 197              		.loc 1 122 0
 198 0004 0228     		cmp	r0, #2	@ msg_obj_num,
 199 0006 07D9     		bls	.L15	@,
 131:../../lib/lpc11cx4-library/evt_lib/src/can.c **** 		can_error_info = 0x400;
 200              		.loc 1 131 0
 201 0008 0122     		movs	r2, #1	@ tmp133,
 202 000a 0D4B     		ldr	r3, .L16	@ tmp132,
 203 000c 1A70     		strb	r2, [r3]	@ tmp133, can_error_flag
 132:../../lib/lpc11cx4-library/evt_lib/src/can.c **** 	}
 204              		.loc 1 132 0
 205 000e 8022     		movs	r2, #128	@ tmp136,
 206 0010 0C4B     		ldr	r3, .L16+4	@ tmp135,
 207 0012 D200     		lsls	r2, r2, #3	@ tmp136, tmp136,
 208 0014 1A60     		str	r2, [r3]	@ tmp136, can_error_info
 209              	.LVL6:
 210              	.L9:
 134:../../lib/lpc11cx4-library/evt_lib/src/can.c **** 
 211              		.loc 1 134 0
 212              		@ sp needed	@
 213 0016 70BD     		pop	{r4, r5, r6, pc}
 214              	.LVL7:
 215              	.L15:
 216              	.LBB23:
 217              	.LBB24:
 123:../../lib/lpc11cx4-library/evt_lib/src/can.c **** 
 218              		.loc 1 123 0
 219 0018 0023     		movs	r3, #0	@ tmp118,
 220 001a 0B4E     		ldr	r6, .L16+8	@ tmp117,
 125:../../lib/lpc11cx4-library/evt_lib/src/can.c **** 			tmp_msg_obj_2.msgobj = msg_obj_num;
 221              		.loc 1 125 0
 222 001c 0B4D     		ldr	r5, .L16+12	@ tmp120,
 123:../../lib/lpc11cx4-library/evt_lib/src/can.c **** 
 223              		.loc 1 123 0
 224 001e 3354     		strb	r3, [r6, r0]	@ tmp118, msg_obj_stat
 125:../../lib/lpc11cx4-library/evt_lib/src/can.c **** 			tmp_msg_obj_2.msgobj = msg_obj_num;
 225              		.loc 1 125 0
 226 0020 2900     		movs	r1, r5	@, tmp120
 227 0022 0B48     		ldr	r0, .L16+16	@,
 228              	.LVL8:
 229 0024 FFF7FEFF 		bl	RingBuffer_Pop	@
 230              	.LVL9:
 231 0028 0028     		cmp	r0, #0	@ D.6927,
 232 002a F4D0     		beq	.L9	@,
 127:../../lib/lpc11cx4-library/evt_lib/src/can.c **** 			msg_obj_stat[msg_obj_num] = true;
 233              		.loc 1 127 0
 234 002c 094B     		ldr	r3, .L16+20	@ tmp125,
 126:../../lib/lpc11cx4-library/evt_lib/src/can.c **** 			LPC_CCAN_API->can_transmit(&tmp_msg_obj_2);
 235              		.loc 1 126 0
ARM GAS  /var/folders/z0/6xlwn_996xz3mwq1cgzkbq4r0000gp/T//ccjakVr1.s 			page 8


 236 002e 6C74     		strb	r4, [r5, #17]	@ msg_obj_num, tmp_msg_obj_2.msgobj
 127:../../lib/lpc11cx4-library/evt_lib/src/can.c **** 			msg_obj_stat[msg_obj_num] = true;
 237              		.loc 1 127 0
 238 0030 1B68     		ldr	r3, [r3]	@ MEM[(struct LPC_ROM_API_T * *)536813560B], MEM[(struct LPC_ROM_API_T * *)536813560B
 239 0032 2800     		movs	r0, r5	@, tmp120
 240 0034 9B68     		ldr	r3, [r3, #8]	@ _9->candApiBase, _9->candApiBase
 241 0036 1B69     		ldr	r3, [r3, #16]	@ _11->can_transmit, _11->can_transmit
 242 0038 9847     		blx	r3	@ _11->can_transmit
 243              	.LVL10:
 128:../../lib/lpc11cx4-library/evt_lib/src/can.c **** 		}
 244              		.loc 1 128 0
 245 003a 0123     		movs	r3, #1	@ tmp130,
 246 003c 3355     		strb	r3, [r6, r4]	@ tmp130, msg_obj_stat
 247 003e EAE7     		b	.L9	@
 248              	.L17:
 249              		.align	2
 250              	.L16:
 251 0040 00000000 		.word	.LANCHOR1
 252 0044 00000000 		.word	.LANCHOR0
 253 0048 00000000 		.word	.LANCHOR3
 254 004c 00000000 		.word	tmp_msg_obj_2
 255 0050 00000000 		.word	.LANCHOR4
 256 0054 F81FFF1F 		.word	536813560
 257              	.LBE24:
 258              	.LBE23:
 259              		.cfi_endproc
 260              	.LFE205:
 261              		.size	CAN_tx, .-CAN_tx
 262              		.global	__aeabi_uidiv
 263              		.section	.text.Baudrate_Calculate,"ax",%progbits
 264              		.align	2
 265              		.global	Baudrate_Calculate
 266              		.code	16
 267              		.thumb_func
 268              		.type	Baudrate_Calculate, %function
 269              	Baudrate_Calculate:
 270              	.LFB198:
  38:../../lib/lpc11cx4-library/evt_lib/src/can.c **** 	uint32_t pClk, div, quanta, segs, seg1, seg2, clk_per_bit, can_sjw;
 271              		.loc 1 38 0
 272              		.cfi_startproc
 273              		@ args = 0, pretend = 0, frame = 0
 274              		@ frame_needed = 0, uses_anonymous_args = 0
 275              	.LVL11:
 276              	.LBB25:
 277              	.LBB26:
 278              		.file 2 "../../lib/lpc11cx4-library/lpc_chip_11cxx_lib/inc/clock_11xx.h"
   1:../../lib/lpc11cx4-library/lpc_chip_11cxx_lib/inc/clock_11xx.h **** /*
   2:../../lib/lpc11cx4-library/lpc_chip_11cxx_lib/inc/clock_11xx.h ****  * @brief LPC11XX Clock control functions
   3:../../lib/lpc11cx4-library/lpc_chip_11cxx_lib/inc/clock_11xx.h ****  *
   4:../../lib/lpc11cx4-library/lpc_chip_11cxx_lib/inc/clock_11xx.h ****  * @note
   5:../../lib/lpc11cx4-library/lpc_chip_11cxx_lib/inc/clock_11xx.h ****  * Copyright(C) NXP Semiconductors, 2012
   6:../../lib/lpc11cx4-library/lpc_chip_11cxx_lib/inc/clock_11xx.h ****  * All rights reserved.
   7:../../lib/lpc11cx4-library/lpc_chip_11cxx_lib/inc/clock_11xx.h ****  *
   8:../../lib/lpc11cx4-library/lpc_chip_11cxx_lib/inc/clock_11xx.h ****  * @par
   9:../../lib/lpc11cx4-library/lpc_chip_11cxx_lib/inc/clock_11xx.h ****  * Software that is described herein is for illustrative purposes only
  10:../../lib/lpc11cx4-library/lpc_chip_11cxx_lib/inc/clock_11xx.h ****  * which provides customers with programming information regarding the
  11:../../lib/lpc11cx4-library/lpc_chip_11cxx_lib/inc/clock_11xx.h ****  * LPC products.  This software is supplied "AS IS" without any warranties of
ARM GAS  /var/folders/z0/6xlwn_996xz3mwq1cgzkbq4r0000gp/T//ccjakVr1.s 			page 9


  12:../../lib/lpc11cx4-library/lpc_chip_11cxx_lib/inc/clock_11xx.h ****  * any kind, and NXP Semiconductors and its licensor disclaim any and
  13:../../lib/lpc11cx4-library/lpc_chip_11cxx_lib/inc/clock_11xx.h ****  * all warranties, express or implied, including all implied warranties of
  14:../../lib/lpc11cx4-library/lpc_chip_11cxx_lib/inc/clock_11xx.h ****  * merchantability, fitness for a particular purpose and non-infringement of
  15:../../lib/lpc11cx4-library/lpc_chip_11cxx_lib/inc/clock_11xx.h ****  * intellectual property rights.  NXP Semiconductors assumes no responsibility
  16:../../lib/lpc11cx4-library/lpc_chip_11cxx_lib/inc/clock_11xx.h ****  * or liability for the use of the software, conveys no license or rights under any
  17:../../lib/lpc11cx4-library/lpc_chip_11cxx_lib/inc/clock_11xx.h ****  * patent, copyright, mask work right, or any other intellectual property rights in
  18:../../lib/lpc11cx4-library/lpc_chip_11cxx_lib/inc/clock_11xx.h ****  * or to any products. NXP Semiconductors reserves the right to make changes
  19:../../lib/lpc11cx4-library/lpc_chip_11cxx_lib/inc/clock_11xx.h ****  * in the software without notification. NXP Semiconductors also makes no
  20:../../lib/lpc11cx4-library/lpc_chip_11cxx_lib/inc/clock_11xx.h ****  * representation or warranty that such application will be suitable for the
  21:../../lib/lpc11cx4-library/lpc_chip_11cxx_lib/inc/clock_11xx.h ****  * specified use without further testing or modification.
  22:../../lib/lpc11cx4-library/lpc_chip_11cxx_lib/inc/clock_11xx.h ****  *
  23:../../lib/lpc11cx4-library/lpc_chip_11cxx_lib/inc/clock_11xx.h ****  * @par
  24:../../lib/lpc11cx4-library/lpc_chip_11cxx_lib/inc/clock_11xx.h ****  * Permission to use, copy, modify, and distribute this software and its
  25:../../lib/lpc11cx4-library/lpc_chip_11cxx_lib/inc/clock_11xx.h ****  * documentation is hereby granted, under NXP Semiconductors' and its
  26:../../lib/lpc11cx4-library/lpc_chip_11cxx_lib/inc/clock_11xx.h ****  * licensor's relevant copyrights in the software, without fee, provided that it
  27:../../lib/lpc11cx4-library/lpc_chip_11cxx_lib/inc/clock_11xx.h ****  * is used in conjunction with NXP Semiconductors microcontrollers.  This
  28:../../lib/lpc11cx4-library/lpc_chip_11cxx_lib/inc/clock_11xx.h ****  * copyright, permission, and disclaimer notice must appear in all copies of
  29:../../lib/lpc11cx4-library/lpc_chip_11cxx_lib/inc/clock_11xx.h ****  * this code.
  30:../../lib/lpc11cx4-library/lpc_chip_11cxx_lib/inc/clock_11xx.h ****  */
  31:../../lib/lpc11cx4-library/lpc_chip_11cxx_lib/inc/clock_11xx.h **** 
  32:../../lib/lpc11cx4-library/lpc_chip_11cxx_lib/inc/clock_11xx.h **** #ifndef __CLOCK_11XX_H_
  33:../../lib/lpc11cx4-library/lpc_chip_11cxx_lib/inc/clock_11xx.h **** #define __CLOCK_11XX_H_
  34:../../lib/lpc11cx4-library/lpc_chip_11cxx_lib/inc/clock_11xx.h **** 
  35:../../lib/lpc11cx4-library/lpc_chip_11cxx_lib/inc/clock_11xx.h **** #ifdef __cplusplus
  36:../../lib/lpc11cx4-library/lpc_chip_11cxx_lib/inc/clock_11xx.h **** extern "C" {
  37:../../lib/lpc11cx4-library/lpc_chip_11cxx_lib/inc/clock_11xx.h **** #endif
  38:../../lib/lpc11cx4-library/lpc_chip_11cxx_lib/inc/clock_11xx.h **** 
  39:../../lib/lpc11cx4-library/lpc_chip_11cxx_lib/inc/clock_11xx.h **** /** @defgroup CLOCK_11XX CHIP: LPC11xx Clock Control block driver
  40:../../lib/lpc11cx4-library/lpc_chip_11cxx_lib/inc/clock_11xx.h ****  * @ingroup CHIP_11XX_Drivers
  41:../../lib/lpc11cx4-library/lpc_chip_11cxx_lib/inc/clock_11xx.h ****  * @{
  42:../../lib/lpc11cx4-library/lpc_chip_11cxx_lib/inc/clock_11xx.h ****  */
  43:../../lib/lpc11cx4-library/lpc_chip_11cxx_lib/inc/clock_11xx.h **** 
  44:../../lib/lpc11cx4-library/lpc_chip_11cxx_lib/inc/clock_11xx.h **** /** Internal oscillator frequency */
  45:../../lib/lpc11cx4-library/lpc_chip_11cxx_lib/inc/clock_11xx.h **** #define SYSCTL_IRC_FREQ (12000000)
  46:../../lib/lpc11cx4-library/lpc_chip_11cxx_lib/inc/clock_11xx.h **** 
  47:../../lib/lpc11cx4-library/lpc_chip_11cxx_lib/inc/clock_11xx.h **** /**
  48:../../lib/lpc11cx4-library/lpc_chip_11cxx_lib/inc/clock_11xx.h ****  * @brief	Set System PLL divider values
  49:../../lib/lpc11cx4-library/lpc_chip_11cxx_lib/inc/clock_11xx.h ****  * @param	msel    : PLL feedback divider value. M = msel + 1.
  50:../../lib/lpc11cx4-library/lpc_chip_11cxx_lib/inc/clock_11xx.h ****  * @param	psel    : PLL post divider value. P =  (1<<psel).
  51:../../lib/lpc11cx4-library/lpc_chip_11cxx_lib/inc/clock_11xx.h ****  * @return	Nothing
  52:../../lib/lpc11cx4-library/lpc_chip_11cxx_lib/inc/clock_11xx.h ****  * @note	See the user manual for how to setup the PLL.
  53:../../lib/lpc11cx4-library/lpc_chip_11cxx_lib/inc/clock_11xx.h ****  */
  54:../../lib/lpc11cx4-library/lpc_chip_11cxx_lib/inc/clock_11xx.h **** STATIC INLINE void Chip_Clock_SetupSystemPLL(uint8_t msel, uint8_t psel)
  55:../../lib/lpc11cx4-library/lpc_chip_11cxx_lib/inc/clock_11xx.h **** {
  56:../../lib/lpc11cx4-library/lpc_chip_11cxx_lib/inc/clock_11xx.h **** 	LPC_SYSCTL->SYSPLLCTRL = (msel & 0x1F) | ((psel & 0x3) << 5);
  57:../../lib/lpc11cx4-library/lpc_chip_11cxx_lib/inc/clock_11xx.h **** }
  58:../../lib/lpc11cx4-library/lpc_chip_11cxx_lib/inc/clock_11xx.h **** 
  59:../../lib/lpc11cx4-library/lpc_chip_11cxx_lib/inc/clock_11xx.h **** /**
  60:../../lib/lpc11cx4-library/lpc_chip_11cxx_lib/inc/clock_11xx.h ****  * @brief	Read System PLL lock status
  61:../../lib/lpc11cx4-library/lpc_chip_11cxx_lib/inc/clock_11xx.h ****  * @return	true of the PLL is locked. false if not locked
  62:../../lib/lpc11cx4-library/lpc_chip_11cxx_lib/inc/clock_11xx.h ****  */
  63:../../lib/lpc11cx4-library/lpc_chip_11cxx_lib/inc/clock_11xx.h **** STATIC INLINE bool Chip_Clock_IsSystemPLLLocked(void)
  64:../../lib/lpc11cx4-library/lpc_chip_11cxx_lib/inc/clock_11xx.h **** {
  65:../../lib/lpc11cx4-library/lpc_chip_11cxx_lib/inc/clock_11xx.h **** 	return (bool) ((LPC_SYSCTL->SYSPLLSTAT & 1) != 0);
  66:../../lib/lpc11cx4-library/lpc_chip_11cxx_lib/inc/clock_11xx.h **** }
  67:../../lib/lpc11cx4-library/lpc_chip_11cxx_lib/inc/clock_11xx.h **** 
  68:../../lib/lpc11cx4-library/lpc_chip_11cxx_lib/inc/clock_11xx.h **** /**
ARM GAS  /var/folders/z0/6xlwn_996xz3mwq1cgzkbq4r0000gp/T//ccjakVr1.s 			page 10


  69:../../lib/lpc11cx4-library/lpc_chip_11cxx_lib/inc/clock_11xx.h ****  * Clock sources for system and USB PLLs
  70:../../lib/lpc11cx4-library/lpc_chip_11cxx_lib/inc/clock_11xx.h ****  */
  71:../../lib/lpc11cx4-library/lpc_chip_11cxx_lib/inc/clock_11xx.h **** typedef enum CHIP_SYSCTL_PLLCLKSRC {
  72:../../lib/lpc11cx4-library/lpc_chip_11cxx_lib/inc/clock_11xx.h **** 	SYSCTL_PLLCLKSRC_IRC = 0,		/*!< Internal oscillator in */
  73:../../lib/lpc11cx4-library/lpc_chip_11cxx_lib/inc/clock_11xx.h **** 	SYSCTL_PLLCLKSRC_MAINOSC,		/*!< Crystal (main) oscillator in */
  74:../../lib/lpc11cx4-library/lpc_chip_11cxx_lib/inc/clock_11xx.h **** #if defined(CHIP_LPC11AXX)
  75:../../lib/lpc11cx4-library/lpc_chip_11cxx_lib/inc/clock_11xx.h **** 	SYSCTL_PLLCLKSRC_EXT_CLKIN,	/*!< External clock in (11Axx only) */
  76:../../lib/lpc11cx4-library/lpc_chip_11cxx_lib/inc/clock_11xx.h **** #else
  77:../../lib/lpc11cx4-library/lpc_chip_11cxx_lib/inc/clock_11xx.h **** 	SYSCTL_PLLCLKSRC_RESERVED1,	/*!< Reserved */
  78:../../lib/lpc11cx4-library/lpc_chip_11cxx_lib/inc/clock_11xx.h **** #endif
  79:../../lib/lpc11cx4-library/lpc_chip_11cxx_lib/inc/clock_11xx.h **** 	SYSCTL_PLLCLKSRC_RESERVED2,	/*!< Reserved */
  80:../../lib/lpc11cx4-library/lpc_chip_11cxx_lib/inc/clock_11xx.h **** } CHIP_SYSCTL_PLLCLKSRC_T;
  81:../../lib/lpc11cx4-library/lpc_chip_11cxx_lib/inc/clock_11xx.h **** 
  82:../../lib/lpc11cx4-library/lpc_chip_11cxx_lib/inc/clock_11xx.h **** /**
  83:../../lib/lpc11cx4-library/lpc_chip_11cxx_lib/inc/clock_11xx.h ****  * @brief	Set System PLL clock source
  84:../../lib/lpc11cx4-library/lpc_chip_11cxx_lib/inc/clock_11xx.h ****  * @param	src	: Clock source for system PLL
  85:../../lib/lpc11cx4-library/lpc_chip_11cxx_lib/inc/clock_11xx.h ****  * @return	Nothing
  86:../../lib/lpc11cx4-library/lpc_chip_11cxx_lib/inc/clock_11xx.h ****  * @note	This function will also toggle the clock source update register
  87:../../lib/lpc11cx4-library/lpc_chip_11cxx_lib/inc/clock_11xx.h ****  * to update the clock source.
  88:../../lib/lpc11cx4-library/lpc_chip_11cxx_lib/inc/clock_11xx.h ****  */
  89:../../lib/lpc11cx4-library/lpc_chip_11cxx_lib/inc/clock_11xx.h **** void Chip_Clock_SetSystemPLLSource(CHIP_SYSCTL_PLLCLKSRC_T src);
  90:../../lib/lpc11cx4-library/lpc_chip_11cxx_lib/inc/clock_11xx.h **** 
  91:../../lib/lpc11cx4-library/lpc_chip_11cxx_lib/inc/clock_11xx.h **** #if defined(CHIP_LPC11UXX)
  92:../../lib/lpc11cx4-library/lpc_chip_11cxx_lib/inc/clock_11xx.h **** /**
  93:../../lib/lpc11cx4-library/lpc_chip_11cxx_lib/inc/clock_11xx.h ****  * @brief	Set USB PLL divider values
  94:../../lib/lpc11cx4-library/lpc_chip_11cxx_lib/inc/clock_11xx.h ****  * @param	msel    : PLL feedback divider value. M = msel + 1.
  95:../../lib/lpc11cx4-library/lpc_chip_11cxx_lib/inc/clock_11xx.h ****  * @param	psel    : PLL post divider value. P = (1<<psel).
  96:../../lib/lpc11cx4-library/lpc_chip_11cxx_lib/inc/clock_11xx.h ****  * @return	Nothing
  97:../../lib/lpc11cx4-library/lpc_chip_11cxx_lib/inc/clock_11xx.h ****  * @note	See the user manual for how to setup the PLL.
  98:../../lib/lpc11cx4-library/lpc_chip_11cxx_lib/inc/clock_11xx.h ****  */
  99:../../lib/lpc11cx4-library/lpc_chip_11cxx_lib/inc/clock_11xx.h **** STATIC INLINE void Chip_Clock_SetupUSBPLL(uint8_t msel, uint8_t psel)
 100:../../lib/lpc11cx4-library/lpc_chip_11cxx_lib/inc/clock_11xx.h **** {
 101:../../lib/lpc11cx4-library/lpc_chip_11cxx_lib/inc/clock_11xx.h **** 	LPC_SYSCTL->USBPLLCTRL = (msel & 0x1F) | ((psel & 0x3) << 5);
 102:../../lib/lpc11cx4-library/lpc_chip_11cxx_lib/inc/clock_11xx.h **** }
 103:../../lib/lpc11cx4-library/lpc_chip_11cxx_lib/inc/clock_11xx.h **** 
 104:../../lib/lpc11cx4-library/lpc_chip_11cxx_lib/inc/clock_11xx.h **** /**
 105:../../lib/lpc11cx4-library/lpc_chip_11cxx_lib/inc/clock_11xx.h ****  * @brief	Read USB PLL lock status
 106:../../lib/lpc11cx4-library/lpc_chip_11cxx_lib/inc/clock_11xx.h ****  * @return	true of the PLL is locked. false if not locked
 107:../../lib/lpc11cx4-library/lpc_chip_11cxx_lib/inc/clock_11xx.h ****  */
 108:../../lib/lpc11cx4-library/lpc_chip_11cxx_lib/inc/clock_11xx.h **** STATIC INLINE bool Chip_Clock_IsUSBPLLLocked(void)
 109:../../lib/lpc11cx4-library/lpc_chip_11cxx_lib/inc/clock_11xx.h **** {
 110:../../lib/lpc11cx4-library/lpc_chip_11cxx_lib/inc/clock_11xx.h **** 	return (bool) ((LPC_SYSCTL->USBPLLSTAT & 1) != 0);
 111:../../lib/lpc11cx4-library/lpc_chip_11cxx_lib/inc/clock_11xx.h **** }
 112:../../lib/lpc11cx4-library/lpc_chip_11cxx_lib/inc/clock_11xx.h **** 
 113:../../lib/lpc11cx4-library/lpc_chip_11cxx_lib/inc/clock_11xx.h **** /**
 114:../../lib/lpc11cx4-library/lpc_chip_11cxx_lib/inc/clock_11xx.h ****  * @brief	Set USB PLL clock source
 115:../../lib/lpc11cx4-library/lpc_chip_11cxx_lib/inc/clock_11xx.h ****  * @param	src	: Clock source for USB PLL
 116:../../lib/lpc11cx4-library/lpc_chip_11cxx_lib/inc/clock_11xx.h ****  * @return	Nothing
 117:../../lib/lpc11cx4-library/lpc_chip_11cxx_lib/inc/clock_11xx.h ****  * @note	This function will also toggle the clock source update register
 118:../../lib/lpc11cx4-library/lpc_chip_11cxx_lib/inc/clock_11xx.h ****  * to update the clock source.
 119:../../lib/lpc11cx4-library/lpc_chip_11cxx_lib/inc/clock_11xx.h ****  */
 120:../../lib/lpc11cx4-library/lpc_chip_11cxx_lib/inc/clock_11xx.h **** void Chip_Clock_SetUSBPLLSource(CHIP_SYSCTL_PLLCLKSRC_T src);
 121:../../lib/lpc11cx4-library/lpc_chip_11cxx_lib/inc/clock_11xx.h **** 
 122:../../lib/lpc11cx4-library/lpc_chip_11cxx_lib/inc/clock_11xx.h **** #endif /*defined(CHIP_LPC11UXX)*/
 123:../../lib/lpc11cx4-library/lpc_chip_11cxx_lib/inc/clock_11xx.h **** 
 124:../../lib/lpc11cx4-library/lpc_chip_11cxx_lib/inc/clock_11xx.h **** /**
 125:../../lib/lpc11cx4-library/lpc_chip_11cxx_lib/inc/clock_11xx.h ****  * @brief	Bypass System Oscillator and set oscillator frequency range
ARM GAS  /var/folders/z0/6xlwn_996xz3mwq1cgzkbq4r0000gp/T//ccjakVr1.s 			page 11


 126:../../lib/lpc11cx4-library/lpc_chip_11cxx_lib/inc/clock_11xx.h ****  * @param	bypass	: Flag to bypass oscillator
 127:../../lib/lpc11cx4-library/lpc_chip_11cxx_lib/inc/clock_11xx.h ****  * @param	highfr	: Flag to set oscillator range from 15-25 MHz
 128:../../lib/lpc11cx4-library/lpc_chip_11cxx_lib/inc/clock_11xx.h ****  * @return	Nothing
 129:../../lib/lpc11cx4-library/lpc_chip_11cxx_lib/inc/clock_11xx.h ****  * @note	Sets the PLL input to bypass the oscillator. This would be
 130:../../lib/lpc11cx4-library/lpc_chip_11cxx_lib/inc/clock_11xx.h ****  * used if an external clock that is not an oscillator is attached
 131:../../lib/lpc11cx4-library/lpc_chip_11cxx_lib/inc/clock_11xx.h ****  * to the XTALIN pin.
 132:../../lib/lpc11cx4-library/lpc_chip_11cxx_lib/inc/clock_11xx.h ****  */
 133:../../lib/lpc11cx4-library/lpc_chip_11cxx_lib/inc/clock_11xx.h **** void Chip_Clock_SetPLLBypass(bool bypass, bool highfr);
 134:../../lib/lpc11cx4-library/lpc_chip_11cxx_lib/inc/clock_11xx.h **** 
 135:../../lib/lpc11cx4-library/lpc_chip_11cxx_lib/inc/clock_11xx.h **** /**
 136:../../lib/lpc11cx4-library/lpc_chip_11cxx_lib/inc/clock_11xx.h ****  * Watchdog and low frequency oscillator frequencies plus or minus 40%
 137:../../lib/lpc11cx4-library/lpc_chip_11cxx_lib/inc/clock_11xx.h ****  */
 138:../../lib/lpc11cx4-library/lpc_chip_11cxx_lib/inc/clock_11xx.h **** typedef enum CHIP_WDTLFO_OSC {
 139:../../lib/lpc11cx4-library/lpc_chip_11cxx_lib/inc/clock_11xx.h **** 	WDTLFO_OSC_ILLEGAL,
 140:../../lib/lpc11cx4-library/lpc_chip_11cxx_lib/inc/clock_11xx.h **** 	WDTLFO_OSC_0_60,	/*!< 0.6 MHz watchdog/LFO rate */
 141:../../lib/lpc11cx4-library/lpc_chip_11cxx_lib/inc/clock_11xx.h **** 	WDTLFO_OSC_1_05,	/*!< 1.05 MHz watchdog/LFO rate */
 142:../../lib/lpc11cx4-library/lpc_chip_11cxx_lib/inc/clock_11xx.h **** 	WDTLFO_OSC_1_40,	/*!< 1.4 MHz watchdog/LFO rate */
 143:../../lib/lpc11cx4-library/lpc_chip_11cxx_lib/inc/clock_11xx.h **** 	WDTLFO_OSC_1_75,	/*!< 1.75 MHz watchdog/LFO rate */
 144:../../lib/lpc11cx4-library/lpc_chip_11cxx_lib/inc/clock_11xx.h **** 	WDTLFO_OSC_2_10,	/*!< 2.1 MHz watchdog/LFO rate */
 145:../../lib/lpc11cx4-library/lpc_chip_11cxx_lib/inc/clock_11xx.h **** 	WDTLFO_OSC_2_40,	/*!< 2.4 MHz watchdog/LFO rate */
 146:../../lib/lpc11cx4-library/lpc_chip_11cxx_lib/inc/clock_11xx.h **** 	WDTLFO_OSC_2_70,	/*!< 2.7 MHz watchdog/LFO rate */
 147:../../lib/lpc11cx4-library/lpc_chip_11cxx_lib/inc/clock_11xx.h **** 	WDTLFO_OSC_3_00,	/*!< 3.0 MHz watchdog/LFO rate */
 148:../../lib/lpc11cx4-library/lpc_chip_11cxx_lib/inc/clock_11xx.h **** 	WDTLFO_OSC_3_25,	/*!< 3.25 MHz watchdog/LFO rate */
 149:../../lib/lpc11cx4-library/lpc_chip_11cxx_lib/inc/clock_11xx.h **** 	WDTLFO_OSC_3_50,	/*!< 3.5 MHz watchdog/LFO rate */
 150:../../lib/lpc11cx4-library/lpc_chip_11cxx_lib/inc/clock_11xx.h **** 	WDTLFO_OSC_3_75,	/*!< 3.75 MHz watchdog/LFO rate */
 151:../../lib/lpc11cx4-library/lpc_chip_11cxx_lib/inc/clock_11xx.h **** 	WDTLFO_OSC_4_00,	/*!< 4.0 MHz watchdog/LFO rate */
 152:../../lib/lpc11cx4-library/lpc_chip_11cxx_lib/inc/clock_11xx.h **** 	WDTLFO_OSC_4_20,	/*!< 4.2 MHz watchdog/LFO rate */
 153:../../lib/lpc11cx4-library/lpc_chip_11cxx_lib/inc/clock_11xx.h **** 	WDTLFO_OSC_4_40,	/*!< 4.4 MHz watchdog/LFO rate */
 154:../../lib/lpc11cx4-library/lpc_chip_11cxx_lib/inc/clock_11xx.h **** 	WDTLFO_OSC_4_60		/*!< 4.6 MHz watchdog/LFO rate */
 155:../../lib/lpc11cx4-library/lpc_chip_11cxx_lib/inc/clock_11xx.h **** } CHIP_WDTLFO_OSC_T;
 156:../../lib/lpc11cx4-library/lpc_chip_11cxx_lib/inc/clock_11xx.h **** 
 157:../../lib/lpc11cx4-library/lpc_chip_11cxx_lib/inc/clock_11xx.h **** /**
 158:../../lib/lpc11cx4-library/lpc_chip_11cxx_lib/inc/clock_11xx.h ****  * @brief	Setup Watchdog oscillator rate and divider
 159:../../lib/lpc11cx4-library/lpc_chip_11cxx_lib/inc/clock_11xx.h ****  * @param	wdtclk	: Selected watchdog clock rate
 160:../../lib/lpc11cx4-library/lpc_chip_11cxx_lib/inc/clock_11xx.h ****  * @param	div		: Watchdog divider value, even value between 2 and 64
 161:../../lib/lpc11cx4-library/lpc_chip_11cxx_lib/inc/clock_11xx.h ****  * @return	Nothing
 162:../../lib/lpc11cx4-library/lpc_chip_11cxx_lib/inc/clock_11xx.h ****  * @note	Watchdog rate = selected rate divided by divider rate
 163:../../lib/lpc11cx4-library/lpc_chip_11cxx_lib/inc/clock_11xx.h ****  */
 164:../../lib/lpc11cx4-library/lpc_chip_11cxx_lib/inc/clock_11xx.h **** STATIC INLINE void Chip_Clock_SetWDTOSC(CHIP_WDTLFO_OSC_T wdtclk, uint8_t div)
 165:../../lib/lpc11cx4-library/lpc_chip_11cxx_lib/inc/clock_11xx.h **** {
 166:../../lib/lpc11cx4-library/lpc_chip_11cxx_lib/inc/clock_11xx.h **** 	LPC_SYSCTL->WDTOSCCTRL  = (((uint32_t) wdtclk) << 5) | ((div >> 1) - 1);
 167:../../lib/lpc11cx4-library/lpc_chip_11cxx_lib/inc/clock_11xx.h **** }
 168:../../lib/lpc11cx4-library/lpc_chip_11cxx_lib/inc/clock_11xx.h **** 
 169:../../lib/lpc11cx4-library/lpc_chip_11cxx_lib/inc/clock_11xx.h **** #if defined(CHIP_LPC11AXX)
 170:../../lib/lpc11cx4-library/lpc_chip_11cxx_lib/inc/clock_11xx.h **** /**
 171:../../lib/lpc11cx4-library/lpc_chip_11cxx_lib/inc/clock_11xx.h ****  * @brief	Setup low frequency oscillator rate and divider
 172:../../lib/lpc11cx4-library/lpc_chip_11cxx_lib/inc/clock_11xx.h ****  * @param	lfoclk	: Selected low frequency clock rate
 173:../../lib/lpc11cx4-library/lpc_chip_11cxx_lib/inc/clock_11xx.h ****  * @param	div		: Low frequency divider value, even value between 2 and 64
 174:../../lib/lpc11cx4-library/lpc_chip_11cxx_lib/inc/clock_11xx.h ****  * @return	Nothing
 175:../../lib/lpc11cx4-library/lpc_chip_11cxx_lib/inc/clock_11xx.h ****  * @note	Low frequency oscillator rate = selected rate divided by divider rate
 176:../../lib/lpc11cx4-library/lpc_chip_11cxx_lib/inc/clock_11xx.h ****  */
 177:../../lib/lpc11cx4-library/lpc_chip_11cxx_lib/inc/clock_11xx.h **** STATIC INLINE void Chip_Clock_SetLFOSC(CHIP_WDTLFO_OSC_T lfoclk, uint8_t div)
 178:../../lib/lpc11cx4-library/lpc_chip_11cxx_lib/inc/clock_11xx.h **** {
 179:../../lib/lpc11cx4-library/lpc_chip_11cxx_lib/inc/clock_11xx.h **** 	LPC_SYSCTL->LFOSCCTRL  = (((uint32_t) lfoclk) << 5) | ((div >> 1) - 1);
 180:../../lib/lpc11cx4-library/lpc_chip_11cxx_lib/inc/clock_11xx.h **** }
 181:../../lib/lpc11cx4-library/lpc_chip_11cxx_lib/inc/clock_11xx.h **** 
 182:../../lib/lpc11cx4-library/lpc_chip_11cxx_lib/inc/clock_11xx.h **** #endif /*CHIP_LPC11AXX*/
ARM GAS  /var/folders/z0/6xlwn_996xz3mwq1cgzkbq4r0000gp/T//ccjakVr1.s 			page 12


 183:../../lib/lpc11cx4-library/lpc_chip_11cxx_lib/inc/clock_11xx.h **** 
 184:../../lib/lpc11cx4-library/lpc_chip_11cxx_lib/inc/clock_11xx.h **** /**
 185:../../lib/lpc11cx4-library/lpc_chip_11cxx_lib/inc/clock_11xx.h ****  * Clock sources for main system clock
 186:../../lib/lpc11cx4-library/lpc_chip_11cxx_lib/inc/clock_11xx.h ****  */
 187:../../lib/lpc11cx4-library/lpc_chip_11cxx_lib/inc/clock_11xx.h **** typedef enum CHIP_SYSCTL_MAINCLKSRC {
 188:../../lib/lpc11cx4-library/lpc_chip_11cxx_lib/inc/clock_11xx.h **** 	SYSCTL_MAINCLKSRC_IRC = 0,		/*!< Internal oscillator */
 189:../../lib/lpc11cx4-library/lpc_chip_11cxx_lib/inc/clock_11xx.h **** 	SYSCTL_MAINCLKSRC_PLLIN,		/*!< System PLL input */
 190:../../lib/lpc11cx4-library/lpc_chip_11cxx_lib/inc/clock_11xx.h **** 	SYSCTL_MAINCLKSRC_LFOSC,		/*!< LF oscillator rate (11Axx only) */
 191:../../lib/lpc11cx4-library/lpc_chip_11cxx_lib/inc/clock_11xx.h **** 	SYSCTL_MAINCLKSRC_WDTOSC = SYSCTL_MAINCLKSRC_LFOSC,	/*!< Watchdog oscillator rate */
 192:../../lib/lpc11cx4-library/lpc_chip_11cxx_lib/inc/clock_11xx.h **** 	SYSCTL_MAINCLKSRC_PLLOUT,		/*!< System PLL output */
 193:../../lib/lpc11cx4-library/lpc_chip_11cxx_lib/inc/clock_11xx.h **** } CHIP_SYSCTL_MAINCLKSRC_T;
 194:../../lib/lpc11cx4-library/lpc_chip_11cxx_lib/inc/clock_11xx.h **** 
 195:../../lib/lpc11cx4-library/lpc_chip_11cxx_lib/inc/clock_11xx.h **** /**
 196:../../lib/lpc11cx4-library/lpc_chip_11cxx_lib/inc/clock_11xx.h ****  * @brief	Set main system clock source
 197:../../lib/lpc11cx4-library/lpc_chip_11cxx_lib/inc/clock_11xx.h ****  * @param	src	: Clock source for main system
 198:../../lib/lpc11cx4-library/lpc_chip_11cxx_lib/inc/clock_11xx.h ****  * @return	Nothing
 199:../../lib/lpc11cx4-library/lpc_chip_11cxx_lib/inc/clock_11xx.h ****  * @note	This function will also toggle the clock source update register
 200:../../lib/lpc11cx4-library/lpc_chip_11cxx_lib/inc/clock_11xx.h ****  * to update the clock source.
 201:../../lib/lpc11cx4-library/lpc_chip_11cxx_lib/inc/clock_11xx.h ****  */
 202:../../lib/lpc11cx4-library/lpc_chip_11cxx_lib/inc/clock_11xx.h **** void Chip_Clock_SetMainClockSource(CHIP_SYSCTL_MAINCLKSRC_T src);
 203:../../lib/lpc11cx4-library/lpc_chip_11cxx_lib/inc/clock_11xx.h **** 
 204:../../lib/lpc11cx4-library/lpc_chip_11cxx_lib/inc/clock_11xx.h **** /**
 205:../../lib/lpc11cx4-library/lpc_chip_11cxx_lib/inc/clock_11xx.h ****  * @brief   Returns the main clock source
 206:../../lib/lpc11cx4-library/lpc_chip_11cxx_lib/inc/clock_11xx.h ****  * @return	Which clock is used for the core clock source?
 207:../../lib/lpc11cx4-library/lpc_chip_11cxx_lib/inc/clock_11xx.h ****  */
 208:../../lib/lpc11cx4-library/lpc_chip_11cxx_lib/inc/clock_11xx.h **** STATIC INLINE CHIP_SYSCTL_MAINCLKSRC_T Chip_Clock_GetMainClockSource(void)
 209:../../lib/lpc11cx4-library/lpc_chip_11cxx_lib/inc/clock_11xx.h **** {
 210:../../lib/lpc11cx4-library/lpc_chip_11cxx_lib/inc/clock_11xx.h **** 	return (CHIP_SYSCTL_MAINCLKSRC_T) (LPC_SYSCTL->MAINCLKSEL);
 211:../../lib/lpc11cx4-library/lpc_chip_11cxx_lib/inc/clock_11xx.h **** }
 212:../../lib/lpc11cx4-library/lpc_chip_11cxx_lib/inc/clock_11xx.h **** 
 213:../../lib/lpc11cx4-library/lpc_chip_11cxx_lib/inc/clock_11xx.h **** /**
 214:../../lib/lpc11cx4-library/lpc_chip_11cxx_lib/inc/clock_11xx.h ****  * @brief	Set system clock divider
 215:../../lib/lpc11cx4-library/lpc_chip_11cxx_lib/inc/clock_11xx.h ****  * @param	div	: divider for system clock
 216:../../lib/lpc11cx4-library/lpc_chip_11cxx_lib/inc/clock_11xx.h ****  * @return	Nothing
 217:../../lib/lpc11cx4-library/lpc_chip_11cxx_lib/inc/clock_11xx.h ****  * @note	Use 0 to disable, or a divider value of 1 to 255. The system clock
 218:../../lib/lpc11cx4-library/lpc_chip_11cxx_lib/inc/clock_11xx.h ****  * rate is the main system clock divided by this value.
 219:../../lib/lpc11cx4-library/lpc_chip_11cxx_lib/inc/clock_11xx.h ****  */
 220:../../lib/lpc11cx4-library/lpc_chip_11cxx_lib/inc/clock_11xx.h **** STATIC INLINE void Chip_Clock_SetSysClockDiv(uint32_t div)
 221:../../lib/lpc11cx4-library/lpc_chip_11cxx_lib/inc/clock_11xx.h **** {
 222:../../lib/lpc11cx4-library/lpc_chip_11cxx_lib/inc/clock_11xx.h **** 	LPC_SYSCTL->SYSAHBCLKDIV  = div;
 223:../../lib/lpc11cx4-library/lpc_chip_11cxx_lib/inc/clock_11xx.h **** }
 224:../../lib/lpc11cx4-library/lpc_chip_11cxx_lib/inc/clock_11xx.h **** 
 225:../../lib/lpc11cx4-library/lpc_chip_11cxx_lib/inc/clock_11xx.h **** /**
 226:../../lib/lpc11cx4-library/lpc_chip_11cxx_lib/inc/clock_11xx.h ****  * System and peripheral clocks
 227:../../lib/lpc11cx4-library/lpc_chip_11cxx_lib/inc/clock_11xx.h ****  */
 228:../../lib/lpc11cx4-library/lpc_chip_11cxx_lib/inc/clock_11xx.h **** typedef enum CHIP_SYSCTL_CLOCK {
 229:../../lib/lpc11cx4-library/lpc_chip_11cxx_lib/inc/clock_11xx.h **** 	SYSCTL_CLOCK_SYS = 0,				/*!< 0: System clock */
 230:../../lib/lpc11cx4-library/lpc_chip_11cxx_lib/inc/clock_11xx.h **** 	SYSCTL_CLOCK_ROM,					/*!<1:  ROM clock */
 231:../../lib/lpc11cx4-library/lpc_chip_11cxx_lib/inc/clock_11xx.h **** 	SYSCTL_CLOCK_RAM,					/*!< 2: RAM clock */
 232:../../lib/lpc11cx4-library/lpc_chip_11cxx_lib/inc/clock_11xx.h **** 	SYSCTL_CLOCK_FLASHREG,				/*!< 3: FLASH register interface clock */
 233:../../lib/lpc11cx4-library/lpc_chip_11cxx_lib/inc/clock_11xx.h **** 	SYSCTL_CLOCK_FLASHARRAY,			/*!< 4: FLASH array access clock */
 234:../../lib/lpc11cx4-library/lpc_chip_11cxx_lib/inc/clock_11xx.h **** #if defined(CHIP_LPC110X)
 235:../../lib/lpc11cx4-library/lpc_chip_11cxx_lib/inc/clock_11xx.h **** 	SYSCTL_CLOCK_RESERVED5,				/*!< 5: Reserved */
 236:../../lib/lpc11cx4-library/lpc_chip_11cxx_lib/inc/clock_11xx.h **** #else
 237:../../lib/lpc11cx4-library/lpc_chip_11cxx_lib/inc/clock_11xx.h **** 	SYSCTL_CLOCK_I2C,					/*!< 5: I2C clock, not on LPC110x */
 238:../../lib/lpc11cx4-library/lpc_chip_11cxx_lib/inc/clock_11xx.h **** #endif
 239:../../lib/lpc11cx4-library/lpc_chip_11cxx_lib/inc/clock_11xx.h **** 	SYSCTL_CLOCK_GPIO,					/*!< 6: GPIO clock */
ARM GAS  /var/folders/z0/6xlwn_996xz3mwq1cgzkbq4r0000gp/T//ccjakVr1.s 			page 13


 240:../../lib/lpc11cx4-library/lpc_chip_11cxx_lib/inc/clock_11xx.h **** 	SYSCTL_CLOCK_CT16B0,				/*!< 7: 16-bit Counter/timer 0 clock */
 241:../../lib/lpc11cx4-library/lpc_chip_11cxx_lib/inc/clock_11xx.h **** 	SYSCTL_CLOCK_CT16B1,				/*!< 8: 16-bit Counter/timer 1 clock */
 242:../../lib/lpc11cx4-library/lpc_chip_11cxx_lib/inc/clock_11xx.h **** 	SYSCTL_CLOCK_CT32B0,				/*!< 9: 32-bit Counter/timer 0 clock */
 243:../../lib/lpc11cx4-library/lpc_chip_11cxx_lib/inc/clock_11xx.h **** 	SYSCTL_CLOCK_CT32B1,				/*!< 10: 32-bit Counter/timer 1 clock */
 244:../../lib/lpc11cx4-library/lpc_chip_11cxx_lib/inc/clock_11xx.h **** 	SYSCTL_CLOCK_SSP0,					/*!< 11: SSP0 clock */
 245:../../lib/lpc11cx4-library/lpc_chip_11cxx_lib/inc/clock_11xx.h **** 	SYSCTL_CLOCK_UART0,					/*!< 12: UART0 clock */
 246:../../lib/lpc11cx4-library/lpc_chip_11cxx_lib/inc/clock_11xx.h **** 	SYSCTL_CLOCK_ADC,					/*!< 13: ADC clock */
 247:../../lib/lpc11cx4-library/lpc_chip_11cxx_lib/inc/clock_11xx.h **** #if defined(CHIP_LPC11UXX)
 248:../../lib/lpc11cx4-library/lpc_chip_11cxx_lib/inc/clock_11xx.h **** 	SYSCTL_CLOCK_USB,					/*!< 14: USB clock, LPC11Uxx only */
 249:../../lib/lpc11cx4-library/lpc_chip_11cxx_lib/inc/clock_11xx.h **** #else
 250:../../lib/lpc11cx4-library/lpc_chip_11cxx_lib/inc/clock_11xx.h **** 	SYSCTL_CLOCK_RESERVED14,			/*!< 14: Reserved */
 251:../../lib/lpc11cx4-library/lpc_chip_11cxx_lib/inc/clock_11xx.h **** #endif
 252:../../lib/lpc11cx4-library/lpc_chip_11cxx_lib/inc/clock_11xx.h **** 	SYSCTL_CLOCK_WDT,					/*!< 15: Watchdog timer clock */
 253:../../lib/lpc11cx4-library/lpc_chip_11cxx_lib/inc/clock_11xx.h **** 	SYSCTL_CLOCK_IOCON,					/*!< 16: IOCON block clock */
 254:../../lib/lpc11cx4-library/lpc_chip_11cxx_lib/inc/clock_11xx.h **** #if defined(CHIP_LPC11CXX)
 255:../../lib/lpc11cx4-library/lpc_chip_11cxx_lib/inc/clock_11xx.h **** 	SYSCTL_CLOCK_CAN,					/*!< 17: CAN clock, LPC11Cxx only */
 256:../../lib/lpc11cx4-library/lpc_chip_11cxx_lib/inc/clock_11xx.h **** #else
 257:../../lib/lpc11cx4-library/lpc_chip_11cxx_lib/inc/clock_11xx.h **** 	SYSCTL_CLOCK_RESERVED17,			/*!< 17: Reserved */
 258:../../lib/lpc11cx4-library/lpc_chip_11cxx_lib/inc/clock_11xx.h **** #endif
 259:../../lib/lpc11cx4-library/lpc_chip_11cxx_lib/inc/clock_11xx.h **** #if !(defined(CHIP_LPC110X) || defined(CHIP_LPC11XXLV))  
 260:../../lib/lpc11cx4-library/lpc_chip_11cxx_lib/inc/clock_11xx.h **** 	SYSCTL_CLOCK_SSP1,					/*!< 18: SSP1 clock, LPC11A/C/E/Uxx//1125 only */
 261:../../lib/lpc11cx4-library/lpc_chip_11cxx_lib/inc/clock_11xx.h **** #if !defined(CHIP_LPC11CXX)
 262:../../lib/lpc11cx4-library/lpc_chip_11cxx_lib/inc/clock_11xx.h **** 	SYSCTL_CLOCK_PINT,					/*!< 19: GPIO Pin int register interface clock, LPC11A/E/Uxx only */
 263:../../lib/lpc11cx4-library/lpc_chip_11cxx_lib/inc/clock_11xx.h **** #if defined(CHIP_LPC11AXX)
 264:../../lib/lpc11cx4-library/lpc_chip_11cxx_lib/inc/clock_11xx.h **** 	SYSCTL_CLOCK_ACOMP,					/*!< 20: Analog comparator clock, LPC11Axx only */
 265:../../lib/lpc11cx4-library/lpc_chip_11cxx_lib/inc/clock_11xx.h **** 	SYSCTL_CLOCK_DAC,					/*!< 21: DAC clock, LPC11Axx only */
 266:../../lib/lpc11cx4-library/lpc_chip_11cxx_lib/inc/clock_11xx.h **** #else
 267:../../lib/lpc11cx4-library/lpc_chip_11cxx_lib/inc/clock_11xx.h **** 	SYSCTL_CLOCK_RESERVED20,			/*!< 20: Reserved */
 268:../../lib/lpc11cx4-library/lpc_chip_11cxx_lib/inc/clock_11xx.h **** 	SYSCTL_CLOCK_RESERVED21,			/*!< 21: Reserved */
 269:../../lib/lpc11cx4-library/lpc_chip_11cxx_lib/inc/clock_11xx.h **** #endif
 270:../../lib/lpc11cx4-library/lpc_chip_11cxx_lib/inc/clock_11xx.h **** 	SYSCTL_CLOCK_RESERVED22,			/*!< 22: Reserved */
 271:../../lib/lpc11cx4-library/lpc_chip_11cxx_lib/inc/clock_11xx.h **** 	SYSCTL_CLOCK_P0INT,					/*!< 23: GPIO GROUP1 interrupt register clock, LPC11Axx only */
 272:../../lib/lpc11cx4-library/lpc_chip_11cxx_lib/inc/clock_11xx.h **** 	SYSCTL_CLOCK_GROUP0INT = SYSCTL_CLOCK_P0INT,/*!< 23: GPIO GROUP0 interrupt register interface cloc
 273:../../lib/lpc11cx4-library/lpc_chip_11cxx_lib/inc/clock_11xx.h **** 	SYSCTL_CLOCK_P1INT,					/*!< 24: GPIO GROUP1 interrupt register clock, LPC11Axx only */
 274:../../lib/lpc11cx4-library/lpc_chip_11cxx_lib/inc/clock_11xx.h **** 	SYSCTL_CLOCK_GROUP1INT = SYSCTL_CLOCK_P1INT,/*!< 24: GPIO GROUP1 interrupt register interface cloc
 275:../../lib/lpc11cx4-library/lpc_chip_11cxx_lib/inc/clock_11xx.h **** 	SYSCTL_CLOCK_RESERVED25,			/*!< 25: Reserved */
 276:../../lib/lpc11cx4-library/lpc_chip_11cxx_lib/inc/clock_11xx.h **** #if defined(CHIP_LPC11EXX)  || defined(CHIP_LPC11UXX)
 277:../../lib/lpc11cx4-library/lpc_chip_11cxx_lib/inc/clock_11xx.h **** 	SYSCTL_CLOCK_RAM1,					/*!< 26: SRAM block (0x20000000) clock, LPC11E/Uxx only */
 278:../../lib/lpc11cx4-library/lpc_chip_11cxx_lib/inc/clock_11xx.h **** #else
 279:../../lib/lpc11cx4-library/lpc_chip_11cxx_lib/inc/clock_11xx.h **** 	SYSCTL_CLOCK_RESERVED26,			/*!< 26: Reserved */
 280:../../lib/lpc11cx4-library/lpc_chip_11cxx_lib/inc/clock_11xx.h **** #endif
 281:../../lib/lpc11cx4-library/lpc_chip_11cxx_lib/inc/clock_11xx.h **** #if defined(CHIP_LPC11UXX)
 282:../../lib/lpc11cx4-library/lpc_chip_11cxx_lib/inc/clock_11xx.h **** 	SYSCTL_CLOCK_USBRAM,				/*!< 27: USB SRAM block clock, LPC11Uxx only */
 283:../../lib/lpc11cx4-library/lpc_chip_11cxx_lib/inc/clock_11xx.h **** #else
 284:../../lib/lpc11cx4-library/lpc_chip_11cxx_lib/inc/clock_11xx.h **** 	SYSCTL_CLOCK_RESERVED27,			/*!< 27: Reserved */
 285:../../lib/lpc11cx4-library/lpc_chip_11cxx_lib/inc/clock_11xx.h **** #endif
 286:../../lib/lpc11cx4-library/lpc_chip_11cxx_lib/inc/clock_11xx.h **** #endif /* !defined(CHIP_LPC11CXX) */
 287:../../lib/lpc11cx4-library/lpc_chip_11cxx_lib/inc/clock_11xx.h **** #endif /* !(defined(CHIP_LPC110X) || defined(CHIP_LPC11XXLV)) */
 288:../../lib/lpc11cx4-library/lpc_chip_11cxx_lib/inc/clock_11xx.h **** } CHIP_SYSCTL_CLOCK_T;
 289:../../lib/lpc11cx4-library/lpc_chip_11cxx_lib/inc/clock_11xx.h **** 
 290:../../lib/lpc11cx4-library/lpc_chip_11cxx_lib/inc/clock_11xx.h **** /**
 291:../../lib/lpc11cx4-library/lpc_chip_11cxx_lib/inc/clock_11xx.h ****  * @brief	Enable a system or peripheral clock
 292:../../lib/lpc11cx4-library/lpc_chip_11cxx_lib/inc/clock_11xx.h ****  * @param	clk	: Clock to enable
 293:../../lib/lpc11cx4-library/lpc_chip_11cxx_lib/inc/clock_11xx.h ****  * @return	Nothing
 294:../../lib/lpc11cx4-library/lpc_chip_11cxx_lib/inc/clock_11xx.h ****  */
 295:../../lib/lpc11cx4-library/lpc_chip_11cxx_lib/inc/clock_11xx.h **** STATIC INLINE void Chip_Clock_EnablePeriphClock(CHIP_SYSCTL_CLOCK_T clk)
 296:../../lib/lpc11cx4-library/lpc_chip_11cxx_lib/inc/clock_11xx.h **** {
ARM GAS  /var/folders/z0/6xlwn_996xz3mwq1cgzkbq4r0000gp/T//ccjakVr1.s 			page 14


 297:../../lib/lpc11cx4-library/lpc_chip_11cxx_lib/inc/clock_11xx.h **** 	LPC_SYSCTL->SYSAHBCLKCTRL |= (1 << clk);
 279              		.loc 2 297 0
 280 0000 8022     		movs	r2, #128	@ tmp138,
 281              	.LBE26:
 282              	.LBE25:
  38:../../lib/lpc11cx4-library/evt_lib/src/can.c **** 	uint32_t pClk, div, quanta, segs, seg1, seg2, clk_per_bit, can_sjw;
 283              		.loc 1 38 0
 284 0002 F0B5     		push	{r4, r5, r6, r7, lr}	@
 285              		.cfi_def_cfa_offset 20
 286              		.cfi_offset 4, -20
 287              		.cfi_offset 5, -16
 288              		.cfi_offset 6, -12
 289              		.cfi_offset 7, -8
 290              		.cfi_offset 14, -4
 291 0004 0500     		movs	r5, r0	@ baud_rate, baud_rate
 292              	.LBB30:
 293              	.LBB27:
 294              		.loc 2 297 0
 295 0006 8020     		movs	r0, #128	@ tmp139,
 296              	.LVL12:
 297              	.LBE27:
 298              	.LBE30:
  38:../../lib/lpc11cx4-library/evt_lib/src/can.c **** 	uint32_t pClk, div, quanta, segs, seg1, seg2, clk_per_bit, can_sjw;
 299              		.loc 1 38 0
 300 0008 4746     		mov	r7, r8	@,
 301 000a 0C00     		movs	r4, r1	@ can_api_timing_cfg, can_api_timing_cfg
 302              	.LBB31:
 303              	.LBB28:
 304              		.loc 2 297 0
 305 000c 2049     		ldr	r1, .L32	@ tmp137,
 306              	.LVL13:
 307 000e 8002     		lsls	r0, r0, #10	@ tmp139, tmp139,
 308 0010 8B58     		ldr	r3, [r1, r2]	@ D.6964, MEM[(struct LPC_SYSCTL_T *)1074036736B].SYSAHBCLKCTRL
 309              	.LBE28:
 310              	.LBE31:
  38:../../lib/lpc11cx4-library/evt_lib/src/can.c **** 	uint32_t pClk, div, quanta, segs, seg1, seg2, clk_per_bit, can_sjw;
 311              		.loc 1 38 0
 312 0012 80B4     		push	{r7}	@
 313              		.cfi_def_cfa_offset 24
 314              		.cfi_offset 8, -24
 315              	.LBB32:
 316              	.LBB29:
 317              		.loc 2 297 0
 318 0014 0343     		orrs	r3, r0	@ D.6964, tmp139
 319 0016 8B50     		str	r3, [r1, r2]	@ D.6964, MEM[(struct LPC_SYSCTL_T *)1074036736B].SYSAHBCLKCTRL
 320              	.LVL14:
 321              	.LBE29:
 322              	.LBE32:
  41:../../lib/lpc11cx4-library/evt_lib/src/can.c **** 
 323              		.loc 1 41 0
 324 0018 FFF7FEFF 		bl	Chip_Clock_GetMainClockRate	@
 325              	.LVL15:
  43:../../lib/lpc11cx4-library/evt_lib/src/can.c **** 
 326              		.loc 1 43 0
 327 001c 2900     		movs	r1, r5	@, baud_rate
 328 001e FFF7FEFF 		bl	__aeabi_uidiv	@
 329              	.LVL16:
ARM GAS  /var/folders/z0/6xlwn_996xz3mwq1cgzkbq4r0000gp/T//ccjakVr1.s 			page 15


  45:../../lib/lpc11cx4-library/evt_lib/src/can.c **** 		for (quanta = 1; quanta <= 32; quanta++) {
 330              		.loc 1 45 0
 331 0022 0023     		movs	r3, #0	@ div,
  43:../../lib/lpc11cx4-library/evt_lib/src/can.c **** 
 332              		.loc 1 43 0
 333 0024 0327     		movs	r7, #3	@ ivtmp.65,
  45:../../lib/lpc11cx4-library/evt_lib/src/can.c **** 		for (quanta = 1; quanta <= 32; quanta++) {
 334              		.loc 1 45 0
 335 0026 9846     		mov	r8, r3	@ div, div
 336              	.LVL17:
 337              	.L19:
 338 0028 0123     		movs	r3, #1	@ div,
 339 002a 4344     		add	r3, r3, r8	@ div, div
 340 002c 9C46     		mov	ip, r3	@ div, div
  38:../../lib/lpc11cx4-library/evt_lib/src/can.c **** 	uint32_t pClk, div, quanta, segs, seg1, seg2, clk_per_bit, can_sjw;
 341              		.loc 1 38 0
 342 002e 3E00     		movs	r6, r7	@ ivtmp.58, ivtmp.65
 343 0030 1900     		movs	r1, r3	@ ivtmp.56, div
 344 0032 0125     		movs	r5, #1	@ quanta,
 345              	.LVL18:
 346              	.L25:
 347 0034 3200     		movs	r2, r6	@ ivtmp.47, ivtmp.58
 348 0036 0323     		movs	r3, #3	@ segs,
 349              	.LVL19:
 350              	.L23:
  48:../../lib/lpc11cx4-library/evt_lib/src/can.c **** 					segs -= 3;
 351              		.loc 1 48 0
 352 0038 9042     		cmp	r0, r2	@ clk_per_bit, ivtmp.47
 353 003a 0ED0     		beq	.L30	@,
  47:../../lib/lpc11cx4-library/evt_lib/src/can.c **** 				if (clk_per_bit == (segs * quanta * (div + 1))) {
 354              		.loc 1 47 0 discriminator 2
 355 003c 0133     		adds	r3, r3, #1	@ segs,
 356              	.LVL20:
 357 003e 5218     		adds	r2, r2, r1	@ ivtmp.47, ivtmp.47, ivtmp.56
 358 0040 122B     		cmp	r3, #18	@ segs,
 359 0042 F9D1     		bne	.L23	@,
  46:../../lib/lpc11cx4-library/evt_lib/src/can.c **** 			for (segs = 3; segs <= 17; segs++) {
 360              		.loc 1 46 0 discriminator 2
 361 0044 0135     		adds	r5, r5, #1	@ quanta,
 362              	.LVL21:
 363 0046 6144     		add	r1, r1, ip	@ ivtmp.56, div
 364 0048 F619     		adds	r6, r6, r7	@ ivtmp.58, ivtmp.58, ivtmp.65
 365 004a 212D     		cmp	r5, #33	@ quanta,
 366 004c F2D1     		bne	.L25	@,
 367              	.LVL22:
  45:../../lib/lpc11cx4-library/evt_lib/src/can.c **** 		for (quanta = 1; quanta <= 32; quanta++) {
 368              		.loc 1 45 0 discriminator 2
 369 004e 6346     		mov	r3, ip	@ div, div
 370              	.LVL23:
 371 0050 0337     		adds	r7, r7, #3	@ ivtmp.65,
 372 0052 102B     		cmp	r3, #16	@ div,
 373 0054 17D0     		beq	.L18	@,
 374 0056 E046     		mov	r8, ip	@ div, div
 375              	.LVL24:
 376 0058 E6E7     		b	.L19	@
 377              	.LVL25:
 378              	.L30:
ARM GAS  /var/folders/z0/6xlwn_996xz3mwq1cgzkbq4r0000gp/T//ccjakVr1.s 			page 16


  53:../../lib/lpc11cx4-library/evt_lib/src/can.c **** 					can_api_timing_cfg[1] =
 379              		.loc 1 53 0
 380 005a 4246     		mov	r2, r8	@ div, div
  49:../../lib/lpc11cx4-library/evt_lib/src/can.c **** 					seg1 = segs / 2;
 381              		.loc 1 49 0
 382 005c 033B     		subs	r3, r3, #3	@ segs,
 383              	.LVL26:
  50:../../lib/lpc11cx4-library/evt_lib/src/can.c **** 					seg2 = segs - seg1;
 384              		.loc 1 50 0
 385 005e 5808     		lsrs	r0, r3, #1	@ seg1, segs,
 386              	.LVL27:
  53:../../lib/lpc11cx4-library/evt_lib/src/can.c **** 					can_api_timing_cfg[1] =
 387              		.loc 1 53 0
 388 0060 2260     		str	r2, [r4]	@ div, *can_api_timing_cfg_21(D)
  54:../../lib/lpc11cx4-library/evt_lib/src/can.c **** 						((quanta - 1) & 0x3F) | (can_sjw & 0x03) << 6 | (seg1 & 0x0F) << 8 | (seg2 & 0x07) << 12;
 389              		.loc 1 54 0
 390 0062 0200     		movs	r2, r0	@ can_sjw, seg1
 391 0064 0328     		cmp	r0, #3	@ seg1,
 392 0066 11D8     		bhi	.L31	@,
 393              	.L21:
 394 0068 F021     		movs	r1, #240	@ tmp149,
 395 006a 9601     		lsls	r6, r2, #6	@ D.6964, can_sjw,
 396 006c 0901     		lsls	r1, r1, #4	@ tmp149, tmp149,
 397 006e 0202     		lsls	r2, r0, #8	@ D.6964, seg1,
 398 0070 0A40     		ands	r2, r1	@ D.6964, tmp149
 399 0072 3243     		orrs	r2, r6	@ D.6964, D.6964
 400 0074 013D     		subs	r5, r5, #1	@ D.6964,
 401              	.LVL28:
 402 0076 1543     		orrs	r5, r2	@ D.6964, D.6964
 403              	.LVL29:
 404 0078 E022     		movs	r2, #224	@ tmp156,
 405 007a 1B1A     		subs	r3, r3, r0	@ seg2, segs, seg1
 406              	.LVL30:
 407 007c 1B03     		lsls	r3, r3, #12	@ D.6964, seg2,
 408 007e D201     		lsls	r2, r2, #7	@ tmp156, tmp156,
 409 0080 1340     		ands	r3, r2	@ D.6964, tmp156
 410 0082 1D43     		orrs	r5, r3	@ D.6964, D.6964
 411 0084 6560     		str	r5, [r4, #4]	@ D.6964, MEM[(uint32_t *)can_api_timing_cfg_21(D) + 4B]
 412              	.LVL31:
 413              	.L18:
  61:../../lib/lpc11cx4-library/evt_lib/src/can.c **** 
 414              		.loc 1 61 0
 415              		@ sp needed	@
 416              	.LVL32:
 417 0086 04BC     		pop	{r2}
 418 0088 9046     		mov	r8, r2
 419 008a F0BD     		pop	{r4, r5, r6, r7, pc}
 420              	.LVL33:
 421              	.L31:
  54:../../lib/lpc11cx4-library/evt_lib/src/can.c **** 						((quanta - 1) & 0x3F) | (can_sjw & 0x03) << 6 | (seg1 & 0x0F) << 8 | (seg2 & 0x07) << 12;
 422              		.loc 1 54 0
 423 008c 0322     		movs	r2, #3	@ can_sjw,
 424 008e EBE7     		b	.L21	@
 425              	.L33:
 426              		.align	2
 427              	.L32:
 428 0090 00800440 		.word	1074036736
ARM GAS  /var/folders/z0/6xlwn_996xz3mwq1cgzkbq4r0000gp/T//ccjakVr1.s 			page 17


 429              		.cfi_endproc
 430              	.LFE198:
 431              		.size	Baudrate_Calculate, .-Baudrate_Calculate
 432              		.section	.text.CAN_GetTxErrorCount,"ax",%progbits
 433              		.align	2
 434              		.global	CAN_GetTxErrorCount
 435              		.code	16
 436              		.thumb_func
 437              		.type	CAN_GetTxErrorCount, %function
 438              	CAN_GetTxErrorCount:
 439              	.LFB199:
  63:../../lib/lpc11cx4-library/evt_lib/src/can.c ****     // page 290 in the user manual
 440              		.loc 1 63 0
 441              		.cfi_startproc
 442              		@ args = 0, pretend = 0, frame = 0
 443              		@ frame_needed = 0, uses_anonymous_args = 0
 444              		@ link register save eliminated.
  65:../../lib/lpc11cx4-library/evt_lib/src/can.c **** }
 445              		.loc 1 65 0
 446 0000 014B     		ldr	r3, .L35	@ tmp113,
  66:../../lib/lpc11cx4-library/evt_lib/src/can.c **** 
 447              		.loc 1 66 0
 448              		@ sp needed	@
  65:../../lib/lpc11cx4-library/evt_lib/src/can.c **** }
 449              		.loc 1 65 0
 450 0002 9868     		ldr	r0, [r3, #8]	@ D.6968, MEM[(struct LPC_CCAN_T *)1074069504B].CANEC
 451 0004 C0B2     		uxtb	r0, r0	@ D.6969, D.6968
  66:../../lib/lpc11cx4-library/evt_lib/src/can.c **** 
 452              		.loc 1 66 0
 453 0006 7047     		bx	lr
 454              	.L36:
 455              		.align	2
 456              	.L35:
 457 0008 00000540 		.word	1074069504
 458              		.cfi_endproc
 459              	.LFE199:
 460              		.size	CAN_GetTxErrorCount, .-CAN_GetTxErrorCount
 461              		.section	.text.CAN_GetRxErrorCount,"ax",%progbits
 462              		.align	2
 463              		.global	CAN_GetRxErrorCount
 464              		.code	16
 465              		.thumb_func
 466              		.type	CAN_GetRxErrorCount, %function
 467              	CAN_GetRxErrorCount:
 468              	.LFB200:
  68:../../lib/lpc11cx4-library/evt_lib/src/can.c ****     // page 290 in the user manual
 469              		.loc 1 68 0
 470              		.cfi_startproc
 471              		@ args = 0, pretend = 0, frame = 0
 472              		@ frame_needed = 0, uses_anonymous_args = 0
 473              		@ link register save eliminated.
  70:../../lib/lpc11cx4-library/evt_lib/src/can.c **** }
 474              		.loc 1 70 0
 475 0000 024B     		ldr	r3, .L38	@ tmp115,
  71:../../lib/lpc11cx4-library/evt_lib/src/can.c **** 
 476              		.loc 1 71 0
 477              		@ sp needed	@
ARM GAS  /var/folders/z0/6xlwn_996xz3mwq1cgzkbq4r0000gp/T//ccjakVr1.s 			page 18


  70:../../lib/lpc11cx4-library/evt_lib/src/can.c **** }
 478              		.loc 1 70 0
 479 0002 9868     		ldr	r0, [r3, #8]	@ D.6972, MEM[(struct LPC_CCAN_T *)1074069504B].CANEC
 480 0004 4004     		lsls	r0, r0, #17	@ tmp118, D.6972,
 481 0006 400E     		lsrs	r0, r0, #25	@ D.6973, tmp118,
  71:../../lib/lpc11cx4-library/evt_lib/src/can.c **** 
 482              		.loc 1 71 0
 483 0008 7047     		bx	lr
 484              	.L39:
 485 000a C046     		.align	2
 486              	.L38:
 487 000c 00000540 		.word	1074069504
 488              		.cfi_endproc
 489              	.LFE200:
 490              		.size	CAN_GetRxErrorCount, .-CAN_GetRxErrorCount
 491              		.section	.text.CAN_IsTxBusy,"ax",%progbits
 492              		.align	2
 493              		.global	CAN_IsTxBusy
 494              		.code	16
 495              		.thumb_func
 496              		.type	CAN_IsTxBusy, %function
 497              	CAN_IsTxBusy:
 498              	.LFB201:
  73:../../lib/lpc11cx4-library/evt_lib/src/can.c ****     // page 302 in the user manual
 499              		.loc 1 73 0
 500              		.cfi_startproc
 501              		@ args = 0, pretend = 0, frame = 0
 502              		@ frame_needed = 0, uses_anonymous_args = 0
 503              		@ link register save eliminated.
  75:../../lib/lpc11cx4-library/evt_lib/src/can.c **** }
 504              		.loc 1 75 0
 505 0000 8223     		movs	r3, #130	@ tmp115,
 506 0002 034A     		ldr	r2, .L41	@ tmp114,
 507 0004 5B00     		lsls	r3, r3, #1	@ tmp115, tmp115,
 508 0006 D058     		ldr	r0, [r2, r3]	@ D.6976, MEM[(struct LPC_CCAN_T *)1074069504B].CANTXREQ1
  76:../../lib/lpc11cx4-library/evt_lib/src/can.c **** 
 509              		.loc 1 76 0
 510              		@ sp needed	@
  75:../../lib/lpc11cx4-library/evt_lib/src/can.c **** }
 511              		.loc 1 75 0
 512 0008 8007     		lsls	r0, r0, #30	@ tmp121, D.6976,
 513 000a C00F     		lsrs	r0, r0, #31	@ D.6977, tmp121,
  76:../../lib/lpc11cx4-library/evt_lib/src/can.c **** 
 514              		.loc 1 76 0
 515 000c 7047     		bx	lr
 516              	.L42:
 517 000e C046     		.align	2
 518              	.L41:
 519 0010 00000540 		.word	1074069504
 520              		.cfi_endproc
 521              	.LFE201:
 522              		.size	CAN_IsTxBusy, .-CAN_IsTxBusy
 523              		.section	.text.CAN_ResetPeripheral,"ax",%progbits
 524              		.align	2
 525              		.global	CAN_ResetPeripheral
 526              		.code	16
 527              		.thumb_func
ARM GAS  /var/folders/z0/6xlwn_996xz3mwq1cgzkbq4r0000gp/T//ccjakVr1.s 			page 19


 528              		.type	CAN_ResetPeripheral, %function
 529              	CAN_ResetPeripheral:
 530              	.LFB202:
  80:../../lib/lpc11cx4-library/evt_lib/src/can.c **** 	if(LPC_CCAN->CANSTAT>>7&0x01) {
 531              		.loc 1 80 0
 532              		.cfi_startproc
 533              		@ args = 0, pretend = 0, frame = 0
 534              		@ frame_needed = 0, uses_anonymous_args = 0
 535              		@ link register save eliminated.
  81:../../lib/lpc11cx4-library/evt_lib/src/can.c ****     	Chip_SYSCTL_PeriphReset(RESET_CAN0);
 536              		.loc 1 81 0
 537 0000 074B     		ldr	r3, .L47	@ tmp119,
  85:../../lib/lpc11cx4-library/evt_lib/src/can.c **** }
 538              		.loc 1 85 0
 539 0002 0020     		movs	r0, #0	@ D.6980,
  81:../../lib/lpc11cx4-library/evt_lib/src/can.c ****     	Chip_SYSCTL_PeriphReset(RESET_CAN0);
 540              		.loc 1 81 0
 541 0004 5B68     		ldr	r3, [r3, #4]	@ D.6981, MEM[(struct LPC_CCAN_T *)1074069504B].CANSTAT
 542 0006 1B06     		lsls	r3, r3, #24	@ tmp130, D.6981,
 543 0008 08D5     		bpl	.L44	@,
 544              	.LVL34:
 545              	.LBB33:
 546              	.LBB34:
 547              	.LBB35:
 548              		.file 3 "../../lib/lpc11cx4-library/lpc_chip_11cxx_lib/inc/sysctl_11xx.h"
   1:../../lib/lpc11cx4-library/lpc_chip_11cxx_lib/inc/sysctl_11xx.h **** /*
   2:../../lib/lpc11cx4-library/lpc_chip_11cxx_lib/inc/sysctl_11xx.h ****  * @brief LPC11XX System Control registers and control functions
   3:../../lib/lpc11cx4-library/lpc_chip_11cxx_lib/inc/sysctl_11xx.h ****  *
   4:../../lib/lpc11cx4-library/lpc_chip_11cxx_lib/inc/sysctl_11xx.h ****  * @note
   5:../../lib/lpc11cx4-library/lpc_chip_11cxx_lib/inc/sysctl_11xx.h ****  * Copyright(C) NXP Semiconductors, 2012
   6:../../lib/lpc11cx4-library/lpc_chip_11cxx_lib/inc/sysctl_11xx.h ****  * All rights reserved.
   7:../../lib/lpc11cx4-library/lpc_chip_11cxx_lib/inc/sysctl_11xx.h ****  *
   8:../../lib/lpc11cx4-library/lpc_chip_11cxx_lib/inc/sysctl_11xx.h ****  * @par
   9:../../lib/lpc11cx4-library/lpc_chip_11cxx_lib/inc/sysctl_11xx.h ****  * Software that is described herein is for illustrative purposes only
  10:../../lib/lpc11cx4-library/lpc_chip_11cxx_lib/inc/sysctl_11xx.h ****  * which provides customers with programming information regarding the
  11:../../lib/lpc11cx4-library/lpc_chip_11cxx_lib/inc/sysctl_11xx.h ****  * LPC products.  This software is supplied "AS IS" without any warranties of
  12:../../lib/lpc11cx4-library/lpc_chip_11cxx_lib/inc/sysctl_11xx.h ****  * any kind, and NXP Semiconductors and its licensor disclaim any and
  13:../../lib/lpc11cx4-library/lpc_chip_11cxx_lib/inc/sysctl_11xx.h ****  * all warranties, express or implied, including all implied warranties of
  14:../../lib/lpc11cx4-library/lpc_chip_11cxx_lib/inc/sysctl_11xx.h ****  * merchantability, fitness for a particular purpose and non-infringement of
  15:../../lib/lpc11cx4-library/lpc_chip_11cxx_lib/inc/sysctl_11xx.h ****  * intellectual property rights.  NXP Semiconductors assumes no responsibility
  16:../../lib/lpc11cx4-library/lpc_chip_11cxx_lib/inc/sysctl_11xx.h ****  * or liability for the use of the software, conveys no license or rights under any
  17:../../lib/lpc11cx4-library/lpc_chip_11cxx_lib/inc/sysctl_11xx.h ****  * patent, copyright, mask work right, or any other intellectual property rights in
  18:../../lib/lpc11cx4-library/lpc_chip_11cxx_lib/inc/sysctl_11xx.h ****  * or to any products. NXP Semiconductors reserves the right to make changes
  19:../../lib/lpc11cx4-library/lpc_chip_11cxx_lib/inc/sysctl_11xx.h ****  * in the software without notification. NXP Semiconductors also makes no
  20:../../lib/lpc11cx4-library/lpc_chip_11cxx_lib/inc/sysctl_11xx.h ****  * representation or warranty that such application will be suitable for the
  21:../../lib/lpc11cx4-library/lpc_chip_11cxx_lib/inc/sysctl_11xx.h ****  * specified use without further testing or modification.
  22:../../lib/lpc11cx4-library/lpc_chip_11cxx_lib/inc/sysctl_11xx.h ****  *
  23:../../lib/lpc11cx4-library/lpc_chip_11cxx_lib/inc/sysctl_11xx.h ****  * @par
  24:../../lib/lpc11cx4-library/lpc_chip_11cxx_lib/inc/sysctl_11xx.h ****  * Permission to use, copy, modify, and distribute this software and its
  25:../../lib/lpc11cx4-library/lpc_chip_11cxx_lib/inc/sysctl_11xx.h ****  * documentation is hereby granted, under NXP Semiconductors' and its
  26:../../lib/lpc11cx4-library/lpc_chip_11cxx_lib/inc/sysctl_11xx.h ****  * licensor's relevant copyrights in the software, without fee, provided that it
  27:../../lib/lpc11cx4-library/lpc_chip_11cxx_lib/inc/sysctl_11xx.h ****  * is used in conjunction with NXP Semiconductors microcontrollers.  This
  28:../../lib/lpc11cx4-library/lpc_chip_11cxx_lib/inc/sysctl_11xx.h ****  * copyright, permission, and disclaimer notice must appear in all copies of
  29:../../lib/lpc11cx4-library/lpc_chip_11cxx_lib/inc/sysctl_11xx.h ****  * this code.
  30:../../lib/lpc11cx4-library/lpc_chip_11cxx_lib/inc/sysctl_11xx.h ****  */
  31:../../lib/lpc11cx4-library/lpc_chip_11cxx_lib/inc/sysctl_11xx.h **** 
  32:../../lib/lpc11cx4-library/lpc_chip_11cxx_lib/inc/sysctl_11xx.h **** #ifndef __SYSCTL_11XX_H_
ARM GAS  /var/folders/z0/6xlwn_996xz3mwq1cgzkbq4r0000gp/T//ccjakVr1.s 			page 20


  33:../../lib/lpc11cx4-library/lpc_chip_11cxx_lib/inc/sysctl_11xx.h **** #define __SYSCTL_11XX_H_
  34:../../lib/lpc11cx4-library/lpc_chip_11cxx_lib/inc/sysctl_11xx.h **** 
  35:../../lib/lpc11cx4-library/lpc_chip_11cxx_lib/inc/sysctl_11xx.h **** #ifdef __cplusplus
  36:../../lib/lpc11cx4-library/lpc_chip_11cxx_lib/inc/sysctl_11xx.h **** extern "C" {
  37:../../lib/lpc11cx4-library/lpc_chip_11cxx_lib/inc/sysctl_11xx.h **** #endif
  38:../../lib/lpc11cx4-library/lpc_chip_11cxx_lib/inc/sysctl_11xx.h **** 
  39:../../lib/lpc11cx4-library/lpc_chip_11cxx_lib/inc/sysctl_11xx.h **** /** @defgroup SYSCTL_11XX CHIP: LPC11xx System Control block driver
  40:../../lib/lpc11cx4-library/lpc_chip_11cxx_lib/inc/sysctl_11xx.h ****  * @ingroup CHIP_11XX_Drivers
  41:../../lib/lpc11cx4-library/lpc_chip_11cxx_lib/inc/sysctl_11xx.h ****  * @{
  42:../../lib/lpc11cx4-library/lpc_chip_11cxx_lib/inc/sysctl_11xx.h ****  */
  43:../../lib/lpc11cx4-library/lpc_chip_11cxx_lib/inc/sysctl_11xx.h **** 
  44:../../lib/lpc11cx4-library/lpc_chip_11cxx_lib/inc/sysctl_11xx.h **** /**
  45:../../lib/lpc11cx4-library/lpc_chip_11cxx_lib/inc/sysctl_11xx.h ****  * @brief LPC11XX System Control block structure
  46:../../lib/lpc11cx4-library/lpc_chip_11cxx_lib/inc/sysctl_11xx.h ****  */
  47:../../lib/lpc11cx4-library/lpc_chip_11cxx_lib/inc/sysctl_11xx.h **** typedef struct {			/*!< SYSCTL Structure */
  48:../../lib/lpc11cx4-library/lpc_chip_11cxx_lib/inc/sysctl_11xx.h **** 	__IO uint32_t  SYSMEMREMAP;		/*!< System Memory remap register */
  49:../../lib/lpc11cx4-library/lpc_chip_11cxx_lib/inc/sysctl_11xx.h **** 	__IO uint32_t  PRESETCTRL;		/*!< Peripheral reset Control register */
  50:../../lib/lpc11cx4-library/lpc_chip_11cxx_lib/inc/sysctl_11xx.h **** 	__IO uint32_t  SYSPLLCTRL;		/*!< System PLL control register */
  51:../../lib/lpc11cx4-library/lpc_chip_11cxx_lib/inc/sysctl_11xx.h **** 	__I  uint32_t  SYSPLLSTAT;		/*!< System PLL status register */
  52:../../lib/lpc11cx4-library/lpc_chip_11cxx_lib/inc/sysctl_11xx.h **** 	__IO uint32_t  USBPLLCTRL;		/*!< USB PLL control register, LPC11UXX only*/
  53:../../lib/lpc11cx4-library/lpc_chip_11cxx_lib/inc/sysctl_11xx.h **** 	__I  uint32_t  USBPLLSTAT;		/*!< USB PLL status register, LPC11UXX only */
  54:../../lib/lpc11cx4-library/lpc_chip_11cxx_lib/inc/sysctl_11xx.h **** 	__I  uint32_t  RESERVED1[2];
  55:../../lib/lpc11cx4-library/lpc_chip_11cxx_lib/inc/sysctl_11xx.h **** 	__IO uint32_t  SYSOSCCTRL;		/*!< System Oscillator control register */
  56:../../lib/lpc11cx4-library/lpc_chip_11cxx_lib/inc/sysctl_11xx.h **** 	__IO uint32_t  WDTOSCCTRL;		/*!< Watchdog Oscillator control register */
  57:../../lib/lpc11cx4-library/lpc_chip_11cxx_lib/inc/sysctl_11xx.h **** 	__IO uint32_t  IRCCTRL;			/*!< IRC control register, not on LPC11UXX and LPC11EXX */
  58:../../lib/lpc11cx4-library/lpc_chip_11cxx_lib/inc/sysctl_11xx.h **** 	__IO uint32_t  LFOSCCTRL;		/*!< LF oscillator control, LPC11AXX only */
  59:../../lib/lpc11cx4-library/lpc_chip_11cxx_lib/inc/sysctl_11xx.h **** 	__IO uint32_t  SYSRSTSTAT;		/*!< System Reset Status register           */
  60:../../lib/lpc11cx4-library/lpc_chip_11cxx_lib/inc/sysctl_11xx.h **** 	__I  uint32_t  RESERVED2[3];
  61:../../lib/lpc11cx4-library/lpc_chip_11cxx_lib/inc/sysctl_11xx.h **** 	__IO uint32_t  SYSPLLCLKSEL;	/*!< System PLL clock source select register */
  62:../../lib/lpc11cx4-library/lpc_chip_11cxx_lib/inc/sysctl_11xx.h **** 	__IO uint32_t  SYSPLLCLKUEN;	/*!< System PLL clock source update enable register*/
  63:../../lib/lpc11cx4-library/lpc_chip_11cxx_lib/inc/sysctl_11xx.h **** 	__IO uint32_t  USBPLLCLKSEL;	/*!< USB PLL clock source select register, LPC11UXX only */
  64:../../lib/lpc11cx4-library/lpc_chip_11cxx_lib/inc/sysctl_11xx.h **** 	__IO uint32_t  USBPLLCLKUEN;	/*!< USB PLL clock source update enable register, LPC11UXX only */
  65:../../lib/lpc11cx4-library/lpc_chip_11cxx_lib/inc/sysctl_11xx.h **** 	__I  uint32_t  RESERVED3[8];
  66:../../lib/lpc11cx4-library/lpc_chip_11cxx_lib/inc/sysctl_11xx.h **** 	__IO uint32_t  MAINCLKSEL;	/*!< Main clock source select register		*/
  67:../../lib/lpc11cx4-library/lpc_chip_11cxx_lib/inc/sysctl_11xx.h **** 	__IO uint32_t  MAINCLKUEN;	/*!< Main clock source update enable register	*/
  68:../../lib/lpc11cx4-library/lpc_chip_11cxx_lib/inc/sysctl_11xx.h **** 	__IO uint32_t  SYSAHBCLKDIV;	/*!< System Clock divider register */
  69:../../lib/lpc11cx4-library/lpc_chip_11cxx_lib/inc/sysctl_11xx.h **** 	__I  uint32_t  RESERVED4;
  70:../../lib/lpc11cx4-library/lpc_chip_11cxx_lib/inc/sysctl_11xx.h **** 	__IO uint32_t  SYSAHBCLKCTRL;	/*!< System clock control register */
  71:../../lib/lpc11cx4-library/lpc_chip_11cxx_lib/inc/sysctl_11xx.h **** 	__I  uint32_t  RESERVED5[4];
  72:../../lib/lpc11cx4-library/lpc_chip_11cxx_lib/inc/sysctl_11xx.h **** 	__IO uint32_t  SSP0CLKDIV;	/*!< SSP0 clock divider register   */
  73:../../lib/lpc11cx4-library/lpc_chip_11cxx_lib/inc/sysctl_11xx.h **** 	__IO uint32_t  USARTCLKDIV;	/*!< UART clock divider register   */
  74:../../lib/lpc11cx4-library/lpc_chip_11cxx_lib/inc/sysctl_11xx.h **** 	__IO uint32_t  SSP1CLKDIV;	/*!< SSP1 clock divider register, not on CHIP_LPC110X, CHIP_LPC11XXLV *
  75:../../lib/lpc11cx4-library/lpc_chip_11cxx_lib/inc/sysctl_11xx.h **** 	__I  uint32_t  RESERVED6[8];
  76:../../lib/lpc11cx4-library/lpc_chip_11cxx_lib/inc/sysctl_11xx.h **** 	__IO uint32_t  USBCLKSEL;	/*!< USB clock source select register, LPC11UXX only */
  77:../../lib/lpc11cx4-library/lpc_chip_11cxx_lib/inc/sysctl_11xx.h **** 	__IO uint32_t  USBCLKUEN;	/*!< USB clock source update enable register, LPC11UXX only */
  78:../../lib/lpc11cx4-library/lpc_chip_11cxx_lib/inc/sysctl_11xx.h **** 	__IO uint32_t  USBCLKDIV;	/*!< USB clock source divider register, LPC11UXX only */
  79:../../lib/lpc11cx4-library/lpc_chip_11cxx_lib/inc/sysctl_11xx.h **** 	__I  uint32_t  RESERVED7;
  80:../../lib/lpc11cx4-library/lpc_chip_11cxx_lib/inc/sysctl_11xx.h **** 	__IO uint32_t  WDTCLKSEL;	/*!< WDT clock source select register, some parts only */
  81:../../lib/lpc11cx4-library/lpc_chip_11cxx_lib/inc/sysctl_11xx.h **** 	__IO uint32_t  WDTCLKUEN;	/*!< WDT clock source update enable register, some parts only */
  82:../../lib/lpc11cx4-library/lpc_chip_11cxx_lib/inc/sysctl_11xx.h **** 	__IO uint32_t  WDTCLKDIV;	/*!< WDT clock divider register, some parts only */
  83:../../lib/lpc11cx4-library/lpc_chip_11cxx_lib/inc/sysctl_11xx.h **** 	__I  uint32_t  RESERVED8;
  84:../../lib/lpc11cx4-library/lpc_chip_11cxx_lib/inc/sysctl_11xx.h **** 	__IO uint32_t  CLKOUTSEL;	/*!< Clock out source select register, not on LPC1102/04 */
  85:../../lib/lpc11cx4-library/lpc_chip_11cxx_lib/inc/sysctl_11xx.h **** 	__IO uint32_t  CLKOUTUEN;	/*!< Clock out source update enable register, not on LPC1102/04 */
  86:../../lib/lpc11cx4-library/lpc_chip_11cxx_lib/inc/sysctl_11xx.h **** 	__IO uint32_t  CLKOUTDIV;	/*!< Clock out divider register, not on LPC1102/04 */
  87:../../lib/lpc11cx4-library/lpc_chip_11cxx_lib/inc/sysctl_11xx.h **** 	__I  uint32_t  RESERVED9[5];
  88:../../lib/lpc11cx4-library/lpc_chip_11cxx_lib/inc/sysctl_11xx.h **** 	__I  uint32_t  PIOPORCAP[2];/*!< POR captured PIO status registers, index 1 on LPC1102/04 */
  89:../../lib/lpc11cx4-library/lpc_chip_11cxx_lib/inc/sysctl_11xx.h **** 	__I  uint32_t  RESERVED10[18];
ARM GAS  /var/folders/z0/6xlwn_996xz3mwq1cgzkbq4r0000gp/T//ccjakVr1.s 			page 21


  90:../../lib/lpc11cx4-library/lpc_chip_11cxx_lib/inc/sysctl_11xx.h **** 	__IO uint32_t  BODCTRL;		/*!< Brown Out Detect register */
  91:../../lib/lpc11cx4-library/lpc_chip_11cxx_lib/inc/sysctl_11xx.h **** 	__IO uint32_t  SYSTCKCAL;	/*!< System tick counter calibration register */
  92:../../lib/lpc11cx4-library/lpc_chip_11cxx_lib/inc/sysctl_11xx.h **** 	__I  uint32_t  RESERVED11[6];
  93:../../lib/lpc11cx4-library/lpc_chip_11cxx_lib/inc/sysctl_11xx.h **** 	__IO uint32_t  IRQLATENCY;	/*!< IRQ delay register, on LPC11UXX and LPC11EXX only */
  94:../../lib/lpc11cx4-library/lpc_chip_11cxx_lib/inc/sysctl_11xx.h **** 	__IO uint32_t  NMISRC;		/*!< NMI source control register,some parts only */
  95:../../lib/lpc11cx4-library/lpc_chip_11cxx_lib/inc/sysctl_11xx.h **** 	__IO uint32_t  PINTSEL[8];	/*!< GPIO pin interrupt select register 0-7, not on CHIP_LPC110X, CHIP_
  96:../../lib/lpc11cx4-library/lpc_chip_11cxx_lib/inc/sysctl_11xx.h **** 	__IO uint32_t  USBCLKCTRL;	/*!< USB clock control register, LPC11UXX only */
  97:../../lib/lpc11cx4-library/lpc_chip_11cxx_lib/inc/sysctl_11xx.h **** 	__I  uint32_t  USBCLKST;	/*!< USB clock status register, LPC11UXX only */
  98:../../lib/lpc11cx4-library/lpc_chip_11cxx_lib/inc/sysctl_11xx.h **** 	__I  uint32_t  RESERVED12[24];
  99:../../lib/lpc11cx4-library/lpc_chip_11cxx_lib/inc/sysctl_11xx.h **** 	__IO uint32_t  STARTAPRP0;	/*!< Start loigc 0 interrupt wake up enable register 0, on CHIP_LPC110X
 100:../../lib/lpc11cx4-library/lpc_chip_11cxx_lib/inc/sysctl_11xx.h **** 	__IO uint32_t  STARTERP0;	/*!< Start loigc signal enable register 0, not on LPC11AXX */
 101:../../lib/lpc11cx4-library/lpc_chip_11cxx_lib/inc/sysctl_11xx.h **** 	__IO uint32_t  STARTRSRP0CLR;	/*!< Start loigc reset register 0, on CHIP_LPC110X, CHIP_LPC11XXLV, 
 102:../../lib/lpc11cx4-library/lpc_chip_11cxx_lib/inc/sysctl_11xx.h **** 	__IO uint32_t  STARTSRP0;		/*!< Start loigc status register 0, on CHIP_LPC110X, CHIP_LPC11XXLV, CH
 103:../../lib/lpc11cx4-library/lpc_chip_11cxx_lib/inc/sysctl_11xx.h **** 	__I  uint32_t  RESERVED13;
 104:../../lib/lpc11cx4-library/lpc_chip_11cxx_lib/inc/sysctl_11xx.h **** 	__IO uint32_t  STARTERP1;	/*!< Start logic 1 interrupt wake up enable register 1, on LPC11UXX and 
 105:../../lib/lpc11cx4-library/lpc_chip_11cxx_lib/inc/sysctl_11xx.h **** 	__I  uint32_t  RESERVED14[6];
 106:../../lib/lpc11cx4-library/lpc_chip_11cxx_lib/inc/sysctl_11xx.h **** 	__IO uint32_t  PDSLEEPCFG;	/*!< Power down states in deep sleep mode register, not on LPC11AXX */
 107:../../lib/lpc11cx4-library/lpc_chip_11cxx_lib/inc/sysctl_11xx.h **** 	__IO uint32_t  PDWAKECFG;	/*!< Power down states in wake up from deep sleep register, not on LPC11
 108:../../lib/lpc11cx4-library/lpc_chip_11cxx_lib/inc/sysctl_11xx.h **** 	__IO uint32_t  PDRUNCFG;	/*!< Power configuration register*/
 109:../../lib/lpc11cx4-library/lpc_chip_11cxx_lib/inc/sysctl_11xx.h **** 	__I  uint32_t  RESERVED15[110];
 110:../../lib/lpc11cx4-library/lpc_chip_11cxx_lib/inc/sysctl_11xx.h **** 	__I  uint32_t  DEVICEID;	/*!< Device ID register */
 111:../../lib/lpc11cx4-library/lpc_chip_11cxx_lib/inc/sysctl_11xx.h **** } LPC_SYSCTL_T;
 112:../../lib/lpc11cx4-library/lpc_chip_11cxx_lib/inc/sysctl_11xx.h **** 
 113:../../lib/lpc11cx4-library/lpc_chip_11cxx_lib/inc/sysctl_11xx.h **** /**
 114:../../lib/lpc11cx4-library/lpc_chip_11cxx_lib/inc/sysctl_11xx.h ****  * System memory remap modes used to remap interrupt vectors
 115:../../lib/lpc11cx4-library/lpc_chip_11cxx_lib/inc/sysctl_11xx.h ****  */
 116:../../lib/lpc11cx4-library/lpc_chip_11cxx_lib/inc/sysctl_11xx.h **** typedef enum CHIP_SYSCTL_BOOT_MODE_REMAP {
 117:../../lib/lpc11cx4-library/lpc_chip_11cxx_lib/inc/sysctl_11xx.h **** 	REMAP_BOOT_LOADER_MODE,	/*!< Interrupt vectors are re-mapped to Boot ROM */
 118:../../lib/lpc11cx4-library/lpc_chip_11cxx_lib/inc/sysctl_11xx.h **** 	REMAP_USER_RAM_MODE,	/*!< Interrupt vectors are re-mapped to Static RAM */
 119:../../lib/lpc11cx4-library/lpc_chip_11cxx_lib/inc/sysctl_11xx.h **** 	REMAP_USER_FLASH_MODE	/*!< Interrupt vectors are not re-mapped and reside in Flash */
 120:../../lib/lpc11cx4-library/lpc_chip_11cxx_lib/inc/sysctl_11xx.h **** } CHIP_SYSCTL_BOOT_MODE_REMAP_T;
 121:../../lib/lpc11cx4-library/lpc_chip_11cxx_lib/inc/sysctl_11xx.h **** 
 122:../../lib/lpc11cx4-library/lpc_chip_11cxx_lib/inc/sysctl_11xx.h **** /**
 123:../../lib/lpc11cx4-library/lpc_chip_11cxx_lib/inc/sysctl_11xx.h ****  * @brief	Re-map interrupt vectors
 124:../../lib/lpc11cx4-library/lpc_chip_11cxx_lib/inc/sysctl_11xx.h ****  * @param	remap	: system memory map value
 125:../../lib/lpc11cx4-library/lpc_chip_11cxx_lib/inc/sysctl_11xx.h ****  * @return	Nothing
 126:../../lib/lpc11cx4-library/lpc_chip_11cxx_lib/inc/sysctl_11xx.h ****  */
 127:../../lib/lpc11cx4-library/lpc_chip_11cxx_lib/inc/sysctl_11xx.h **** STATIC INLINE void Chip_SYSCTL_Map(CHIP_SYSCTL_BOOT_MODE_REMAP_T remap)
 128:../../lib/lpc11cx4-library/lpc_chip_11cxx_lib/inc/sysctl_11xx.h **** {
 129:../../lib/lpc11cx4-library/lpc_chip_11cxx_lib/inc/sysctl_11xx.h **** 	LPC_SYSCTL->SYSMEMREMAP = (uint32_t) remap;
 130:../../lib/lpc11cx4-library/lpc_chip_11cxx_lib/inc/sysctl_11xx.h **** }
 131:../../lib/lpc11cx4-library/lpc_chip_11cxx_lib/inc/sysctl_11xx.h **** 
 132:../../lib/lpc11cx4-library/lpc_chip_11cxx_lib/inc/sysctl_11xx.h **** /**
 133:../../lib/lpc11cx4-library/lpc_chip_11cxx_lib/inc/sysctl_11xx.h ****  * Peripheral reset identifiers, not available on all devices
 134:../../lib/lpc11cx4-library/lpc_chip_11cxx_lib/inc/sysctl_11xx.h ****  */
 135:../../lib/lpc11cx4-library/lpc_chip_11cxx_lib/inc/sysctl_11xx.h **** typedef enum {
 136:../../lib/lpc11cx4-library/lpc_chip_11cxx_lib/inc/sysctl_11xx.h **** 	RESET_SSP0,			/*!< SSP0 reset control */
 137:../../lib/lpc11cx4-library/lpc_chip_11cxx_lib/inc/sysctl_11xx.h **** 	RESET_I2C0,			/*!< I2C0 reset control */
 138:../../lib/lpc11cx4-library/lpc_chip_11cxx_lib/inc/sysctl_11xx.h **** 	RESET_SSP1,			/*!< SSP1 reset control */
 139:../../lib/lpc11cx4-library/lpc_chip_11cxx_lib/inc/sysctl_11xx.h **** #if !defined(CHIP_LPC1125)
 140:../../lib/lpc11cx4-library/lpc_chip_11cxx_lib/inc/sysctl_11xx.h **** 	RESET_CAN0,			/*!< CAN0 reset control */
 141:../../lib/lpc11cx4-library/lpc_chip_11cxx_lib/inc/sysctl_11xx.h **** 	RESET_UART0,		/*!< UART0 reset control */
 142:../../lib/lpc11cx4-library/lpc_chip_11cxx_lib/inc/sysctl_11xx.h **** 	RESET_TIMER0_16,	/*!< 16-bit Timer 0 reset control */
 143:../../lib/lpc11cx4-library/lpc_chip_11cxx_lib/inc/sysctl_11xx.h **** 	RESET_TIMER1_16,	/*!< 16-bit Timer 1 reset control */
 144:../../lib/lpc11cx4-library/lpc_chip_11cxx_lib/inc/sysctl_11xx.h **** 	RESET_TIMER0_32,	/*!< 32-bit Timer 0 reset control */
 145:../../lib/lpc11cx4-library/lpc_chip_11cxx_lib/inc/sysctl_11xx.h **** 	RESET_TIMER1_32,	/*!< 32-bit Timer 1 reset control */
 146:../../lib/lpc11cx4-library/lpc_chip_11cxx_lib/inc/sysctl_11xx.h **** 	RESET_ACMP,			/*!< Analog comparator reset control */
ARM GAS  /var/folders/z0/6xlwn_996xz3mwq1cgzkbq4r0000gp/T//ccjakVr1.s 			page 22


 147:../../lib/lpc11cx4-library/lpc_chip_11cxx_lib/inc/sysctl_11xx.h **** 	RESET_DAC0,			/*!< DAC reset control */
 148:../../lib/lpc11cx4-library/lpc_chip_11cxx_lib/inc/sysctl_11xx.h **** 	RESET_ADC0			/*!< ADC reset control */
 149:../../lib/lpc11cx4-library/lpc_chip_11cxx_lib/inc/sysctl_11xx.h **** #endif
 150:../../lib/lpc11cx4-library/lpc_chip_11cxx_lib/inc/sysctl_11xx.h **** } CHIP_SYSCTL_PERIPH_RESET_T;
 151:../../lib/lpc11cx4-library/lpc_chip_11cxx_lib/inc/sysctl_11xx.h **** 
 152:../../lib/lpc11cx4-library/lpc_chip_11cxx_lib/inc/sysctl_11xx.h **** /**
 153:../../lib/lpc11cx4-library/lpc_chip_11cxx_lib/inc/sysctl_11xx.h ****  * @brief	Assert reset for a peripheral
 154:../../lib/lpc11cx4-library/lpc_chip_11cxx_lib/inc/sysctl_11xx.h ****  * @param	periph	: Peripheral to assert reset for
 155:../../lib/lpc11cx4-library/lpc_chip_11cxx_lib/inc/sysctl_11xx.h ****  * @return	Nothing
 156:../../lib/lpc11cx4-library/lpc_chip_11cxx_lib/inc/sysctl_11xx.h ****  * @note	The peripheral will stay in reset until reset is de-asserted. Call
 157:../../lib/lpc11cx4-library/lpc_chip_11cxx_lib/inc/sysctl_11xx.h ****  * Chip_SYSCTL_DeassertPeriphReset() to de-assert the reset.
 158:../../lib/lpc11cx4-library/lpc_chip_11cxx_lib/inc/sysctl_11xx.h ****  */
 159:../../lib/lpc11cx4-library/lpc_chip_11cxx_lib/inc/sysctl_11xx.h **** STATIC INLINE void Chip_SYSCTL_AssertPeriphReset(CHIP_SYSCTL_PERIPH_RESET_T periph)
 160:../../lib/lpc11cx4-library/lpc_chip_11cxx_lib/inc/sysctl_11xx.h **** {
 161:../../lib/lpc11cx4-library/lpc_chip_11cxx_lib/inc/sysctl_11xx.h **** 	LPC_SYSCTL->PRESETCTRL &= ~(1 << (uint32_t) periph);
 549              		.loc 3 161 0
 550 000a 0822     		movs	r2, #8	@ tmp124,
 551 000c 054B     		ldr	r3, .L47+4	@ tmp123,
 552              	.LBE35:
 553              	.LBE34:
 554              	.LBE33:
  83:../../lib/lpc11cx4-library/evt_lib/src/can.c ****     }
 555              		.loc 1 83 0
 556 000e 0130     		adds	r0, r0, #1	@ D.6980,
 557              	.LBB40:
 558              	.LBB37:
 559              	.LBB36:
 560              		.loc 3 161 0
 561 0010 5968     		ldr	r1, [r3, #4]	@ D.6981, MEM[(struct LPC_SYSCTL_T *)1074036736B].PRESETCTRL
 562 0012 9143     		bics	r1, r2	@ D.6981, tmp124
 563 0014 5960     		str	r1, [r3, #4]	@ D.6981, MEM[(struct LPC_SYSCTL_T *)1074036736B].PRESETCTRL
 564              	.LVL35:
 565              	.LBE36:
 566              	.LBE37:
 567              	.LBB38:
 568              	.LBB39:
 162:../../lib/lpc11cx4-library/lpc_chip_11cxx_lib/inc/sysctl_11xx.h **** }
 163:../../lib/lpc11cx4-library/lpc_chip_11cxx_lib/inc/sysctl_11xx.h **** 
 164:../../lib/lpc11cx4-library/lpc_chip_11cxx_lib/inc/sysctl_11xx.h **** /**
 165:../../lib/lpc11cx4-library/lpc_chip_11cxx_lib/inc/sysctl_11xx.h ****  * @brief	De-assert reset for a peripheral
 166:../../lib/lpc11cx4-library/lpc_chip_11cxx_lib/inc/sysctl_11xx.h ****  * @param	periph	: Peripheral to de-assert reset for
 167:../../lib/lpc11cx4-library/lpc_chip_11cxx_lib/inc/sysctl_11xx.h ****  * @return	Nothing
 168:../../lib/lpc11cx4-library/lpc_chip_11cxx_lib/inc/sysctl_11xx.h ****  */
 169:../../lib/lpc11cx4-library/lpc_chip_11cxx_lib/inc/sysctl_11xx.h **** STATIC INLINE void Chip_SYSCTL_DeassertPeriphReset(CHIP_SYSCTL_PERIPH_RESET_T periph)
 170:../../lib/lpc11cx4-library/lpc_chip_11cxx_lib/inc/sysctl_11xx.h **** {
 171:../../lib/lpc11cx4-library/lpc_chip_11cxx_lib/inc/sysctl_11xx.h **** 	LPC_SYSCTL->PRESETCTRL |= (1 << (uint32_t) periph);
 569              		.loc 3 171 0
 570 0016 5968     		ldr	r1, [r3, #4]	@ D.6981, MEM[(struct LPC_SYSCTL_T *)1074036736B].PRESETCTRL
 571 0018 0A43     		orrs	r2, r1	@ D.6981, D.6981
 572 001a 5A60     		str	r2, [r3, #4]	@ D.6981, MEM[(struct LPC_SYSCTL_T *)1074036736B].PRESETCTRL
 573              	.LVL36:
 574              	.L44:
 575              	.LBE39:
 576              	.LBE38:
 577              	.LBE40:
  86:../../lib/lpc11cx4-library/evt_lib/src/can.c **** 
 578              		.loc 1 86 0
ARM GAS  /var/folders/z0/6xlwn_996xz3mwq1cgzkbq4r0000gp/T//ccjakVr1.s 			page 23


 579              		@ sp needed	@
 580 001c 7047     		bx	lr
 581              	.L48:
 582 001e C046     		.align	2
 583              	.L47:
 584 0020 00000540 		.word	1074069504
 585 0024 00800440 		.word	1074036736
 586              		.cfi_endproc
 587              	.LFE202:
 588              		.size	CAN_ResetPeripheral, .-CAN_ResetPeripheral
 589              		.section	.text.Convert_To_CAN_Error,"ax",%progbits
 590              		.align	2
 591              		.global	Convert_To_CAN_Error
 592              		.code	16
 593              		.thumb_func
 594              		.type	Convert_To_CAN_Error, %function
 595              	Convert_To_CAN_Error:
 596              	.LFB203:
  88:../../lib/lpc11cx4-library/evt_lib/src/can.c **** 	if (!can_error) return NO_CAN_ERROR;
 597              		.loc 1 88 0
 598              		.cfi_startproc
 599              		@ args = 0, pretend = 0, frame = 0
 600              		@ frame_needed = 0, uses_anonymous_args = 0
 601              		@ link register save eliminated.
 602              	.LVL37:
  88:../../lib/lpc11cx4-library/evt_lib/src/can.c **** 	if (!can_error) return NO_CAN_ERROR;
 603              		.loc 1 88 0
 604 0000 0200     		movs	r2, r0	@ can_error, can_error
  89:../../lib/lpc11cx4-library/evt_lib/src/can.c ****     switch(can_error & 0x6) {
 605              		.loc 1 89 0
 606 0002 0020     		movs	r0, #0	@ D.6991,
 607              	.LVL38:
 608 0004 002A     		cmp	r2, #0	@ can_error,
 609 0006 0FD0     		beq	.L50	@,
  90:../../lib/lpc11cx4-library/evt_lib/src/can.c ****        case 0x1: return STUF_CAN_ERROR;
 610              		.loc 1 90 0
 611 0008 0623     		movs	r3, #6	@ tmp114,
 612 000a 0F49     		ldr	r1, .L63	@ tmp118,
 613 000c 1340     		ands	r3, r2	@ D.6992, can_error
 614 000e 9B00     		lsls	r3, r3, #2	@ tmp116, D.6992,
 615 0010 CB58     		ldr	r3, [r1, r3]	@ tmp119,
 616 0012 9F46     		mov	pc, r3	@ tmp119
 617              		.section	.rodata.Convert_To_CAN_Error,"a",%progbits
 618              		.align	2
 619              	.L52:
 620 0000 14000000 		.word	.L51
 621 0004 2A000000 		.word	.L59
 622 0008 2E000000 		.word	.L53
 623 000c 32000000 		.word	.L54
 624 0010 36000000 		.word	.L55
 625 0014 3A000000 		.word	.L56
 626 0018 3E000000 		.word	.L57
 627              		.section	.text.Convert_To_CAN_Error
 628              	.L51:
 629              	.LVL39:
 630              	.LBB43:
 631              	.LBB44:
ARM GAS  /var/folders/z0/6xlwn_996xz3mwq1cgzkbq4r0000gp/T//ccjakVr1.s 			page 24


  99:../../lib/lpc11cx4-library/evt_lib/src/can.c ****     if (can_error == 0x800) return RX_BUFFER_FULL_CAN_ERROR;
 632              		.loc 1 99 0
 633 0014 8023     		movs	r3, #128	@ tmp120,
 634 0016 0C20     		movs	r0, #12	@ D.6991,
 635 0018 DB00     		lsls	r3, r3, #3	@ tmp120, tmp120,
 636 001a 9A42     		cmp	r2, r3	@ can_error, tmp120
 637 001c 04D0     		beq	.L50	@,
 100:../../lib/lpc11cx4-library/evt_lib/src/can.c ****     return UNRECOGNIZED_ERROR_CODE;
 638              		.loc 1 100 0
 639 001e 8023     		movs	r3, #128	@ tmp121,
 640 0020 1B01     		lsls	r3, r3, #4	@ tmp121, tmp121,
 641 0022 9A42     		cmp	r2, r3	@ can_error, tmp121
 642 0024 0DD0     		beq	.L61	@,
 101:../../lib/lpc11cx4-library/evt_lib/src/can.c **** }
 643              		.loc 1 101 0
 644 0026 0130     		adds	r0, r0, #1	@ D.6991,
 645              	.LVL40:
 646              	.L50:
 647              	.LBE44:
 648              	.LBE43:
 102:../../lib/lpc11cx4-library/evt_lib/src/can.c **** 
 649              		.loc 1 102 0
 650              		@ sp needed	@
 651 0028 7047     		bx	lr
 652              	.L59:
  91:../../lib/lpc11cx4-library/evt_lib/src/can.c ****        case 0x2: return FORM_CAN_ERROR;
 653              		.loc 1 91 0
 654 002a 0520     		movs	r0, #5	@ D.6991,
 655 002c FCE7     		b	.L50	@
 656              	.L53:
  92:../../lib/lpc11cx4-library/evt_lib/src/can.c ****        case 0x3: return ACK_CAN_ERROR;
 657              		.loc 1 92 0
 658 002e 0620     		movs	r0, #6	@ D.6991,
 659 0030 FAE7     		b	.L50	@
 660              	.L54:
  93:../../lib/lpc11cx4-library/evt_lib/src/can.c ****        case 0x4: return BIT1_CAN_ERROR;
 661              		.loc 1 93 0
 662 0032 0720     		movs	r0, #7	@ D.6991,
 663 0034 F8E7     		b	.L50	@
 664              	.L55:
  94:../../lib/lpc11cx4-library/evt_lib/src/can.c ****        case 0x5: return BIT0_CAN_ERROR;
 665              		.loc 1 94 0
 666 0036 0820     		movs	r0, #8	@ D.6991,
 667 0038 F6E7     		b	.L50	@
 668              	.L56:
  95:../../lib/lpc11cx4-library/evt_lib/src/can.c ****        case 0x6: return CRC_CAN_ERROR;
 669              		.loc 1 95 0
 670 003a 0920     		movs	r0, #9	@ D.6991,
 671 003c F4E7     		b	.L50	@
 672              	.L57:
  96:../../lib/lpc11cx4-library/evt_lib/src/can.c ****        case 0x7: return UNUSED_CAN_ERROR;
 673              		.loc 1 96 0
 674 003e 0A20     		movs	r0, #10	@ D.6991,
 675 0040 F2E7     		b	.L50	@
 676              	.LVL41:
 677              	.L61:
 678              	.LBB46:
ARM GAS  /var/folders/z0/6xlwn_996xz3mwq1cgzkbq4r0000gp/T//ccjakVr1.s 			page 25


 679              	.LBB45:
 100:../../lib/lpc11cx4-library/evt_lib/src/can.c ****     return UNRECOGNIZED_ERROR_CODE;
 680              		.loc 1 100 0
 681 0042 0F20     		movs	r0, #15	@ D.6991,
 682 0044 F0E7     		b	.L50	@
 683              	.L64:
 684 0046 C046     		.align	2
 685              	.L63:
 686 0048 00000000 		.word	.L52
 687              	.LBE45:
 688              	.LBE46:
 689              		.cfi_endproc
 690              	.LFE203:
 691              		.size	Convert_To_CAN_Error, .-Convert_To_CAN_Error
 692              		.section	.text.CAN_IRQHandler,"ax",%progbits
 693              		.align	2
 694              		.global	CAN_IRQHandler
 695              		.code	16
 696              		.thumb_func
 697              		.type	CAN_IRQHandler, %function
 698              	CAN_IRQHandler:
 699              	.LFB207:
 141:../../lib/lpc11cx4-library/evt_lib/src/can.c **** 
 142:../../lib/lpc11cx4-library/evt_lib/src/can.c **** /**
 143:../../lib/lpc11cx4-library/evt_lib/src/can.c ****  * @brief	CCAN Interrupt Handler
 144:../../lib/lpc11cx4-library/evt_lib/src/can.c ****  * @return	Nothing
 145:../../lib/lpc11cx4-library/evt_lib/src/can.c ****  * @note	The CCAN interrupt handler must be provided by the user application.
 146:../../lib/lpc11cx4-library/evt_lib/src/can.c ****  *	It's function is to call the isr() API located in the ROM
 147:../../lib/lpc11cx4-library/evt_lib/src/can.c ****  */
 148:../../lib/lpc11cx4-library/evt_lib/src/can.c **** void CAN_IRQHandler(void) {
 700              		.loc 1 148 0
 701              		.cfi_startproc
 702              		@ args = 0, pretend = 0, frame = 0
 703              		@ frame_needed = 0, uses_anonymous_args = 0
 149:../../lib/lpc11cx4-library/evt_lib/src/can.c **** 	LPC_CCAN_API->isr();
 704              		.loc 1 149 0
 705 0000 034B     		ldr	r3, .L66	@ tmp114,
 148:../../lib/lpc11cx4-library/evt_lib/src/can.c **** 	LPC_CCAN_API->isr();
 706              		.loc 1 148 0
 707 0002 10B5     		push	{r4, lr}	@
 708              		.cfi_def_cfa_offset 8
 709              		.cfi_offset 4, -8
 710              		.cfi_offset 14, -4
 711              		.loc 1 149 0
 712 0004 1B68     		ldr	r3, [r3]	@ MEM[(struct LPC_ROM_API_T * *)536813560B], MEM[(struct LPC_ROM_API_T * *)536813560B
 150:../../lib/lpc11cx4-library/evt_lib/src/can.c **** }
 713              		.loc 1 150 0
 714              		@ sp needed	@
 149:../../lib/lpc11cx4-library/evt_lib/src/can.c **** 	LPC_CCAN_API->isr();
 715              		.loc 1 149 0
 716 0006 9B68     		ldr	r3, [r3, #8]	@ _2->candApiBase, _2->candApiBase
 717 0008 5B68     		ldr	r3, [r3, #4]	@ _4->isr, _4->isr
 718 000a 9847     		blx	r3	@ _4->isr
 719              	.LVL42:
 720              		.loc 1 150 0
 721 000c 10BD     		pop	{r4, pc}
 722              	.L67:
ARM GAS  /var/folders/z0/6xlwn_996xz3mwq1cgzkbq4r0000gp/T//ccjakVr1.s 			page 26


 723 000e C046     		.align	2
 724              	.L66:
 725 0010 F81FFF1F 		.word	536813560
 726              		.cfi_endproc
 727              	.LFE207:
 728              		.size	CAN_IRQHandler, .-CAN_IRQHandler
 729              		.section	.text.CAN_SetMask1,"ax",%progbits
 730              		.align	2
 731              		.global	CAN_SetMask1
 732              		.code	16
 733              		.thumb_func
 734              		.type	CAN_SetMask1, %function
 735              	CAN_SetMask1:
 736              	.LFB209:
 151:../../lib/lpc11cx4-library/evt_lib/src/can.c **** 
 152:../../lib/lpc11cx4-library/evt_lib/src/can.c **** void CAN_Init(uint32_t baud_rate) {
 153:../../lib/lpc11cx4-library/evt_lib/src/can.c **** 
 154:../../lib/lpc11cx4-library/evt_lib/src/can.c **** 	RingBuffer_Init(&rx_buffer, _rx_buffer, sizeof(CCAN_MSG_OBJ_T), CAN_BUF_SIZE);
 155:../../lib/lpc11cx4-library/evt_lib/src/can.c **** 	RingBuffer_Flush(&rx_buffer);
 156:../../lib/lpc11cx4-library/evt_lib/src/can.c **** 
 157:../../lib/lpc11cx4-library/evt_lib/src/can.c **** 	RingBuffer_Init(&tx_buffer, _tx_buffer, sizeof(CCAN_MSG_OBJ_T), CAN_BUF_SIZE);
 158:../../lib/lpc11cx4-library/evt_lib/src/can.c **** 	RingBuffer_Flush(&tx_buffer);
 159:../../lib/lpc11cx4-library/evt_lib/src/can.c **** 
 160:../../lib/lpc11cx4-library/evt_lib/src/can.c **** 	uint32_t CanApiClkInitTable[2];
 161:../../lib/lpc11cx4-library/evt_lib/src/can.c **** 	CCAN_CALLBACKS_T callbacks = {
 162:../../lib/lpc11cx4-library/evt_lib/src/can.c **** 		CAN_rx,
 163:../../lib/lpc11cx4-library/evt_lib/src/can.c **** 		CAN_tx,
 164:../../lib/lpc11cx4-library/evt_lib/src/can.c **** 		CAN_error,
 165:../../lib/lpc11cx4-library/evt_lib/src/can.c **** 		NULL,
 166:../../lib/lpc11cx4-library/evt_lib/src/can.c **** 		NULL,
 167:../../lib/lpc11cx4-library/evt_lib/src/can.c **** 		NULL,
 168:../../lib/lpc11cx4-library/evt_lib/src/can.c **** 		NULL,
 169:../../lib/lpc11cx4-library/evt_lib/src/can.c **** 		NULL,
 170:../../lib/lpc11cx4-library/evt_lib/src/can.c **** 	};
 171:../../lib/lpc11cx4-library/evt_lib/src/can.c **** 	Baudrate_Calculate(baud_rate, CanApiClkInitTable);
 172:../../lib/lpc11cx4-library/evt_lib/src/can.c **** 
 173:../../lib/lpc11cx4-library/evt_lib/src/can.c **** 	LPC_CCAN_API->init_can(&CanApiClkInitTable[0], TRUE);
 174:../../lib/lpc11cx4-library/evt_lib/src/can.c **** 	/* Configure the CAN callback functions */
 175:../../lib/lpc11cx4-library/evt_lib/src/can.c **** 	LPC_CCAN_API->config_calb(&callbacks);
 176:../../lib/lpc11cx4-library/evt_lib/src/can.c **** 	/* Enable the CAN Interrupt */
 177:../../lib/lpc11cx4-library/evt_lib/src/can.c **** 	NVIC_EnableIRQ(CAN_IRQn);
 178:../../lib/lpc11cx4-library/evt_lib/src/can.c **** 
 179:../../lib/lpc11cx4-library/evt_lib/src/can.c **** 	/* Configure message objects to accept all messages */
 180:../../lib/lpc11cx4-library/evt_lib/src/can.c **** 	CAN_SetMask1(0, 0);
 181:../../lib/lpc11cx4-library/evt_lib/src/can.c **** 	CAN_SetMask2(0, 0);
 182:../../lib/lpc11cx4-library/evt_lib/src/can.c **** 
 183:../../lib/lpc11cx4-library/evt_lib/src/can.c **** 	can_error_flag = false;
 184:../../lib/lpc11cx4-library/evt_lib/src/can.c **** 	can_error_info = 0;
 185:../../lib/lpc11cx4-library/evt_lib/src/can.c **** 
 186:../../lib/lpc11cx4-library/evt_lib/src/can.c **** 	memset(msg_obj_stat, 0, sizeof(bool)*NUM_MSG_OBJS);
 187:../../lib/lpc11cx4-library/evt_lib/src/can.c **** }
 188:../../lib/lpc11cx4-library/evt_lib/src/can.c **** 
 189:../../lib/lpc11cx4-library/evt_lib/src/can.c **** // ANDs the mask with the input ID and checks if == to mode_id
 190:../../lib/lpc11cx4-library/evt_lib/src/can.c **** void CAN_SetMask1(uint32_t mask, uint32_t mode_id) {
 737              		.loc 1 190 0
 738              		.cfi_startproc
 739              		@ args = 0, pretend = 0, frame = 0
ARM GAS  /var/folders/z0/6xlwn_996xz3mwq1cgzkbq4r0000gp/T//ccjakVr1.s 			page 27


 740              		@ frame_needed = 0, uses_anonymous_args = 0
 741              	.LVL43:
 191:../../lib/lpc11cx4-library/evt_lib/src/can.c **** 	msg_obj.msgobj = 27;
 742              		.loc 1 191 0
 743 0000 1B23     		movs	r3, #27	@ tmp125,
 190:../../lib/lpc11cx4-library/evt_lib/src/can.c **** 	msg_obj.msgobj = 27;
 744              		.loc 1 190 0
 745 0002 70B5     		push	{r4, r5, r6, lr}	@
 746              		.cfi_def_cfa_offset 16
 747              		.cfi_offset 4, -16
 748              		.cfi_offset 5, -12
 749              		.cfi_offset 6, -8
 750              		.cfi_offset 14, -4
 751              		.loc 1 191 0
 752 0004 0C4C     		ldr	r4, .L69	@ tmp124,
 192:../../lib/lpc11cx4-library/evt_lib/src/can.c **** 	msg_obj.mode_id = mode_id;
 193:../../lib/lpc11cx4-library/evt_lib/src/can.c **** 	msg_obj.mask = mask; 
 194:../../lib/lpc11cx4-library/evt_lib/src/can.c **** 	LPC_CCAN_API->config_rxmsgobj(&msg_obj);
 753              		.loc 1 194 0
 754 0006 0D4D     		ldr	r5, .L69+4	@ tmp130,
 191:../../lib/lpc11cx4-library/evt_lib/src/can.c **** 	msg_obj.mode_id = mode_id;
 755              		.loc 1 191 0
 756 0008 6374     		strb	r3, [r4, #17]	@ tmp125, msg_obj.msgobj
 757              		.loc 1 194 0
 758 000a 2B68     		ldr	r3, [r5]	@ MEM[(struct LPC_ROM_API_T * *)536813560B], MEM[(struct LPC_ROM_API_T * *)536813560B
 192:../../lib/lpc11cx4-library/evt_lib/src/can.c **** 	msg_obj.mode_id = mode_id;
 759              		.loc 1 192 0
 760 000c 2160     		str	r1, [r4]	@ mode_id, msg_obj.mode_id
 761              		.loc 1 194 0
 762 000e 9B68     		ldr	r3, [r3, #8]	@ _7->candApiBase, _7->candApiBase
 193:../../lib/lpc11cx4-library/evt_lib/src/can.c **** 	LPC_CCAN_API->config_rxmsgobj(&msg_obj);
 763              		.loc 1 193 0
 764 0010 6060     		str	r0, [r4, #4]	@ mask, msg_obj.mask
 765              		.loc 1 194 0
 766 0012 9B68     		ldr	r3, [r3, #8]	@ _9->config_rxmsgobj, _9->config_rxmsgobj
 767 0014 2000     		movs	r0, r4	@, tmp124
 768              	.LVL44:
 769 0016 9847     		blx	r3	@ _9->config_rxmsgobj
 770              	.LVL45:
 195:../../lib/lpc11cx4-library/evt_lib/src/can.c **** 	msg_obj.msgobj = 28;
 771              		.loc 1 195 0
 772 0018 1C23     		movs	r3, #28	@ tmp135,
 773 001a 6374     		strb	r3, [r4, #17]	@ tmp135, msg_obj.msgobj
 196:../../lib/lpc11cx4-library/evt_lib/src/can.c **** 	LPC_CCAN_API->config_rxmsgobj(&msg_obj);
 774              		.loc 1 196 0
 775 001c 2B68     		ldr	r3, [r5]	@ MEM[(struct LPC_ROM_API_T * *)536813560B], MEM[(struct LPC_ROM_API_T * *)536813560B
 776 001e 2000     		movs	r0, r4	@, tmp124
 777 0020 9B68     		ldr	r3, [r3, #8]	@ _13->candApiBase, _13->candApiBase
 197:../../lib/lpc11cx4-library/evt_lib/src/can.c **** 	msg_obj.msgobj = 29;
 198:../../lib/lpc11cx4-library/evt_lib/src/can.c **** 	LPC_CCAN_API->config_rxmsgobj(&msg_obj);
 199:../../lib/lpc11cx4-library/evt_lib/src/can.c **** }
 778              		.loc 1 199 0
 779              		@ sp needed	@
 196:../../lib/lpc11cx4-library/evt_lib/src/can.c **** 	LPC_CCAN_API->config_rxmsgobj(&msg_obj);
 780              		.loc 1 196 0
 781 0022 9B68     		ldr	r3, [r3, #8]	@ _15->config_rxmsgobj, _15->config_rxmsgobj
 782 0024 9847     		blx	r3	@ _15->config_rxmsgobj
ARM GAS  /var/folders/z0/6xlwn_996xz3mwq1cgzkbq4r0000gp/T//ccjakVr1.s 			page 28


 783              	.LVL46:
 197:../../lib/lpc11cx4-library/evt_lib/src/can.c **** 	msg_obj.msgobj = 29;
 784              		.loc 1 197 0
 785 0026 1D23     		movs	r3, #29	@ tmp143,
 786 0028 6374     		strb	r3, [r4, #17]	@ tmp143, msg_obj.msgobj
 198:../../lib/lpc11cx4-library/evt_lib/src/can.c **** }
 787              		.loc 1 198 0
 788 002a 2B68     		ldr	r3, [r5]	@ MEM[(struct LPC_ROM_API_T * *)536813560B], MEM[(struct LPC_ROM_API_T * *)536813560B
 789 002c 2000     		movs	r0, r4	@, tmp124
 790 002e 9B68     		ldr	r3, [r3, #8]	@ _19->candApiBase, _19->candApiBase
 791 0030 9B68     		ldr	r3, [r3, #8]	@ _21->config_rxmsgobj, _21->config_rxmsgobj
 792 0032 9847     		blx	r3	@ _21->config_rxmsgobj
 793              	.LVL47:
 794              		.loc 1 199 0
 795 0034 70BD     		pop	{r4, r5, r6, pc}
 796              	.L70:
 797 0036 C046     		.align	2
 798              	.L69:
 799 0038 00000000 		.word	msg_obj
 800 003c F81FFF1F 		.word	536813560
 801              		.cfi_endproc
 802              	.LFE209:
 803              		.size	CAN_SetMask1, .-CAN_SetMask1
 804              		.section	.text.CAN_SetMask2,"ax",%progbits
 805              		.align	2
 806              		.global	CAN_SetMask2
 807              		.code	16
 808              		.thumb_func
 809              		.type	CAN_SetMask2, %function
 810              	CAN_SetMask2:
 811              	.LFB210:
 200:../../lib/lpc11cx4-library/evt_lib/src/can.c **** 
 201:../../lib/lpc11cx4-library/evt_lib/src/can.c **** void CAN_SetMask2(uint32_t mask, uint32_t mode_id) {
 812              		.loc 1 201 0
 813              		.cfi_startproc
 814              		@ args = 0, pretend = 0, frame = 0
 815              		@ frame_needed = 0, uses_anonymous_args = 0
 816              	.LVL48:
 202:../../lib/lpc11cx4-library/evt_lib/src/can.c **** 	msg_obj.msgobj = 30;
 817              		.loc 1 202 0
 818 0000 1E23     		movs	r3, #30	@ tmp121,
 201:../../lib/lpc11cx4-library/evt_lib/src/can.c **** 	msg_obj.msgobj = 30;
 819              		.loc 1 201 0
 820 0002 70B5     		push	{r4, r5, r6, lr}	@
 821              		.cfi_def_cfa_offset 16
 822              		.cfi_offset 4, -16
 823              		.cfi_offset 5, -12
 824              		.cfi_offset 6, -8
 825              		.cfi_offset 14, -4
 826              		.loc 1 202 0
 827 0004 084C     		ldr	r4, .L72	@ tmp120,
 203:../../lib/lpc11cx4-library/evt_lib/src/can.c **** 	msg_obj.mode_id = mode_id;
 204:../../lib/lpc11cx4-library/evt_lib/src/can.c **** 	msg_obj.mask = mask; 
 205:../../lib/lpc11cx4-library/evt_lib/src/can.c **** 	LPC_CCAN_API->config_rxmsgobj(&msg_obj);
 828              		.loc 1 205 0
 829 0006 094D     		ldr	r5, .L72+4	@ tmp126,
 202:../../lib/lpc11cx4-library/evt_lib/src/can.c **** 	msg_obj.mode_id = mode_id;
ARM GAS  /var/folders/z0/6xlwn_996xz3mwq1cgzkbq4r0000gp/T//ccjakVr1.s 			page 29


 830              		.loc 1 202 0
 831 0008 6374     		strb	r3, [r4, #17]	@ tmp121, msg_obj.msgobj
 832              		.loc 1 205 0
 833 000a 2B68     		ldr	r3, [r5]	@ MEM[(struct LPC_ROM_API_T * *)536813560B], MEM[(struct LPC_ROM_API_T * *)536813560B
 203:../../lib/lpc11cx4-library/evt_lib/src/can.c **** 	msg_obj.mode_id = mode_id;
 834              		.loc 1 203 0
 835 000c 2160     		str	r1, [r4]	@ mode_id, msg_obj.mode_id
 836              		.loc 1 205 0
 837 000e 9B68     		ldr	r3, [r3, #8]	@ _7->candApiBase, _7->candApiBase
 204:../../lib/lpc11cx4-library/evt_lib/src/can.c **** 	LPC_CCAN_API->config_rxmsgobj(&msg_obj);
 838              		.loc 1 204 0
 839 0010 6060     		str	r0, [r4, #4]	@ mask, msg_obj.mask
 840              		.loc 1 205 0
 841 0012 9B68     		ldr	r3, [r3, #8]	@ _9->config_rxmsgobj, _9->config_rxmsgobj
 842 0014 2000     		movs	r0, r4	@, tmp120
 843              	.LVL49:
 844 0016 9847     		blx	r3	@ _9->config_rxmsgobj
 845              	.LVL50:
 206:../../lib/lpc11cx4-library/evt_lib/src/can.c **** 	msg_obj.msgobj = 31;
 846              		.loc 1 206 0
 847 0018 1F23     		movs	r3, #31	@ tmp131,
 848 001a 6374     		strb	r3, [r4, #17]	@ tmp131, msg_obj.msgobj
 207:../../lib/lpc11cx4-library/evt_lib/src/can.c **** 	LPC_CCAN_API->config_rxmsgobj(&msg_obj);
 849              		.loc 1 207 0
 850 001c 2B68     		ldr	r3, [r5]	@ MEM[(struct LPC_ROM_API_T * *)536813560B], MEM[(struct LPC_ROM_API_T * *)536813560B
 851 001e 2000     		movs	r0, r4	@, tmp120
 852 0020 9B68     		ldr	r3, [r3, #8]	@ _13->candApiBase, _13->candApiBase
 208:../../lib/lpc11cx4-library/evt_lib/src/can.c **** }
 853              		.loc 1 208 0
 854              		@ sp needed	@
 207:../../lib/lpc11cx4-library/evt_lib/src/can.c **** 	LPC_CCAN_API->config_rxmsgobj(&msg_obj);
 855              		.loc 1 207 0
 856 0022 9B68     		ldr	r3, [r3, #8]	@ _15->config_rxmsgobj, _15->config_rxmsgobj
 857 0024 9847     		blx	r3	@ _15->config_rxmsgobj
 858              	.LVL51:
 859              		.loc 1 208 0
 860 0026 70BD     		pop	{r4, r5, r6, pc}
 861              	.L73:
 862              		.align	2
 863              	.L72:
 864 0028 00000000 		.word	msg_obj
 865 002c F81FFF1F 		.word	536813560
 866              		.cfi_endproc
 867              	.LFE210:
 868              		.size	CAN_SetMask2, .-CAN_SetMask2
 869              		.section	.text.CAN_Init,"ax",%progbits
 870              		.align	2
 871              		.global	CAN_Init
 872              		.code	16
 873              		.thumb_func
 874              		.type	CAN_Init, %function
 875              	CAN_Init:
 876              	.LFB208:
 152:../../lib/lpc11cx4-library/evt_lib/src/can.c **** 
 877              		.loc 1 152 0
 878              		.cfi_startproc
 879              		@ args = 0, pretend = 0, frame = 40
ARM GAS  /var/folders/z0/6xlwn_996xz3mwq1cgzkbq4r0000gp/T//ccjakVr1.s 			page 30


 880              		@ frame_needed = 0, uses_anonymous_args = 0
 881              	.LVL52:
 882 0000 F0B5     		push	{r4, r5, r6, r7, lr}	@
 883              		.cfi_def_cfa_offset 20
 884              		.cfi_offset 4, -20
 885              		.cfi_offset 5, -16
 886              		.cfi_offset 6, -12
 887              		.cfi_offset 7, -8
 888              		.cfi_offset 14, -4
 889              	.LBB47:
 890              	.LBB48:
 891              		.file 4 "../../lib/lpc11cx4-library/lpc_chip_11cxx_lib/inc/ring_buffer.h"
   1:../../lib/lpc11cx4-library/lpc_chip_11cxx_lib/inc/ring_buffer.h **** /*
   2:../../lib/lpc11cx4-library/lpc_chip_11cxx_lib/inc/ring_buffer.h ****  * @brief Common ring buffer support functions
   3:../../lib/lpc11cx4-library/lpc_chip_11cxx_lib/inc/ring_buffer.h ****  *
   4:../../lib/lpc11cx4-library/lpc_chip_11cxx_lib/inc/ring_buffer.h ****  * @note
   5:../../lib/lpc11cx4-library/lpc_chip_11cxx_lib/inc/ring_buffer.h ****  * Copyright(C) NXP Semiconductors, 2012
   6:../../lib/lpc11cx4-library/lpc_chip_11cxx_lib/inc/ring_buffer.h ****  * All rights reserved.
   7:../../lib/lpc11cx4-library/lpc_chip_11cxx_lib/inc/ring_buffer.h ****  *
   8:../../lib/lpc11cx4-library/lpc_chip_11cxx_lib/inc/ring_buffer.h ****  * @par
   9:../../lib/lpc11cx4-library/lpc_chip_11cxx_lib/inc/ring_buffer.h ****  * Software that is described herein is for illustrative purposes only
  10:../../lib/lpc11cx4-library/lpc_chip_11cxx_lib/inc/ring_buffer.h ****  * which provides customers with programming information regarding the
  11:../../lib/lpc11cx4-library/lpc_chip_11cxx_lib/inc/ring_buffer.h ****  * LPC products.  This software is supplied "AS IS" without any warranties of
  12:../../lib/lpc11cx4-library/lpc_chip_11cxx_lib/inc/ring_buffer.h ****  * any kind, and NXP Semiconductors and its licensor disclaim any and
  13:../../lib/lpc11cx4-library/lpc_chip_11cxx_lib/inc/ring_buffer.h ****  * all warranties, express or implied, including all implied warranties of
  14:../../lib/lpc11cx4-library/lpc_chip_11cxx_lib/inc/ring_buffer.h ****  * merchantability, fitness for a particular purpose and non-infringement of
  15:../../lib/lpc11cx4-library/lpc_chip_11cxx_lib/inc/ring_buffer.h ****  * intellectual property rights.  NXP Semiconductors assumes no responsibility
  16:../../lib/lpc11cx4-library/lpc_chip_11cxx_lib/inc/ring_buffer.h ****  * or liability for the use of the software, conveys no license or rights under any
  17:../../lib/lpc11cx4-library/lpc_chip_11cxx_lib/inc/ring_buffer.h ****  * patent, copyright, mask work right, or any other intellectual property rights in
  18:../../lib/lpc11cx4-library/lpc_chip_11cxx_lib/inc/ring_buffer.h ****  * or to any products. NXP Semiconductors reserves the right to make changes
  19:../../lib/lpc11cx4-library/lpc_chip_11cxx_lib/inc/ring_buffer.h ****  * in the software without notification. NXP Semiconductors also makes no
  20:../../lib/lpc11cx4-library/lpc_chip_11cxx_lib/inc/ring_buffer.h ****  * representation or warranty that such application will be suitable for the
  21:../../lib/lpc11cx4-library/lpc_chip_11cxx_lib/inc/ring_buffer.h ****  * specified use without further testing or modification.
  22:../../lib/lpc11cx4-library/lpc_chip_11cxx_lib/inc/ring_buffer.h ****  *
  23:../../lib/lpc11cx4-library/lpc_chip_11cxx_lib/inc/ring_buffer.h ****  * @par
  24:../../lib/lpc11cx4-library/lpc_chip_11cxx_lib/inc/ring_buffer.h ****  * Permission to use, copy, modify, and distribute this software and its
  25:../../lib/lpc11cx4-library/lpc_chip_11cxx_lib/inc/ring_buffer.h ****  * documentation is hereby granted, under NXP Semiconductors' and its
  26:../../lib/lpc11cx4-library/lpc_chip_11cxx_lib/inc/ring_buffer.h ****  * licensor's relevant copyrights in the software, without fee, provided that it
  27:../../lib/lpc11cx4-library/lpc_chip_11cxx_lib/inc/ring_buffer.h ****  * is used in conjunction with NXP Semiconductors microcontrollers.  This
  28:../../lib/lpc11cx4-library/lpc_chip_11cxx_lib/inc/ring_buffer.h ****  * copyright, permission, and disclaimer notice must appear in all copies of
  29:../../lib/lpc11cx4-library/lpc_chip_11cxx_lib/inc/ring_buffer.h ****  * this code.
  30:../../lib/lpc11cx4-library/lpc_chip_11cxx_lib/inc/ring_buffer.h ****  */
  31:../../lib/lpc11cx4-library/lpc_chip_11cxx_lib/inc/ring_buffer.h **** 
  32:../../lib/lpc11cx4-library/lpc_chip_11cxx_lib/inc/ring_buffer.h **** #ifndef __RING_BUFFER_H_
  33:../../lib/lpc11cx4-library/lpc_chip_11cxx_lib/inc/ring_buffer.h **** #define __RING_BUFFER_H_
  34:../../lib/lpc11cx4-library/lpc_chip_11cxx_lib/inc/ring_buffer.h **** 
  35:../../lib/lpc11cx4-library/lpc_chip_11cxx_lib/inc/ring_buffer.h **** #include "lpc_types.h"
  36:../../lib/lpc11cx4-library/lpc_chip_11cxx_lib/inc/ring_buffer.h **** 
  37:../../lib/lpc11cx4-library/lpc_chip_11cxx_lib/inc/ring_buffer.h **** /** @defgroup Ring_Buffer CHIP: Simple ring buffer implementation
  38:../../lib/lpc11cx4-library/lpc_chip_11cxx_lib/inc/ring_buffer.h ****  * @ingroup CHIP_Common
  39:../../lib/lpc11cx4-library/lpc_chip_11cxx_lib/inc/ring_buffer.h ****  * @{
  40:../../lib/lpc11cx4-library/lpc_chip_11cxx_lib/inc/ring_buffer.h ****  */
  41:../../lib/lpc11cx4-library/lpc_chip_11cxx_lib/inc/ring_buffer.h **** 
  42:../../lib/lpc11cx4-library/lpc_chip_11cxx_lib/inc/ring_buffer.h **** /**
  43:../../lib/lpc11cx4-library/lpc_chip_11cxx_lib/inc/ring_buffer.h ****  * @brief Ring buffer structure
  44:../../lib/lpc11cx4-library/lpc_chip_11cxx_lib/inc/ring_buffer.h ****  */
  45:../../lib/lpc11cx4-library/lpc_chip_11cxx_lib/inc/ring_buffer.h **** typedef struct {
ARM GAS  /var/folders/z0/6xlwn_996xz3mwq1cgzkbq4r0000gp/T//ccjakVr1.s 			page 31


  46:../../lib/lpc11cx4-library/lpc_chip_11cxx_lib/inc/ring_buffer.h **** 	void *data;
  47:../../lib/lpc11cx4-library/lpc_chip_11cxx_lib/inc/ring_buffer.h **** 	uint32_t count;
  48:../../lib/lpc11cx4-library/lpc_chip_11cxx_lib/inc/ring_buffer.h **** 	uint32_t itemSz;
  49:../../lib/lpc11cx4-library/lpc_chip_11cxx_lib/inc/ring_buffer.h **** 	uint32_t head;
  50:../../lib/lpc11cx4-library/lpc_chip_11cxx_lib/inc/ring_buffer.h **** 	uint32_t tail;
  51:../../lib/lpc11cx4-library/lpc_chip_11cxx_lib/inc/ring_buffer.h **** } RINGBUFF_T;
  52:../../lib/lpc11cx4-library/lpc_chip_11cxx_lib/inc/ring_buffer.h **** 
  53:../../lib/lpc11cx4-library/lpc_chip_11cxx_lib/inc/ring_buffer.h **** /**
  54:../../lib/lpc11cx4-library/lpc_chip_11cxx_lib/inc/ring_buffer.h ****  * @def		RB_VHEAD(rb)
  55:../../lib/lpc11cx4-library/lpc_chip_11cxx_lib/inc/ring_buffer.h ****  * volatile typecasted head index
  56:../../lib/lpc11cx4-library/lpc_chip_11cxx_lib/inc/ring_buffer.h ****  */
  57:../../lib/lpc11cx4-library/lpc_chip_11cxx_lib/inc/ring_buffer.h **** // #define RB_VHEAD(rb)              (*(volatile uint32_t *) &(rb)->head)
  58:../../lib/lpc11cx4-library/lpc_chip_11cxx_lib/inc/ring_buffer.h **** #define RB_VHEAD(rb)				((volatile uint32_t)(rb->head))
  59:../../lib/lpc11cx4-library/lpc_chip_11cxx_lib/inc/ring_buffer.h **** 
  60:../../lib/lpc11cx4-library/lpc_chip_11cxx_lib/inc/ring_buffer.h **** /**
  61:../../lib/lpc11cx4-library/lpc_chip_11cxx_lib/inc/ring_buffer.h ****  * @def		RB_VTAIL(rb)
  62:../../lib/lpc11cx4-library/lpc_chip_11cxx_lib/inc/ring_buffer.h ****  * volatile typecasted tail index
  63:../../lib/lpc11cx4-library/lpc_chip_11cxx_lib/inc/ring_buffer.h ****  */
  64:../../lib/lpc11cx4-library/lpc_chip_11cxx_lib/inc/ring_buffer.h **** // #define RB_VTAIL(rb)              (*(volatile uint32_t *) &(rb)->tail)
  65:../../lib/lpc11cx4-library/lpc_chip_11cxx_lib/inc/ring_buffer.h **** #define RB_VTAIL(rb)				((volatile uint32_t)(rb->tail))
  66:../../lib/lpc11cx4-library/lpc_chip_11cxx_lib/inc/ring_buffer.h **** 
  67:../../lib/lpc11cx4-library/lpc_chip_11cxx_lib/inc/ring_buffer.h **** /**
  68:../../lib/lpc11cx4-library/lpc_chip_11cxx_lib/inc/ring_buffer.h ****  * @brief	Initialize ring buffer
  69:../../lib/lpc11cx4-library/lpc_chip_11cxx_lib/inc/ring_buffer.h ****  * @param	RingBuff	: Pointer to ring buffer to initialize
  70:../../lib/lpc11cx4-library/lpc_chip_11cxx_lib/inc/ring_buffer.h ****  * @param	buffer		: Pointer to buffer to associate with RingBuff
  71:../../lib/lpc11cx4-library/lpc_chip_11cxx_lib/inc/ring_buffer.h ****  * @param	itemSize	: Size of each buffer item size
  72:../../lib/lpc11cx4-library/lpc_chip_11cxx_lib/inc/ring_buffer.h ****  * @param	count		: Size of ring buffer
  73:../../lib/lpc11cx4-library/lpc_chip_11cxx_lib/inc/ring_buffer.h ****  * @note	Memory pointed by @a buffer must have correct alignment of
  74:../../lib/lpc11cx4-library/lpc_chip_11cxx_lib/inc/ring_buffer.h ****  * 			@a itemSize, and @a count must be a power of 2 and must at
  75:../../lib/lpc11cx4-library/lpc_chip_11cxx_lib/inc/ring_buffer.h ****  * 			least be 2 or greater.
  76:../../lib/lpc11cx4-library/lpc_chip_11cxx_lib/inc/ring_buffer.h ****  * @return	Nothing
  77:../../lib/lpc11cx4-library/lpc_chip_11cxx_lib/inc/ring_buffer.h ****  */
  78:../../lib/lpc11cx4-library/lpc_chip_11cxx_lib/inc/ring_buffer.h **** int RingBuffer_Init(RINGBUFF_T *RingBuff, void *buffer, uint32_t itemSize, uint32_t count);
  79:../../lib/lpc11cx4-library/lpc_chip_11cxx_lib/inc/ring_buffer.h **** 
  80:../../lib/lpc11cx4-library/lpc_chip_11cxx_lib/inc/ring_buffer.h **** /**
  81:../../lib/lpc11cx4-library/lpc_chip_11cxx_lib/inc/ring_buffer.h ****  * @brief	Resets the ring buffer to empty
  82:../../lib/lpc11cx4-library/lpc_chip_11cxx_lib/inc/ring_buffer.h ****  * @param	RingBuff	: Pointer to ring buffer
  83:../../lib/lpc11cx4-library/lpc_chip_11cxx_lib/inc/ring_buffer.h ****  * @return	Nothing
  84:../../lib/lpc11cx4-library/lpc_chip_11cxx_lib/inc/ring_buffer.h ****  */
  85:../../lib/lpc11cx4-library/lpc_chip_11cxx_lib/inc/ring_buffer.h **** STATIC INLINE void RingBuffer_Flush(RINGBUFF_T *RingBuff)
  86:../../lib/lpc11cx4-library/lpc_chip_11cxx_lib/inc/ring_buffer.h **** {
  87:../../lib/lpc11cx4-library/lpc_chip_11cxx_lib/inc/ring_buffer.h **** 	RingBuff->head = RingBuff->tail = 0;
 892              		.loc 4 87 0
 893 0002 0024     		movs	r4, #0	@ tmp122,
 894              	.LBE48:
 895              	.LBE47:
 154:../../lib/lpc11cx4-library/evt_lib/src/can.c **** 	RingBuffer_Flush(&rx_buffer);
 896              		.loc 1 154 0
 897 0004 204D     		ldr	r5, .L75	@ tmp120,
 152:../../lib/lpc11cx4-library/evt_lib/src/can.c **** 
 898              		.loc 1 152 0
 899 0006 8BB0     		sub	sp, sp, #44	@,,
 900              		.cfi_def_cfa_offset 64
 152:../../lib/lpc11cx4-library/evt_lib/src/can.c **** 
 901              		.loc 1 152 0
 902 0008 0600     		movs	r6, r0	@ baud_rate, baud_rate
 154:../../lib/lpc11cx4-library/evt_lib/src/can.c **** 	RingBuffer_Flush(&rx_buffer);
ARM GAS  /var/folders/z0/6xlwn_996xz3mwq1cgzkbq4r0000gp/T//ccjakVr1.s 			page 32


 903              		.loc 1 154 0
 904 000a 1023     		movs	r3, #16	@,
 905 000c 1822     		movs	r2, #24	@,
 906 000e 1F49     		ldr	r1, .L75+4	@,
 907 0010 2800     		movs	r0, r5	@, tmp120
 908              	.LVL53:
 909 0012 FFF7FEFF 		bl	RingBuffer_Init	@
 910              	.LVL54:
 911              	.LBB50:
 912              	.LBB49:
 913              		.loc 4 87 0
 914 0016 2C61     		str	r4, [r5, #16]	@ tmp122, MEM[(uint32_t *)&rx_buffer + 16B]
 915 0018 EC60     		str	r4, [r5, #12]	@ tmp122, MEM[(uint32_t *)&rx_buffer + 12B]
 916              	.LBE49:
 917              	.LBE50:
 157:../../lib/lpc11cx4-library/evt_lib/src/can.c **** 	RingBuffer_Flush(&tx_buffer);
 918              		.loc 1 157 0
 919 001a 1D4D     		ldr	r5, .L75+8	@ tmp126,
 920 001c 1D49     		ldr	r1, .L75+12	@,
 921 001e 1023     		movs	r3, #16	@,
 922 0020 1822     		movs	r2, #24	@,
 923 0022 2800     		movs	r0, r5	@, tmp126
 924 0024 FFF7FEFF 		bl	RingBuffer_Init	@
 925              	.LVL55:
 926              	.LBB51:
 927              	.LBB52:
 928              		.loc 4 87 0
 929 0028 2C61     		str	r4, [r5, #16]	@ tmp122, MEM[(uint32_t *)&tx_buffer + 16B]
 930 002a EC60     		str	r4, [r5, #12]	@ tmp122, MEM[(uint32_t *)&tx_buffer + 12B]
 931              	.LBE52:
 932              	.LBE51:
 161:../../lib/lpc11cx4-library/evt_lib/src/can.c **** 		CAN_rx,
 933              		.loc 1 161 0
 934 002c 02AD     		add	r5, sp, #8	@ tmp131,,
 935 002e 2A00     		movs	r2, r5	@ tmp133, tmp131
 936 0030 194B     		ldr	r3, .L75+16	@ tmp132,
 937 0032 83CB     		ldmia	r3!, {r0, r1, r7}	@ tmp134, tmp158, tmp157, tmp159
 938 0034 83C2     		stmia	r2!, {r0, r1, r7}	@ tmp133, tmp158, tmp157, tmp159
 939 0036 83CB     		ldmia	r3!, {r0, r1, r7}	@ tmp134, tmp161, tmp160, tmp162
 940 0038 83C2     		stmia	r2!, {r0, r1, r7}	@ tmp133, tmp161, tmp160, tmp162
 941 003a 03CB     		ldmia	r3!, {r0, r1}	@ tmp134, tmp164, tmp163
 942 003c 03C2     		stmia	r2!, {r0, r1}	@ tmp133, tmp164, tmp163
 171:../../lib/lpc11cx4-library/evt_lib/src/can.c **** 
 943              		.loc 1 171 0
 944 003e 3000     		movs	r0, r6	@, baud_rate
 173:../../lib/lpc11cx4-library/evt_lib/src/can.c **** 	/* Configure the CAN callback functions */
 945              		.loc 1 173 0
 946 0040 164E     		ldr	r6, .L75+20	@ tmp137,
 947              	.LVL56:
 171:../../lib/lpc11cx4-library/evt_lib/src/can.c **** 
 948              		.loc 1 171 0
 949 0042 6946     		mov	r1, sp	@,
 950 0044 FFF7FEFF 		bl	Baudrate_Calculate	@
 951              	.LVL57:
 173:../../lib/lpc11cx4-library/evt_lib/src/can.c **** 	/* Configure the CAN callback functions */
 952              		.loc 1 173 0
 953 0048 3368     		ldr	r3, [r6]	@ MEM[(struct LPC_ROM_API_T * *)536813560B], MEM[(struct LPC_ROM_API_T * *)536813560B
ARM GAS  /var/folders/z0/6xlwn_996xz3mwq1cgzkbq4r0000gp/T//ccjakVr1.s 			page 33


 954 004a 0121     		movs	r1, #1	@,
 955 004c 9B68     		ldr	r3, [r3, #8]	@ _9->candApiBase, _9->candApiBase
 956 004e 6846     		mov	r0, sp	@,
 957 0050 1B68     		ldr	r3, [r3]	@ _11->init_can, _11->init_can
 958 0052 9847     		blx	r3	@ _11->init_can
 959              	.LVL58:
 175:../../lib/lpc11cx4-library/evt_lib/src/can.c **** 	/* Enable the CAN Interrupt */
 960              		.loc 1 175 0
 961 0054 3368     		ldr	r3, [r6]	@ MEM[(struct LPC_ROM_API_T * *)536813560B], MEM[(struct LPC_ROM_API_T * *)536813560B
 962 0056 2800     		movs	r0, r5	@, tmp131
 963 0058 9B68     		ldr	r3, [r3, #8]	@ _14->candApiBase, _14->candApiBase
 964 005a DB69     		ldr	r3, [r3, #28]	@ _16->config_calb, _16->config_calb
 965 005c 9847     		blx	r3	@ _16->config_calb
 966              	.LVL59:
 967              	.LBB53:
 968              	.LBB54:
 969              		.file 5 "../../lib/lpc11cx4-library/lpc_chip_11cxx_lib/inc/core_cm0.h"
   1:../../lib/lpc11cx4-library/lpc_chip_11cxx_lib/inc/core_cm0.h **** /**************************************************************************//**
   2:../../lib/lpc11cx4-library/lpc_chip_11cxx_lib/inc/core_cm0.h ****  * @file     core_cm0.h
   3:../../lib/lpc11cx4-library/lpc_chip_11cxx_lib/inc/core_cm0.h ****  * @brief    CMSIS Cortex-M0 Core Peripheral Access Layer Header File
   4:../../lib/lpc11cx4-library/lpc_chip_11cxx_lib/inc/core_cm0.h ****  * @version  V3.01
   5:../../lib/lpc11cx4-library/lpc_chip_11cxx_lib/inc/core_cm0.h ****  * @date     13. March 2012
   6:../../lib/lpc11cx4-library/lpc_chip_11cxx_lib/inc/core_cm0.h ****  *
   7:../../lib/lpc11cx4-library/lpc_chip_11cxx_lib/inc/core_cm0.h ****  * @note
   8:../../lib/lpc11cx4-library/lpc_chip_11cxx_lib/inc/core_cm0.h ****  * Copyright (C) 2009-2012 ARM Limited. All rights reserved.
   9:../../lib/lpc11cx4-library/lpc_chip_11cxx_lib/inc/core_cm0.h ****  *
  10:../../lib/lpc11cx4-library/lpc_chip_11cxx_lib/inc/core_cm0.h ****  * @par
  11:../../lib/lpc11cx4-library/lpc_chip_11cxx_lib/inc/core_cm0.h ****  * ARM Limited (ARM) is supplying this software for use with Cortex-M
  12:../../lib/lpc11cx4-library/lpc_chip_11cxx_lib/inc/core_cm0.h ****  * processor based microcontrollers.  This file can be freely distributed
  13:../../lib/lpc11cx4-library/lpc_chip_11cxx_lib/inc/core_cm0.h ****  * within development tools that are supporting such ARM based processors.
  14:../../lib/lpc11cx4-library/lpc_chip_11cxx_lib/inc/core_cm0.h ****  *
  15:../../lib/lpc11cx4-library/lpc_chip_11cxx_lib/inc/core_cm0.h ****  * @par
  16:../../lib/lpc11cx4-library/lpc_chip_11cxx_lib/inc/core_cm0.h ****  * THIS SOFTWARE IS PROVIDED "AS IS".  NO WARRANTIES, WHETHER EXPRESS, IMPLIED
  17:../../lib/lpc11cx4-library/lpc_chip_11cxx_lib/inc/core_cm0.h ****  * OR STATUTORY, INCLUDING, BUT NOT LIMITED TO, IMPLIED WARRANTIES OF
  18:../../lib/lpc11cx4-library/lpc_chip_11cxx_lib/inc/core_cm0.h ****  * MERCHANTABILITY AND FITNESS FOR A PARTICULAR PURPOSE APPLY TO THIS SOFTWARE.
  19:../../lib/lpc11cx4-library/lpc_chip_11cxx_lib/inc/core_cm0.h ****  * ARM SHALL NOT, IN ANY CIRCUMSTANCES, BE LIABLE FOR SPECIAL, INCIDENTAL, OR
  20:../../lib/lpc11cx4-library/lpc_chip_11cxx_lib/inc/core_cm0.h ****  * CONSEQUENTIAL DAMAGES, FOR ANY REASON WHATSOEVER.
  21:../../lib/lpc11cx4-library/lpc_chip_11cxx_lib/inc/core_cm0.h ****  *
  22:../../lib/lpc11cx4-library/lpc_chip_11cxx_lib/inc/core_cm0.h ****  ******************************************************************************/
  23:../../lib/lpc11cx4-library/lpc_chip_11cxx_lib/inc/core_cm0.h **** #if defined ( __ICCARM__ )
  24:../../lib/lpc11cx4-library/lpc_chip_11cxx_lib/inc/core_cm0.h ****  #pragma system_include  /* treat file as system include file for MISRA check */
  25:../../lib/lpc11cx4-library/lpc_chip_11cxx_lib/inc/core_cm0.h **** #endif
  26:../../lib/lpc11cx4-library/lpc_chip_11cxx_lib/inc/core_cm0.h **** 
  27:../../lib/lpc11cx4-library/lpc_chip_11cxx_lib/inc/core_cm0.h **** #ifdef __cplusplus
  28:../../lib/lpc11cx4-library/lpc_chip_11cxx_lib/inc/core_cm0.h ****  extern "C" {
  29:../../lib/lpc11cx4-library/lpc_chip_11cxx_lib/inc/core_cm0.h **** #endif
  30:../../lib/lpc11cx4-library/lpc_chip_11cxx_lib/inc/core_cm0.h **** 
  31:../../lib/lpc11cx4-library/lpc_chip_11cxx_lib/inc/core_cm0.h **** #ifndef __CORE_CM0_H_GENERIC
  32:../../lib/lpc11cx4-library/lpc_chip_11cxx_lib/inc/core_cm0.h **** #define __CORE_CM0_H_GENERIC
  33:../../lib/lpc11cx4-library/lpc_chip_11cxx_lib/inc/core_cm0.h **** 
  34:../../lib/lpc11cx4-library/lpc_chip_11cxx_lib/inc/core_cm0.h **** /** \page CMSIS_MISRA_Exceptions  MISRA-C:2004 Compliance Exceptions
  35:../../lib/lpc11cx4-library/lpc_chip_11cxx_lib/inc/core_cm0.h ****   CMSIS violates the following MISRA-C:2004 rules:
  36:../../lib/lpc11cx4-library/lpc_chip_11cxx_lib/inc/core_cm0.h **** 
  37:../../lib/lpc11cx4-library/lpc_chip_11cxx_lib/inc/core_cm0.h ****    \li Required Rule 8.5, object/function definition in header file.<br>
  38:../../lib/lpc11cx4-library/lpc_chip_11cxx_lib/inc/core_cm0.h ****      Function definitions in header files are used to allow 'inlining'.
  39:../../lib/lpc11cx4-library/lpc_chip_11cxx_lib/inc/core_cm0.h **** 
  40:../../lib/lpc11cx4-library/lpc_chip_11cxx_lib/inc/core_cm0.h ****    \li Required Rule 18.4, declaration of union type or object of union type: '{...}'.<br>
ARM GAS  /var/folders/z0/6xlwn_996xz3mwq1cgzkbq4r0000gp/T//ccjakVr1.s 			page 34


  41:../../lib/lpc11cx4-library/lpc_chip_11cxx_lib/inc/core_cm0.h ****      Unions are used for effective representation of core registers.
  42:../../lib/lpc11cx4-library/lpc_chip_11cxx_lib/inc/core_cm0.h **** 
  43:../../lib/lpc11cx4-library/lpc_chip_11cxx_lib/inc/core_cm0.h ****    \li Advisory Rule 19.7, Function-like macro defined.<br>
  44:../../lib/lpc11cx4-library/lpc_chip_11cxx_lib/inc/core_cm0.h ****      Function-like macros are used to allow more efficient code.
  45:../../lib/lpc11cx4-library/lpc_chip_11cxx_lib/inc/core_cm0.h ****  */
  46:../../lib/lpc11cx4-library/lpc_chip_11cxx_lib/inc/core_cm0.h **** 
  47:../../lib/lpc11cx4-library/lpc_chip_11cxx_lib/inc/core_cm0.h **** 
  48:../../lib/lpc11cx4-library/lpc_chip_11cxx_lib/inc/core_cm0.h **** /*******************************************************************************
  49:../../lib/lpc11cx4-library/lpc_chip_11cxx_lib/inc/core_cm0.h ****  *                 CMSIS definitions
  50:../../lib/lpc11cx4-library/lpc_chip_11cxx_lib/inc/core_cm0.h ****  ******************************************************************************/
  51:../../lib/lpc11cx4-library/lpc_chip_11cxx_lib/inc/core_cm0.h **** /** \ingroup Cortex_M0
  52:../../lib/lpc11cx4-library/lpc_chip_11cxx_lib/inc/core_cm0.h ****   @{
  53:../../lib/lpc11cx4-library/lpc_chip_11cxx_lib/inc/core_cm0.h ****  */
  54:../../lib/lpc11cx4-library/lpc_chip_11cxx_lib/inc/core_cm0.h **** 
  55:../../lib/lpc11cx4-library/lpc_chip_11cxx_lib/inc/core_cm0.h **** /*  CMSIS CM0 definitions */
  56:../../lib/lpc11cx4-library/lpc_chip_11cxx_lib/inc/core_cm0.h **** #define __CM0_CMSIS_VERSION_MAIN  (0x03)                                   /*!< [31:16] CMSIS HAL m
  57:../../lib/lpc11cx4-library/lpc_chip_11cxx_lib/inc/core_cm0.h **** #define __CM0_CMSIS_VERSION_SUB   (0x01)                                   /*!< [15:0]  CMSIS HAL s
  58:../../lib/lpc11cx4-library/lpc_chip_11cxx_lib/inc/core_cm0.h **** #define __CM0_CMSIS_VERSION       ((__CM0_CMSIS_VERSION_MAIN << 16) | \
  59:../../lib/lpc11cx4-library/lpc_chip_11cxx_lib/inc/core_cm0.h ****                                     __CM0_CMSIS_VERSION_SUB          )     /*!< CMSIS HAL version n
  60:../../lib/lpc11cx4-library/lpc_chip_11cxx_lib/inc/core_cm0.h **** 
  61:../../lib/lpc11cx4-library/lpc_chip_11cxx_lib/inc/core_cm0.h **** #define __CORTEX_M                (0x00)                                   /*!< Cortex-M Core      
  62:../../lib/lpc11cx4-library/lpc_chip_11cxx_lib/inc/core_cm0.h **** 
  63:../../lib/lpc11cx4-library/lpc_chip_11cxx_lib/inc/core_cm0.h **** 
  64:../../lib/lpc11cx4-library/lpc_chip_11cxx_lib/inc/core_cm0.h **** #if   defined ( __CC_ARM )
  65:../../lib/lpc11cx4-library/lpc_chip_11cxx_lib/inc/core_cm0.h ****   #define __ASM            __asm                                      /*!< asm keyword for ARM Comp
  66:../../lib/lpc11cx4-library/lpc_chip_11cxx_lib/inc/core_cm0.h ****   #define __INLINE         __inline                                   /*!< inline keyword for ARM C
  67:../../lib/lpc11cx4-library/lpc_chip_11cxx_lib/inc/core_cm0.h ****   #define __STATIC_INLINE  static __inline
  68:../../lib/lpc11cx4-library/lpc_chip_11cxx_lib/inc/core_cm0.h **** 
  69:../../lib/lpc11cx4-library/lpc_chip_11cxx_lib/inc/core_cm0.h **** #elif defined ( __ICCARM__ )
  70:../../lib/lpc11cx4-library/lpc_chip_11cxx_lib/inc/core_cm0.h ****   #define __ASM            __asm                                      /*!< asm keyword for IAR Comp
  71:../../lib/lpc11cx4-library/lpc_chip_11cxx_lib/inc/core_cm0.h ****   #define __INLINE         inline                                     /*!< inline keyword for IAR C
  72:../../lib/lpc11cx4-library/lpc_chip_11cxx_lib/inc/core_cm0.h ****   #define __STATIC_INLINE  static inline
  73:../../lib/lpc11cx4-library/lpc_chip_11cxx_lib/inc/core_cm0.h **** 
  74:../../lib/lpc11cx4-library/lpc_chip_11cxx_lib/inc/core_cm0.h **** #elif defined ( __GNUC__ )
  75:../../lib/lpc11cx4-library/lpc_chip_11cxx_lib/inc/core_cm0.h ****   #define __ASM            __asm                                      /*!< asm keyword for GNU Comp
  76:../../lib/lpc11cx4-library/lpc_chip_11cxx_lib/inc/core_cm0.h ****   #define __INLINE         inline                                     /*!< inline keyword for GNU C
  77:../../lib/lpc11cx4-library/lpc_chip_11cxx_lib/inc/core_cm0.h ****   #define __STATIC_INLINE  static inline
  78:../../lib/lpc11cx4-library/lpc_chip_11cxx_lib/inc/core_cm0.h **** 
  79:../../lib/lpc11cx4-library/lpc_chip_11cxx_lib/inc/core_cm0.h **** #elif defined ( __TASKING__ )
  80:../../lib/lpc11cx4-library/lpc_chip_11cxx_lib/inc/core_cm0.h ****   #define __ASM            __asm                                      /*!< asm keyword for TASKING 
  81:../../lib/lpc11cx4-library/lpc_chip_11cxx_lib/inc/core_cm0.h ****   #define __INLINE         inline                                     /*!< inline keyword for TASKI
  82:../../lib/lpc11cx4-library/lpc_chip_11cxx_lib/inc/core_cm0.h ****   #define __STATIC_INLINE  static inline
  83:../../lib/lpc11cx4-library/lpc_chip_11cxx_lib/inc/core_cm0.h **** 
  84:../../lib/lpc11cx4-library/lpc_chip_11cxx_lib/inc/core_cm0.h **** #endif
  85:../../lib/lpc11cx4-library/lpc_chip_11cxx_lib/inc/core_cm0.h **** 
  86:../../lib/lpc11cx4-library/lpc_chip_11cxx_lib/inc/core_cm0.h **** /** __FPU_USED indicates whether an FPU is used or not. This core does not support an FPU at all
  87:../../lib/lpc11cx4-library/lpc_chip_11cxx_lib/inc/core_cm0.h **** */
  88:../../lib/lpc11cx4-library/lpc_chip_11cxx_lib/inc/core_cm0.h **** #define __FPU_USED       0
  89:../../lib/lpc11cx4-library/lpc_chip_11cxx_lib/inc/core_cm0.h **** 
  90:../../lib/lpc11cx4-library/lpc_chip_11cxx_lib/inc/core_cm0.h **** #if defined ( __CC_ARM )
  91:../../lib/lpc11cx4-library/lpc_chip_11cxx_lib/inc/core_cm0.h ****   #if defined __TARGET_FPU_VFP
  92:../../lib/lpc11cx4-library/lpc_chip_11cxx_lib/inc/core_cm0.h ****     #warning "Compiler generates FPU instructions for a device without an FPU (check __FPU_PRESENT)
  93:../../lib/lpc11cx4-library/lpc_chip_11cxx_lib/inc/core_cm0.h ****   #endif
  94:../../lib/lpc11cx4-library/lpc_chip_11cxx_lib/inc/core_cm0.h **** 
  95:../../lib/lpc11cx4-library/lpc_chip_11cxx_lib/inc/core_cm0.h **** #elif defined ( __ICCARM__ )
  96:../../lib/lpc11cx4-library/lpc_chip_11cxx_lib/inc/core_cm0.h ****   #if defined __ARMVFP__
  97:../../lib/lpc11cx4-library/lpc_chip_11cxx_lib/inc/core_cm0.h ****     #warning "Compiler generates FPU instructions for a device without an FPU (check __FPU_PRESENT)
ARM GAS  /var/folders/z0/6xlwn_996xz3mwq1cgzkbq4r0000gp/T//ccjakVr1.s 			page 35


  98:../../lib/lpc11cx4-library/lpc_chip_11cxx_lib/inc/core_cm0.h ****   #endif
  99:../../lib/lpc11cx4-library/lpc_chip_11cxx_lib/inc/core_cm0.h **** 
 100:../../lib/lpc11cx4-library/lpc_chip_11cxx_lib/inc/core_cm0.h **** #elif defined ( __GNUC__ )
 101:../../lib/lpc11cx4-library/lpc_chip_11cxx_lib/inc/core_cm0.h ****   #if defined (__VFP_FP__) && !defined(__SOFTFP__)
 102:../../lib/lpc11cx4-library/lpc_chip_11cxx_lib/inc/core_cm0.h ****     #warning "Compiler generates FPU instructions for a device without an FPU (check __FPU_PRESENT)
 103:../../lib/lpc11cx4-library/lpc_chip_11cxx_lib/inc/core_cm0.h ****   #endif
 104:../../lib/lpc11cx4-library/lpc_chip_11cxx_lib/inc/core_cm0.h **** 
 105:../../lib/lpc11cx4-library/lpc_chip_11cxx_lib/inc/core_cm0.h **** #elif defined ( __TASKING__ )
 106:../../lib/lpc11cx4-library/lpc_chip_11cxx_lib/inc/core_cm0.h ****   #if defined __FPU_VFP__
 107:../../lib/lpc11cx4-library/lpc_chip_11cxx_lib/inc/core_cm0.h ****     #error "Compiler generates FPU instructions for a device without an FPU (check __FPU_PRESENT)"
 108:../../lib/lpc11cx4-library/lpc_chip_11cxx_lib/inc/core_cm0.h ****   #endif
 109:../../lib/lpc11cx4-library/lpc_chip_11cxx_lib/inc/core_cm0.h **** #endif
 110:../../lib/lpc11cx4-library/lpc_chip_11cxx_lib/inc/core_cm0.h **** 
 111:../../lib/lpc11cx4-library/lpc_chip_11cxx_lib/inc/core_cm0.h **** #include <stdint.h>                      /* standard types definitions                      */
 112:../../lib/lpc11cx4-library/lpc_chip_11cxx_lib/inc/core_cm0.h **** #include <core_cmInstr.h>                /* Core Instruction Access                         */
 113:../../lib/lpc11cx4-library/lpc_chip_11cxx_lib/inc/core_cm0.h **** #include <core_cmFunc.h>                 /* Core Function Access                            */
 114:../../lib/lpc11cx4-library/lpc_chip_11cxx_lib/inc/core_cm0.h **** 
 115:../../lib/lpc11cx4-library/lpc_chip_11cxx_lib/inc/core_cm0.h **** #endif /* __CORE_CM0_H_GENERIC */
 116:../../lib/lpc11cx4-library/lpc_chip_11cxx_lib/inc/core_cm0.h **** 
 117:../../lib/lpc11cx4-library/lpc_chip_11cxx_lib/inc/core_cm0.h **** #ifndef __CMSIS_GENERIC
 118:../../lib/lpc11cx4-library/lpc_chip_11cxx_lib/inc/core_cm0.h **** 
 119:../../lib/lpc11cx4-library/lpc_chip_11cxx_lib/inc/core_cm0.h **** #ifndef __CORE_CM0_H_DEPENDANT
 120:../../lib/lpc11cx4-library/lpc_chip_11cxx_lib/inc/core_cm0.h **** #define __CORE_CM0_H_DEPENDANT
 121:../../lib/lpc11cx4-library/lpc_chip_11cxx_lib/inc/core_cm0.h **** 
 122:../../lib/lpc11cx4-library/lpc_chip_11cxx_lib/inc/core_cm0.h **** /* check device defines and use defaults */
 123:../../lib/lpc11cx4-library/lpc_chip_11cxx_lib/inc/core_cm0.h **** #if defined __CHECK_DEVICE_DEFINES
 124:../../lib/lpc11cx4-library/lpc_chip_11cxx_lib/inc/core_cm0.h ****   #ifndef __CM0_REV
 125:../../lib/lpc11cx4-library/lpc_chip_11cxx_lib/inc/core_cm0.h ****     #define __CM0_REV               0x0000
 126:../../lib/lpc11cx4-library/lpc_chip_11cxx_lib/inc/core_cm0.h ****     #warning "__CM0_REV not defined in device header file; using default!"
 127:../../lib/lpc11cx4-library/lpc_chip_11cxx_lib/inc/core_cm0.h ****   #endif
 128:../../lib/lpc11cx4-library/lpc_chip_11cxx_lib/inc/core_cm0.h **** 
 129:../../lib/lpc11cx4-library/lpc_chip_11cxx_lib/inc/core_cm0.h ****   #ifndef __NVIC_PRIO_BITS
 130:../../lib/lpc11cx4-library/lpc_chip_11cxx_lib/inc/core_cm0.h ****     #define __NVIC_PRIO_BITS          2
 131:../../lib/lpc11cx4-library/lpc_chip_11cxx_lib/inc/core_cm0.h ****     #warning "__NVIC_PRIO_BITS not defined in device header file; using default!"
 132:../../lib/lpc11cx4-library/lpc_chip_11cxx_lib/inc/core_cm0.h ****   #endif
 133:../../lib/lpc11cx4-library/lpc_chip_11cxx_lib/inc/core_cm0.h **** 
 134:../../lib/lpc11cx4-library/lpc_chip_11cxx_lib/inc/core_cm0.h ****   #ifndef __Vendor_SysTickConfig
 135:../../lib/lpc11cx4-library/lpc_chip_11cxx_lib/inc/core_cm0.h ****     #define __Vendor_SysTickConfig    0
 136:../../lib/lpc11cx4-library/lpc_chip_11cxx_lib/inc/core_cm0.h ****     #warning "__Vendor_SysTickConfig not defined in device header file; using default!"
 137:../../lib/lpc11cx4-library/lpc_chip_11cxx_lib/inc/core_cm0.h ****   #endif
 138:../../lib/lpc11cx4-library/lpc_chip_11cxx_lib/inc/core_cm0.h **** #endif
 139:../../lib/lpc11cx4-library/lpc_chip_11cxx_lib/inc/core_cm0.h **** 
 140:../../lib/lpc11cx4-library/lpc_chip_11cxx_lib/inc/core_cm0.h **** /* IO definitions (access restrictions to peripheral registers) */
 141:../../lib/lpc11cx4-library/lpc_chip_11cxx_lib/inc/core_cm0.h **** /**
 142:../../lib/lpc11cx4-library/lpc_chip_11cxx_lib/inc/core_cm0.h ****     \defgroup CMSIS_glob_defs CMSIS Global Defines
 143:../../lib/lpc11cx4-library/lpc_chip_11cxx_lib/inc/core_cm0.h **** 
 144:../../lib/lpc11cx4-library/lpc_chip_11cxx_lib/inc/core_cm0.h ****     <strong>IO Type Qualifiers</strong> are used
 145:../../lib/lpc11cx4-library/lpc_chip_11cxx_lib/inc/core_cm0.h ****     \li to specify the access to peripheral variables.
 146:../../lib/lpc11cx4-library/lpc_chip_11cxx_lib/inc/core_cm0.h ****     \li for automatic generation of peripheral register debug information.
 147:../../lib/lpc11cx4-library/lpc_chip_11cxx_lib/inc/core_cm0.h **** */
 148:../../lib/lpc11cx4-library/lpc_chip_11cxx_lib/inc/core_cm0.h **** #ifdef __cplusplus
 149:../../lib/lpc11cx4-library/lpc_chip_11cxx_lib/inc/core_cm0.h ****   #define   __I     volatile             /*!< Defines 'read only' permissions                 */
 150:../../lib/lpc11cx4-library/lpc_chip_11cxx_lib/inc/core_cm0.h **** #else
 151:../../lib/lpc11cx4-library/lpc_chip_11cxx_lib/inc/core_cm0.h ****   #define   __I     volatile const       /*!< Defines 'read only' permissions                 */
 152:../../lib/lpc11cx4-library/lpc_chip_11cxx_lib/inc/core_cm0.h **** #endif
 153:../../lib/lpc11cx4-library/lpc_chip_11cxx_lib/inc/core_cm0.h **** #define     __O     volatile             /*!< Defines 'write only' permissions                */
 154:../../lib/lpc11cx4-library/lpc_chip_11cxx_lib/inc/core_cm0.h **** #define     __IO    volatile             /*!< Defines 'read / write' permissions              */
ARM GAS  /var/folders/z0/6xlwn_996xz3mwq1cgzkbq4r0000gp/T//ccjakVr1.s 			page 36


 155:../../lib/lpc11cx4-library/lpc_chip_11cxx_lib/inc/core_cm0.h **** 
 156:../../lib/lpc11cx4-library/lpc_chip_11cxx_lib/inc/core_cm0.h **** /*@} end of group Cortex_M0 */
 157:../../lib/lpc11cx4-library/lpc_chip_11cxx_lib/inc/core_cm0.h **** 
 158:../../lib/lpc11cx4-library/lpc_chip_11cxx_lib/inc/core_cm0.h **** 
 159:../../lib/lpc11cx4-library/lpc_chip_11cxx_lib/inc/core_cm0.h **** 
 160:../../lib/lpc11cx4-library/lpc_chip_11cxx_lib/inc/core_cm0.h **** /*******************************************************************************
 161:../../lib/lpc11cx4-library/lpc_chip_11cxx_lib/inc/core_cm0.h ****  *                 Register Abstraction
 162:../../lib/lpc11cx4-library/lpc_chip_11cxx_lib/inc/core_cm0.h ****   Core Register contain:
 163:../../lib/lpc11cx4-library/lpc_chip_11cxx_lib/inc/core_cm0.h ****   - Core Register
 164:../../lib/lpc11cx4-library/lpc_chip_11cxx_lib/inc/core_cm0.h ****   - Core NVIC Register
 165:../../lib/lpc11cx4-library/lpc_chip_11cxx_lib/inc/core_cm0.h ****   - Core SCB Register
 166:../../lib/lpc11cx4-library/lpc_chip_11cxx_lib/inc/core_cm0.h ****   - Core SysTick Register
 167:../../lib/lpc11cx4-library/lpc_chip_11cxx_lib/inc/core_cm0.h ****  ******************************************************************************/
 168:../../lib/lpc11cx4-library/lpc_chip_11cxx_lib/inc/core_cm0.h **** /** \defgroup CMSIS_core_register Defines and Type Definitions
 169:../../lib/lpc11cx4-library/lpc_chip_11cxx_lib/inc/core_cm0.h ****     \brief Type definitions and defines for Cortex-M processor based devices.
 170:../../lib/lpc11cx4-library/lpc_chip_11cxx_lib/inc/core_cm0.h **** */
 171:../../lib/lpc11cx4-library/lpc_chip_11cxx_lib/inc/core_cm0.h **** 
 172:../../lib/lpc11cx4-library/lpc_chip_11cxx_lib/inc/core_cm0.h **** /** \ingroup    CMSIS_core_register
 173:../../lib/lpc11cx4-library/lpc_chip_11cxx_lib/inc/core_cm0.h ****     \defgroup   CMSIS_CORE  Status and Control Registers
 174:../../lib/lpc11cx4-library/lpc_chip_11cxx_lib/inc/core_cm0.h ****     \brief  Core Register type definitions.
 175:../../lib/lpc11cx4-library/lpc_chip_11cxx_lib/inc/core_cm0.h ****   @{
 176:../../lib/lpc11cx4-library/lpc_chip_11cxx_lib/inc/core_cm0.h ****  */
 177:../../lib/lpc11cx4-library/lpc_chip_11cxx_lib/inc/core_cm0.h **** 
 178:../../lib/lpc11cx4-library/lpc_chip_11cxx_lib/inc/core_cm0.h **** /** \brief  Union type to access the Application Program Status Register (APSR).
 179:../../lib/lpc11cx4-library/lpc_chip_11cxx_lib/inc/core_cm0.h ****  */
 180:../../lib/lpc11cx4-library/lpc_chip_11cxx_lib/inc/core_cm0.h **** typedef union
 181:../../lib/lpc11cx4-library/lpc_chip_11cxx_lib/inc/core_cm0.h **** {
 182:../../lib/lpc11cx4-library/lpc_chip_11cxx_lib/inc/core_cm0.h ****   struct
 183:../../lib/lpc11cx4-library/lpc_chip_11cxx_lib/inc/core_cm0.h ****   {
 184:../../lib/lpc11cx4-library/lpc_chip_11cxx_lib/inc/core_cm0.h **** #if (__CORTEX_M != 0x04)
 185:../../lib/lpc11cx4-library/lpc_chip_11cxx_lib/inc/core_cm0.h ****     uint32_t _reserved0:27;              /*!< bit:  0..26  Reserved                           */
 186:../../lib/lpc11cx4-library/lpc_chip_11cxx_lib/inc/core_cm0.h **** #else
 187:../../lib/lpc11cx4-library/lpc_chip_11cxx_lib/inc/core_cm0.h ****     uint32_t _reserved0:16;              /*!< bit:  0..15  Reserved                           */
 188:../../lib/lpc11cx4-library/lpc_chip_11cxx_lib/inc/core_cm0.h ****     uint32_t GE:4;                       /*!< bit: 16..19  Greater than or Equal flags        */
 189:../../lib/lpc11cx4-library/lpc_chip_11cxx_lib/inc/core_cm0.h ****     uint32_t _reserved1:7;               /*!< bit: 20..26  Reserved                           */
 190:../../lib/lpc11cx4-library/lpc_chip_11cxx_lib/inc/core_cm0.h **** #endif
 191:../../lib/lpc11cx4-library/lpc_chip_11cxx_lib/inc/core_cm0.h ****     uint32_t Q:1;                        /*!< bit:     27  Saturation condition flag          */
 192:../../lib/lpc11cx4-library/lpc_chip_11cxx_lib/inc/core_cm0.h ****     uint32_t V:1;                        /*!< bit:     28  Overflow condition code flag       */
 193:../../lib/lpc11cx4-library/lpc_chip_11cxx_lib/inc/core_cm0.h ****     uint32_t C:1;                        /*!< bit:     29  Carry condition code flag          */
 194:../../lib/lpc11cx4-library/lpc_chip_11cxx_lib/inc/core_cm0.h ****     uint32_t Z:1;                        /*!< bit:     30  Zero condition code flag           */
 195:../../lib/lpc11cx4-library/lpc_chip_11cxx_lib/inc/core_cm0.h ****     uint32_t N:1;                        /*!< bit:     31  Negative condition code flag       */
 196:../../lib/lpc11cx4-library/lpc_chip_11cxx_lib/inc/core_cm0.h ****   } b;                                   /*!< Structure used for bit  access                  */
 197:../../lib/lpc11cx4-library/lpc_chip_11cxx_lib/inc/core_cm0.h ****   uint32_t w;                            /*!< Type      used for word access                  */
 198:../../lib/lpc11cx4-library/lpc_chip_11cxx_lib/inc/core_cm0.h **** } APSR_Type;
 199:../../lib/lpc11cx4-library/lpc_chip_11cxx_lib/inc/core_cm0.h **** 
 200:../../lib/lpc11cx4-library/lpc_chip_11cxx_lib/inc/core_cm0.h **** 
 201:../../lib/lpc11cx4-library/lpc_chip_11cxx_lib/inc/core_cm0.h **** /** \brief  Union type to access the Interrupt Program Status Register (IPSR).
 202:../../lib/lpc11cx4-library/lpc_chip_11cxx_lib/inc/core_cm0.h ****  */
 203:../../lib/lpc11cx4-library/lpc_chip_11cxx_lib/inc/core_cm0.h **** typedef union
 204:../../lib/lpc11cx4-library/lpc_chip_11cxx_lib/inc/core_cm0.h **** {
 205:../../lib/lpc11cx4-library/lpc_chip_11cxx_lib/inc/core_cm0.h ****   struct
 206:../../lib/lpc11cx4-library/lpc_chip_11cxx_lib/inc/core_cm0.h ****   {
 207:../../lib/lpc11cx4-library/lpc_chip_11cxx_lib/inc/core_cm0.h ****     uint32_t ISR:9;                      /*!< bit:  0.. 8  Exception number                   */
 208:../../lib/lpc11cx4-library/lpc_chip_11cxx_lib/inc/core_cm0.h ****     uint32_t _reserved0:23;              /*!< bit:  9..31  Reserved                           */
 209:../../lib/lpc11cx4-library/lpc_chip_11cxx_lib/inc/core_cm0.h ****   } b;                                   /*!< Structure used for bit  access                  */
 210:../../lib/lpc11cx4-library/lpc_chip_11cxx_lib/inc/core_cm0.h ****   uint32_t w;                            /*!< Type      used for word access                  */
 211:../../lib/lpc11cx4-library/lpc_chip_11cxx_lib/inc/core_cm0.h **** } IPSR_Type;
ARM GAS  /var/folders/z0/6xlwn_996xz3mwq1cgzkbq4r0000gp/T//ccjakVr1.s 			page 37


 212:../../lib/lpc11cx4-library/lpc_chip_11cxx_lib/inc/core_cm0.h **** 
 213:../../lib/lpc11cx4-library/lpc_chip_11cxx_lib/inc/core_cm0.h **** 
 214:../../lib/lpc11cx4-library/lpc_chip_11cxx_lib/inc/core_cm0.h **** /** \brief  Union type to access the Special-Purpose Program Status Registers (xPSR).
 215:../../lib/lpc11cx4-library/lpc_chip_11cxx_lib/inc/core_cm0.h ****  */
 216:../../lib/lpc11cx4-library/lpc_chip_11cxx_lib/inc/core_cm0.h **** typedef union
 217:../../lib/lpc11cx4-library/lpc_chip_11cxx_lib/inc/core_cm0.h **** {
 218:../../lib/lpc11cx4-library/lpc_chip_11cxx_lib/inc/core_cm0.h ****   struct
 219:../../lib/lpc11cx4-library/lpc_chip_11cxx_lib/inc/core_cm0.h ****   {
 220:../../lib/lpc11cx4-library/lpc_chip_11cxx_lib/inc/core_cm0.h ****     uint32_t ISR:9;                      /*!< bit:  0.. 8  Exception number                   */
 221:../../lib/lpc11cx4-library/lpc_chip_11cxx_lib/inc/core_cm0.h **** #if (__CORTEX_M != 0x04)
 222:../../lib/lpc11cx4-library/lpc_chip_11cxx_lib/inc/core_cm0.h ****     uint32_t _reserved0:15;              /*!< bit:  9..23  Reserved                           */
 223:../../lib/lpc11cx4-library/lpc_chip_11cxx_lib/inc/core_cm0.h **** #else
 224:../../lib/lpc11cx4-library/lpc_chip_11cxx_lib/inc/core_cm0.h ****     uint32_t _reserved0:7;               /*!< bit:  9..15  Reserved                           */
 225:../../lib/lpc11cx4-library/lpc_chip_11cxx_lib/inc/core_cm0.h ****     uint32_t GE:4;                       /*!< bit: 16..19  Greater than or Equal flags        */
 226:../../lib/lpc11cx4-library/lpc_chip_11cxx_lib/inc/core_cm0.h ****     uint32_t _reserved1:4;               /*!< bit: 20..23  Reserved                           */
 227:../../lib/lpc11cx4-library/lpc_chip_11cxx_lib/inc/core_cm0.h **** #endif
 228:../../lib/lpc11cx4-library/lpc_chip_11cxx_lib/inc/core_cm0.h ****     uint32_t T:1;                        /*!< bit:     24  Thumb bit        (read 0)          */
 229:../../lib/lpc11cx4-library/lpc_chip_11cxx_lib/inc/core_cm0.h ****     uint32_t IT:2;                       /*!< bit: 25..26  saved IT state   (read 0)          */
 230:../../lib/lpc11cx4-library/lpc_chip_11cxx_lib/inc/core_cm0.h ****     uint32_t Q:1;                        /*!< bit:     27  Saturation condition flag          */
 231:../../lib/lpc11cx4-library/lpc_chip_11cxx_lib/inc/core_cm0.h ****     uint32_t V:1;                        /*!< bit:     28  Overflow condition code flag       */
 232:../../lib/lpc11cx4-library/lpc_chip_11cxx_lib/inc/core_cm0.h ****     uint32_t C:1;                        /*!< bit:     29  Carry condition code flag          */
 233:../../lib/lpc11cx4-library/lpc_chip_11cxx_lib/inc/core_cm0.h ****     uint32_t Z:1;                        /*!< bit:     30  Zero condition code flag           */
 234:../../lib/lpc11cx4-library/lpc_chip_11cxx_lib/inc/core_cm0.h ****     uint32_t N:1;                        /*!< bit:     31  Negative condition code flag       */
 235:../../lib/lpc11cx4-library/lpc_chip_11cxx_lib/inc/core_cm0.h ****   } b;                                   /*!< Structure used for bit  access                  */
 236:../../lib/lpc11cx4-library/lpc_chip_11cxx_lib/inc/core_cm0.h ****   uint32_t w;                            /*!< Type      used for word access                  */
 237:../../lib/lpc11cx4-library/lpc_chip_11cxx_lib/inc/core_cm0.h **** } xPSR_Type;
 238:../../lib/lpc11cx4-library/lpc_chip_11cxx_lib/inc/core_cm0.h **** 
 239:../../lib/lpc11cx4-library/lpc_chip_11cxx_lib/inc/core_cm0.h **** 
 240:../../lib/lpc11cx4-library/lpc_chip_11cxx_lib/inc/core_cm0.h **** /** \brief  Union type to access the Control Registers (CONTROL).
 241:../../lib/lpc11cx4-library/lpc_chip_11cxx_lib/inc/core_cm0.h ****  */
 242:../../lib/lpc11cx4-library/lpc_chip_11cxx_lib/inc/core_cm0.h **** typedef union
 243:../../lib/lpc11cx4-library/lpc_chip_11cxx_lib/inc/core_cm0.h **** {
 244:../../lib/lpc11cx4-library/lpc_chip_11cxx_lib/inc/core_cm0.h ****   struct
 245:../../lib/lpc11cx4-library/lpc_chip_11cxx_lib/inc/core_cm0.h ****   {
 246:../../lib/lpc11cx4-library/lpc_chip_11cxx_lib/inc/core_cm0.h ****     uint32_t nPRIV:1;                    /*!< bit:      0  Execution privilege in Thread mode */
 247:../../lib/lpc11cx4-library/lpc_chip_11cxx_lib/inc/core_cm0.h ****     uint32_t SPSEL:1;                    /*!< bit:      1  Stack to be used                   */
 248:../../lib/lpc11cx4-library/lpc_chip_11cxx_lib/inc/core_cm0.h ****     uint32_t FPCA:1;                     /*!< bit:      2  FP extension active flag           */
 249:../../lib/lpc11cx4-library/lpc_chip_11cxx_lib/inc/core_cm0.h ****     uint32_t _reserved0:29;              /*!< bit:  3..31  Reserved                           */
 250:../../lib/lpc11cx4-library/lpc_chip_11cxx_lib/inc/core_cm0.h ****   } b;                                   /*!< Structure used for bit  access                  */
 251:../../lib/lpc11cx4-library/lpc_chip_11cxx_lib/inc/core_cm0.h ****   uint32_t w;                            /*!< Type      used for word access                  */
 252:../../lib/lpc11cx4-library/lpc_chip_11cxx_lib/inc/core_cm0.h **** } CONTROL_Type;
 253:../../lib/lpc11cx4-library/lpc_chip_11cxx_lib/inc/core_cm0.h **** 
 254:../../lib/lpc11cx4-library/lpc_chip_11cxx_lib/inc/core_cm0.h **** /*@} end of group CMSIS_CORE */
 255:../../lib/lpc11cx4-library/lpc_chip_11cxx_lib/inc/core_cm0.h **** 
 256:../../lib/lpc11cx4-library/lpc_chip_11cxx_lib/inc/core_cm0.h **** 
 257:../../lib/lpc11cx4-library/lpc_chip_11cxx_lib/inc/core_cm0.h **** /** \ingroup    CMSIS_core_register
 258:../../lib/lpc11cx4-library/lpc_chip_11cxx_lib/inc/core_cm0.h ****     \defgroup   CMSIS_NVIC  Nested Vectored Interrupt Controller (NVIC)
 259:../../lib/lpc11cx4-library/lpc_chip_11cxx_lib/inc/core_cm0.h ****     \brief      Type definitions for the NVIC Registers
 260:../../lib/lpc11cx4-library/lpc_chip_11cxx_lib/inc/core_cm0.h ****   @{
 261:../../lib/lpc11cx4-library/lpc_chip_11cxx_lib/inc/core_cm0.h ****  */
 262:../../lib/lpc11cx4-library/lpc_chip_11cxx_lib/inc/core_cm0.h **** 
 263:../../lib/lpc11cx4-library/lpc_chip_11cxx_lib/inc/core_cm0.h **** /** \brief  Structure type to access the Nested Vectored Interrupt Controller (NVIC).
 264:../../lib/lpc11cx4-library/lpc_chip_11cxx_lib/inc/core_cm0.h ****  */
 265:../../lib/lpc11cx4-library/lpc_chip_11cxx_lib/inc/core_cm0.h **** typedef struct
 266:../../lib/lpc11cx4-library/lpc_chip_11cxx_lib/inc/core_cm0.h **** {
 267:../../lib/lpc11cx4-library/lpc_chip_11cxx_lib/inc/core_cm0.h ****   __IO uint32_t ISER[1];                 /*!< Offset: 0x000 (R/W)  Interrupt Set Enable Register   
 268:../../lib/lpc11cx4-library/lpc_chip_11cxx_lib/inc/core_cm0.h ****        uint32_t RESERVED0[31];
ARM GAS  /var/folders/z0/6xlwn_996xz3mwq1cgzkbq4r0000gp/T//ccjakVr1.s 			page 38


 269:../../lib/lpc11cx4-library/lpc_chip_11cxx_lib/inc/core_cm0.h ****   __IO uint32_t ICER[1];                 /*!< Offset: 0x080 (R/W)  Interrupt Clear Enable Register 
 270:../../lib/lpc11cx4-library/lpc_chip_11cxx_lib/inc/core_cm0.h ****        uint32_t RSERVED1[31];
 271:../../lib/lpc11cx4-library/lpc_chip_11cxx_lib/inc/core_cm0.h ****   __IO uint32_t ISPR[1];                 /*!< Offset: 0x100 (R/W)  Interrupt Set Pending Register  
 272:../../lib/lpc11cx4-library/lpc_chip_11cxx_lib/inc/core_cm0.h ****        uint32_t RESERVED2[31];
 273:../../lib/lpc11cx4-library/lpc_chip_11cxx_lib/inc/core_cm0.h ****   __IO uint32_t ICPR[1];                 /*!< Offset: 0x180 (R/W)  Interrupt Clear Pending Register
 274:../../lib/lpc11cx4-library/lpc_chip_11cxx_lib/inc/core_cm0.h ****        uint32_t RESERVED3[31];
 275:../../lib/lpc11cx4-library/lpc_chip_11cxx_lib/inc/core_cm0.h ****        uint32_t RESERVED4[64];
 276:../../lib/lpc11cx4-library/lpc_chip_11cxx_lib/inc/core_cm0.h ****   __IO uint32_t IP[8];                   /*!< Offset: 0x300 (R/W)  Interrupt Priority Register     
 277:../../lib/lpc11cx4-library/lpc_chip_11cxx_lib/inc/core_cm0.h **** }  NVIC_Type;
 278:../../lib/lpc11cx4-library/lpc_chip_11cxx_lib/inc/core_cm0.h **** 
 279:../../lib/lpc11cx4-library/lpc_chip_11cxx_lib/inc/core_cm0.h **** /*@} end of group CMSIS_NVIC */
 280:../../lib/lpc11cx4-library/lpc_chip_11cxx_lib/inc/core_cm0.h **** 
 281:../../lib/lpc11cx4-library/lpc_chip_11cxx_lib/inc/core_cm0.h **** 
 282:../../lib/lpc11cx4-library/lpc_chip_11cxx_lib/inc/core_cm0.h **** /** \ingroup  CMSIS_core_register
 283:../../lib/lpc11cx4-library/lpc_chip_11cxx_lib/inc/core_cm0.h ****     \defgroup CMSIS_SCB     System Control Block (SCB)
 284:../../lib/lpc11cx4-library/lpc_chip_11cxx_lib/inc/core_cm0.h ****     \brief      Type definitions for the System Control Block Registers
 285:../../lib/lpc11cx4-library/lpc_chip_11cxx_lib/inc/core_cm0.h ****   @{
 286:../../lib/lpc11cx4-library/lpc_chip_11cxx_lib/inc/core_cm0.h ****  */
 287:../../lib/lpc11cx4-library/lpc_chip_11cxx_lib/inc/core_cm0.h **** 
 288:../../lib/lpc11cx4-library/lpc_chip_11cxx_lib/inc/core_cm0.h **** /** \brief  Structure type to access the System Control Block (SCB).
 289:../../lib/lpc11cx4-library/lpc_chip_11cxx_lib/inc/core_cm0.h ****  */
 290:../../lib/lpc11cx4-library/lpc_chip_11cxx_lib/inc/core_cm0.h **** typedef struct
 291:../../lib/lpc11cx4-library/lpc_chip_11cxx_lib/inc/core_cm0.h **** {
 292:../../lib/lpc11cx4-library/lpc_chip_11cxx_lib/inc/core_cm0.h ****   __I  uint32_t CPUID;                   /*!< Offset: 0x000 (R/ )  CPUID Base Register             
 293:../../lib/lpc11cx4-library/lpc_chip_11cxx_lib/inc/core_cm0.h ****   __IO uint32_t ICSR;                    /*!< Offset: 0x004 (R/W)  Interrupt Control and State Regi
 294:../../lib/lpc11cx4-library/lpc_chip_11cxx_lib/inc/core_cm0.h ****        uint32_t RESERVED0;
 295:../../lib/lpc11cx4-library/lpc_chip_11cxx_lib/inc/core_cm0.h ****   __IO uint32_t AIRCR;                   /*!< Offset: 0x00C (R/W)  Application Interrupt and Reset 
 296:../../lib/lpc11cx4-library/lpc_chip_11cxx_lib/inc/core_cm0.h ****   __IO uint32_t SCR;                     /*!< Offset: 0x010 (R/W)  System Control Register         
 297:../../lib/lpc11cx4-library/lpc_chip_11cxx_lib/inc/core_cm0.h ****   __IO uint32_t CCR;                     /*!< Offset: 0x014 (R/W)  Configuration Control Register  
 298:../../lib/lpc11cx4-library/lpc_chip_11cxx_lib/inc/core_cm0.h ****        uint32_t RESERVED1;
 299:../../lib/lpc11cx4-library/lpc_chip_11cxx_lib/inc/core_cm0.h ****   __IO uint32_t SHP[2];                  /*!< Offset: 0x01C (R/W)  System Handlers Priority Registe
 300:../../lib/lpc11cx4-library/lpc_chip_11cxx_lib/inc/core_cm0.h ****   __IO uint32_t SHCSR;                   /*!< Offset: 0x024 (R/W)  System Handler Control and State
 301:../../lib/lpc11cx4-library/lpc_chip_11cxx_lib/inc/core_cm0.h **** } SCB_Type;
 302:../../lib/lpc11cx4-library/lpc_chip_11cxx_lib/inc/core_cm0.h **** 
 303:../../lib/lpc11cx4-library/lpc_chip_11cxx_lib/inc/core_cm0.h **** /* SCB CPUID Register Definitions */
 304:../../lib/lpc11cx4-library/lpc_chip_11cxx_lib/inc/core_cm0.h **** #define SCB_CPUID_IMPLEMENTER_Pos          24                                             /*!< SCB 
 305:../../lib/lpc11cx4-library/lpc_chip_11cxx_lib/inc/core_cm0.h **** #define SCB_CPUID_IMPLEMENTER_Msk          (0xFFUL << SCB_CPUID_IMPLEMENTER_Pos)          /*!< SCB 
 306:../../lib/lpc11cx4-library/lpc_chip_11cxx_lib/inc/core_cm0.h **** 
 307:../../lib/lpc11cx4-library/lpc_chip_11cxx_lib/inc/core_cm0.h **** #define SCB_CPUID_VARIANT_Pos              20                                             /*!< SCB 
 308:../../lib/lpc11cx4-library/lpc_chip_11cxx_lib/inc/core_cm0.h **** #define SCB_CPUID_VARIANT_Msk              (0xFUL << SCB_CPUID_VARIANT_Pos)               /*!< SCB 
 309:../../lib/lpc11cx4-library/lpc_chip_11cxx_lib/inc/core_cm0.h **** 
 310:../../lib/lpc11cx4-library/lpc_chip_11cxx_lib/inc/core_cm0.h **** #define SCB_CPUID_ARCHITECTURE_Pos         16                                             /*!< SCB 
 311:../../lib/lpc11cx4-library/lpc_chip_11cxx_lib/inc/core_cm0.h **** #define SCB_CPUID_ARCHITECTURE_Msk         (0xFUL << SCB_CPUID_ARCHITECTURE_Pos)          /*!< SCB 
 312:../../lib/lpc11cx4-library/lpc_chip_11cxx_lib/inc/core_cm0.h **** 
 313:../../lib/lpc11cx4-library/lpc_chip_11cxx_lib/inc/core_cm0.h **** #define SCB_CPUID_PARTNO_Pos                4                                             /*!< SCB 
 314:../../lib/lpc11cx4-library/lpc_chip_11cxx_lib/inc/core_cm0.h **** #define SCB_CPUID_PARTNO_Msk               (0xFFFUL << SCB_CPUID_PARTNO_Pos)              /*!< SCB 
 315:../../lib/lpc11cx4-library/lpc_chip_11cxx_lib/inc/core_cm0.h **** 
 316:../../lib/lpc11cx4-library/lpc_chip_11cxx_lib/inc/core_cm0.h **** #define SCB_CPUID_REVISION_Pos              0                                             /*!< SCB 
 317:../../lib/lpc11cx4-library/lpc_chip_11cxx_lib/inc/core_cm0.h **** #define SCB_CPUID_REVISION_Msk             (0xFUL << SCB_CPUID_REVISION_Pos)              /*!< SCB 
 318:../../lib/lpc11cx4-library/lpc_chip_11cxx_lib/inc/core_cm0.h **** 
 319:../../lib/lpc11cx4-library/lpc_chip_11cxx_lib/inc/core_cm0.h **** /* SCB Interrupt Control State Register Definitions */
 320:../../lib/lpc11cx4-library/lpc_chip_11cxx_lib/inc/core_cm0.h **** #define SCB_ICSR_NMIPENDSET_Pos            31                                             /*!< SCB 
 321:../../lib/lpc11cx4-library/lpc_chip_11cxx_lib/inc/core_cm0.h **** #define SCB_ICSR_NMIPENDSET_Msk            (1UL << SCB_ICSR_NMIPENDSET_Pos)               /*!< SCB 
 322:../../lib/lpc11cx4-library/lpc_chip_11cxx_lib/inc/core_cm0.h **** 
 323:../../lib/lpc11cx4-library/lpc_chip_11cxx_lib/inc/core_cm0.h **** #define SCB_ICSR_PENDSVSET_Pos             28                                             /*!< SCB 
 324:../../lib/lpc11cx4-library/lpc_chip_11cxx_lib/inc/core_cm0.h **** #define SCB_ICSR_PENDSVSET_Msk             (1UL << SCB_ICSR_PENDSVSET_Pos)                /*!< SCB 
 325:../../lib/lpc11cx4-library/lpc_chip_11cxx_lib/inc/core_cm0.h **** 
ARM GAS  /var/folders/z0/6xlwn_996xz3mwq1cgzkbq4r0000gp/T//ccjakVr1.s 			page 39


 326:../../lib/lpc11cx4-library/lpc_chip_11cxx_lib/inc/core_cm0.h **** #define SCB_ICSR_PENDSVCLR_Pos             27                                             /*!< SCB 
 327:../../lib/lpc11cx4-library/lpc_chip_11cxx_lib/inc/core_cm0.h **** #define SCB_ICSR_PENDSVCLR_Msk             (1UL << SCB_ICSR_PENDSVCLR_Pos)                /*!< SCB 
 328:../../lib/lpc11cx4-library/lpc_chip_11cxx_lib/inc/core_cm0.h **** 
 329:../../lib/lpc11cx4-library/lpc_chip_11cxx_lib/inc/core_cm0.h **** #define SCB_ICSR_PENDSTSET_Pos             26                                             /*!< SCB 
 330:../../lib/lpc11cx4-library/lpc_chip_11cxx_lib/inc/core_cm0.h **** #define SCB_ICSR_PENDSTSET_Msk             (1UL << SCB_ICSR_PENDSTSET_Pos)                /*!< SCB 
 331:../../lib/lpc11cx4-library/lpc_chip_11cxx_lib/inc/core_cm0.h **** 
 332:../../lib/lpc11cx4-library/lpc_chip_11cxx_lib/inc/core_cm0.h **** #define SCB_ICSR_PENDSTCLR_Pos             25                                             /*!< SCB 
 333:../../lib/lpc11cx4-library/lpc_chip_11cxx_lib/inc/core_cm0.h **** #define SCB_ICSR_PENDSTCLR_Msk             (1UL << SCB_ICSR_PENDSTCLR_Pos)                /*!< SCB 
 334:../../lib/lpc11cx4-library/lpc_chip_11cxx_lib/inc/core_cm0.h **** 
 335:../../lib/lpc11cx4-library/lpc_chip_11cxx_lib/inc/core_cm0.h **** #define SCB_ICSR_ISRPREEMPT_Pos            23                                             /*!< SCB 
 336:../../lib/lpc11cx4-library/lpc_chip_11cxx_lib/inc/core_cm0.h **** #define SCB_ICSR_ISRPREEMPT_Msk            (1UL << SCB_ICSR_ISRPREEMPT_Pos)               /*!< SCB 
 337:../../lib/lpc11cx4-library/lpc_chip_11cxx_lib/inc/core_cm0.h **** 
 338:../../lib/lpc11cx4-library/lpc_chip_11cxx_lib/inc/core_cm0.h **** #define SCB_ICSR_ISRPENDING_Pos            22                                             /*!< SCB 
 339:../../lib/lpc11cx4-library/lpc_chip_11cxx_lib/inc/core_cm0.h **** #define SCB_ICSR_ISRPENDING_Msk            (1UL << SCB_ICSR_ISRPENDING_Pos)               /*!< SCB 
 340:../../lib/lpc11cx4-library/lpc_chip_11cxx_lib/inc/core_cm0.h **** 
 341:../../lib/lpc11cx4-library/lpc_chip_11cxx_lib/inc/core_cm0.h **** #define SCB_ICSR_VECTPENDING_Pos           12                                             /*!< SCB 
 342:../../lib/lpc11cx4-library/lpc_chip_11cxx_lib/inc/core_cm0.h **** #define SCB_ICSR_VECTPENDING_Msk           (0x1FFUL << SCB_ICSR_VECTPENDING_Pos)          /*!< SCB 
 343:../../lib/lpc11cx4-library/lpc_chip_11cxx_lib/inc/core_cm0.h **** 
 344:../../lib/lpc11cx4-library/lpc_chip_11cxx_lib/inc/core_cm0.h **** #define SCB_ICSR_VECTACTIVE_Pos             0                                             /*!< SCB 
 345:../../lib/lpc11cx4-library/lpc_chip_11cxx_lib/inc/core_cm0.h **** #define SCB_ICSR_VECTACTIVE_Msk            (0x1FFUL << SCB_ICSR_VECTACTIVE_Pos)           /*!< SCB 
 346:../../lib/lpc11cx4-library/lpc_chip_11cxx_lib/inc/core_cm0.h **** 
 347:../../lib/lpc11cx4-library/lpc_chip_11cxx_lib/inc/core_cm0.h **** /* SCB Application Interrupt and Reset Control Register Definitions */
 348:../../lib/lpc11cx4-library/lpc_chip_11cxx_lib/inc/core_cm0.h **** #define SCB_AIRCR_VECTKEY_Pos              16                                             /*!< SCB 
 349:../../lib/lpc11cx4-library/lpc_chip_11cxx_lib/inc/core_cm0.h **** #define SCB_AIRCR_VECTKEY_Msk              (0xFFFFUL << SCB_AIRCR_VECTKEY_Pos)            /*!< SCB 
 350:../../lib/lpc11cx4-library/lpc_chip_11cxx_lib/inc/core_cm0.h **** 
 351:../../lib/lpc11cx4-library/lpc_chip_11cxx_lib/inc/core_cm0.h **** #define SCB_AIRCR_VECTKEYSTAT_Pos          16                                             /*!< SCB 
 352:../../lib/lpc11cx4-library/lpc_chip_11cxx_lib/inc/core_cm0.h **** #define SCB_AIRCR_VECTKEYSTAT_Msk          (0xFFFFUL << SCB_AIRCR_VECTKEYSTAT_Pos)        /*!< SCB 
 353:../../lib/lpc11cx4-library/lpc_chip_11cxx_lib/inc/core_cm0.h **** 
 354:../../lib/lpc11cx4-library/lpc_chip_11cxx_lib/inc/core_cm0.h **** #define SCB_AIRCR_ENDIANESS_Pos            15                                             /*!< SCB 
 355:../../lib/lpc11cx4-library/lpc_chip_11cxx_lib/inc/core_cm0.h **** #define SCB_AIRCR_ENDIANESS_Msk            (1UL << SCB_AIRCR_ENDIANESS_Pos)               /*!< SCB 
 356:../../lib/lpc11cx4-library/lpc_chip_11cxx_lib/inc/core_cm0.h **** 
 357:../../lib/lpc11cx4-library/lpc_chip_11cxx_lib/inc/core_cm0.h **** #define SCB_AIRCR_SYSRESETREQ_Pos           2                                             /*!< SCB 
 358:../../lib/lpc11cx4-library/lpc_chip_11cxx_lib/inc/core_cm0.h **** #define SCB_AIRCR_SYSRESETREQ_Msk          (1UL << SCB_AIRCR_SYSRESETREQ_Pos)             /*!< SCB 
 359:../../lib/lpc11cx4-library/lpc_chip_11cxx_lib/inc/core_cm0.h **** 
 360:../../lib/lpc11cx4-library/lpc_chip_11cxx_lib/inc/core_cm0.h **** #define SCB_AIRCR_VECTCLRACTIVE_Pos         1                                             /*!< SCB 
 361:../../lib/lpc11cx4-library/lpc_chip_11cxx_lib/inc/core_cm0.h **** #define SCB_AIRCR_VECTCLRACTIVE_Msk        (1UL << SCB_AIRCR_VECTCLRACTIVE_Pos)           /*!< SCB 
 362:../../lib/lpc11cx4-library/lpc_chip_11cxx_lib/inc/core_cm0.h **** 
 363:../../lib/lpc11cx4-library/lpc_chip_11cxx_lib/inc/core_cm0.h **** /* SCB System Control Register Definitions */
 364:../../lib/lpc11cx4-library/lpc_chip_11cxx_lib/inc/core_cm0.h **** #define SCB_SCR_SEVONPEND_Pos               4                                             /*!< SCB 
 365:../../lib/lpc11cx4-library/lpc_chip_11cxx_lib/inc/core_cm0.h **** #define SCB_SCR_SEVONPEND_Msk              (1UL << SCB_SCR_SEVONPEND_Pos)                 /*!< SCB 
 366:../../lib/lpc11cx4-library/lpc_chip_11cxx_lib/inc/core_cm0.h **** 
 367:../../lib/lpc11cx4-library/lpc_chip_11cxx_lib/inc/core_cm0.h **** #define SCB_SCR_SLEEPDEEP_Pos               2                                             /*!< SCB 
 368:../../lib/lpc11cx4-library/lpc_chip_11cxx_lib/inc/core_cm0.h **** #define SCB_SCR_SLEEPDEEP_Msk              (1UL << SCB_SCR_SLEEPDEEP_Pos)                 /*!< SCB 
 369:../../lib/lpc11cx4-library/lpc_chip_11cxx_lib/inc/core_cm0.h **** 
 370:../../lib/lpc11cx4-library/lpc_chip_11cxx_lib/inc/core_cm0.h **** #define SCB_SCR_SLEEPONEXIT_Pos             1                                             /*!< SCB 
 371:../../lib/lpc11cx4-library/lpc_chip_11cxx_lib/inc/core_cm0.h **** #define SCB_SCR_SLEEPONEXIT_Msk            (1UL << SCB_SCR_SLEEPONEXIT_Pos)               /*!< SCB 
 372:../../lib/lpc11cx4-library/lpc_chip_11cxx_lib/inc/core_cm0.h **** 
 373:../../lib/lpc11cx4-library/lpc_chip_11cxx_lib/inc/core_cm0.h **** /* SCB Configuration Control Register Definitions */
 374:../../lib/lpc11cx4-library/lpc_chip_11cxx_lib/inc/core_cm0.h **** #define SCB_CCR_STKALIGN_Pos                9                                             /*!< SCB 
 375:../../lib/lpc11cx4-library/lpc_chip_11cxx_lib/inc/core_cm0.h **** #define SCB_CCR_STKALIGN_Msk               (1UL << SCB_CCR_STKALIGN_Pos)                  /*!< SCB 
 376:../../lib/lpc11cx4-library/lpc_chip_11cxx_lib/inc/core_cm0.h **** 
 377:../../lib/lpc11cx4-library/lpc_chip_11cxx_lib/inc/core_cm0.h **** #define SCB_CCR_UNALIGN_TRP_Pos             3                                             /*!< SCB 
 378:../../lib/lpc11cx4-library/lpc_chip_11cxx_lib/inc/core_cm0.h **** #define SCB_CCR_UNALIGN_TRP_Msk            (1UL << SCB_CCR_UNALIGN_TRP_Pos)               /*!< SCB 
 379:../../lib/lpc11cx4-library/lpc_chip_11cxx_lib/inc/core_cm0.h **** 
 380:../../lib/lpc11cx4-library/lpc_chip_11cxx_lib/inc/core_cm0.h **** /* SCB System Handler Control and State Register Definitions */
 381:../../lib/lpc11cx4-library/lpc_chip_11cxx_lib/inc/core_cm0.h **** #define SCB_SHCSR_SVCALLPENDED_Pos         15                                             /*!< SCB 
 382:../../lib/lpc11cx4-library/lpc_chip_11cxx_lib/inc/core_cm0.h **** #define SCB_SHCSR_SVCALLPENDED_Msk         (1UL << SCB_SHCSR_SVCALLPENDED_Pos)            /*!< SCB 
ARM GAS  /var/folders/z0/6xlwn_996xz3mwq1cgzkbq4r0000gp/T//ccjakVr1.s 			page 40


 383:../../lib/lpc11cx4-library/lpc_chip_11cxx_lib/inc/core_cm0.h **** 
 384:../../lib/lpc11cx4-library/lpc_chip_11cxx_lib/inc/core_cm0.h **** /*@} end of group CMSIS_SCB */
 385:../../lib/lpc11cx4-library/lpc_chip_11cxx_lib/inc/core_cm0.h **** 
 386:../../lib/lpc11cx4-library/lpc_chip_11cxx_lib/inc/core_cm0.h **** 
 387:../../lib/lpc11cx4-library/lpc_chip_11cxx_lib/inc/core_cm0.h **** /** \ingroup  CMSIS_core_register
 388:../../lib/lpc11cx4-library/lpc_chip_11cxx_lib/inc/core_cm0.h ****     \defgroup CMSIS_SysTick     System Tick Timer (SysTick)
 389:../../lib/lpc11cx4-library/lpc_chip_11cxx_lib/inc/core_cm0.h ****     \brief      Type definitions for the System Timer Registers.
 390:../../lib/lpc11cx4-library/lpc_chip_11cxx_lib/inc/core_cm0.h ****   @{
 391:../../lib/lpc11cx4-library/lpc_chip_11cxx_lib/inc/core_cm0.h ****  */
 392:../../lib/lpc11cx4-library/lpc_chip_11cxx_lib/inc/core_cm0.h **** 
 393:../../lib/lpc11cx4-library/lpc_chip_11cxx_lib/inc/core_cm0.h **** /** \brief  Structure type to access the System Timer (SysTick).
 394:../../lib/lpc11cx4-library/lpc_chip_11cxx_lib/inc/core_cm0.h ****  */
 395:../../lib/lpc11cx4-library/lpc_chip_11cxx_lib/inc/core_cm0.h **** typedef struct
 396:../../lib/lpc11cx4-library/lpc_chip_11cxx_lib/inc/core_cm0.h **** {
 397:../../lib/lpc11cx4-library/lpc_chip_11cxx_lib/inc/core_cm0.h ****   __IO uint32_t CTRL;                    /*!< Offset: 0x000 (R/W)  SysTick Control and Status Regis
 398:../../lib/lpc11cx4-library/lpc_chip_11cxx_lib/inc/core_cm0.h ****   __IO uint32_t LOAD;                    /*!< Offset: 0x004 (R/W)  SysTick Reload Value Register   
 399:../../lib/lpc11cx4-library/lpc_chip_11cxx_lib/inc/core_cm0.h ****   __IO uint32_t VAL;                     /*!< Offset: 0x008 (R/W)  SysTick Current Value Register  
 400:../../lib/lpc11cx4-library/lpc_chip_11cxx_lib/inc/core_cm0.h ****   __I  uint32_t CALIB;                   /*!< Offset: 0x00C (R/ )  SysTick Calibration Register    
 401:../../lib/lpc11cx4-library/lpc_chip_11cxx_lib/inc/core_cm0.h **** } SysTick_Type;
 402:../../lib/lpc11cx4-library/lpc_chip_11cxx_lib/inc/core_cm0.h **** 
 403:../../lib/lpc11cx4-library/lpc_chip_11cxx_lib/inc/core_cm0.h **** /* SysTick Control / Status Register Definitions */
 404:../../lib/lpc11cx4-library/lpc_chip_11cxx_lib/inc/core_cm0.h **** #define SysTick_CTRL_COUNTFLAG_Pos         16                                             /*!< SysT
 405:../../lib/lpc11cx4-library/lpc_chip_11cxx_lib/inc/core_cm0.h **** #define SysTick_CTRL_COUNTFLAG_Msk         (1UL << SysTick_CTRL_COUNTFLAG_Pos)            /*!< SysT
 406:../../lib/lpc11cx4-library/lpc_chip_11cxx_lib/inc/core_cm0.h **** 
 407:../../lib/lpc11cx4-library/lpc_chip_11cxx_lib/inc/core_cm0.h **** #define SysTick_CTRL_CLKSOURCE_Pos          2                                             /*!< SysT
 408:../../lib/lpc11cx4-library/lpc_chip_11cxx_lib/inc/core_cm0.h **** #define SysTick_CTRL_CLKSOURCE_Msk         (1UL << SysTick_CTRL_CLKSOURCE_Pos)            /*!< SysT
 409:../../lib/lpc11cx4-library/lpc_chip_11cxx_lib/inc/core_cm0.h **** 
 410:../../lib/lpc11cx4-library/lpc_chip_11cxx_lib/inc/core_cm0.h **** #define SysTick_CTRL_TICKINT_Pos            1                                             /*!< SysT
 411:../../lib/lpc11cx4-library/lpc_chip_11cxx_lib/inc/core_cm0.h **** #define SysTick_CTRL_TICKINT_Msk           (1UL << SysTick_CTRL_TICKINT_Pos)              /*!< SysT
 412:../../lib/lpc11cx4-library/lpc_chip_11cxx_lib/inc/core_cm0.h **** 
 413:../../lib/lpc11cx4-library/lpc_chip_11cxx_lib/inc/core_cm0.h **** #define SysTick_CTRL_ENABLE_Pos             0                                             /*!< SysT
 414:../../lib/lpc11cx4-library/lpc_chip_11cxx_lib/inc/core_cm0.h **** #define SysTick_CTRL_ENABLE_Msk            (1UL << SysTick_CTRL_ENABLE_Pos)               /*!< SysT
 415:../../lib/lpc11cx4-library/lpc_chip_11cxx_lib/inc/core_cm0.h **** 
 416:../../lib/lpc11cx4-library/lpc_chip_11cxx_lib/inc/core_cm0.h **** /* SysTick Reload Register Definitions */
 417:../../lib/lpc11cx4-library/lpc_chip_11cxx_lib/inc/core_cm0.h **** #define SysTick_LOAD_RELOAD_Pos             0                                             /*!< SysT
 418:../../lib/lpc11cx4-library/lpc_chip_11cxx_lib/inc/core_cm0.h **** #define SysTick_LOAD_RELOAD_Msk            (0xFFFFFFUL << SysTick_LOAD_RELOAD_Pos)        /*!< SysT
 419:../../lib/lpc11cx4-library/lpc_chip_11cxx_lib/inc/core_cm0.h **** 
 420:../../lib/lpc11cx4-library/lpc_chip_11cxx_lib/inc/core_cm0.h **** /* SysTick Current Register Definitions */
 421:../../lib/lpc11cx4-library/lpc_chip_11cxx_lib/inc/core_cm0.h **** #define SysTick_VAL_CURRENT_Pos             0                                             /*!< SysT
 422:../../lib/lpc11cx4-library/lpc_chip_11cxx_lib/inc/core_cm0.h **** #define SysTick_VAL_CURRENT_Msk            (0xFFFFFFUL << SysTick_VAL_CURRENT_Pos)        /*!< SysT
 423:../../lib/lpc11cx4-library/lpc_chip_11cxx_lib/inc/core_cm0.h **** 
 424:../../lib/lpc11cx4-library/lpc_chip_11cxx_lib/inc/core_cm0.h **** /* SysTick Calibration Register Definitions */
 425:../../lib/lpc11cx4-library/lpc_chip_11cxx_lib/inc/core_cm0.h **** #define SysTick_CALIB_NOREF_Pos            31                                             /*!< SysT
 426:../../lib/lpc11cx4-library/lpc_chip_11cxx_lib/inc/core_cm0.h **** #define SysTick_CALIB_NOREF_Msk            (1UL << SysTick_CALIB_NOREF_Pos)               /*!< SysT
 427:../../lib/lpc11cx4-library/lpc_chip_11cxx_lib/inc/core_cm0.h **** 
 428:../../lib/lpc11cx4-library/lpc_chip_11cxx_lib/inc/core_cm0.h **** #define SysTick_CALIB_SKEW_Pos             30                                             /*!< SysT
 429:../../lib/lpc11cx4-library/lpc_chip_11cxx_lib/inc/core_cm0.h **** #define SysTick_CALIB_SKEW_Msk             (1UL << SysTick_CALIB_SKEW_Pos)                /*!< SysT
 430:../../lib/lpc11cx4-library/lpc_chip_11cxx_lib/inc/core_cm0.h **** 
 431:../../lib/lpc11cx4-library/lpc_chip_11cxx_lib/inc/core_cm0.h **** #define SysTick_CALIB_TENMS_Pos             0                                             /*!< SysT
 432:../../lib/lpc11cx4-library/lpc_chip_11cxx_lib/inc/core_cm0.h **** #define SysTick_CALIB_TENMS_Msk            (0xFFFFFFUL << SysTick_VAL_CURRENT_Pos)        /*!< SysT
 433:../../lib/lpc11cx4-library/lpc_chip_11cxx_lib/inc/core_cm0.h **** 
 434:../../lib/lpc11cx4-library/lpc_chip_11cxx_lib/inc/core_cm0.h **** /*@} end of group CMSIS_SysTick */
 435:../../lib/lpc11cx4-library/lpc_chip_11cxx_lib/inc/core_cm0.h **** 
 436:../../lib/lpc11cx4-library/lpc_chip_11cxx_lib/inc/core_cm0.h **** 
 437:../../lib/lpc11cx4-library/lpc_chip_11cxx_lib/inc/core_cm0.h **** /** \ingroup  CMSIS_core_register
 438:../../lib/lpc11cx4-library/lpc_chip_11cxx_lib/inc/core_cm0.h ****     \defgroup CMSIS_CoreDebug       Core Debug Registers (CoreDebug)
 439:../../lib/lpc11cx4-library/lpc_chip_11cxx_lib/inc/core_cm0.h ****     \brief      Cortex-M0 Core Debug Registers (DCB registers, SHCSR, and DFSR)
ARM GAS  /var/folders/z0/6xlwn_996xz3mwq1cgzkbq4r0000gp/T//ccjakVr1.s 			page 41


 440:../../lib/lpc11cx4-library/lpc_chip_11cxx_lib/inc/core_cm0.h ****                 are only accessible over DAP and not via processor. Therefore
 441:../../lib/lpc11cx4-library/lpc_chip_11cxx_lib/inc/core_cm0.h ****                 they are not covered by the Cortex-M0 header file.
 442:../../lib/lpc11cx4-library/lpc_chip_11cxx_lib/inc/core_cm0.h ****   @{
 443:../../lib/lpc11cx4-library/lpc_chip_11cxx_lib/inc/core_cm0.h ****  */
 444:../../lib/lpc11cx4-library/lpc_chip_11cxx_lib/inc/core_cm0.h **** /*@} end of group CMSIS_CoreDebug */
 445:../../lib/lpc11cx4-library/lpc_chip_11cxx_lib/inc/core_cm0.h **** 
 446:../../lib/lpc11cx4-library/lpc_chip_11cxx_lib/inc/core_cm0.h **** 
 447:../../lib/lpc11cx4-library/lpc_chip_11cxx_lib/inc/core_cm0.h **** /** \ingroup    CMSIS_core_register
 448:../../lib/lpc11cx4-library/lpc_chip_11cxx_lib/inc/core_cm0.h ****     \defgroup   CMSIS_core_base     Core Definitions
 449:../../lib/lpc11cx4-library/lpc_chip_11cxx_lib/inc/core_cm0.h ****     \brief      Definitions for base addresses, unions, and structures.
 450:../../lib/lpc11cx4-library/lpc_chip_11cxx_lib/inc/core_cm0.h ****   @{
 451:../../lib/lpc11cx4-library/lpc_chip_11cxx_lib/inc/core_cm0.h ****  */
 452:../../lib/lpc11cx4-library/lpc_chip_11cxx_lib/inc/core_cm0.h **** 
 453:../../lib/lpc11cx4-library/lpc_chip_11cxx_lib/inc/core_cm0.h **** /* Memory mapping of Cortex-M0 Hardware */
 454:../../lib/lpc11cx4-library/lpc_chip_11cxx_lib/inc/core_cm0.h **** #define SCS_BASE            (0xE000E000UL)                            /*!< System Control Space Bas
 455:../../lib/lpc11cx4-library/lpc_chip_11cxx_lib/inc/core_cm0.h **** #define SysTick_BASE        (SCS_BASE +  0x0010UL)                    /*!< SysTick Base Address    
 456:../../lib/lpc11cx4-library/lpc_chip_11cxx_lib/inc/core_cm0.h **** #define NVIC_BASE           (SCS_BASE +  0x0100UL)                    /*!< NVIC Base Address       
 457:../../lib/lpc11cx4-library/lpc_chip_11cxx_lib/inc/core_cm0.h **** #define SCB_BASE            (SCS_BASE +  0x0D00UL)                    /*!< System Control Block Bas
 458:../../lib/lpc11cx4-library/lpc_chip_11cxx_lib/inc/core_cm0.h **** 
 459:../../lib/lpc11cx4-library/lpc_chip_11cxx_lib/inc/core_cm0.h **** #define SCB                 ((SCB_Type       *)     SCB_BASE      )   /*!< SCB configuration struct
 460:../../lib/lpc11cx4-library/lpc_chip_11cxx_lib/inc/core_cm0.h **** #define SysTick             ((SysTick_Type   *)     SysTick_BASE  )   /*!< SysTick configuration st
 461:../../lib/lpc11cx4-library/lpc_chip_11cxx_lib/inc/core_cm0.h **** #define NVIC                ((NVIC_Type      *)     NVIC_BASE     )   /*!< NVIC configuration struc
 462:../../lib/lpc11cx4-library/lpc_chip_11cxx_lib/inc/core_cm0.h **** 
 463:../../lib/lpc11cx4-library/lpc_chip_11cxx_lib/inc/core_cm0.h **** 
 464:../../lib/lpc11cx4-library/lpc_chip_11cxx_lib/inc/core_cm0.h **** /*@} */
 465:../../lib/lpc11cx4-library/lpc_chip_11cxx_lib/inc/core_cm0.h **** 
 466:../../lib/lpc11cx4-library/lpc_chip_11cxx_lib/inc/core_cm0.h **** 
 467:../../lib/lpc11cx4-library/lpc_chip_11cxx_lib/inc/core_cm0.h **** 
 468:../../lib/lpc11cx4-library/lpc_chip_11cxx_lib/inc/core_cm0.h **** /*******************************************************************************
 469:../../lib/lpc11cx4-library/lpc_chip_11cxx_lib/inc/core_cm0.h ****  *                Hardware Abstraction Layer
 470:../../lib/lpc11cx4-library/lpc_chip_11cxx_lib/inc/core_cm0.h ****   Core Function Interface contains:
 471:../../lib/lpc11cx4-library/lpc_chip_11cxx_lib/inc/core_cm0.h ****   - Core NVIC Functions
 472:../../lib/lpc11cx4-library/lpc_chip_11cxx_lib/inc/core_cm0.h ****   - Core SysTick Functions
 473:../../lib/lpc11cx4-library/lpc_chip_11cxx_lib/inc/core_cm0.h ****   - Core Register Access Functions
 474:../../lib/lpc11cx4-library/lpc_chip_11cxx_lib/inc/core_cm0.h ****  ******************************************************************************/
 475:../../lib/lpc11cx4-library/lpc_chip_11cxx_lib/inc/core_cm0.h **** /** \defgroup CMSIS_Core_FunctionInterface Functions and Instructions Reference
 476:../../lib/lpc11cx4-library/lpc_chip_11cxx_lib/inc/core_cm0.h **** */
 477:../../lib/lpc11cx4-library/lpc_chip_11cxx_lib/inc/core_cm0.h **** 
 478:../../lib/lpc11cx4-library/lpc_chip_11cxx_lib/inc/core_cm0.h **** 
 479:../../lib/lpc11cx4-library/lpc_chip_11cxx_lib/inc/core_cm0.h **** 
 480:../../lib/lpc11cx4-library/lpc_chip_11cxx_lib/inc/core_cm0.h **** /* ##########################   NVIC functions  #################################### */
 481:../../lib/lpc11cx4-library/lpc_chip_11cxx_lib/inc/core_cm0.h **** /** \ingroup  CMSIS_Core_FunctionInterface
 482:../../lib/lpc11cx4-library/lpc_chip_11cxx_lib/inc/core_cm0.h ****     \defgroup CMSIS_Core_NVICFunctions NVIC Functions
 483:../../lib/lpc11cx4-library/lpc_chip_11cxx_lib/inc/core_cm0.h ****     \brief      Functions that manage interrupts and exceptions via the NVIC.
 484:../../lib/lpc11cx4-library/lpc_chip_11cxx_lib/inc/core_cm0.h ****     @{
 485:../../lib/lpc11cx4-library/lpc_chip_11cxx_lib/inc/core_cm0.h ****  */
 486:../../lib/lpc11cx4-library/lpc_chip_11cxx_lib/inc/core_cm0.h **** 
 487:../../lib/lpc11cx4-library/lpc_chip_11cxx_lib/inc/core_cm0.h **** /* Interrupt Priorities are WORD accessible only under ARMv6M                   */
 488:../../lib/lpc11cx4-library/lpc_chip_11cxx_lib/inc/core_cm0.h **** /* The following MACROS handle generation of the register offset and byte masks */
 489:../../lib/lpc11cx4-library/lpc_chip_11cxx_lib/inc/core_cm0.h **** #define _BIT_SHIFT(IRQn)         (  (((uint32_t)(IRQn)       )    &  0x03) * 8 )
 490:../../lib/lpc11cx4-library/lpc_chip_11cxx_lib/inc/core_cm0.h **** #define _SHP_IDX(IRQn)           ( ((((uint32_t)(IRQn) & 0x0F)-8) >>    2)     )
 491:../../lib/lpc11cx4-library/lpc_chip_11cxx_lib/inc/core_cm0.h **** #define _IP_IDX(IRQn)            (   ((uint32_t)(IRQn)            >>    2)     )
 492:../../lib/lpc11cx4-library/lpc_chip_11cxx_lib/inc/core_cm0.h **** 
 493:../../lib/lpc11cx4-library/lpc_chip_11cxx_lib/inc/core_cm0.h **** 
 494:../../lib/lpc11cx4-library/lpc_chip_11cxx_lib/inc/core_cm0.h **** /** \brief  Enable External Interrupt
 495:../../lib/lpc11cx4-library/lpc_chip_11cxx_lib/inc/core_cm0.h **** 
 496:../../lib/lpc11cx4-library/lpc_chip_11cxx_lib/inc/core_cm0.h ****     The function enables a device-specific interrupt in the NVIC interrupt controller.
ARM GAS  /var/folders/z0/6xlwn_996xz3mwq1cgzkbq4r0000gp/T//ccjakVr1.s 			page 42


 497:../../lib/lpc11cx4-library/lpc_chip_11cxx_lib/inc/core_cm0.h **** 
 498:../../lib/lpc11cx4-library/lpc_chip_11cxx_lib/inc/core_cm0.h ****     \param [in]      IRQn  External interrupt number. Value cannot be negative.
 499:../../lib/lpc11cx4-library/lpc_chip_11cxx_lib/inc/core_cm0.h ****  */
 500:../../lib/lpc11cx4-library/lpc_chip_11cxx_lib/inc/core_cm0.h **** __STATIC_INLINE void NVIC_EnableIRQ(IRQn_Type IRQn)
 501:../../lib/lpc11cx4-library/lpc_chip_11cxx_lib/inc/core_cm0.h **** {
 502:../../lib/lpc11cx4-library/lpc_chip_11cxx_lib/inc/core_cm0.h ****   NVIC->ISER[0] = (1 << ((uint32_t)(IRQn) & 0x1F));
 970              		.loc 5 502 0
 971 005e 8022     		movs	r2, #128	@ tmp147,
 972 0060 0F4B     		ldr	r3, .L75+24	@ tmp146,
 973 0062 9201     		lsls	r2, r2, #6	@ tmp147, tmp147,
 974 0064 1A60     		str	r2, [r3]	@ tmp147, MEM[(struct NVIC_Type *)3758153984B].ISER
 975              	.LVL60:
 976              	.LBE54:
 977              	.LBE53:
 180:../../lib/lpc11cx4-library/evt_lib/src/can.c **** 	CAN_SetMask2(0, 0);
 978              		.loc 1 180 0
 979 0066 0021     		movs	r1, #0	@,
 980 0068 0020     		movs	r0, #0	@,
 981 006a FFF7FEFF 		bl	CAN_SetMask1	@
 982              	.LVL61:
 181:../../lib/lpc11cx4-library/evt_lib/src/can.c **** 
 983              		.loc 1 181 0
 984 006e 0021     		movs	r1, #0	@,
 985 0070 0020     		movs	r0, #0	@,
 986 0072 FFF7FEFF 		bl	CAN_SetMask2	@
 987              	.LVL62:
 183:../../lib/lpc11cx4-library/evt_lib/src/can.c **** 	can_error_info = 0;
 988              		.loc 1 183 0
 989 0076 0B4B     		ldr	r3, .L75+28	@ tmp148,
 990 0078 1C70     		strb	r4, [r3]	@ tmp122, can_error_flag
 184:../../lib/lpc11cx4-library/evt_lib/src/can.c **** 
 991              		.loc 1 184 0
 992 007a 0B4B     		ldr	r3, .L75+32	@ tmp151,
 993 007c 1C60     		str	r4, [r3]	@ tmp122, can_error_info
 186:../../lib/lpc11cx4-library/evt_lib/src/can.c **** }
 994              		.loc 1 186 0
 995 007e 0B4B     		ldr	r3, .L75+36	@ tmp153,
 996 0080 1C80     		strh	r4, [r3]	@ tmp122, MEM[(void *)&msg_obj_stat]
 187:../../lib/lpc11cx4-library/evt_lib/src/can.c **** 
 997              		.loc 1 187 0
 998 0082 0BB0     		add	sp, sp, #44	@,,
 999              		@ sp needed	@
 1000 0084 F0BD     		pop	{r4, r5, r6, r7, pc}
 1001              	.L76:
 1002 0086 C046     		.align	2
 1003              	.L75:
 1004 0088 00000000 		.word	.LANCHOR2
 1005 008c 00000000 		.word	_rx_buffer
 1006 0090 00000000 		.word	.LANCHOR4
 1007 0094 00000000 		.word	_tx_buffer
 1008 0098 00000000 		.word	.LANCHOR5
 1009 009c F81FFF1F 		.word	536813560
 1010 00a0 00E100E0 		.word	-536813312
 1011 00a4 00000000 		.word	.LANCHOR1
 1012 00a8 00000000 		.word	.LANCHOR0
 1013 00ac 00000000 		.word	.LANCHOR3
 1014              		.cfi_endproc
ARM GAS  /var/folders/z0/6xlwn_996xz3mwq1cgzkbq4r0000gp/T//ccjakVr1.s 			page 43


 1015              	.LFE208:
 1016              		.size	CAN_Init, .-CAN_Init
 1017              		.section	.text.CAN_Receive,"ax",%progbits
 1018              		.align	2
 1019              		.global	CAN_Receive
 1020              		.code	16
 1021              		.thumb_func
 1022              		.type	CAN_Receive, %function
 1023              	CAN_Receive:
 1024              	.LFB211:
 209:../../lib/lpc11cx4-library/evt_lib/src/can.c **** 
 210:../../lib/lpc11cx4-library/evt_lib/src/can.c **** CAN_ERROR_T CAN_Receive(CCAN_MSG_OBJ_T* user_buffer) {
 1025              		.loc 1 210 0
 1026              		.cfi_startproc
 1027              		@ args = 0, pretend = 0, frame = 0
 1028              		@ frame_needed = 0, uses_anonymous_args = 0
 1029              	.LVL63:
 211:../../lib/lpc11cx4-library/evt_lib/src/can.c **** 	if (can_error_flag) {
 1030              		.loc 1 211 0
 1031 0000 094B     		ldr	r3, .L80	@ tmp117,
 210:../../lib/lpc11cx4-library/evt_lib/src/can.c **** 	if (can_error_flag) {
 1032              		.loc 1 210 0
 1033 0002 10B5     		push	{r4, lr}	@
 1034              		.cfi_def_cfa_offset 8
 1035              		.cfi_offset 4, -8
 1036              		.cfi_offset 14, -4
 1037              		.loc 1 211 0
 1038 0004 1A78     		ldrb	r2, [r3]	@ can_error_flag, can_error_flag
 1039 0006 002A     		cmp	r2, #0	@ can_error_flag,
 1040 0008 06D0     		beq	.L78	@,
 212:../../lib/lpc11cx4-library/evt_lib/src/can.c **** 		can_error_flag = false;
 1041              		.loc 1 212 0
 1042 000a 0022     		movs	r2, #0	@ tmp120,
 1043 000c 1A70     		strb	r2, [r3]	@ tmp120, can_error_flag
 213:../../lib/lpc11cx4-library/evt_lib/src/can.c **** 		return Convert_To_CAN_Error(can_error_info);
 1044              		.loc 1 213 0
 1045 000e 074B     		ldr	r3, .L80+4	@ tmp122,
 1046 0010 1868     		ldr	r0, [r3]	@ can_error_info, can_error_info
 1047              	.LVL64:
 1048 0012 FFF7FEFF 		bl	Convert_To_CAN_Error	@
 1049              	.LVL65:
 1050              	.L79:
 214:../../lib/lpc11cx4-library/evt_lib/src/can.c **** 	} else if (RingBuffer_Pop(&rx_buffer, user_buffer)) {
 215:../../lib/lpc11cx4-library/evt_lib/src/can.c **** 	    return NO_CAN_ERROR;
 216:../../lib/lpc11cx4-library/evt_lib/src/can.c **** 	}
 217:../../lib/lpc11cx4-library/evt_lib/src/can.c **** 	return NO_RX_CAN_MESSAGE;
 218:../../lib/lpc11cx4-library/evt_lib/src/can.c **** }
 1051              		.loc 1 218 0
 1052              		@ sp needed	@
 1053 0016 10BD     		pop	{r4, pc}
 1054              	.LVL66:
 1055              	.L78:
 214:../../lib/lpc11cx4-library/evt_lib/src/can.c **** 	} else if (RingBuffer_Pop(&rx_buffer, user_buffer)) {
 1056              		.loc 1 214 0
 1057 0018 0100     		movs	r1, r0	@, user_buffer
 1058 001a 0548     		ldr	r0, .L80+8	@,
 1059              	.LVL67:
ARM GAS  /var/folders/z0/6xlwn_996xz3mwq1cgzkbq4r0000gp/T//ccjakVr1.s 			page 44


 1060 001c FFF7FEFF 		bl	RingBuffer_Pop	@
 1061              	.LVL68:
 213:../../lib/lpc11cx4-library/evt_lib/src/can.c **** 		return Convert_To_CAN_Error(can_error_info);
 1062              		.loc 1 213 0
 1063 0020 4342     		rsbs	r3, r0, #0	@ tmp129, D.7030
 1064 0022 5841     		adcs	r0, r0, r3	@ tmp128, D.7030, tmp129
 1065 0024 C0B2     		uxtb	r0, r0	@ D.7027, tmp128
 1066 0026 F6E7     		b	.L79	@
 1067              	.L81:
 1068              		.align	2
 1069              	.L80:
 1070 0028 00000000 		.word	.LANCHOR1
 1071 002c 00000000 		.word	.LANCHOR0
 1072 0030 00000000 		.word	.LANCHOR2
 1073              		.cfi_endproc
 1074              	.LFE211:
 1075              		.size	CAN_Receive, .-CAN_Receive
 1076              		.section	.text.CAN_TransmitMsgObj,"ax",%progbits
 1077              		.align	2
 1078              		.global	CAN_TransmitMsgObj
 1079              		.code	16
 1080              		.thumb_func
 1081              		.type	CAN_TransmitMsgObj, %function
 1082              	CAN_TransmitMsgObj:
 1083              	.LFB213:
 219:../../lib/lpc11cx4-library/evt_lib/src/can.c **** 
 220:../../lib/lpc11cx4-library/evt_lib/src/can.c **** CAN_ERROR_T CAN_Transmit(uint32_t msg_id, uint8_t* data, uint8_t data_len) {
 221:../../lib/lpc11cx4-library/evt_lib/src/can.c **** 	tmp_msg_obj.mode_id = msg_id;
 222:../../lib/lpc11cx4-library/evt_lib/src/can.c **** 	tmp_msg_obj.dlc = data_len;
 223:../../lib/lpc11cx4-library/evt_lib/src/can.c **** 	uint8_t i;
 224:../../lib/lpc11cx4-library/evt_lib/src/can.c **** 	for (i = 0; i < tmp_msg_obj.dlc; i++) {	
 225:../../lib/lpc11cx4-library/evt_lib/src/can.c **** 		tmp_msg_obj.data[i] = data[i];
 226:../../lib/lpc11cx4-library/evt_lib/src/can.c **** 	}
 227:../../lib/lpc11cx4-library/evt_lib/src/can.c **** 	return CAN_TransmitMsgObj(&tmp_msg_obj);
 228:../../lib/lpc11cx4-library/evt_lib/src/can.c **** }
 229:../../lib/lpc11cx4-library/evt_lib/src/can.c **** 
 230:../../lib/lpc11cx4-library/evt_lib/src/can.c **** CAN_ERROR_T CAN_TransmitMsgObj(CCAN_MSG_OBJ_T *msg_obj) {
 1084              		.loc 1 230 0
 1085              		.cfi_startproc
 1086              		@ args = 0, pretend = 0, frame = 0
 1087              		@ frame_needed = 0, uses_anonymous_args = 0
 1088              	.LVL69:
 231:../../lib/lpc11cx4-library/evt_lib/src/can.c **** 	if (can_error_flag) {
 1089              		.loc 1 231 0
 1090 0000 164B     		ldr	r3, .L91	@ tmp124,
 230:../../lib/lpc11cx4-library/evt_lib/src/can.c **** 	if (can_error_flag) {
 1091              		.loc 1 230 0
 1092 0002 70B5     		push	{r4, r5, r6, lr}	@
 1093              		.cfi_def_cfa_offset 16
 1094              		.cfi_offset 4, -16
 1095              		.cfi_offset 5, -12
 1096              		.cfi_offset 6, -8
 1097              		.cfi_offset 14, -4
 1098              		.loc 1 231 0
 1099 0004 1A78     		ldrb	r2, [r3]	@ can_error_flag, can_error_flag
 1100 0006 002A     		cmp	r2, #0	@ can_error_flag,
 1101 0008 11D1     		bne	.L83	@,
ARM GAS  /var/folders/z0/6xlwn_996xz3mwq1cgzkbq4r0000gp/T//ccjakVr1.s 			page 45


 1102              	.LVL70:
 1103              	.LBB59:
 232:../../lib/lpc11cx4-library/evt_lib/src/can.c **** 		can_error_flag = false;
 233:../../lib/lpc11cx4-library/evt_lib/src/can.c **** 		return Convert_To_CAN_Error(can_error_info);
 234:../../lib/lpc11cx4-library/evt_lib/src/can.c **** 	} else {
 235:../../lib/lpc11cx4-library/evt_lib/src/can.c **** 		uint8_t i;
 236:../../lib/lpc11cx4-library/evt_lib/src/can.c **** 		bool sent = false;
 237:../../lib/lpc11cx4-library/evt_lib/src/can.c **** 		for (i = 1; i <= NUM_MSG_OBJS; i++) {
 238:../../lib/lpc11cx4-library/evt_lib/src/can.c **** 			if (!msg_obj_stat[i]) { // Message Object is free, begin to send
 1104              		.loc 1 238 0 discriminator 1
 1105 000a 154C     		ldr	r4, .L91+4	@ tmp147,
 1106 000c 6378     		ldrb	r3, [r4, #1]	@ tmp127,
 1107 000e 002B     		cmp	r3, #0	@ tmp127,
 1108 0010 14D0     		beq	.L87	@,
 1109              	.LVL71:
 1110              		.loc 1 238 0 is_stmt 0
 1111 0012 A378     		ldrb	r3, [r4, #2]	@ tmp129,
 1112 0014 002B     		cmp	r3, #0	@ tmp129,
 1113 0016 1DD0     		beq	.L90	@,
 1114              	.LVL72:
 1115              	.LBE59:
 1116              	.LBB60:
 1117              	.LBB61:
 239:../../lib/lpc11cx4-library/evt_lib/src/can.c **** 				// Send with this message object
 240:../../lib/lpc11cx4-library/evt_lib/src/can.c **** 				msg_obj->msgobj = i;
 241:../../lib/lpc11cx4-library/evt_lib/src/can.c **** 				LPC_CCAN_API->can_transmit(msg_obj);
 242:../../lib/lpc11cx4-library/evt_lib/src/can.c **** 				msg_obj_stat[i] = true;
 243:../../lib/lpc11cx4-library/evt_lib/src/can.c **** 				sent = true;
 244:../../lib/lpc11cx4-library/evt_lib/src/can.c **** 				break;
 245:../../lib/lpc11cx4-library/evt_lib/src/can.c **** 			}
 246:../../lib/lpc11cx4-library/evt_lib/src/can.c **** 		}
 247:../../lib/lpc11cx4-library/evt_lib/src/can.c **** 
 248:../../lib/lpc11cx4-library/evt_lib/src/can.c **** 		if (!sent) { // Everything is busy, so put in ring buffer
 249:../../lib/lpc11cx4-library/evt_lib/src/can.c **** 			if (!RingBuffer_Insert(&tx_buffer, msg_obj)) {
 1118              		.loc 1 249 0 is_stmt 1
 1119 0018 0100     		movs	r1, r0	@, msg_obj
 1120 001a 1248     		ldr	r0, .L91+8	@,
 1121              	.LVL73:
 1122 001c FFF7FEFF 		bl	RingBuffer_Insert	@
 1123              	.LVL74:
 1124 0020 0300     		movs	r3, r0	@ D.7046,
 250:../../lib/lpc11cx4-library/evt_lib/src/can.c **** 				return TX_BUFFER_FULL_CAN_ERROR;
 251:../../lib/lpc11cx4-library/evt_lib/src/can.c **** 			}
 252:../../lib/lpc11cx4-library/evt_lib/src/can.c **** 		}
 253:../../lib/lpc11cx4-library/evt_lib/src/can.c **** 
 254:../../lib/lpc11cx4-library/evt_lib/src/can.c **** 	    return NO_CAN_ERROR;
 1125              		.loc 1 254 0
 1126 0022 5A42     		rsbs	r2, r3, #0	@ tmp150, D.7046
 1127 0024 5341     		adcs	r3, r3, r2	@ tmp149, D.7046, tmp150
 250:../../lib/lpc11cx4-library/evt_lib/src/can.c **** 				return TX_BUFFER_FULL_CAN_ERROR;
 1128              		.loc 1 250 0
 1129 0026 0E20     		movs	r0, #14	@ D.7040,
 1130              		.loc 1 254 0
 1131 0028 5B42     		rsbs	r3, r3, #0	@ tmp151, tmp149
 1132 002a 1840     		ands	r0, r3	@ D.7040, tmp151
 1133              	.LVL75:
 1134              	.L89:
ARM GAS  /var/folders/z0/6xlwn_996xz3mwq1cgzkbq4r0000gp/T//ccjakVr1.s 			page 46


 1135              	.LBE61:
 1136              	.LBE60:
 255:../../lib/lpc11cx4-library/evt_lib/src/can.c **** 	}
 256:../../lib/lpc11cx4-library/evt_lib/src/can.c **** }
 1137              		.loc 1 256 0
 1138              		@ sp needed	@
 1139 002c 70BD     		pop	{r4, r5, r6, pc}
 1140              	.LVL76:
 1141              	.L83:
 232:../../lib/lpc11cx4-library/evt_lib/src/can.c **** 		return Convert_To_CAN_Error(can_error_info);
 1142              		.loc 1 232 0
 1143 002e 0022     		movs	r2, #0	@ tmp131,
 1144 0030 1A70     		strb	r2, [r3]	@ tmp131, can_error_flag
 233:../../lib/lpc11cx4-library/evt_lib/src/can.c **** 	} else {
 1145              		.loc 1 233 0
 1146 0032 0D4B     		ldr	r3, .L91+12	@ tmp133,
 1147 0034 1868     		ldr	r0, [r3]	@ can_error_info, can_error_info
 1148              	.LVL77:
 1149 0036 FFF7FEFF 		bl	Convert_To_CAN_Error	@
 1150              	.LVL78:
 1151 003a F7E7     		b	.L89	@
 1152              	.LVL79:
 1153              	.L87:
 1154              	.LBB62:
 238:../../lib/lpc11cx4-library/evt_lib/src/can.c **** 				// Send with this message object
 1155              		.loc 1 238 0
 1156 003c 0125     		movs	r5, #1	@ D.7046,
 1157 003e 0123     		movs	r3, #1	@ i,
 1158              	.LVL80:
 1159              	.L84:
 240:../../lib/lpc11cx4-library/evt_lib/src/can.c **** 				LPC_CCAN_API->can_transmit(msg_obj);
 1160              		.loc 1 240 0
 1161 0040 4374     		strb	r3, [r0, #17]	@ i, msg_obj_15(D)->msgobj
 241:../../lib/lpc11cx4-library/evt_lib/src/can.c **** 				msg_obj_stat[i] = true;
 1162              		.loc 1 241 0
 1163 0042 0A4B     		ldr	r3, .L91+16	@ tmp138,
 1164 0044 1B68     		ldr	r3, [r3]	@ MEM[(struct LPC_ROM_API_T * *)536813560B], MEM[(struct LPC_ROM_API_T * *)536813560B
 1165 0046 9B68     		ldr	r3, [r3, #8]	@ _17->candApiBase, _17->candApiBase
 1166 0048 1B69     		ldr	r3, [r3, #16]	@ _19->can_transmit, _19->can_transmit
 1167 004a 9847     		blx	r3	@ _19->can_transmit
 1168              	.LVL81:
 242:../../lib/lpc11cx4-library/evt_lib/src/can.c **** 				sent = true;
 1169              		.loc 1 242 0
 1170 004c 0123     		movs	r3, #1	@ tmp143,
 254:../../lib/lpc11cx4-library/evt_lib/src/can.c **** 	}
 1171              		.loc 1 254 0
 1172 004e 0020     		movs	r0, #0	@ D.7040,
 242:../../lib/lpc11cx4-library/evt_lib/src/can.c **** 				sent = true;
 1173              		.loc 1 242 0
 1174 0050 6355     		strb	r3, [r4, r5]	@ tmp143, msg_obj_stat
 1175              	.LVL82:
 1176 0052 EBE7     		b	.L89	@
 1177              	.LVL83:
 1178              	.L90:
 238:../../lib/lpc11cx4-library/evt_lib/src/can.c **** 				// Send with this message object
 1179              		.loc 1 238 0
 1180 0054 0225     		movs	r5, #2	@ D.7046,
ARM GAS  /var/folders/z0/6xlwn_996xz3mwq1cgzkbq4r0000gp/T//ccjakVr1.s 			page 47


 237:../../lib/lpc11cx4-library/evt_lib/src/can.c **** 			if (!msg_obj_stat[i]) { // Message Object is free, begin to send
 1181              		.loc 1 237 0
 1182 0056 0233     		adds	r3, r3, #2	@ i,
 1183 0058 F2E7     		b	.L84	@
 1184              	.L92:
 1185 005a C046     		.align	2
 1186              	.L91:
 1187 005c 00000000 		.word	.LANCHOR1
 1188 0060 00000000 		.word	.LANCHOR3
 1189 0064 00000000 		.word	.LANCHOR4
 1190 0068 00000000 		.word	.LANCHOR0
 1191 006c F81FFF1F 		.word	536813560
 1192              	.LBE62:
 1193              		.cfi_endproc
 1194              	.LFE213:
 1195              		.size	CAN_TransmitMsgObj, .-CAN_TransmitMsgObj
 1196              		.section	.text.CAN_Transmit,"ax",%progbits
 1197              		.align	2
 1198              		.global	CAN_Transmit
 1199              		.code	16
 1200              		.thumb_func
 1201              		.type	CAN_Transmit, %function
 1202              	CAN_Transmit:
 1203              	.LFB212:
 220:../../lib/lpc11cx4-library/evt_lib/src/can.c **** 	tmp_msg_obj.mode_id = msg_id;
 1204              		.loc 1 220 0
 1205              		.cfi_startproc
 1206              		@ args = 0, pretend = 0, frame = 0
 1207              		@ frame_needed = 0, uses_anonymous_args = 0
 1208              	.LVL84:
 1209 0000 0300     		movs	r3, r0	@ msg_id, msg_id
 221:../../lib/lpc11cx4-library/evt_lib/src/can.c **** 	tmp_msg_obj.dlc = data_len;
 1210              		.loc 1 221 0
 1211 0002 0848     		ldr	r0, .L100	@ tmp165,
 1212              	.LVL85:
 220:../../lib/lpc11cx4-library/evt_lib/src/can.c **** 	tmp_msg_obj.mode_id = msg_id;
 1213              		.loc 1 220 0
 1214 0004 70B5     		push	{r4, r5, r6, lr}	@
 1215              		.cfi_def_cfa_offset 16
 1216              		.cfi_offset 4, -16
 1217              		.cfi_offset 5, -12
 1218              		.cfi_offset 6, -8
 1219              		.cfi_offset 14, -4
 221:../../lib/lpc11cx4-library/evt_lib/src/can.c **** 	tmp_msg_obj.dlc = data_len;
 1220              		.loc 1 221 0
 1221 0006 0360     		str	r3, [r0]	@ msg_id, tmp_msg_obj.mode_id
 222:../../lib/lpc11cx4-library/evt_lib/src/can.c **** 	uint8_t i;
 1222              		.loc 1 222 0
 1223 0008 0274     		strb	r2, [r0, #16]	@ data_len, tmp_msg_obj.dlc
 1224              	.LVL86:
 224:../../lib/lpc11cx4-library/evt_lib/src/can.c **** 		tmp_msg_obj.data[i] = data[i];
 1225              		.loc 1 224 0
 1226 000a 0023     		movs	r3, #0	@ ivtmp.91,
 1227              	.LVL87:
 1228 000c 002A     		cmp	r2, #0	@ data_len,
 1229 000e 06D0     		beq	.L96	@,
 1230              	.LVL88:
ARM GAS  /var/folders/z0/6xlwn_996xz3mwq1cgzkbq4r0000gp/T//ccjakVr1.s 			page 48


 1231              	.L97:
 225:../../lib/lpc11cx4-library/evt_lib/src/can.c **** 	}
 1232              		.loc 1 225 0 discriminator 3
 1233 0010 CD5C     		ldrb	r5, [r1, r3]	@ D.7061, MEM[base: data_10(D), index: ivtmp.91_2, offset: 0B]
 1234 0012 C418     		adds	r4, r0, r3	@ D.7063, tmp165, ivtmp.91
 1235 0014 0133     		adds	r3, r3, #1	@ ivtmp.91,
 1236              	.LVL89:
 1237 0016 2572     		strb	r5, [r4, #8]	@ D.7061, MEM[base: _23, offset: 8B]
 224:../../lib/lpc11cx4-library/evt_lib/src/can.c **** 		tmp_msg_obj.data[i] = data[i];
 1238              		.loc 1 224 0 discriminator 3
 1239 0018 DCB2     		uxtb	r4, r3	@ ivtmp.91, ivtmp.91
 1240 001a A242     		cmp	r2, r4	@ data_len, ivtmp.91
 1241 001c F8D8     		bhi	.L97	@,
 1242              	.L96:
 227:../../lib/lpc11cx4-library/evt_lib/src/can.c **** }
 1243              		.loc 1 227 0
 1244 001e FFF7FEFF 		bl	CAN_TransmitMsgObj	@
 1245              	.LVL90:
 228:../../lib/lpc11cx4-library/evt_lib/src/can.c **** 
 1246              		.loc 1 228 0
 1247              		@ sp needed	@
 1248 0022 70BD     		pop	{r4, r5, r6, pc}
 1249              	.L101:
 1250              		.align	2
 1251              	.L100:
 1252 0024 00000000 		.word	tmp_msg_obj
 1253              		.cfi_endproc
 1254              	.LFE212:
 1255              		.size	CAN_Transmit, .-CAN_Transmit
 1256              		.section	.text.CAN_GetErrorStatus,"ax",%progbits
 1257              		.align	2
 1258              		.global	CAN_GetErrorStatus
 1259              		.code	16
 1260              		.thumb_func
 1261              		.type	CAN_GetErrorStatus, %function
 1262              	CAN_GetErrorStatus:
 1263              	.LFB214:
 257:../../lib/lpc11cx4-library/evt_lib/src/can.c **** 
 258:../../lib/lpc11cx4-library/evt_lib/src/can.c **** CAN_ERROR_T CAN_GetErrorStatus(void) {
 1264              		.loc 1 258 0
 1265              		.cfi_startproc
 1266              		@ args = 0, pretend = 0, frame = 0
 1267              		@ frame_needed = 0, uses_anonymous_args = 0
 1268 0000 10B5     		push	{r4, lr}	@
 1269              		.cfi_def_cfa_offset 8
 1270              		.cfi_offset 4, -8
 1271              		.cfi_offset 14, -4
 259:../../lib/lpc11cx4-library/evt_lib/src/can.c **** 	return Convert_To_CAN_Error(can_error_info);
 1272              		.loc 1 259 0
 1273 0002 024B     		ldr	r3, .L103	@ tmp113,
 260:../../lib/lpc11cx4-library/evt_lib/src/can.c **** }
 1274              		.loc 1 260 0
 1275              		@ sp needed	@
 259:../../lib/lpc11cx4-library/evt_lib/src/can.c **** 	return Convert_To_CAN_Error(can_error_info);
 1276              		.loc 1 259 0
 1277 0004 1868     		ldr	r0, [r3]	@ can_error_info, can_error_info
 1278 0006 FFF7FEFF 		bl	Convert_To_CAN_Error	@
ARM GAS  /var/folders/z0/6xlwn_996xz3mwq1cgzkbq4r0000gp/T//ccjakVr1.s 			page 49


 1279              	.LVL91:
 1280              		.loc 1 260 0
 1281 000a 10BD     		pop	{r4, pc}
 1282              	.L104:
 1283              		.align	2
 1284              	.L103:
 1285 000c 00000000 		.word	.LANCHOR0
 1286              		.cfi_endproc
 1287              	.LFE214:
 1288              		.size	CAN_GetErrorStatus, .-CAN_GetErrorStatus
 1289              		.comm	tmp_msg_obj_2,24,8
 1290              		.comm	tmp_msg_obj,24,8
 1291              		.comm	_tx_buffer,384,8
 1292              		.comm	_rx_buffer,384,8
 1293              		.comm	msg_obj,24,8
 1294              		.section	.rodata
 1295              		.align	2
 1296              		.set	.LANCHOR5,. + 0
 1297              	.LC0:
 1298              	@ CAN_rx:
 1299 0000 00000000 		.word	CAN_rx
 1300              	@ CAN_tx:
 1301 0004 00000000 		.word	CAN_tx
 1302              	@ CAN_error:
 1303 0008 00000000 		.word	CAN_error
 1304              	@ CANOPEN_sdo_read:
 1305 000c 00000000 		.word	0
 1306              	@ CANOPEN_sdo_write:
 1307 0010 00000000 		.word	0
 1308              	@ CANOPEN_sdo_seg_read:
 1309 0014 00000000 		.word	0
 1310              	@ CANOPEN_sdo_seg_write:
 1311 0018 00000000 		.word	0
 1312              	@ CANOPEN_sdo_req:
 1313 001c 00000000 		.word	0
 1314              		.section	.bss.tx_buffer,"aw",%nobits
 1315              		.align	2
 1316              		.set	.LANCHOR4,. + 0
 1317              		.type	tx_buffer, %object
 1318              		.size	tx_buffer, 20
 1319              	tx_buffer:
 1320 0000 00000000 		.space	20
 1320      00000000 
 1320      00000000 
 1320      00000000 
 1320      00000000 
 1321              		.section	.bss.rx_buffer,"aw",%nobits
 1322              		.align	2
 1323              		.set	.LANCHOR2,. + 0
 1324              		.type	rx_buffer, %object
 1325              		.size	rx_buffer, 20
 1326              	rx_buffer:
 1327 0000 00000000 		.space	20
 1327      00000000 
 1327      00000000 
 1327      00000000 
 1327      00000000 
ARM GAS  /var/folders/z0/6xlwn_996xz3mwq1cgzkbq4r0000gp/T//ccjakVr1.s 			page 50


 1328              		.section	.bss.can_error_info,"aw",%nobits
 1329              		.align	2
 1330              		.set	.LANCHOR0,. + 0
 1331              		.type	can_error_info, %object
 1332              		.size	can_error_info, 4
 1333              	can_error_info:
 1334 0000 00000000 		.space	4
 1335              		.section	.bss.msg_obj_stat,"aw",%nobits
 1336              		.align	2
 1337              		.set	.LANCHOR3,. + 0
 1338              		.type	msg_obj_stat, %object
 1339              		.size	msg_obj_stat, 3
 1340              	msg_obj_stat:
 1341 0000 000000   		.space	3
 1342              		.section	.bss.can_error_flag,"aw",%nobits
 1343              		.set	.LANCHOR1,. + 0
 1344              		.type	can_error_flag, %object
 1345              		.size	can_error_flag, 1
 1346              	can_error_flag:
 1347 0000 00       		.space	1
 1348              		.text
 1349              	.Letext0:
 1350              		.file 6 "/usr/local/Cellar/gcc-arm-none-eabi/20160928/arm-none-eabi/include/machine/_default_types
 1351              		.file 7 "/usr/local/Cellar/gcc-arm-none-eabi/20160928/arm-none-eabi/include/sys/_stdint.h"
 1352              		.file 8 "../../lib/lpc11cx4-library/lpc_chip_11cxx_lib/inc/cmsis_11cxx.h"
 1353              		.file 9 "../../lib/lpc11cx4-library/lpc_chip_11cxx_lib/inc/cmsis.h"
 1354              		.file 10 "../../lib/lpc11cx4-library/lpc_chip_11cxx_lib/inc/lpc_types.h"
 1355              		.file 11 "../../lib/lpc11cx4-library/lpc_chip_11cxx_lib/inc/romapi_11xx.h"
 1356              		.file 12 "../../lib/lpc11cx4-library/lpc_chip_11cxx_lib/inc/ccand_11xx.h"
 1357              		.file 13 "../../lib/lpc11cx4-library/evt_lib/inc/can.h"
 1358              		.file 14 "../../lib/lpc11cx4-library/lpc_chip_11cxx_lib/inc/chip.h"
 1359              		.section	.debug_info,"",%progbits
 1360              	.Ldebug_info0:
 1361 0000 58180000 		.4byte	0x1858
 1362 0004 0400     		.2byte	0x4
 1363 0006 00000000 		.4byte	.Ldebug_abbrev0
 1364 000a 04       		.byte	0x4
 1365 000b 01       		.uleb128 0x1
 1366 000c 59260000 		.4byte	.LASF1703
 1367 0010 01       		.byte	0x1
 1368 0011 D1110000 		.4byte	.LASF1704
 1369 0015 BD1F0000 		.4byte	.LASF1705
 1370 0019 A0000000 		.4byte	.Ldebug_ranges0+0xa0
 1371 001d 00000000 		.4byte	0
 1372 0021 00000000 		.4byte	.Ldebug_line0
 1373 0025 00000000 		.4byte	.Ldebug_macro0
 1374 0029 02       		.uleb128 0x2
 1375 002a 01       		.byte	0x1
 1376 002b 06       		.byte	0x6
 1377 002c 65610000 		.4byte	.LASF1364
 1378 0030 03       		.uleb128 0x3
 1379 0031 C0040000 		.4byte	.LASF1367
 1380 0035 06       		.byte	0x6
 1381 0036 1D       		.byte	0x1d
 1382 0037 3B000000 		.4byte	0x3b
 1383 003b 02       		.uleb128 0x2
 1384 003c 01       		.byte	0x1
ARM GAS  /var/folders/z0/6xlwn_996xz3mwq1cgzkbq4r0000gp/T//ccjakVr1.s 			page 51


 1385 003d 08       		.byte	0x8
 1386 003e B62B0000 		.4byte	.LASF1365
 1387 0042 02       		.uleb128 0x2
 1388 0043 02       		.byte	0x2
 1389 0044 05       		.byte	0x5
 1390 0045 41AB0000 		.4byte	.LASF1366
 1391 0049 03       		.uleb128 0x3
 1392 004a F4250000 		.4byte	.LASF1368
 1393 004e 06       		.byte	0x6
 1394 004f 2B       		.byte	0x2b
 1395 0050 54000000 		.4byte	0x54
 1396 0054 02       		.uleb128 0x2
 1397 0055 02       		.byte	0x2
 1398 0056 07       		.byte	0x7
 1399 0057 29610000 		.4byte	.LASF1369
 1400 005b 02       		.uleb128 0x2
 1401 005c 04       		.byte	0x4
 1402 005d 05       		.byte	0x5
 1403 005e 3D6D0000 		.4byte	.LASF1370
 1404 0062 03       		.uleb128 0x3
 1405 0063 438C0000 		.4byte	.LASF1371
 1406 0067 06       		.byte	0x6
 1407 0068 41       		.byte	0x41
 1408 0069 6D000000 		.4byte	0x6d
 1409 006d 02       		.uleb128 0x2
 1410 006e 04       		.byte	0x4
 1411 006f 07       		.byte	0x7
 1412 0070 72750000 		.4byte	.LASF1372
 1413 0074 02       		.uleb128 0x2
 1414 0075 08       		.byte	0x8
 1415 0076 05       		.byte	0x5
 1416 0077 069F0000 		.4byte	.LASF1373
 1417 007b 03       		.uleb128 0x3
 1418 007c 6F4C0000 		.4byte	.LASF1374
 1419 0080 06       		.byte	0x6
 1420 0081 5B       		.byte	0x5b
 1421 0082 86000000 		.4byte	0x86
 1422 0086 02       		.uleb128 0x2
 1423 0087 08       		.byte	0x8
 1424 0088 07       		.byte	0x7
 1425 0089 05940000 		.4byte	.LASF1375
 1426 008d 04       		.uleb128 0x4
 1427 008e 04       		.byte	0x4
 1428 008f 05       		.byte	0x5
 1429 0090 696E7400 		.ascii	"int\000"
 1430 0094 02       		.uleb128 0x2
 1431 0095 04       		.byte	0x4
 1432 0096 07       		.byte	0x7
 1433 0097 3BA90000 		.4byte	.LASF1376
 1434 009b 03       		.uleb128 0x3
 1435 009c EB400000 		.4byte	.LASF1377
 1436 00a0 07       		.byte	0x7
 1437 00a1 18       		.byte	0x18
 1438 00a2 30000000 		.4byte	0x30
 1439 00a6 03       		.uleb128 0x3
 1440 00a7 630A0000 		.4byte	.LASF1378
 1441 00ab 07       		.byte	0x7
ARM GAS  /var/folders/z0/6xlwn_996xz3mwq1cgzkbq4r0000gp/T//ccjakVr1.s 			page 52


 1442 00ac 24       		.byte	0x24
 1443 00ad 49000000 		.4byte	0x49
 1444 00b1 03       		.uleb128 0x3
 1445 00b2 F0100000 		.4byte	.LASF1379
 1446 00b6 07       		.byte	0x7
 1447 00b7 30       		.byte	0x30
 1448 00b8 62000000 		.4byte	0x62
 1449 00bc 03       		.uleb128 0x3
 1450 00bd DF310000 		.4byte	.LASF1380
 1451 00c1 07       		.byte	0x7
 1452 00c2 3C       		.byte	0x3c
 1453 00c3 7B000000 		.4byte	0x7b
 1454 00c7 05       		.uleb128 0x5
 1455 00c8 01       		.byte	0x1
 1456 00c9 3B000000 		.4byte	0x3b
 1457 00cd 0A       		.byte	0xa
 1458 00ce 32       		.byte	0x32
 1459 00cf E0000000 		.4byte	0xe0
 1460 00d3 06       		.uleb128 0x6
 1461 00d4 8C980000 		.4byte	.LASF1381
 1462 00d8 00       		.byte	0
 1463 00d9 06       		.uleb128 0x6
 1464 00da 8E110000 		.4byte	.LASF1382
 1465 00de 01       		.byte	0x1
 1466 00df 00       		.byte	0
 1467 00e0 02       		.uleb128 0x2
 1468 00e1 01       		.byte	0x1
 1469 00e2 08       		.byte	0x8
 1470 00e3 75790000 		.4byte	.LASF392
 1471 00e7 02       		.uleb128 0x2
 1472 00e8 01       		.byte	0x1
 1473 00e9 02       		.byte	0x2
 1474 00ea 83050000 		.4byte	.LASF1383
 1475 00ee 07       		.uleb128 0x7
 1476 00ef 292D0000 		.4byte	.LASF1508
 1477 00f3 01       		.byte	0x1
 1478 00f4 29000000 		.4byte	0x29
 1479 00f8 08       		.byte	0x8
 1480 00f9 50       		.byte	0x50
 1481 00fa DD010000 		.4byte	0x1dd
 1482 00fe 08       		.uleb128 0x8
 1483 00ff E68F0000 		.4byte	.LASF1384
 1484 0103 72       		.sleb128 -14
 1485 0104 08       		.uleb128 0x8
 1486 0105 472F0000 		.4byte	.LASF1385
 1487 0109 73       		.sleb128 -13
 1488 010a 08       		.uleb128 0x8
 1489 010b 001A0000 		.4byte	.LASF1386
 1490 010f 7B       		.sleb128 -5
 1491 0110 08       		.uleb128 0x8
 1492 0111 6D9D0000 		.4byte	.LASF1387
 1493 0115 7E       		.sleb128 -2
 1494 0116 08       		.uleb128 0x8
 1495 0117 008D0000 		.4byte	.LASF1388
 1496 011b 7F       		.sleb128 -1
 1497 011c 06       		.uleb128 0x6
 1498 011d BB190000 		.4byte	.LASF1389
ARM GAS  /var/folders/z0/6xlwn_996xz3mwq1cgzkbq4r0000gp/T//ccjakVr1.s 			page 53


 1499 0121 00       		.byte	0
 1500 0122 06       		.uleb128 0x6
 1501 0123 A7650000 		.4byte	.LASF1390
 1502 0127 01       		.byte	0x1
 1503 0128 06       		.uleb128 0x6
 1504 0129 34630000 		.4byte	.LASF1391
 1505 012d 02       		.byte	0x2
 1506 012e 06       		.uleb128 0x6
 1507 012f 3C610000 		.4byte	.LASF1392
 1508 0133 03       		.byte	0x3
 1509 0134 06       		.uleb128 0x6
 1510 0135 80A80000 		.4byte	.LASF1393
 1511 0139 04       		.byte	0x4
 1512 013a 06       		.uleb128 0x6
 1513 013b 9FA50000 		.4byte	.LASF1394
 1514 013f 05       		.byte	0x5
 1515 0140 06       		.uleb128 0x6
 1516 0141 E0A30000 		.4byte	.LASF1395
 1517 0145 06       		.byte	0x6
 1518 0146 06       		.uleb128 0x6
 1519 0147 F3400000 		.4byte	.LASF1396
 1520 014b 07       		.byte	0x7
 1521 014c 06       		.uleb128 0x6
 1522 014d 4F3C0000 		.4byte	.LASF1397
 1523 0151 08       		.byte	0x8
 1524 0152 06       		.uleb128 0x6
 1525 0153 123A0000 		.4byte	.LASF1398
 1526 0157 09       		.byte	0x9
 1527 0158 06       		.uleb128 0x6
 1528 0159 A78D0000 		.4byte	.LASF1399
 1529 015d 0A       		.byte	0xa
 1530 015e 06       		.uleb128 0x6
 1531 015f C78B0000 		.4byte	.LASF1400
 1532 0163 0B       		.byte	0xb
 1533 0164 06       		.uleb128 0x6
 1534 0165 2A1D0000 		.4byte	.LASF1401
 1535 0169 0C       		.byte	0xc
 1536 016a 06       		.uleb128 0x6
 1537 016b 7F080000 		.4byte	.LASF1402
 1538 016f 0D       		.byte	0xd
 1539 0170 06       		.uleb128 0x6
 1540 0171 35390000 		.4byte	.LASF1403
 1541 0175 0E       		.byte	0xe
 1542 0176 06       		.uleb128 0x6
 1543 0177 521F0000 		.4byte	.LASF1404
 1544 017b 0F       		.byte	0xf
 1545 017c 06       		.uleb128 0x6
 1546 017d 62A60000 		.4byte	.LASF1405
 1547 0181 10       		.byte	0x10
 1548 0182 06       		.uleb128 0x6
 1549 0183 48440000 		.4byte	.LASF1406
 1550 0187 11       		.byte	0x11
 1551 0188 06       		.uleb128 0x6
 1552 0189 DB990000 		.4byte	.LASF1407
 1553 018d 12       		.byte	0x12
 1554 018e 06       		.uleb128 0x6
 1555 018f E6960000 		.4byte	.LASF1408
ARM GAS  /var/folders/z0/6xlwn_996xz3mwq1cgzkbq4r0000gp/T//ccjakVr1.s 			page 54


 1556 0193 13       		.byte	0x13
 1557 0194 06       		.uleb128 0x6
 1558 0195 5E9E0000 		.4byte	.LASF1409
 1559 0199 14       		.byte	0x14
 1560 019a 06       		.uleb128 0x6
 1561 019b ABA50000 		.4byte	.LASF1410
 1562 019f 15       		.byte	0x15
 1563 01a0 06       		.uleb128 0x6
 1564 01a1 FB4E0000 		.4byte	.LASF1411
 1565 01a5 16       		.byte	0x16
 1566 01a6 06       		.uleb128 0x6
 1567 01a7 63500000 		.4byte	.LASF1412
 1568 01ab 17       		.byte	0x17
 1569 01ac 06       		.uleb128 0x6
 1570 01ad 6A490000 		.4byte	.LASF1413
 1571 01b1 18       		.byte	0x18
 1572 01b2 06       		.uleb128 0x6
 1573 01b3 BB8D0000 		.4byte	.LASF1414
 1574 01b7 19       		.byte	0x19
 1575 01b8 06       		.uleb128 0x6
 1576 01b9 C5310000 		.4byte	.LASF1415
 1577 01bd 1A       		.byte	0x1a
 1578 01be 06       		.uleb128 0x6
 1579 01bf C72C0000 		.4byte	.LASF1416
 1580 01c3 1B       		.byte	0x1b
 1581 01c4 06       		.uleb128 0x6
 1582 01c5 EB920000 		.4byte	.LASF1417
 1583 01c9 1C       		.byte	0x1c
 1584 01ca 06       		.uleb128 0x6
 1585 01cb C4480000 		.4byte	.LASF1418
 1586 01cf 1D       		.byte	0x1d
 1587 01d0 06       		.uleb128 0x6
 1588 01d1 6C4B0000 		.4byte	.LASF1419
 1589 01d5 1E       		.byte	0x1e
 1590 01d6 06       		.uleb128 0x6
 1591 01d7 A94D0000 		.4byte	.LASF1420
 1592 01db 1F       		.byte	0x1f
 1593 01dc 00       		.byte	0
 1594 01dd 03       		.uleb128 0x3
 1595 01de 14070000 		.4byte	.LASF1421
 1596 01e2 08       		.byte	0x8
 1597 01e3 77       		.byte	0x77
 1598 01e4 EE000000 		.4byte	0xee
 1599 01e8 03       		.uleb128 0x3
 1600 01e9 21AA0000 		.4byte	.LASF1422
 1601 01ed 09       		.byte	0x9
 1602 01ee 2F       		.byte	0x2f
 1603 01ef DD010000 		.4byte	0x1dd
 1604 01f3 09       		.uleb128 0x9
 1605 01f4 2003     		.2byte	0x320
 1606 01f6 05       		.byte	0x5
 1607 01f7 0901     		.2byte	0x109
 1608 01f9 85020000 		.4byte	0x285
 1609 01fd 0A       		.uleb128 0xa
 1610 01fe A5250000 		.4byte	.LASF1423
 1611 0202 05       		.byte	0x5
 1612 0203 0B01     		.2byte	0x10b
ARM GAS  /var/folders/z0/6xlwn_996xz3mwq1cgzkbq4r0000gp/T//ccjakVr1.s 			page 55


 1613 0205 A1020000 		.4byte	0x2a1
 1614 0209 00       		.byte	0
 1615 020a 0A       		.uleb128 0xa
 1616 020b 81900000 		.4byte	.LASF1424
 1617 020f 05       		.byte	0x5
 1618 0210 0C01     		.2byte	0x10c
 1619 0212 A6020000 		.4byte	0x2a6
 1620 0216 04       		.byte	0x4
 1621 0217 0A       		.uleb128 0xa
 1622 0218 930E0000 		.4byte	.LASF1425
 1623 021c 05       		.byte	0x5
 1624 021d 0D01     		.2byte	0x10d
 1625 021f B6020000 		.4byte	0x2b6
 1626 0223 80       		.byte	0x80
 1627 0224 0A       		.uleb128 0xa
 1628 0225 6C0A0000 		.4byte	.LASF1426
 1629 0229 05       		.byte	0x5
 1630 022a 0E01     		.2byte	0x10e
 1631 022c A6020000 		.4byte	0x2a6
 1632 0230 84       		.byte	0x84
 1633 0231 0B       		.uleb128 0xb
 1634 0232 AB910000 		.4byte	.LASF1427
 1635 0236 05       		.byte	0x5
 1636 0237 0F01     		.2byte	0x10f
 1637 0239 BB020000 		.4byte	0x2bb
 1638 023d 0001     		.2byte	0x100
 1639 023f 0B       		.uleb128 0xb
 1640 0240 2C7C0000 		.4byte	.LASF1428
 1641 0244 05       		.byte	0x5
 1642 0245 1001     		.2byte	0x110
 1643 0247 A6020000 		.4byte	0x2a6
 1644 024b 0401     		.2byte	0x104
 1645 024d 0B       		.uleb128 0xb
 1646 024e D1300000 		.4byte	.LASF1429
 1647 0252 05       		.byte	0x5
 1648 0253 1101     		.2byte	0x111
 1649 0255 C0020000 		.4byte	0x2c0
 1650 0259 8001     		.2byte	0x180
 1651 025b 0B       		.uleb128 0xb
 1652 025c C0900000 		.4byte	.LASF1430
 1653 0260 05       		.byte	0x5
 1654 0261 1201     		.2byte	0x112
 1655 0263 A6020000 		.4byte	0x2a6
 1656 0267 8401     		.2byte	0x184
 1657 0269 0B       		.uleb128 0xb
 1658 026a CA900000 		.4byte	.LASF1431
 1659 026e 05       		.byte	0x5
 1660 026f 1301     		.2byte	0x113
 1661 0271 C5020000 		.4byte	0x2c5
 1662 0275 0002     		.2byte	0x200
 1663 0277 0C       		.uleb128 0xc
 1664 0278 495000   		.ascii	"IP\000"
 1665 027b 05       		.byte	0x5
 1666 027c 1401     		.2byte	0x114
 1667 027e E5020000 		.4byte	0x2e5
 1668 0282 0003     		.2byte	0x300
 1669 0284 00       		.byte	0
ARM GAS  /var/folders/z0/6xlwn_996xz3mwq1cgzkbq4r0000gp/T//ccjakVr1.s 			page 56


 1670 0285 0D       		.uleb128 0xd
 1671 0286 9C020000 		.4byte	0x29c
 1672 028a 95020000 		.4byte	0x295
 1673 028e 0E       		.uleb128 0xe
 1674 028f 95020000 		.4byte	0x295
 1675 0293 00       		.byte	0
 1676 0294 00       		.byte	0
 1677 0295 02       		.uleb128 0x2
 1678 0296 04       		.byte	0x4
 1679 0297 07       		.byte	0x7
 1680 0298 995F0000 		.4byte	.LASF1432
 1681 029c 0F       		.uleb128 0xf
 1682 029d B1000000 		.4byte	0xb1
 1683 02a1 0F       		.uleb128 0xf
 1684 02a2 85020000 		.4byte	0x285
 1685 02a6 0D       		.uleb128 0xd
 1686 02a7 B1000000 		.4byte	0xb1
 1687 02ab B6020000 		.4byte	0x2b6
 1688 02af 0E       		.uleb128 0xe
 1689 02b0 95020000 		.4byte	0x295
 1690 02b4 1E       		.byte	0x1e
 1691 02b5 00       		.byte	0
 1692 02b6 0F       		.uleb128 0xf
 1693 02b7 85020000 		.4byte	0x285
 1694 02bb 0F       		.uleb128 0xf
 1695 02bc 85020000 		.4byte	0x285
 1696 02c0 0F       		.uleb128 0xf
 1697 02c1 85020000 		.4byte	0x285
 1698 02c5 0D       		.uleb128 0xd
 1699 02c6 B1000000 		.4byte	0xb1
 1700 02ca D5020000 		.4byte	0x2d5
 1701 02ce 0E       		.uleb128 0xe
 1702 02cf 95020000 		.4byte	0x295
 1703 02d3 3F       		.byte	0x3f
 1704 02d4 00       		.byte	0
 1705 02d5 0D       		.uleb128 0xd
 1706 02d6 9C020000 		.4byte	0x29c
 1707 02da E5020000 		.4byte	0x2e5
 1708 02de 0E       		.uleb128 0xe
 1709 02df 95020000 		.4byte	0x295
 1710 02e3 07       		.byte	0x7
 1711 02e4 00       		.byte	0
 1712 02e5 0F       		.uleb128 0xf
 1713 02e6 D5020000 		.4byte	0x2d5
 1714 02ea 10       		.uleb128 0x10
 1715 02eb 97460000 		.4byte	.LASF1433
 1716 02ef 05       		.byte	0x5
 1717 02f0 1501     		.2byte	0x115
 1718 02f2 F3010000 		.4byte	0x1f3
 1719 02f6 11       		.uleb128 0x11
 1720 02f7 9C020000 		.4byte	0x29c
 1721 02fb 0D       		.uleb128 0xd
 1722 02fc F6020000 		.4byte	0x2f6
 1723 0300 0B030000 		.4byte	0x30b
 1724 0304 0E       		.uleb128 0xe
 1725 0305 95020000 		.4byte	0x295
 1726 0309 03       		.byte	0x3
ARM GAS  /var/folders/z0/6xlwn_996xz3mwq1cgzkbq4r0000gp/T//ccjakVr1.s 			page 57


 1727 030a 00       		.byte	0
 1728 030b 0D       		.uleb128 0xd
 1729 030c F6020000 		.4byte	0x2f6
 1730 0310 1B030000 		.4byte	0x31b
 1731 0314 0E       		.uleb128 0xe
 1732 0315 95020000 		.4byte	0x295
 1733 0319 02       		.byte	0x2
 1734 031a 00       		.byte	0
 1735 031b 12       		.uleb128 0x12
 1736 031c F803     		.2byte	0x3f8
 1737 031e 03       		.byte	0x3
 1738 031f 2F       		.byte	0x2f
 1739 0320 30060000 		.4byte	0x630
 1740 0324 13       		.uleb128 0x13
 1741 0325 FE110000 		.4byte	.LASF1434
 1742 0329 03       		.byte	0x3
 1743 032a 30       		.byte	0x30
 1744 032b 9C020000 		.4byte	0x29c
 1745 032f 00       		.byte	0
 1746 0330 13       		.uleb128 0x13
 1747 0331 553B0000 		.4byte	.LASF1435
 1748 0335 03       		.byte	0x3
 1749 0336 31       		.byte	0x31
 1750 0337 9C020000 		.4byte	0x29c
 1751 033b 04       		.byte	0x4
 1752 033c 13       		.uleb128 0x13
 1753 033d 9D7F0000 		.4byte	.LASF1436
 1754 0341 03       		.byte	0x3
 1755 0342 32       		.byte	0x32
 1756 0343 9C020000 		.4byte	0x29c
 1757 0347 08       		.byte	0x8
 1758 0348 13       		.uleb128 0x13
 1759 0349 0C1A0000 		.4byte	.LASF1437
 1760 034d 03       		.byte	0x3
 1761 034e 33       		.byte	0x33
 1762 034f F6020000 		.4byte	0x2f6
 1763 0353 0C       		.byte	0xc
 1764 0354 13       		.uleb128 0x13
 1765 0355 6C410000 		.4byte	.LASF1438
 1766 0359 03       		.byte	0x3
 1767 035a 34       		.byte	0x34
 1768 035b 9C020000 		.4byte	0x29c
 1769 035f 10       		.byte	0x10
 1770 0360 13       		.uleb128 0x13
 1771 0361 E6830000 		.4byte	.LASF1439
 1772 0365 03       		.byte	0x3
 1773 0366 35       		.byte	0x35
 1774 0367 F6020000 		.4byte	0x2f6
 1775 036b 14       		.byte	0x14
 1776 036c 13       		.uleb128 0x13
 1777 036d 8B900000 		.4byte	.LASF1440
 1778 0371 03       		.byte	0x3
 1779 0372 36       		.byte	0x36
 1780 0373 45060000 		.4byte	0x645
 1781 0377 18       		.byte	0x18
 1782 0378 13       		.uleb128 0x13
 1783 0379 E44F0000 		.4byte	.LASF1441
ARM GAS  /var/folders/z0/6xlwn_996xz3mwq1cgzkbq4r0000gp/T//ccjakVr1.s 			page 58


 1784 037d 03       		.byte	0x3
 1785 037e 37       		.byte	0x37
 1786 037f 9C020000 		.4byte	0x29c
 1787 0383 20       		.byte	0x20
 1788 0384 13       		.uleb128 0x13
 1789 0385 A3180000 		.4byte	.LASF1442
 1790 0389 03       		.byte	0x3
 1791 038a 38       		.byte	0x38
 1792 038b 9C020000 		.4byte	0x29c
 1793 038f 24       		.byte	0x24
 1794 0390 13       		.uleb128 0x13
 1795 0391 6E7E0000 		.4byte	.LASF1443
 1796 0395 03       		.byte	0x3
 1797 0396 39       		.byte	0x39
 1798 0397 9C020000 		.4byte	0x29c
 1799 039b 28       		.byte	0x28
 1800 039c 13       		.uleb128 0x13
 1801 039d C0560000 		.4byte	.LASF1444
 1802 03a1 03       		.byte	0x3
 1803 03a2 3A       		.byte	0x3a
 1804 03a3 9C020000 		.4byte	0x29c
 1805 03a7 2C       		.byte	0x2c
 1806 03a8 13       		.uleb128 0x13
 1807 03a9 DB960000 		.4byte	.LASF1445
 1808 03ad 03       		.byte	0x3
 1809 03ae 3B       		.byte	0x3b
 1810 03af 9C020000 		.4byte	0x29c
 1811 03b3 30       		.byte	0x30
 1812 03b4 13       		.uleb128 0x13
 1813 03b5 2C7C0000 		.4byte	.LASF1428
 1814 03b9 03       		.byte	0x3
 1815 03ba 3C       		.byte	0x3c
 1816 03bb 4F060000 		.4byte	0x64f
 1817 03bf 34       		.byte	0x34
 1818 03c0 13       		.uleb128 0x13
 1819 03c1 189D0000 		.4byte	.LASF1446
 1820 03c5 03       		.byte	0x3
 1821 03c6 3D       		.byte	0x3d
 1822 03c7 9C020000 		.4byte	0x29c
 1823 03cb 40       		.byte	0x40
 1824 03cc 13       		.uleb128 0x13
 1825 03cd 267A0000 		.4byte	.LASF1447
 1826 03d1 03       		.byte	0x3
 1827 03d2 3E       		.byte	0x3e
 1828 03d3 9C020000 		.4byte	0x29c
 1829 03d7 44       		.byte	0x44
 1830 03d8 13       		.uleb128 0x13
 1831 03d9 7D820000 		.4byte	.LASF1448
 1832 03dd 03       		.byte	0x3
 1833 03de 3F       		.byte	0x3f
 1834 03df 9C020000 		.4byte	0x29c
 1835 03e3 48       		.byte	0x48
 1836 03e4 13       		.uleb128 0x13
 1837 03e5 28A20000 		.4byte	.LASF1449
 1838 03e9 03       		.byte	0x3
 1839 03ea 40       		.byte	0x40
 1840 03eb 9C020000 		.4byte	0x29c
ARM GAS  /var/folders/z0/6xlwn_996xz3mwq1cgzkbq4r0000gp/T//ccjakVr1.s 			page 59


 1841 03ef 4C       		.byte	0x4c
 1842 03f0 13       		.uleb128 0x13
 1843 03f1 C0900000 		.4byte	.LASF1430
 1844 03f5 03       		.byte	0x3
 1845 03f6 41       		.byte	0x41
 1846 03f7 69060000 		.4byte	0x669
 1847 03fb 50       		.byte	0x50
 1848 03fc 13       		.uleb128 0x13
 1849 03fd 85940000 		.4byte	.LASF1450
 1850 0401 03       		.byte	0x3
 1851 0402 42       		.byte	0x42
 1852 0403 9C020000 		.4byte	0x29c
 1853 0407 70       		.byte	0x70
 1854 0408 13       		.uleb128 0x13
 1855 0409 B9480000 		.4byte	.LASF1451
 1856 040d 03       		.byte	0x3
 1857 040e 43       		.byte	0x43
 1858 040f 9C020000 		.4byte	0x29c
 1859 0413 74       		.byte	0x74
 1860 0414 13       		.uleb128 0x13
 1861 0415 568F0000 		.4byte	.LASF1452
 1862 0419 03       		.byte	0x3
 1863 041a 44       		.byte	0x44
 1864 041b 9C020000 		.4byte	0x29c
 1865 041f 78       		.byte	0x78
 1866 0420 13       		.uleb128 0x13
 1867 0421 CA900000 		.4byte	.LASF1431
 1868 0425 03       		.byte	0x3
 1869 0426 45       		.byte	0x45
 1870 0427 F6020000 		.4byte	0x2f6
 1871 042b 7C       		.byte	0x7c
 1872 042c 13       		.uleb128 0x13
 1873 042d 33060000 		.4byte	.LASF1453
 1874 0431 03       		.byte	0x3
 1875 0432 46       		.byte	0x46
 1876 0433 9C020000 		.4byte	0x29c
 1877 0437 80       		.byte	0x80
 1878 0438 13       		.uleb128 0x13
 1879 0439 D4900000 		.4byte	.LASF1454
 1880 043d 03       		.byte	0x3
 1881 043e 47       		.byte	0x47
 1882 043f 73060000 		.4byte	0x673
 1883 0443 84       		.byte	0x84
 1884 0444 13       		.uleb128 0x13
 1885 0445 CEA10000 		.4byte	.LASF1455
 1886 0449 03       		.byte	0x3
 1887 044a 48       		.byte	0x48
 1888 044b 9C020000 		.4byte	0x29c
 1889 044f 94       		.byte	0x94
 1890 0450 13       		.uleb128 0x13
 1891 0451 F81A0000 		.4byte	.LASF1456
 1892 0455 03       		.byte	0x3
 1893 0456 49       		.byte	0x49
 1894 0457 9C020000 		.4byte	0x29c
 1895 045b 98       		.byte	0x98
 1896 045c 13       		.uleb128 0x13
 1897 045d 7A170000 		.4byte	.LASF1457
ARM GAS  /var/folders/z0/6xlwn_996xz3mwq1cgzkbq4r0000gp/T//ccjakVr1.s 			page 60


 1898 0461 03       		.byte	0x3
 1899 0462 4A       		.byte	0x4a
 1900 0463 9C020000 		.4byte	0x29c
 1901 0467 9C       		.byte	0x9c
 1902 0468 13       		.uleb128 0x13
 1903 0469 DE900000 		.4byte	.LASF1458
 1904 046d 03       		.byte	0x3
 1905 046e 4B       		.byte	0x4b
 1906 046f 7D060000 		.4byte	0x67d
 1907 0473 A0       		.byte	0xa0
 1908 0474 13       		.uleb128 0x13
 1909 0475 01840000 		.4byte	.LASF1459
 1910 0479 03       		.byte	0x3
 1911 047a 4C       		.byte	0x4c
 1912 047b 9C020000 		.4byte	0x29c
 1913 047f C0       		.byte	0xc0
 1914 0480 13       		.uleb128 0x13
 1915 0481 A9A30000 		.4byte	.LASF1460
 1916 0485 03       		.byte	0x3
 1917 0486 4D       		.byte	0x4d
 1918 0487 9C020000 		.4byte	0x29c
 1919 048b C4       		.byte	0xc4
 1920 048c 13       		.uleb128 0x13
 1921 048d 8E400000 		.4byte	.LASF1461
 1922 0491 03       		.byte	0x3
 1923 0492 4E       		.byte	0x4e
 1924 0493 9C020000 		.4byte	0x29c
 1925 0497 C8       		.byte	0xc8
 1926 0498 13       		.uleb128 0x13
 1927 0499 E8900000 		.4byte	.LASF1462
 1928 049d 03       		.byte	0x3
 1929 049e 4F       		.byte	0x4f
 1930 049f F6020000 		.4byte	0x2f6
 1931 04a3 CC       		.byte	0xcc
 1932 04a4 13       		.uleb128 0x13
 1933 04a5 6F2B0000 		.4byte	.LASF1463
 1934 04a9 03       		.byte	0x3
 1935 04aa 50       		.byte	0x50
 1936 04ab 9C020000 		.4byte	0x29c
 1937 04af D0       		.byte	0xd0
 1938 04b0 13       		.uleb128 0x13
 1939 04b1 8F4D0000 		.4byte	.LASF1464
 1940 04b5 03       		.byte	0x3
 1941 04b6 51       		.byte	0x51
 1942 04b7 9C020000 		.4byte	0x29c
 1943 04bb D4       		.byte	0xd4
 1944 04bc 13       		.uleb128 0x13
 1945 04bd 54970000 		.4byte	.LASF1465
 1946 04c1 03       		.byte	0x3
 1947 04c2 52       		.byte	0x52
 1948 04c3 9C020000 		.4byte	0x29c
 1949 04c7 D8       		.byte	0xd8
 1950 04c8 13       		.uleb128 0x13
 1951 04c9 F2900000 		.4byte	.LASF1466
 1952 04cd 03       		.byte	0x3
 1953 04ce 53       		.byte	0x53
 1954 04cf F6020000 		.4byte	0x2f6
ARM GAS  /var/folders/z0/6xlwn_996xz3mwq1cgzkbq4r0000gp/T//ccjakVr1.s 			page 61


 1955 04d3 DC       		.byte	0xdc
 1956 04d4 13       		.uleb128 0x13
 1957 04d5 A1200000 		.4byte	.LASF1467
 1958 04d9 03       		.byte	0x3
 1959 04da 54       		.byte	0x54
 1960 04db 9C020000 		.4byte	0x29c
 1961 04df E0       		.byte	0xe0
 1962 04e0 13       		.uleb128 0x13
 1963 04e1 67440000 		.4byte	.LASF1468
 1964 04e5 03       		.byte	0x3
 1965 04e6 55       		.byte	0x55
 1966 04e7 9C020000 		.4byte	0x29c
 1967 04eb E4       		.byte	0xe4
 1968 04ec 13       		.uleb128 0x13
 1969 04ed DE640000 		.4byte	.LASF1469
 1970 04f1 03       		.byte	0x3
 1971 04f2 56       		.byte	0x56
 1972 04f3 9C020000 		.4byte	0x29c
 1973 04f7 E8       		.byte	0xe8
 1974 04f8 13       		.uleb128 0x13
 1975 04f9 FC900000 		.4byte	.LASF1470
 1976 04fd 03       		.byte	0x3
 1977 04fe 57       		.byte	0x57
 1978 04ff 97060000 		.4byte	0x697
 1979 0503 EC       		.byte	0xec
 1980 0504 14       		.uleb128 0x14
 1981 0505 C4600000 		.4byte	.LASF1471
 1982 0509 03       		.byte	0x3
 1983 050a 58       		.byte	0x58
 1984 050b A1060000 		.4byte	0x6a1
 1985 050f 0001     		.2byte	0x100
 1986 0511 14       		.uleb128 0x14
 1987 0512 61560000 		.4byte	.LASF1472
 1988 0516 03       		.byte	0x3
 1989 0517 59       		.byte	0x59
 1990 0518 BB060000 		.4byte	0x6bb
 1991 051c 0801     		.2byte	0x108
 1992 051e 14       		.uleb128 0x14
 1993 051f 83870000 		.4byte	.LASF1473
 1994 0523 03       		.byte	0x3
 1995 0524 5A       		.byte	0x5a
 1996 0525 9C020000 		.4byte	0x29c
 1997 0529 5001     		.2byte	0x150
 1998 052b 14       		.uleb128 0x14
 1999 052c C0520000 		.4byte	.LASF1474
 2000 0530 03       		.byte	0x3
 2001 0531 5B       		.byte	0x5b
 2002 0532 9C020000 		.4byte	0x29c
 2003 0536 5401     		.2byte	0x154
 2004 0538 14       		.uleb128 0x14
 2005 0539 B8280000 		.4byte	.LASF1475
 2006 053d 03       		.byte	0x3
 2007 053e 5C       		.byte	0x5c
 2008 053f D5060000 		.4byte	0x6d5
 2009 0543 5801     		.2byte	0x158
 2010 0545 14       		.uleb128 0x14
 2011 0546 0D570000 		.4byte	.LASF1476
ARM GAS  /var/folders/z0/6xlwn_996xz3mwq1cgzkbq4r0000gp/T//ccjakVr1.s 			page 62


 2012 054a 03       		.byte	0x3
 2013 054b 5D       		.byte	0x5d
 2014 054c 9C020000 		.4byte	0x29c
 2015 0550 7001     		.2byte	0x170
 2016 0552 14       		.uleb128 0x14
 2017 0553 3A300000 		.4byte	.LASF1477
 2018 0557 03       		.byte	0x3
 2019 0558 5E       		.byte	0x5e
 2020 0559 9C020000 		.4byte	0x29c
 2021 055d 7401     		.2byte	0x174
 2022 055f 14       		.uleb128 0x14
 2023 0560 DE220000 		.4byte	.LASF1478
 2024 0564 03       		.byte	0x3
 2025 0565 5F       		.byte	0x5f
 2026 0566 DA060000 		.4byte	0x6da
 2027 056a 7801     		.2byte	0x178
 2028 056c 14       		.uleb128 0x14
 2029 056d 54310000 		.4byte	.LASF1479
 2030 0571 03       		.byte	0x3
 2031 0572 60       		.byte	0x60
 2032 0573 9C020000 		.4byte	0x29c
 2033 0577 9801     		.2byte	0x198
 2034 0579 14       		.uleb128 0x14
 2035 057a D0770000 		.4byte	.LASF1480
 2036 057e 03       		.byte	0x3
 2037 057f 61       		.byte	0x61
 2038 0580 F6020000 		.4byte	0x2f6
 2039 0584 9C01     		.2byte	0x19c
 2040 0586 14       		.uleb128 0x14
 2041 0587 94560000 		.4byte	.LASF1481
 2042 058b 03       		.byte	0x3
 2043 058c 62       		.byte	0x62
 2044 058d F4060000 		.4byte	0x6f4
 2045 0591 A001     		.2byte	0x1a0
 2046 0593 14       		.uleb128 0x14
 2047 0594 F23C0000 		.4byte	.LASF1482
 2048 0598 03       		.byte	0x3
 2049 0599 63       		.byte	0x63
 2050 059a 9C020000 		.4byte	0x29c
 2051 059e 0002     		.2byte	0x200
 2052 05a0 14       		.uleb128 0x14
 2053 05a1 733F0000 		.4byte	.LASF1483
 2054 05a5 03       		.byte	0x3
 2055 05a6 64       		.byte	0x64
 2056 05a7 9C020000 		.4byte	0x29c
 2057 05ab 0402     		.2byte	0x204
 2058 05ad 14       		.uleb128 0x14
 2059 05ae C67B0000 		.4byte	.LASF1484
 2060 05b2 03       		.byte	0x3
 2061 05b3 65       		.byte	0x65
 2062 05b4 9C020000 		.4byte	0x29c
 2063 05b8 0802     		.2byte	0x208
 2064 05ba 14       		.uleb128 0x14
 2065 05bb EAA50000 		.4byte	.LASF1485
 2066 05bf 03       		.byte	0x3
 2067 05c0 66       		.byte	0x66
 2068 05c1 9C020000 		.4byte	0x29c
ARM GAS  /var/folders/z0/6xlwn_996xz3mwq1cgzkbq4r0000gp/T//ccjakVr1.s 			page 63


 2069 05c5 0C02     		.2byte	0x20c
 2070 05c7 14       		.uleb128 0x14
 2071 05c8 9F560000 		.4byte	.LASF1486
 2072 05cc 03       		.byte	0x3
 2073 05cd 67       		.byte	0x67
 2074 05ce F6020000 		.4byte	0x2f6
 2075 05d2 1002     		.2byte	0x210
 2076 05d4 14       		.uleb128 0x14
 2077 05d5 A5230000 		.4byte	.LASF1487
 2078 05d9 03       		.byte	0x3
 2079 05da 68       		.byte	0x68
 2080 05db 9C020000 		.4byte	0x29c
 2081 05df 1402     		.2byte	0x214
 2082 05e1 14       		.uleb128 0x14
 2083 05e2 AA560000 		.4byte	.LASF1488
 2084 05e6 03       		.byte	0x3
 2085 05e7 69       		.byte	0x69
 2086 05e8 FE060000 		.4byte	0x6fe
 2087 05ec 1802     		.2byte	0x218
 2088 05ee 14       		.uleb128 0x14
 2089 05ef 8A320000 		.4byte	.LASF1489
 2090 05f3 03       		.byte	0x3
 2091 05f4 6A       		.byte	0x6a
 2092 05f5 9C020000 		.4byte	0x29c
 2093 05f9 3002     		.2byte	0x230
 2094 05fb 14       		.uleb128 0x14
 2095 05fc 35800000 		.4byte	.LASF1490
 2096 0600 03       		.byte	0x3
 2097 0601 6B       		.byte	0x6b
 2098 0602 9C020000 		.4byte	0x29c
 2099 0606 3402     		.2byte	0x234
 2100 0608 14       		.uleb128 0x14
 2101 0609 5F9A0000 		.4byte	.LASF1491
 2102 060d 03       		.byte	0x3
 2103 060e 6C       		.byte	0x6c
 2104 060f 9C020000 		.4byte	0x29c
 2105 0613 3802     		.2byte	0x238
 2106 0615 14       		.uleb128 0x14
 2107 0616 B5560000 		.4byte	.LASF1492
 2108 061a 03       		.byte	0x3
 2109 061b 6D       		.byte	0x6d
 2110 061c 18070000 		.4byte	0x718
 2111 0620 3C02     		.2byte	0x23c
 2112 0622 14       		.uleb128 0x14
 2113 0623 9EA40000 		.4byte	.LASF1493
 2114 0627 03       		.byte	0x3
 2115 0628 6E       		.byte	0x6e
 2116 0629 F6020000 		.4byte	0x2f6
 2117 062d F403     		.2byte	0x3f4
 2118 062f 00       		.byte	0
 2119 0630 0D       		.uleb128 0xd
 2120 0631 F6020000 		.4byte	0x2f6
 2121 0635 40060000 		.4byte	0x640
 2122 0639 0E       		.uleb128 0xe
 2123 063a 95020000 		.4byte	0x295
 2124 063e 01       		.byte	0x1
 2125 063f 00       		.byte	0
ARM GAS  /var/folders/z0/6xlwn_996xz3mwq1cgzkbq4r0000gp/T//ccjakVr1.s 			page 64


 2126 0640 0F       		.uleb128 0xf
 2127 0641 30060000 		.4byte	0x630
 2128 0645 11       		.uleb128 0x11
 2129 0646 40060000 		.4byte	0x640
 2130 064a 0F       		.uleb128 0xf
 2131 064b 0B030000 		.4byte	0x30b
 2132 064f 11       		.uleb128 0x11
 2133 0650 4A060000 		.4byte	0x64a
 2134 0654 0D       		.uleb128 0xd
 2135 0655 F6020000 		.4byte	0x2f6
 2136 0659 64060000 		.4byte	0x664
 2137 065d 0E       		.uleb128 0xe
 2138 065e 95020000 		.4byte	0x295
 2139 0662 07       		.byte	0x7
 2140 0663 00       		.byte	0
 2141 0664 0F       		.uleb128 0xf
 2142 0665 54060000 		.4byte	0x654
 2143 0669 11       		.uleb128 0x11
 2144 066a 64060000 		.4byte	0x664
 2145 066e 0F       		.uleb128 0xf
 2146 066f FB020000 		.4byte	0x2fb
 2147 0673 11       		.uleb128 0x11
 2148 0674 6E060000 		.4byte	0x66e
 2149 0678 0F       		.uleb128 0xf
 2150 0679 54060000 		.4byte	0x654
 2151 067d 11       		.uleb128 0x11
 2152 067e 78060000 		.4byte	0x678
 2153 0682 0D       		.uleb128 0xd
 2154 0683 F6020000 		.4byte	0x2f6
 2155 0687 92060000 		.4byte	0x692
 2156 068b 0E       		.uleb128 0xe
 2157 068c 95020000 		.4byte	0x295
 2158 0690 04       		.byte	0x4
 2159 0691 00       		.byte	0
 2160 0692 0F       		.uleb128 0xf
 2161 0693 82060000 		.4byte	0x682
 2162 0697 11       		.uleb128 0x11
 2163 0698 92060000 		.4byte	0x692
 2164 069c 0F       		.uleb128 0xf
 2165 069d 30060000 		.4byte	0x630
 2166 06a1 11       		.uleb128 0x11
 2167 06a2 9C060000 		.4byte	0x69c
 2168 06a6 0D       		.uleb128 0xd
 2169 06a7 F6020000 		.4byte	0x2f6
 2170 06ab B6060000 		.4byte	0x6b6
 2171 06af 0E       		.uleb128 0xe
 2172 06b0 95020000 		.4byte	0x295
 2173 06b4 11       		.byte	0x11
 2174 06b5 00       		.byte	0
 2175 06b6 0F       		.uleb128 0xf
 2176 06b7 A6060000 		.4byte	0x6a6
 2177 06bb 11       		.uleb128 0x11
 2178 06bc B6060000 		.4byte	0x6b6
 2179 06c0 0D       		.uleb128 0xd
 2180 06c1 F6020000 		.4byte	0x2f6
 2181 06c5 D0060000 		.4byte	0x6d0
 2182 06c9 0E       		.uleb128 0xe
ARM GAS  /var/folders/z0/6xlwn_996xz3mwq1cgzkbq4r0000gp/T//ccjakVr1.s 			page 65


 2183 06ca 95020000 		.4byte	0x295
 2184 06ce 05       		.byte	0x5
 2185 06cf 00       		.byte	0
 2186 06d0 0F       		.uleb128 0xf
 2187 06d1 C0060000 		.4byte	0x6c0
 2188 06d5 11       		.uleb128 0x11
 2189 06d6 D0060000 		.4byte	0x6d0
 2190 06da 0F       		.uleb128 0xf
 2191 06db D5020000 		.4byte	0x2d5
 2192 06df 0D       		.uleb128 0xd
 2193 06e0 F6020000 		.4byte	0x2f6
 2194 06e4 EF060000 		.4byte	0x6ef
 2195 06e8 0E       		.uleb128 0xe
 2196 06e9 95020000 		.4byte	0x295
 2197 06ed 17       		.byte	0x17
 2198 06ee 00       		.byte	0
 2199 06ef 0F       		.uleb128 0xf
 2200 06f0 DF060000 		.4byte	0x6df
 2201 06f4 11       		.uleb128 0x11
 2202 06f5 EF060000 		.4byte	0x6ef
 2203 06f9 0F       		.uleb128 0xf
 2204 06fa C0060000 		.4byte	0x6c0
 2205 06fe 11       		.uleb128 0x11
 2206 06ff F9060000 		.4byte	0x6f9
 2207 0703 0D       		.uleb128 0xd
 2208 0704 F6020000 		.4byte	0x2f6
 2209 0708 13070000 		.4byte	0x713
 2210 070c 0E       		.uleb128 0xe
 2211 070d 95020000 		.4byte	0x295
 2212 0711 6D       		.byte	0x6d
 2213 0712 00       		.byte	0
 2214 0713 0F       		.uleb128 0xf
 2215 0714 03070000 		.4byte	0x703
 2216 0718 11       		.uleb128 0x11
 2217 0719 13070000 		.4byte	0x713
 2218 071d 03       		.uleb128 0x3
 2219 071e D1780000 		.4byte	.LASF1494
 2220 0722 03       		.byte	0x3
 2221 0723 6F       		.byte	0x6f
 2222 0724 1B030000 		.4byte	0x31b
 2223 0728 05       		.uleb128 0x5
 2224 0729 01       		.byte	0x1
 2225 072a 3B000000 		.4byte	0x3b
 2226 072e 03       		.byte	0x3
 2227 072f 87       		.byte	0x87
 2228 0730 7D070000 		.4byte	0x77d
 2229 0734 06       		.uleb128 0x6
 2230 0735 D24B0000 		.4byte	.LASF1495
 2231 0739 00       		.byte	0
 2232 073a 06       		.uleb128 0x6
 2233 073b 9B220000 		.4byte	.LASF1496
 2234 073f 01       		.byte	0x1
 2235 0740 06       		.uleb128 0x6
 2236 0741 DD4B0000 		.4byte	.LASF1497
 2237 0745 02       		.byte	0x2
 2238 0746 06       		.uleb128 0x6
 2239 0747 B3A30000 		.4byte	.LASF1498
ARM GAS  /var/folders/z0/6xlwn_996xz3mwq1cgzkbq4r0000gp/T//ccjakVr1.s 			page 66


 2240 074b 03       		.byte	0x3
 2241 074c 06       		.uleb128 0x6
 2242 074d 9B790000 		.4byte	.LASF1499
 2243 0751 04       		.byte	0x4
 2244 0752 06       		.uleb128 0x6
 2245 0753 18570000 		.4byte	.LASF1500
 2246 0757 05       		.byte	0x5
 2247 0758 06       		.uleb128 0x6
 2248 0759 E1A90000 		.4byte	.LASF1501
 2249 075d 06       		.byte	0x6
 2250 075e 06       		.uleb128 0x6
 2251 075f 735E0000 		.4byte	.LASF1502
 2252 0763 07       		.byte	0x7
 2253 0764 06       		.uleb128 0x6
 2254 0765 68000000 		.4byte	.LASF1503
 2255 0769 08       		.byte	0x8
 2256 076a 06       		.uleb128 0x6
 2257 076b 441A0000 		.4byte	.LASF1504
 2258 076f 09       		.byte	0x9
 2259 0770 06       		.uleb128 0x6
 2260 0771 742A0000 		.4byte	.LASF1505
 2261 0775 0A       		.byte	0xa
 2262 0776 06       		.uleb128 0x6
 2263 0777 2E0C0000 		.4byte	.LASF1506
 2264 077b 0B       		.byte	0xb
 2265 077c 00       		.byte	0
 2266 077d 03       		.uleb128 0x3
 2267 077e CE080000 		.4byte	.LASF1507
 2268 0782 03       		.byte	0x3
 2269 0783 96       		.byte	0x96
 2270 0784 28070000 		.4byte	0x728
 2271 0788 07       		.uleb128 0x7
 2272 0789 3B1C0000 		.4byte	.LASF1509
 2273 078d 01       		.byte	0x1
 2274 078e 3B000000 		.4byte	0x3b
 2275 0792 02       		.byte	0x2
 2276 0793 E4       		.byte	0xe4
 2277 0794 0B080000 		.4byte	0x80b
 2278 0798 06       		.uleb128 0x6
 2279 0799 5BA50000 		.4byte	.LASF1510
 2280 079d 00       		.byte	0
 2281 079e 06       		.uleb128 0x6
 2282 079f F8790000 		.4byte	.LASF1511
 2283 07a3 01       		.byte	0x1
 2284 07a4 06       		.uleb128 0x6
 2285 07a5 52500000 		.4byte	.LASF1512
 2286 07a9 02       		.byte	0x2
 2287 07aa 06       		.uleb128 0x6
 2288 07ab 23820000 		.4byte	.LASF1513
 2289 07af 03       		.byte	0x3
 2290 07b0 06       		.uleb128 0x6
 2291 07b1 11610000 		.4byte	.LASF1514
 2292 07b5 04       		.byte	0x4
 2293 07b6 06       		.uleb128 0x6
 2294 07b7 603B0000 		.4byte	.LASF1515
 2295 07bb 05       		.byte	0x5
 2296 07bc 06       		.uleb128 0x6
ARM GAS  /var/folders/z0/6xlwn_996xz3mwq1cgzkbq4r0000gp/T//ccjakVr1.s 			page 67


 2297 07bd 9F1D0000 		.4byte	.LASF1516
 2298 07c1 06       		.byte	0x6
 2299 07c2 06       		.uleb128 0x6
 2300 07c3 F0910000 		.4byte	.LASF1517
 2301 07c7 07       		.byte	0x7
 2302 07c8 06       		.uleb128 0x6
 2303 07c9 04920000 		.4byte	.LASF1518
 2304 07cd 08       		.byte	0x8
 2305 07ce 06       		.uleb128 0x6
 2306 07cf 22480000 		.4byte	.LASF1519
 2307 07d3 09       		.byte	0x9
 2308 07d4 06       		.uleb128 0x6
 2309 07d5 36480000 		.4byte	.LASF1520
 2310 07d9 0A       		.byte	0xa
 2311 07da 06       		.uleb128 0x6
 2312 07db C9400000 		.4byte	.LASF1521
 2313 07df 0B       		.byte	0xb
 2314 07e0 06       		.uleb128 0x6
 2315 07e1 10910000 		.4byte	.LASF1522
 2316 07e5 0C       		.byte	0xc
 2317 07e6 06       		.uleb128 0x6
 2318 07e7 71610000 		.4byte	.LASF1523
 2319 07eb 0D       		.byte	0xd
 2320 07ec 06       		.uleb128 0x6
 2321 07ed 14460000 		.4byte	.LASF1524
 2322 07f1 0E       		.byte	0xe
 2323 07f2 06       		.uleb128 0x6
 2324 07f3 1EAD0000 		.4byte	.LASF1525
 2325 07f7 0F       		.byte	0xf
 2326 07f8 06       		.uleb128 0x6
 2327 07f9 BA320000 		.4byte	.LASF1526
 2328 07fd 10       		.byte	0x10
 2329 07fe 06       		.uleb128 0x6
 2330 07ff 78000000 		.4byte	.LASF1527
 2331 0803 11       		.byte	0x11
 2332 0804 06       		.uleb128 0x6
 2333 0805 72A60000 		.4byte	.LASF1528
 2334 0809 12       		.byte	0x12
 2335 080a 00       		.byte	0
 2336 080b 10       		.uleb128 0x10
 2337 080c BD780000 		.4byte	.LASF1529
 2338 0810 02       		.byte	0x2
 2339 0811 2001     		.2byte	0x120
 2340 0813 88070000 		.4byte	0x788
 2341 0817 15       		.uleb128 0x15
 2342 0818 14       		.byte	0x14
 2343 0819 04       		.byte	0x4
 2344 081a 2D       		.byte	0x2d
 2345 081b 5C080000 		.4byte	0x85c
 2346 081f 13       		.uleb128 0x13
 2347 0820 4E8C0000 		.4byte	.LASF1530
 2348 0824 04       		.byte	0x4
 2349 0825 2E       		.byte	0x2e
 2350 0826 5C080000 		.4byte	0x85c
 2351 082a 00       		.byte	0
 2352 082b 13       		.uleb128 0x13
 2353 082c FC620000 		.4byte	.LASF1531
ARM GAS  /var/folders/z0/6xlwn_996xz3mwq1cgzkbq4r0000gp/T//ccjakVr1.s 			page 68


 2354 0830 04       		.byte	0x4
 2355 0831 2F       		.byte	0x2f
 2356 0832 B1000000 		.4byte	0xb1
 2357 0836 04       		.byte	0x4
 2358 0837 13       		.uleb128 0x13
 2359 0838 390C0000 		.4byte	.LASF1532
 2360 083c 04       		.byte	0x4
 2361 083d 30       		.byte	0x30
 2362 083e B1000000 		.4byte	0xb1
 2363 0842 08       		.byte	0x8
 2364 0843 13       		.uleb128 0x13
 2365 0844 6F8D0000 		.4byte	.LASF1533
 2366 0848 04       		.byte	0x4
 2367 0849 31       		.byte	0x31
 2368 084a B1000000 		.4byte	0xb1
 2369 084e 0C       		.byte	0xc
 2370 084f 13       		.uleb128 0x13
 2371 0850 5D890000 		.4byte	.LASF1534
 2372 0854 04       		.byte	0x4
 2373 0855 32       		.byte	0x32
 2374 0856 B1000000 		.4byte	0xb1
 2375 085a 10       		.byte	0x10
 2376 085b 00       		.byte	0
 2377 085c 16       		.uleb128 0x16
 2378 085d 04       		.byte	0x4
 2379 085e 03       		.uleb128 0x3
 2380 085f 6DAB0000 		.4byte	.LASF1535
 2381 0863 04       		.byte	0x4
 2382 0864 33       		.byte	0x33
 2383 0865 17080000 		.4byte	0x817
 2384 0869 0D       		.uleb128 0xd
 2385 086a F6020000 		.4byte	0x2f6
 2386 086e 79080000 		.4byte	0x879
 2387 0872 0E       		.uleb128 0xe
 2388 0873 95020000 		.4byte	0x295
 2389 0877 00       		.byte	0
 2390 0878 00       		.byte	0
 2391 0879 15       		.uleb128 0x15
 2392 087a 20       		.byte	0x20
 2393 087b 0B       		.byte	0xb
 2394 087c 31       		.byte	0x31
 2395 087d E2080000 		.4byte	0x8e2
 2396 0881 13       		.uleb128 0x13
 2397 0882 CA560000 		.4byte	.LASF1536
 2398 0886 0B       		.byte	0xb
 2399 0887 32       		.byte	0x32
 2400 0888 E2080000 		.4byte	0x8e2
 2401 088c 00       		.byte	0
 2402 088d 13       		.uleb128 0x13
 2403 088e C7070000 		.4byte	.LASF1537
 2404 0892 0B       		.byte	0xb
 2405 0893 33       		.byte	0x33
 2406 0894 E2080000 		.4byte	0x8e2
 2407 0898 04       		.byte	0x4
 2408 0899 13       		.uleb128 0x13
 2409 089a AF2A0000 		.4byte	.LASF1538
 2410 089e 0B       		.byte	0xb
ARM GAS  /var/folders/z0/6xlwn_996xz3mwq1cgzkbq4r0000gp/T//ccjakVr1.s 			page 69


 2411 089f 34       		.byte	0x34
 2412 08a0 E2080000 		.4byte	0x8e2
 2413 08a4 08       		.byte	0x8
 2414 08a5 13       		.uleb128 0x13
 2415 08a6 43250000 		.4byte	.LASF1539
 2416 08aa 0B       		.byte	0xb
 2417 08ab 35       		.byte	0x35
 2418 08ac E2080000 		.4byte	0x8e2
 2419 08b0 0C       		.byte	0xc
 2420 08b1 13       		.uleb128 0x13
 2421 08b2 D1070000 		.4byte	.LASF1540
 2422 08b6 0B       		.byte	0xb
 2423 08b7 36       		.byte	0x36
 2424 08b8 E2080000 		.4byte	0x8e2
 2425 08bc 10       		.byte	0x10
 2426 08bd 13       		.uleb128 0x13
 2427 08be DB070000 		.4byte	.LASF1541
 2428 08c2 0B       		.byte	0xb
 2429 08c3 37       		.byte	0x37
 2430 08c4 E2080000 		.4byte	0x8e2
 2431 08c8 14       		.byte	0x14
 2432 08c9 13       		.uleb128 0x13
 2433 08ca E5070000 		.4byte	.LASF1542
 2434 08ce 0B       		.byte	0xb
 2435 08cf 38       		.byte	0x38
 2436 08d0 E2080000 		.4byte	0x8e2
 2437 08d4 18       		.byte	0x18
 2438 08d5 13       		.uleb128 0x13
 2439 08d6 EF070000 		.4byte	.LASF1543
 2440 08da 0B       		.byte	0xb
 2441 08db 39       		.byte	0x39
 2442 08dc E2080000 		.4byte	0x8e2
 2443 08e0 1C       		.byte	0x1c
 2444 08e1 00       		.byte	0
 2445 08e2 11       		.uleb128 0x11
 2446 08e3 B1000000 		.4byte	0xb1
 2447 08e7 03       		.uleb128 0x3
 2448 08e8 400B0000 		.4byte	.LASF1544
 2449 08ec 0B       		.byte	0xb
 2450 08ed 3A       		.byte	0x3a
 2451 08ee 79080000 		.4byte	0x879
 2452 08f2 17       		.uleb128 0x17
 2453 08f3 04       		.byte	0x4
 2454 08f4 9B000000 		.4byte	0x9b
 2455 08f8 18       		.uleb128 0x18
 2456 08f9 04       		.byte	0x4
 2457 08fa 0C       		.byte	0xc
 2458 08fb 36       		.byte	0x36
 2459 08fc 17090000 		.4byte	0x917
 2460 0900 19       		.uleb128 0x19
 2461 0901 0E190000 		.4byte	.LASF1545
 2462 0905 0C       		.byte	0xc
 2463 0906 37       		.byte	0x37
 2464 0907 9C020000 		.4byte	0x29c
 2465 090b 19       		.uleb128 0x19
 2466 090c AE180000 		.4byte	.LASF1546
 2467 0910 0C       		.byte	0xc
ARM GAS  /var/folders/z0/6xlwn_996xz3mwq1cgzkbq4r0000gp/T//ccjakVr1.s 			page 70


 2468 0911 38       		.byte	0x38
 2469 0912 9C020000 		.4byte	0x29c
 2470 0916 00       		.byte	0
 2471 0917 18       		.uleb128 0x18
 2472 0918 04       		.byte	0x4
 2473 0919 0C       		.byte	0xc
 2474 091a 47       		.byte	0x47
 2475 091b 36090000 		.4byte	0x936
 2476 091f 19       		.uleb128 0x19
 2477 0920 25390000 		.4byte	.LASF1547
 2478 0924 0C       		.byte	0xc
 2479 0925 48       		.byte	0x48
 2480 0926 9C020000 		.4byte	0x29c
 2481 092a 19       		.uleb128 0x19
 2482 092b A9500000 		.4byte	.LASF1548
 2483 092f 0C       		.byte	0xc
 2484 0930 49       		.byte	0x49
 2485 0931 9C020000 		.4byte	0x29c
 2486 0935 00       		.byte	0
 2487 0936 12       		.uleb128 0x12
 2488 0937 8801     		.2byte	0x188
 2489 0939 0C       		.byte	0xc
 2490 093a 2A       		.byte	0x2a
 2491 093b 5D0B0000 		.4byte	0xb5d
 2492 093f 13       		.uleb128 0x13
 2493 0940 E3120000 		.4byte	.LASF1549
 2494 0944 0C       		.byte	0xc
 2495 0945 2C       		.byte	0x2c
 2496 0946 9C020000 		.4byte	0x29c
 2497 094a 00       		.byte	0
 2498 094b 13       		.uleb128 0x13
 2499 094c C6630000 		.4byte	.LASF1550
 2500 0950 0C       		.byte	0xc
 2501 0951 2D       		.byte	0x2d
 2502 0952 9C020000 		.4byte	0x29c
 2503 0956 04       		.byte	0x4
 2504 0957 13       		.uleb128 0x13
 2505 0958 129D0000 		.4byte	.LASF1551
 2506 095c 0C       		.byte	0xc
 2507 095d 2E       		.byte	0x2e
 2508 095e F6020000 		.4byte	0x2f6
 2509 0962 08       		.byte	0x8
 2510 0963 13       		.uleb128 0x13
 2511 0964 7F940000 		.4byte	.LASF1552
 2512 0968 0C       		.byte	0xc
 2513 0969 2F       		.byte	0x2f
 2514 096a 9C020000 		.4byte	0x29c
 2515 096e 0C       		.byte	0xc
 2516 096f 13       		.uleb128 0x13
 2517 0970 04850000 		.4byte	.LASF1553
 2518 0974 0C       		.byte	0xc
 2519 0975 30       		.byte	0x30
 2520 0976 F6020000 		.4byte	0x2f6
 2521 097a 10       		.byte	0x10
 2522 097b 13       		.uleb128 0x13
 2523 097c 529C0000 		.4byte	.LASF1554
 2524 0980 0C       		.byte	0xc
ARM GAS  /var/folders/z0/6xlwn_996xz3mwq1cgzkbq4r0000gp/T//ccjakVr1.s 			page 71


 2525 0981 31       		.byte	0x31
 2526 0982 9C020000 		.4byte	0x29c
 2527 0986 14       		.byte	0x14
 2528 0987 13       		.uleb128 0x13
 2529 0988 CF480000 		.4byte	.LASF1555
 2530 098c 0C       		.byte	0xc
 2531 098d 32       		.byte	0x32
 2532 098e 9C020000 		.4byte	0x29c
 2533 0992 18       		.byte	0x18
 2534 0993 13       		.uleb128 0x13
 2535 0994 81900000 		.4byte	.LASF1424
 2536 0998 0C       		.byte	0xc
 2537 0999 33       		.byte	0x33
 2538 099a 620B0000 		.4byte	0xb62
 2539 099e 1C       		.byte	0x1c
 2540 099f 13       		.uleb128 0x13
 2541 09a0 6F960000 		.4byte	.LASF1556
 2542 09a4 0C       		.byte	0xc
 2543 09a5 34       		.byte	0x34
 2544 09a6 9C020000 		.4byte	0x29c
 2545 09aa 20       		.byte	0x20
 2546 09ab 1A       		.uleb128 0x1a
 2547 09ac F8080000 		.4byte	0x8f8
 2548 09b0 24       		.byte	0x24
 2549 09b1 13       		.uleb128 0x13
 2550 09b2 46740000 		.4byte	.LASF1557
 2551 09b6 0C       		.byte	0xc
 2552 09b7 3B       		.byte	0x3b
 2553 09b8 9C020000 		.4byte	0x29c
 2554 09bc 28       		.byte	0x28
 2555 09bd 13       		.uleb128 0x13
 2556 09be CA090000 		.4byte	.LASF1558
 2557 09c2 0C       		.byte	0xc
 2558 09c3 3C       		.byte	0x3c
 2559 09c4 9C020000 		.4byte	0x29c
 2560 09c8 2C       		.byte	0x2c
 2561 09c9 13       		.uleb128 0x13
 2562 09ca 4D6F0000 		.4byte	.LASF1559
 2563 09ce 0C       		.byte	0xc
 2564 09cf 3D       		.byte	0x3d
 2565 09d0 9C020000 		.4byte	0x29c
 2566 09d4 30       		.byte	0x30
 2567 09d5 13       		.uleb128 0x13
 2568 09d6 596F0000 		.4byte	.LASF1560
 2569 09da 0C       		.byte	0xc
 2570 09db 3E       		.byte	0x3e
 2571 09dc 9C020000 		.4byte	0x29c
 2572 09e0 34       		.byte	0x34
 2573 09e1 13       		.uleb128 0x13
 2574 09e2 95870000 		.4byte	.LASF1561
 2575 09e6 0C       		.byte	0xc
 2576 09e7 3F       		.byte	0x3f
 2577 09e8 9C020000 		.4byte	0x29c
 2578 09ec 38       		.byte	0x38
 2579 09ed 13       		.uleb128 0x13
 2580 09ee 3E690000 		.4byte	.LASF1562
 2581 09f2 0C       		.byte	0xc
ARM GAS  /var/folders/z0/6xlwn_996xz3mwq1cgzkbq4r0000gp/T//ccjakVr1.s 			page 72


 2582 09f3 40       		.byte	0x40
 2583 09f4 9C020000 		.4byte	0x29c
 2584 09f8 3C       		.byte	0x3c
 2585 09f9 13       		.uleb128 0x13
 2586 09fa C21C0000 		.4byte	.LASF1563
 2587 09fe 0C       		.byte	0xc
 2588 09ff 41       		.byte	0x41
 2589 0a00 9C020000 		.4byte	0x29c
 2590 0a04 40       		.byte	0x40
 2591 0a05 13       		.uleb128 0x13
 2592 0a06 086C0000 		.4byte	.LASF1564
 2593 0a0a 0C       		.byte	0xc
 2594 0a0b 42       		.byte	0x42
 2595 0a0c 9C020000 		.4byte	0x29c
 2596 0a10 44       		.byte	0x44
 2597 0a11 13       		.uleb128 0x13
 2598 0a12 136C0000 		.4byte	.LASF1565
 2599 0a16 0C       		.byte	0xc
 2600 0a17 43       		.byte	0x43
 2601 0a18 9C020000 		.4byte	0x29c
 2602 0a1c 48       		.byte	0x48
 2603 0a1d 13       		.uleb128 0x13
 2604 0a1e 8B900000 		.4byte	.LASF1440
 2605 0a22 0C       		.byte	0xc
 2606 0a23 44       		.byte	0x44
 2607 0a24 7C0B0000 		.4byte	0xb7c
 2608 0a28 4C       		.byte	0x4c
 2609 0a29 13       		.uleb128 0x13
 2610 0a2a 779A0000 		.4byte	.LASF1566
 2611 0a2e 0C       		.byte	0xc
 2612 0a2f 45       		.byte	0x45
 2613 0a30 9C020000 		.4byte	0x29c
 2614 0a34 80       		.byte	0x80
 2615 0a35 1A       		.uleb128 0x1a
 2616 0a36 17090000 		.4byte	0x917
 2617 0a3a 84       		.byte	0x84
 2618 0a3b 13       		.uleb128 0x13
 2619 0a3c D7710000 		.4byte	.LASF1567
 2620 0a40 0C       		.byte	0xc
 2621 0a41 4C       		.byte	0x4c
 2622 0a42 9C020000 		.4byte	0x29c
 2623 0a46 88       		.byte	0x88
 2624 0a47 13       		.uleb128 0x13
 2625 0a48 E3710000 		.4byte	.LASF1568
 2626 0a4c 0C       		.byte	0xc
 2627 0a4d 4D       		.byte	0x4d
 2628 0a4e 9C020000 		.4byte	0x29c
 2629 0a52 8C       		.byte	0x8c
 2630 0a53 13       		.uleb128 0x13
 2631 0a54 0B6D0000 		.4byte	.LASF1569
 2632 0a58 0C       		.byte	0xc
 2633 0a59 4E       		.byte	0x4e
 2634 0a5a 9C020000 		.4byte	0x29c
 2635 0a5e 90       		.byte	0x90
 2636 0a5f 13       		.uleb128 0x13
 2637 0a60 176D0000 		.4byte	.LASF1570
 2638 0a64 0C       		.byte	0xc
ARM GAS  /var/folders/z0/6xlwn_996xz3mwq1cgzkbq4r0000gp/T//ccjakVr1.s 			page 73


 2639 0a65 4F       		.byte	0x4f
 2640 0a66 9C020000 		.4byte	0x29c
 2641 0a6a 94       		.byte	0x94
 2642 0a6b 13       		.uleb128 0x13
 2643 0a6c D4A90000 		.4byte	.LASF1571
 2644 0a70 0C       		.byte	0xc
 2645 0a71 50       		.byte	0x50
 2646 0a72 9C020000 		.4byte	0x29c
 2647 0a76 98       		.byte	0x98
 2648 0a77 13       		.uleb128 0x13
 2649 0a78 B29E0000 		.4byte	.LASF1572
 2650 0a7c 0C       		.byte	0xc
 2651 0a7d 51       		.byte	0x51
 2652 0a7e 9C020000 		.4byte	0x29c
 2653 0a82 9C       		.byte	0x9c
 2654 0a83 13       		.uleb128 0x13
 2655 0a84 C8230000 		.4byte	.LASF1573
 2656 0a88 0C       		.byte	0xc
 2657 0a89 52       		.byte	0x52
 2658 0a8a 9C020000 		.4byte	0x29c
 2659 0a8e A0       		.byte	0xa0
 2660 0a8f 13       		.uleb128 0x13
 2661 0a90 7CA10000 		.4byte	.LASF1574
 2662 0a94 0C       		.byte	0xc
 2663 0a95 53       		.byte	0x53
 2664 0a96 9C020000 		.4byte	0x29c
 2665 0a9a A4       		.byte	0xa4
 2666 0a9b 13       		.uleb128 0x13
 2667 0a9c 0A2A0000 		.4byte	.LASF1575
 2668 0aa0 0C       		.byte	0xc
 2669 0aa1 54       		.byte	0x54
 2670 0aa2 9C020000 		.4byte	0x29c
 2671 0aa6 A8       		.byte	0xa8
 2672 0aa7 13       		.uleb128 0x13
 2673 0aa8 2C7C0000 		.4byte	.LASF1428
 2674 0aac 0C       		.byte	0xc
 2675 0aad 55       		.byte	0x55
 2676 0aae 960B0000 		.4byte	0xb96
 2677 0ab2 AC       		.byte	0xac
 2678 0ab3 14       		.uleb128 0x14
 2679 0ab4 EC370000 		.4byte	.LASF1576
 2680 0ab8 0C       		.byte	0xc
 2681 0ab9 56       		.byte	0x56
 2682 0aba F6020000 		.4byte	0x2f6
 2683 0abe 0401     		.2byte	0x104
 2684 0ac0 14       		.uleb128 0x14
 2685 0ac1 F6370000 		.4byte	.LASF1577
 2686 0ac5 0C       		.byte	0xc
 2687 0ac6 57       		.byte	0x57
 2688 0ac7 F6020000 		.4byte	0x2f6
 2689 0acb 0801     		.2byte	0x108
 2690 0acd 14       		.uleb128 0x14
 2691 0ace C0900000 		.4byte	.LASF1430
 2692 0ad2 0C       		.byte	0xc
 2693 0ad3 58       		.byte	0x58
 2694 0ad4 A00B0000 		.4byte	0xba0
 2695 0ad8 0C01     		.2byte	0x10c
ARM GAS  /var/folders/z0/6xlwn_996xz3mwq1cgzkbq4r0000gp/T//ccjakVr1.s 			page 74


 2696 0ada 14       		.uleb128 0x14
 2697 0adb 2D090000 		.4byte	.LASF1578
 2698 0adf 0C       		.byte	0xc
 2699 0ae0 59       		.byte	0x59
 2700 0ae1 F6020000 		.4byte	0x2f6
 2701 0ae5 2401     		.2byte	0x124
 2702 0ae7 14       		.uleb128 0x14
 2703 0ae8 34090000 		.4byte	.LASF1579
 2704 0aec 0C       		.byte	0xc
 2705 0aed 5A       		.byte	0x5a
 2706 0aee F6020000 		.4byte	0x2f6
 2707 0af2 2801     		.2byte	0x128
 2708 0af4 14       		.uleb128 0x14
 2709 0af5 CA900000 		.4byte	.LASF1431
 2710 0af9 0C       		.byte	0xc
 2711 0afa 5B       		.byte	0x5b
 2712 0afb AA0B0000 		.4byte	0xbaa
 2713 0aff 2C01     		.2byte	0x12c
 2714 0b01 14       		.uleb128 0x14
 2715 0b02 AE850000 		.4byte	.LASF1580
 2716 0b06 0C       		.byte	0xc
 2717 0b07 5C       		.byte	0x5c
 2718 0b08 F6020000 		.4byte	0x2f6
 2719 0b0c 4401     		.2byte	0x144
 2720 0b0e 14       		.uleb128 0x14
 2721 0b0f B48D0000 		.4byte	.LASF1581
 2722 0b13 0C       		.byte	0xc
 2723 0b14 5D       		.byte	0x5d
 2724 0b15 F6020000 		.4byte	0x2f6
 2725 0b19 4801     		.2byte	0x148
 2726 0b1b 14       		.uleb128 0x14
 2727 0b1c D4900000 		.4byte	.LASF1454
 2728 0b20 0C       		.byte	0xc
 2729 0b21 5E       		.byte	0x5e
 2730 0b22 B40B0000 		.4byte	0xbb4
 2731 0b26 4C01     		.2byte	0x14c
 2732 0b28 14       		.uleb128 0x14
 2733 0b29 D32A0000 		.4byte	.LASF1582
 2734 0b2d 0C       		.byte	0xc
 2735 0b2e 5F       		.byte	0x5f
 2736 0b2f F6020000 		.4byte	0x2f6
 2737 0b33 6401     		.2byte	0x164
 2738 0b35 14       		.uleb128 0x14
 2739 0b36 DC2A0000 		.4byte	.LASF1583
 2740 0b3a 0C       		.byte	0xc
 2741 0b3b 60       		.byte	0x60
 2742 0b3c F6020000 		.4byte	0x2f6
 2743 0b40 6801     		.2byte	0x168
 2744 0b42 14       		.uleb128 0x14
 2745 0b43 DE900000 		.4byte	.LASF1458
 2746 0b47 0C       		.byte	0xc
 2747 0b48 61       		.byte	0x61
 2748 0b49 BE0B0000 		.4byte	0xbbe
 2749 0b4d 6C01     		.2byte	0x16c
 2750 0b4f 14       		.uleb128 0x14
 2751 0b50 51030000 		.4byte	.LASF1584
 2752 0b54 0C       		.byte	0xc
ARM GAS  /var/folders/z0/6xlwn_996xz3mwq1cgzkbq4r0000gp/T//ccjakVr1.s 			page 75


 2753 0b55 62       		.byte	0x62
 2754 0b56 9C020000 		.4byte	0x29c
 2755 0b5a 8401     		.2byte	0x184
 2756 0b5c 00       		.byte	0
 2757 0b5d 0F       		.uleb128 0xf
 2758 0b5e 69080000 		.4byte	0x869
 2759 0b62 11       		.uleb128 0x11
 2760 0b63 5D0B0000 		.4byte	0xb5d
 2761 0b67 0D       		.uleb128 0xd
 2762 0b68 F6020000 		.4byte	0x2f6
 2763 0b6c 770B0000 		.4byte	0xb77
 2764 0b70 0E       		.uleb128 0xe
 2765 0b71 95020000 		.4byte	0x295
 2766 0b75 0C       		.byte	0xc
 2767 0b76 00       		.byte	0
 2768 0b77 0F       		.uleb128 0xf
 2769 0b78 670B0000 		.4byte	0xb67
 2770 0b7c 11       		.uleb128 0x11
 2771 0b7d 770B0000 		.4byte	0xb77
 2772 0b81 0D       		.uleb128 0xd
 2773 0b82 F6020000 		.4byte	0x2f6
 2774 0b86 910B0000 		.4byte	0xb91
 2775 0b8a 0E       		.uleb128 0xe
 2776 0b8b 95020000 		.4byte	0x295
 2777 0b8f 15       		.byte	0x15
 2778 0b90 00       		.byte	0
 2779 0b91 0F       		.uleb128 0xf
 2780 0b92 810B0000 		.4byte	0xb81
 2781 0b96 11       		.uleb128 0x11
 2782 0b97 910B0000 		.4byte	0xb91
 2783 0b9b 0F       		.uleb128 0xf
 2784 0b9c C0060000 		.4byte	0x6c0
 2785 0ba0 11       		.uleb128 0x11
 2786 0ba1 9B0B0000 		.4byte	0xb9b
 2787 0ba5 0F       		.uleb128 0xf
 2788 0ba6 C0060000 		.4byte	0x6c0
 2789 0baa 11       		.uleb128 0x11
 2790 0bab A50B0000 		.4byte	0xba5
 2791 0baf 0F       		.uleb128 0xf
 2792 0bb0 C0060000 		.4byte	0x6c0
 2793 0bb4 11       		.uleb128 0x11
 2794 0bb5 AF0B0000 		.4byte	0xbaf
 2795 0bb9 0F       		.uleb128 0xf
 2796 0bba C0060000 		.4byte	0x6c0
 2797 0bbe 11       		.uleb128 0x11
 2798 0bbf B90B0000 		.4byte	0xbb9
 2799 0bc3 03       		.uleb128 0x3
 2800 0bc4 6D930000 		.4byte	.LASF1585
 2801 0bc8 0C       		.byte	0xc
 2802 0bc9 64       		.byte	0x64
 2803 0bca 36090000 		.4byte	0x936
 2804 0bce 18       		.uleb128 0x18
 2805 0bcf 08       		.byte	0x8
 2806 0bd0 0C       		.byte	0xc
 2807 0bd1 84       		.byte	0x84
 2808 0bd2 030C0000 		.4byte	0xc03
 2809 0bd6 19       		.uleb128 0x19
ARM GAS  /var/folders/z0/6xlwn_996xz3mwq1cgzkbq4r0000gp/T//ccjakVr1.s 			page 76


 2810 0bd7 4E8C0000 		.4byte	.LASF1530
 2811 0bdb 0C       		.byte	0xc
 2812 0bdc 85       		.byte	0x85
 2813 0bdd 030C0000 		.4byte	0xc03
 2814 0be1 19       		.uleb128 0x19
 2815 0be2 892E0000 		.4byte	.LASF1586
 2816 0be6 0C       		.byte	0xc
 2817 0be7 86       		.byte	0x86
 2818 0be8 130C0000 		.4byte	0xc13
 2819 0bec 19       		.uleb128 0x19
 2820 0bed 55330000 		.4byte	.LASF1587
 2821 0bf1 0C       		.byte	0xc
 2822 0bf2 87       		.byte	0x87
 2823 0bf3 230C0000 		.4byte	0xc23
 2824 0bf7 19       		.uleb128 0x19
 2825 0bf8 323C0000 		.4byte	.LASF1588
 2826 0bfc 0C       		.byte	0xc
 2827 0bfd 88       		.byte	0x88
 2828 0bfe BC000000 		.4byte	0xbc
 2829 0c02 00       		.byte	0
 2830 0c03 0D       		.uleb128 0xd
 2831 0c04 9B000000 		.4byte	0x9b
 2832 0c08 130C0000 		.4byte	0xc13
 2833 0c0c 0E       		.uleb128 0xe
 2834 0c0d 95020000 		.4byte	0x295
 2835 0c11 07       		.byte	0x7
 2836 0c12 00       		.byte	0
 2837 0c13 0D       		.uleb128 0xd
 2838 0c14 A6000000 		.4byte	0xa6
 2839 0c18 230C0000 		.4byte	0xc23
 2840 0c1c 0E       		.uleb128 0xe
 2841 0c1d 95020000 		.4byte	0x295
 2842 0c21 03       		.byte	0x3
 2843 0c22 00       		.byte	0
 2844 0c23 0D       		.uleb128 0xd
 2845 0c24 B1000000 		.4byte	0xb1
 2846 0c28 330C0000 		.4byte	0xc33
 2847 0c2c 0E       		.uleb128 0xe
 2848 0c2d 95020000 		.4byte	0x295
 2849 0c31 01       		.byte	0x1
 2850 0c32 00       		.byte	0
 2851 0c33 1B       		.uleb128 0x1b
 2852 0c34 1F240000 		.4byte	.LASF1593
 2853 0c38 18       		.byte	0x18
 2854 0c39 0C       		.byte	0xc
 2855 0c3a 81       		.byte	0x81
 2856 0c3b 760C0000 		.4byte	0xc76
 2857 0c3f 13       		.uleb128 0x13
 2858 0c40 1C010000 		.4byte	.LASF1589
 2859 0c44 0C       		.byte	0xc
 2860 0c45 82       		.byte	0x82
 2861 0c46 B1000000 		.4byte	0xb1
 2862 0c4a 00       		.byte	0
 2863 0c4b 13       		.uleb128 0x13
 2864 0c4c 920C0000 		.4byte	.LASF1590
 2865 0c50 0C       		.byte	0xc
 2866 0c51 83       		.byte	0x83
ARM GAS  /var/folders/z0/6xlwn_996xz3mwq1cgzkbq4r0000gp/T//ccjakVr1.s 			page 77


 2867 0c52 B1000000 		.4byte	0xb1
 2868 0c56 04       		.byte	0x4
 2869 0c57 1A       		.uleb128 0x1a
 2870 0c58 CE0B0000 		.4byte	0xbce
 2871 0c5c 08       		.byte	0x8
 2872 0c5d 1C       		.uleb128 0x1c
 2873 0c5e 646C6300 		.ascii	"dlc\000"
 2874 0c62 0C       		.byte	0xc
 2875 0c63 8A       		.byte	0x8a
 2876 0c64 9B000000 		.4byte	0x9b
 2877 0c68 10       		.byte	0x10
 2878 0c69 13       		.uleb128 0x13
 2879 0c6a 51620000 		.4byte	.LASF1591
 2880 0c6e 0C       		.byte	0xc
 2881 0c6f 8B       		.byte	0x8b
 2882 0c70 9B000000 		.4byte	0x9b
 2883 0c74 11       		.byte	0x11
 2884 0c75 00       		.byte	0
 2885 0c76 03       		.uleb128 0x3
 2886 0c77 D9AE0000 		.4byte	.LASF1592
 2887 0c7b 0C       		.byte	0xc
 2888 0c7c 8C       		.byte	0x8c
 2889 0c7d 330C0000 		.4byte	0xc33
 2890 0c81 1B       		.uleb128 0x1b
 2891 0c82 A9510000 		.4byte	.LASF1594
 2892 0c86 08       		.byte	0x8
 2893 0c87 0C       		.byte	0xc
 2894 0c88 A1       		.byte	0xa1
 2895 0c89 BE0C0000 		.4byte	0xcbe
 2896 0c8d 13       		.uleb128 0x13
 2897 0c8e 601B0000 		.4byte	.LASF1595
 2898 0c92 0C       		.byte	0xc
 2899 0c93 A2       		.byte	0xa2
 2900 0c94 A6000000 		.4byte	0xa6
 2901 0c98 00       		.byte	0
 2902 0c99 13       		.uleb128 0x13
 2903 0c9a BC5E0000 		.4byte	.LASF1596
 2904 0c9e 0C       		.byte	0xc
 2905 0c9f A3       		.byte	0xa3
 2906 0ca0 9B000000 		.4byte	0x9b
 2907 0ca4 02       		.byte	0x2
 2908 0ca5 1C       		.uleb128 0x1c
 2909 0ca6 6C656E00 		.ascii	"len\000"
 2910 0caa 0C       		.byte	0xc
 2911 0cab A4       		.byte	0xa4
 2912 0cac 9B000000 		.4byte	0x9b
 2913 0cb0 03       		.byte	0x3
 2914 0cb1 1C       		.uleb128 0x1c
 2915 0cb2 76616C00 		.ascii	"val\000"
 2916 0cb6 0C       		.byte	0xc
 2917 0cb7 A5       		.byte	0xa5
 2918 0cb8 B1000000 		.4byte	0xb1
 2919 0cbc 04       		.byte	0x4
 2920 0cbd 00       		.byte	0
 2921 0cbe 03       		.uleb128 0x3
 2922 0cbf 0D8A0000 		.4byte	.LASF1597
 2923 0cc3 0C       		.byte	0xc
ARM GAS  /var/folders/z0/6xlwn_996xz3mwq1cgzkbq4r0000gp/T//ccjakVr1.s 			page 78


 2924 0cc4 A6       		.byte	0xa6
 2925 0cc5 810C0000 		.4byte	0xc81
 2926 0cc9 1B       		.uleb128 0x1b
 2927 0cca 73680000 		.4byte	.LASF1598
 2928 0cce 08       		.byte	0x8
 2929 0ccf 0C       		.byte	0xc
 2930 0cd0 B1       		.byte	0xb1
 2931 0cd1 060D0000 		.4byte	0xd06
 2932 0cd5 13       		.uleb128 0x13
 2933 0cd6 601B0000 		.4byte	.LASF1595
 2934 0cda 0C       		.byte	0xc
 2935 0cdb B2       		.byte	0xb2
 2936 0cdc A6000000 		.4byte	0xa6
 2937 0ce0 00       		.byte	0
 2938 0ce1 13       		.uleb128 0x13
 2939 0ce2 BC5E0000 		.4byte	.LASF1596
 2940 0ce6 0C       		.byte	0xc
 2941 0ce7 B3       		.byte	0xb3
 2942 0ce8 9B000000 		.4byte	0x9b
 2943 0cec 02       		.byte	0x2
 2944 0ced 13       		.uleb128 0x13
 2945 0cee C1610000 		.4byte	.LASF1599
 2946 0cf2 0C       		.byte	0xc
 2947 0cf3 B4       		.byte	0xb4
 2948 0cf4 9B000000 		.4byte	0x9b
 2949 0cf8 03       		.byte	0x3
 2950 0cf9 1C       		.uleb128 0x1c
 2951 0cfa 76616C00 		.ascii	"val\000"
 2952 0cfe 0C       		.byte	0xc
 2953 0cff B5       		.byte	0xb5
 2954 0d00 F2080000 		.4byte	0x8f2
 2955 0d04 04       		.byte	0x4
 2956 0d05 00       		.byte	0
 2957 0d06 03       		.uleb128 0x3
 2958 0d07 36450000 		.4byte	.LASF1600
 2959 0d0b 0C       		.byte	0xc
 2960 0d0c B6       		.byte	0xb6
 2961 0d0d C90C0000 		.4byte	0xcc9
 2962 0d11 1B       		.uleb128 0x1b
 2963 0d12 D3680000 		.4byte	.LASF1601
 2964 0d16 14       		.byte	0x14
 2965 0d17 0C       		.byte	0xc
 2966 0d18 B8       		.byte	0xb8
 2967 0d19 7E0D0000 		.4byte	0xd7e
 2968 0d1d 13       		.uleb128 0x13
 2969 0d1e CD270000 		.4byte	.LASF1602
 2970 0d22 0C       		.byte	0xc
 2971 0d23 B9       		.byte	0xb9
 2972 0d24 9B000000 		.4byte	0x9b
 2973 0d28 00       		.byte	0
 2974 0d29 13       		.uleb128 0x13
 2975 0d2a BA2E0000 		.4byte	.LASF1603
 2976 0d2e 0C       		.byte	0xc
 2977 0d2f BA       		.byte	0xba
 2978 0d30 9B000000 		.4byte	0x9b
 2979 0d34 01       		.byte	0x1
 2980 0d35 13       		.uleb128 0x13
ARM GAS  /var/folders/z0/6xlwn_996xz3mwq1cgzkbq4r0000gp/T//ccjakVr1.s 			page 79


 2981 0d36 08340000 		.4byte	.LASF1604
 2982 0d3a 0C       		.byte	0xc
 2983 0d3b BB       		.byte	0xbb
 2984 0d3c 9B000000 		.4byte	0x9b
 2985 0d40 02       		.byte	0x2
 2986 0d41 13       		.uleb128 0x13
 2987 0d42 6C060000 		.4byte	.LASF1605
 2988 0d46 0C       		.byte	0xc
 2989 0d47 BC       		.byte	0xbc
 2990 0d48 9B000000 		.4byte	0x9b
 2991 0d4c 03       		.byte	0x3
 2992 0d4d 13       		.uleb128 0x13
 2993 0d4e 859A0000 		.4byte	.LASF1606
 2994 0d52 0C       		.byte	0xc
 2995 0d53 BD       		.byte	0xbd
 2996 0d54 B1000000 		.4byte	0xb1
 2997 0d58 04       		.byte	0x4
 2998 0d59 13       		.uleb128 0x13
 2999 0d5a 35A20000 		.4byte	.LASF1607
 3000 0d5e 0C       		.byte	0xc
 3001 0d5f BE       		.byte	0xbe
 3002 0d60 7E0D0000 		.4byte	0xd7e
 3003 0d64 08       		.byte	0x8
 3004 0d65 13       		.uleb128 0x13
 3005 0d66 34890000 		.4byte	.LASF1608
 3006 0d6a 0C       		.byte	0xc
 3007 0d6b BF       		.byte	0xbf
 3008 0d6c B1000000 		.4byte	0xb1
 3009 0d70 0C       		.byte	0xc
 3010 0d71 13       		.uleb128 0x13
 3011 0d72 F3620000 		.4byte	.LASF1609
 3012 0d76 0C       		.byte	0xc
 3013 0d77 C0       		.byte	0xc0
 3014 0d78 840D0000 		.4byte	0xd84
 3015 0d7c 10       		.byte	0x10
 3016 0d7d 00       		.byte	0
 3017 0d7e 17       		.uleb128 0x17
 3018 0d7f 04       		.byte	0x4
 3019 0d80 BE0C0000 		.4byte	0xcbe
 3020 0d84 17       		.uleb128 0x17
 3021 0d85 04       		.byte	0x4
 3022 0d86 060D0000 		.4byte	0xd06
 3023 0d8a 03       		.uleb128 0x3
 3024 0d8b 77640000 		.4byte	.LASF1610
 3025 0d8f 0C       		.byte	0xc
 3026 0d90 C1       		.byte	0xc1
 3027 0d91 110D0000 		.4byte	0xd11
 3028 0d95 1B       		.uleb128 0x1b
 3029 0d96 46960000 		.4byte	.LASF1611
 3030 0d9a 20       		.byte	0x20
 3031 0d9b 0C       		.byte	0xc
 3032 0d9c CD       		.byte	0xcd
 3033 0d9d 020E0000 		.4byte	0xe02
 3034 0da1 13       		.uleb128 0x13
 3035 0da2 BE530000 		.4byte	.LASF1612
 3036 0da6 0C       		.byte	0xc
 3037 0da7 CE       		.byte	0xce
ARM GAS  /var/folders/z0/6xlwn_996xz3mwq1cgzkbq4r0000gp/T//ccjakVr1.s 			page 80


 3038 0da8 0D0E0000 		.4byte	0xe0d
 3039 0dac 00       		.byte	0
 3040 0dad 13       		.uleb128 0x13
 3041 0dae 475A0000 		.4byte	.LASF1613
 3042 0db2 0C       		.byte	0xc
 3043 0db3 CF       		.byte	0xcf
 3044 0db4 0D0E0000 		.4byte	0xe0d
 3045 0db8 04       		.byte	0x4
 3046 0db9 13       		.uleb128 0x13
 3047 0dba F72F0000 		.4byte	.LASF1614
 3048 0dbe 0C       		.byte	0xc
 3049 0dbf D0       		.byte	0xd0
 3050 0dc0 1E0E0000 		.4byte	0xe1e
 3051 0dc4 08       		.byte	0x8
 3052 0dc5 13       		.uleb128 0x13
 3053 0dc6 45200000 		.4byte	.LASF1615
 3054 0dca 0C       		.byte	0xc
 3055 0dcb D1       		.byte	0xd1
 3056 0dcc 380E0000 		.4byte	0xe38
 3057 0dd0 0C       		.byte	0xc
 3058 0dd1 13       		.uleb128 0x13
 3059 0dd2 13A50000 		.4byte	.LASF1616
 3060 0dd6 0C       		.byte	0xc
 3061 0dd7 D2       		.byte	0xd2
 3062 0dd8 570E0000 		.4byte	0xe57
 3063 0ddc 10       		.byte	0x10
 3064 0ddd 13       		.uleb128 0x13
 3065 0dde 738B0000 		.4byte	.LASF1617
 3066 0de2 0C       		.byte	0xc
 3067 0de3 D3       		.byte	0xd3
 3068 0de4 850E0000 		.4byte	0xe85
 3069 0de8 14       		.byte	0x14
 3070 0de9 13       		.uleb128 0x13
 3071 0dea CE030000 		.4byte	.LASF1618
 3072 0dee 0C       		.byte	0xc
 3073 0def D5       		.byte	0xd5
 3074 0df0 B30E0000 		.4byte	0xeb3
 3075 0df4 18       		.byte	0x18
 3076 0df5 13       		.uleb128 0x13
 3077 0df6 2A3B0000 		.4byte	.LASF1619
 3078 0dfa 0C       		.byte	0xc
 3079 0dfb D7       		.byte	0xd7
 3080 0dfc D70E0000 		.4byte	0xed7
 3081 0e00 1C       		.byte	0x1c
 3082 0e01 00       		.byte	0
 3083 0e02 1D       		.uleb128 0x1d
 3084 0e03 0D0E0000 		.4byte	0xe0d
 3085 0e07 1E       		.uleb128 0x1e
 3086 0e08 9B000000 		.4byte	0x9b
 3087 0e0c 00       		.byte	0
 3088 0e0d 17       		.uleb128 0x17
 3089 0e0e 04       		.byte	0x4
 3090 0e0f 020E0000 		.4byte	0xe02
 3091 0e13 1D       		.uleb128 0x1d
 3092 0e14 1E0E0000 		.4byte	0xe1e
 3093 0e18 1E       		.uleb128 0x1e
 3094 0e19 B1000000 		.4byte	0xb1
ARM GAS  /var/folders/z0/6xlwn_996xz3mwq1cgzkbq4r0000gp/T//ccjakVr1.s 			page 81


 3095 0e1d 00       		.byte	0
 3096 0e1e 17       		.uleb128 0x17
 3097 0e1f 04       		.byte	0x4
 3098 0e20 130E0000 		.4byte	0xe13
 3099 0e24 1F       		.uleb128 0x1f
 3100 0e25 B1000000 		.4byte	0xb1
 3101 0e29 380E0000 		.4byte	0xe38
 3102 0e2d 1E       		.uleb128 0x1e
 3103 0e2e A6000000 		.4byte	0xa6
 3104 0e32 1E       		.uleb128 0x1e
 3105 0e33 9B000000 		.4byte	0x9b
 3106 0e37 00       		.byte	0
 3107 0e38 17       		.uleb128 0x17
 3108 0e39 04       		.byte	0x4
 3109 0e3a 240E0000 		.4byte	0xe24
 3110 0e3e 1F       		.uleb128 0x1f
 3111 0e3f B1000000 		.4byte	0xb1
 3112 0e43 570E0000 		.4byte	0xe57
 3113 0e47 1E       		.uleb128 0x1e
 3114 0e48 A6000000 		.4byte	0xa6
 3115 0e4c 1E       		.uleb128 0x1e
 3116 0e4d 9B000000 		.4byte	0x9b
 3117 0e51 1E       		.uleb128 0x1e
 3118 0e52 F2080000 		.4byte	0x8f2
 3119 0e56 00       		.byte	0
 3120 0e57 17       		.uleb128 0x17
 3121 0e58 04       		.byte	0x4
 3122 0e59 3E0E0000 		.4byte	0xe3e
 3123 0e5d 1F       		.uleb128 0x1f
 3124 0e5e B1000000 		.4byte	0xb1
 3125 0e62 850E0000 		.4byte	0xe85
 3126 0e66 1E       		.uleb128 0x1e
 3127 0e67 A6000000 		.4byte	0xa6
 3128 0e6b 1E       		.uleb128 0x1e
 3129 0e6c 9B000000 		.4byte	0x9b
 3130 0e70 1E       		.uleb128 0x1e
 3131 0e71 9B000000 		.4byte	0x9b
 3132 0e75 1E       		.uleb128 0x1e
 3133 0e76 F2080000 		.4byte	0x8f2
 3134 0e7a 1E       		.uleb128 0x1e
 3135 0e7b F2080000 		.4byte	0x8f2
 3136 0e7f 1E       		.uleb128 0x1e
 3137 0e80 F2080000 		.4byte	0x8f2
 3138 0e84 00       		.byte	0
 3139 0e85 17       		.uleb128 0x17
 3140 0e86 04       		.byte	0x4
 3141 0e87 5D0E0000 		.4byte	0xe5d
 3142 0e8b 1F       		.uleb128 0x1f
 3143 0e8c B1000000 		.4byte	0xb1
 3144 0e90 B30E0000 		.4byte	0xeb3
 3145 0e94 1E       		.uleb128 0x1e
 3146 0e95 A6000000 		.4byte	0xa6
 3147 0e99 1E       		.uleb128 0x1e
 3148 0e9a 9B000000 		.4byte	0x9b
 3149 0e9e 1E       		.uleb128 0x1e
 3150 0e9f 9B000000 		.4byte	0x9b
 3151 0ea3 1E       		.uleb128 0x1e
ARM GAS  /var/folders/z0/6xlwn_996xz3mwq1cgzkbq4r0000gp/T//ccjakVr1.s 			page 82


 3152 0ea4 9B000000 		.4byte	0x9b
 3153 0ea8 1E       		.uleb128 0x1e
 3154 0ea9 F2080000 		.4byte	0x8f2
 3155 0ead 1E       		.uleb128 0x1e
 3156 0eae F2080000 		.4byte	0x8f2
 3157 0eb2 00       		.byte	0
 3158 0eb3 17       		.uleb128 0x17
 3159 0eb4 04       		.byte	0x4
 3160 0eb5 8B0E0000 		.4byte	0xe8b
 3161 0eb9 1F       		.uleb128 0x1f
 3162 0eba 9B000000 		.4byte	0x9b
 3163 0ebe D70E0000 		.4byte	0xed7
 3164 0ec2 1E       		.uleb128 0x1e
 3165 0ec3 9B000000 		.4byte	0x9b
 3166 0ec7 1E       		.uleb128 0x1e
 3167 0ec8 F2080000 		.4byte	0x8f2
 3168 0ecc 1E       		.uleb128 0x1e
 3169 0ecd F2080000 		.4byte	0x8f2
 3170 0ed1 1E       		.uleb128 0x1e
 3171 0ed2 F2080000 		.4byte	0x8f2
 3172 0ed6 00       		.byte	0
 3173 0ed7 17       		.uleb128 0x17
 3174 0ed8 04       		.byte	0x4
 3175 0ed9 B90E0000 		.4byte	0xeb9
 3176 0edd 03       		.uleb128 0x3
 3177 0ede 7F2A0000 		.4byte	.LASF1620
 3178 0ee2 0C       		.byte	0xc
 3179 0ee3 D8       		.byte	0xd8
 3180 0ee4 950D0000 		.4byte	0xd95
 3181 0ee8 1B       		.uleb128 0x1b
 3182 0ee9 0B600000 		.4byte	.LASF1621
 3183 0eed 20       		.byte	0x20
 3184 0eee 0C       		.byte	0xc
 3185 0eef DA       		.byte	0xda
 3186 0ef0 550F0000 		.4byte	0xf55
 3187 0ef4 13       		.uleb128 0x13
 3188 0ef5 BD210000 		.4byte	.LASF1622
 3189 0ef9 0C       		.byte	0xc
 3190 0efa DB       		.byte	0xdb
 3191 0efb 6B0F0000 		.4byte	0xf6b
 3192 0eff 00       		.byte	0
 3193 0f00 1C       		.uleb128 0x1c
 3194 0f01 69737200 		.ascii	"isr\000"
 3195 0f05 0C       		.byte	0xc
 3196 0f06 DC       		.byte	0xdc
 3197 0f07 720F0000 		.4byte	0xf72
 3198 0f0b 04       		.byte	0x4
 3199 0f0c 13       		.uleb128 0x13
 3200 0f0d EF380000 		.4byte	.LASF1623
 3201 0f11 0C       		.byte	0xc
 3202 0f12 DD       		.byte	0xdd
 3203 0f13 890F0000 		.4byte	0xf89
 3204 0f17 08       		.byte	0x8
 3205 0f18 13       		.uleb128 0x13
 3206 0f19 0F110000 		.4byte	.LASF1624
 3207 0f1d 0C       		.byte	0xc
 3208 0f1e DE       		.byte	0xde
ARM GAS  /var/folders/z0/6xlwn_996xz3mwq1cgzkbq4r0000gp/T//ccjakVr1.s 			page 83


 3209 0f1f 9E0F0000 		.4byte	0xf9e
 3210 0f23 0C       		.byte	0xc
 3211 0f24 13       		.uleb128 0x13
 3212 0f25 3E510000 		.4byte	.LASF1625
 3213 0f29 0C       		.byte	0xc
 3214 0f2a DF       		.byte	0xdf
 3215 0f2b 890F0000 		.4byte	0xf89
 3216 0f2f 10       		.byte	0x10
 3217 0f30 13       		.uleb128 0x13
 3218 0f31 454E0000 		.4byte	.LASF1626
 3219 0f35 0C       		.byte	0xc
 3220 0f36 E0       		.byte	0xe0
 3221 0f37 B50F0000 		.4byte	0xfb5
 3222 0f3b 14       		.byte	0x14
 3223 0f3c 13       		.uleb128 0x13
 3224 0f3d D7290000 		.4byte	.LASF1627
 3225 0f41 0C       		.byte	0xc
 3226 0f42 E1       		.byte	0xe1
 3227 0f43 720F0000 		.4byte	0xf72
 3228 0f47 18       		.byte	0x18
 3229 0f48 13       		.uleb128 0x13
 3230 0f49 832C0000 		.4byte	.LASF1628
 3231 0f4d 0C       		.byte	0xc
 3232 0f4e E2       		.byte	0xe2
 3233 0f4f CC0F0000 		.4byte	0xfcc
 3234 0f53 1C       		.byte	0x1c
 3235 0f54 00       		.byte	0
 3236 0f55 1D       		.uleb128 0x1d
 3237 0f56 650F0000 		.4byte	0xf65
 3238 0f5a 1E       		.uleb128 0x1e
 3239 0f5b 650F0000 		.4byte	0xf65
 3240 0f5f 1E       		.uleb128 0x1e
 3241 0f60 9B000000 		.4byte	0x9b
 3242 0f64 00       		.byte	0
 3243 0f65 17       		.uleb128 0x17
 3244 0f66 04       		.byte	0x4
 3245 0f67 B1000000 		.4byte	0xb1
 3246 0f6b 17       		.uleb128 0x17
 3247 0f6c 04       		.byte	0x4
 3248 0f6d 550F0000 		.4byte	0xf55
 3249 0f71 20       		.uleb128 0x20
 3250 0f72 17       		.uleb128 0x17
 3251 0f73 04       		.byte	0x4
 3252 0f74 710F0000 		.4byte	0xf71
 3253 0f78 1D       		.uleb128 0x1d
 3254 0f79 830F0000 		.4byte	0xf83
 3255 0f7d 1E       		.uleb128 0x1e
 3256 0f7e 830F0000 		.4byte	0xf83
 3257 0f82 00       		.byte	0
 3258 0f83 17       		.uleb128 0x17
 3259 0f84 04       		.byte	0x4
 3260 0f85 760C0000 		.4byte	0xc76
 3261 0f89 17       		.uleb128 0x17
 3262 0f8a 04       		.byte	0x4
 3263 0f8b 780F0000 		.4byte	0xf78
 3264 0f8f 1F       		.uleb128 0x1f
 3265 0f90 9B000000 		.4byte	0x9b
ARM GAS  /var/folders/z0/6xlwn_996xz3mwq1cgzkbq4r0000gp/T//ccjakVr1.s 			page 84


 3266 0f94 9E0F0000 		.4byte	0xf9e
 3267 0f98 1E       		.uleb128 0x1e
 3268 0f99 830F0000 		.4byte	0xf83
 3269 0f9d 00       		.byte	0
 3270 0f9e 17       		.uleb128 0x17
 3271 0f9f 04       		.byte	0x4
 3272 0fa0 8F0F0000 		.4byte	0xf8f
 3273 0fa4 1D       		.uleb128 0x1d
 3274 0fa5 AF0F0000 		.4byte	0xfaf
 3275 0fa9 1E       		.uleb128 0x1e
 3276 0faa AF0F0000 		.4byte	0xfaf
 3277 0fae 00       		.byte	0
 3278 0faf 17       		.uleb128 0x17
 3279 0fb0 04       		.byte	0x4
 3280 0fb1 8A0D0000 		.4byte	0xd8a
 3281 0fb5 17       		.uleb128 0x17
 3282 0fb6 04       		.byte	0x4
 3283 0fb7 A40F0000 		.4byte	0xfa4
 3284 0fbb 1D       		.uleb128 0x1d
 3285 0fbc C60F0000 		.4byte	0xfc6
 3286 0fc0 1E       		.uleb128 0x1e
 3287 0fc1 C60F0000 		.4byte	0xfc6
 3288 0fc5 00       		.byte	0
 3289 0fc6 17       		.uleb128 0x17
 3290 0fc7 04       		.byte	0x4
 3291 0fc8 DD0E0000 		.4byte	0xedd
 3292 0fcc 17       		.uleb128 0x17
 3293 0fcd 04       		.byte	0x4
 3294 0fce BB0F0000 		.4byte	0xfbb
 3295 0fd2 03       		.uleb128 0x3
 3296 0fd3 37920000 		.4byte	.LASF1629
 3297 0fd7 0C       		.byte	0xc
 3298 0fd8 E3       		.byte	0xe3
 3299 0fd9 E80E0000 		.4byte	0xee8
 3300 0fdd 07       		.uleb128 0x7
 3301 0fde 8C690000 		.4byte	.LASF1630
 3302 0fe2 01       		.byte	0x1
 3303 0fe3 3B000000 		.4byte	0x3b
 3304 0fe7 0D       		.byte	0xd
 3305 0fe8 07       		.byte	0x7
 3306 0fe9 4E100000 		.4byte	0x104e
 3307 0fed 06       		.uleb128 0x6
 3308 0fee 3A2F0000 		.4byte	.LASF1631
 3309 0ff2 00       		.byte	0
 3310 0ff3 06       		.uleb128 0x6
 3311 0ff4 A6100000 		.4byte	.LASF1632
 3312 0ff8 01       		.byte	0x1
 3313 0ff9 06       		.uleb128 0x6
 3314 0ffa ECA30000 		.4byte	.LASF1633
 3315 0ffe 02       		.byte	0x2
 3316 0fff 06       		.uleb128 0x6
 3317 1000 6D900000 		.4byte	.LASF1634
 3318 1004 03       		.byte	0x3
 3319 1005 06       		.uleb128 0x6
 3320 1006 33110000 		.4byte	.LASF1635
 3321 100a 04       		.byte	0x4
 3322 100b 06       		.uleb128 0x6
ARM GAS  /var/folders/z0/6xlwn_996xz3mwq1cgzkbq4r0000gp/T//ccjakVr1.s 			page 85


 3323 100c 74740000 		.4byte	.LASF1636
 3324 1010 05       		.byte	0x5
 3325 1011 06       		.uleb128 0x6
 3326 1012 8D410000 		.4byte	.LASF1637
 3327 1016 06       		.byte	0x6
 3328 1017 06       		.uleb128 0x6
 3329 1018 F8420000 		.4byte	.LASF1638
 3330 101c 07       		.byte	0x7
 3331 101d 06       		.uleb128 0x6
 3332 101e FC2C0000 		.4byte	.LASF1639
 3333 1022 08       		.byte	0x8
 3334 1023 06       		.uleb128 0x6
 3335 1024 87430000 		.4byte	.LASF1640
 3336 1028 09       		.byte	0x9
 3337 1029 06       		.uleb128 0x6
 3338 102a 27840000 		.4byte	.LASF1641
 3339 102e 0A       		.byte	0xa
 3340 102f 06       		.uleb128 0x6
 3341 1030 6FAA0000 		.4byte	.LASF1642
 3342 1034 0B       		.byte	0xb
 3343 1035 06       		.uleb128 0x6
 3344 1036 05380000 		.4byte	.LASF1643
 3345 103a 0C       		.byte	0xc
 3346 103b 06       		.uleb128 0x6
 3347 103c 8D250000 		.4byte	.LASF1644
 3348 1040 0D       		.byte	0xd
 3349 1041 06       		.uleb128 0x6
 3350 1042 67A80000 		.4byte	.LASF1645
 3351 1046 0E       		.byte	0xe
 3352 1047 06       		.uleb128 0x6
 3353 1048 150C0000 		.4byte	.LASF1646
 3354 104c 0F       		.byte	0xf
 3355 104d 00       		.byte	0
 3356 104e 03       		.uleb128 0x3
 3357 104f 48310000 		.4byte	.LASF1647
 3358 1053 0D       		.byte	0xd
 3359 1054 18       		.byte	0x18
 3360 1055 DD0F0000 		.4byte	0xfdd
 3361 1059 21       		.uleb128 0x21
 3362 105a F4450000 		.4byte	.LASF1648
 3363 105e 03       		.byte	0x3
 3364 105f A9       		.byte	0xa9
 3365 1060 03       		.byte	0x3
 3366 1061 71100000 		.4byte	0x1071
 3367 1065 22       		.uleb128 0x22
 3368 1066 575B0000 		.4byte	.LASF1650
 3369 106a 03       		.byte	0x3
 3370 106b A9       		.byte	0xa9
 3371 106c 7D070000 		.4byte	0x77d
 3372 1070 00       		.byte	0
 3373 1071 21       		.uleb128 0x21
 3374 1072 4F1A0000 		.4byte	.LASF1649
 3375 1076 03       		.byte	0x3
 3376 1077 9F       		.byte	0x9f
 3377 1078 03       		.byte	0x3
 3378 1079 89100000 		.4byte	0x1089
 3379 107d 22       		.uleb128 0x22
ARM GAS  /var/folders/z0/6xlwn_996xz3mwq1cgzkbq4r0000gp/T//ccjakVr1.s 			page 86


 3380 107e 575B0000 		.4byte	.LASF1650
 3381 1082 03       		.byte	0x3
 3382 1083 9F       		.byte	0x9f
 3383 1084 7D070000 		.4byte	0x77d
 3384 1088 00       		.byte	0
 3385 1089 21       		.uleb128 0x21
 3386 108a C2390000 		.4byte	.LASF1651
 3387 108e 04       		.byte	0x4
 3388 108f 55       		.byte	0x55
 3389 1090 03       		.byte	0x3
 3390 1091 A1100000 		.4byte	0x10a1
 3391 1095 22       		.uleb128 0x22
 3392 1096 0D4C0000 		.4byte	.LASF1652
 3393 109a 04       		.byte	0x4
 3394 109b 55       		.byte	0x55
 3395 109c A1100000 		.4byte	0x10a1
 3396 10a0 00       		.byte	0
 3397 10a1 17       		.uleb128 0x17
 3398 10a2 04       		.byte	0x4
 3399 10a3 5E080000 		.4byte	0x85e
 3400 10a7 23       		.uleb128 0x23
 3401 10a8 475A0000 		.4byte	.LASF1613
 3402 10ac 01       		.byte	0x1
 3403 10ad 79       		.byte	0x79
 3404 10ae 01       		.byte	0x1
 3405 10af BF100000 		.4byte	0x10bf
 3406 10b3 22       		.uleb128 0x22
 3407 10b4 E6A10000 		.4byte	.LASF1653
 3408 10b8 01       		.byte	0x1
 3409 10b9 79       		.byte	0x79
 3410 10ba 9B000000 		.4byte	0x9b
 3411 10be 00       		.byte	0
 3412 10bf 24       		.uleb128 0x24
 3413 10c0 E2480000 		.4byte	.LASF1654
 3414 10c4 02       		.byte	0x2
 3415 10c5 2701     		.2byte	0x127
 3416 10c7 03       		.byte	0x3
 3417 10c8 D9100000 		.4byte	0x10d9
 3418 10cc 25       		.uleb128 0x25
 3419 10cd 636C6B00 		.ascii	"clk\000"
 3420 10d1 02       		.byte	0x2
 3421 10d2 2701     		.2byte	0x127
 3422 10d4 0B080000 		.4byte	0x80b
 3423 10d8 00       		.byte	0
 3424 10d9 21       		.uleb128 0x21
 3425 10da 20500000 		.4byte	.LASF1655
 3426 10de 03       		.byte	0x3
 3427 10df B3       		.byte	0xb3
 3428 10e0 03       		.byte	0x3
 3429 10e1 F1100000 		.4byte	0x10f1
 3430 10e5 22       		.uleb128 0x22
 3431 10e6 575B0000 		.4byte	.LASF1650
 3432 10ea 03       		.byte	0x3
 3433 10eb B3       		.byte	0xb3
 3434 10ec 7D070000 		.4byte	0x77d
 3435 10f0 00       		.byte	0
 3436 10f1 26       		.uleb128 0x26
ARM GAS  /var/folders/z0/6xlwn_996xz3mwq1cgzkbq4r0000gp/T//ccjakVr1.s 			page 87


 3437 10f2 4D1C0000 		.4byte	.LASF1659
 3438 10f6 01       		.byte	0x1
 3439 10f7 58       		.byte	0x58
 3440 10f8 4E100000 		.4byte	0x104e
 3441 10fc 01       		.byte	0x1
 3442 10fd 0D110000 		.4byte	0x110d
 3443 1101 22       		.uleb128 0x22
 3444 1102 455D0000 		.4byte	.LASF1656
 3445 1106 01       		.byte	0x1
 3446 1107 58       		.byte	0x58
 3447 1108 B1000000 		.4byte	0xb1
 3448 110c 00       		.byte	0
 3449 110d 24       		.uleb128 0x24
 3450 110e 5E5B0000 		.4byte	.LASF1657
 3451 1112 05       		.byte	0x5
 3452 1113 F401     		.2byte	0x1f4
 3453 1115 03       		.byte	0x3
 3454 1116 27110000 		.4byte	0x1127
 3455 111a 27       		.uleb128 0x27
 3456 111b ED850000 		.4byte	.LASF1658
 3457 111f 05       		.byte	0x5
 3458 1120 F401     		.2byte	0x1f4
 3459 1122 E8010000 		.4byte	0x1e8
 3460 1126 00       		.byte	0
 3461 1127 26       		.uleb128 0x26
 3462 1128 24210000 		.4byte	.LASF1660
 3463 112c 01       		.byte	0x1
 3464 112d E6       		.byte	0xe6
 3465 112e 4E100000 		.4byte	0x104e
 3466 1132 01       		.byte	0x1
 3467 1133 59110000 		.4byte	0x1159
 3468 1137 22       		.uleb128 0x22
 3469 1138 D0980000 		.4byte	.LASF1661
 3470 113c 01       		.byte	0x1
 3471 113d E6       		.byte	0xe6
 3472 113e 830F0000 		.4byte	0xf83
 3473 1142 28       		.uleb128 0x28
 3474 1143 29       		.uleb128 0x29
 3475 1144 6900     		.ascii	"i\000"
 3476 1146 01       		.byte	0x1
 3477 1147 EB       		.byte	0xeb
 3478 1148 9B000000 		.4byte	0x9b
 3479 114c 2A       		.uleb128 0x2a
 3480 114d E5660000 		.4byte	.LASF1662
 3481 1151 01       		.byte	0x1
 3482 1152 EC       		.byte	0xec
 3483 1153 E7000000 		.4byte	0xe7
 3484 1157 00       		.byte	0
 3485 1158 00       		.byte	0
 3486 1159 2B       		.uleb128 0x2b
 3487 115a F72F0000 		.4byte	.LASF1614
 3488 115e 01       		.byte	0x1
 3489 115f 89       		.byte	0x89
 3490 1160 00000000 		.4byte	.LFB206
 3491 1164 14000000 		.4byte	.LFE206-.LFB206
 3492 1168 01       		.uleb128 0x1
 3493 1169 9C       		.byte	0x9c
ARM GAS  /var/folders/z0/6xlwn_996xz3mwq1cgzkbq4r0000gp/T//ccjakVr1.s 			page 88


 3494 116a 7C110000 		.4byte	0x117c
 3495 116e 2C       		.uleb128 0x2c
 3496 116f DE9D0000 		.4byte	.LASF1663
 3497 1173 01       		.byte	0x1
 3498 1174 89       		.byte	0x89
 3499 1175 B1000000 		.4byte	0xb1
 3500 1179 01       		.uleb128 0x1
 3501 117a 50       		.byte	0x50
 3502 117b 00       		.byte	0
 3503 117c 2B       		.uleb128 0x2b
 3504 117d BE530000 		.4byte	.LASF1612
 3505 1181 01       		.byte	0x1
 3506 1182 6D       		.byte	0x6d
 3507 1183 00000000 		.4byte	.LFB204
 3508 1187 44000000 		.4byte	.LFE204-.LFB204
 3509 118b 01       		.uleb128 0x1
 3510 118c 9C       		.byte	0x9c
 3511 118d CA110000 		.4byte	0x11ca
 3512 1191 2D       		.uleb128 0x2d
 3513 1192 E6A10000 		.4byte	.LASF1653
 3514 1196 01       		.byte	0x1
 3515 1197 6D       		.byte	0x6d
 3516 1198 9B000000 		.4byte	0x9b
 3517 119c 00000000 		.4byte	.LLST0
 3518 11a0 2E       		.uleb128 0x2e
 3519 11a1 12000000 		.4byte	.LVL3
 3520 11a5 B0110000 		.4byte	0x11b0
 3521 11a9 2F       		.uleb128 0x2f
 3522 11aa 01       		.uleb128 0x1
 3523 11ab 50       		.byte	0x50
 3524 11ac 02       		.uleb128 0x2
 3525 11ad 74       		.byte	0x74
 3526 11ae 00       		.sleb128 0
 3527 11af 00       		.byte	0
 3528 11b0 30       		.uleb128 0x30
 3529 11b1 1A000000 		.4byte	.LVL4
 3530 11b5 2E180000 		.4byte	0x182e
 3531 11b9 2F       		.uleb128 0x2f
 3532 11ba 01       		.uleb128 0x1
 3533 11bb 50       		.byte	0x50
 3534 11bc 05       		.uleb128 0x5
 3535 11bd 03       		.byte	0x3
 3536 11be 00000000 		.4byte	.LANCHOR2
 3537 11c2 2F       		.uleb128 0x2f
 3538 11c3 01       		.uleb128 0x1
 3539 11c4 51       		.byte	0x51
 3540 11c5 02       		.uleb128 0x2
 3541 11c6 74       		.byte	0x74
 3542 11c7 00       		.sleb128 0
 3543 11c8 00       		.byte	0
 3544 11c9 00       		.byte	0
 3545 11ca 31       		.uleb128 0x31
 3546 11cb A7100000 		.4byte	0x10a7
 3547 11cf 00000000 		.4byte	.LFB205
 3548 11d3 58000000 		.4byte	.LFE205-.LFB205
 3549 11d7 01       		.uleb128 0x1
 3550 11d8 9C       		.byte	0x9c
ARM GAS  /var/folders/z0/6xlwn_996xz3mwq1cgzkbq4r0000gp/T//ccjakVr1.s 			page 89


 3551 11d9 23120000 		.4byte	0x1223
 3552 11dd 32       		.uleb128 0x32
 3553 11de B3100000 		.4byte	0x10b3
 3554 11e2 30000000 		.4byte	.LLST1
 3555 11e6 33       		.uleb128 0x33
 3556 11e7 18000000 		.4byte	.LBB23
 3557 11eb 40000000 		.4byte	.LBE23-.LBB23
 3558 11ef 32       		.uleb128 0x32
 3559 11f0 B3100000 		.4byte	0x10b3
 3560 11f4 6A000000 		.4byte	.LLST2
 3561 11f8 34       		.uleb128 0x34
 3562 11f9 28000000 		.4byte	.LVL9
 3563 11fd 39180000 		.4byte	0x1839
 3564 1201 15120000 		.4byte	0x1215
 3565 1205 2F       		.uleb128 0x2f
 3566 1206 01       		.uleb128 0x1
 3567 1207 50       		.byte	0x50
 3568 1208 05       		.uleb128 0x5
 3569 1209 03       		.byte	0x3
 3570 120a 00000000 		.4byte	.LANCHOR4
 3571 120e 2F       		.uleb128 0x2f
 3572 120f 01       		.uleb128 0x1
 3573 1210 51       		.byte	0x51
 3574 1211 02       		.uleb128 0x2
 3575 1212 75       		.byte	0x75
 3576 1213 00       		.sleb128 0
 3577 1214 00       		.byte	0
 3578 1215 35       		.uleb128 0x35
 3579 1216 3A000000 		.4byte	.LVL10
 3580 121a 2F       		.uleb128 0x2f
 3581 121b 01       		.uleb128 0x1
 3582 121c 50       		.byte	0x50
 3583 121d 02       		.uleb128 0x2
 3584 121e 75       		.byte	0x75
 3585 121f 00       		.sleb128 0
 3586 1220 00       		.byte	0
 3587 1221 00       		.byte	0
 3588 1222 00       		.byte	0
 3589 1223 36       		.uleb128 0x36
 3590 1224 B8690000 		.4byte	.LASF1664
 3591 1228 01       		.byte	0x1
 3592 1229 26       		.byte	0x26
 3593 122a 00000000 		.4byte	.LFB198
 3594 122e 94000000 		.4byte	.LFE198-.LFB198
 3595 1232 01       		.uleb128 0x1
 3596 1233 9C       		.byte	0x9c
 3597 1234 F5120000 		.4byte	0x12f5
 3598 1238 2D       		.uleb128 0x2d
 3599 1239 62410000 		.4byte	.LASF1665
 3600 123d 01       		.byte	0x1
 3601 123e 26       		.byte	0x26
 3602 123f B1000000 		.4byte	0xb1
 3603 1243 8B000000 		.4byte	.LLST3
 3604 1247 2D       		.uleb128 0x2d
 3605 1248 BA710000 		.4byte	.LASF1666
 3606 124c 01       		.byte	0x1
 3607 124d 26       		.byte	0x26
ARM GAS  /var/folders/z0/6xlwn_996xz3mwq1cgzkbq4r0000gp/T//ccjakVr1.s 			page 90


 3608 124e 650F0000 		.4byte	0xf65
 3609 1252 B7000000 		.4byte	.LLST4
 3610 1256 37       		.uleb128 0x37
 3611 1257 64620000 		.4byte	.LASF1667
 3612 125b 01       		.byte	0x1
 3613 125c 27       		.byte	0x27
 3614 125d B1000000 		.4byte	0xb1
 3615 1261 EE000000 		.4byte	.LLST5
 3616 1265 38       		.uleb128 0x38
 3617 1266 64697600 		.ascii	"div\000"
 3618 126a 01       		.byte	0x1
 3619 126b 27       		.byte	0x27
 3620 126c B1000000 		.4byte	0xb1
 3621 1270 01010000 		.4byte	.LLST6
 3622 1274 37       		.uleb128 0x37
 3623 1275 AC330000 		.4byte	.LASF1668
 3624 1279 01       		.byte	0x1
 3625 127a 27       		.byte	0x27
 3626 127b B1000000 		.4byte	0xb1
 3627 127f 43010000 		.4byte	.LLST7
 3628 1283 37       		.uleb128 0x37
 3629 1284 B5710000 		.4byte	.LASF1669
 3630 1288 01       		.byte	0x1
 3631 1289 27       		.byte	0x27
 3632 128a B1000000 		.4byte	0xb1
 3633 128e 7A010000 		.4byte	.LLST8
 3634 1292 37       		.uleb128 0x37
 3635 1293 486F0000 		.4byte	.LASF1670
 3636 1297 01       		.byte	0x1
 3637 1298 27       		.byte	0x27
 3638 1299 B1000000 		.4byte	0xb1
 3639 129d AF010000 		.4byte	.LLST9
 3640 12a1 37       		.uleb128 0x37
 3641 12a2 00380000 		.4byte	.LASF1671
 3642 12a6 01       		.byte	0x1
 3643 12a7 27       		.byte	0x27
 3644 12a8 B1000000 		.4byte	0xb1
 3645 12ac CD010000 		.4byte	.LLST10
 3646 12b0 37       		.uleb128 0x37
 3647 12b1 25180000 		.4byte	.LASF1672
 3648 12b5 01       		.byte	0x1
 3649 12b6 27       		.byte	0x27
 3650 12b7 B1000000 		.4byte	0xb1
 3651 12bb F5010000 		.4byte	.LLST11
 3652 12bf 37       		.uleb128 0x37
 3653 12c0 290D0000 		.4byte	.LASF1673
 3654 12c4 01       		.byte	0x1
 3655 12c5 27       		.byte	0x27
 3656 12c6 B1000000 		.4byte	0xb1
 3657 12ca 08020000 		.4byte	.LLST12
 3658 12ce 39       		.uleb128 0x39
 3659 12cf BF100000 		.4byte	0x10bf
 3660 12d3 00000000 		.4byte	.LBB25
 3661 12d7 00000000 		.4byte	.Ldebug_ranges0+0
 3662 12db 01       		.byte	0x1
 3663 12dc 28       		.byte	0x28
 3664 12dd EB120000 		.4byte	0x12eb
ARM GAS  /var/folders/z0/6xlwn_996xz3mwq1cgzkbq4r0000gp/T//ccjakVr1.s 			page 91


 3665 12e1 32       		.uleb128 0x32
 3666 12e2 CC100000 		.4byte	0x10cc
 3667 12e6 4E020000 		.4byte	.LLST13
 3668 12ea 00       		.byte	0
 3669 12eb 3A       		.uleb128 0x3a
 3670 12ec 1C000000 		.4byte	.LVL15
 3671 12f0 44180000 		.4byte	0x1844
 3672 12f4 00       		.byte	0
 3673 12f5 3B       		.uleb128 0x3b
 3674 12f6 BAAB0000 		.4byte	.LASF1674
 3675 12fa 01       		.byte	0x1
 3676 12fb 3F       		.byte	0x3f
 3677 12fc 9B000000 		.4byte	0x9b
 3678 1300 00000000 		.4byte	.LFB199
 3679 1304 0C000000 		.4byte	.LFE199-.LFB199
 3680 1308 01       		.uleb128 0x1
 3681 1309 9C       		.byte	0x9c
 3682 130a 3B       		.uleb128 0x3b
 3683 130b 59990000 		.4byte	.LASF1675
 3684 130f 01       		.byte	0x1
 3685 1310 44       		.byte	0x44
 3686 1311 9B000000 		.4byte	0x9b
 3687 1315 00000000 		.4byte	.LFB200
 3688 1319 10000000 		.4byte	.LFE200-.LFB200
 3689 131d 01       		.uleb128 0x1
 3690 131e 9C       		.byte	0x9c
 3691 131f 3B       		.uleb128 0x3b
 3692 1320 2D300000 		.4byte	.LASF1676
 3693 1324 01       		.byte	0x1
 3694 1325 49       		.byte	0x49
 3695 1326 E7000000 		.4byte	0xe7
 3696 132a 00000000 		.4byte	.LFB201
 3697 132e 14000000 		.4byte	.LFE201-.LFB201
 3698 1332 01       		.uleb128 0x1
 3699 1333 9C       		.byte	0x9c
 3700 1334 3C       		.uleb128 0x3c
 3701 1335 92980000 		.4byte	.LASF1682
 3702 1339 01       		.byte	0x1
 3703 133a 50       		.byte	0x50
 3704 133b E7000000 		.4byte	0xe7
 3705 133f 00000000 		.4byte	.LFB202
 3706 1343 28000000 		.4byte	.LFE202-.LFB202
 3707 1347 01       		.uleb128 0x1
 3708 1348 9C       		.byte	0x9c
 3709 1349 9D130000 		.4byte	0x139d
 3710 134d 3D       		.uleb128 0x3d
 3711 134e D9100000 		.4byte	0x10d9
 3712 1352 0A000000 		.4byte	.LBB33
 3713 1356 28000000 		.4byte	.Ldebug_ranges0+0x28
 3714 135a 01       		.byte	0x1
 3715 135b 52       		.byte	0x52
 3716 135c 32       		.uleb128 0x32
 3717 135d E5100000 		.4byte	0x10e5
 3718 1361 62020000 		.4byte	.LLST14
 3719 1365 39       		.uleb128 0x39
 3720 1366 71100000 		.4byte	0x1071
 3721 136a 0A000000 		.4byte	.LBB34
ARM GAS  /var/folders/z0/6xlwn_996xz3mwq1cgzkbq4r0000gp/T//ccjakVr1.s 			page 92


 3722 136e 40000000 		.4byte	.Ldebug_ranges0+0x40
 3723 1372 03       		.byte	0x3
 3724 1373 B5       		.byte	0xb5
 3725 1374 82130000 		.4byte	0x1382
 3726 1378 32       		.uleb128 0x32
 3727 1379 7D100000 		.4byte	0x107d
 3728 137d 76020000 		.4byte	.LLST15
 3729 1381 00       		.byte	0
 3730 1382 3E       		.uleb128 0x3e
 3731 1383 59100000 		.4byte	0x1059
 3732 1387 16000000 		.4byte	.LBB38
 3733 138b 06000000 		.4byte	.LBE38-.LBB38
 3734 138f 03       		.byte	0x3
 3735 1390 B6       		.byte	0xb6
 3736 1391 32       		.uleb128 0x32
 3737 1392 65100000 		.4byte	0x1065
 3738 1396 8A020000 		.4byte	.LLST16
 3739 139a 00       		.byte	0
 3740 139b 00       		.byte	0
 3741 139c 00       		.byte	0
 3742 139d 31       		.uleb128 0x31
 3743 139e F1100000 		.4byte	0x10f1
 3744 13a2 00000000 		.4byte	.LFB203
 3745 13a6 4C000000 		.4byte	.LFE203-.LFB203
 3746 13aa 01       		.uleb128 0x1
 3747 13ab 9C       		.byte	0x9c
 3748 13ac C9130000 		.4byte	0x13c9
 3749 13b0 32       		.uleb128 0x32
 3750 13b1 01110000 		.4byte	0x1101
 3751 13b5 9E020000 		.4byte	.LLST17
 3752 13b9 3F       		.uleb128 0x3f
 3753 13ba 58000000 		.4byte	.Ldebug_ranges0+0x58
 3754 13be 32       		.uleb128 0x32
 3755 13bf 01110000 		.4byte	0x1101
 3756 13c3 BC020000 		.4byte	.LLST18
 3757 13c7 00       		.byte	0
 3758 13c8 00       		.byte	0
 3759 13c9 40       		.uleb128 0x40
 3760 13ca 0B4F0000 		.4byte	.LASF1706
 3761 13ce 01       		.byte	0x1
 3762 13cf 94       		.byte	0x94
 3763 13d0 00000000 		.4byte	.LFB207
 3764 13d4 14000000 		.4byte	.LFE207-.LFB207
 3765 13d8 01       		.uleb128 0x1
 3766 13d9 9C       		.byte	0x9c
 3767 13da 2B       		.uleb128 0x2b
 3768 13db 89640000 		.4byte	.LASF1677
 3769 13df 01       		.byte	0x1
 3770 13e0 BE       		.byte	0xbe
 3771 13e1 00000000 		.4byte	.LFB209
 3772 13e5 40000000 		.4byte	.LFE209-.LFB209
 3773 13e9 01       		.uleb128 0x1
 3774 13ea 9C       		.byte	0x9c
 3775 13eb 3A140000 		.4byte	0x143a
 3776 13ef 2D       		.uleb128 0x2d
 3777 13f0 920C0000 		.4byte	.LASF1590
 3778 13f4 01       		.byte	0x1
ARM GAS  /var/folders/z0/6xlwn_996xz3mwq1cgzkbq4r0000gp/T//ccjakVr1.s 			page 93


 3779 13f5 BE       		.byte	0xbe
 3780 13f6 B1000000 		.4byte	0xb1
 3781 13fa DA020000 		.4byte	.LLST19
 3782 13fe 2D       		.uleb128 0x2d
 3783 13ff 1C010000 		.4byte	.LASF1589
 3784 1403 01       		.byte	0x1
 3785 1404 BE       		.byte	0xbe
 3786 1405 B1000000 		.4byte	0xb1
 3787 1409 0A030000 		.4byte	.LLST20
 3788 140d 2E       		.uleb128 0x2e
 3789 140e 18000000 		.4byte	.LVL45
 3790 1412 1D140000 		.4byte	0x141d
 3791 1416 2F       		.uleb128 0x2f
 3792 1417 01       		.uleb128 0x1
 3793 1418 50       		.byte	0x50
 3794 1419 02       		.uleb128 0x2
 3795 141a 74       		.byte	0x74
 3796 141b 00       		.sleb128 0
 3797 141c 00       		.byte	0
 3798 141d 2E       		.uleb128 0x2e
 3799 141e 26000000 		.4byte	.LVL46
 3800 1422 2D140000 		.4byte	0x142d
 3801 1426 2F       		.uleb128 0x2f
 3802 1427 01       		.uleb128 0x1
 3803 1428 50       		.byte	0x50
 3804 1429 02       		.uleb128 0x2
 3805 142a 74       		.byte	0x74
 3806 142b 00       		.sleb128 0
 3807 142c 00       		.byte	0
 3808 142d 35       		.uleb128 0x35
 3809 142e 34000000 		.4byte	.LVL47
 3810 1432 2F       		.uleb128 0x2f
 3811 1433 01       		.uleb128 0x1
 3812 1434 50       		.byte	0x50
 3813 1435 02       		.uleb128 0x2
 3814 1436 74       		.byte	0x74
 3815 1437 00       		.sleb128 0
 3816 1438 00       		.byte	0
 3817 1439 00       		.byte	0
 3818 143a 2B       		.uleb128 0x2b
 3819 143b 96640000 		.4byte	.LASF1678
 3820 143f 01       		.byte	0x1
 3821 1440 C9       		.byte	0xc9
 3822 1441 00000000 		.4byte	.LFB210
 3823 1445 30000000 		.4byte	.LFE210-.LFB210
 3824 1449 01       		.uleb128 0x1
 3825 144a 9C       		.byte	0x9c
 3826 144b 8A140000 		.4byte	0x148a
 3827 144f 2D       		.uleb128 0x2d
 3828 1450 920C0000 		.4byte	.LASF1590
 3829 1454 01       		.byte	0x1
 3830 1455 C9       		.byte	0xc9
 3831 1456 B1000000 		.4byte	0xb1
 3832 145a 2B030000 		.4byte	.LLST21
 3833 145e 2D       		.uleb128 0x2d
 3834 145f 1C010000 		.4byte	.LASF1589
 3835 1463 01       		.byte	0x1
ARM GAS  /var/folders/z0/6xlwn_996xz3mwq1cgzkbq4r0000gp/T//ccjakVr1.s 			page 94


 3836 1464 C9       		.byte	0xc9
 3837 1465 B1000000 		.4byte	0xb1
 3838 1469 5B030000 		.4byte	.LLST22
 3839 146d 2E       		.uleb128 0x2e
 3840 146e 18000000 		.4byte	.LVL50
 3841 1472 7D140000 		.4byte	0x147d
 3842 1476 2F       		.uleb128 0x2f
 3843 1477 01       		.uleb128 0x1
 3844 1478 50       		.byte	0x50
 3845 1479 02       		.uleb128 0x2
 3846 147a 74       		.byte	0x74
 3847 147b 00       		.sleb128 0
 3848 147c 00       		.byte	0
 3849 147d 35       		.uleb128 0x35
 3850 147e 26000000 		.4byte	.LVL51
 3851 1482 2F       		.uleb128 0x2f
 3852 1483 01       		.uleb128 0x1
 3853 1484 50       		.byte	0x50
 3854 1485 02       		.uleb128 0x2
 3855 1486 74       		.byte	0x74
 3856 1487 00       		.sleb128 0
 3857 1488 00       		.byte	0
 3858 1489 00       		.byte	0
 3859 148a 2B       		.uleb128 0x2b
 3860 148b 6D1A0000 		.4byte	.LASF1679
 3861 148f 01       		.byte	0x1
 3862 1490 98       		.byte	0x98
 3863 1491 00000000 		.4byte	.LFB208
 3864 1495 B0000000 		.4byte	.LFE208-.LFB208
 3865 1499 01       		.uleb128 0x1
 3866 149a 9C       		.byte	0x9c
 3867 149b F8150000 		.4byte	0x15f8
 3868 149f 2D       		.uleb128 0x2d
 3869 14a0 62410000 		.4byte	.LASF1665
 3870 14a4 01       		.byte	0x1
 3871 14a5 98       		.byte	0x98
 3872 14a6 B1000000 		.4byte	0xb1
 3873 14aa 7C030000 		.4byte	.LLST23
 3874 14ae 41       		.uleb128 0x41
 3875 14af 73210000 		.4byte	.LASF1680
 3876 14b3 01       		.byte	0x1
 3877 14b4 A0       		.byte	0xa0
 3878 14b5 230C0000 		.4byte	0xc23
 3879 14b9 02       		.uleb128 0x2
 3880 14ba 91       		.byte	0x91
 3881 14bb 40       		.sleb128 -64
 3882 14bc 41       		.uleb128 0x41
 3883 14bd EAAD0000 		.4byte	.LASF1681
 3884 14c1 01       		.byte	0x1
 3885 14c2 A1       		.byte	0xa1
 3886 14c3 DD0E0000 		.4byte	0xedd
 3887 14c7 02       		.uleb128 0x2
 3888 14c8 91       		.byte	0x91
 3889 14c9 48       		.sleb128 -56
 3890 14ca 39       		.uleb128 0x39
 3891 14cb 89100000 		.4byte	0x1089
 3892 14cf 02000000 		.4byte	.LBB47
ARM GAS  /var/folders/z0/6xlwn_996xz3mwq1cgzkbq4r0000gp/T//ccjakVr1.s 			page 95


 3893 14d3 70000000 		.4byte	.Ldebug_ranges0+0x70
 3894 14d7 01       		.byte	0x1
 3895 14d8 9B       		.byte	0x9b
 3896 14d9 F0140000 		.4byte	0x14f0
 3897 14dd 32       		.uleb128 0x32
 3898 14de 95100000 		.4byte	0x1095
 3899 14e2 B3030000 		.4byte	.LLST24
 3900 14e6 32       		.uleb128 0x32
 3901 14e7 95100000 		.4byte	0x1095
 3902 14eb B3030000 		.4byte	.LLST24
 3903 14ef 00       		.byte	0
 3904 14f0 42       		.uleb128 0x42
 3905 14f1 89100000 		.4byte	0x1089
 3906 14f5 28000000 		.4byte	.LBB51
 3907 14f9 04000000 		.4byte	.LBE51-.LBB51
 3908 14fd 01       		.byte	0x1
 3909 14fe 9E       		.byte	0x9e
 3910 14ff 1C150000 		.4byte	0x151c
 3911 1503 43       		.uleb128 0x43
 3912 1504 95100000 		.4byte	0x1095
 3913 1508 06       		.uleb128 0x6
 3914 1509 03       		.byte	0x3
 3915 150a 00000000 		.4byte	tx_buffer
 3916 150e 9F       		.byte	0x9f
 3917 150f 43       		.uleb128 0x43
 3918 1510 95100000 		.4byte	0x1095
 3919 1514 06       		.uleb128 0x6
 3920 1515 03       		.byte	0x3
 3921 1516 00000000 		.4byte	tx_buffer
 3922 151a 9F       		.byte	0x9f
 3923 151b 00       		.byte	0
 3924 151c 42       		.uleb128 0x42
 3925 151d 0D110000 		.4byte	0x110d
 3926 1521 5E000000 		.4byte	.LBB53
 3927 1525 08000000 		.4byte	.LBE53-.LBB53
 3928 1529 01       		.byte	0x1
 3929 152a B1       		.byte	0xb1
 3930 152b 39150000 		.4byte	0x1539
 3931 152f 32       		.uleb128 0x32
 3932 1530 1A110000 		.4byte	0x111a
 3933 1534 DB030000 		.4byte	.LLST26
 3934 1538 00       		.byte	0
 3935 1539 34       		.uleb128 0x34
 3936 153a 16000000 		.4byte	.LVL54
 3937 153e 50180000 		.4byte	0x1850
 3938 1542 60150000 		.4byte	0x1560
 3939 1546 2F       		.uleb128 0x2f
 3940 1547 01       		.uleb128 0x1
 3941 1548 50       		.byte	0x50
 3942 1549 02       		.uleb128 0x2
 3943 154a 75       		.byte	0x75
 3944 154b 00       		.sleb128 0
 3945 154c 2F       		.uleb128 0x2f
 3946 154d 01       		.uleb128 0x1
 3947 154e 51       		.byte	0x51
 3948 154f 05       		.uleb128 0x5
 3949 1550 03       		.byte	0x3
ARM GAS  /var/folders/z0/6xlwn_996xz3mwq1cgzkbq4r0000gp/T//ccjakVr1.s 			page 96


 3950 1551 00000000 		.4byte	_rx_buffer
 3951 1555 2F       		.uleb128 0x2f
 3952 1556 01       		.uleb128 0x1
 3953 1557 52       		.byte	0x52
 3954 1558 01       		.uleb128 0x1
 3955 1559 48       		.byte	0x48
 3956 155a 2F       		.uleb128 0x2f
 3957 155b 01       		.uleb128 0x1
 3958 155c 53       		.byte	0x53
 3959 155d 01       		.uleb128 0x1
 3960 155e 40       		.byte	0x40
 3961 155f 00       		.byte	0
 3962 1560 34       		.uleb128 0x34
 3963 1561 28000000 		.4byte	.LVL55
 3964 1565 50180000 		.4byte	0x1850
 3965 1569 87150000 		.4byte	0x1587
 3966 156d 2F       		.uleb128 0x2f
 3967 156e 01       		.uleb128 0x1
 3968 156f 50       		.byte	0x50
 3969 1570 02       		.uleb128 0x2
 3970 1571 75       		.byte	0x75
 3971 1572 00       		.sleb128 0
 3972 1573 2F       		.uleb128 0x2f
 3973 1574 01       		.uleb128 0x1
 3974 1575 51       		.byte	0x51
 3975 1576 05       		.uleb128 0x5
 3976 1577 03       		.byte	0x3
 3977 1578 00000000 		.4byte	_tx_buffer
 3978 157c 2F       		.uleb128 0x2f
 3979 157d 01       		.uleb128 0x1
 3980 157e 52       		.byte	0x52
 3981 157f 01       		.uleb128 0x1
 3982 1580 48       		.byte	0x48
 3983 1581 2F       		.uleb128 0x2f
 3984 1582 01       		.uleb128 0x1
 3985 1583 53       		.byte	0x53
 3986 1584 01       		.uleb128 0x1
 3987 1585 40       		.byte	0x40
 3988 1586 00       		.byte	0
 3989 1587 34       		.uleb128 0x34
 3990 1588 48000000 		.4byte	.LVL57
 3991 158c 23120000 		.4byte	0x1223
 3992 1590 A2150000 		.4byte	0x15a2
 3993 1594 2F       		.uleb128 0x2f
 3994 1595 01       		.uleb128 0x1
 3995 1596 50       		.byte	0x50
 3996 1597 03       		.uleb128 0x3
 3997 1598 F3       		.byte	0xf3
 3998 1599 01       		.uleb128 0x1
 3999 159a 50       		.byte	0x50
 4000 159b 2F       		.uleb128 0x2f
 4001 159c 01       		.uleb128 0x1
 4002 159d 51       		.byte	0x51
 4003 159e 02       		.uleb128 0x2
 4004 159f 7D       		.byte	0x7d
 4005 15a0 00       		.sleb128 0
 4006 15a1 00       		.byte	0
ARM GAS  /var/folders/z0/6xlwn_996xz3mwq1cgzkbq4r0000gp/T//ccjakVr1.s 			page 97


 4007 15a2 2E       		.uleb128 0x2e
 4008 15a3 54000000 		.4byte	.LVL58
 4009 15a7 B7150000 		.4byte	0x15b7
 4010 15ab 2F       		.uleb128 0x2f
 4011 15ac 01       		.uleb128 0x1
 4012 15ad 50       		.byte	0x50
 4013 15ae 02       		.uleb128 0x2
 4014 15af 7D       		.byte	0x7d
 4015 15b0 00       		.sleb128 0
 4016 15b1 2F       		.uleb128 0x2f
 4017 15b2 01       		.uleb128 0x1
 4018 15b3 51       		.byte	0x51
 4019 15b4 01       		.uleb128 0x1
 4020 15b5 31       		.byte	0x31
 4021 15b6 00       		.byte	0
 4022 15b7 2E       		.uleb128 0x2e
 4023 15b8 5E000000 		.4byte	.LVL59
 4024 15bc C7150000 		.4byte	0x15c7
 4025 15c0 2F       		.uleb128 0x2f
 4026 15c1 01       		.uleb128 0x1
 4027 15c2 50       		.byte	0x50
 4028 15c3 02       		.uleb128 0x2
 4029 15c4 75       		.byte	0x75
 4030 15c5 00       		.sleb128 0
 4031 15c6 00       		.byte	0
 4032 15c7 34       		.uleb128 0x34
 4033 15c8 6E000000 		.4byte	.LVL61
 4034 15cc DA130000 		.4byte	0x13da
 4035 15d0 E1150000 		.4byte	0x15e1
 4036 15d4 2F       		.uleb128 0x2f
 4037 15d5 01       		.uleb128 0x1
 4038 15d6 50       		.byte	0x50
 4039 15d7 02       		.uleb128 0x2
 4040 15d8 74       		.byte	0x74
 4041 15d9 00       		.sleb128 0
 4042 15da 2F       		.uleb128 0x2f
 4043 15db 01       		.uleb128 0x1
 4044 15dc 51       		.byte	0x51
 4045 15dd 02       		.uleb128 0x2
 4046 15de 74       		.byte	0x74
 4047 15df 00       		.sleb128 0
 4048 15e0 00       		.byte	0
 4049 15e1 30       		.uleb128 0x30
 4050 15e2 76000000 		.4byte	.LVL62
 4051 15e6 3A140000 		.4byte	0x143a
 4052 15ea 2F       		.uleb128 0x2f
 4053 15eb 01       		.uleb128 0x1
 4054 15ec 50       		.byte	0x50
 4055 15ed 02       		.uleb128 0x2
 4056 15ee 74       		.byte	0x74
 4057 15ef 00       		.sleb128 0
 4058 15f0 2F       		.uleb128 0x2f
 4059 15f1 01       		.uleb128 0x1
 4060 15f2 51       		.byte	0x51
 4061 15f3 02       		.uleb128 0x2
 4062 15f4 74       		.byte	0x74
 4063 15f5 00       		.sleb128 0
ARM GAS  /var/folders/z0/6xlwn_996xz3mwq1cgzkbq4r0000gp/T//ccjakVr1.s 			page 98


 4064 15f6 00       		.byte	0
 4065 15f7 00       		.byte	0
 4066 15f8 3C       		.uleb128 0x3c
 4067 15f9 2BA40000 		.4byte	.LASF1683
 4068 15fd 01       		.byte	0x1
 4069 15fe D2       		.byte	0xd2
 4070 15ff 4E100000 		.4byte	0x104e
 4071 1603 00000000 		.4byte	.LFB211
 4072 1607 34000000 		.4byte	.LFE211-.LFB211
 4073 160b 01       		.uleb128 0x1
 4074 160c 9C       		.byte	0x9c
 4075 160d 44160000 		.4byte	0x1644
 4076 1611 2D       		.uleb128 0x2d
 4077 1612 33000000 		.4byte	.LASF1684
 4078 1616 01       		.byte	0x1
 4079 1617 D2       		.byte	0xd2
 4080 1618 830F0000 		.4byte	0xf83
 4081 161c EF030000 		.4byte	.LLST27
 4082 1620 3A       		.uleb128 0x3a
 4083 1621 16000000 		.4byte	.LVL65
 4084 1625 F1100000 		.4byte	0x10f1
 4085 1629 30       		.uleb128 0x30
 4086 162a 20000000 		.4byte	.LVL68
 4087 162e 39180000 		.4byte	0x1839
 4088 1632 2F       		.uleb128 0x2f
 4089 1633 01       		.uleb128 0x1
 4090 1634 50       		.byte	0x50
 4091 1635 05       		.uleb128 0x5
 4092 1636 03       		.byte	0x3
 4093 1637 00000000 		.4byte	.LANCHOR2
 4094 163b 2F       		.uleb128 0x2f
 4095 163c 01       		.uleb128 0x1
 4096 163d 51       		.byte	0x51
 4097 163e 03       		.uleb128 0x3
 4098 163f F3       		.byte	0xf3
 4099 1640 01       		.uleb128 0x1
 4100 1641 50       		.byte	0x50
 4101 1642 00       		.byte	0
 4102 1643 00       		.byte	0
 4103 1644 31       		.uleb128 0x31
 4104 1645 27110000 		.4byte	0x1127
 4105 1649 00000000 		.4byte	.LFB213
 4106 164d 70000000 		.4byte	.LFE213-.LFB213
 4107 1651 01       		.uleb128 0x1
 4108 1652 9C       		.byte	0x9c
 4109 1653 D8160000 		.4byte	0x16d8
 4110 1657 32       		.uleb128 0x32
 4111 1658 37110000 		.4byte	0x1137
 4112 165c 34040000 		.4byte	.LLST28
 4113 1660 44       		.uleb128 0x44
 4114 1661 88000000 		.4byte	.Ldebug_ranges0+0x88
 4115 1665 89160000 		.4byte	0x1689
 4116 1669 45       		.uleb128 0x45
 4117 166a 43110000 		.4byte	0x1143
 4118 166e 9D040000 		.4byte	.LLST29
 4119 1672 45       		.uleb128 0x45
 4120 1673 4C110000 		.4byte	0x114c
ARM GAS  /var/folders/z0/6xlwn_996xz3mwq1cgzkbq4r0000gp/T//ccjakVr1.s 			page 99


 4121 1677 E1040000 		.4byte	.LLST30
 4122 167b 35       		.uleb128 0x35
 4123 167c 4C000000 		.4byte	.LVL81
 4124 1680 2F       		.uleb128 0x2f
 4125 1681 01       		.uleb128 0x1
 4126 1682 50       		.byte	0x50
 4127 1683 03       		.uleb128 0x3
 4128 1684 F3       		.byte	0xf3
 4129 1685 01       		.uleb128 0x1
 4130 1686 50       		.byte	0x50
 4131 1687 00       		.byte	0
 4132 1688 00       		.byte	0
 4133 1689 46       		.uleb128 0x46
 4134 168a 18000000 		.4byte	.LBB60
 4135 168e 14000000 		.4byte	.LBE60-.LBB60
 4136 1692 CE160000 		.4byte	0x16ce
 4137 1696 32       		.uleb128 0x32
 4138 1697 37110000 		.4byte	0x1137
 4139 169b 01050000 		.4byte	.LLST31
 4140 169f 33       		.uleb128 0x33
 4141 16a0 18000000 		.4byte	.LBB61
 4142 16a4 14000000 		.4byte	.LBE61-.LBB61
 4143 16a8 47       		.uleb128 0x47
 4144 16a9 43110000 		.4byte	0x1143
 4145 16ad 47       		.uleb128 0x47
 4146 16ae 4C110000 		.4byte	0x114c
 4147 16b2 30       		.uleb128 0x30
 4148 16b3 20000000 		.4byte	.LVL74
 4149 16b7 2E180000 		.4byte	0x182e
 4150 16bb 2F       		.uleb128 0x2f
 4151 16bc 01       		.uleb128 0x1
 4152 16bd 50       		.byte	0x50
 4153 16be 05       		.uleb128 0x5
 4154 16bf 03       		.byte	0x3
 4155 16c0 00000000 		.4byte	.LANCHOR4
 4156 16c4 2F       		.uleb128 0x2f
 4157 16c5 01       		.uleb128 0x1
 4158 16c6 51       		.byte	0x51
 4159 16c7 03       		.uleb128 0x3
 4160 16c8 F3       		.byte	0xf3
 4161 16c9 01       		.uleb128 0x1
 4162 16ca 50       		.byte	0x50
 4163 16cb 00       		.byte	0
 4164 16cc 00       		.byte	0
 4165 16cd 00       		.byte	0
 4166 16ce 3A       		.uleb128 0x3a
 4167 16cf 3A000000 		.4byte	.LVL78
 4168 16d3 F1100000 		.4byte	0x10f1
 4169 16d7 00       		.byte	0
 4170 16d8 3C       		.uleb128 0x3c
 4171 16d9 82350000 		.4byte	.LASF1685
 4172 16dd 01       		.byte	0x1
 4173 16de DC       		.byte	0xdc
 4174 16df 4E100000 		.4byte	0x104e
 4175 16e3 00000000 		.4byte	.LFB212
 4176 16e7 28000000 		.4byte	.LFE212-.LFB212
 4177 16eb 01       		.uleb128 0x1
ARM GAS  /var/folders/z0/6xlwn_996xz3mwq1cgzkbq4r0000gp/T//ccjakVr1.s 			page 100


 4178 16ec 9C       		.byte	0x9c
 4179 16ed 35170000 		.4byte	0x1735
 4180 16f1 2D       		.uleb128 0x2d
 4181 16f2 16120000 		.4byte	.LASF1686
 4182 16f6 01       		.byte	0x1
 4183 16f7 DC       		.byte	0xdc
 4184 16f8 B1000000 		.4byte	0xb1
 4185 16fc 2D050000 		.4byte	.LLST32
 4186 1700 2D       		.uleb128 0x2d
 4187 1701 4E8C0000 		.4byte	.LASF1530
 4188 1705 01       		.byte	0x1
 4189 1706 DC       		.byte	0xdc
 4190 1707 F2080000 		.4byte	0x8f2
 4191 170b 68050000 		.4byte	.LLST33
 4192 170f 2D       		.uleb128 0x2d
 4193 1710 36010000 		.4byte	.LASF1687
 4194 1714 01       		.byte	0x1
 4195 1715 DC       		.byte	0xdc
 4196 1716 9B000000 		.4byte	0x9b
 4197 171a 89050000 		.4byte	.LLST34
 4198 171e 38       		.uleb128 0x38
 4199 171f 6900     		.ascii	"i\000"
 4200 1721 01       		.byte	0x1
 4201 1722 DF       		.byte	0xdf
 4202 1723 9B000000 		.4byte	0x9b
 4203 1727 AA050000 		.4byte	.LLST35
 4204 172b 3A       		.uleb128 0x3a
 4205 172c 22000000 		.4byte	.LVL90
 4206 1730 27110000 		.4byte	0x1127
 4207 1734 00       		.byte	0
 4208 1735 48       		.uleb128 0x48
 4209 1736 2C860000 		.4byte	.LASF1688
 4210 173a 01       		.byte	0x1
 4211 173b 0201     		.2byte	0x102
 4212 173d 4E100000 		.4byte	0x104e
 4213 1741 00000000 		.4byte	.LFB214
 4214 1745 10000000 		.4byte	.LFE214-.LFB214
 4215 1749 01       		.uleb128 0x1
 4216 174a 9C       		.byte	0x9c
 4217 174b 59170000 		.4byte	0x1759
 4218 174f 3A       		.uleb128 0x3a
 4219 1750 0A000000 		.4byte	.LVL91
 4220 1754 F1100000 		.4byte	0x10f1
 4221 1758 00       		.byte	0
 4222 1759 41       		.uleb128 0x41
 4223 175a 97070000 		.4byte	.LASF1689
 4224 175e 01       		.byte	0x1
 4225 175f 09       		.byte	0x9
 4226 1760 5E080000 		.4byte	0x85e
 4227 1764 05       		.uleb128 0x5
 4228 1765 03       		.byte	0x3
 4229 1766 00000000 		.4byte	rx_buffer
 4230 176a 41       		.uleb128 0x41
 4231 176b D44A0000 		.4byte	.LASF1690
 4232 176f 01       		.byte	0x1
 4233 1770 0C       		.byte	0xc
 4234 1771 5E080000 		.4byte	0x85e
ARM GAS  /var/folders/z0/6xlwn_996xz3mwq1cgzkbq4r0000gp/T//ccjakVr1.s 			page 101


 4235 1775 05       		.uleb128 0x5
 4236 1776 03       		.byte	0x3
 4237 1777 00000000 		.4byte	tx_buffer
 4238 177b 41       		.uleb128 0x41
 4239 177c 8B6E0000 		.4byte	.LASF1691
 4240 1780 01       		.byte	0x1
 4241 1781 11       		.byte	0x11
 4242 1782 E7000000 		.4byte	0xe7
 4243 1786 05       		.uleb128 0x5
 4244 1787 03       		.byte	0x3
 4245 1788 00000000 		.4byte	can_error_flag
 4246 178c 41       		.uleb128 0x41
 4247 178d 8D3C0000 		.4byte	.LASF1692
 4248 1791 01       		.byte	0x1
 4249 1792 12       		.byte	0x12
 4250 1793 B1000000 		.4byte	0xb1
 4251 1797 05       		.uleb128 0x5
 4252 1798 03       		.byte	0x3
 4253 1799 00000000 		.4byte	can_error_info
 4254 179d 0D       		.uleb128 0xd
 4255 179e E7000000 		.4byte	0xe7
 4256 17a2 AD170000 		.4byte	0x17ad
 4257 17a6 0E       		.uleb128 0xe
 4258 17a7 95020000 		.4byte	0x295
 4259 17ab 02       		.byte	0x2
 4260 17ac 00       		.byte	0
 4261 17ad 41       		.uleb128 0x41
 4262 17ae 65660000 		.4byte	.LASF1693
 4263 17b2 01       		.byte	0x1
 4264 17b3 19       		.byte	0x19
 4265 17b4 9D170000 		.4byte	0x179d
 4266 17b8 05       		.uleb128 0x5
 4267 17b9 03       		.byte	0x3
 4268 17ba 00000000 		.4byte	msg_obj_stat
 4269 17be 49       		.uleb128 0x49
 4270 17bf 47290000 		.4byte	.LASF1694
 4271 17c3 0E       		.byte	0xe
 4272 17c4 D4       		.byte	0xd4
 4273 17c5 E2080000 		.4byte	0x8e2
 4274 17c9 4A       		.uleb128 0x4a
 4275 17ca D0980000 		.4byte	.LASF1661
 4276 17ce 01       		.byte	0x1
 4277 17cf 08       		.byte	0x8
 4278 17d0 760C0000 		.4byte	0xc76
 4279 17d4 05       		.uleb128 0x5
 4280 17d5 03       		.byte	0x3
 4281 17d6 00000000 		.4byte	msg_obj
 4282 17da 0D       		.uleb128 0xd
 4283 17db 760C0000 		.4byte	0xc76
 4284 17df EA170000 		.4byte	0x17ea
 4285 17e3 0E       		.uleb128 0xe
 4286 17e4 95020000 		.4byte	0x295
 4287 17e8 0F       		.byte	0xf
 4288 17e9 00       		.byte	0
 4289 17ea 4A       		.uleb128 0x4a
 4290 17eb 642B0000 		.4byte	.LASF1695
 4291 17ef 01       		.byte	0x1
ARM GAS  /var/folders/z0/6xlwn_996xz3mwq1cgzkbq4r0000gp/T//ccjakVr1.s 			page 102


 4292 17f0 0A       		.byte	0xa
 4293 17f1 DA170000 		.4byte	0x17da
 4294 17f5 05       		.uleb128 0x5
 4295 17f6 03       		.byte	0x3
 4296 17f7 00000000 		.4byte	_rx_buffer
 4297 17fb 4A       		.uleb128 0x4a
 4298 17fc F5A60000 		.4byte	.LASF1696
 4299 1800 01       		.byte	0x1
 4300 1801 0D       		.byte	0xd
 4301 1802 DA170000 		.4byte	0x17da
 4302 1806 05       		.uleb128 0x5
 4303 1807 03       		.byte	0x3
 4304 1808 00000000 		.4byte	_tx_buffer
 4305 180c 4A       		.uleb128 0x4a
 4306 180d 986F0000 		.4byte	.LASF1697
 4307 1811 01       		.byte	0x1
 4308 1812 0E       		.byte	0xe
 4309 1813 760C0000 		.4byte	0xc76
 4310 1817 05       		.uleb128 0x5
 4311 1818 03       		.byte	0x3
 4312 1819 00000000 		.4byte	tmp_msg_obj
 4313 181d 4A       		.uleb128 0x4a
 4314 181e 79280000 		.4byte	.LASF1698
 4315 1822 01       		.byte	0x1
 4316 1823 0F       		.byte	0xf
 4317 1824 760C0000 		.4byte	0xc76
 4318 1828 05       		.uleb128 0x5
 4319 1829 03       		.byte	0x3
 4320 182a 00000000 		.4byte	tmp_msg_obj_2
 4321 182e 4B       		.uleb128 0x4b
 4322 182f FB4B0000 		.4byte	.LASF1699
 4323 1833 FB4B0000 		.4byte	.LASF1699
 4324 1837 04       		.byte	0x4
 4325 1838 95       		.byte	0x95
 4326 1839 4B       		.uleb128 0x4b
 4327 183a 71910000 		.4byte	.LASF1700
 4328 183e 71910000 		.4byte	.LASF1700
 4329 1842 04       		.byte	0x4
 4330 1843 AC       		.byte	0xac
 4331 1844 4C       		.uleb128 0x4c
 4332 1845 0F280000 		.4byte	.LASF1701
 4333 1849 0F280000 		.4byte	.LASF1701
 4334 184d 02       		.byte	0x2
 4335 184e 1302     		.2byte	0x213
 4336 1850 4B       		.uleb128 0x4b
 4337 1851 39670000 		.4byte	.LASF1702
 4338 1855 39670000 		.4byte	.LASF1702
 4339 1859 04       		.byte	0x4
 4340 185a 4E       		.byte	0x4e
 4341 185b 00       		.byte	0
 4342              		.section	.debug_abbrev,"",%progbits
 4343              	.Ldebug_abbrev0:
 4344 0000 01       		.uleb128 0x1
 4345 0001 11       		.uleb128 0x11
 4346 0002 01       		.byte	0x1
 4347 0003 25       		.uleb128 0x25
 4348 0004 0E       		.uleb128 0xe
ARM GAS  /var/folders/z0/6xlwn_996xz3mwq1cgzkbq4r0000gp/T//ccjakVr1.s 			page 103


 4349 0005 13       		.uleb128 0x13
 4350 0006 0B       		.uleb128 0xb
 4351 0007 03       		.uleb128 0x3
 4352 0008 0E       		.uleb128 0xe
 4353 0009 1B       		.uleb128 0x1b
 4354 000a 0E       		.uleb128 0xe
 4355 000b 55       		.uleb128 0x55
 4356 000c 17       		.uleb128 0x17
 4357 000d 11       		.uleb128 0x11
 4358 000e 01       		.uleb128 0x1
 4359 000f 10       		.uleb128 0x10
 4360 0010 17       		.uleb128 0x17
 4361 0011 9942     		.uleb128 0x2119
 4362 0013 17       		.uleb128 0x17
 4363 0014 00       		.byte	0
 4364 0015 00       		.byte	0
 4365 0016 02       		.uleb128 0x2
 4366 0017 24       		.uleb128 0x24
 4367 0018 00       		.byte	0
 4368 0019 0B       		.uleb128 0xb
 4369 001a 0B       		.uleb128 0xb
 4370 001b 3E       		.uleb128 0x3e
 4371 001c 0B       		.uleb128 0xb
 4372 001d 03       		.uleb128 0x3
 4373 001e 0E       		.uleb128 0xe
 4374 001f 00       		.byte	0
 4375 0020 00       		.byte	0
 4376 0021 03       		.uleb128 0x3
 4377 0022 16       		.uleb128 0x16
 4378 0023 00       		.byte	0
 4379 0024 03       		.uleb128 0x3
 4380 0025 0E       		.uleb128 0xe
 4381 0026 3A       		.uleb128 0x3a
 4382 0027 0B       		.uleb128 0xb
 4383 0028 3B       		.uleb128 0x3b
 4384 0029 0B       		.uleb128 0xb
 4385 002a 49       		.uleb128 0x49
 4386 002b 13       		.uleb128 0x13
 4387 002c 00       		.byte	0
 4388 002d 00       		.byte	0
 4389 002e 04       		.uleb128 0x4
 4390 002f 24       		.uleb128 0x24
 4391 0030 00       		.byte	0
 4392 0031 0B       		.uleb128 0xb
 4393 0032 0B       		.uleb128 0xb
 4394 0033 3E       		.uleb128 0x3e
 4395 0034 0B       		.uleb128 0xb
 4396 0035 03       		.uleb128 0x3
 4397 0036 08       		.uleb128 0x8
 4398 0037 00       		.byte	0
 4399 0038 00       		.byte	0
 4400 0039 05       		.uleb128 0x5
 4401 003a 04       		.uleb128 0x4
 4402 003b 01       		.byte	0x1
 4403 003c 0B       		.uleb128 0xb
 4404 003d 0B       		.uleb128 0xb
 4405 003e 49       		.uleb128 0x49
ARM GAS  /var/folders/z0/6xlwn_996xz3mwq1cgzkbq4r0000gp/T//ccjakVr1.s 			page 104


 4406 003f 13       		.uleb128 0x13
 4407 0040 3A       		.uleb128 0x3a
 4408 0041 0B       		.uleb128 0xb
 4409 0042 3B       		.uleb128 0x3b
 4410 0043 0B       		.uleb128 0xb
 4411 0044 01       		.uleb128 0x1
 4412 0045 13       		.uleb128 0x13
 4413 0046 00       		.byte	0
 4414 0047 00       		.byte	0
 4415 0048 06       		.uleb128 0x6
 4416 0049 28       		.uleb128 0x28
 4417 004a 00       		.byte	0
 4418 004b 03       		.uleb128 0x3
 4419 004c 0E       		.uleb128 0xe
 4420 004d 1C       		.uleb128 0x1c
 4421 004e 0B       		.uleb128 0xb
 4422 004f 00       		.byte	0
 4423 0050 00       		.byte	0
 4424 0051 07       		.uleb128 0x7
 4425 0052 04       		.uleb128 0x4
 4426 0053 01       		.byte	0x1
 4427 0054 03       		.uleb128 0x3
 4428 0055 0E       		.uleb128 0xe
 4429 0056 0B       		.uleb128 0xb
 4430 0057 0B       		.uleb128 0xb
 4431 0058 49       		.uleb128 0x49
 4432 0059 13       		.uleb128 0x13
 4433 005a 3A       		.uleb128 0x3a
 4434 005b 0B       		.uleb128 0xb
 4435 005c 3B       		.uleb128 0x3b
 4436 005d 0B       		.uleb128 0xb
 4437 005e 01       		.uleb128 0x1
 4438 005f 13       		.uleb128 0x13
 4439 0060 00       		.byte	0
 4440 0061 00       		.byte	0
 4441 0062 08       		.uleb128 0x8
 4442 0063 28       		.uleb128 0x28
 4443 0064 00       		.byte	0
 4444 0065 03       		.uleb128 0x3
 4445 0066 0E       		.uleb128 0xe
 4446 0067 1C       		.uleb128 0x1c
 4447 0068 0D       		.uleb128 0xd
 4448 0069 00       		.byte	0
 4449 006a 00       		.byte	0
 4450 006b 09       		.uleb128 0x9
 4451 006c 13       		.uleb128 0x13
 4452 006d 01       		.byte	0x1
 4453 006e 0B       		.uleb128 0xb
 4454 006f 05       		.uleb128 0x5
 4455 0070 3A       		.uleb128 0x3a
 4456 0071 0B       		.uleb128 0xb
 4457 0072 3B       		.uleb128 0x3b
 4458 0073 05       		.uleb128 0x5
 4459 0074 01       		.uleb128 0x1
 4460 0075 13       		.uleb128 0x13
 4461 0076 00       		.byte	0
 4462 0077 00       		.byte	0
ARM GAS  /var/folders/z0/6xlwn_996xz3mwq1cgzkbq4r0000gp/T//ccjakVr1.s 			page 105


 4463 0078 0A       		.uleb128 0xa
 4464 0079 0D       		.uleb128 0xd
 4465 007a 00       		.byte	0
 4466 007b 03       		.uleb128 0x3
 4467 007c 0E       		.uleb128 0xe
 4468 007d 3A       		.uleb128 0x3a
 4469 007e 0B       		.uleb128 0xb
 4470 007f 3B       		.uleb128 0x3b
 4471 0080 05       		.uleb128 0x5
 4472 0081 49       		.uleb128 0x49
 4473 0082 13       		.uleb128 0x13
 4474 0083 38       		.uleb128 0x38
 4475 0084 0B       		.uleb128 0xb
 4476 0085 00       		.byte	0
 4477 0086 00       		.byte	0
 4478 0087 0B       		.uleb128 0xb
 4479 0088 0D       		.uleb128 0xd
 4480 0089 00       		.byte	0
 4481 008a 03       		.uleb128 0x3
 4482 008b 0E       		.uleb128 0xe
 4483 008c 3A       		.uleb128 0x3a
 4484 008d 0B       		.uleb128 0xb
 4485 008e 3B       		.uleb128 0x3b
 4486 008f 05       		.uleb128 0x5
 4487 0090 49       		.uleb128 0x49
 4488 0091 13       		.uleb128 0x13
 4489 0092 38       		.uleb128 0x38
 4490 0093 05       		.uleb128 0x5
 4491 0094 00       		.byte	0
 4492 0095 00       		.byte	0
 4493 0096 0C       		.uleb128 0xc
 4494 0097 0D       		.uleb128 0xd
 4495 0098 00       		.byte	0
 4496 0099 03       		.uleb128 0x3
 4497 009a 08       		.uleb128 0x8
 4498 009b 3A       		.uleb128 0x3a
 4499 009c 0B       		.uleb128 0xb
 4500 009d 3B       		.uleb128 0x3b
 4501 009e 05       		.uleb128 0x5
 4502 009f 49       		.uleb128 0x49
 4503 00a0 13       		.uleb128 0x13
 4504 00a1 38       		.uleb128 0x38
 4505 00a2 05       		.uleb128 0x5
 4506 00a3 00       		.byte	0
 4507 00a4 00       		.byte	0
 4508 00a5 0D       		.uleb128 0xd
 4509 00a6 01       		.uleb128 0x1
 4510 00a7 01       		.byte	0x1
 4511 00a8 49       		.uleb128 0x49
 4512 00a9 13       		.uleb128 0x13
 4513 00aa 01       		.uleb128 0x1
 4514 00ab 13       		.uleb128 0x13
 4515 00ac 00       		.byte	0
 4516 00ad 00       		.byte	0
 4517 00ae 0E       		.uleb128 0xe
 4518 00af 21       		.uleb128 0x21
 4519 00b0 00       		.byte	0
ARM GAS  /var/folders/z0/6xlwn_996xz3mwq1cgzkbq4r0000gp/T//ccjakVr1.s 			page 106


 4520 00b1 49       		.uleb128 0x49
 4521 00b2 13       		.uleb128 0x13
 4522 00b3 2F       		.uleb128 0x2f
 4523 00b4 0B       		.uleb128 0xb
 4524 00b5 00       		.byte	0
 4525 00b6 00       		.byte	0
 4526 00b7 0F       		.uleb128 0xf
 4527 00b8 35       		.uleb128 0x35
 4528 00b9 00       		.byte	0
 4529 00ba 49       		.uleb128 0x49
 4530 00bb 13       		.uleb128 0x13
 4531 00bc 00       		.byte	0
 4532 00bd 00       		.byte	0
 4533 00be 10       		.uleb128 0x10
 4534 00bf 16       		.uleb128 0x16
 4535 00c0 00       		.byte	0
 4536 00c1 03       		.uleb128 0x3
 4537 00c2 0E       		.uleb128 0xe
 4538 00c3 3A       		.uleb128 0x3a
 4539 00c4 0B       		.uleb128 0xb
 4540 00c5 3B       		.uleb128 0x3b
 4541 00c6 05       		.uleb128 0x5
 4542 00c7 49       		.uleb128 0x49
 4543 00c8 13       		.uleb128 0x13
 4544 00c9 00       		.byte	0
 4545 00ca 00       		.byte	0
 4546 00cb 11       		.uleb128 0x11
 4547 00cc 26       		.uleb128 0x26
 4548 00cd 00       		.byte	0
 4549 00ce 49       		.uleb128 0x49
 4550 00cf 13       		.uleb128 0x13
 4551 00d0 00       		.byte	0
 4552 00d1 00       		.byte	0
 4553 00d2 12       		.uleb128 0x12
 4554 00d3 13       		.uleb128 0x13
 4555 00d4 01       		.byte	0x1
 4556 00d5 0B       		.uleb128 0xb
 4557 00d6 05       		.uleb128 0x5
 4558 00d7 3A       		.uleb128 0x3a
 4559 00d8 0B       		.uleb128 0xb
 4560 00d9 3B       		.uleb128 0x3b
 4561 00da 0B       		.uleb128 0xb
 4562 00db 01       		.uleb128 0x1
 4563 00dc 13       		.uleb128 0x13
 4564 00dd 00       		.byte	0
 4565 00de 00       		.byte	0
 4566 00df 13       		.uleb128 0x13
 4567 00e0 0D       		.uleb128 0xd
 4568 00e1 00       		.byte	0
 4569 00e2 03       		.uleb128 0x3
 4570 00e3 0E       		.uleb128 0xe
 4571 00e4 3A       		.uleb128 0x3a
 4572 00e5 0B       		.uleb128 0xb
 4573 00e6 3B       		.uleb128 0x3b
 4574 00e7 0B       		.uleb128 0xb
 4575 00e8 49       		.uleb128 0x49
 4576 00e9 13       		.uleb128 0x13
ARM GAS  /var/folders/z0/6xlwn_996xz3mwq1cgzkbq4r0000gp/T//ccjakVr1.s 			page 107


 4577 00ea 38       		.uleb128 0x38
 4578 00eb 0B       		.uleb128 0xb
 4579 00ec 00       		.byte	0
 4580 00ed 00       		.byte	0
 4581 00ee 14       		.uleb128 0x14
 4582 00ef 0D       		.uleb128 0xd
 4583 00f0 00       		.byte	0
 4584 00f1 03       		.uleb128 0x3
 4585 00f2 0E       		.uleb128 0xe
 4586 00f3 3A       		.uleb128 0x3a
 4587 00f4 0B       		.uleb128 0xb
 4588 00f5 3B       		.uleb128 0x3b
 4589 00f6 0B       		.uleb128 0xb
 4590 00f7 49       		.uleb128 0x49
 4591 00f8 13       		.uleb128 0x13
 4592 00f9 38       		.uleb128 0x38
 4593 00fa 05       		.uleb128 0x5
 4594 00fb 00       		.byte	0
 4595 00fc 00       		.byte	0
 4596 00fd 15       		.uleb128 0x15
 4597 00fe 13       		.uleb128 0x13
 4598 00ff 01       		.byte	0x1
 4599 0100 0B       		.uleb128 0xb
 4600 0101 0B       		.uleb128 0xb
 4601 0102 3A       		.uleb128 0x3a
 4602 0103 0B       		.uleb128 0xb
 4603 0104 3B       		.uleb128 0x3b
 4604 0105 0B       		.uleb128 0xb
 4605 0106 01       		.uleb128 0x1
 4606 0107 13       		.uleb128 0x13
 4607 0108 00       		.byte	0
 4608 0109 00       		.byte	0
 4609 010a 16       		.uleb128 0x16
 4610 010b 0F       		.uleb128 0xf
 4611 010c 00       		.byte	0
 4612 010d 0B       		.uleb128 0xb
 4613 010e 0B       		.uleb128 0xb
 4614 010f 00       		.byte	0
 4615 0110 00       		.byte	0
 4616 0111 17       		.uleb128 0x17
 4617 0112 0F       		.uleb128 0xf
 4618 0113 00       		.byte	0
 4619 0114 0B       		.uleb128 0xb
 4620 0115 0B       		.uleb128 0xb
 4621 0116 49       		.uleb128 0x49
 4622 0117 13       		.uleb128 0x13
 4623 0118 00       		.byte	0
 4624 0119 00       		.byte	0
 4625 011a 18       		.uleb128 0x18
 4626 011b 17       		.uleb128 0x17
 4627 011c 01       		.byte	0x1
 4628 011d 0B       		.uleb128 0xb
 4629 011e 0B       		.uleb128 0xb
 4630 011f 3A       		.uleb128 0x3a
 4631 0120 0B       		.uleb128 0xb
 4632 0121 3B       		.uleb128 0x3b
 4633 0122 0B       		.uleb128 0xb
ARM GAS  /var/folders/z0/6xlwn_996xz3mwq1cgzkbq4r0000gp/T//ccjakVr1.s 			page 108


 4634 0123 01       		.uleb128 0x1
 4635 0124 13       		.uleb128 0x13
 4636 0125 00       		.byte	0
 4637 0126 00       		.byte	0
 4638 0127 19       		.uleb128 0x19
 4639 0128 0D       		.uleb128 0xd
 4640 0129 00       		.byte	0
 4641 012a 03       		.uleb128 0x3
 4642 012b 0E       		.uleb128 0xe
 4643 012c 3A       		.uleb128 0x3a
 4644 012d 0B       		.uleb128 0xb
 4645 012e 3B       		.uleb128 0x3b
 4646 012f 0B       		.uleb128 0xb
 4647 0130 49       		.uleb128 0x49
 4648 0131 13       		.uleb128 0x13
 4649 0132 00       		.byte	0
 4650 0133 00       		.byte	0
 4651 0134 1A       		.uleb128 0x1a
 4652 0135 0D       		.uleb128 0xd
 4653 0136 00       		.byte	0
 4654 0137 49       		.uleb128 0x49
 4655 0138 13       		.uleb128 0x13
 4656 0139 38       		.uleb128 0x38
 4657 013a 0B       		.uleb128 0xb
 4658 013b 00       		.byte	0
 4659 013c 00       		.byte	0
 4660 013d 1B       		.uleb128 0x1b
 4661 013e 13       		.uleb128 0x13
 4662 013f 01       		.byte	0x1
 4663 0140 03       		.uleb128 0x3
 4664 0141 0E       		.uleb128 0xe
 4665 0142 0B       		.uleb128 0xb
 4666 0143 0B       		.uleb128 0xb
 4667 0144 3A       		.uleb128 0x3a
 4668 0145 0B       		.uleb128 0xb
 4669 0146 3B       		.uleb128 0x3b
 4670 0147 0B       		.uleb128 0xb
 4671 0148 01       		.uleb128 0x1
 4672 0149 13       		.uleb128 0x13
 4673 014a 00       		.byte	0
 4674 014b 00       		.byte	0
 4675 014c 1C       		.uleb128 0x1c
 4676 014d 0D       		.uleb128 0xd
 4677 014e 00       		.byte	0
 4678 014f 03       		.uleb128 0x3
 4679 0150 08       		.uleb128 0x8
 4680 0151 3A       		.uleb128 0x3a
 4681 0152 0B       		.uleb128 0xb
 4682 0153 3B       		.uleb128 0x3b
 4683 0154 0B       		.uleb128 0xb
 4684 0155 49       		.uleb128 0x49
 4685 0156 13       		.uleb128 0x13
 4686 0157 38       		.uleb128 0x38
 4687 0158 0B       		.uleb128 0xb
 4688 0159 00       		.byte	0
 4689 015a 00       		.byte	0
 4690 015b 1D       		.uleb128 0x1d
ARM GAS  /var/folders/z0/6xlwn_996xz3mwq1cgzkbq4r0000gp/T//ccjakVr1.s 			page 109


 4691 015c 15       		.uleb128 0x15
 4692 015d 01       		.byte	0x1
 4693 015e 27       		.uleb128 0x27
 4694 015f 19       		.uleb128 0x19
 4695 0160 01       		.uleb128 0x1
 4696 0161 13       		.uleb128 0x13
 4697 0162 00       		.byte	0
 4698 0163 00       		.byte	0
 4699 0164 1E       		.uleb128 0x1e
 4700 0165 05       		.uleb128 0x5
 4701 0166 00       		.byte	0
 4702 0167 49       		.uleb128 0x49
 4703 0168 13       		.uleb128 0x13
 4704 0169 00       		.byte	0
 4705 016a 00       		.byte	0
 4706 016b 1F       		.uleb128 0x1f
 4707 016c 15       		.uleb128 0x15
 4708 016d 01       		.byte	0x1
 4709 016e 27       		.uleb128 0x27
 4710 016f 19       		.uleb128 0x19
 4711 0170 49       		.uleb128 0x49
 4712 0171 13       		.uleb128 0x13
 4713 0172 01       		.uleb128 0x1
 4714 0173 13       		.uleb128 0x13
 4715 0174 00       		.byte	0
 4716 0175 00       		.byte	0
 4717 0176 20       		.uleb128 0x20
 4718 0177 15       		.uleb128 0x15
 4719 0178 00       		.byte	0
 4720 0179 27       		.uleb128 0x27
 4721 017a 19       		.uleb128 0x19
 4722 017b 00       		.byte	0
 4723 017c 00       		.byte	0
 4724 017d 21       		.uleb128 0x21
 4725 017e 2E       		.uleb128 0x2e
 4726 017f 01       		.byte	0x1
 4727 0180 03       		.uleb128 0x3
 4728 0181 0E       		.uleb128 0xe
 4729 0182 3A       		.uleb128 0x3a
 4730 0183 0B       		.uleb128 0xb
 4731 0184 3B       		.uleb128 0x3b
 4732 0185 0B       		.uleb128 0xb
 4733 0186 27       		.uleb128 0x27
 4734 0187 19       		.uleb128 0x19
 4735 0188 20       		.uleb128 0x20
 4736 0189 0B       		.uleb128 0xb
 4737 018a 01       		.uleb128 0x1
 4738 018b 13       		.uleb128 0x13
 4739 018c 00       		.byte	0
 4740 018d 00       		.byte	0
 4741 018e 22       		.uleb128 0x22
 4742 018f 05       		.uleb128 0x5
 4743 0190 00       		.byte	0
 4744 0191 03       		.uleb128 0x3
 4745 0192 0E       		.uleb128 0xe
 4746 0193 3A       		.uleb128 0x3a
 4747 0194 0B       		.uleb128 0xb
ARM GAS  /var/folders/z0/6xlwn_996xz3mwq1cgzkbq4r0000gp/T//ccjakVr1.s 			page 110


 4748 0195 3B       		.uleb128 0x3b
 4749 0196 0B       		.uleb128 0xb
 4750 0197 49       		.uleb128 0x49
 4751 0198 13       		.uleb128 0x13
 4752 0199 00       		.byte	0
 4753 019a 00       		.byte	0
 4754 019b 23       		.uleb128 0x23
 4755 019c 2E       		.uleb128 0x2e
 4756 019d 01       		.byte	0x1
 4757 019e 3F       		.uleb128 0x3f
 4758 019f 19       		.uleb128 0x19
 4759 01a0 03       		.uleb128 0x3
 4760 01a1 0E       		.uleb128 0xe
 4761 01a2 3A       		.uleb128 0x3a
 4762 01a3 0B       		.uleb128 0xb
 4763 01a4 3B       		.uleb128 0x3b
 4764 01a5 0B       		.uleb128 0xb
 4765 01a6 27       		.uleb128 0x27
 4766 01a7 19       		.uleb128 0x19
 4767 01a8 20       		.uleb128 0x20
 4768 01a9 0B       		.uleb128 0xb
 4769 01aa 01       		.uleb128 0x1
 4770 01ab 13       		.uleb128 0x13
 4771 01ac 00       		.byte	0
 4772 01ad 00       		.byte	0
 4773 01ae 24       		.uleb128 0x24
 4774 01af 2E       		.uleb128 0x2e
 4775 01b0 01       		.byte	0x1
 4776 01b1 03       		.uleb128 0x3
 4777 01b2 0E       		.uleb128 0xe
 4778 01b3 3A       		.uleb128 0x3a
 4779 01b4 0B       		.uleb128 0xb
 4780 01b5 3B       		.uleb128 0x3b
 4781 01b6 05       		.uleb128 0x5
 4782 01b7 27       		.uleb128 0x27
 4783 01b8 19       		.uleb128 0x19
 4784 01b9 20       		.uleb128 0x20
 4785 01ba 0B       		.uleb128 0xb
 4786 01bb 01       		.uleb128 0x1
 4787 01bc 13       		.uleb128 0x13
 4788 01bd 00       		.byte	0
 4789 01be 00       		.byte	0
 4790 01bf 25       		.uleb128 0x25
 4791 01c0 05       		.uleb128 0x5
 4792 01c1 00       		.byte	0
 4793 01c2 03       		.uleb128 0x3
 4794 01c3 08       		.uleb128 0x8
 4795 01c4 3A       		.uleb128 0x3a
 4796 01c5 0B       		.uleb128 0xb
 4797 01c6 3B       		.uleb128 0x3b
 4798 01c7 05       		.uleb128 0x5
 4799 01c8 49       		.uleb128 0x49
 4800 01c9 13       		.uleb128 0x13
 4801 01ca 00       		.byte	0
 4802 01cb 00       		.byte	0
 4803 01cc 26       		.uleb128 0x26
 4804 01cd 2E       		.uleb128 0x2e
ARM GAS  /var/folders/z0/6xlwn_996xz3mwq1cgzkbq4r0000gp/T//ccjakVr1.s 			page 111


 4805 01ce 01       		.byte	0x1
 4806 01cf 3F       		.uleb128 0x3f
 4807 01d0 19       		.uleb128 0x19
 4808 01d1 03       		.uleb128 0x3
 4809 01d2 0E       		.uleb128 0xe
 4810 01d3 3A       		.uleb128 0x3a
 4811 01d4 0B       		.uleb128 0xb
 4812 01d5 3B       		.uleb128 0x3b
 4813 01d6 0B       		.uleb128 0xb
 4814 01d7 27       		.uleb128 0x27
 4815 01d8 19       		.uleb128 0x19
 4816 01d9 49       		.uleb128 0x49
 4817 01da 13       		.uleb128 0x13
 4818 01db 20       		.uleb128 0x20
 4819 01dc 0B       		.uleb128 0xb
 4820 01dd 01       		.uleb128 0x1
 4821 01de 13       		.uleb128 0x13
 4822 01df 00       		.byte	0
 4823 01e0 00       		.byte	0
 4824 01e1 27       		.uleb128 0x27
 4825 01e2 05       		.uleb128 0x5
 4826 01e3 00       		.byte	0
 4827 01e4 03       		.uleb128 0x3
 4828 01e5 0E       		.uleb128 0xe
 4829 01e6 3A       		.uleb128 0x3a
 4830 01e7 0B       		.uleb128 0xb
 4831 01e8 3B       		.uleb128 0x3b
 4832 01e9 05       		.uleb128 0x5
 4833 01ea 49       		.uleb128 0x49
 4834 01eb 13       		.uleb128 0x13
 4835 01ec 00       		.byte	0
 4836 01ed 00       		.byte	0
 4837 01ee 28       		.uleb128 0x28
 4838 01ef 0B       		.uleb128 0xb
 4839 01f0 01       		.byte	0x1
 4840 01f1 00       		.byte	0
 4841 01f2 00       		.byte	0
 4842 01f3 29       		.uleb128 0x29
 4843 01f4 34       		.uleb128 0x34
 4844 01f5 00       		.byte	0
 4845 01f6 03       		.uleb128 0x3
 4846 01f7 08       		.uleb128 0x8
 4847 01f8 3A       		.uleb128 0x3a
 4848 01f9 0B       		.uleb128 0xb
 4849 01fa 3B       		.uleb128 0x3b
 4850 01fb 0B       		.uleb128 0xb
 4851 01fc 49       		.uleb128 0x49
 4852 01fd 13       		.uleb128 0x13
 4853 01fe 00       		.byte	0
 4854 01ff 00       		.byte	0
 4855 0200 2A       		.uleb128 0x2a
 4856 0201 34       		.uleb128 0x34
 4857 0202 00       		.byte	0
 4858 0203 03       		.uleb128 0x3
 4859 0204 0E       		.uleb128 0xe
 4860 0205 3A       		.uleb128 0x3a
 4861 0206 0B       		.uleb128 0xb
ARM GAS  /var/folders/z0/6xlwn_996xz3mwq1cgzkbq4r0000gp/T//ccjakVr1.s 			page 112


 4862 0207 3B       		.uleb128 0x3b
 4863 0208 0B       		.uleb128 0xb
 4864 0209 49       		.uleb128 0x49
 4865 020a 13       		.uleb128 0x13
 4866 020b 00       		.byte	0
 4867 020c 00       		.byte	0
 4868 020d 2B       		.uleb128 0x2b
 4869 020e 2E       		.uleb128 0x2e
 4870 020f 01       		.byte	0x1
 4871 0210 3F       		.uleb128 0x3f
 4872 0211 19       		.uleb128 0x19
 4873 0212 03       		.uleb128 0x3
 4874 0213 0E       		.uleb128 0xe
 4875 0214 3A       		.uleb128 0x3a
 4876 0215 0B       		.uleb128 0xb
 4877 0216 3B       		.uleb128 0x3b
 4878 0217 0B       		.uleb128 0xb
 4879 0218 27       		.uleb128 0x27
 4880 0219 19       		.uleb128 0x19
 4881 021a 11       		.uleb128 0x11
 4882 021b 01       		.uleb128 0x1
 4883 021c 12       		.uleb128 0x12
 4884 021d 06       		.uleb128 0x6
 4885 021e 40       		.uleb128 0x40
 4886 021f 18       		.uleb128 0x18
 4887 0220 9742     		.uleb128 0x2117
 4888 0222 19       		.uleb128 0x19
 4889 0223 01       		.uleb128 0x1
 4890 0224 13       		.uleb128 0x13
 4891 0225 00       		.byte	0
 4892 0226 00       		.byte	0
 4893 0227 2C       		.uleb128 0x2c
 4894 0228 05       		.uleb128 0x5
 4895 0229 00       		.byte	0
 4896 022a 03       		.uleb128 0x3
 4897 022b 0E       		.uleb128 0xe
 4898 022c 3A       		.uleb128 0x3a
 4899 022d 0B       		.uleb128 0xb
 4900 022e 3B       		.uleb128 0x3b
 4901 022f 0B       		.uleb128 0xb
 4902 0230 49       		.uleb128 0x49
 4903 0231 13       		.uleb128 0x13
 4904 0232 02       		.uleb128 0x2
 4905 0233 18       		.uleb128 0x18
 4906 0234 00       		.byte	0
 4907 0235 00       		.byte	0
 4908 0236 2D       		.uleb128 0x2d
 4909 0237 05       		.uleb128 0x5
 4910 0238 00       		.byte	0
 4911 0239 03       		.uleb128 0x3
 4912 023a 0E       		.uleb128 0xe
 4913 023b 3A       		.uleb128 0x3a
 4914 023c 0B       		.uleb128 0xb
 4915 023d 3B       		.uleb128 0x3b
 4916 023e 0B       		.uleb128 0xb
 4917 023f 49       		.uleb128 0x49
 4918 0240 13       		.uleb128 0x13
ARM GAS  /var/folders/z0/6xlwn_996xz3mwq1cgzkbq4r0000gp/T//ccjakVr1.s 			page 113


 4919 0241 02       		.uleb128 0x2
 4920 0242 17       		.uleb128 0x17
 4921 0243 00       		.byte	0
 4922 0244 00       		.byte	0
 4923 0245 2E       		.uleb128 0x2e
 4924 0246 898201   		.uleb128 0x4109
 4925 0249 01       		.byte	0x1
 4926 024a 11       		.uleb128 0x11
 4927 024b 01       		.uleb128 0x1
 4928 024c 01       		.uleb128 0x1
 4929 024d 13       		.uleb128 0x13
 4930 024e 00       		.byte	0
 4931 024f 00       		.byte	0
 4932 0250 2F       		.uleb128 0x2f
 4933 0251 8A8201   		.uleb128 0x410a
 4934 0254 00       		.byte	0
 4935 0255 02       		.uleb128 0x2
 4936 0256 18       		.uleb128 0x18
 4937 0257 9142     		.uleb128 0x2111
 4938 0259 18       		.uleb128 0x18
 4939 025a 00       		.byte	0
 4940 025b 00       		.byte	0
 4941 025c 30       		.uleb128 0x30
 4942 025d 898201   		.uleb128 0x4109
 4943 0260 01       		.byte	0x1
 4944 0261 11       		.uleb128 0x11
 4945 0262 01       		.uleb128 0x1
 4946 0263 31       		.uleb128 0x31
 4947 0264 13       		.uleb128 0x13
 4948 0265 00       		.byte	0
 4949 0266 00       		.byte	0
 4950 0267 31       		.uleb128 0x31
 4951 0268 2E       		.uleb128 0x2e
 4952 0269 01       		.byte	0x1
 4953 026a 31       		.uleb128 0x31
 4954 026b 13       		.uleb128 0x13
 4955 026c 11       		.uleb128 0x11
 4956 026d 01       		.uleb128 0x1
 4957 026e 12       		.uleb128 0x12
 4958 026f 06       		.uleb128 0x6
 4959 0270 40       		.uleb128 0x40
 4960 0271 18       		.uleb128 0x18
 4961 0272 9742     		.uleb128 0x2117
 4962 0274 19       		.uleb128 0x19
 4963 0275 01       		.uleb128 0x1
 4964 0276 13       		.uleb128 0x13
 4965 0277 00       		.byte	0
 4966 0278 00       		.byte	0
 4967 0279 32       		.uleb128 0x32
 4968 027a 05       		.uleb128 0x5
 4969 027b 00       		.byte	0
 4970 027c 31       		.uleb128 0x31
 4971 027d 13       		.uleb128 0x13
 4972 027e 02       		.uleb128 0x2
 4973 027f 17       		.uleb128 0x17
 4974 0280 00       		.byte	0
 4975 0281 00       		.byte	0
ARM GAS  /var/folders/z0/6xlwn_996xz3mwq1cgzkbq4r0000gp/T//ccjakVr1.s 			page 114


 4976 0282 33       		.uleb128 0x33
 4977 0283 0B       		.uleb128 0xb
 4978 0284 01       		.byte	0x1
 4979 0285 11       		.uleb128 0x11
 4980 0286 01       		.uleb128 0x1
 4981 0287 12       		.uleb128 0x12
 4982 0288 06       		.uleb128 0x6
 4983 0289 00       		.byte	0
 4984 028a 00       		.byte	0
 4985 028b 34       		.uleb128 0x34
 4986 028c 898201   		.uleb128 0x4109
 4987 028f 01       		.byte	0x1
 4988 0290 11       		.uleb128 0x11
 4989 0291 01       		.uleb128 0x1
 4990 0292 31       		.uleb128 0x31
 4991 0293 13       		.uleb128 0x13
 4992 0294 01       		.uleb128 0x1
 4993 0295 13       		.uleb128 0x13
 4994 0296 00       		.byte	0
 4995 0297 00       		.byte	0
 4996 0298 35       		.uleb128 0x35
 4997 0299 898201   		.uleb128 0x4109
 4998 029c 01       		.byte	0x1
 4999 029d 11       		.uleb128 0x11
 5000 029e 01       		.uleb128 0x1
 5001 029f 00       		.byte	0
 5002 02a0 00       		.byte	0
 5003 02a1 36       		.uleb128 0x36
 5004 02a2 2E       		.uleb128 0x2e
 5005 02a3 01       		.byte	0x1
 5006 02a4 3F       		.uleb128 0x3f
 5007 02a5 19       		.uleb128 0x19
 5008 02a6 03       		.uleb128 0x3
 5009 02a7 0E       		.uleb128 0xe
 5010 02a8 3A       		.uleb128 0x3a
 5011 02a9 0B       		.uleb128 0xb
 5012 02aa 3B       		.uleb128 0x3b
 5013 02ab 0B       		.uleb128 0xb
 5014 02ac 27       		.uleb128 0x27
 5015 02ad 19       		.uleb128 0x19
 5016 02ae 11       		.uleb128 0x11
 5017 02af 01       		.uleb128 0x1
 5018 02b0 12       		.uleb128 0x12
 5019 02b1 06       		.uleb128 0x6
 5020 02b2 40       		.uleb128 0x40
 5021 02b3 18       		.uleb128 0x18
 5022 02b4 9642     		.uleb128 0x2116
 5023 02b6 19       		.uleb128 0x19
 5024 02b7 01       		.uleb128 0x1
 5025 02b8 13       		.uleb128 0x13
 5026 02b9 00       		.byte	0
 5027 02ba 00       		.byte	0
 5028 02bb 37       		.uleb128 0x37
 5029 02bc 34       		.uleb128 0x34
 5030 02bd 00       		.byte	0
 5031 02be 03       		.uleb128 0x3
 5032 02bf 0E       		.uleb128 0xe
ARM GAS  /var/folders/z0/6xlwn_996xz3mwq1cgzkbq4r0000gp/T//ccjakVr1.s 			page 115


 5033 02c0 3A       		.uleb128 0x3a
 5034 02c1 0B       		.uleb128 0xb
 5035 02c2 3B       		.uleb128 0x3b
 5036 02c3 0B       		.uleb128 0xb
 5037 02c4 49       		.uleb128 0x49
 5038 02c5 13       		.uleb128 0x13
 5039 02c6 02       		.uleb128 0x2
 5040 02c7 17       		.uleb128 0x17
 5041 02c8 00       		.byte	0
 5042 02c9 00       		.byte	0
 5043 02ca 38       		.uleb128 0x38
 5044 02cb 34       		.uleb128 0x34
 5045 02cc 00       		.byte	0
 5046 02cd 03       		.uleb128 0x3
 5047 02ce 08       		.uleb128 0x8
 5048 02cf 3A       		.uleb128 0x3a
 5049 02d0 0B       		.uleb128 0xb
 5050 02d1 3B       		.uleb128 0x3b
 5051 02d2 0B       		.uleb128 0xb
 5052 02d3 49       		.uleb128 0x49
 5053 02d4 13       		.uleb128 0x13
 5054 02d5 02       		.uleb128 0x2
 5055 02d6 17       		.uleb128 0x17
 5056 02d7 00       		.byte	0
 5057 02d8 00       		.byte	0
 5058 02d9 39       		.uleb128 0x39
 5059 02da 1D       		.uleb128 0x1d
 5060 02db 01       		.byte	0x1
 5061 02dc 31       		.uleb128 0x31
 5062 02dd 13       		.uleb128 0x13
 5063 02de 52       		.uleb128 0x52
 5064 02df 01       		.uleb128 0x1
 5065 02e0 55       		.uleb128 0x55
 5066 02e1 17       		.uleb128 0x17
 5067 02e2 58       		.uleb128 0x58
 5068 02e3 0B       		.uleb128 0xb
 5069 02e4 59       		.uleb128 0x59
 5070 02e5 0B       		.uleb128 0xb
 5071 02e6 01       		.uleb128 0x1
 5072 02e7 13       		.uleb128 0x13
 5073 02e8 00       		.byte	0
 5074 02e9 00       		.byte	0
 5075 02ea 3A       		.uleb128 0x3a
 5076 02eb 898201   		.uleb128 0x4109
 5077 02ee 00       		.byte	0
 5078 02ef 11       		.uleb128 0x11
 5079 02f0 01       		.uleb128 0x1
 5080 02f1 31       		.uleb128 0x31
 5081 02f2 13       		.uleb128 0x13
 5082 02f3 00       		.byte	0
 5083 02f4 00       		.byte	0
 5084 02f5 3B       		.uleb128 0x3b
 5085 02f6 2E       		.uleb128 0x2e
 5086 02f7 00       		.byte	0
 5087 02f8 3F       		.uleb128 0x3f
 5088 02f9 19       		.uleb128 0x19
 5089 02fa 03       		.uleb128 0x3
ARM GAS  /var/folders/z0/6xlwn_996xz3mwq1cgzkbq4r0000gp/T//ccjakVr1.s 			page 116


 5090 02fb 0E       		.uleb128 0xe
 5091 02fc 3A       		.uleb128 0x3a
 5092 02fd 0B       		.uleb128 0xb
 5093 02fe 3B       		.uleb128 0x3b
 5094 02ff 0B       		.uleb128 0xb
 5095 0300 27       		.uleb128 0x27
 5096 0301 19       		.uleb128 0x19
 5097 0302 49       		.uleb128 0x49
 5098 0303 13       		.uleb128 0x13
 5099 0304 11       		.uleb128 0x11
 5100 0305 01       		.uleb128 0x1
 5101 0306 12       		.uleb128 0x12
 5102 0307 06       		.uleb128 0x6
 5103 0308 40       		.uleb128 0x40
 5104 0309 18       		.uleb128 0x18
 5105 030a 9742     		.uleb128 0x2117
 5106 030c 19       		.uleb128 0x19
 5107 030d 00       		.byte	0
 5108 030e 00       		.byte	0
 5109 030f 3C       		.uleb128 0x3c
 5110 0310 2E       		.uleb128 0x2e
 5111 0311 01       		.byte	0x1
 5112 0312 3F       		.uleb128 0x3f
 5113 0313 19       		.uleb128 0x19
 5114 0314 03       		.uleb128 0x3
 5115 0315 0E       		.uleb128 0xe
 5116 0316 3A       		.uleb128 0x3a
 5117 0317 0B       		.uleb128 0xb
 5118 0318 3B       		.uleb128 0x3b
 5119 0319 0B       		.uleb128 0xb
 5120 031a 27       		.uleb128 0x27
 5121 031b 19       		.uleb128 0x19
 5122 031c 49       		.uleb128 0x49
 5123 031d 13       		.uleb128 0x13
 5124 031e 11       		.uleb128 0x11
 5125 031f 01       		.uleb128 0x1
 5126 0320 12       		.uleb128 0x12
 5127 0321 06       		.uleb128 0x6
 5128 0322 40       		.uleb128 0x40
 5129 0323 18       		.uleb128 0x18
 5130 0324 9742     		.uleb128 0x2117
 5131 0326 19       		.uleb128 0x19
 5132 0327 01       		.uleb128 0x1
 5133 0328 13       		.uleb128 0x13
 5134 0329 00       		.byte	0
 5135 032a 00       		.byte	0
 5136 032b 3D       		.uleb128 0x3d
 5137 032c 1D       		.uleb128 0x1d
 5138 032d 01       		.byte	0x1
 5139 032e 31       		.uleb128 0x31
 5140 032f 13       		.uleb128 0x13
 5141 0330 52       		.uleb128 0x52
 5142 0331 01       		.uleb128 0x1
 5143 0332 55       		.uleb128 0x55
 5144 0333 17       		.uleb128 0x17
 5145 0334 58       		.uleb128 0x58
 5146 0335 0B       		.uleb128 0xb
ARM GAS  /var/folders/z0/6xlwn_996xz3mwq1cgzkbq4r0000gp/T//ccjakVr1.s 			page 117


 5147 0336 59       		.uleb128 0x59
 5148 0337 0B       		.uleb128 0xb
 5149 0338 00       		.byte	0
 5150 0339 00       		.byte	0
 5151 033a 3E       		.uleb128 0x3e
 5152 033b 1D       		.uleb128 0x1d
 5153 033c 01       		.byte	0x1
 5154 033d 31       		.uleb128 0x31
 5155 033e 13       		.uleb128 0x13
 5156 033f 11       		.uleb128 0x11
 5157 0340 01       		.uleb128 0x1
 5158 0341 12       		.uleb128 0x12
 5159 0342 06       		.uleb128 0x6
 5160 0343 58       		.uleb128 0x58
 5161 0344 0B       		.uleb128 0xb
 5162 0345 59       		.uleb128 0x59
 5163 0346 0B       		.uleb128 0xb
 5164 0347 00       		.byte	0
 5165 0348 00       		.byte	0
 5166 0349 3F       		.uleb128 0x3f
 5167 034a 0B       		.uleb128 0xb
 5168 034b 01       		.byte	0x1
 5169 034c 55       		.uleb128 0x55
 5170 034d 17       		.uleb128 0x17
 5171 034e 00       		.byte	0
 5172 034f 00       		.byte	0
 5173 0350 40       		.uleb128 0x40
 5174 0351 2E       		.uleb128 0x2e
 5175 0352 00       		.byte	0
 5176 0353 3F       		.uleb128 0x3f
 5177 0354 19       		.uleb128 0x19
 5178 0355 03       		.uleb128 0x3
 5179 0356 0E       		.uleb128 0xe
 5180 0357 3A       		.uleb128 0x3a
 5181 0358 0B       		.uleb128 0xb
 5182 0359 3B       		.uleb128 0x3b
 5183 035a 0B       		.uleb128 0xb
 5184 035b 27       		.uleb128 0x27
 5185 035c 19       		.uleb128 0x19
 5186 035d 11       		.uleb128 0x11
 5187 035e 01       		.uleb128 0x1
 5188 035f 12       		.uleb128 0x12
 5189 0360 06       		.uleb128 0x6
 5190 0361 40       		.uleb128 0x40
 5191 0362 18       		.uleb128 0x18
 5192 0363 9642     		.uleb128 0x2116
 5193 0365 19       		.uleb128 0x19
 5194 0366 00       		.byte	0
 5195 0367 00       		.byte	0
 5196 0368 41       		.uleb128 0x41
 5197 0369 34       		.uleb128 0x34
 5198 036a 00       		.byte	0
 5199 036b 03       		.uleb128 0x3
 5200 036c 0E       		.uleb128 0xe
 5201 036d 3A       		.uleb128 0x3a
 5202 036e 0B       		.uleb128 0xb
 5203 036f 3B       		.uleb128 0x3b
ARM GAS  /var/folders/z0/6xlwn_996xz3mwq1cgzkbq4r0000gp/T//ccjakVr1.s 			page 118


 5204 0370 0B       		.uleb128 0xb
 5205 0371 49       		.uleb128 0x49
 5206 0372 13       		.uleb128 0x13
 5207 0373 02       		.uleb128 0x2
 5208 0374 18       		.uleb128 0x18
 5209 0375 00       		.byte	0
 5210 0376 00       		.byte	0
 5211 0377 42       		.uleb128 0x42
 5212 0378 1D       		.uleb128 0x1d
 5213 0379 01       		.byte	0x1
 5214 037a 31       		.uleb128 0x31
 5215 037b 13       		.uleb128 0x13
 5216 037c 11       		.uleb128 0x11
 5217 037d 01       		.uleb128 0x1
 5218 037e 12       		.uleb128 0x12
 5219 037f 06       		.uleb128 0x6
 5220 0380 58       		.uleb128 0x58
 5221 0381 0B       		.uleb128 0xb
 5222 0382 59       		.uleb128 0x59
 5223 0383 0B       		.uleb128 0xb
 5224 0384 01       		.uleb128 0x1
 5225 0385 13       		.uleb128 0x13
 5226 0386 00       		.byte	0
 5227 0387 00       		.byte	0
 5228 0388 43       		.uleb128 0x43
 5229 0389 05       		.uleb128 0x5
 5230 038a 00       		.byte	0
 5231 038b 31       		.uleb128 0x31
 5232 038c 13       		.uleb128 0x13
 5233 038d 02       		.uleb128 0x2
 5234 038e 18       		.uleb128 0x18
 5235 038f 00       		.byte	0
 5236 0390 00       		.byte	0
 5237 0391 44       		.uleb128 0x44
 5238 0392 0B       		.uleb128 0xb
 5239 0393 01       		.byte	0x1
 5240 0394 55       		.uleb128 0x55
 5241 0395 17       		.uleb128 0x17
 5242 0396 01       		.uleb128 0x1
 5243 0397 13       		.uleb128 0x13
 5244 0398 00       		.byte	0
 5245 0399 00       		.byte	0
 5246 039a 45       		.uleb128 0x45
 5247 039b 34       		.uleb128 0x34
 5248 039c 00       		.byte	0
 5249 039d 31       		.uleb128 0x31
 5250 039e 13       		.uleb128 0x13
 5251 039f 02       		.uleb128 0x2
 5252 03a0 17       		.uleb128 0x17
 5253 03a1 00       		.byte	0
 5254 03a2 00       		.byte	0
 5255 03a3 46       		.uleb128 0x46
 5256 03a4 0B       		.uleb128 0xb
 5257 03a5 01       		.byte	0x1
 5258 03a6 11       		.uleb128 0x11
 5259 03a7 01       		.uleb128 0x1
 5260 03a8 12       		.uleb128 0x12
ARM GAS  /var/folders/z0/6xlwn_996xz3mwq1cgzkbq4r0000gp/T//ccjakVr1.s 			page 119


 5261 03a9 06       		.uleb128 0x6
 5262 03aa 01       		.uleb128 0x1
 5263 03ab 13       		.uleb128 0x13
 5264 03ac 00       		.byte	0
 5265 03ad 00       		.byte	0
 5266 03ae 47       		.uleb128 0x47
 5267 03af 34       		.uleb128 0x34
 5268 03b0 00       		.byte	0
 5269 03b1 31       		.uleb128 0x31
 5270 03b2 13       		.uleb128 0x13
 5271 03b3 00       		.byte	0
 5272 03b4 00       		.byte	0
 5273 03b5 48       		.uleb128 0x48
 5274 03b6 2E       		.uleb128 0x2e
 5275 03b7 01       		.byte	0x1
 5276 03b8 3F       		.uleb128 0x3f
 5277 03b9 19       		.uleb128 0x19
 5278 03ba 03       		.uleb128 0x3
 5279 03bb 0E       		.uleb128 0xe
 5280 03bc 3A       		.uleb128 0x3a
 5281 03bd 0B       		.uleb128 0xb
 5282 03be 3B       		.uleb128 0x3b
 5283 03bf 05       		.uleb128 0x5
 5284 03c0 27       		.uleb128 0x27
 5285 03c1 19       		.uleb128 0x19
 5286 03c2 49       		.uleb128 0x49
 5287 03c3 13       		.uleb128 0x13
 5288 03c4 11       		.uleb128 0x11
 5289 03c5 01       		.uleb128 0x1
 5290 03c6 12       		.uleb128 0x12
 5291 03c7 06       		.uleb128 0x6
 5292 03c8 40       		.uleb128 0x40
 5293 03c9 18       		.uleb128 0x18
 5294 03ca 9742     		.uleb128 0x2117
 5295 03cc 19       		.uleb128 0x19
 5296 03cd 01       		.uleb128 0x1
 5297 03ce 13       		.uleb128 0x13
 5298 03cf 00       		.byte	0
 5299 03d0 00       		.byte	0
 5300 03d1 49       		.uleb128 0x49
 5301 03d2 34       		.uleb128 0x34
 5302 03d3 00       		.byte	0
 5303 03d4 03       		.uleb128 0x3
 5304 03d5 0E       		.uleb128 0xe
 5305 03d6 3A       		.uleb128 0x3a
 5306 03d7 0B       		.uleb128 0xb
 5307 03d8 3B       		.uleb128 0x3b
 5308 03d9 0B       		.uleb128 0xb
 5309 03da 49       		.uleb128 0x49
 5310 03db 13       		.uleb128 0x13
 5311 03dc 3F       		.uleb128 0x3f
 5312 03dd 19       		.uleb128 0x19
 5313 03de 3C       		.uleb128 0x3c
 5314 03df 19       		.uleb128 0x19
 5315 03e0 00       		.byte	0
 5316 03e1 00       		.byte	0
 5317 03e2 4A       		.uleb128 0x4a
ARM GAS  /var/folders/z0/6xlwn_996xz3mwq1cgzkbq4r0000gp/T//ccjakVr1.s 			page 120


 5318 03e3 34       		.uleb128 0x34
 5319 03e4 00       		.byte	0
 5320 03e5 03       		.uleb128 0x3
 5321 03e6 0E       		.uleb128 0xe
 5322 03e7 3A       		.uleb128 0x3a
 5323 03e8 0B       		.uleb128 0xb
 5324 03e9 3B       		.uleb128 0x3b
 5325 03ea 0B       		.uleb128 0xb
 5326 03eb 49       		.uleb128 0x49
 5327 03ec 13       		.uleb128 0x13
 5328 03ed 3F       		.uleb128 0x3f
 5329 03ee 19       		.uleb128 0x19
 5330 03ef 02       		.uleb128 0x2
 5331 03f0 18       		.uleb128 0x18
 5332 03f1 00       		.byte	0
 5333 03f2 00       		.byte	0
 5334 03f3 4B       		.uleb128 0x4b
 5335 03f4 2E       		.uleb128 0x2e
 5336 03f5 00       		.byte	0
 5337 03f6 3F       		.uleb128 0x3f
 5338 03f7 19       		.uleb128 0x19
 5339 03f8 3C       		.uleb128 0x3c
 5340 03f9 19       		.uleb128 0x19
 5341 03fa 6E       		.uleb128 0x6e
 5342 03fb 0E       		.uleb128 0xe
 5343 03fc 03       		.uleb128 0x3
 5344 03fd 0E       		.uleb128 0xe
 5345 03fe 3A       		.uleb128 0x3a
 5346 03ff 0B       		.uleb128 0xb
 5347 0400 3B       		.uleb128 0x3b
 5348 0401 0B       		.uleb128 0xb
 5349 0402 00       		.byte	0
 5350 0403 00       		.byte	0
 5351 0404 4C       		.uleb128 0x4c
 5352 0405 2E       		.uleb128 0x2e
 5353 0406 00       		.byte	0
 5354 0407 3F       		.uleb128 0x3f
 5355 0408 19       		.uleb128 0x19
 5356 0409 3C       		.uleb128 0x3c
 5357 040a 19       		.uleb128 0x19
 5358 040b 6E       		.uleb128 0x6e
 5359 040c 0E       		.uleb128 0xe
 5360 040d 03       		.uleb128 0x3
 5361 040e 0E       		.uleb128 0xe
 5362 040f 3A       		.uleb128 0x3a
 5363 0410 0B       		.uleb128 0xb
 5364 0411 3B       		.uleb128 0x3b
 5365 0412 05       		.uleb128 0x5
 5366 0413 00       		.byte	0
 5367 0414 00       		.byte	0
 5368 0415 00       		.byte	0
 5369              		.section	.debug_loc,"",%progbits
 5370              	.Ldebug_loc0:
 5371              	.LLST0:
 5372 0000 00000000 		.4byte	.LVL1
 5373 0004 0C000000 		.4byte	.LVL2
 5374 0008 0100     		.2byte	0x1
ARM GAS  /var/folders/z0/6xlwn_996xz3mwq1cgzkbq4r0000gp/T//ccjakVr1.s 			page 121


 5375 000a 50       		.byte	0x50
 5376 000b 0C000000 		.4byte	.LVL2
 5377 000f 11000000 		.4byte	.LVL3-1
 5378 0013 0500     		.2byte	0x5
 5379 0015 03       		.byte	0x3
 5380 0016 11000000 		.4byte	msg_obj+17
 5381 001a 11000000 		.4byte	.LVL3-1
 5382 001e 44000000 		.4byte	.LFE204
 5383 0022 0400     		.2byte	0x4
 5384 0024 F3       		.byte	0xf3
 5385 0025 01       		.uleb128 0x1
 5386 0026 50       		.byte	0x50
 5387 0027 9F       		.byte	0x9f
 5388 0028 00000000 		.4byte	0
 5389 002c 00000000 		.4byte	0
 5390              	.LLST1:
 5391 0030 00000000 		.4byte	.LVL5
 5392 0034 16000000 		.4byte	.LVL6
 5393 0038 0100     		.2byte	0x1
 5394 003a 50       		.byte	0x50
 5395 003b 16000000 		.4byte	.LVL6
 5396 003f 18000000 		.4byte	.LVL7
 5397 0043 0400     		.2byte	0x4
 5398 0045 F3       		.byte	0xf3
 5399 0046 01       		.uleb128 0x1
 5400 0047 50       		.byte	0x50
 5401 0048 9F       		.byte	0x9f
 5402 0049 18000000 		.4byte	.LVL7
 5403 004d 24000000 		.4byte	.LVL8
 5404 0051 0100     		.2byte	0x1
 5405 0053 50       		.byte	0x50
 5406 0054 24000000 		.4byte	.LVL8
 5407 0058 58000000 		.4byte	.LFE205
 5408 005c 0400     		.2byte	0x4
 5409 005e F3       		.byte	0xf3
 5410 005f 01       		.uleb128 0x1
 5411 0060 50       		.byte	0x50
 5412 0061 9F       		.byte	0x9f
 5413 0062 00000000 		.4byte	0
 5414 0066 00000000 		.4byte	0
 5415              	.LLST2:
 5416 006a 18000000 		.4byte	.LVL7
 5417 006e 24000000 		.4byte	.LVL8
 5418 0072 0100     		.2byte	0x1
 5419 0074 50       		.byte	0x50
 5420 0075 24000000 		.4byte	.LVL8
 5421 0079 58000000 		.4byte	.LFE205
 5422 007d 0400     		.2byte	0x4
 5423 007f F3       		.byte	0xf3
 5424 0080 01       		.uleb128 0x1
 5425 0081 50       		.byte	0x50
 5426 0082 9F       		.byte	0x9f
 5427 0083 00000000 		.4byte	0
 5428 0087 00000000 		.4byte	0
 5429              	.LLST3:
 5430 008b 00000000 		.4byte	.LVL11
 5431 008f 08000000 		.4byte	.LVL12
ARM GAS  /var/folders/z0/6xlwn_996xz3mwq1cgzkbq4r0000gp/T//ccjakVr1.s 			page 122


 5432 0093 0100     		.2byte	0x1
 5433 0095 50       		.byte	0x50
 5434 0096 08000000 		.4byte	.LVL12
 5435 009a 28000000 		.4byte	.LVL17
 5436 009e 0100     		.2byte	0x1
 5437 00a0 55       		.byte	0x55
 5438 00a1 28000000 		.4byte	.LVL17
 5439 00a5 94000000 		.4byte	.LFE198
 5440 00a9 0400     		.2byte	0x4
 5441 00ab F3       		.byte	0xf3
 5442 00ac 01       		.uleb128 0x1
 5443 00ad 50       		.byte	0x50
 5444 00ae 9F       		.byte	0x9f
 5445 00af 00000000 		.4byte	0
 5446 00b3 00000000 		.4byte	0
 5447              	.LLST4:
 5448 00b7 00000000 		.4byte	.LVL11
 5449 00bb 0E000000 		.4byte	.LVL13
 5450 00bf 0100     		.2byte	0x1
 5451 00c1 51       		.byte	0x51
 5452 00c2 0E000000 		.4byte	.LVL13
 5453 00c6 86000000 		.4byte	.LVL32
 5454 00ca 0100     		.2byte	0x1
 5455 00cc 54       		.byte	0x54
 5456 00cd 86000000 		.4byte	.LVL32
 5457 00d1 8C000000 		.4byte	.LVL33
 5458 00d5 0400     		.2byte	0x4
 5459 00d7 F3       		.byte	0xf3
 5460 00d8 01       		.uleb128 0x1
 5461 00d9 51       		.byte	0x51
 5462 00da 9F       		.byte	0x9f
 5463 00db 8C000000 		.4byte	.LVL33
 5464 00df 94000000 		.4byte	.LFE198
 5465 00e3 0100     		.2byte	0x1
 5466 00e5 54       		.byte	0x54
 5467 00e6 00000000 		.4byte	0
 5468 00ea 00000000 		.4byte	0
 5469              	.LLST5:
 5470 00ee 1C000000 		.4byte	.LVL15
 5471 00f2 21000000 		.4byte	.LVL16-1
 5472 00f6 0100     		.2byte	0x1
 5473 00f8 50       		.byte	0x50
 5474 00f9 00000000 		.4byte	0
 5475 00fd 00000000 		.4byte	0
 5476              	.LLST6:
 5477 0101 22000000 		.4byte	.LVL16
 5478 0105 28000000 		.4byte	.LVL17
 5479 0109 0200     		.2byte	0x2
 5480 010b 30       		.byte	0x30
 5481 010c 9F       		.byte	0x9f
 5482 010d 28000000 		.4byte	.LVL17
 5483 0111 4E000000 		.4byte	.LVL22
 5484 0115 0100     		.2byte	0x1
 5485 0117 58       		.byte	0x58
 5486 0118 4E000000 		.4byte	.LVL22
 5487 011c 58000000 		.4byte	.LVL24
 5488 0120 0300     		.2byte	0x3
ARM GAS  /var/folders/z0/6xlwn_996xz3mwq1cgzkbq4r0000gp/T//ccjakVr1.s 			page 123


 5489 0122 78       		.byte	0x78
 5490 0123 01       		.sleb128 1
 5491 0124 9F       		.byte	0x9f
 5492 0125 5A000000 		.4byte	.LVL25
 5493 0129 86000000 		.4byte	.LVL31
 5494 012d 0100     		.2byte	0x1
 5495 012f 58       		.byte	0x58
 5496 0130 8C000000 		.4byte	.LVL33
 5497 0134 94000000 		.4byte	.LFE198
 5498 0138 0100     		.2byte	0x1
 5499 013a 58       		.byte	0x58
 5500 013b 00000000 		.4byte	0
 5501 013f 00000000 		.4byte	0
 5502              	.LLST7:
 5503 0143 28000000 		.4byte	.LVL17
 5504 0147 34000000 		.4byte	.LVL18
 5505 014b 0200     		.2byte	0x2
 5506 014d 31       		.byte	0x31
 5507 014e 9F       		.byte	0x9f
 5508 014f 34000000 		.4byte	.LVL18
 5509 0153 76000000 		.4byte	.LVL28
 5510 0157 0100     		.2byte	0x1
 5511 0159 55       		.byte	0x55
 5512 015a 76000000 		.4byte	.LVL28
 5513 015e 78000000 		.4byte	.LVL29
 5514 0162 0300     		.2byte	0x3
 5515 0164 75       		.byte	0x75
 5516 0165 01       		.sleb128 1
 5517 0166 9F       		.byte	0x9f
 5518 0167 8C000000 		.4byte	.LVL33
 5519 016b 94000000 		.4byte	.LFE198
 5520 016f 0100     		.2byte	0x1
 5521 0171 55       		.byte	0x55
 5522 0172 00000000 		.4byte	0
 5523 0176 00000000 		.4byte	0
 5524              	.LLST8:
 5525 017a 34000000 		.4byte	.LVL18
 5526 017e 38000000 		.4byte	.LVL19
 5527 0182 0200     		.2byte	0x2
 5528 0184 33       		.byte	0x33
 5529 0185 9F       		.byte	0x9f
 5530 0186 38000000 		.4byte	.LVL19
 5531 018a 50000000 		.4byte	.LVL23
 5532 018e 0100     		.2byte	0x1
 5533 0190 53       		.byte	0x53
 5534 0191 5A000000 		.4byte	.LVL25
 5535 0195 7C000000 		.4byte	.LVL30
 5536 0199 0100     		.2byte	0x1
 5537 019b 53       		.byte	0x53
 5538 019c 8C000000 		.4byte	.LVL33
 5539 01a0 94000000 		.4byte	.LFE198
 5540 01a4 0100     		.2byte	0x1
 5541 01a6 53       		.byte	0x53
 5542 01a7 00000000 		.4byte	0
 5543 01ab 00000000 		.4byte	0
 5544              	.LLST9:
 5545 01af 60000000 		.4byte	.LVL27
ARM GAS  /var/folders/z0/6xlwn_996xz3mwq1cgzkbq4r0000gp/T//ccjakVr1.s 			page 124


 5546 01b3 86000000 		.4byte	.LVL31
 5547 01b7 0100     		.2byte	0x1
 5548 01b9 50       		.byte	0x50
 5549 01ba 8C000000 		.4byte	.LVL33
 5550 01be 94000000 		.4byte	.LFE198
 5551 01c2 0100     		.2byte	0x1
 5552 01c4 50       		.byte	0x50
 5553 01c5 00000000 		.4byte	0
 5554 01c9 00000000 		.4byte	0
 5555              	.LLST10:
 5556 01cd 60000000 		.4byte	.LVL27
 5557 01d1 7C000000 		.4byte	.LVL30
 5558 01d5 0600     		.2byte	0x6
 5559 01d7 73       		.byte	0x73
 5560 01d8 00       		.sleb128 0
 5561 01d9 70       		.byte	0x70
 5562 01da 00       		.sleb128 0
 5563 01db 1C       		.byte	0x1c
 5564 01dc 9F       		.byte	0x9f
 5565 01dd 8C000000 		.4byte	.LVL33
 5566 01e1 94000000 		.4byte	.LFE198
 5567 01e5 0600     		.2byte	0x6
 5568 01e7 73       		.byte	0x73
 5569 01e8 00       		.sleb128 0
 5570 01e9 70       		.byte	0x70
 5571 01ea 00       		.sleb128 0
 5572 01eb 1C       		.byte	0x1c
 5573 01ec 9F       		.byte	0x9f
 5574 01ed 00000000 		.4byte	0
 5575 01f1 00000000 		.4byte	0
 5576              	.LLST11:
 5577 01f5 22000000 		.4byte	.LVL16
 5578 01f9 60000000 		.4byte	.LVL27
 5579 01fd 0100     		.2byte	0x1
 5580 01ff 50       		.byte	0x50
 5581 0200 00000000 		.4byte	0
 5582 0204 00000000 		.4byte	0
 5583              	.LLST12:
 5584 0208 60000000 		.4byte	.LVL27
 5585 020c 86000000 		.4byte	.LVL31
 5586 0210 1500     		.2byte	0x15
 5587 0212 70       		.byte	0x70
 5588 0213 00       		.sleb128 0
 5589 0214 12       		.byte	0x12
 5590 0215 40       		.byte	0x40
 5591 0216 4B       		.byte	0x4b
 5592 0217 24       		.byte	0x24
 5593 0218 22       		.byte	0x22
 5594 0219 33       		.byte	0x33
 5595 021a 16       		.byte	0x16
 5596 021b 14       		.byte	0x14
 5597 021c 40       		.byte	0x40
 5598 021d 4B       		.byte	0x4b
 5599 021e 24       		.byte	0x24
 5600 021f 22       		.byte	0x22
 5601 0220 2D       		.byte	0x2d
 5602 0221 28       		.byte	0x28
ARM GAS  /var/folders/z0/6xlwn_996xz3mwq1cgzkbq4r0000gp/T//ccjakVr1.s 			page 125


 5603 0222 0100     		.2byte	0x1
 5604 0224 16       		.byte	0x16
 5605 0225 13       		.byte	0x13
 5606 0226 9F       		.byte	0x9f
 5607 0227 8C000000 		.4byte	.LVL33
 5608 022b 94000000 		.4byte	.LFE198
 5609 022f 1500     		.2byte	0x15
 5610 0231 70       		.byte	0x70
 5611 0232 00       		.sleb128 0
 5612 0233 12       		.byte	0x12
 5613 0234 40       		.byte	0x40
 5614 0235 4B       		.byte	0x4b
 5615 0236 24       		.byte	0x24
 5616 0237 22       		.byte	0x22
 5617 0238 33       		.byte	0x33
 5618 0239 16       		.byte	0x16
 5619 023a 14       		.byte	0x14
 5620 023b 40       		.byte	0x40
 5621 023c 4B       		.byte	0x4b
 5622 023d 24       		.byte	0x24
 5623 023e 22       		.byte	0x22
 5624 023f 2D       		.byte	0x2d
 5625 0240 28       		.byte	0x28
 5626 0241 0100     		.2byte	0x1
 5627 0243 16       		.byte	0x16
 5628 0244 13       		.byte	0x13
 5629 0245 9F       		.byte	0x9f
 5630 0246 00000000 		.4byte	0
 5631 024a 00000000 		.4byte	0
 5632              	.LLST13:
 5633 024e 00000000 		.4byte	.LVL11
 5634 0252 18000000 		.4byte	.LVL14
 5635 0256 0200     		.2byte	0x2
 5636 0258 41       		.byte	0x41
 5637 0259 9F       		.byte	0x9f
 5638 025a 00000000 		.4byte	0
 5639 025e 00000000 		.4byte	0
 5640              	.LLST14:
 5641 0262 0A000000 		.4byte	.LVL34
 5642 0266 1C000000 		.4byte	.LVL36
 5643 026a 0200     		.2byte	0x2
 5644 026c 33       		.byte	0x33
 5645 026d 9F       		.byte	0x9f
 5646 026e 00000000 		.4byte	0
 5647 0272 00000000 		.4byte	0
 5648              	.LLST15:
 5649 0276 0A000000 		.4byte	.LVL34
 5650 027a 16000000 		.4byte	.LVL35
 5651 027e 0200     		.2byte	0x2
 5652 0280 33       		.byte	0x33
 5653 0281 9F       		.byte	0x9f
 5654 0282 00000000 		.4byte	0
 5655 0286 00000000 		.4byte	0
 5656              	.LLST16:
 5657 028a 16000000 		.4byte	.LVL35
 5658 028e 1C000000 		.4byte	.LVL36
 5659 0292 0200     		.2byte	0x2
ARM GAS  /var/folders/z0/6xlwn_996xz3mwq1cgzkbq4r0000gp/T//ccjakVr1.s 			page 126


 5660 0294 33       		.byte	0x33
 5661 0295 9F       		.byte	0x9f
 5662 0296 00000000 		.4byte	0
 5663 029a 00000000 		.4byte	0
 5664              	.LLST17:
 5665 029e 00000000 		.4byte	.LVL37
 5666 02a2 04000000 		.4byte	.LVL38
 5667 02a6 0100     		.2byte	0x1
 5668 02a8 50       		.byte	0x50
 5669 02a9 04000000 		.4byte	.LVL38
 5670 02ad 4C000000 		.4byte	.LFE203
 5671 02b1 0100     		.2byte	0x1
 5672 02b3 52       		.byte	0x52
 5673 02b4 00000000 		.4byte	0
 5674 02b8 00000000 		.4byte	0
 5675              	.LLST18:
 5676 02bc 14000000 		.4byte	.LVL39
 5677 02c0 28000000 		.4byte	.LVL40
 5678 02c4 0100     		.2byte	0x1
 5679 02c6 52       		.byte	0x52
 5680 02c7 42000000 		.4byte	.LVL41
 5681 02cb 4C000000 		.4byte	.LFE203
 5682 02cf 0100     		.2byte	0x1
 5683 02d1 52       		.byte	0x52
 5684 02d2 00000000 		.4byte	0
 5685 02d6 00000000 		.4byte	0
 5686              	.LLST19:
 5687 02da 00000000 		.4byte	.LVL43
 5688 02de 16000000 		.4byte	.LVL44
 5689 02e2 0100     		.2byte	0x1
 5690 02e4 50       		.byte	0x50
 5691 02e5 16000000 		.4byte	.LVL44
 5692 02e9 17000000 		.4byte	.LVL45-1
 5693 02ed 0500     		.2byte	0x5
 5694 02ef 03       		.byte	0x3
 5695 02f0 04000000 		.4byte	msg_obj+4
 5696 02f4 17000000 		.4byte	.LVL45-1
 5697 02f8 40000000 		.4byte	.LFE209
 5698 02fc 0400     		.2byte	0x4
 5699 02fe F3       		.byte	0xf3
 5700 02ff 01       		.uleb128 0x1
 5701 0300 50       		.byte	0x50
 5702 0301 9F       		.byte	0x9f
 5703 0302 00000000 		.4byte	0
 5704 0306 00000000 		.4byte	0
 5705              	.LLST20:
 5706 030a 00000000 		.4byte	.LVL43
 5707 030e 17000000 		.4byte	.LVL45-1
 5708 0312 0100     		.2byte	0x1
 5709 0314 51       		.byte	0x51
 5710 0315 17000000 		.4byte	.LVL45-1
 5711 0319 40000000 		.4byte	.LFE209
 5712 031d 0400     		.2byte	0x4
 5713 031f F3       		.byte	0xf3
 5714 0320 01       		.uleb128 0x1
 5715 0321 51       		.byte	0x51
 5716 0322 9F       		.byte	0x9f
ARM GAS  /var/folders/z0/6xlwn_996xz3mwq1cgzkbq4r0000gp/T//ccjakVr1.s 			page 127


 5717 0323 00000000 		.4byte	0
 5718 0327 00000000 		.4byte	0
 5719              	.LLST21:
 5720 032b 00000000 		.4byte	.LVL48
 5721 032f 16000000 		.4byte	.LVL49
 5722 0333 0100     		.2byte	0x1
 5723 0335 50       		.byte	0x50
 5724 0336 16000000 		.4byte	.LVL49
 5725 033a 17000000 		.4byte	.LVL50-1
 5726 033e 0500     		.2byte	0x5
 5727 0340 03       		.byte	0x3
 5728 0341 04000000 		.4byte	msg_obj+4
 5729 0345 17000000 		.4byte	.LVL50-1
 5730 0349 30000000 		.4byte	.LFE210
 5731 034d 0400     		.2byte	0x4
 5732 034f F3       		.byte	0xf3
 5733 0350 01       		.uleb128 0x1
 5734 0351 50       		.byte	0x50
 5735 0352 9F       		.byte	0x9f
 5736 0353 00000000 		.4byte	0
 5737 0357 00000000 		.4byte	0
 5738              	.LLST22:
 5739 035b 00000000 		.4byte	.LVL48
 5740 035f 17000000 		.4byte	.LVL50-1
 5741 0363 0100     		.2byte	0x1
 5742 0365 51       		.byte	0x51
 5743 0366 17000000 		.4byte	.LVL50-1
 5744 036a 30000000 		.4byte	.LFE210
 5745 036e 0400     		.2byte	0x4
 5746 0370 F3       		.byte	0xf3
 5747 0371 01       		.uleb128 0x1
 5748 0372 51       		.byte	0x51
 5749 0373 9F       		.byte	0x9f
 5750 0374 00000000 		.4byte	0
 5751 0378 00000000 		.4byte	0
 5752              	.LLST23:
 5753 037c 00000000 		.4byte	.LVL52
 5754 0380 12000000 		.4byte	.LVL53
 5755 0384 0100     		.2byte	0x1
 5756 0386 50       		.byte	0x50
 5757 0387 12000000 		.4byte	.LVL53
 5758 038b 42000000 		.4byte	.LVL56
 5759 038f 0100     		.2byte	0x1
 5760 0391 56       		.byte	0x56
 5761 0392 42000000 		.4byte	.LVL56
 5762 0396 47000000 		.4byte	.LVL57-1
 5763 039a 0100     		.2byte	0x1
 5764 039c 50       		.byte	0x50
 5765 039d 47000000 		.4byte	.LVL57-1
 5766 03a1 B0000000 		.4byte	.LFE208
 5767 03a5 0400     		.2byte	0x4
 5768 03a7 F3       		.byte	0xf3
 5769 03a8 01       		.uleb128 0x1
 5770 03a9 50       		.byte	0x50
 5771 03aa 9F       		.byte	0x9f
 5772 03ab 00000000 		.4byte	0
 5773 03af 00000000 		.4byte	0
ARM GAS  /var/folders/z0/6xlwn_996xz3mwq1cgzkbq4r0000gp/T//ccjakVr1.s 			page 128


 5774              	.LLST24:
 5775 03b3 16000000 		.4byte	.LVL54
 5776 03b7 28000000 		.4byte	.LVL55
 5777 03bb 0600     		.2byte	0x6
 5778 03bd 03       		.byte	0x3
 5779 03be 00000000 		.4byte	rx_buffer
 5780 03c2 9F       		.byte	0x9f
 5781 03c3 28000000 		.4byte	.LVL55
 5782 03c7 B0000000 		.4byte	.LFE208
 5783 03cb 0600     		.2byte	0x6
 5784 03cd 03       		.byte	0x3
 5785 03ce 00000000 		.4byte	tx_buffer
 5786 03d2 9F       		.byte	0x9f
 5787 03d3 00000000 		.4byte	0
 5788 03d7 00000000 		.4byte	0
 5789              	.LLST26:
 5790 03db 5E000000 		.4byte	.LVL59
 5791 03df 66000000 		.4byte	.LVL60
 5792 03e3 0200     		.2byte	0x2
 5793 03e5 3D       		.byte	0x3d
 5794 03e6 9F       		.byte	0x9f
 5795 03e7 00000000 		.4byte	0
 5796 03eb 00000000 		.4byte	0
 5797              	.LLST27:
 5798 03ef 00000000 		.4byte	.LVL63
 5799 03f3 12000000 		.4byte	.LVL64
 5800 03f7 0100     		.2byte	0x1
 5801 03f9 50       		.byte	0x50
 5802 03fa 12000000 		.4byte	.LVL64
 5803 03fe 18000000 		.4byte	.LVL66
 5804 0402 0400     		.2byte	0x4
 5805 0404 F3       		.byte	0xf3
 5806 0405 01       		.uleb128 0x1
 5807 0406 50       		.byte	0x50
 5808 0407 9F       		.byte	0x9f
 5809 0408 18000000 		.4byte	.LVL66
 5810 040c 1C000000 		.4byte	.LVL67
 5811 0410 0100     		.2byte	0x1
 5812 0412 50       		.byte	0x50
 5813 0413 1C000000 		.4byte	.LVL67
 5814 0417 1F000000 		.4byte	.LVL68-1
 5815 041b 0100     		.2byte	0x1
 5816 041d 51       		.byte	0x51
 5817 041e 1F000000 		.4byte	.LVL68-1
 5818 0422 34000000 		.4byte	.LFE211
 5819 0426 0400     		.2byte	0x4
 5820 0428 F3       		.byte	0xf3
 5821 0429 01       		.uleb128 0x1
 5822 042a 50       		.byte	0x50
 5823 042b 9F       		.byte	0x9f
 5824 042c 00000000 		.4byte	0
 5825 0430 00000000 		.4byte	0
 5826              	.LLST28:
 5827 0434 00000000 		.4byte	.LVL69
 5828 0438 1C000000 		.4byte	.LVL73
 5829 043c 0100     		.2byte	0x1
 5830 043e 50       		.byte	0x50
ARM GAS  /var/folders/z0/6xlwn_996xz3mwq1cgzkbq4r0000gp/T//ccjakVr1.s 			page 129


 5831 043f 1C000000 		.4byte	.LVL73
 5832 0443 1F000000 		.4byte	.LVL74-1
 5833 0447 0100     		.2byte	0x1
 5834 0449 51       		.byte	0x51
 5835 044a 1F000000 		.4byte	.LVL74-1
 5836 044e 2E000000 		.4byte	.LVL76
 5837 0452 0400     		.2byte	0x4
 5838 0454 F3       		.byte	0xf3
 5839 0455 01       		.uleb128 0x1
 5840 0456 50       		.byte	0x50
 5841 0457 9F       		.byte	0x9f
 5842 0458 2E000000 		.4byte	.LVL76
 5843 045c 36000000 		.4byte	.LVL77
 5844 0460 0100     		.2byte	0x1
 5845 0462 50       		.byte	0x50
 5846 0463 36000000 		.4byte	.LVL77
 5847 0467 3C000000 		.4byte	.LVL79
 5848 046b 0400     		.2byte	0x4
 5849 046d F3       		.byte	0xf3
 5850 046e 01       		.uleb128 0x1
 5851 046f 50       		.byte	0x50
 5852 0470 9F       		.byte	0x9f
 5853 0471 3C000000 		.4byte	.LVL79
 5854 0475 4B000000 		.4byte	.LVL81-1
 5855 0479 0100     		.2byte	0x1
 5856 047b 50       		.byte	0x50
 5857 047c 4B000000 		.4byte	.LVL81-1
 5858 0480 54000000 		.4byte	.LVL83
 5859 0484 0400     		.2byte	0x4
 5860 0486 F3       		.byte	0xf3
 5861 0487 01       		.uleb128 0x1
 5862 0488 50       		.byte	0x50
 5863 0489 9F       		.byte	0x9f
 5864 048a 54000000 		.4byte	.LVL83
 5865 048e 70000000 		.4byte	.LFE213
 5866 0492 0100     		.2byte	0x1
 5867 0494 50       		.byte	0x50
 5868 0495 00000000 		.4byte	0
 5869 0499 00000000 		.4byte	0
 5870              	.LLST29:
 5871 049d 0A000000 		.4byte	.LVL70
 5872 04a1 12000000 		.4byte	.LVL71
 5873 04a5 0200     		.2byte	0x2
 5874 04a7 31       		.byte	0x31
 5875 04a8 9F       		.byte	0x9f
 5876 04a9 12000000 		.4byte	.LVL71
 5877 04ad 18000000 		.4byte	.LVL72
 5878 04b1 0200     		.2byte	0x2
 5879 04b3 32       		.byte	0x32
 5880 04b4 9F       		.byte	0x9f
 5881 04b5 18000000 		.4byte	.LVL72
 5882 04b9 2C000000 		.4byte	.LVL75
 5883 04bd 0200     		.2byte	0x2
 5884 04bf 33       		.byte	0x33
 5885 04c0 9F       		.byte	0x9f
 5886 04c1 3C000000 		.4byte	.LVL79
 5887 04c5 40000000 		.4byte	.LVL80
ARM GAS  /var/folders/z0/6xlwn_996xz3mwq1cgzkbq4r0000gp/T//ccjakVr1.s 			page 130


 5888 04c9 0200     		.2byte	0x2
 5889 04cb 31       		.byte	0x31
 5890 04cc 9F       		.byte	0x9f
 5891 04cd 54000000 		.4byte	.LVL83
 5892 04d1 70000000 		.4byte	.LFE213
 5893 04d5 0200     		.2byte	0x2
 5894 04d7 32       		.byte	0x32
 5895 04d8 9F       		.byte	0x9f
 5896 04d9 00000000 		.4byte	0
 5897 04dd 00000000 		.4byte	0
 5898              	.LLST30:
 5899 04e1 18000000 		.4byte	.LVL72
 5900 04e5 2C000000 		.4byte	.LVL75
 5901 04e9 0200     		.2byte	0x2
 5902 04eb 30       		.byte	0x30
 5903 04ec 9F       		.byte	0x9f
 5904 04ed 52000000 		.4byte	.LVL82
 5905 04f1 54000000 		.4byte	.LVL83
 5906 04f5 0200     		.2byte	0x2
 5907 04f7 31       		.byte	0x31
 5908 04f8 9F       		.byte	0x9f
 5909 04f9 00000000 		.4byte	0
 5910 04fd 00000000 		.4byte	0
 5911              	.LLST31:
 5912 0501 18000000 		.4byte	.LVL72
 5913 0505 1C000000 		.4byte	.LVL73
 5914 0509 0100     		.2byte	0x1
 5915 050b 50       		.byte	0x50
 5916 050c 1C000000 		.4byte	.LVL73
 5917 0510 1F000000 		.4byte	.LVL74-1
 5918 0514 0100     		.2byte	0x1
 5919 0516 51       		.byte	0x51
 5920 0517 1F000000 		.4byte	.LVL74-1
 5921 051b 2C000000 		.4byte	.LVL75
 5922 051f 0400     		.2byte	0x4
 5923 0521 F3       		.byte	0xf3
 5924 0522 01       		.uleb128 0x1
 5925 0523 50       		.byte	0x50
 5926 0524 9F       		.byte	0x9f
 5927 0525 00000000 		.4byte	0
 5928 0529 00000000 		.4byte	0
 5929              	.LLST32:
 5930 052d 00000000 		.4byte	.LVL84
 5931 0531 04000000 		.4byte	.LVL85
 5932 0535 0100     		.2byte	0x1
 5933 0537 50       		.byte	0x50
 5934 0538 04000000 		.4byte	.LVL85
 5935 053c 0C000000 		.4byte	.LVL87
 5936 0540 0100     		.2byte	0x1
 5937 0542 53       		.byte	0x53
 5938 0543 0C000000 		.4byte	.LVL87
 5939 0547 10000000 		.4byte	.LVL88
 5940 054b 0500     		.2byte	0x5
 5941 054d 03       		.byte	0x3
 5942 054e 00000000 		.4byte	tmp_msg_obj
 5943 0552 10000000 		.4byte	.LVL88
 5944 0556 28000000 		.4byte	.LFE212
ARM GAS  /var/folders/z0/6xlwn_996xz3mwq1cgzkbq4r0000gp/T//ccjakVr1.s 			page 131


 5945 055a 0400     		.2byte	0x4
 5946 055c F3       		.byte	0xf3
 5947 055d 01       		.uleb128 0x1
 5948 055e 50       		.byte	0x50
 5949 055f 9F       		.byte	0x9f
 5950 0560 00000000 		.4byte	0
 5951 0564 00000000 		.4byte	0
 5952              	.LLST33:
 5953 0568 00000000 		.4byte	.LVL84
 5954 056c 21000000 		.4byte	.LVL90-1
 5955 0570 0100     		.2byte	0x1
 5956 0572 51       		.byte	0x51
 5957 0573 21000000 		.4byte	.LVL90-1
 5958 0577 28000000 		.4byte	.LFE212
 5959 057b 0400     		.2byte	0x4
 5960 057d F3       		.byte	0xf3
 5961 057e 01       		.uleb128 0x1
 5962 057f 51       		.byte	0x51
 5963 0580 9F       		.byte	0x9f
 5964 0581 00000000 		.4byte	0
 5965 0585 00000000 		.4byte	0
 5966              	.LLST34:
 5967 0589 00000000 		.4byte	.LVL84
 5968 058d 21000000 		.4byte	.LVL90-1
 5969 0591 0100     		.2byte	0x1
 5970 0593 52       		.byte	0x52
 5971 0594 21000000 		.4byte	.LVL90-1
 5972 0598 28000000 		.4byte	.LFE212
 5973 059c 0400     		.2byte	0x4
 5974 059e F3       		.byte	0xf3
 5975 059f 01       		.uleb128 0x1
 5976 05a0 52       		.byte	0x52
 5977 05a1 9F       		.byte	0x9f
 5978 05a2 00000000 		.4byte	0
 5979 05a6 00000000 		.4byte	0
 5980              	.LLST35:
 5981 05aa 0A000000 		.4byte	.LVL86
 5982 05ae 10000000 		.4byte	.LVL88
 5983 05b2 0200     		.2byte	0x2
 5984 05b4 30       		.byte	0x30
 5985 05b5 9F       		.byte	0x9f
 5986 05b6 10000000 		.4byte	.LVL88
 5987 05ba 16000000 		.4byte	.LVL89
 5988 05be 0100     		.2byte	0x1
 5989 05c0 53       		.byte	0x53
 5990 05c1 00000000 		.4byte	0
 5991 05c5 00000000 		.4byte	0
 5992              		.section	.debug_aranges,"",%progbits
 5993 0000 9C000000 		.4byte	0x9c
 5994 0004 0200     		.2byte	0x2
 5995 0006 00000000 		.4byte	.Ldebug_info0
 5996 000a 04       		.byte	0x4
 5997 000b 00       		.byte	0
 5998 000c 0000     		.2byte	0
 5999 000e 0000     		.2byte	0
 6000 0010 00000000 		.4byte	.LFB206
 6001 0014 14000000 		.4byte	.LFE206-.LFB206
ARM GAS  /var/folders/z0/6xlwn_996xz3mwq1cgzkbq4r0000gp/T//ccjakVr1.s 			page 132


 6002 0018 00000000 		.4byte	.LFB204
 6003 001c 44000000 		.4byte	.LFE204-.LFB204
 6004 0020 00000000 		.4byte	.LFB205
 6005 0024 58000000 		.4byte	.LFE205-.LFB205
 6006 0028 00000000 		.4byte	.LFB198
 6007 002c 94000000 		.4byte	.LFE198-.LFB198
 6008 0030 00000000 		.4byte	.LFB199
 6009 0034 0C000000 		.4byte	.LFE199-.LFB199
 6010 0038 00000000 		.4byte	.LFB200
 6011 003c 10000000 		.4byte	.LFE200-.LFB200
 6012 0040 00000000 		.4byte	.LFB201
 6013 0044 14000000 		.4byte	.LFE201-.LFB201
 6014 0048 00000000 		.4byte	.LFB202
 6015 004c 28000000 		.4byte	.LFE202-.LFB202
 6016 0050 00000000 		.4byte	.LFB203
 6017 0054 4C000000 		.4byte	.LFE203-.LFB203
 6018 0058 00000000 		.4byte	.LFB207
 6019 005c 14000000 		.4byte	.LFE207-.LFB207
 6020 0060 00000000 		.4byte	.LFB209
 6021 0064 40000000 		.4byte	.LFE209-.LFB209
 6022 0068 00000000 		.4byte	.LFB210
 6023 006c 30000000 		.4byte	.LFE210-.LFB210
 6024 0070 00000000 		.4byte	.LFB208
 6025 0074 B0000000 		.4byte	.LFE208-.LFB208
 6026 0078 00000000 		.4byte	.LFB211
 6027 007c 34000000 		.4byte	.LFE211-.LFB211
 6028 0080 00000000 		.4byte	.LFB213
 6029 0084 70000000 		.4byte	.LFE213-.LFB213
 6030 0088 00000000 		.4byte	.LFB212
 6031 008c 28000000 		.4byte	.LFE212-.LFB212
 6032 0090 00000000 		.4byte	.LFB214
 6033 0094 10000000 		.4byte	.LFE214-.LFB214
 6034 0098 00000000 		.4byte	0
 6035 009c 00000000 		.4byte	0
 6036              		.section	.debug_ranges,"",%progbits
 6037              	.Ldebug_ranges0:
 6038 0000 00000000 		.4byte	.LBB25
 6039 0004 02000000 		.4byte	.LBE25
 6040 0008 06000000 		.4byte	.LBB30
 6041 000c 08000000 		.4byte	.LBE30
 6042 0010 0C000000 		.4byte	.LBB31
 6043 0014 12000000 		.4byte	.LBE31
 6044 0018 14000000 		.4byte	.LBB32
 6045 001c 18000000 		.4byte	.LBE32
 6046 0020 00000000 		.4byte	0
 6047 0024 00000000 		.4byte	0
 6048 0028 0A000000 		.4byte	.LBB33
 6049 002c 0E000000 		.4byte	.LBE33
 6050 0030 10000000 		.4byte	.LBB40
 6051 0034 1C000000 		.4byte	.LBE40
 6052 0038 00000000 		.4byte	0
 6053 003c 00000000 		.4byte	0
 6054 0040 0A000000 		.4byte	.LBB34
 6055 0044 0E000000 		.4byte	.LBE34
 6056 0048 10000000 		.4byte	.LBB37
 6057 004c 16000000 		.4byte	.LBE37
 6058 0050 00000000 		.4byte	0
ARM GAS  /var/folders/z0/6xlwn_996xz3mwq1cgzkbq4r0000gp/T//ccjakVr1.s 			page 133


 6059 0054 00000000 		.4byte	0
 6060 0058 14000000 		.4byte	.LBB43
 6061 005c 28000000 		.4byte	.LBE43
 6062 0060 42000000 		.4byte	.LBB46
 6063 0064 4C000000 		.4byte	.LBE46
 6064 0068 00000000 		.4byte	0
 6065 006c 00000000 		.4byte	0
 6066 0070 02000000 		.4byte	.LBB47
 6067 0074 04000000 		.4byte	.LBE47
 6068 0078 16000000 		.4byte	.LBB50
 6069 007c 1A000000 		.4byte	.LBE50
 6070 0080 00000000 		.4byte	0
 6071 0084 00000000 		.4byte	0
 6072 0088 0A000000 		.4byte	.LBB59
 6073 008c 18000000 		.4byte	.LBE59
 6074 0090 3C000000 		.4byte	.LBB62
 6075 0094 70000000 		.4byte	.LBE62
 6076 0098 00000000 		.4byte	0
 6077 009c 00000000 		.4byte	0
 6078 00a0 00000000 		.4byte	.LFB206
 6079 00a4 14000000 		.4byte	.LFE206
 6080 00a8 00000000 		.4byte	.LFB204
 6081 00ac 44000000 		.4byte	.LFE204
 6082 00b0 00000000 		.4byte	.LFB205
 6083 00b4 58000000 		.4byte	.LFE205
 6084 00b8 00000000 		.4byte	.LFB198
 6085 00bc 94000000 		.4byte	.LFE198
 6086 00c0 00000000 		.4byte	.LFB199
 6087 00c4 0C000000 		.4byte	.LFE199
 6088 00c8 00000000 		.4byte	.LFB200
 6089 00cc 10000000 		.4byte	.LFE200
 6090 00d0 00000000 		.4byte	.LFB201
 6091 00d4 14000000 		.4byte	.LFE201
 6092 00d8 00000000 		.4byte	.LFB202
 6093 00dc 28000000 		.4byte	.LFE202
 6094 00e0 00000000 		.4byte	.LFB203
 6095 00e4 4C000000 		.4byte	.LFE203
 6096 00e8 00000000 		.4byte	.LFB207
 6097 00ec 14000000 		.4byte	.LFE207
 6098 00f0 00000000 		.4byte	.LFB209
 6099 00f4 40000000 		.4byte	.LFE209
 6100 00f8 00000000 		.4byte	.LFB210
 6101 00fc 30000000 		.4byte	.LFE210
 6102 0100 00000000 		.4byte	.LFB208
 6103 0104 B0000000 		.4byte	.LFE208
 6104 0108 00000000 		.4byte	.LFB211
 6105 010c 34000000 		.4byte	.LFE211
 6106 0110 00000000 		.4byte	.LFB213
 6107 0114 70000000 		.4byte	.LFE213
 6108 0118 00000000 		.4byte	.LFB212
 6109 011c 28000000 		.4byte	.LFE212
 6110 0120 00000000 		.4byte	.LFB214
 6111 0124 10000000 		.4byte	.LFE214
 6112 0128 00000000 		.4byte	0
 6113 012c 00000000 		.4byte	0
 6114              		.section	.debug_macro,"",%progbits
 6115              	.Ldebug_macro0:
ARM GAS  /var/folders/z0/6xlwn_996xz3mwq1cgzkbq4r0000gp/T//ccjakVr1.s 			page 134


 6116 0000 0400     		.2byte	0x4
 6117 0002 02       		.byte	0x2
 6118 0003 00000000 		.4byte	.Ldebug_line0
 6119 0007 07       		.byte	0x7
 6120 0008 00000000 		.4byte	.Ldebug_macro1
 6121 000c 03       		.byte	0x3
 6122 000d 00       		.uleb128 0
 6123 000e 01       		.uleb128 0x1
 6124 000f 03       		.byte	0x3
 6125 0010 02       		.uleb128 0x2
 6126 0011 0E       		.uleb128 0xe
 6127 0012 05       		.byte	0x5
 6128 0013 1E       		.uleb128 0x1e
 6129 0014 FA540000 		.4byte	.LASF347
 6130 0018 03       		.byte	0x3
 6131 0019 20       		.uleb128 0x20
 6132 001a 0A       		.uleb128 0xa
 6133 001b 05       		.byte	0x5
 6134 001c 21       		.uleb128 0x21
 6135 001d 7C690000 		.4byte	.LASF348
 6136              		.file 15 "/usr/local/Cellar/gcc-arm-none-eabi/20160928/lib/gcc/arm-none-eabi/5.4.1/include/stdint.
 6137 0021 03       		.byte	0x3
 6138 0022 23       		.uleb128 0x23
 6139 0023 0F       		.uleb128 0xf
 6140              		.file 16 "/usr/local/Cellar/gcc-arm-none-eabi/20160928/arm-none-eabi/include/stdint.h"
 6141 0024 03       		.byte	0x3
 6142 0025 09       		.uleb128 0x9
 6143 0026 10       		.uleb128 0x10
 6144 0027 05       		.byte	0x5
 6145 0028 0A       		.uleb128 0xa
 6146 0029 62890000 		.4byte	.LASF349
 6147 002d 03       		.byte	0x3
 6148 002e 0C       		.uleb128 0xc
 6149 002f 06       		.uleb128 0x6
 6150 0030 05       		.byte	0x5
 6151 0031 06       		.uleb128 0x6
 6152 0032 85810000 		.4byte	.LASF350
 6153              		.file 17 "/usr/local/Cellar/gcc-arm-none-eabi/20160928/arm-none-eabi/include/sys/features.h"
 6154 0036 03       		.byte	0x3
 6155 0037 08       		.uleb128 0x8
 6156 0038 11       		.uleb128 0x11
 6157 0039 05       		.byte	0x5
 6158 003a 16       		.uleb128 0x16
 6159 003b 2B8D0000 		.4byte	.LASF351
 6160              		.file 18 "/usr/local/Cellar/gcc-arm-none-eabi/20160928/arm-none-eabi/include/_newlib_version.h"
 6161 003f 03       		.byte	0x3
 6162 0040 1C       		.uleb128 0x1c
 6163 0041 12       		.uleb128 0x12
 6164 0042 07       		.byte	0x7
 6165 0043 00000000 		.4byte	.Ldebug_macro2
 6166 0047 04       		.byte	0x4
 6167 0048 07       		.byte	0x7
 6168 0049 00000000 		.4byte	.Ldebug_macro3
 6169 004d 04       		.byte	0x4
 6170 004e 07       		.byte	0x7
 6171 004f 00000000 		.4byte	.Ldebug_macro4
 6172 0053 04       		.byte	0x4
ARM GAS  /var/folders/z0/6xlwn_996xz3mwq1cgzkbq4r0000gp/T//ccjakVr1.s 			page 135


 6173              		.file 19 "/usr/local/Cellar/gcc-arm-none-eabi/20160928/arm-none-eabi/include/sys/_intsup.h"
 6174 0054 03       		.byte	0x3
 6175 0055 0D       		.uleb128 0xd
 6176 0056 13       		.uleb128 0x13
 6177 0057 07       		.byte	0x7
 6178 0058 00000000 		.4byte	.Ldebug_macro5
 6179 005c 04       		.byte	0x4
 6180 005d 03       		.byte	0x3
 6181 005e 0E       		.uleb128 0xe
 6182 005f 07       		.uleb128 0x7
 6183 0060 07       		.byte	0x7
 6184 0061 00000000 		.4byte	.Ldebug_macro6
 6185 0065 04       		.byte	0x4
 6186 0066 07       		.byte	0x7
 6187 0067 00000000 		.4byte	.Ldebug_macro7
 6188 006b 04       		.byte	0x4
 6189 006c 05       		.byte	0x5
 6190 006d 0D       		.uleb128 0xd
 6191 006e 2BAA0000 		.4byte	.LASF501
 6192 0072 04       		.byte	0x4
 6193              		.file 20 "/usr/local/Cellar/gcc-arm-none-eabi/20160928/lib/gcc/arm-none-eabi/5.4.1/include/stdbool
 6194 0073 03       		.byte	0x3
 6195 0074 24       		.uleb128 0x24
 6196 0075 14       		.uleb128 0x14
 6197 0076 07       		.byte	0x7
 6198 0077 00000000 		.4byte	.Ldebug_macro8
 6199 007b 04       		.byte	0x4
 6200 007c 07       		.byte	0x7
 6201 007d 00000000 		.4byte	.Ldebug_macro9
 6202 0081 04       		.byte	0x4
 6203              		.file 21 "../../lib/lpc11cx4-library/lpc_chip_11cxx_lib/inc/sys_config.h"
 6204 0082 03       		.byte	0x3
 6205 0083 21       		.uleb128 0x21
 6206 0084 15       		.uleb128 0x15
 6207 0085 07       		.byte	0x7
 6208 0086 00000000 		.4byte	.Ldebug_macro10
 6209 008a 04       		.byte	0x4
 6210 008b 03       		.byte	0x3
 6211 008c 22       		.uleb128 0x22
 6212 008d 09       		.uleb128 0x9
 6213 008e 05       		.byte	0x5
 6214 008f 1E       		.uleb128 0x1e
 6215 0090 9F910000 		.4byte	.LASF525
 6216 0094 03       		.byte	0x3
 6217 0095 2E       		.uleb128 0x2e
 6218 0096 08       		.uleb128 0x8
 6219 0097 07       		.byte	0x7
 6220 0098 00000000 		.4byte	.Ldebug_macro11
 6221 009c 04       		.byte	0x4
 6222 009d 03       		.byte	0x3
 6223 009e 3E       		.uleb128 0x3e
 6224 009f 05       		.uleb128 0x5
 6225 00a0 07       		.byte	0x7
 6226 00a1 00000000 		.4byte	.Ldebug_macro12
 6227              		.file 22 "../../lib/lpc11cx4-library/lpc_chip_11cxx_lib/inc/core_cmInstr.h"
 6228 00a5 03       		.byte	0x3
 6229 00a6 70       		.uleb128 0x70
ARM GAS  /var/folders/z0/6xlwn_996xz3mwq1cgzkbq4r0000gp/T//ccjakVr1.s 			page 136


 6230 00a7 16       		.uleb128 0x16
 6231 00a8 05       		.byte	0x5
 6232 00a9 19       		.uleb128 0x19
 6233 00aa F4AD0000 		.4byte	.LASF539
 6234 00ae 04       		.byte	0x4
 6235              		.file 23 "../../lib/lpc11cx4-library/lpc_chip_11cxx_lib/inc/core_cmFunc.h"
 6236 00af 03       		.byte	0x3
 6237 00b0 71       		.uleb128 0x71
 6238 00b1 17       		.uleb128 0x17
 6239 00b2 05       		.byte	0x5
 6240 00b3 19       		.uleb128 0x19
 6241 00b4 6E080000 		.4byte	.LASF540
 6242 00b8 04       		.byte	0x4
 6243 00b9 07       		.byte	0x7
 6244 00ba 00000000 		.4byte	.Ldebug_macro13
 6245 00be 04       		.byte	0x4
 6246 00bf 04       		.byte	0x4
 6247 00c0 07       		.byte	0x7
 6248 00c1 00000000 		.4byte	.Ldebug_macro14
 6249              		.file 24 "../../lib/lpc11cx4-library/lpc_chip_11cxx_lib/inc/pmu_11xx.h"
 6250 00c5 03       		.byte	0x3
 6251 00c6 E901     		.uleb128 0xe9
 6252 00c8 18       		.uleb128 0x18
 6253 00c9 07       		.byte	0x7
 6254 00ca 00000000 		.4byte	.Ldebug_macro15
 6255 00ce 04       		.byte	0x4
 6256              		.file 25 "../../lib/lpc11cx4-library/lpc_chip_11cxx_lib/inc/fmc_11xx.h"
 6257 00cf 03       		.byte	0x3
 6258 00d0 EA01     		.uleb128 0xea
 6259 00d2 19       		.uleb128 0x19
 6260 00d3 05       		.byte	0x5
 6261 00d4 21       		.uleb128 0x21
 6262 00d5 2B280000 		.4byte	.LASF670
 6263 00d9 04       		.byte	0x4
 6264 00da 03       		.byte	0x3
 6265 00db EB01     		.uleb128 0xeb
 6266 00dd 03       		.uleb128 0x3
 6267 00de 07       		.byte	0x7
 6268 00df 00000000 		.4byte	.Ldebug_macro16
 6269 00e3 04       		.byte	0x4
 6270 00e4 03       		.byte	0x3
 6271 00e5 EC01     		.uleb128 0xec
 6272 00e7 02       		.uleb128 0x2
 6273 00e8 07       		.byte	0x7
 6274 00e9 00000000 		.4byte	.Ldebug_macro17
 6275 00ed 04       		.byte	0x4
 6276              		.file 26 "../../lib/lpc11cx4-library/lpc_chip_11cxx_lib/inc/iocon_11xx.h"
 6277 00ee 03       		.byte	0x3
 6278 00ef ED01     		.uleb128 0xed
 6279 00f1 1A       		.uleb128 0x1a
 6280 00f2 07       		.byte	0x7
 6281 00f3 00000000 		.4byte	.Ldebug_macro18
 6282 00f7 04       		.byte	0x4
 6283              		.file 27 "../../lib/lpc11cx4-library/lpc_chip_11cxx_lib/inc/timer_11xx.h"
 6284 00f8 03       		.byte	0x3
 6285 00f9 EE01     		.uleb128 0xee
 6286 00fb 1B       		.uleb128 0x1b
ARM GAS  /var/folders/z0/6xlwn_996xz3mwq1cgzkbq4r0000gp/T//ccjakVr1.s 			page 137


 6287 00fc 07       		.byte	0x7
 6288 00fd 00000000 		.4byte	.Ldebug_macro19
 6289 0101 04       		.byte	0x4
 6290              		.file 28 "../../lib/lpc11cx4-library/lpc_chip_11cxx_lib/inc/uart_11xx.h"
 6291 0102 03       		.byte	0x3
 6292 0103 EF01     		.uleb128 0xef
 6293 0105 1C       		.uleb128 0x1c
 6294 0106 05       		.byte	0x5
 6295 0107 21       		.uleb128 0x21
 6296 0108 F83A0000 		.4byte	.LASF754
 6297 010c 03       		.byte	0x3
 6298 010d 23       		.uleb128 0x23
 6299 010e 04       		.uleb128 0x4
 6300 010f 07       		.byte	0x7
 6301 0110 00000000 		.4byte	.Ldebug_macro20
 6302 0114 04       		.byte	0x4
 6303 0115 07       		.byte	0x7
 6304 0116 00000000 		.4byte	.Ldebug_macro21
 6305 011a 04       		.byte	0x4
 6306              		.file 29 "../../lib/lpc11cx4-library/lpc_chip_11cxx_lib/inc/wwdt_11xx.h"
 6307 011b 03       		.byte	0x3
 6308 011c F001     		.uleb128 0xf0
 6309 011e 1D       		.uleb128 0x1d
 6310 011f 07       		.byte	0x7
 6311 0120 00000000 		.4byte	.Ldebug_macro22
 6312 0124 04       		.byte	0x4
 6313              		.file 30 "../../lib/lpc11cx4-library/lpc_chip_11cxx_lib/inc/ssp_11xx.h"
 6314 0125 03       		.byte	0x3
 6315 0126 F101     		.uleb128 0xf1
 6316 0128 1E       		.uleb128 0x1e
 6317 0129 07       		.byte	0x7
 6318 012a 00000000 		.4byte	.Ldebug_macro23
 6319 012e 04       		.byte	0x4
 6320 012f 03       		.byte	0x3
 6321 0130 F201     		.uleb128 0xf2
 6322 0132 0B       		.uleb128 0xb
 6323 0133 05       		.byte	0x5
 6324 0134 21       		.uleb128 0x21
 6325 0135 B4630000 		.4byte	.LASF907
 6326              		.file 31 "../../lib/lpc11cx4-library/lpc_chip_11cxx_lib/inc/error.h"
 6327 0139 03       		.byte	0x3
 6328 013a 23       		.uleb128 0x23
 6329 013b 1F       		.uleb128 0x1f
 6330 013c 07       		.byte	0x7
 6331 013d 00000000 		.4byte	.Ldebug_macro24
 6332 0141 04       		.byte	0x4
 6333 0142 04       		.byte	0x4
 6334              		.file 32 "../../lib/lpc11cx4-library/lpc_chip_11cxx_lib/inc/adc_11xx.h"
 6335 0143 03       		.byte	0x3
 6336 0144 F601     		.uleb128 0xf6
 6337 0146 20       		.uleb128 0x20
 6338 0147 07       		.byte	0x7
 6339 0148 00000000 		.4byte	.Ldebug_macro25
 6340 014c 04       		.byte	0x4
 6341              		.file 33 "../../lib/lpc11cx4-library/lpc_chip_11cxx_lib/inc/gpio_11xx_2.h"
 6342 014d 03       		.byte	0x3
 6343 014e FF01     		.uleb128 0xff
ARM GAS  /var/folders/z0/6xlwn_996xz3mwq1cgzkbq4r0000gp/T//ccjakVr1.s 			page 138


 6344 0150 21       		.uleb128 0x21
 6345 0151 05       		.byte	0x5
 6346 0152 22       		.uleb128 0x22
 6347 0153 B58B0000 		.4byte	.LASF930
 6348 0157 04       		.byte	0x4
 6349              		.file 34 "../../lib/lpc11cx4-library/lpc_chip_11cxx_lib/inc/i2c_11xx.h"
 6350 0158 03       		.byte	0x3
 6351 0159 8C02     		.uleb128 0x10c
 6352 015b 22       		.uleb128 0x22
 6353 015c 07       		.byte	0x7
 6354 015d 00000000 		.4byte	.Ldebug_macro26
 6355 0161 04       		.byte	0x4
 6356 0162 03       		.byte	0x3
 6357 0163 8F02     		.uleb128 0x10f
 6358 0165 0C       		.uleb128 0xc
 6359 0166 07       		.byte	0x7
 6360 0167 00000000 		.4byte	.Ldebug_macro27
 6361 016b 04       		.byte	0x4
 6362 016c 04       		.byte	0x4
 6363              		.file 35 "/usr/local/Cellar/gcc-arm-none-eabi/20160928/arm-none-eabi/include/string.h"
 6364 016d 03       		.byte	0x3
 6365 016e 03       		.uleb128 0x3
 6366 016f 23       		.uleb128 0x23
 6367 0170 05       		.byte	0x5
 6368 0171 08       		.uleb128 0x8
 6369 0172 CB690000 		.4byte	.LASF1055
 6370              		.file 36 "/usr/local/Cellar/gcc-arm-none-eabi/20160928/arm-none-eabi/include/_ansi.h"
 6371 0176 03       		.byte	0x3
 6372 0177 0A       		.uleb128 0xa
 6373 0178 24       		.uleb128 0x24
 6374 0179 05       		.byte	0x5
 6375 017a 0D       		.uleb128 0xd
 6376 017b 8A190000 		.4byte	.LASF1056
 6377              		.file 37 "/usr/local/Cellar/gcc-arm-none-eabi/20160928/arm-none-eabi/include/newlib.h"
 6378 017f 03       		.byte	0x3
 6379 0180 0F       		.uleb128 0xf
 6380 0181 25       		.uleb128 0x25
 6381 0182 07       		.byte	0x7
 6382 0183 00000000 		.4byte	.Ldebug_macro28
 6383 0187 04       		.byte	0x4
 6384              		.file 38 "/usr/local/Cellar/gcc-arm-none-eabi/20160928/arm-none-eabi/include/sys/config.h"
 6385 0188 03       		.byte	0x3
 6386 0189 10       		.uleb128 0x10
 6387 018a 26       		.uleb128 0x26
 6388 018b 05       		.byte	0x5
 6389 018c 02       		.uleb128 0x2
 6390 018d DB610000 		.4byte	.LASF1070
 6391              		.file 39 "/usr/local/Cellar/gcc-arm-none-eabi/20160928/arm-none-eabi/include/machine/ieeefp.h"
 6392 0191 03       		.byte	0x3
 6393 0192 04       		.uleb128 0x4
 6394 0193 27       		.uleb128 0x27
 6395 0194 05       		.byte	0x5
 6396 0195 3C       		.uleb128 0x3c
 6397 0196 E3600000 		.4byte	.LASF1071
 6398 019a 04       		.byte	0x4
 6399 019b 07       		.byte	0x7
 6400 019c 00000000 		.4byte	.Ldebug_macro29
ARM GAS  /var/folders/z0/6xlwn_996xz3mwq1cgzkbq4r0000gp/T//ccjakVr1.s 			page 139


 6401 01a0 04       		.byte	0x4
 6402 01a1 07       		.byte	0x7
 6403 01a2 00000000 		.4byte	.Ldebug_macro30
 6404 01a6 04       		.byte	0x4
 6405              		.file 40 "/usr/local/Cellar/gcc-arm-none-eabi/20160928/arm-none-eabi/include/sys/reent.h"
 6406 01a7 03       		.byte	0x3
 6407 01a8 0B       		.uleb128 0xb
 6408 01a9 28       		.uleb128 0x28
 6409 01aa 05       		.byte	0x5
 6410 01ab 0B       		.uleb128 0xb
 6411 01ac 1E2C0000 		.4byte	.LASF1104
 6412 01b0 03       		.byte	0x3
 6413 01b1 0D       		.uleb128 0xd
 6414 01b2 24       		.uleb128 0x24
 6415 01b3 04       		.byte	0x4
 6416              		.file 41 "/usr/local/Cellar/gcc-arm-none-eabi/20160928/lib/gcc/arm-none-eabi/5.4.1/include/stddef.
 6417 01b4 03       		.byte	0x3
 6418 01b5 0E       		.uleb128 0xe
 6419 01b6 29       		.uleb128 0x29
 6420 01b7 07       		.byte	0x7
 6421 01b8 00000000 		.4byte	.Ldebug_macro31
 6422 01bc 04       		.byte	0x4
 6423              		.file 42 "/usr/local/Cellar/gcc-arm-none-eabi/20160928/arm-none-eabi/include/sys/_types.h"
 6424 01bd 03       		.byte	0x3
 6425 01be 0F       		.uleb128 0xf
 6426 01bf 2A       		.uleb128 0x2a
 6427 01c0 05       		.byte	0x5
 6428 01c1 14       		.uleb128 0x14
 6429 01c2 AD5E0000 		.4byte	.LASF1157
 6430              		.file 43 "/usr/local/Cellar/gcc-arm-none-eabi/20160928/arm-none-eabi/include/machine/_types.h"
 6431 01c6 03       		.byte	0x3
 6432 01c7 18       		.uleb128 0x18
 6433 01c8 2B       		.uleb128 0x2b
 6434 01c9 05       		.byte	0x5
 6435 01ca 06       		.uleb128 0x6
 6436 01cb 78AB0000 		.4byte	.LASF1158
 6437 01cf 04       		.byte	0x4
 6438              		.file 44 "/usr/local/Cellar/gcc-arm-none-eabi/20160928/arm-none-eabi/include/sys/lock.h"
 6439 01d0 03       		.byte	0x3
 6440 01d1 19       		.uleb128 0x19
 6441 01d2 2C       		.uleb128 0x2c
 6442 01d3 07       		.byte	0x7
 6443 01d4 00000000 		.4byte	.Ldebug_macro32
 6444 01d8 04       		.byte	0x4
 6445 01d9 07       		.byte	0x7
 6446 01da 00000000 		.4byte	.Ldebug_macro33
 6447 01de 03       		.byte	0x3
 6448 01df 9F01     		.uleb128 0x9f
 6449 01e1 29       		.uleb128 0x29
 6450 01e2 07       		.byte	0x7
 6451 01e3 00000000 		.4byte	.Ldebug_macro34
 6452 01e7 04       		.byte	0x4
 6453 01e8 07       		.byte	0x7
 6454 01e9 00000000 		.4byte	.Ldebug_macro35
 6455 01ed 04       		.byte	0x4
 6456 01ee 07       		.byte	0x7
 6457 01ef 00000000 		.4byte	.Ldebug_macro36
ARM GAS  /var/folders/z0/6xlwn_996xz3mwq1cgzkbq4r0000gp/T//ccjakVr1.s 			page 140


 6458 01f3 04       		.byte	0x4
 6459              		.file 45 "/usr/local/Cellar/gcc-arm-none-eabi/20160928/arm-none-eabi/include/sys/cdefs.h"
 6460 01f4 03       		.byte	0x3
 6461 01f5 0C       		.uleb128 0xc
 6462 01f6 2D       		.uleb128 0x2d
 6463 01f7 05       		.byte	0x5
 6464 01f8 29       		.uleb128 0x29
 6465 01f9 57780000 		.4byte	.LASF1237
 6466 01fd 03       		.byte	0x3
 6467 01fe 2D       		.uleb128 0x2d
 6468 01ff 29       		.uleb128 0x29
 6469 0200 04       		.byte	0x4
 6470 0201 07       		.byte	0x7
 6471 0202 00000000 		.4byte	.Ldebug_macro37
 6472 0206 04       		.byte	0x4
 6473 0207 07       		.byte	0x7
 6474 0208 00000000 		.4byte	.Ldebug_macro38
 6475 020c 03       		.byte	0x3
 6476 020d 11       		.uleb128 0x11
 6477 020e 29       		.uleb128 0x29
 6478 020f 07       		.byte	0x7
 6479 0210 00000000 		.4byte	.Ldebug_macro39
 6480 0214 04       		.byte	0x4
 6481              		.file 46 "/usr/local/Cellar/gcc-arm-none-eabi/20160928/arm-none-eabi/include/sys/_locale.h"
 6482 0215 03       		.byte	0x3
 6483 0216 14       		.uleb128 0x14
 6484 0217 2E       		.uleb128 0x2e
 6485 0218 05       		.byte	0x5
 6486 0219 04       		.uleb128 0x4
 6487 021a 1C410000 		.4byte	.LASF1360
 6488 021e 04       		.byte	0x4
 6489              		.file 47 "/usr/local/Cellar/gcc-arm-none-eabi/20160928/arm-none-eabi/include/sys/string.h"
 6490 021f 03       		.byte	0x3
 6491 0220 C001     		.uleb128 0xc0
 6492 0222 2F       		.uleb128 0x2f
 6493 0223 04       		.byte	0x4
 6494 0224 04       		.byte	0x4
 6495 0225 03       		.byte	0x3
 6496 0226 04       		.uleb128 0x4
 6497 0227 0D       		.uleb128 0xd
 6498 0228 05       		.byte	0x5
 6499 0229 03       		.uleb128 0x3
 6500 022a 96020000 		.4byte	.LASF1361
 6501 022e 04       		.byte	0x4
 6502 022f 05       		.byte	0x5
 6503 0230 06       		.uleb128 0x6
 6504 0231 03710000 		.4byte	.LASF1362
 6505 0235 05       		.byte	0x5
 6506 0236 15       		.uleb128 0x15
 6507 0237 F9070000 		.4byte	.LASF1363
 6508 023b 04       		.byte	0x4
 6509 023c 00       		.byte	0
 6510              		.section	.debug_macro,"G",%progbits,wm4.0.875846967d3f9b39cda0d496d1540481,comdat
 6511              	.Ldebug_macro1:
 6512 0000 0400     		.2byte	0x4
 6513 0002 00       		.byte	0
 6514 0003 05       		.byte	0x5
ARM GAS  /var/folders/z0/6xlwn_996xz3mwq1cgzkbq4r0000gp/T//ccjakVr1.s 			page 141


 6515 0004 00       		.uleb128 0
 6516 0005 68050000 		.4byte	.LASF0
 6517 0009 05       		.byte	0x5
 6518 000a 00       		.uleb128 0
 6519 000b 456C0000 		.4byte	.LASF1
 6520 000f 05       		.byte	0x5
 6521 0010 00       		.uleb128 0
 6522 0011 37A40000 		.4byte	.LASF2
 6523 0015 05       		.byte	0x5
 6524 0016 00       		.uleb128 0
 6525 0017 82610000 		.4byte	.LASF3
 6526 001b 05       		.byte	0x5
 6527 001c 00       		.uleb128 0
 6528 001d E8AE0000 		.4byte	.LASF4
 6529 0021 05       		.byte	0x5
 6530 0022 00       		.uleb128 0
 6531 0023 5D330000 		.4byte	.LASF5
 6532 0027 05       		.byte	0x5
 6533 0028 00       		.uleb128 0
 6534 0029 1B4D0000 		.4byte	.LASF6
 6535 002d 05       		.byte	0x5
 6536 002e 00       		.uleb128 0
 6537 002f 001C0000 		.4byte	.LASF7
 6538 0033 05       		.byte	0x5
 6539 0034 00       		.uleb128 0
 6540 0035 3E490000 		.4byte	.LASF8
 6541 0039 05       		.byte	0x5
 6542 003a 00       		.uleb128 0
 6543 003b 4B510000 		.4byte	.LASF9
 6544 003f 05       		.byte	0x5
 6545 0040 00       		.uleb128 0
 6546 0041 5E8E0000 		.4byte	.LASF10
 6547 0045 05       		.byte	0x5
 6548 0046 00       		.uleb128 0
 6549 0047 7A970000 		.4byte	.LASF11
 6550 004b 05       		.byte	0x5
 6551 004c 00       		.uleb128 0
 6552 004d 958C0000 		.4byte	.LASF12
 6553 0051 05       		.byte	0x5
 6554 0052 00       		.uleb128 0
 6555 0053 03760000 		.4byte	.LASF13
 6556 0057 05       		.byte	0x5
 6557 0058 00       		.uleb128 0
 6558 0059 D3100000 		.4byte	.LASF14
 6559 005d 05       		.byte	0x5
 6560 005e 00       		.uleb128 0
 6561 005f A1070000 		.4byte	.LASF15
 6562 0063 05       		.byte	0x5
 6563 0064 00       		.uleb128 0
 6564 0065 5F310000 		.4byte	.LASF16
 6565 0069 05       		.byte	0x5
 6566 006a 00       		.uleb128 0
 6567 006b 1C940000 		.4byte	.LASF17
 6568 006f 05       		.byte	0x5
 6569 0070 00       		.uleb128 0
 6570 0071 4FA60000 		.4byte	.LASF18
 6571 0075 05       		.byte	0x5
ARM GAS  /var/folders/z0/6xlwn_996xz3mwq1cgzkbq4r0000gp/T//ccjakVr1.s 			page 142


 6572 0076 00       		.uleb128 0
 6573 0077 EA8A0000 		.4byte	.LASF19
 6574 007b 05       		.byte	0x5
 6575 007c 00       		.uleb128 0
 6576 007d A7A40000 		.4byte	.LASF20
 6577 0081 05       		.byte	0x5
 6578 0082 00       		.uleb128 0
 6579 0083 912E0000 		.4byte	.LASF21
 6580 0087 05       		.byte	0x5
 6581 0088 00       		.uleb128 0
 6582 0089 8A620000 		.4byte	.LASF22
 6583 008d 05       		.byte	0x5
 6584 008e 00       		.uleb128 0
 6585 008f AB160000 		.4byte	.LASF23
 6586 0093 05       		.byte	0x5
 6587 0094 00       		.uleb128 0
 6588 0095 E6650000 		.4byte	.LASF24
 6589 0099 05       		.byte	0x5
 6590 009a 00       		.uleb128 0
 6591 009b 27810000 		.4byte	.LASF25
 6592 009f 05       		.byte	0x5
 6593 00a0 00       		.uleb128 0
 6594 00a1 FF480000 		.4byte	.LASF26
 6595 00a5 05       		.byte	0x5
 6596 00a6 00       		.uleb128 0
 6597 00a7 E4360000 		.4byte	.LASF27
 6598 00ab 05       		.byte	0x5
 6599 00ac 00       		.uleb128 0
 6600 00ad EF000000 		.4byte	.LASF28
 6601 00b1 05       		.byte	0x5
 6602 00b2 00       		.uleb128 0
 6603 00b3 37730000 		.4byte	.LASF29
 6604 00b7 05       		.byte	0x5
 6605 00b8 00       		.uleb128 0
 6606 00b9 FC800000 		.4byte	.LASF30
 6607 00bd 05       		.byte	0x5
 6608 00be 00       		.uleb128 0
 6609 00bf 766E0000 		.4byte	.LASF31
 6610 00c3 05       		.byte	0x5
 6611 00c4 00       		.uleb128 0
 6612 00c5 27070000 		.4byte	.LASF32
 6613 00c9 05       		.byte	0x5
 6614 00ca 00       		.uleb128 0
 6615 00cb D8320000 		.4byte	.LASF33
 6616 00cf 05       		.byte	0x5
 6617 00d0 00       		.uleb128 0
 6618 00d1 99620000 		.4byte	.LASF34
 6619 00d5 05       		.byte	0x5
 6620 00d6 00       		.uleb128 0
 6621 00d7 B2730000 		.4byte	.LASF35
 6622 00db 05       		.byte	0x5
 6623 00dc 00       		.uleb128 0
 6624 00dd ABA80000 		.4byte	.LASF36
 6625 00e1 05       		.byte	0x5
 6626 00e2 00       		.uleb128 0
 6627 00e3 65720000 		.4byte	.LASF37
 6628 00e7 05       		.byte	0x5
ARM GAS  /var/folders/z0/6xlwn_996xz3mwq1cgzkbq4r0000gp/T//ccjakVr1.s 			page 143


 6629 00e8 00       		.uleb128 0
 6630 00e9 1B110000 		.4byte	.LASF38
 6631 00ed 05       		.byte	0x5
 6632 00ee 00       		.uleb128 0
 6633 00ef 058F0000 		.4byte	.LASF39
 6634 00f3 05       		.byte	0x5
 6635 00f4 00       		.uleb128 0
 6636 00f5 D93C0000 		.4byte	.LASF40
 6637 00f9 05       		.byte	0x5
 6638 00fa 00       		.uleb128 0
 6639 00fb 0A830000 		.4byte	.LASF41
 6640 00ff 05       		.byte	0x5
 6641 0100 00       		.uleb128 0
 6642 0101 259D0000 		.4byte	.LASF42
 6643 0105 05       		.byte	0x5
 6644 0106 00       		.uleb128 0
 6645 0107 F5160000 		.4byte	.LASF43
 6646 010b 05       		.byte	0x5
 6647 010c 00       		.uleb128 0
 6648 010d 98190000 		.4byte	.LASF44
 6649 0111 05       		.byte	0x5
 6650 0112 00       		.uleb128 0
 6651 0113 96690000 		.4byte	.LASF45
 6652 0117 05       		.byte	0x5
 6653 0118 00       		.uleb128 0
 6654 0119 78060000 		.4byte	.LASF46
 6655 011d 05       		.byte	0x5
 6656 011e 00       		.uleb128 0
 6657 011f 80540000 		.4byte	.LASF47
 6658 0123 05       		.byte	0x5
 6659 0124 00       		.uleb128 0
 6660 0125 D6970000 		.4byte	.LASF48
 6661 0129 05       		.byte	0x5
 6662 012a 00       		.uleb128 0
 6663 012b 361E0000 		.4byte	.LASF49
 6664 012f 05       		.byte	0x5
 6665 0130 00       		.uleb128 0
 6666 0131 67120000 		.4byte	.LASF50
 6667 0135 05       		.byte	0x5
 6668 0136 00       		.uleb128 0
 6669 0137 72A70000 		.4byte	.LASF51
 6670 013b 05       		.byte	0x5
 6671 013c 00       		.uleb128 0
 6672 013d 8AAC0000 		.4byte	.LASF52
 6673 0141 05       		.byte	0x5
 6674 0142 00       		.uleb128 0
 6675 0143 B69D0000 		.4byte	.LASF53
 6676 0147 05       		.byte	0x5
 6677 0148 00       		.uleb128 0
 6678 0149 F5970000 		.4byte	.LASF54
 6679 014d 05       		.byte	0x5
 6680 014e 00       		.uleb128 0
 6681 014f 276B0000 		.4byte	.LASF55
 6682 0153 05       		.byte	0x5
 6683 0154 00       		.uleb128 0
 6684 0155 8E520000 		.4byte	.LASF56
 6685 0159 05       		.byte	0x5
ARM GAS  /var/folders/z0/6xlwn_996xz3mwq1cgzkbq4r0000gp/T//ccjakVr1.s 			page 144


 6686 015a 00       		.uleb128 0
 6687 015b AD310000 		.4byte	.LASF57
 6688 015f 05       		.byte	0x5
 6689 0160 00       		.uleb128 0
 6690 0161 BA490000 		.4byte	.LASF58
 6691 0165 05       		.byte	0x5
 6692 0166 00       		.uleb128 0
 6693 0167 091D0000 		.4byte	.LASF59
 6694 016b 05       		.byte	0x5
 6695 016c 00       		.uleb128 0
 6696 016d 2F100000 		.4byte	.LASF60
 6697 0171 05       		.byte	0x5
 6698 0172 00       		.uleb128 0
 6699 0173 B2810000 		.4byte	.LASF61
 6700 0177 05       		.byte	0x5
 6701 0178 00       		.uleb128 0
 6702 0179 9E580000 		.4byte	.LASF62
 6703 017d 05       		.byte	0x5
 6704 017e 00       		.uleb128 0
 6705 017f D6090000 		.4byte	.LASF63
 6706 0183 05       		.byte	0x5
 6707 0184 00       		.uleb128 0
 6708 0185 6E840000 		.4byte	.LASF64
 6709 0189 05       		.byte	0x5
 6710 018a 00       		.uleb128 0
 6711 018b FB460000 		.4byte	.LASF65
 6712 018f 05       		.byte	0x5
 6713 0190 00       		.uleb128 0
 6714 0191 1B640000 		.4byte	.LASF66
 6715 0195 05       		.byte	0x5
 6716 0196 00       		.uleb128 0
 6717 0197 E2510000 		.4byte	.LASF67
 6718 019b 05       		.byte	0x5
 6719 019c 00       		.uleb128 0
 6720 019d 45450000 		.4byte	.LASF68
 6721 01a1 05       		.byte	0x5
 6722 01a2 00       		.uleb128 0
 6723 01a3 710D0000 		.4byte	.LASF69
 6724 01a7 05       		.byte	0x5
 6725 01a8 00       		.uleb128 0
 6726 01a9 2B540000 		.4byte	.LASF70
 6727 01ad 05       		.byte	0x5
 6728 01ae 00       		.uleb128 0
 6729 01af FA5E0000 		.4byte	.LASF71
 6730 01b3 05       		.byte	0x5
 6731 01b4 00       		.uleb128 0
 6732 01b5 1A760000 		.4byte	.LASF72
 6733 01b9 05       		.byte	0x5
 6734 01ba 00       		.uleb128 0
 6735 01bb 667B0000 		.4byte	.LASF73
 6736 01bf 05       		.byte	0x5
 6737 01c0 00       		.uleb128 0
 6738 01c1 AD410000 		.4byte	.LASF74
 6739 01c5 05       		.byte	0x5
 6740 01c6 00       		.uleb128 0
 6741 01c7 9F280000 		.4byte	.LASF75
 6742 01cb 05       		.byte	0x5
ARM GAS  /var/folders/z0/6xlwn_996xz3mwq1cgzkbq4r0000gp/T//ccjakVr1.s 			page 145


 6743 01cc 00       		.uleb128 0
 6744 01cd 556D0000 		.4byte	.LASF76
 6745 01d1 05       		.byte	0x5
 6746 01d2 00       		.uleb128 0
 6747 01d3 28040000 		.4byte	.LASF77
 6748 01d7 05       		.byte	0x5
 6749 01d8 00       		.uleb128 0
 6750 01d9 165A0000 		.4byte	.LASF78
 6751 01dd 05       		.byte	0x5
 6752 01de 00       		.uleb128 0
 6753 01df 1F8C0000 		.4byte	.LASF79
 6754 01e3 05       		.byte	0x5
 6755 01e4 00       		.uleb128 0
 6756 01e5 44580000 		.4byte	.LASF80
 6757 01e9 05       		.byte	0x5
 6758 01ea 00       		.uleb128 0
 6759 01eb FF380000 		.4byte	.LASF81
 6760 01ef 05       		.byte	0x5
 6761 01f0 00       		.uleb128 0
 6762 01f1 6E6C0000 		.4byte	.LASF82
 6763 01f5 05       		.byte	0x5
 6764 01f6 00       		.uleb128 0
 6765 01f7 E2020000 		.4byte	.LASF83
 6766 01fb 05       		.byte	0x5
 6767 01fc 00       		.uleb128 0
 6768 01fd D4810000 		.4byte	.LASF84
 6769 0201 05       		.byte	0x5
 6770 0202 00       		.uleb128 0
 6771 0203 4F560000 		.4byte	.LASF85
 6772 0207 05       		.byte	0x5
 6773 0208 00       		.uleb128 0
 6774 0209 F3330000 		.4byte	.LASF86
 6775 020d 05       		.byte	0x5
 6776 020e 00       		.uleb128 0
 6777 020f 91440000 		.4byte	.LASF87
 6778 0213 05       		.byte	0x5
 6779 0214 00       		.uleb128 0
 6780 0215 C41B0000 		.4byte	.LASF88
 6781 0219 05       		.byte	0x5
 6782 021a 00       		.uleb128 0
 6783 021b 6C940000 		.4byte	.LASF89
 6784 021f 05       		.byte	0x5
 6785 0220 00       		.uleb128 0
 6786 0221 B8A10000 		.4byte	.LASF90
 6787 0225 05       		.byte	0x5
 6788 0226 00       		.uleb128 0
 6789 0227 06AE0000 		.4byte	.LASF91
 6790 022b 05       		.byte	0x5
 6791 022c 00       		.uleb128 0
 6792 022d 81100000 		.4byte	.LASF92
 6793 0231 05       		.byte	0x5
 6794 0232 00       		.uleb128 0
 6795 0233 22AE0000 		.4byte	.LASF93
 6796 0237 05       		.byte	0x5
 6797 0238 00       		.uleb128 0
 6798 0239 A11A0000 		.4byte	.LASF94
 6799 023d 05       		.byte	0x5
ARM GAS  /var/folders/z0/6xlwn_996xz3mwq1cgzkbq4r0000gp/T//ccjakVr1.s 			page 146


 6800 023e 00       		.uleb128 0
 6801 023f D20D0000 		.4byte	.LASF95
 6802 0243 05       		.byte	0x5
 6803 0244 00       		.uleb128 0
 6804 0245 49930000 		.4byte	.LASF96
 6805 0249 05       		.byte	0x5
 6806 024a 00       		.uleb128 0
 6807 024b AF430000 		.4byte	.LASF97
 6808 024f 05       		.byte	0x5
 6809 0250 00       		.uleb128 0
 6810 0251 455F0000 		.4byte	.LASF98
 6811 0255 05       		.byte	0x5
 6812 0256 00       		.uleb128 0
 6813 0257 864A0000 		.4byte	.LASF99
 6814 025b 05       		.byte	0x5
 6815 025c 00       		.uleb128 0
 6816 025d F9860000 		.4byte	.LASF100
 6817 0261 05       		.byte	0x5
 6818 0262 00       		.uleb128 0
 6819 0263 A7AD0000 		.4byte	.LASF101
 6820 0267 05       		.byte	0x5
 6821 0268 00       		.uleb128 0
 6822 0269 152A0000 		.4byte	.LASF102
 6823 026d 05       		.byte	0x5
 6824 026e 00       		.uleb128 0
 6825 026f C12D0000 		.4byte	.LASF103
 6826 0273 05       		.byte	0x5
 6827 0274 00       		.uleb128 0
 6828 0275 3B120000 		.4byte	.LASF104
 6829 0279 05       		.byte	0x5
 6830 027a 00       		.uleb128 0
 6831 027b 9B800000 		.4byte	.LASF105
 6832 027f 05       		.byte	0x5
 6833 0280 00       		.uleb128 0
 6834 0281 BE4A0000 		.4byte	.LASF106
 6835 0285 05       		.byte	0x5
 6836 0286 00       		.uleb128 0
 6837 0287 761A0000 		.4byte	.LASF107
 6838 028b 05       		.byte	0x5
 6839 028c 00       		.uleb128 0
 6840 028d 4E370000 		.4byte	.LASF108
 6841 0291 05       		.byte	0x5
 6842 0292 00       		.uleb128 0
 6843 0293 C1220000 		.4byte	.LASF109
 6844 0297 05       		.byte	0x5
 6845 0298 00       		.uleb128 0
 6846 0299 6A020000 		.4byte	.LASF110
 6847 029d 05       		.byte	0x5
 6848 029e 00       		.uleb128 0
 6849 029f 1B670000 		.4byte	.LASF111
 6850 02a3 05       		.byte	0x5
 6851 02a4 00       		.uleb128 0
 6852 02a5 730F0000 		.4byte	.LASF112
 6853 02a9 05       		.byte	0x5
 6854 02aa 00       		.uleb128 0
 6855 02ab B25A0000 		.4byte	.LASF113
 6856 02af 05       		.byte	0x5
ARM GAS  /var/folders/z0/6xlwn_996xz3mwq1cgzkbq4r0000gp/T//ccjakVr1.s 			page 147


 6857 02b0 00       		.uleb128 0
 6858 02b1 7E580000 		.4byte	.LASF114
 6859 02b5 05       		.byte	0x5
 6860 02b6 00       		.uleb128 0
 6861 02b7 FE8A0000 		.4byte	.LASF115
 6862 02bb 05       		.byte	0x5
 6863 02bc 00       		.uleb128 0
 6864 02bd EA060000 		.4byte	.LASF116
 6865 02c1 05       		.byte	0x5
 6866 02c2 00       		.uleb128 0
 6867 02c3 5D640000 		.4byte	.LASF117
 6868 02c7 05       		.byte	0x5
 6869 02c8 00       		.uleb128 0
 6870 02c9 AA960000 		.4byte	.LASF118
 6871 02cd 05       		.byte	0x5
 6872 02ce 00       		.uleb128 0
 6873 02cf 7B4E0000 		.4byte	.LASF119
 6874 02d3 05       		.byte	0x5
 6875 02d4 00       		.uleb128 0
 6876 02d5 C5530000 		.4byte	.LASF120
 6877 02d9 05       		.byte	0x5
 6878 02da 00       		.uleb128 0
 6879 02db 369F0000 		.4byte	.LASF121
 6880 02df 05       		.byte	0x5
 6881 02e0 00       		.uleb128 0
 6882 02e1 7BA30000 		.4byte	.LASF122
 6883 02e5 05       		.byte	0x5
 6884 02e6 00       		.uleb128 0
 6885 02e7 8E370000 		.4byte	.LASF123
 6886 02eb 05       		.byte	0x5
 6887 02ec 00       		.uleb128 0
 6888 02ed 31340000 		.4byte	.LASF124
 6889 02f1 05       		.byte	0x5
 6890 02f2 00       		.uleb128 0
 6891 02f3 EE2C0000 		.4byte	.LASF125
 6892 02f7 05       		.byte	0x5
 6893 02f8 00       		.uleb128 0
 6894 02f9 D7AA0000 		.4byte	.LASF126
 6895 02fd 05       		.byte	0x5
 6896 02fe 00       		.uleb128 0
 6897 02ff 74250000 		.4byte	.LASF127
 6898 0303 05       		.byte	0x5
 6899 0304 00       		.uleb128 0
 6900 0305 117E0000 		.4byte	.LASF128
 6901 0309 05       		.byte	0x5
 6902 030a 00       		.uleb128 0
 6903 030b 83880000 		.4byte	.LASF129
 6904 030f 05       		.byte	0x5
 6905 0310 00       		.uleb128 0
 6906 0311 DC820000 		.4byte	.LASF130
 6907 0315 05       		.byte	0x5
 6908 0316 00       		.uleb128 0
 6909 0317 5C540000 		.4byte	.LASF131
 6910 031b 05       		.byte	0x5
 6911 031c 00       		.uleb128 0
 6912 031d B2970000 		.4byte	.LASF132
 6913 0321 05       		.byte	0x5
ARM GAS  /var/folders/z0/6xlwn_996xz3mwq1cgzkbq4r0000gp/T//ccjakVr1.s 			page 148


 6914 0322 00       		.uleb128 0
 6915 0323 A0290000 		.4byte	.LASF133
 6916 0327 05       		.byte	0x5
 6917 0328 00       		.uleb128 0
 6918 0329 2FAD0000 		.4byte	.LASF134
 6919 032d 05       		.byte	0x5
 6920 032e 00       		.uleb128 0
 6921 032f 9A4F0000 		.4byte	.LASF135
 6922 0333 05       		.byte	0x5
 6923 0334 00       		.uleb128 0
 6924 0335 310A0000 		.4byte	.LASF136
 6925 0339 05       		.byte	0x5
 6926 033a 00       		.uleb128 0
 6927 033b C1470000 		.4byte	.LASF137
 6928 033f 05       		.byte	0x5
 6929 0340 00       		.uleb128 0
 6930 0341 23260000 		.4byte	.LASF138
 6931 0345 05       		.byte	0x5
 6932 0346 00       		.uleb128 0
 6933 0347 901D0000 		.4byte	.LASF139
 6934 034b 05       		.byte	0x5
 6935 034c 00       		.uleb128 0
 6936 034d F09A0000 		.4byte	.LASF140
 6937 0351 05       		.byte	0x5
 6938 0352 00       		.uleb128 0
 6939 0353 136A0000 		.4byte	.LASF141
 6940 0357 05       		.byte	0x5
 6941 0358 00       		.uleb128 0
 6942 0359 142D0000 		.4byte	.LASF142
 6943 035d 05       		.byte	0x5
 6944 035e 00       		.uleb128 0
 6945 035f 9F060000 		.4byte	.LASF143
 6946 0363 05       		.byte	0x5
 6947 0364 00       		.uleb128 0
 6948 0365 C4990000 		.4byte	.LASF144
 6949 0369 05       		.byte	0x5
 6950 036a 00       		.uleb128 0
 6951 036b 03650000 		.4byte	.LASF145
 6952 036f 05       		.byte	0x5
 6953 0370 00       		.uleb128 0
 6954 0371 6C220000 		.4byte	.LASF146
 6955 0375 05       		.byte	0x5
 6956 0376 00       		.uleb128 0
 6957 0377 73010000 		.4byte	.LASF147
 6958 037b 05       		.byte	0x5
 6959 037c 00       		.uleb128 0
 6960 037d 25A50000 		.4byte	.LASF148
 6961 0381 05       		.byte	0x5
 6962 0382 00       		.uleb128 0
 6963 0383 FF250000 		.4byte	.LASF149
 6964 0387 05       		.byte	0x5
 6965 0388 00       		.uleb128 0
 6966 0389 C60C0000 		.4byte	.LASF150
 6967 038d 05       		.byte	0x5
 6968 038e 00       		.uleb128 0
 6969 038f 72A20000 		.4byte	.LASF151
 6970 0393 05       		.byte	0x5
ARM GAS  /var/folders/z0/6xlwn_996xz3mwq1cgzkbq4r0000gp/T//ccjakVr1.s 			page 149


 6971 0394 00       		.uleb128 0
 6972 0395 997C0000 		.4byte	.LASF152
 6973 0399 05       		.byte	0x5
 6974 039a 00       		.uleb128 0
 6975 039b 55720000 		.4byte	.LASF153
 6976 039f 05       		.byte	0x5
 6977 03a0 00       		.uleb128 0
 6978 03a1 2C240000 		.4byte	.LASF154
 6979 03a5 05       		.byte	0x5
 6980 03a6 00       		.uleb128 0
 6981 03a7 8AA20000 		.4byte	.LASF155
 6982 03ab 05       		.byte	0x5
 6983 03ac 00       		.uleb128 0
 6984 03ad 1E8B0000 		.4byte	.LASF156
 6985 03b1 05       		.byte	0x5
 6986 03b2 00       		.uleb128 0
 6987 03b3 7F9C0000 		.4byte	.LASF157
 6988 03b7 05       		.byte	0x5
 6989 03b8 00       		.uleb128 0
 6990 03b9 EA1D0000 		.4byte	.LASF158
 6991 03bd 05       		.byte	0x5
 6992 03be 00       		.uleb128 0
 6993 03bf 7F230000 		.4byte	.LASF159
 6994 03c3 05       		.byte	0x5
 6995 03c4 00       		.uleb128 0
 6996 03c5 4E4D0000 		.4byte	.LASF160
 6997 03c9 05       		.byte	0x5
 6998 03ca 00       		.uleb128 0
 6999 03cb E44C0000 		.4byte	.LASF161
 7000 03cf 05       		.byte	0x5
 7001 03d0 00       		.uleb128 0
 7002 03d1 17580000 		.4byte	.LASF162
 7003 03d5 05       		.byte	0x5
 7004 03d6 00       		.uleb128 0
 7005 03d7 CF660000 		.4byte	.LASF163
 7006 03db 05       		.byte	0x5
 7007 03dc 00       		.uleb128 0
 7008 03dd 91A30000 		.4byte	.LASF164
 7009 03e1 05       		.byte	0x5
 7010 03e2 00       		.uleb128 0
 7011 03e3 CF7A0000 		.4byte	.LASF165
 7012 03e7 05       		.byte	0x5
 7013 03e8 00       		.uleb128 0
 7014 03e9 A5A20000 		.4byte	.LASF166
 7015 03ed 05       		.byte	0x5
 7016 03ee 00       		.uleb128 0
 7017 03ef 8E5D0000 		.4byte	.LASF167
 7018 03f3 05       		.byte	0x5
 7019 03f4 00       		.uleb128 0
 7020 03f5 CE600000 		.4byte	.LASF168
 7021 03f9 05       		.byte	0x5
 7022 03fa 00       		.uleb128 0
 7023 03fb AF360000 		.4byte	.LASF169
 7024 03ff 05       		.byte	0x5
 7025 0400 00       		.uleb128 0
 7026 0401 519D0000 		.4byte	.LASF170
 7027 0405 05       		.byte	0x5
ARM GAS  /var/folders/z0/6xlwn_996xz3mwq1cgzkbq4r0000gp/T//ccjakVr1.s 			page 150


 7028 0406 00       		.uleb128 0
 7029 0407 D5270000 		.4byte	.LASF171
 7030 040b 05       		.byte	0x5
 7031 040c 00       		.uleb128 0
 7032 040d EB390000 		.4byte	.LASF172
 7033 0411 05       		.byte	0x5
 7034 0412 00       		.uleb128 0
 7035 0413 AB470000 		.4byte	.LASF173
 7036 0417 05       		.byte	0x5
 7037 0418 00       		.uleb128 0
 7038 0419 810A0000 		.4byte	.LASF174
 7039 041d 05       		.byte	0x5
 7040 041e 00       		.uleb128 0
 7041 041f 4F660000 		.4byte	.LASF175
 7042 0423 05       		.byte	0x5
 7043 0424 00       		.uleb128 0
 7044 0425 32930000 		.4byte	.LASF176
 7045 0429 05       		.byte	0x5
 7046 042a 00       		.uleb128 0
 7047 042b 41880000 		.4byte	.LASF177
 7048 042f 05       		.byte	0x5
 7049 0430 00       		.uleb128 0
 7050 0431 BD5F0000 		.4byte	.LASF178
 7051 0435 05       		.byte	0x5
 7052 0436 00       		.uleb128 0
 7053 0437 866C0000 		.4byte	.LASF179
 7054 043b 05       		.byte	0x5
 7055 043c 00       		.uleb128 0
 7056 043d 310D0000 		.4byte	.LASF180
 7057 0441 05       		.byte	0x5
 7058 0442 00       		.uleb128 0
 7059 0443 F5050000 		.4byte	.LASF181
 7060 0447 05       		.byte	0x5
 7061 0448 00       		.uleb128 0
 7062 0449 4A410000 		.4byte	.LASF182
 7063 044d 05       		.byte	0x5
 7064 044e 00       		.uleb128 0
 7065 044f 1E960000 		.4byte	.LASF183
 7066 0453 05       		.byte	0x5
 7067 0454 00       		.uleb128 0
 7068 0455 00420000 		.4byte	.LASF184
 7069 0459 05       		.byte	0x5
 7070 045a 00       		.uleb128 0
 7071 045b 84A60000 		.4byte	.LASF185
 7072 045f 05       		.byte	0x5
 7073 0460 00       		.uleb128 0
 7074 0461 E79F0000 		.4byte	.LASF186
 7075 0465 05       		.byte	0x5
 7076 0466 00       		.uleb128 0
 7077 0467 A8300000 		.4byte	.LASF187
 7078 046b 05       		.byte	0x5
 7079 046c 00       		.uleb128 0
 7080 046d EF3B0000 		.4byte	.LASF188
 7081 0471 05       		.byte	0x5
 7082 0472 00       		.uleb128 0
 7083 0473 F95D0000 		.4byte	.LASF189
 7084 0477 05       		.byte	0x5
ARM GAS  /var/folders/z0/6xlwn_996xz3mwq1cgzkbq4r0000gp/T//ccjakVr1.s 			page 151


 7085 0478 00       		.uleb128 0
 7086 0479 12A40000 		.4byte	.LASF190
 7087 047d 05       		.byte	0x5
 7088 047e 00       		.uleb128 0
 7089 047f 5E970000 		.4byte	.LASF191
 7090 0483 05       		.byte	0x5
 7091 0484 00       		.uleb128 0
 7092 0485 6F980000 		.4byte	.LASF192
 7093 0489 05       		.byte	0x5
 7094 048a 00       		.uleb128 0
 7095 048b E84B0000 		.4byte	.LASF193
 7096 048f 05       		.byte	0x5
 7097 0490 00       		.uleb128 0
 7098 0491 4D0C0000 		.4byte	.LASF194
 7099 0495 05       		.byte	0x5
 7100 0496 00       		.uleb128 0
 7101 0497 49690000 		.4byte	.LASF195
 7102 049b 05       		.byte	0x5
 7103 049c 00       		.uleb128 0
 7104 049d DE800000 		.4byte	.LASF196
 7105 04a1 05       		.byte	0x5
 7106 04a2 00       		.uleb128 0
 7107 04a3 EE430000 		.4byte	.LASF197
 7108 04a7 05       		.byte	0x5
 7109 04a8 00       		.uleb128 0
 7110 04a9 7D370000 		.4byte	.LASF198
 7111 04ad 05       		.byte	0x5
 7112 04ae 00       		.uleb128 0
 7113 04af 3C3F0000 		.4byte	.LASF199
 7114 04b3 05       		.byte	0x5
 7115 04b4 00       		.uleb128 0
 7116 04b5 064E0000 		.4byte	.LASF200
 7117 04b9 05       		.byte	0x5
 7118 04ba 00       		.uleb128 0
 7119 04bb 513A0000 		.4byte	.LASF201
 7120 04bf 05       		.byte	0x5
 7121 04c0 00       		.uleb128 0
 7122 04c1 0AA90000 		.4byte	.LASF202
 7123 04c5 05       		.byte	0x5
 7124 04c6 00       		.uleb128 0
 7125 04c7 16A20000 		.4byte	.LASF203
 7126 04cb 05       		.byte	0x5
 7127 04cc 00       		.uleb128 0
 7128 04cd E5240000 		.4byte	.LASF204
 7129 04d1 05       		.byte	0x5
 7130 04d2 00       		.uleb128 0
 7131 04d3 41810000 		.4byte	.LASF205
 7132 04d7 05       		.byte	0x5
 7133 04d8 00       		.uleb128 0
 7134 04d9 D8590000 		.4byte	.LASF206
 7135 04dd 05       		.byte	0x5
 7136 04de 00       		.uleb128 0
 7137 04df 0F550000 		.4byte	.LASF207
 7138 04e3 05       		.byte	0x5
 7139 04e4 00       		.uleb128 0
 7140 04e5 78200000 		.4byte	.LASF208
 7141 04e9 05       		.byte	0x5
ARM GAS  /var/folders/z0/6xlwn_996xz3mwq1cgzkbq4r0000gp/T//ccjakVr1.s 			page 152


 7142 04ea 00       		.uleb128 0
 7143 04eb F6760000 		.4byte	.LASF209
 7144 04ef 05       		.byte	0x5
 7145 04f0 00       		.uleb128 0
 7146 04f1 2E4D0000 		.4byte	.LASF210
 7147 04f5 05       		.byte	0x5
 7148 04f6 00       		.uleb128 0
 7149 04f7 D2000000 		.4byte	.LASF211
 7150 04fb 05       		.byte	0x5
 7151 04fc 00       		.uleb128 0
 7152 04fd 752E0000 		.4byte	.LASF212
 7153 0501 05       		.byte	0x5
 7154 0502 00       		.uleb128 0
 7155 0503 FA890000 		.4byte	.LASF213
 7156 0507 05       		.byte	0x5
 7157 0508 00       		.uleb128 0
 7158 0509 C1830000 		.4byte	.LASF214
 7159 050d 05       		.byte	0x5
 7160 050e 00       		.uleb128 0
 7161 050f D2720000 		.4byte	.LASF215
 7162 0513 05       		.byte	0x5
 7163 0514 00       		.uleb128 0
 7164 0515 78460000 		.4byte	.LASF216
 7165 0519 05       		.byte	0x5
 7166 051a 00       		.uleb128 0
 7167 051b 2D990000 		.4byte	.LASF217
 7168 051f 05       		.byte	0x5
 7169 0520 00       		.uleb128 0
 7170 0521 A94E0000 		.4byte	.LASF218
 7171 0525 05       		.byte	0x5
 7172 0526 00       		.uleb128 0
 7173 0527 93770000 		.4byte	.LASF219
 7174 052b 05       		.byte	0x5
 7175 052c 00       		.uleb128 0
 7176 052d 8FAA0000 		.4byte	.LASF220
 7177 0531 05       		.byte	0x5
 7178 0532 00       		.uleb128 0
 7179 0533 CF430000 		.4byte	.LASF221
 7180 0537 05       		.byte	0x5
 7181 0538 00       		.uleb128 0
 7182 0539 E37C0000 		.4byte	.LASF222
 7183 053d 05       		.byte	0x5
 7184 053e 00       		.uleb128 0
 7185 053f B5050000 		.4byte	.LASF223
 7186 0543 05       		.byte	0x5
 7187 0544 00       		.uleb128 0
 7188 0545 DB450000 		.4byte	.LASF224
 7189 0549 05       		.byte	0x5
 7190 054a 00       		.uleb128 0
 7191 054b 3A460000 		.4byte	.LASF225
 7192 054f 05       		.byte	0x5
 7193 0550 00       		.uleb128 0
 7194 0551 C69F0000 		.4byte	.LASF226
 7195 0555 05       		.byte	0x5
 7196 0556 00       		.uleb128 0
 7197 0557 22710000 		.4byte	.LASF227
 7198 055b 05       		.byte	0x5
ARM GAS  /var/folders/z0/6xlwn_996xz3mwq1cgzkbq4r0000gp/T//ccjakVr1.s 			page 153


 7199 055c 00       		.uleb128 0
 7200 055d 78190000 		.4byte	.LASF228
 7201 0561 05       		.byte	0x5
 7202 0562 00       		.uleb128 0
 7203 0563 37260000 		.4byte	.LASF229
 7204 0567 05       		.byte	0x5
 7205 0568 00       		.uleb128 0
 7206 0569 744D0000 		.4byte	.LASF230
 7207 056d 05       		.byte	0x5
 7208 056e 00       		.uleb128 0
 7209 056f B6790000 		.4byte	.LASF231
 7210 0573 05       		.byte	0x5
 7211 0574 00       		.uleb128 0
 7212 0575 05290000 		.4byte	.LASF232
 7213 0579 05       		.byte	0x5
 7214 057a 00       		.uleb128 0
 7215 057b 5D830000 		.4byte	.LASF233
 7216 057f 05       		.byte	0x5
 7217 0580 00       		.uleb128 0
 7218 0581 16990000 		.4byte	.LASF234
 7219 0585 05       		.byte	0x5
 7220 0586 00       		.uleb128 0
 7221 0587 96550000 		.4byte	.LASF235
 7222 058b 05       		.byte	0x5
 7223 058c 00       		.uleb128 0
 7224 058d 1B520000 		.4byte	.LASF236
 7225 0591 05       		.byte	0x5
 7226 0592 00       		.uleb128 0
 7227 0593 014A0000 		.4byte	.LASF237
 7228 0597 05       		.byte	0x5
 7229 0598 00       		.uleb128 0
 7230 0599 834B0000 		.4byte	.LASF238
 7231 059d 05       		.byte	0x5
 7232 059e 00       		.uleb128 0
 7233 059f 929A0000 		.4byte	.LASF239
 7234 05a3 05       		.byte	0x5
 7235 05a4 00       		.uleb128 0
 7236 05a5 43900000 		.4byte	.LASF240
 7237 05a9 05       		.byte	0x5
 7238 05aa 00       		.uleb128 0
 7239 05ab 4F390000 		.4byte	.LASF241
 7240 05af 05       		.byte	0x5
 7241 05b0 00       		.uleb128 0
 7242 05b1 A1000000 		.4byte	.LASF242
 7243 05b5 05       		.byte	0x5
 7244 05b6 00       		.uleb128 0
 7245 05b7 A5010000 		.4byte	.LASF243
 7246 05bb 05       		.byte	0x5
 7247 05bc 00       		.uleb128 0
 7248 05bd C6960000 		.4byte	.LASF244
 7249 05c1 05       		.byte	0x5
 7250 05c2 00       		.uleb128 0
 7251 05c3 348B0000 		.4byte	.LASF245
 7252 05c7 05       		.byte	0x5
 7253 05c8 00       		.uleb128 0
 7254 05c9 F9090000 		.4byte	.LASF246
 7255 05cd 05       		.byte	0x5
ARM GAS  /var/folders/z0/6xlwn_996xz3mwq1cgzkbq4r0000gp/T//ccjakVr1.s 			page 154


 7256 05ce 00       		.uleb128 0
 7257 05cf 175E0000 		.4byte	.LASF247
 7258 05d3 05       		.byte	0x5
 7259 05d4 00       		.uleb128 0
 7260 05d5 F6920000 		.4byte	.LASF248
 7261 05d9 05       		.byte	0x5
 7262 05da 00       		.uleb128 0
 7263 05db 5A580000 		.4byte	.LASF249
 7264 05df 05       		.byte	0x5
 7265 05e0 00       		.uleb128 0
 7266 05e1 9A390000 		.4byte	.LASF250
 7267 05e5 05       		.byte	0x5
 7268 05e6 00       		.uleb128 0
 7269 05e7 3F000000 		.4byte	.LASF251
 7270 05eb 05       		.byte	0x5
 7271 05ec 00       		.uleb128 0
 7272 05ed F6340000 		.4byte	.LASF252
 7273 05f1 05       		.byte	0x5
 7274 05f2 00       		.uleb128 0
 7275 05f3 41360000 		.4byte	.LASF253
 7276 05f7 05       		.byte	0x5
 7277 05f8 00       		.uleb128 0
 7278 05f9 5C5E0000 		.4byte	.LASF254
 7279 05fd 05       		.byte	0x5
 7280 05fe 00       		.uleb128 0
 7281 05ff 812D0000 		.4byte	.LASF255
 7282 0603 05       		.byte	0x5
 7283 0604 00       		.uleb128 0
 7284 0605 12340000 		.4byte	.LASF256
 7285 0609 05       		.byte	0x5
 7286 060a 00       		.uleb128 0
 7287 060b 1D700000 		.4byte	.LASF257
 7288 060f 05       		.byte	0x5
 7289 0610 00       		.uleb128 0
 7290 0611 62710000 		.4byte	.LASF258
 7291 0615 05       		.byte	0x5
 7292 0616 00       		.uleb128 0
 7293 0617 ED0F0000 		.4byte	.LASF259
 7294 061b 05       		.byte	0x5
 7295 061c 00       		.uleb128 0
 7296 061d D8230000 		.4byte	.LASF260
 7297 0621 05       		.byte	0x5
 7298 0622 00       		.uleb128 0
 7299 0623 D6300000 		.4byte	.LASF261
 7300 0627 05       		.byte	0x5
 7301 0628 00       		.uleb128 0
 7302 0629 337A0000 		.4byte	.LASF262
 7303 062d 05       		.byte	0x5
 7304 062e 00       		.uleb128 0
 7305 062f 367C0000 		.4byte	.LASF263
 7306 0633 05       		.byte	0x5
 7307 0634 00       		.uleb128 0
 7308 0635 4E270000 		.4byte	.LASF264
 7309 0639 05       		.byte	0x5
 7310 063a 00       		.uleb128 0
 7311 063b F9170000 		.4byte	.LASF265
 7312 063f 05       		.byte	0x5
ARM GAS  /var/folders/z0/6xlwn_996xz3mwq1cgzkbq4r0000gp/T//ccjakVr1.s 			page 155


 7313 0640 00       		.uleb128 0
 7314 0641 69620000 		.4byte	.LASF266
 7315 0645 05       		.byte	0x5
 7316 0646 00       		.uleb128 0
 7317 0647 11160000 		.4byte	.LASF267
 7318 064b 05       		.byte	0x5
 7319 064c 00       		.uleb128 0
 7320 064d 94210000 		.4byte	.LASF268
 7321 0651 05       		.byte	0x5
 7322 0652 00       		.uleb128 0
 7323 0653 34710000 		.4byte	.LASF269
 7324 0657 05       		.byte	0x5
 7325 0658 00       		.uleb128 0
 7326 0659 E09E0000 		.4byte	.LASF270
 7327 065d 05       		.byte	0x5
 7328 065e 00       		.uleb128 0
 7329 065f E0380000 		.4byte	.LASF271
 7330 0663 05       		.byte	0x5
 7331 0664 00       		.uleb128 0
 7332 0665 6D5B0000 		.4byte	.LASF272
 7333 0669 05       		.byte	0x5
 7334 066a 00       		.uleb128 0
 7335 066b EA090000 		.4byte	.LASF273
 7336 066f 05       		.byte	0x5
 7337 0670 00       		.uleb128 0
 7338 0671 0D7D0000 		.4byte	.LASF274
 7339 0675 05       		.byte	0x5
 7340 0676 00       		.uleb128 0
 7341 0677 F9880000 		.4byte	.LASF275
 7342 067b 05       		.byte	0x5
 7343 067c 00       		.uleb128 0
 7344 067d F4A50000 		.4byte	.LASF276
 7345 0681 05       		.byte	0x5
 7346 0682 00       		.uleb128 0
 7347 0683 13710000 		.4byte	.LASF277
 7348 0687 05       		.byte	0x5
 7349 0688 00       		.uleb128 0
 7350 0689 027E0000 		.4byte	.LASF278
 7351 068d 05       		.byte	0x5
 7352 068e 00       		.uleb128 0
 7353 068f DB400000 		.4byte	.LASF279
 7354 0693 05       		.byte	0x5
 7355 0694 00       		.uleb128 0
 7356 0695 AF4A0000 		.4byte	.LASF280
 7357 0699 05       		.byte	0x5
 7358 069a 00       		.uleb128 0
 7359 069b 066B0000 		.4byte	.LASF281
 7360 069f 05       		.byte	0x5
 7361 06a0 00       		.uleb128 0
 7362 06a1 6D5F0000 		.4byte	.LASF282
 7363 06a5 05       		.byte	0x5
 7364 06a6 00       		.uleb128 0
 7365 06a7 C73B0000 		.4byte	.LASF283
 7366 06ab 05       		.byte	0x5
 7367 06ac 00       		.uleb128 0
 7368 06ad 14260000 		.4byte	.LASF284
 7369 06b1 05       		.byte	0x5
ARM GAS  /var/folders/z0/6xlwn_996xz3mwq1cgzkbq4r0000gp/T//ccjakVr1.s 			page 156


 7370 06b2 00       		.uleb128 0
 7371 06b3 5AAD0000 		.4byte	.LASF285
 7372 06b7 05       		.byte	0x5
 7373 06b8 00       		.uleb128 0
 7374 06b9 15530000 		.4byte	.LASF286
 7375 06bd 05       		.byte	0x5
 7376 06be 00       		.uleb128 0
 7377 06bf A1460000 		.4byte	.LASF287
 7378 06c3 05       		.byte	0x5
 7379 06c4 00       		.uleb128 0
 7380 06c5 D8830000 		.4byte	.LASF288
 7381 06c9 05       		.byte	0x5
 7382 06ca 00       		.uleb128 0
 7383 06cb E6050000 		.4byte	.LASF289
 7384 06cf 05       		.byte	0x5
 7385 06d0 00       		.uleb128 0
 7386 06d1 59070000 		.4byte	.LASF290
 7387 06d5 05       		.byte	0x5
 7388 06d6 00       		.uleb128 0
 7389 06d7 74870000 		.4byte	.LASF291
 7390 06db 05       		.byte	0x5
 7391 06dc 00       		.uleb128 0
 7392 06dd EA880000 		.4byte	.LASF292
 7393 06e1 05       		.byte	0x5
 7394 06e2 00       		.uleb128 0
 7395 06e3 429D0000 		.4byte	.LASF293
 7396 06e7 05       		.byte	0x5
 7397 06e8 00       		.uleb128 0
 7398 06e9 689E0000 		.4byte	.LASF294
 7399 06ed 05       		.byte	0x5
 7400 06ee 00       		.uleb128 0
 7401 06ef B79F0000 		.4byte	.LASF295
 7402 06f3 05       		.byte	0x5
 7403 06f4 00       		.uleb128 0
 7404 06f5 80AA0000 		.4byte	.LASF296
 7405 06f9 05       		.byte	0x5
 7406 06fa 00       		.uleb128 0
 7407 06fb D5370000 		.4byte	.LASF297
 7408 06ff 05       		.byte	0x5
 7409 0700 00       		.uleb128 0
 7410 0701 3F390000 		.4byte	.LASF298
 7411 0705 05       		.byte	0x5
 7412 0706 00       		.uleb128 0
 7413 0707 10060000 		.4byte	.LASF299
 7414 070b 05       		.byte	0x5
 7415 070c 00       		.uleb128 0
 7416 070d A48C0000 		.4byte	.LASF300
 7417 0711 05       		.byte	0x5
 7418 0712 00       		.uleb128 0
 7419 0713 701D0000 		.4byte	.LASF301
 7420 0717 05       		.byte	0x5
 7421 0718 00       		.uleb128 0
 7422 0719 5C1F0000 		.4byte	.LASF302
 7423 071d 05       		.byte	0x5
 7424 071e 00       		.uleb128 0
 7425 071f BE680000 		.4byte	.LASF303
 7426 0723 05       		.byte	0x5
ARM GAS  /var/folders/z0/6xlwn_996xz3mwq1cgzkbq4r0000gp/T//ccjakVr1.s 			page 157


 7427 0724 00       		.uleb128 0
 7428 0725 8A200000 		.4byte	.LASF304
 7429 0729 05       		.byte	0x5
 7430 072a 00       		.uleb128 0
 7431 072b 97920000 		.4byte	.LASF305
 7432 072f 05       		.byte	0x5
 7433 0730 00       		.uleb128 0
 7434 0731 6A390000 		.4byte	.LASF306
 7435 0735 05       		.byte	0x5
 7436 0736 00       		.uleb128 0
 7437 0737 23880000 		.4byte	.LASF307
 7438 073b 05       		.byte	0x5
 7439 073c 00       		.uleb128 0
 7440 073d 989D0000 		.4byte	.LASF308
 7441 0741 05       		.byte	0x5
 7442 0742 00       		.uleb128 0
 7443 0743 9A6E0000 		.4byte	.LASF309
 7444 0747 05       		.byte	0x5
 7445 0748 00       		.uleb128 0
 7446 0749 B73C0000 		.4byte	.LASF310
 7447 074d 05       		.byte	0x5
 7448 074e 00       		.uleb128 0
 7449 074f F5980000 		.4byte	.LASF311
 7450 0753 05       		.byte	0x5
 7451 0754 00       		.uleb128 0
 7452 0755 93720000 		.4byte	.LASF312
 7453 0759 05       		.byte	0x5
 7454 075a 00       		.uleb128 0
 7455 075b 2F680000 		.4byte	.LASF313
 7456 075f 05       		.byte	0x5
 7457 0760 00       		.uleb128 0
 7458 0761 0D400000 		.4byte	.LASF314
 7459 0765 05       		.byte	0x5
 7460 0766 00       		.uleb128 0
 7461 0767 38780000 		.4byte	.LASF315
 7462 076b 05       		.byte	0x5
 7463 076c 00       		.uleb128 0
 7464 076d 51290000 		.4byte	.LASF316
 7465 0771 05       		.byte	0x5
 7466 0772 00       		.uleb128 0
 7467 0773 A3640000 		.4byte	.LASF317
 7468 0777 05       		.byte	0x5
 7469 0778 00       		.uleb128 0
 7470 0779 58450000 		.4byte	.LASF318
 7471 077d 05       		.byte	0x5
 7472 077e 00       		.uleb128 0
 7473 077f 4B120000 		.4byte	.LASF319
 7474 0783 05       		.byte	0x5
 7475 0784 00       		.uleb128 0
 7476 0785 5F550000 		.4byte	.LASF320
 7477 0789 05       		.byte	0x5
 7478 078a 00       		.uleb128 0
 7479 078b 90530000 		.4byte	.LASF321
 7480 078f 05       		.byte	0x5
 7481 0790 00       		.uleb128 0
 7482 0791 6D990000 		.4byte	.LASF322
 7483 0795 05       		.byte	0x5
ARM GAS  /var/folders/z0/6xlwn_996xz3mwq1cgzkbq4r0000gp/T//ccjakVr1.s 			page 158


 7484 0796 00       		.uleb128 0
 7485 0797 85860000 		.4byte	.LASF323
 7486 079b 05       		.byte	0x5
 7487 079c 00       		.uleb128 0
 7488 079d 9A8A0000 		.4byte	.LASF324
 7489 07a1 05       		.byte	0x5
 7490 07a2 00       		.uleb128 0
 7491 07a3 B5350000 		.4byte	.LASF325
 7492 07a7 05       		.byte	0x5
 7493 07a8 00       		.uleb128 0
 7494 07a9 558D0000 		.4byte	.LASF326
 7495 07ad 05       		.byte	0x5
 7496 07ae 00       		.uleb128 0
 7497 07af D9A10000 		.4byte	.LASF327
 7498 07b3 05       		.byte	0x5
 7499 07b4 00       		.uleb128 0
 7500 07b5 FD6C0000 		.4byte	.LASF328
 7501 07b9 05       		.byte	0x5
 7502 07ba 00       		.uleb128 0
 7503 07bb 5C000000 		.4byte	.LASF329
 7504 07bf 05       		.byte	0x5
 7505 07c0 00       		.uleb128 0
 7506 07c1 CB0B0000 		.4byte	.LASF330
 7507 07c5 05       		.byte	0x5
 7508 07c6 00       		.uleb128 0
 7509 07c7 E4100000 		.4byte	.LASF331
 7510 07cb 05       		.byte	0x5
 7511 07cc 00       		.uleb128 0
 7512 07cd 91A50000 		.4byte	.LASF332
 7513 07d1 05       		.byte	0x5
 7514 07d2 00       		.uleb128 0
 7515 07d3 47400000 		.4byte	.LASF333
 7516 07d7 05       		.byte	0x5
 7517 07d8 00       		.uleb128 0
 7518 07d9 09890000 		.4byte	.LASF334
 7519 07dd 05       		.byte	0x5
 7520 07de 00       		.uleb128 0
 7521 07df CC4D0000 		.4byte	.LASF335
 7522 07e3 05       		.byte	0x5
 7523 07e4 00       		.uleb128 0
 7524 07e5 BAA20000 		.4byte	.LASF336
 7525 07e9 05       		.byte	0x5
 7526 07ea 00       		.uleb128 0
 7527 07eb 61900000 		.4byte	.LASF337
 7528 07ef 05       		.byte	0x5
 7529 07f0 00       		.uleb128 0
 7530 07f1 041B0000 		.4byte	.LASF338
 7531 07f5 05       		.byte	0x5
 7532 07f6 00       		.uleb128 0
 7533 07f7 6D400000 		.4byte	.LASF339
 7534 07fb 05       		.byte	0x5
 7535 07fc 00       		.uleb128 0
 7536 07fd 8B870000 		.4byte	.LASF340
 7537 0801 05       		.byte	0x5
 7538 0802 00       		.uleb128 0
 7539 0803 1B680000 		.4byte	.LASF341
 7540 0807 05       		.byte	0x5
ARM GAS  /var/folders/z0/6xlwn_996xz3mwq1cgzkbq4r0000gp/T//ccjakVr1.s 			page 159


 7541 0808 00       		.uleb128 0
 7542 0809 DE9C0000 		.4byte	.LASF342
 7543 080d 05       		.byte	0x5
 7544 080e 00       		.uleb128 0
 7545 080f EA250000 		.4byte	.LASF343
 7546 0813 05       		.byte	0x5
 7547 0814 00       		.uleb128 0
 7548 0815 FE260000 		.4byte	.LASF344
 7549 0819 05       		.byte	0x5
 7550 081a 00       		.uleb128 0
 7551 081b 9F020000 		.4byte	.LASF345
 7552 081f 05       		.byte	0x5
 7553 0820 00       		.uleb128 0
 7554 0821 164C0000 		.4byte	.LASF346
 7555 0825 00       		.byte	0
 7556              		.section	.debug_macro,"G",%progbits,wm4._newlib_version.h.4.ad342815780c8db09778091a421b5b5b,comda
 7557              	.Ldebug_macro2:
 7558 0000 0400     		.2byte	0x4
 7559 0002 00       		.byte	0
 7560 0003 05       		.byte	0x5
 7561 0004 04       		.uleb128 0x4
 7562 0005 9F4C0000 		.4byte	.LASF352
 7563 0009 05       		.byte	0x5
 7564 000a 06       		.uleb128 0x6
 7565 000b 2A5E0000 		.4byte	.LASF353
 7566 000f 05       		.byte	0x5
 7567 0010 07       		.uleb128 0x7
 7568 0011 F94D0000 		.4byte	.LASF354
 7569 0015 05       		.byte	0x5
 7570 0016 08       		.uleb128 0x8
 7571 0017 42320000 		.4byte	.LASF355
 7572 001b 05       		.byte	0x5
 7573 001c 09       		.uleb128 0x9
 7574 001d 6C3A0000 		.4byte	.LASF356
 7575 0021 00       		.byte	0
 7576              		.section	.debug_macro,"G",%progbits,wm4.features.h.33.863f3be0b2e521e624fcc7d6fa31d2ca,comdat
 7577              	.Ldebug_macro3:
 7578 0000 0400     		.2byte	0x4
 7579 0002 00       		.byte	0
 7580 0003 05       		.byte	0x5
 7581 0004 21       		.uleb128 0x21
 7582 0005 F5740000 		.4byte	.LASF357
 7583 0009 05       		.byte	0x5
 7584 000a 28       		.uleb128 0x28
 7585 000b 16900000 		.4byte	.LASF358
 7586 000f 06       		.byte	0x6
 7587 0010 8001     		.uleb128 0x80
 7588 0012 41300000 		.4byte	.LASF359
 7589 0016 05       		.byte	0x5
 7590 0017 8101     		.uleb128 0x81
 7591 0019 95320000 		.4byte	.LASF360
 7592 001d 06       		.byte	0x6
 7593 001e 8501     		.uleb128 0x85
 7594 0020 87280000 		.4byte	.LASF361
 7595 0024 05       		.byte	0x5
 7596 0025 8601     		.uleb128 0x86
 7597 0027 CE9C0000 		.4byte	.LASF362
ARM GAS  /var/folders/z0/6xlwn_996xz3mwq1cgzkbq4r0000gp/T//ccjakVr1.s 			page 160


 7598 002b 06       		.byte	0x6
 7599 002c 8701     		.uleb128 0x87
 7600 002e 7F090000 		.4byte	.LASF363
 7601 0032 05       		.byte	0x5
 7602 0033 8801     		.uleb128 0x88
 7603 0035 D47B0000 		.4byte	.LASF364
 7604 0039 06       		.byte	0x6
 7605 003a 9B01     		.uleb128 0x9b
 7606 003c 689A0000 		.4byte	.LASF365
 7607 0040 05       		.byte	0x5
 7608 0041 9C01     		.uleb128 0x9c
 7609 0043 FA8F0000 		.4byte	.LASF366
 7610 0047 05       		.byte	0x5
 7611 0048 F201     		.uleb128 0xf2
 7612 004a E96D0000 		.4byte	.LASF367
 7613 004e 05       		.byte	0x5
 7614 004f F801     		.uleb128 0xf8
 7615 0051 487F0000 		.4byte	.LASF368
 7616 0055 05       		.byte	0x5
 7617 0056 8002     		.uleb128 0x100
 7618 0058 638B0000 		.4byte	.LASF369
 7619 005c 05       		.byte	0x5
 7620 005d 8802     		.uleb128 0x108
 7621 005f F5770000 		.4byte	.LASF370
 7622 0063 05       		.byte	0x5
 7623 0064 9002     		.uleb128 0x110
 7624 0066 ACA70000 		.4byte	.LASF371
 7625 006a 05       		.byte	0x5
 7626 006b 9402     		.uleb128 0x114
 7627 006d F8010000 		.4byte	.LASF372
 7628 0071 05       		.byte	0x5
 7629 0072 9A02     		.uleb128 0x11a
 7630 0074 E24D0000 		.4byte	.LASF373
 7631 0078 05       		.byte	0x5
 7632 0079 AA02     		.uleb128 0x12a
 7633 007b 9C410000 		.4byte	.LASF374
 7634 007f 05       		.byte	0x5
 7635 0080 BA02     		.uleb128 0x13a
 7636 0082 B86F0000 		.4byte	.LASF375
 7637 0086 00       		.byte	0
 7638              		.section	.debug_macro,"G",%progbits,wm4._default_types.h.15.933e8edd27a65e0b69af4a865eb623d2,comda
 7639              	.Ldebug_macro4:
 7640 0000 0400     		.2byte	0x4
 7641 0002 00       		.byte	0
 7642 0003 05       		.byte	0x5
 7643 0004 0F       		.uleb128 0xf
 7644 0005 B11D0000 		.4byte	.LASF376
 7645 0009 05       		.byte	0x5
 7646 000a 21       		.uleb128 0x21
 7647 000b 257E0000 		.4byte	.LASF377
 7648 000f 05       		.byte	0x5
 7649 0010 2F       		.uleb128 0x2f
 7650 0011 0F210000 		.4byte	.LASF378
 7651 0015 05       		.byte	0x5
 7652 0016 45       		.uleb128 0x45
 7653 0017 2E470000 		.4byte	.LASF379
 7654 001b 05       		.byte	0x5
ARM GAS  /var/folders/z0/6xlwn_996xz3mwq1cgzkbq4r0000gp/T//ccjakVr1.s 			page 161


 7655 001c 5F       		.uleb128 0x5f
 7656 001d 3A3C0000 		.4byte	.LASF380
 7657 0021 05       		.byte	0x5
 7658 0022 7E       		.uleb128 0x7e
 7659 0023 3B330000 		.4byte	.LASF381
 7660 0027 05       		.byte	0x5
 7661 0028 9801     		.uleb128 0x98
 7662 002a A91B0000 		.4byte	.LASF382
 7663 002e 05       		.byte	0x5
 7664 002f AE01     		.uleb128 0xae
 7665 0031 AE400000 		.4byte	.LASF383
 7666 0035 05       		.byte	0x5
 7667 0036 C001     		.uleb128 0xc0
 7668 0038 A25F0000 		.4byte	.LASF384
 7669 003c 06       		.byte	0x6
 7670 003d D601     		.uleb128 0xd6
 7671 003f 37660000 		.4byte	.LASF385
 7672 0043 00       		.byte	0
 7673              		.section	.debug_macro,"G",%progbits,wm4._intsup.h.10.b82bf99f69d6a5c085fc866de0d3eb9b,comdat
 7674              	.Ldebug_macro5:
 7675 0000 0400     		.2byte	0x4
 7676 0002 00       		.byte	0
 7677 0003 05       		.byte	0x5
 7678 0004 0A       		.uleb128 0xa
 7679 0005 994D0000 		.4byte	.LASF386
 7680 0009 05       		.byte	0x5
 7681 000a 10       		.uleb128 0x10
 7682 000b 37870000 		.4byte	.LASF387
 7683 000f 05       		.byte	0x5
 7684 0010 1A       		.uleb128 0x1a
 7685 0011 14040000 		.4byte	.LASF388
 7686 0015 05       		.byte	0x5
 7687 0016 21       		.uleb128 0x21
 7688 0017 2F940000 		.4byte	.LASF389
 7689 001b 06       		.byte	0x6
 7690 001c 38       		.uleb128 0x38
 7691 001d F7260000 		.4byte	.LASF390
 7692 0021 06       		.byte	0x6
 7693 0022 39       		.uleb128 0x39
 7694 0023 1E6C0000 		.4byte	.LASF391
 7695 0027 06       		.byte	0x6
 7696 0028 3A       		.uleb128 0x3a
 7697 0029 75790000 		.4byte	.LASF392
 7698 002d 06       		.byte	0x6
 7699 002e 3B       		.uleb128 0x3b
 7700 002f CB110000 		.4byte	.LASF393
 7701 0033 02       		.byte	0x2
 7702 0034 3C       		.uleb128 0x3c
 7703 0035 696E7400 		.ascii	"int\000"
 7704 0039 06       		.byte	0x6
 7705 003a 3D       		.uleb128 0x3d
 7706 003b 0E5A0000 		.4byte	.LASF394
 7707 003f 06       		.byte	0x6
 7708 0040 3E       		.uleb128 0x3e
 7709 0041 B29F0000 		.4byte	.LASF395
 7710 0045 05       		.byte	0x5
 7711 0046 3F       		.uleb128 0x3f
ARM GAS  /var/folders/z0/6xlwn_996xz3mwq1cgzkbq4r0000gp/T//ccjakVr1.s 			page 162


 7712 0047 18480000 		.4byte	.LASF396
 7713 004b 05       		.byte	0x5
 7714 004c 40       		.uleb128 0x40
 7715 004d 750A0000 		.4byte	.LASF397
 7716 0051 05       		.byte	0x5
 7717 0052 41       		.uleb128 0x41
 7718 0053 2B9A0000 		.4byte	.LASF398
 7719 0057 05       		.byte	0x5
 7720 0058 42       		.uleb128 0x42
 7721 0059 FA660000 		.4byte	.LASF399
 7722 005d 05       		.byte	0x5
 7723 005e 43       		.uleb128 0x43
 7724 005f FA240000 		.4byte	.LASF400
 7725 0063 05       		.byte	0x5
 7726 0064 44       		.uleb128 0x44
 7727 0065 E5370000 		.4byte	.LASF401
 7728 0069 05       		.byte	0x5
 7729 006a 45       		.uleb128 0x45
 7730 006b 55890000 		.4byte	.LASF402
 7731 006f 05       		.byte	0x5
 7732 0070 4E       		.uleb128 0x4e
 7733 0071 17810000 		.4byte	.LASF403
 7734 0075 05       		.byte	0x5
 7735 0076 55       		.uleb128 0x55
 7736 0077 BD800000 		.4byte	.LASF404
 7737 007b 05       		.byte	0x5
 7738 007c 5D       		.uleb128 0x5d
 7739 007d 96430000 		.4byte	.LASF405
 7740 0081 05       		.byte	0x5
 7741 0082 68       		.uleb128 0x68
 7742 0083 0E870000 		.4byte	.LASF406
 7743 0087 05       		.byte	0x5
 7744 0088 73       		.uleb128 0x73
 7745 0089 979C0000 		.4byte	.LASF407
 7746 008d 05       		.byte	0x5
 7747 008e 7C       		.uleb128 0x7c
 7748 008f 3E9B0000 		.4byte	.LASF408
 7749 0093 05       		.byte	0x5
 7750 0094 8301     		.uleb128 0x83
 7751 0096 0B2D0000 		.4byte	.LASF409
 7752 009a 05       		.byte	0x5
 7753 009b 8C01     		.uleb128 0x8c
 7754 009d 013C0000 		.4byte	.LASF410
 7755 00a1 05       		.byte	0x5
 7756 00a2 9301     		.uleb128 0x93
 7757 00a4 53530000 		.4byte	.LASF411
 7758 00a8 05       		.byte	0x5
 7759 00a9 9E01     		.uleb128 0x9e
 7760 00ab 607E0000 		.4byte	.LASF412
 7761 00af 05       		.byte	0x5
 7762 00b0 A201     		.uleb128 0xa2
 7763 00b2 6A700000 		.4byte	.LASF413
 7764 00b6 05       		.byte	0x5
 7765 00b7 AD01     		.uleb128 0xad
 7766 00b9 88020000 		.4byte	.LASF414
 7767 00bd 05       		.byte	0x5
 7768 00be B801     		.uleb128 0xb8
ARM GAS  /var/folders/z0/6xlwn_996xz3mwq1cgzkbq4r0000gp/T//ccjakVr1.s 			page 163


 7769 00c0 BB2A0000 		.4byte	.LASF415
 7770 00c4 05       		.byte	0x5
 7771 00c5 C101     		.uleb128 0xc1
 7772 00c7 86A00000 		.4byte	.LASF416
 7773 00cb 06       		.byte	0x6
 7774 00cc C301     		.uleb128 0xc3
 7775 00ce F7260000 		.4byte	.LASF390
 7776 00d2 06       		.byte	0x6
 7777 00d3 C401     		.uleb128 0xc4
 7778 00d5 1E6C0000 		.4byte	.LASF391
 7779 00d9 06       		.byte	0x6
 7780 00da C501     		.uleb128 0xc5
 7781 00dc 75790000 		.4byte	.LASF392
 7782 00e0 06       		.byte	0x6
 7783 00e1 C601     		.uleb128 0xc6
 7784 00e3 CB110000 		.4byte	.LASF393
 7785 00e7 02       		.byte	0x2
 7786 00e8 C701     		.uleb128 0xc7
 7787 00ea 696E7400 		.ascii	"int\000"
 7788 00ee 06       		.byte	0x6
 7789 00ef C801     		.uleb128 0xc8
 7790 00f1 B29F0000 		.4byte	.LASF395
 7791 00f5 06       		.byte	0x6
 7792 00f6 CD01     		.uleb128 0xcd
 7793 00f8 0E5A0000 		.4byte	.LASF394
 7794 00fc 00       		.byte	0
 7795              		.section	.debug_macro,"G",%progbits,wm4._stdint.h.10.7a5f60e6741af4a5594a3867d347e1f9,comdat
 7796              	.Ldebug_macro6:
 7797 0000 0400     		.2byte	0x4
 7798 0002 00       		.byte	0
 7799 0003 05       		.byte	0x5
 7800 0004 0A       		.uleb128 0xa
 7801 0005 C8870000 		.4byte	.LASF417
 7802 0009 05       		.byte	0x5
 7803 000a 15       		.uleb128 0x15
 7804 000b 46A70000 		.4byte	.LASF418
 7805 000f 05       		.byte	0x5
 7806 0010 19       		.uleb128 0x19
 7807 0011 0D270000 		.4byte	.LASF419
 7808 0015 05       		.byte	0x5
 7809 0016 1B       		.uleb128 0x1b
 7810 0017 3E3A0000 		.4byte	.LASF420
 7811 001b 05       		.byte	0x5
 7812 001c 21       		.uleb128 0x21
 7813 001d BD880000 		.4byte	.LASF421
 7814 0021 05       		.byte	0x5
 7815 0022 25       		.uleb128 0x25
 7816 0023 2D360000 		.4byte	.LASF422
 7817 0027 05       		.byte	0x5
 7818 0028 27       		.uleb128 0x27
 7819 0029 73490000 		.4byte	.LASF423
 7820 002d 05       		.byte	0x5
 7821 002e 2D       		.uleb128 0x2d
 7822 002f C33A0000 		.4byte	.LASF424
 7823 0033 05       		.byte	0x5
 7824 0034 31       		.uleb128 0x31
 7825 0035 4B9A0000 		.4byte	.LASF425
ARM GAS  /var/folders/z0/6xlwn_996xz3mwq1cgzkbq4r0000gp/T//ccjakVr1.s 			page 164


 7826 0039 05       		.byte	0x5
 7827 003a 33       		.uleb128 0x33
 7828 003b EAAB0000 		.4byte	.LASF426
 7829 003f 05       		.byte	0x5
 7830 0040 39       		.uleb128 0x39
 7831 0041 B1150000 		.4byte	.LASF427
 7832 0045 05       		.byte	0x5
 7833 0046 3D       		.uleb128 0x3d
 7834 0047 793C0000 		.4byte	.LASF428
 7835 004b 05       		.byte	0x5
 7836 004c 3F       		.uleb128 0x3f
 7837 004d AF4F0000 		.4byte	.LASF429
 7838 0051 05       		.byte	0x5
 7839 0052 44       		.uleb128 0x44
 7840 0053 21800000 		.4byte	.LASF430
 7841 0057 05       		.byte	0x5
 7842 0058 49       		.uleb128 0x49
 7843 0059 CF4F0000 		.4byte	.LASF431
 7844 005d 00       		.byte	0
 7845              		.section	.debug_macro,"G",%progbits,wm4.stdint.h.23.373a9d32a9e4c2e88fd347156532d281,comdat
 7846              	.Ldebug_macro7:
 7847 0000 0400     		.2byte	0x4
 7848 0002 00       		.byte	0
 7849 0003 05       		.byte	0x5
 7850 0004 17       		.uleb128 0x17
 7851 0005 56600000 		.4byte	.LASF432
 7852 0009 05       		.byte	0x5
 7853 000a 1D       		.uleb128 0x1d
 7854 000b 587F0000 		.4byte	.LASF433
 7855 000f 05       		.byte	0x5
 7856 0010 23       		.uleb128 0x23
 7857 0011 BFAE0000 		.4byte	.LASF434
 7858 0015 05       		.byte	0x5
 7859 0016 29       		.uleb128 0x29
 7860 0017 D3850000 		.4byte	.LASF435
 7861 001b 05       		.byte	0x5
 7862 001c 35       		.uleb128 0x35
 7863 001d D73B0000 		.4byte	.LASF436
 7864 0021 05       		.byte	0x5
 7865 0022 3F       		.uleb128 0x3f
 7866 0023 FD3C0000 		.4byte	.LASF437
 7867 0027 05       		.byte	0x5
 7868 0028 49       		.uleb128 0x49
 7869 0029 54400000 		.4byte	.LASF438
 7870 002d 05       		.byte	0x5
 7871 002e 53       		.uleb128 0x53
 7872 002f D7910000 		.4byte	.LASF439
 7873 0033 05       		.byte	0x5
 7874 0034 9301     		.uleb128 0x93
 7875 0036 23350000 		.4byte	.LASF440
 7876 003a 05       		.byte	0x5
 7877 003b 9401     		.uleb128 0x94
 7878 003d 107C0000 		.4byte	.LASF441
 7879 0041 05       		.byte	0x5
 7880 0042 9501     		.uleb128 0x95
 7881 0044 C64C0000 		.4byte	.LASF442
 7882 0048 05       		.byte	0x5
ARM GAS  /var/folders/z0/6xlwn_996xz3mwq1cgzkbq4r0000gp/T//ccjakVr1.s 			page 165


 7883 0049 AB01     		.uleb128 0xab
 7884 004b 63760000 		.4byte	.LASF443
 7885 004f 05       		.byte	0x5
 7886 0050 AC01     		.uleb128 0xac
 7887 0052 A67D0000 		.4byte	.LASF444
 7888 0056 05       		.byte	0x5
 7889 0057 AD01     		.uleb128 0xad
 7890 0059 236D0000 		.4byte	.LASF445
 7891 005d 05       		.byte	0x5
 7892 005e B501     		.uleb128 0xb5
 7893 0060 D77F0000 		.4byte	.LASF446
 7894 0064 05       		.byte	0x5
 7895 0065 B601     		.uleb128 0xb6
 7896 0067 B9540000 		.4byte	.LASF447
 7897 006b 05       		.byte	0x5
 7898 006c B701     		.uleb128 0xb7
 7899 006e 3B160000 		.4byte	.LASF448
 7900 0072 05       		.byte	0x5
 7901 0073 C101     		.uleb128 0xc1
 7902 0075 AE270000 		.4byte	.LASF449
 7903 0079 05       		.byte	0x5
 7904 007a C201     		.uleb128 0xc2
 7905 007c A6520000 		.4byte	.LASF450
 7906 0080 05       		.byte	0x5
 7907 0081 C301     		.uleb128 0xc3
 7908 0083 1A1E0000 		.4byte	.LASF451
 7909 0087 05       		.byte	0x5
 7910 0088 CB01     		.uleb128 0xcb
 7911 008a 75290000 		.4byte	.LASF452
 7912 008e 05       		.byte	0x5
 7913 008f CC01     		.uleb128 0xcc
 7914 0091 56A10000 		.4byte	.LASF453
 7915 0095 05       		.byte	0x5
 7916 0096 CD01     		.uleb128 0xcd
 7917 0098 5C7D0000 		.4byte	.LASF454
 7918 009c 05       		.byte	0x5
 7919 009d D701     		.uleb128 0xd7
 7920 009f CA460000 		.4byte	.LASF455
 7921 00a3 05       		.byte	0x5
 7922 00a4 D801     		.uleb128 0xd8
 7923 00a6 FEAE0000 		.4byte	.LASF456
 7924 00aa 05       		.byte	0x5
 7925 00ab D901     		.uleb128 0xd9
 7926 00ad 39820000 		.4byte	.LASF457
 7927 00b1 05       		.byte	0x5
 7928 00b2 E701     		.uleb128 0xe7
 7929 00b4 41060000 		.4byte	.LASF458
 7930 00b8 05       		.byte	0x5
 7931 00b9 E801     		.uleb128 0xe8
 7932 00bb AC0D0000 		.4byte	.LASF459
 7933 00bf 05       		.byte	0x5
 7934 00c0 E901     		.uleb128 0xe9
 7935 00c2 52170000 		.4byte	.LASF460
 7936 00c6 05       		.byte	0x5
 7937 00c7 F901     		.uleb128 0xf9
 7938 00c9 79160000 		.4byte	.LASF461
 7939 00cd 05       		.byte	0x5
ARM GAS  /var/folders/z0/6xlwn_996xz3mwq1cgzkbq4r0000gp/T//ccjakVr1.s 			page 166


 7940 00ce FA01     		.uleb128 0xfa
 7941 00d0 821F0000 		.4byte	.LASF462
 7942 00d4 05       		.byte	0x5
 7943 00d5 FB01     		.uleb128 0xfb
 7944 00d7 22550000 		.4byte	.LASF463
 7945 00db 05       		.byte	0x5
 7946 00dc 8902     		.uleb128 0x109
 7947 00de 9F9B0000 		.4byte	.LASF464
 7948 00e2 05       		.byte	0x5
 7949 00e3 8A02     		.uleb128 0x10a
 7950 00e5 4E250000 		.4byte	.LASF465
 7951 00e9 05       		.byte	0x5
 7952 00ea 8B02     		.uleb128 0x10b
 7953 00ec 5D810000 		.4byte	.LASF466
 7954 00f0 05       		.byte	0x5
 7955 00f1 9902     		.uleb128 0x119
 7956 00f3 0B3C0000 		.4byte	.LASF467
 7957 00f7 05       		.byte	0x5
 7958 00f8 9A02     		.uleb128 0x11a
 7959 00fa 083B0000 		.4byte	.LASF468
 7960 00fe 05       		.byte	0x5
 7961 00ff 9B02     		.uleb128 0x11b
 7962 0101 EE9C0000 		.4byte	.LASF469
 7963 0105 05       		.byte	0x5
 7964 0106 A902     		.uleb128 0x129
 7965 0108 CA580000 		.4byte	.LASF470
 7966 010c 05       		.byte	0x5
 7967 010d AA02     		.uleb128 0x12a
 7968 010f 01230000 		.4byte	.LASF471
 7969 0113 05       		.byte	0x5
 7970 0114 AB02     		.uleb128 0x12b
 7971 0116 B77E0000 		.4byte	.LASF472
 7972 011a 05       		.byte	0x5
 7973 011b B902     		.uleb128 0x139
 7974 011d 480D0000 		.4byte	.LASF473
 7975 0121 05       		.byte	0x5
 7976 0122 BA02     		.uleb128 0x13a
 7977 0124 42A40000 		.4byte	.LASF474
 7978 0128 05       		.byte	0x5
 7979 0129 BB02     		.uleb128 0x13b
 7980 012b D2790000 		.4byte	.LASF475
 7981 012f 05       		.byte	0x5
 7982 0130 C902     		.uleb128 0x149
 7983 0132 D00A0000 		.4byte	.LASF476
 7984 0136 05       		.byte	0x5
 7985 0137 CA02     		.uleb128 0x14a
 7986 0139 14430000 		.4byte	.LASF477
 7987 013d 05       		.byte	0x5
 7988 013e CB02     		.uleb128 0x14b
 7989 0140 EB8D0000 		.4byte	.LASF478
 7990 0144 05       		.byte	0x5
 7991 0145 D902     		.uleb128 0x159
 7992 0147 84040000 		.4byte	.LASF479
 7993 014b 05       		.byte	0x5
 7994 014c DA02     		.uleb128 0x15a
 7995 014e FF400000 		.4byte	.LASF480
 7996 0152 05       		.byte	0x5
ARM GAS  /var/folders/z0/6xlwn_996xz3mwq1cgzkbq4r0000gp/T//ccjakVr1.s 			page 167


 7997 0153 E202     		.uleb128 0x162
 7998 0155 BAA60000 		.4byte	.LASF481
 7999 0159 05       		.byte	0x5
 8000 015a EA02     		.uleb128 0x16a
 8001 015c B8890000 		.4byte	.LASF482
 8002 0160 05       		.byte	0x5
 8003 0161 F002     		.uleb128 0x170
 8004 0163 89050000 		.4byte	.LASF483
 8005 0167 05       		.byte	0x5
 8006 0168 F102     		.uleb128 0x171
 8007 016a 089C0000 		.4byte	.LASF484
 8008 016e 05       		.byte	0x5
 8009 016f F502     		.uleb128 0x175
 8010 0171 B5850000 		.4byte	.LASF485
 8011 0175 05       		.byte	0x5
 8012 0176 F902     		.uleb128 0x179
 8013 0178 29310000 		.4byte	.LASF486
 8014 017c 05       		.byte	0x5
 8015 017d FE02     		.uleb128 0x17e
 8016 017f BAA90000 		.4byte	.LASF487
 8017 0183 05       		.byte	0x5
 8018 0184 8903     		.uleb128 0x189
 8019 0186 C8020000 		.4byte	.LASF488
 8020 018a 05       		.byte	0x5
 8021 018b 9303     		.uleb128 0x193
 8022 018d 3AAE0000 		.4byte	.LASF489
 8023 0191 05       		.byte	0x5
 8024 0192 9803     		.uleb128 0x198
 8025 0194 03670000 		.4byte	.LASF490
 8026 0198 05       		.byte	0x5
 8027 0199 9F03     		.uleb128 0x19f
 8028 019b 59730000 		.4byte	.LASF491
 8029 019f 05       		.byte	0x5
 8030 01a0 A003     		.uleb128 0x1a0
 8031 01a2 5D530000 		.4byte	.LASF492
 8032 01a6 05       		.byte	0x5
 8033 01a7 AB03     		.uleb128 0x1ab
 8034 01a9 F5300000 		.4byte	.LASF493
 8035 01ad 05       		.byte	0x5
 8036 01ae AC03     		.uleb128 0x1ac
 8037 01b0 D0A50000 		.4byte	.LASF494
 8038 01b4 05       		.byte	0x5
 8039 01b5 B703     		.uleb128 0x1b7
 8040 01b7 68070000 		.4byte	.LASF495
 8041 01bb 05       		.byte	0x5
 8042 01bc B803     		.uleb128 0x1b8
 8043 01be F3560000 		.4byte	.LASF496
 8044 01c2 05       		.byte	0x5
 8045 01c3 C403     		.uleb128 0x1c4
 8046 01c5 56080000 		.4byte	.LASF497
 8047 01c9 05       		.byte	0x5
 8048 01ca C503     		.uleb128 0x1c5
 8049 01cc B4760000 		.4byte	.LASF498
 8050 01d0 05       		.byte	0x5
 8051 01d1 D403     		.uleb128 0x1d4
 8052 01d3 4A6E0000 		.4byte	.LASF499
 8053 01d7 05       		.byte	0x5
ARM GAS  /var/folders/z0/6xlwn_996xz3mwq1cgzkbq4r0000gp/T//ccjakVr1.s 			page 168


 8054 01d8 D503     		.uleb128 0x1d5
 8055 01da 3E6B0000 		.4byte	.LASF500
 8056 01de 00       		.byte	0
 8057              		.section	.debug_macro,"G",%progbits,wm4.stdbool.h.29.07dce69c3b78884144b7f7bd19483461,comdat
 8058              	.Ldebug_macro8:
 8059 0000 0400     		.2byte	0x4
 8060 0002 00       		.byte	0
 8061 0003 05       		.byte	0x5
 8062 0004 1D       		.uleb128 0x1d
 8063 0005 73090000 		.4byte	.LASF502
 8064 0009 05       		.byte	0x5
 8065 000a 21       		.uleb128 0x21
 8066 000b 799D0000 		.4byte	.LASF503
 8067 000f 05       		.byte	0x5
 8068 0010 22       		.uleb128 0x22
 8069 0011 01820000 		.4byte	.LASF504
 8070 0015 05       		.byte	0x5
 8071 0016 23       		.uleb128 0x23
 8072 0017 A11B0000 		.4byte	.LASF505
 8073 001b 05       		.byte	0x5
 8074 001c 34       		.uleb128 0x34
 8075 001d 163D0000 		.4byte	.LASF506
 8076 0021 00       		.byte	0
 8077              		.section	.debug_macro,"G",%progbits,wm4.lpc_types.h.63.860ba57581a002825766a7c2ac00d549,comdat
 8078              	.Ldebug_macro9:
 8079 0000 0400     		.2byte	0x4
 8080 0002 00       		.byte	0
 8081 0003 05       		.byte	0x5
 8082 0004 3F       		.uleb128 0x3f
 8083 0005 73850000 		.4byte	.LASF507
 8084 0009 05       		.byte	0x5
 8085 000a 45       		.uleb128 0x45
 8086 000b D72B0000 		.4byte	.LASF508
 8087 000f 06       		.byte	0x6
 8088 0010 66       		.uleb128 0x66
 8089 0011 66780000 		.4byte	.LASF509
 8090 0015 05       		.byte	0x5
 8091 0016 68       		.uleb128 0x68
 8092 0017 D2670000 		.4byte	.LASF510
 8093 001b 06       		.byte	0x6
 8094 001c 6E       		.uleb128 0x6e
 8095 001d D3230000 		.4byte	.LASF511
 8096 0021 05       		.byte	0x5
 8097 0022 70       		.uleb128 0x70
 8098 0023 576C0000 		.4byte	.LASF512
 8099 0027 06       		.byte	0x6
 8100 0028 7F       		.uleb128 0x7f
 8101 0029 BE7D0000 		.4byte	.LASF513
 8102 002d 05       		.byte	0x5
 8103 002e 8101     		.uleb128 0x81
 8104 0030 CCA20000 		.4byte	.LASF514
 8105 0034 05       		.byte	0x5
 8106 0035 8501     		.uleb128 0x85
 8107 0037 97500000 		.4byte	.LASF515
 8108 003b 05       		.byte	0x5
 8109 003c 8901     		.uleb128 0x89
 8110 003e D75F0000 		.4byte	.LASF516
ARM GAS  /var/folders/z0/6xlwn_996xz3mwq1cgzkbq4r0000gp/T//ccjakVr1.s 			page 169


 8111 0042 05       		.byte	0x5
 8112 0043 8C01     		.uleb128 0x8c
 8113 0045 C86D0000 		.4byte	.LASF517
 8114 0049 05       		.byte	0x5
 8115 004a 8E01     		.uleb128 0x8e
 8116 004c B80C0000 		.4byte	.LASF518
 8117 0050 05       		.byte	0x5
 8118 0051 9101     		.uleb128 0x91
 8119 0053 A46F0000 		.4byte	.LASF519
 8120 0057 05       		.byte	0x5
 8121 0058 9401     		.uleb128 0x94
 8122 005a A56D0000 		.4byte	.LASF520
 8123 005e 05       		.byte	0x5
 8124 005f 9701     		.uleb128 0x97
 8125 0061 4CAA0000 		.4byte	.LASF521
 8126 0065 05       		.byte	0x5
 8127 0066 D001     		.uleb128 0xd0
 8128 0068 1F360000 		.4byte	.LASF522
 8129 006c 00       		.byte	0
 8130              		.section	.debug_macro,"G",%progbits,wm4.sys_config.h.31.9f234e9c90333d233c7e647ebe63e928,comdat
 8131              	.Ldebug_macro10:
 8132 0000 0400     		.2byte	0x4
 8133 0002 00       		.byte	0
 8134 0003 05       		.byte	0x5
 8135 0004 1F       		.uleb128 0x1f
 8136 0005 80760000 		.4byte	.LASF523
 8137 0009 05       		.byte	0x5
 8138 000a 26       		.uleb128 0x26
 8139 000b ABA60000 		.4byte	.LASF524
 8140 000f 00       		.byte	0
 8141              		.section	.debug_macro,"G",%progbits,wm4.cmsis_11cxx.h.33.407e9bbb5d170cd1552d3f7dc3fd5c42,comdat
 8142              	.Ldebug_macro11:
 8143 0000 0400     		.2byte	0x4
 8144 0002 00       		.byte	0
 8145 0003 05       		.byte	0x5
 8146 0004 21       		.uleb128 0x21
 8147 0005 541E0000 		.4byte	.LASF526
 8148 0009 05       		.byte	0x5
 8149 000a 8801     		.uleb128 0x88
 8150 000c C0A40000 		.4byte	.LASF527
 8151 0010 05       		.byte	0x5
 8152 0011 8901     		.uleb128 0x89
 8153 0013 C42B0000 		.4byte	.LASF528
 8154 0017 05       		.byte	0x5
 8155 0018 8A01     		.uleb128 0x8a
 8156 001a 135F0000 		.4byte	.LASF529
 8157 001e 00       		.byte	0
 8158              		.section	.debug_macro,"G",%progbits,wm4.core_cm0.h.32.192d13cfa8b31e63c86621de62eb153f,comdat
 8159              	.Ldebug_macro12:
 8160 0000 0400     		.2byte	0x4
 8161 0002 00       		.byte	0
 8162 0003 05       		.byte	0x5
 8163 0004 20       		.uleb128 0x20
 8164 0005 98400000 		.4byte	.LASF530
 8165 0009 05       		.byte	0x5
 8166 000a 38       		.uleb128 0x38
 8167 000b 6F600000 		.4byte	.LASF531
ARM GAS  /var/folders/z0/6xlwn_996xz3mwq1cgzkbq4r0000gp/T//ccjakVr1.s 			page 170


 8168 000f 05       		.byte	0x5
 8169 0010 39       		.uleb128 0x39
 8170 0011 DD2D0000 		.4byte	.LASF532
 8171 0015 05       		.byte	0x5
 8172 0016 3A       		.uleb128 0x3a
 8173 0017 A6420000 		.4byte	.LASF533
 8174 001b 05       		.byte	0x5
 8175 001c 3D       		.uleb128 0x3d
 8176 001d 66460000 		.4byte	.LASF534
 8177 0021 05       		.byte	0x5
 8178 0022 4B       		.uleb128 0x4b
 8179 0023 D4A30000 		.4byte	.LASF535
 8180 0027 05       		.byte	0x5
 8181 0028 4C       		.uleb128 0x4c
 8182 0029 73050000 		.4byte	.LASF536
 8183 002d 05       		.byte	0x5
 8184 002e 4D       		.uleb128 0x4d
 8185 002f 1DA90000 		.4byte	.LASF537
 8186 0033 05       		.byte	0x5
 8187 0034 58       		.uleb128 0x58
 8188 0035 E3730000 		.4byte	.LASF538
 8189 0039 00       		.byte	0
 8190              		.section	.debug_macro,"G",%progbits,wm4.core_cm0.h.120.f4257ea7d0bce0cbabffe223e23b2fd4,comdat
 8191              	.Ldebug_macro13:
 8192 0000 0400     		.2byte	0x4
 8193 0002 00       		.byte	0
 8194 0003 05       		.byte	0x5
 8195 0004 78       		.uleb128 0x78
 8196 0005 72AC0000 		.4byte	.LASF541
 8197 0009 05       		.byte	0x5
 8198 000a 9701     		.uleb128 0x97
 8199 000c 20060000 		.4byte	.LASF542
 8200 0010 05       		.byte	0x5
 8201 0011 9901     		.uleb128 0x99
 8202 0013 DC750000 		.4byte	.LASF543
 8203 0017 05       		.byte	0x5
 8204 0018 9A01     		.uleb128 0x9a
 8205 001a FA0B0000 		.4byte	.LASF544
 8206 001e 05       		.byte	0x5
 8207 001f B002     		.uleb128 0x130
 8208 0021 DD5E0000 		.4byte	.LASF545
 8209 0025 05       		.byte	0x5
 8210 0026 B102     		.uleb128 0x131
 8211 0028 09020000 		.4byte	.LASF546
 8212 002c 05       		.byte	0x5
 8213 002d B302     		.uleb128 0x133
 8214 002f 24530000 		.4byte	.LASF547
 8215 0033 05       		.byte	0x5
 8216 0034 B402     		.uleb128 0x134
 8217 0036 3E790000 		.4byte	.LASF548
 8218 003a 05       		.byte	0x5
 8219 003b B602     		.uleb128 0x136
 8220 003d BC6E0000 		.4byte	.LASF549
 8221 0041 05       		.byte	0x5
 8222 0042 B702     		.uleb128 0x137
 8223 0044 767E0000 		.4byte	.LASF550
 8224 0048 05       		.byte	0x5
ARM GAS  /var/folders/z0/6xlwn_996xz3mwq1cgzkbq4r0000gp/T//ccjakVr1.s 			page 171


 8225 0049 B902     		.uleb128 0x139
 8226 004b FB530000 		.4byte	.LASF551
 8227 004f 05       		.byte	0x5
 8228 0050 BA02     		.uleb128 0x13a
 8229 0052 76310000 		.4byte	.LASF552
 8230 0056 05       		.byte	0x5
 8231 0057 BC02     		.uleb128 0x13c
 8232 0059 C7190000 		.4byte	.LASF553
 8233 005d 05       		.byte	0x5
 8234 005e BD02     		.uleb128 0x13d
 8235 0060 95080000 		.4byte	.LASF554
 8236 0064 05       		.byte	0x5
 8237 0065 C002     		.uleb128 0x140
 8238 0067 3A3B0000 		.4byte	.LASF555
 8239 006b 05       		.byte	0x5
 8240 006c C102     		.uleb128 0x141
 8241 006e E68B0000 		.4byte	.LASF556
 8242 0072 05       		.byte	0x5
 8243 0073 C302     		.uleb128 0x143
 8244 0075 00440000 		.4byte	.LASF557
 8245 0079 05       		.byte	0x5
 8246 007a C402     		.uleb128 0x144
 8247 007c 9E370000 		.4byte	.LASF558
 8248 0080 05       		.byte	0x5
 8249 0081 C602     		.uleb128 0x146
 8250 0083 5B9F0000 		.4byte	.LASF559
 8251 0087 05       		.byte	0x5
 8252 0088 C702     		.uleb128 0x147
 8253 008a BE740000 		.4byte	.LASF560
 8254 008e 05       		.byte	0x5
 8255 008f C902     		.uleb128 0x149
 8256 0091 3B090000 		.4byte	.LASF561
 8257 0095 05       		.byte	0x5
 8258 0096 CA02     		.uleb128 0x14a
 8259 0098 1F8F0000 		.4byte	.LASF562
 8260 009c 05       		.byte	0x5
 8261 009d CC02     		.uleb128 0x14c
 8262 009f 4F5D0000 		.4byte	.LASF563
 8263 00a3 05       		.byte	0x5
 8264 00a4 CD02     		.uleb128 0x14d
 8265 00a6 DE780000 		.4byte	.LASF564
 8266 00aa 05       		.byte	0x5
 8267 00ab CF02     		.uleb128 0x14f
 8268 00ad 843A0000 		.4byte	.LASF565
 8269 00b1 05       		.byte	0x5
 8270 00b2 D002     		.uleb128 0x150
 8271 00b4 4E650000 		.4byte	.LASF566
 8272 00b8 05       		.byte	0x5
 8273 00b9 D202     		.uleb128 0x152
 8274 00bb 14100000 		.4byte	.LASF567
 8275 00bf 05       		.byte	0x5
 8276 00c0 D302     		.uleb128 0x153
 8277 00c2 B0930000 		.4byte	.LASF568
 8278 00c6 05       		.byte	0x5
 8279 00c7 D502     		.uleb128 0x155
 8280 00c9 0B370000 		.4byte	.LASF569
 8281 00cd 05       		.byte	0x5
ARM GAS  /var/folders/z0/6xlwn_996xz3mwq1cgzkbq4r0000gp/T//ccjakVr1.s 			page 172


 8282 00ce D602     		.uleb128 0x156
 8283 00d0 03320000 		.4byte	.LASF570
 8284 00d4 05       		.byte	0x5
 8285 00d5 D802     		.uleb128 0x158
 8286 00d7 882F0000 		.4byte	.LASF571
 8287 00db 05       		.byte	0x5
 8288 00dc D902     		.uleb128 0x159
 8289 00de 792B0000 		.4byte	.LASF572
 8290 00e2 05       		.byte	0x5
 8291 00e3 DC02     		.uleb128 0x15c
 8292 00e5 0A350000 		.4byte	.LASF573
 8293 00e9 05       		.byte	0x5
 8294 00ea DD02     		.uleb128 0x15d
 8295 00ec 361D0000 		.4byte	.LASF574
 8296 00f0 05       		.byte	0x5
 8297 00f1 DF02     		.uleb128 0x15f
 8298 00f3 6AAE0000 		.4byte	.LASF575
 8299 00f7 05       		.byte	0x5
 8300 00f8 E002     		.uleb128 0x160
 8301 00fa 26AC0000 		.4byte	.LASF576
 8302 00fe 05       		.byte	0x5
 8303 00ff E202     		.uleb128 0x162
 8304 0101 45950000 		.4byte	.LASF577
 8305 0105 05       		.byte	0x5
 8306 0106 E302     		.uleb128 0x163
 8307 0108 6C380000 		.4byte	.LASF578
 8308 010c 05       		.byte	0x5
 8309 010d E502     		.uleb128 0x165
 8310 010f E9930000 		.4byte	.LASF579
 8311 0113 05       		.byte	0x5
 8312 0114 E602     		.uleb128 0x166
 8313 0116 954B0000 		.4byte	.LASF580
 8314 011a 05       		.byte	0x5
 8315 011b E802     		.uleb128 0x168
 8316 011d EB2E0000 		.4byte	.LASF581
 8317 0121 05       		.byte	0x5
 8318 0122 E902     		.uleb128 0x169
 8319 0124 3F800000 		.4byte	.LASF582
 8320 0128 05       		.byte	0x5
 8321 0129 EC02     		.uleb128 0x16c
 8322 012b F2820000 		.4byte	.LASF583
 8323 012f 05       		.byte	0x5
 8324 0130 ED02     		.uleb128 0x16d
 8325 0132 AE7C0000 		.4byte	.LASF584
 8326 0136 05       		.byte	0x5
 8327 0137 EF02     		.uleb128 0x16f
 8328 0139 52AE0000 		.4byte	.LASF585
 8329 013d 05       		.byte	0x5
 8330 013e F002     		.uleb128 0x170
 8331 0140 43470000 		.4byte	.LASF586
 8332 0144 05       		.byte	0x5
 8333 0145 F202     		.uleb128 0x172
 8334 0147 8F600000 		.4byte	.LASF587
 8335 014b 05       		.byte	0x5
 8336 014c F302     		.uleb128 0x173
 8337 014e 37770000 		.4byte	.LASF588
 8338 0152 05       		.byte	0x5
ARM GAS  /var/folders/z0/6xlwn_996xz3mwq1cgzkbq4r0000gp/T//ccjakVr1.s 			page 173


 8339 0153 F602     		.uleb128 0x176
 8340 0155 4E5A0000 		.4byte	.LASF589
 8341 0159 05       		.byte	0x5
 8342 015a F702     		.uleb128 0x177
 8343 015c DB180000 		.4byte	.LASF590
 8344 0160 05       		.byte	0x5
 8345 0161 F902     		.uleb128 0x179
 8346 0163 90450000 		.4byte	.LASF591
 8347 0167 05       		.byte	0x5
 8348 0168 FA02     		.uleb128 0x17a
 8349 016a 35840000 		.4byte	.LASF592
 8350 016e 05       		.byte	0x5
 8351 016f FD02     		.uleb128 0x17d
 8352 0171 0D8D0000 		.4byte	.LASF593
 8353 0175 05       		.byte	0x5
 8354 0176 FE02     		.uleb128 0x17e
 8355 0178 FC2D0000 		.4byte	.LASF594
 8356 017c 05       		.byte	0x5
 8357 017d 9403     		.uleb128 0x194
 8358 017f C48D0000 		.4byte	.LASF595
 8359 0183 05       		.byte	0x5
 8360 0184 9503     		.uleb128 0x195
 8361 0186 BC4E0000 		.4byte	.LASF596
 8362 018a 05       		.byte	0x5
 8363 018b 9703     		.uleb128 0x197
 8364 018d 48610000 		.4byte	.LASF597
 8365 0191 05       		.byte	0x5
 8366 0192 9803     		.uleb128 0x198
 8367 0194 76710000 		.4byte	.LASF598
 8368 0198 05       		.byte	0x5
 8369 0199 9A03     		.uleb128 0x19a
 8370 019b 08820000 		.4byte	.LASF599
 8371 019f 05       		.byte	0x5
 8372 01a0 9B03     		.uleb128 0x19b
 8373 01a2 C77D0000 		.4byte	.LASF600
 8374 01a6 05       		.byte	0x5
 8375 01a7 9D03     		.uleb128 0x19d
 8376 01a9 D15A0000 		.4byte	.LASF601
 8377 01ad 05       		.byte	0x5
 8378 01ae 9E03     		.uleb128 0x19e
 8379 01b0 C05D0000 		.4byte	.LASF602
 8380 01b4 05       		.byte	0x5
 8381 01b5 A103     		.uleb128 0x1a1
 8382 01b7 14A30000 		.4byte	.LASF603
 8383 01bb 05       		.byte	0x5
 8384 01bc A203     		.uleb128 0x1a2
 8385 01be 12170000 		.4byte	.LASF604
 8386 01c2 05       		.byte	0x5
 8387 01c3 A503     		.uleb128 0x1a5
 8388 01c5 8B830000 		.4byte	.LASF605
 8389 01c9 05       		.byte	0x5
 8390 01ca A603     		.uleb128 0x1a6
 8391 01cc 656D0000 		.4byte	.LASF606
 8392 01d0 05       		.byte	0x5
 8393 01d1 A903     		.uleb128 0x1a9
 8394 01d3 EF5B0000 		.4byte	.LASF607
 8395 01d7 05       		.byte	0x5
ARM GAS  /var/folders/z0/6xlwn_996xz3mwq1cgzkbq4r0000gp/T//ccjakVr1.s 			page 174


 8396 01d8 AA03     		.uleb128 0x1aa
 8397 01da 31700000 		.4byte	.LASF608
 8398 01de 05       		.byte	0x5
 8399 01df AC03     		.uleb128 0x1ac
 8400 01e1 EB350000 		.4byte	.LASF609
 8401 01e5 05       		.byte	0x5
 8402 01e6 AD03     		.uleb128 0x1ad
 8403 01e8 72510000 		.4byte	.LASF610
 8404 01ec 05       		.byte	0x5
 8405 01ed AF03     		.uleb128 0x1af
 8406 01ef 425E0000 		.4byte	.LASF611
 8407 01f3 05       		.byte	0x5
 8408 01f4 B003     		.uleb128 0x1b0
 8409 01f6 AA250000 		.4byte	.LASF612
 8410 01fa 05       		.byte	0x5
 8411 01fb C603     		.uleb128 0x1c6
 8412 01fd 41990000 		.4byte	.LASF613
 8413 0201 05       		.byte	0x5
 8414 0202 C703     		.uleb128 0x1c7
 8415 0204 70770000 		.4byte	.LASF614
 8416 0208 05       		.byte	0x5
 8417 0209 C803     		.uleb128 0x1c8
 8418 020b 1E3A0000 		.4byte	.LASF615
 8419 020f 05       		.byte	0x5
 8420 0210 C903     		.uleb128 0x1c9
 8421 0212 37210000 		.4byte	.LASF616
 8422 0216 05       		.byte	0x5
 8423 0217 CB03     		.uleb128 0x1cb
 8424 0219 FD1D0000 		.4byte	.LASF617
 8425 021d 05       		.byte	0x5
 8426 021e CC03     		.uleb128 0x1cc
 8427 0220 15790000 		.4byte	.LASF618
 8428 0224 05       		.byte	0x5
 8429 0225 CD03     		.uleb128 0x1cd
 8430 0227 638F0000 		.4byte	.LASF619
 8431 022b 05       		.byte	0x5
 8432 022c E903     		.uleb128 0x1e9
 8433 022e DC440000 		.4byte	.LASF620
 8434 0232 05       		.byte	0x5
 8435 0233 EA03     		.uleb128 0x1ea
 8436 0235 4E5C0000 		.4byte	.LASF621
 8437 0239 05       		.byte	0x5
 8438 023a EB03     		.uleb128 0x1eb
 8439 023c 348E0000 		.4byte	.LASF622
 8440 0240 00       		.byte	0
 8441              		.section	.debug_macro,"G",%progbits,wm4.chip.h.116.857da603c399e979152c31968de4baae,comdat
 8442              	.Ldebug_macro14:
 8443 0000 0400     		.2byte	0x4
 8444 0002 00       		.byte	0
 8445 0003 05       		.byte	0x5
 8446 0004 74       		.uleb128 0x74
 8447 0005 F37E0000 		.4byte	.LASF623
 8448 0009 05       		.byte	0x5
 8449 000a 75       		.uleb128 0x75
 8450 000b 12540000 		.4byte	.LASF624
 8451 000f 05       		.byte	0x5
 8452 0010 76       		.uleb128 0x76
ARM GAS  /var/folders/z0/6xlwn_996xz3mwq1cgzkbq4r0000gp/T//ccjakVr1.s 			page 175


 8453 0011 850D0000 		.4byte	.LASF625
 8454 0015 05       		.byte	0x5
 8455 0016 77       		.uleb128 0x77
 8456 0017 2C410000 		.4byte	.LASF626
 8457 001b 05       		.byte	0x5
 8458 001c 78       		.uleb128 0x78
 8459 001d 8B4E0000 		.4byte	.LASF627
 8460 0021 05       		.byte	0x5
 8461 0022 79       		.uleb128 0x79
 8462 0023 661B0000 		.4byte	.LASF628
 8463 0027 05       		.byte	0x5
 8464 0028 7A       		.uleb128 0x7a
 8465 0029 E3680000 		.4byte	.LASF629
 8466 002d 05       		.byte	0x5
 8467 002e 7B       		.uleb128 0x7b
 8468 002f 20970000 		.4byte	.LASF630
 8469 0033 05       		.byte	0x5
 8470 0034 7C       		.uleb128 0x7c
 8471 0035 4B9B0000 		.4byte	.LASF631
 8472 0039 05       		.byte	0x5
 8473 003a 7D       		.uleb128 0x7d
 8474 003b 51490000 		.4byte	.LASF632
 8475 003f 05       		.byte	0x5
 8476 0040 7E       		.uleb128 0x7e
 8477 0041 4FA80000 		.4byte	.LASF633
 8478 0045 05       		.byte	0x5
 8479 0046 7F       		.uleb128 0x7f
 8480 0047 B60A0000 		.4byte	.LASF634
 8481 004b 05       		.byte	0x5
 8482 004c 8001     		.uleb128 0x80
 8483 004e 3C8D0000 		.4byte	.LASF635
 8484 0052 05       		.byte	0x5
 8485 0053 8101     		.uleb128 0x81
 8486 0055 A65D0000 		.4byte	.LASF636
 8487 0059 05       		.byte	0x5
 8488 005a 8201     		.uleb128 0x82
 8489 005c A2210000 		.4byte	.LASF637
 8490 0060 05       		.byte	0x5
 8491 0061 8301     		.uleb128 0x83
 8492 0063 E0170000 		.4byte	.LASF638
 8493 0067 05       		.byte	0x5
 8494 0068 8401     		.uleb128 0x84
 8495 006a FBA20000 		.4byte	.LASF639
 8496 006e 05       		.byte	0x5
 8497 006f 8501     		.uleb128 0x85
 8498 0071 E3520000 		.4byte	.LASF640
 8499 0075 05       		.byte	0x5
 8500 0076 9001     		.uleb128 0x90
 8501 0078 29590000 		.4byte	.LASF641
 8502 007c 05       		.byte	0x5
 8503 007d 9101     		.uleb128 0x91
 8504 007f 2C850000 		.4byte	.LASF642
 8505 0083 05       		.byte	0x5
 8506 0084 9301     		.uleb128 0x93
 8507 0086 68630000 		.4byte	.LASF643
 8508 008a 05       		.byte	0x5
 8509 008b 9401     		.uleb128 0x94
ARM GAS  /var/folders/z0/6xlwn_996xz3mwq1cgzkbq4r0000gp/T//ccjakVr1.s 			page 176


 8510 008d 1B7D0000 		.4byte	.LASF644
 8511 0091 05       		.byte	0x5
 8512 0092 9701     		.uleb128 0x97
 8513 0094 CA9B0000 		.4byte	.LASF645
 8514 0098 05       		.byte	0x5
 8515 0099 9801     		.uleb128 0x98
 8516 009b 80680000 		.4byte	.LASF646
 8517 009f 05       		.byte	0x5
 8518 00a0 9B01     		.uleb128 0x9b
 8519 00a2 372D0000 		.4byte	.LASF647
 8520 00a6 05       		.byte	0x5
 8521 00a7 9E01     		.uleb128 0x9e
 8522 00a9 55820000 		.4byte	.LASF648
 8523 00ad 05       		.byte	0x5
 8524 00ae 9F01     		.uleb128 0x9f
 8525 00b0 727F0000 		.4byte	.LASF649
 8526 00b4 05       		.byte	0x5
 8527 00b5 A001     		.uleb128 0xa0
 8528 00b7 3E910000 		.4byte	.LASF650
 8529 00bb 05       		.byte	0x5
 8530 00bc A101     		.uleb128 0xa1
 8531 00be F3320000 		.4byte	.LASF651
 8532 00c2 05       		.byte	0x5
 8533 00c3 A201     		.uleb128 0xa2
 8534 00c5 F91F0000 		.4byte	.LASF652
 8535 00c9 05       		.byte	0x5
 8536 00ca A301     		.uleb128 0xa3
 8537 00cc 748D0000 		.4byte	.LASF653
 8538 00d0 05       		.byte	0x5
 8539 00d1 A401     		.uleb128 0xa4
 8540 00d3 DC490000 		.4byte	.LASF654
 8541 00d7 05       		.byte	0x5
 8542 00d8 B101     		.uleb128 0xb1
 8543 00da 5A9C0000 		.4byte	.LASF655
 8544 00de 05       		.byte	0x5
 8545 00df B201     		.uleb128 0xb2
 8546 00e1 B0840000 		.4byte	.LASF656
 8547 00e5 05       		.byte	0x5
 8548 00e6 B301     		.uleb128 0xb3
 8549 00e8 4C680000 		.4byte	.LASF657
 8550 00ec 05       		.byte	0x5
 8551 00ed B401     		.uleb128 0xb4
 8552 00ef 83270000 		.4byte	.LASF658
 8553 00f3 05       		.byte	0x5
 8554 00f4 B501     		.uleb128 0xb5
 8555 00f6 20270000 		.4byte	.LASF659
 8556 00fa 05       		.byte	0x5
 8557 00fb B701     		.uleb128 0xb7
 8558 00fd 397E0000 		.4byte	.LASF660
 8559 0101 05       		.byte	0x5
 8560 0102 B801     		.uleb128 0xb8
 8561 0104 801C0000 		.4byte	.LASF661
 8562 0108 05       		.byte	0x5
 8563 0109 BA01     		.uleb128 0xba
 8564 010b A2870000 		.4byte	.LASF662
 8565 010f 05       		.byte	0x5
 8566 0110 C101     		.uleb128 0xc1
ARM GAS  /var/folders/z0/6xlwn_996xz3mwq1cgzkbq4r0000gp/T//ccjakVr1.s 			page 177


 8567 0112 BC8A0000 		.4byte	.LASF663
 8568 0116 05       		.byte	0x5
 8569 0117 C401     		.uleb128 0xc4
 8570 0119 EF710000 		.4byte	.LASF664
 8571 011d 00       		.byte	0
 8572              		.section	.debug_macro,"G",%progbits,wm4.pmu_11xx.h.33.1d6b708881441cb98d19b8bab3caa180,comdat
 8573              	.Ldebug_macro15:
 8574 0000 0400     		.2byte	0x4
 8575 0002 00       		.byte	0
 8576 0003 05       		.byte	0x5
 8577 0004 21       		.uleb128 0x21
 8578 0005 D3510000 		.4byte	.LASF665
 8579 0009 05       		.byte	0x5
 8580 000a 4D       		.uleb128 0x4d
 8581 000b 7B5B0000 		.4byte	.LASF666
 8582 000f 05       		.byte	0x5
 8583 0010 53       		.uleb128 0x53
 8584 0011 B39A0000 		.4byte	.LASF667
 8585 0015 05       		.byte	0x5
 8586 0016 55       		.uleb128 0x55
 8587 0017 57590000 		.4byte	.LASF668
 8588 001b 05       		.byte	0x5
 8589 001c 56       		.uleb128 0x56
 8590 001d 11860000 		.4byte	.LASF669
 8591 0021 00       		.byte	0
 8592              		.section	.debug_macro,"G",%progbits,wm4.sysctl_11xx.h.33.ae61a1181e608f8409883008e291930c,comdat
 8593              	.Ldebug_macro16:
 8594 0000 0400     		.2byte	0x4
 8595 0002 00       		.byte	0
 8596 0003 05       		.byte	0x5
 8597 0004 21       		.uleb128 0x21
 8598 0005 3D660000 		.4byte	.LASF671
 8599 0009 05       		.byte	0x5
 8600 000a BC01     		.uleb128 0xbc
 8601 000c D1A00000 		.4byte	.LASF672
 8602 0010 05       		.byte	0x5
 8603 0011 BD01     		.uleb128 0xbd
 8604 0013 2D7F0000 		.4byte	.LASF673
 8605 0017 05       		.byte	0x5
 8606 0018 BE01     		.uleb128 0xbe
 8607 001a 487A0000 		.4byte	.LASF674
 8608 001e 05       		.byte	0x5
 8609 001f BF01     		.uleb128 0xbf
 8610 0021 F9600000 		.4byte	.LASF675
 8611 0025 05       		.byte	0x5
 8612 0026 C001     		.uleb128 0xc0
 8613 0028 88360000 		.4byte	.LASF676
 8614 002c 05       		.byte	0x5
 8615 002d C501     		.uleb128 0xc5
 8616 002f 835E0000 		.4byte	.LASF677
 8617 0033 05       		.byte	0x5
 8618 0034 A904     		.uleb128 0x229
 8619 0036 31180000 		.4byte	.LASF678
 8620 003a 05       		.byte	0x5
 8621 003b AA04     		.uleb128 0x22a
 8622 003d 52740000 		.4byte	.LASF679
 8623 0041 05       		.byte	0x5
ARM GAS  /var/folders/z0/6xlwn_996xz3mwq1cgzkbq4r0000gp/T//ccjakVr1.s 			page 178


 8624 0042 C904     		.uleb128 0x249
 8625 0044 C9920000 		.4byte	.LASF680
 8626 0048 05       		.byte	0x5
 8627 0049 CA04     		.uleb128 0x24a
 8628 004b AC110000 		.4byte	.LASF681
 8629 004f 05       		.byte	0x5
 8630 0050 CB04     		.uleb128 0x24b
 8631 0052 90A90000 		.4byte	.LASF682
 8632 0056 05       		.byte	0x5
 8633 0057 CC04     		.uleb128 0x24c
 8634 0059 C1380000 		.4byte	.LASF683
 8635 005d 05       		.byte	0x5
 8636 005e CD04     		.uleb128 0x24d
 8637 0060 C5360000 		.4byte	.LASF684
 8638 0064 05       		.byte	0x5
 8639 0065 CE04     		.uleb128 0x24e
 8640 0067 38430000 		.4byte	.LASF685
 8641 006b 05       		.byte	0x5
 8642 006c CF04     		.uleb128 0x24f
 8643 006e F9510000 		.4byte	.LASF686
 8644 0072 05       		.byte	0x5
 8645 0073 D004     		.uleb128 0x250
 8646 0075 2DA60000 		.4byte	.LASF687
 8647 0079 05       		.byte	0x5
 8648 007a F104     		.uleb128 0x271
 8649 007c 096F0000 		.4byte	.LASF688
 8650 0080 05       		.byte	0x5
 8651 0081 F204     		.uleb128 0x272
 8652 0083 3E550000 		.4byte	.LASF689
 8653 0087 05       		.byte	0x5
 8654 0088 F304     		.uleb128 0x273
 8655 008a BD9E0000 		.4byte	.LASF690
 8656 008e 05       		.byte	0x5
 8657 008f F504     		.uleb128 0x275
 8658 0091 457B0000 		.4byte	.LASF691
 8659 0095 05       		.byte	0x5
 8660 0096 F704     		.uleb128 0x277
 8661 0098 7A790000 		.4byte	.LASF692
 8662 009c 05       		.byte	0x5
 8663 009d F804     		.uleb128 0x278
 8664 009f C4150000 		.4byte	.LASF693
 8665 00a3 05       		.byte	0x5
 8666 00a4 F904     		.uleb128 0x279
 8667 00a6 EC7B0000 		.4byte	.LASF694
 8668 00aa 05       		.byte	0x5
 8669 00ab FA04     		.uleb128 0x27a
 8670 00ad C1200000 		.4byte	.LASF695
 8671 00b1 00       		.byte	0
 8672              		.section	.debug_macro,"G",%progbits,wm4.clock_11xx.h.33.23290a9e2ed919e3a6958d25130bc848,comdat
 8673              	.Ldebug_macro17:
 8674 0000 0400     		.2byte	0x4
 8675 0002 00       		.byte	0
 8676 0003 05       		.byte	0x5
 8677 0004 21       		.uleb128 0x21
 8678 0005 CE310000 		.4byte	.LASF696
 8679 0009 05       		.byte	0x5
 8680 000a 2D       		.uleb128 0x2d
ARM GAS  /var/folders/z0/6xlwn_996xz3mwq1cgzkbq4r0000gp/T//ccjakVr1.s 			page 179


 8681 000b 9C3C0000 		.4byte	.LASF697
 8682 000f 00       		.byte	0
 8683              		.section	.debug_macro,"G",%progbits,wm4.iocon_11xx.h.33.25e2b3cde122df23fb07b984cb4f3a93,comdat
 8684              	.Ldebug_macro18:
 8685 0000 0400     		.2byte	0x4
 8686 0002 00       		.byte	0
 8687 0003 05       		.byte	0x5
 8688 0004 21       		.uleb128 0x21
 8689 0005 166B0000 		.4byte	.LASF698
 8690 0009 05       		.byte	0x5
 8691 000a A601     		.uleb128 0xa6
 8692 000c 706B0000 		.4byte	.LASF699
 8693 0010 05       		.byte	0x5
 8694 0011 A701     		.uleb128 0xa7
 8695 0013 34A10000 		.4byte	.LASF700
 8696 0017 05       		.byte	0x5
 8697 0018 A801     		.uleb128 0xa8
 8698 001a 37290000 		.4byte	.LASF701
 8699 001e 05       		.byte	0x5
 8700 001f A901     		.uleb128 0xa9
 8701 0021 EB3F0000 		.4byte	.LASF702
 8702 0025 05       		.byte	0x5
 8703 0026 AA01     		.uleb128 0xaa
 8704 0028 48A00000 		.4byte	.LASF703
 8705 002c 05       		.byte	0x5
 8706 002d AB01     		.uleb128 0xab
 8707 002f 801D0000 		.4byte	.LASF704
 8708 0033 05       		.byte	0x5
 8709 0034 AC01     		.uleb128 0xac
 8710 0036 EF4F0000 		.4byte	.LASF705
 8711 003a 05       		.byte	0x5
 8712 003b AD01     		.uleb128 0xad
 8713 003d 5F8D0000 		.4byte	.LASF706
 8714 0041 05       		.byte	0x5
 8715 0042 AE01     		.uleb128 0xae
 8716 0044 95A00000 		.4byte	.LASF707
 8717 0048 05       		.byte	0x5
 8718 0049 AF01     		.uleb128 0xaf
 8719 004b 80910000 		.4byte	.LASF708
 8720 004f 05       		.byte	0x5
 8721 0050 B001     		.uleb128 0xb0
 8722 0052 7C5F0000 		.4byte	.LASF709
 8723 0056 05       		.byte	0x5
 8724 0057 B101     		.uleb128 0xb1
 8725 0059 D05B0000 		.4byte	.LASF710
 8726 005d 05       		.byte	0x5
 8727 005e B201     		.uleb128 0xb2
 8728 0060 339A0000 		.4byte	.LASF711
 8729 0064 05       		.byte	0x5
 8730 0065 B301     		.uleb128 0xb3
 8731 0067 EB990000 		.4byte	.LASF712
 8732 006b 05       		.byte	0x5
 8733 006c B401     		.uleb128 0xb4
 8734 006e A9600000 		.4byte	.LASF713
 8735 0072 05       		.byte	0x5
 8736 0073 B501     		.uleb128 0xb5
 8737 0075 9A0A0000 		.4byte	.LASF714
ARM GAS  /var/folders/z0/6xlwn_996xz3mwq1cgzkbq4r0000gp/T//ccjakVr1.s 			page 180


 8738 0079 05       		.byte	0x5
 8739 007a B601     		.uleb128 0xb6
 8740 007c D96C0000 		.4byte	.LASF715
 8741 0080 05       		.byte	0x5
 8742 0081 B701     		.uleb128 0xb7
 8743 0083 80800000 		.4byte	.LASF716
 8744 0087 05       		.byte	0x5
 8745 0088 B801     		.uleb128 0xb8
 8746 008a D9770000 		.4byte	.LASF717
 8747 008e 05       		.byte	0x5
 8748 008f B901     		.uleb128 0xb9
 8749 0091 38500000 		.4byte	.LASF718
 8750 0095 05       		.byte	0x5
 8751 0096 BA01     		.uleb128 0xba
 8752 0098 504C0000 		.4byte	.LASF719
 8753 009c 05       		.byte	0x5
 8754 009d C001     		.uleb128 0xc0
 8755 009f 646E0000 		.4byte	.LASF720
 8756 00a3 05       		.byte	0x5
 8757 00a4 C101     		.uleb128 0xc1
 8758 00a6 1A440000 		.4byte	.LASF721
 8759 00aa 05       		.byte	0x5
 8760 00ab C201     		.uleb128 0xc2
 8761 00ad 6BAD0000 		.4byte	.LASF722
 8762 00b1 05       		.byte	0x5
 8763 00b2 C301     		.uleb128 0xc3
 8764 00b4 44A10000 		.4byte	.LASF723
 8765 00b8 05       		.byte	0x5
 8766 00b9 C401     		.uleb128 0xc4
 8767 00bb D48B0000 		.4byte	.LASF724
 8768 00bf 05       		.byte	0x5
 8769 00c0 C501     		.uleb128 0xc5
 8770 00c2 24010000 		.4byte	.LASF725
 8771 00c6 05       		.byte	0x5
 8772 00c7 C601     		.uleb128 0xc6
 8773 00c9 55320000 		.4byte	.LASF726
 8774 00cd 05       		.byte	0x5
 8775 00ce C701     		.uleb128 0xc7
 8776 00d0 A28F0000 		.4byte	.LASF727
 8777 00d4 05       		.byte	0x5
 8778 00d5 C801     		.uleb128 0xc8
 8779 00d7 56200000 		.4byte	.LASF728
 8780 00db 05       		.byte	0x5
 8781 00dc C901     		.uleb128 0xc9
 8782 00de 50A30000 		.4byte	.LASF729
 8783 00e2 05       		.byte	0x5
 8784 00e3 CA01     		.uleb128 0xca
 8785 00e5 B3070000 		.4byte	.LASF730
 8786 00e9 05       		.byte	0x5
 8787 00ea CB01     		.uleb128 0xcb
 8788 00ec 58930000 		.4byte	.LASF731
 8789 00f0 05       		.byte	0x5
 8790 00f1 CC01     		.uleb128 0xcc
 8791 00f3 FCA30000 		.4byte	.LASF732
 8792 00f7 05       		.byte	0x5
 8793 00f8 CD01     		.uleb128 0xcd
 8794 00fa B5030000 		.4byte	.LASF733
ARM GAS  /var/folders/z0/6xlwn_996xz3mwq1cgzkbq4r0000gp/T//ccjakVr1.s 			page 181


 8795 00fe 05       		.byte	0x5
 8796 00ff CE01     		.uleb128 0xce
 8797 0101 C10E0000 		.4byte	.LASF734
 8798 0105 05       		.byte	0x5
 8799 0106 CF01     		.uleb128 0xcf
 8800 0108 68AC0000 		.4byte	.LASF735
 8801 010c 05       		.byte	0x5
 8802 010d D001     		.uleb128 0xd0
 8803 010f D4340000 		.4byte	.LASF736
 8804 0113 05       		.byte	0x5
 8805 0114 D101     		.uleb128 0xd1
 8806 0116 F36C0000 		.4byte	.LASF737
 8807 011a 05       		.byte	0x5
 8808 011b D201     		.uleb128 0xd2
 8809 011d 44A20000 		.4byte	.LASF738
 8810 0121 05       		.byte	0x5
 8811 0122 D301     		.uleb128 0xd3
 8812 0124 C92A0000 		.4byte	.LASF739
 8813 0128 05       		.byte	0x5
 8814 0129 D401     		.uleb128 0xd4
 8815 012b B7620000 		.4byte	.LASF740
 8816 012f 05       		.byte	0x5
 8817 0130 D501     		.uleb128 0xd5
 8818 0132 82980000 		.4byte	.LASF741
 8819 0136 00       		.byte	0
 8820              		.section	.debug_macro,"G",%progbits,wm4.timer_11xx.h.33.c92f50a9325789ee6a8ffd6248980d70,comdat
 8821              	.Ldebug_macro19:
 8822 0000 0400     		.2byte	0x4
 8823 0002 00       		.byte	0
 8824 0003 05       		.byte	0x5
 8825 0004 21       		.uleb128 0x21
 8826 0005 42920000 		.4byte	.LASF742
 8827 0009 05       		.byte	0x5
 8828 000a 40       		.uleb128 0x40
 8829 000b D0A40000 		.4byte	.LASF743
 8830 000f 05       		.byte	0x5
 8831 0010 43       		.uleb128 0x43
 8832 0011 C4060000 		.4byte	.LASF744
 8833 0015 05       		.byte	0x5
 8834 0016 45       		.uleb128 0x45
 8835 0017 329E0000 		.4byte	.LASF745
 8836 001b 05       		.byte	0x5
 8837 001c 48       		.uleb128 0x48
 8838 001d C86F0000 		.4byte	.LASF746
 8839 0021 05       		.byte	0x5
 8840 0022 4A       		.uleb128 0x4a
 8841 0023 DE8C0000 		.4byte	.LASF747
 8842 0027 05       		.byte	0x5
 8843 0028 4D       		.uleb128 0x4d
 8844 0029 8F090000 		.4byte	.LASF748
 8845 002d 05       		.byte	0x5
 8846 002e 4F       		.uleb128 0x4f
 8847 002f 51100000 		.4byte	.LASF749
 8848 0033 05       		.byte	0x5
 8849 0034 51       		.uleb128 0x51
 8850 0035 8BAB0000 		.4byte	.LASF750
 8851 0039 05       		.byte	0x5
ARM GAS  /var/folders/z0/6xlwn_996xz3mwq1cgzkbq4r0000gp/T//ccjakVr1.s 			page 182


 8852 003a 54       		.uleb128 0x54
 8853 003b 8F3B0000 		.4byte	.LASF751
 8854 003f 05       		.byte	0x5
 8855 0040 56       		.uleb128 0x56
 8856 0041 B3950000 		.4byte	.LASF752
 8857 0045 05       		.byte	0x5
 8858 0046 58       		.uleb128 0x58
 8859 0047 9F0B0000 		.4byte	.LASF753
 8860 004b 00       		.byte	0
 8861              		.section	.debug_macro,"G",%progbits,wm4.ring_buffer.h.33.2f271415f1f27d60350fb4738c5cbee6,comdat
 8862              	.Ldebug_macro20:
 8863 0000 0400     		.2byte	0x4
 8864 0002 00       		.byte	0
 8865 0003 05       		.byte	0x5
 8866 0004 21       		.uleb128 0x21
 8867 0005 25230000 		.4byte	.LASF755
 8868 0009 05       		.byte	0x5
 8869 000a 3A       		.uleb128 0x3a
 8870 000b DB570000 		.4byte	.LASF756
 8871 000f 05       		.byte	0x5
 8872 0010 41       		.uleb128 0x41
 8873 0011 D7840000 		.4byte	.LASF757
 8874 0015 00       		.byte	0
 8875              		.section	.debug_macro,"G",%progbits,wm4.uart_11xx.h.98.fe68b709973730a4fba3f3ce60c5c312,comdat
 8876              	.Ldebug_macro21:
 8877 0000 0400     		.2byte	0x4
 8878 0002 00       		.byte	0
 8879 0003 05       		.byte	0x5
 8880 0004 62       		.uleb128 0x62
 8881 0005 65370000 		.4byte	.LASF758
 8882 0009 05       		.byte	0x5
 8883 000a 67       		.uleb128 0x67
 8884 000b 90730000 		.4byte	.LASF759
 8885 000f 05       		.byte	0x5
 8886 0010 68       		.uleb128 0x68
 8887 0011 54380000 		.4byte	.LASF760
 8888 0015 05       		.byte	0x5
 8889 0016 6D       		.uleb128 0x6d
 8890 0017 707C0000 		.4byte	.LASF761
 8891 001b 05       		.byte	0x5
 8892 001c 6E       		.uleb128 0x6e
 8893 001d F90A0000 		.4byte	.LASF762
 8894 0021 05       		.byte	0x5
 8895 0022 73       		.uleb128 0x73
 8896 0023 9FA10000 		.4byte	.LASF763
 8897 0027 05       		.byte	0x5
 8898 0028 74       		.uleb128 0x74
 8899 0029 E9750000 		.4byte	.LASF764
 8900 002d 05       		.byte	0x5
 8901 002e 75       		.uleb128 0x75
 8902 002f A0540000 		.4byte	.LASF765
 8903 0033 05       		.byte	0x5
 8904 0034 76       		.uleb128 0x76
 8905 0035 9D030000 		.4byte	.LASF766
 8906 0039 05       		.byte	0x5
 8907 003a 77       		.uleb128 0x77
 8908 003b 07500000 		.4byte	.LASF767
ARM GAS  /var/folders/z0/6xlwn_996xz3mwq1cgzkbq4r0000gp/T//ccjakVr1.s 			page 183


 8909 003f 05       		.byte	0x5
 8910 0040 78       		.uleb128 0x78
 8911 0041 05360000 		.4byte	.LASF768
 8912 0045 05       		.byte	0x5
 8913 0046 79       		.uleb128 0x79
 8914 0047 42540000 		.4byte	.LASF769
 8915 004b 05       		.byte	0x5
 8916 004c 7A       		.uleb128 0x7a
 8917 004d 3A420000 		.4byte	.LASF770
 8918 0051 05       		.byte	0x5
 8919 0052 7B       		.uleb128 0x7b
 8920 0053 A4530000 		.4byte	.LASF771
 8921 0057 05       		.byte	0x5
 8922 0058 7C       		.uleb128 0x7c
 8923 0059 1A4F0000 		.4byte	.LASF772
 8924 005d 05       		.byte	0x5
 8925 005e 8101     		.uleb128 0x81
 8926 0060 69420000 		.4byte	.LASF773
 8927 0064 05       		.byte	0x5
 8928 0065 8201     		.uleb128 0x82
 8929 0067 B6A50000 		.4byte	.LASF774
 8930 006b 05       		.byte	0x5
 8931 006c 8301     		.uleb128 0x83
 8932 006e B8100000 		.4byte	.LASF775
 8933 0072 05       		.byte	0x5
 8934 0073 8401     		.uleb128 0x84
 8935 0075 C3280000 		.4byte	.LASF776
 8936 0079 05       		.byte	0x5
 8937 007a 8501     		.uleb128 0x85
 8938 007c AF230000 		.4byte	.LASF777
 8939 0080 05       		.byte	0x5
 8940 0081 8801     		.uleb128 0x88
 8941 0083 56210000 		.4byte	.LASF778
 8942 0087 05       		.byte	0x5
 8943 0088 8901     		.uleb128 0x89
 8944 008a A5380000 		.4byte	.LASF779
 8945 008e 05       		.byte	0x5
 8946 008f 8A01     		.uleb128 0x8a
 8947 0091 32650000 		.4byte	.LASF780
 8948 0095 05       		.byte	0x5
 8949 0096 8B01     		.uleb128 0x8b
 8950 0098 B4770000 		.4byte	.LASF781
 8951 009c 05       		.byte	0x5
 8952 009d 8C01     		.uleb128 0x8c
 8953 009f 1A870000 		.4byte	.LASF782
 8954 00a3 05       		.byte	0x5
 8955 00a4 8D01     		.uleb128 0x8d
 8956 00a6 28740000 		.4byte	.LASF783
 8957 00aa 05       		.byte	0x5
 8958 00ab 9201     		.uleb128 0x92
 8959 00ad C48C0000 		.4byte	.LASF784
 8960 00b1 05       		.byte	0x5
 8961 00b2 9301     		.uleb128 0x93
 8962 00b4 E20B0000 		.4byte	.LASF785
 8963 00b8 05       		.byte	0x5
 8964 00b9 9401     		.uleb128 0x94
 8965 00bb 607A0000 		.4byte	.LASF786
ARM GAS  /var/folders/z0/6xlwn_996xz3mwq1cgzkbq4r0000gp/T//ccjakVr1.s 			page 184


 8966 00bf 05       		.byte	0x5
 8967 00c0 9501     		.uleb128 0x95
 8968 00c2 5A190000 		.4byte	.LASF787
 8969 00c6 05       		.byte	0x5
 8970 00c7 9601     		.uleb128 0x96
 8971 00c9 7C570000 		.4byte	.LASF788
 8972 00cd 05       		.byte	0x5
 8973 00ce 9801     		.uleb128 0x98
 8974 00d0 D72C0000 		.4byte	.LASF789
 8975 00d4 05       		.byte	0x5
 8976 00d5 9B01     		.uleb128 0x9b
 8977 00d7 12450000 		.4byte	.LASF790
 8978 00db 05       		.byte	0x5
 8979 00dc 9C01     		.uleb128 0x9c
 8980 00de 87490000 		.4byte	.LASF791
 8981 00e2 05       		.byte	0x5
 8982 00e3 9D01     		.uleb128 0x9d
 8983 00e5 CA8E0000 		.4byte	.LASF792
 8984 00e9 05       		.byte	0x5
 8985 00ea 9E01     		.uleb128 0x9e
 8986 00ec 64230000 		.4byte	.LASF793
 8987 00f0 05       		.byte	0x5
 8988 00f1 A401     		.uleb128 0xa4
 8989 00f3 09A80000 		.4byte	.LASF794
 8990 00f7 05       		.byte	0x5
 8991 00f8 A501     		.uleb128 0xa5
 8992 00fa EE9E0000 		.4byte	.LASF795
 8993 00fe 05       		.byte	0x5
 8994 00ff A601     		.uleb128 0xa6
 8995 0101 DE340000 		.4byte	.LASF796
 8996 0105 05       		.byte	0x5
 8997 0106 A701     		.uleb128 0xa7
 8998 0108 807B0000 		.4byte	.LASF797
 8999 010c 05       		.byte	0x5
 9000 010d A801     		.uleb128 0xa8
 9001 010f 640C0000 		.4byte	.LASF798
 9002 0113 05       		.byte	0x5
 9003 0114 AB01     		.uleb128 0xab
 9004 0116 34560000 		.4byte	.LASF799
 9005 011a 05       		.byte	0x5
 9006 011b AC01     		.uleb128 0xac
 9007 011d 160A0000 		.4byte	.LASF800
 9008 0121 05       		.byte	0x5
 9009 0122 AD01     		.uleb128 0xad
 9010 0124 480A0000 		.4byte	.LASF801
 9011 0128 05       		.byte	0x5
 9012 0129 B001     		.uleb128 0xb0
 9013 012b 0D310000 		.4byte	.LASF802
 9014 012f 05       		.byte	0x5
 9015 0130 B101     		.uleb128 0xb1
 9016 0132 02240000 		.4byte	.LASF803
 9017 0136 05       		.byte	0x5
 9018 0137 B201     		.uleb128 0xb2
 9019 0139 D8A60000 		.4byte	.LASF804
 9020 013d 05       		.byte	0x5
 9021 013e B301     		.uleb128 0xb3
 9022 0140 55360000 		.4byte	.LASF805
ARM GAS  /var/folders/z0/6xlwn_996xz3mwq1cgzkbq4r0000gp/T//ccjakVr1.s 			page 185


 9023 0144 05       		.byte	0x5
 9024 0145 B401     		.uleb128 0xb4
 9025 0147 841B0000 		.4byte	.LASF806
 9026 014b 05       		.byte	0x5
 9027 014c B501     		.uleb128 0xb5
 9028 014e 4F220000 		.4byte	.LASF807
 9029 0152 05       		.byte	0x5
 9030 0153 B601     		.uleb128 0xb6
 9031 0155 25A80000 		.4byte	.LASF808
 9032 0159 05       		.byte	0x5
 9033 015a B701     		.uleb128 0xb7
 9034 015c DE4A0000 		.4byte	.LASF809
 9035 0160 05       		.byte	0x5
 9036 0161 B801     		.uleb128 0xb8
 9037 0163 B4450000 		.4byte	.LASF810
 9038 0167 05       		.byte	0x5
 9039 0168 BD01     		.uleb128 0xbd
 9040 016a EB0E0000 		.4byte	.LASF811
 9041 016e 05       		.byte	0x5
 9042 016f BE01     		.uleb128 0xbe
 9043 0171 98950000 		.4byte	.LASF812
 9044 0175 05       		.byte	0x5
 9045 0176 BF01     		.uleb128 0xbf
 9046 0178 A6220000 		.4byte	.LASF813
 9047 017c 05       		.byte	0x5
 9048 017d C001     		.uleb128 0xc0
 9049 017f 276C0000 		.4byte	.LASF814
 9050 0183 05       		.byte	0x5
 9051 0184 C101     		.uleb128 0xc1
 9052 0186 DD530000 		.4byte	.LASF815
 9053 018a 05       		.byte	0x5
 9054 018b C201     		.uleb128 0xc2
 9055 018d E5200000 		.4byte	.LASF816
 9056 0191 05       		.byte	0x5
 9057 0192 C701     		.uleb128 0xc7
 9058 0194 77410000 		.4byte	.LASF817
 9059 0198 05       		.byte	0x5
 9060 0199 C801     		.uleb128 0xc8
 9061 019b FE690000 		.4byte	.LASF818
 9062 019f 05       		.byte	0x5
 9063 01a0 C901     		.uleb128 0xc9
 9064 01a2 E9080000 		.4byte	.LASF819
 9065 01a6 05       		.byte	0x5
 9066 01a7 CA01     		.uleb128 0xca
 9067 01a9 F87C0000 		.4byte	.LASF820
 9068 01ad 05       		.byte	0x5
 9069 01ae CB01     		.uleb128 0xcb
 9070 01b0 26330000 		.4byte	.LASF821
 9071 01b4 05       		.byte	0x5
 9072 01b5 CC01     		.uleb128 0xcc
 9073 01b7 95A70000 		.4byte	.LASF822
 9074 01bb 05       		.byte	0x5
 9075 01bc CD01     		.uleb128 0xcd
 9076 01be E02F0000 		.4byte	.LASF823
 9077 01c2 05       		.byte	0x5
 9078 01c3 CE01     		.uleb128 0xce
 9079 01c5 85480000 		.4byte	.LASF824
ARM GAS  /var/folders/z0/6xlwn_996xz3mwq1cgzkbq4r0000gp/T//ccjakVr1.s 			page 186


 9080 01c9 05       		.byte	0x5
 9081 01ca CF01     		.uleb128 0xcf
 9082 01cc 80070000 		.4byte	.LASF825
 9083 01d0 05       		.byte	0x5
 9084 01d1 D001     		.uleb128 0xd0
 9085 01d3 F1870000 		.4byte	.LASF826
 9086 01d7 05       		.byte	0x5
 9087 01d8 D101     		.uleb128 0xd1
 9088 01da A0670000 		.4byte	.LASF827
 9089 01de 05       		.byte	0x5
 9090 01df D601     		.uleb128 0xd6
 9091 01e1 FC470000 		.4byte	.LASF828
 9092 01e5 05       		.byte	0x5
 9093 01e6 D701     		.uleb128 0xd7
 9094 01e8 1B660000 		.4byte	.LASF829
 9095 01ec 05       		.byte	0x5
 9096 01ed D801     		.uleb128 0xd8
 9097 01ef 23510000 		.4byte	.LASF830
 9098 01f3 05       		.byte	0x5
 9099 01f4 D901     		.uleb128 0xd9
 9100 01f6 562F0000 		.4byte	.LASF831
 9101 01fa 05       		.byte	0x5
 9102 01fb DA01     		.uleb128 0xda
 9103 01fd 5A6B0000 		.4byte	.LASF832
 9104 0201 05       		.byte	0x5
 9105 0202 DB01     		.uleb128 0xdb
 9106 0204 E0190000 		.4byte	.LASF833
 9107 0208 05       		.byte	0x5
 9108 0209 DC01     		.uleb128 0xdc
 9109 020b 7DAD0000 		.4byte	.LASF834
 9110 020f 05       		.byte	0x5
 9111 0210 DD01     		.uleb128 0xdd
 9112 0212 3D530000 		.4byte	.LASF835
 9113 0216 05       		.byte	0x5
 9114 0217 DE01     		.uleb128 0xde
 9115 0219 E4030000 		.4byte	.LASF836
 9116 021d 05       		.byte	0x5
 9117 021e E301     		.uleb128 0xe3
 9118 0220 AE7B0000 		.4byte	.LASF837
 9119 0224 05       		.byte	0x5
 9120 0225 E401     		.uleb128 0xe4
 9121 0227 C4570000 		.4byte	.LASF838
 9122 022b 05       		.byte	0x5
 9123 022c E501     		.uleb128 0xe5
 9124 022e 838F0000 		.4byte	.LASF839
 9125 0232 05       		.byte	0x5
 9126 0233 E601     		.uleb128 0xe6
 9127 0235 55090000 		.4byte	.LASF840
 9128 0239 05       		.byte	0x5
 9129 023a E701     		.uleb128 0xe7
 9130 023c ED610000 		.4byte	.LASF841
 9131 0240 05       		.byte	0x5
 9132 0241 E801     		.uleb128 0xe8
 9133 0243 2C200000 		.4byte	.LASF842
 9134 0247 05       		.byte	0x5
 9135 0248 ED01     		.uleb128 0xed
 9136 024a 18920000 		.4byte	.LASF843
ARM GAS  /var/folders/z0/6xlwn_996xz3mwq1cgzkbq4r0000gp/T//ccjakVr1.s 			page 187


 9137 024e 05       		.byte	0x5
 9138 024f EE01     		.uleb128 0xee
 9139 0251 43710000 		.4byte	.LASF844
 9140 0255 05       		.byte	0x5
 9141 0256 EF01     		.uleb128 0xef
 9142 0258 1D120000 		.4byte	.LASF845
 9143 025c 05       		.byte	0x5
 9144 025d F001     		.uleb128 0xf0
 9145 025f B1A00000 		.4byte	.LASF846
 9146 0263 05       		.byte	0x5
 9147 0264 F201     		.uleb128 0xf2
 9148 0266 53870000 		.4byte	.LASF847
 9149 026a 05       		.byte	0x5
 9150 026b F301     		.uleb128 0xf3
 9151 026d F2850000 		.4byte	.LASF848
 9152 0271 05       		.byte	0x5
 9153 0272 F601     		.uleb128 0xf6
 9154 0274 9A890000 		.4byte	.LASF849
 9155 0278 05       		.byte	0x5
 9156 0279 FB01     		.uleb128 0xfb
 9157 027b 08080000 		.4byte	.LASF850
 9158 027f 05       		.byte	0x5
 9159 0280 FC01     		.uleb128 0xfc
 9160 0282 B70F0000 		.4byte	.LASF851
 9161 0286 05       		.byte	0x5
 9162 0287 FD01     		.uleb128 0xfd
 9163 0289 16890000 		.4byte	.LASF852
 9164 028d 05       		.byte	0x5
 9165 028e FE01     		.uleb128 0xfe
 9166 0290 B3AC0000 		.4byte	.LASF853
 9167 0294 05       		.byte	0x5
 9168 0295 FF01     		.uleb128 0xff
 9169 0297 87A10000 		.4byte	.LASF854
 9170 029b 05       		.byte	0x5
 9171 029c 8402     		.uleb128 0x104
 9172 029e 718E0000 		.4byte	.LASF855
 9173 02a2 05       		.byte	0x5
 9174 02a3 8902     		.uleb128 0x109
 9175 02a5 39520000 		.4byte	.LASF856
 9176 02a9 05       		.byte	0x5
 9177 02aa 8A02     		.uleb128 0x10a
 9178 02ac 72A90000 		.4byte	.LASF857
 9179 02b0 05       		.byte	0x5
 9180 02b1 8B02     		.uleb128 0x10b
 9181 02b3 00800000 		.4byte	.LASF858
 9182 02b7 05       		.byte	0x5
 9183 02b8 8C02     		.uleb128 0x10c
 9184 02ba D0890000 		.4byte	.LASF859
 9185 02be 05       		.byte	0x5
 9186 02bf 8D02     		.uleb128 0x10d
 9187 02c1 01300000 		.4byte	.LASF860
 9188 02c5 05       		.byte	0x5
 9189 02c6 9202     		.uleb128 0x112
 9190 02c8 A39C0000 		.4byte	.LASF861
 9191 02cc 05       		.byte	0x5
 9192 02cd 9302     		.uleb128 0x113
 9193 02cf F86F0000 		.4byte	.LASF862
ARM GAS  /var/folders/z0/6xlwn_996xz3mwq1cgzkbq4r0000gp/T//ccjakVr1.s 			page 188


 9194 02d3 05       		.byte	0x5
 9195 02d4 9402     		.uleb128 0x114
 9196 02d6 5B030000 		.4byte	.LASF863
 9197 02da 05       		.byte	0x5
 9198 02db 9902     		.uleb128 0x119
 9199 02dd 61160000 		.4byte	.LASF864
 9200 02e1 05       		.byte	0x5
 9201 02e2 9A02     		.uleb128 0x11a
 9202 02e4 FA940000 		.4byte	.LASF865
 9203 02e8 05       		.byte	0x5
 9204 02e9 9F02     		.uleb128 0x11f
 9205 02eb 27250000 		.4byte	.LASF866
 9206 02ef 05       		.byte	0x5
 9207 02f0 A002     		.uleb128 0x120
 9208 02f2 11A10000 		.4byte	.LASF867
 9209 02f6 05       		.byte	0x5
 9210 02f7 A102     		.uleb128 0x121
 9211 02f9 70830000 		.4byte	.LASF868
 9212 02fd 05       		.byte	0x5
 9213 02fe A202     		.uleb128 0x122
 9214 0300 CB0E0000 		.4byte	.LASF869
 9215 0304 05       		.byte	0x5
 9216 0305 A302     		.uleb128 0x123
 9217 0307 BF440000 		.4byte	.LASF870
 9218 030b 05       		.byte	0x5
 9219 030c A402     		.uleb128 0x124
 9220 030e CE760000 		.4byte	.LASF871
 9221 0312 05       		.byte	0x5
 9222 0313 A502     		.uleb128 0x125
 9223 0315 D8980000 		.4byte	.LASF872
 9224 0319 00       		.byte	0
 9225              		.section	.debug_macro,"G",%progbits,wm4.wwdt_11xx.h.33.5768344983cb842df69cc91ea86cabb0,comdat
 9226              	.Ldebug_macro22:
 9227 0000 0400     		.2byte	0x4
 9228 0002 00       		.byte	0
 9229 0003 05       		.byte	0x5
 9230 0004 21       		.uleb128 0x21
 9231 0005 51300000 		.4byte	.LASF873
 9232 0009 05       		.byte	0x5
 9233 000a 4B       		.uleb128 0x4b
 9234 000b E36B0000 		.4byte	.LASF874
 9235 000f 05       		.byte	0x5
 9236 0010 4D       		.uleb128 0x4d
 9237 0011 14600000 		.4byte	.LASF875
 9238 0015 05       		.byte	0x5
 9239 0016 4F       		.uleb128 0x4f
 9240 0017 09930000 		.4byte	.LASF876
 9241 001b 05       		.byte	0x5
 9242 001c 51       		.uleb128 0x51
 9243 001d D7690000 		.4byte	.LASF877
 9244 0021 05       		.byte	0x5
 9245 0022 53       		.uleb128 0x53
 9246 0023 454B0000 		.4byte	.LASF878
 9247 0027 05       		.byte	0x5
 9248 0028 55       		.uleb128 0x55
 9249 0029 75670000 		.4byte	.LASF879
 9250 002d 00       		.byte	0
ARM GAS  /var/folders/z0/6xlwn_996xz3mwq1cgzkbq4r0000gp/T//ccjakVr1.s 			page 189


 9251              		.section	.debug_macro,"G",%progbits,wm4.ssp_11xx.h.33.af054d3d65f4cb0c078be40bb872ec37,comdat
 9252              	.Ldebug_macro23:
 9253 0000 0400     		.2byte	0x4
 9254 0002 00       		.byte	0
 9255 0003 05       		.byte	0x5
 9256 0004 21       		.uleb128 0x21
 9257 0005 47080000 		.4byte	.LASF880
 9258 0009 05       		.byte	0x5
 9259 000a 40       		.uleb128 0x40
 9260 000b DE6A0000 		.4byte	.LASF881
 9261 000f 05       		.byte	0x5
 9262 0010 42       		.uleb128 0x42
 9263 0011 8F350000 		.4byte	.LASF882
 9264 0015 05       		.byte	0x5
 9265 0016 44       		.uleb128 0x44
 9266 0017 5C2D0000 		.4byte	.LASF883
 9267 001b 05       		.byte	0x5
 9268 001c 46       		.uleb128 0x46
 9269 001d F2AC0000 		.4byte	.LASF884
 9270 0021 05       		.byte	0x5
 9271 0022 49       		.uleb128 0x49
 9272 0023 58280000 		.4byte	.LASF885
 9273 0027 05       		.byte	0x5
 9274 0028 4A       		.uleb128 0x4a
 9275 0029 C6210000 		.4byte	.LASF886
 9276 002d 05       		.byte	0x5
 9277 002e 4D       		.uleb128 0x4d
 9278 002f 4EA20000 		.4byte	.LASF887
 9279 0033 05       		.byte	0x5
 9280 0034 4E       		.uleb128 0x4e
 9281 0035 D9700000 		.4byte	.LASF888
 9282 0039 05       		.byte	0x5
 9283 003a 51       		.uleb128 0x51
 9284 003b 242A0000 		.4byte	.LASF889
 9285 003f 05       		.byte	0x5
 9286 0040 53       		.uleb128 0x53
 9287 0041 21080000 		.4byte	.LASF890
 9288 0045 05       		.byte	0x5
 9289 0046 55       		.uleb128 0x55
 9290 0047 21080000 		.4byte	.LASF890
 9291 004b 05       		.byte	0x5
 9292 004c 58       		.uleb128 0x58
 9293 004d 242A0000 		.4byte	.LASF889
 9294 0051 05       		.byte	0x5
 9295 0052 5F       		.uleb128 0x5f
 9296 0053 19490000 		.4byte	.LASF891
 9297 0057 05       		.byte	0x5
 9298 0058 61       		.uleb128 0x61
 9299 0059 7A4C0000 		.4byte	.LASF892
 9300 005d 05       		.byte	0x5
 9301 005e 63       		.uleb128 0x63
 9302 005f 27370000 		.4byte	.LASF893
 9303 0063 05       		.byte	0x5
 9304 0064 64       		.uleb128 0x64
 9305 0065 62860000 		.4byte	.LASF894
 9306 0069 05       		.byte	0x5
 9307 006a 67       		.uleb128 0x67
ARM GAS  /var/folders/z0/6xlwn_996xz3mwq1cgzkbq4r0000gp/T//ccjakVr1.s 			page 190


 9308 006b AF1A0000 		.4byte	.LASF895
 9309 006f 05       		.byte	0x5
 9310 0070 69       		.uleb128 0x69
 9311 0071 36190000 		.4byte	.LASF896
 9312 0075 05       		.byte	0x5
 9313 0076 6C       		.uleb128 0x6c
 9314 0077 4B7C0000 		.4byte	.LASF897
 9315 007b 05       		.byte	0x5
 9316 007c 72       		.uleb128 0x72
 9317 007d ED0D0000 		.4byte	.LASF898
 9318 0081 05       		.byte	0x5
 9319 0082 79       		.uleb128 0x79
 9320 0083 B8010000 		.4byte	.LASF899
 9321 0087 05       		.byte	0x5
 9322 0088 7C       		.uleb128 0x7c
 9323 0089 F2A10000 		.4byte	.LASF900
 9324 008d 05       		.byte	0x5
 9325 008e C503     		.uleb128 0x1c5
 9326 0090 45340000 		.4byte	.LASF901
 9327 0094 05       		.byte	0x5
 9328 0095 C603     		.uleb128 0x1c6
 9329 0097 C61D0000 		.4byte	.LASF902
 9330 009b 05       		.byte	0x5
 9331 009c CF03     		.uleb128 0x1cf
 9332 009e 7E8A0000 		.4byte	.LASF903
 9333 00a2 05       		.byte	0x5
 9334 00a3 D003     		.uleb128 0x1d0
 9335 00a5 2C440000 		.4byte	.LASF904
 9336 00a9 05       		.byte	0x5
 9337 00aa D303     		.uleb128 0x1d3
 9338 00ac C1620000 		.4byte	.LASF905
 9339 00b0 05       		.byte	0x5
 9340 00b1 D403     		.uleb128 0x1d4
 9341 00b3 05250000 		.4byte	.LASF906
 9342 00b7 00       		.byte	0
 9343              		.section	.debug_macro,"G",%progbits,wm4.error.h.38.ae74fe1dd9d19c80c505f1fda144fce8,comdat
 9344              	.Ldebug_macro24:
 9345 0000 0400     		.2byte	0x4
 9346 0002 00       		.byte	0
 9347 0003 05       		.byte	0x5
 9348 0004 26       		.uleb128 0x26
 9349 0005 C86C0000 		.4byte	.LASF908
 9350 0009 05       		.byte	0x5
 9351 000a 8401     		.uleb128 0x84
 9352 000c 66A40000 		.4byte	.LASF909
 9353 0010 00       		.byte	0
 9354              		.section	.debug_macro,"G",%progbits,wm4.adc_11xx.h.33.6ce7433ac6b30df70a6993d01dbd513f,comdat
 9355              	.Ldebug_macro25:
 9356 0000 0400     		.2byte	0x4
 9357 0002 00       		.byte	0
 9358 0003 05       		.byte	0x5
 9359 0004 21       		.uleb128 0x21
 9360 0005 48590000 		.4byte	.LASF910
 9361 0009 05       		.byte	0x5
 9362 000a 2F       		.uleb128 0x2f
 9363 000b 61570000 		.4byte	.LASF911
 9364 000f 05       		.byte	0x5
ARM GAS  /var/folders/z0/6xlwn_996xz3mwq1cgzkbq4r0000gp/T//ccjakVr1.s 			page 191


 9365 0010 40       		.uleb128 0x40
 9366 0011 4B850000 		.4byte	.LASF912
 9367 0015 05       		.byte	0x5
 9368 0016 41       		.uleb128 0x41
 9369 0017 DE280000 		.4byte	.LASF913
 9370 001b 05       		.byte	0x5
 9371 001c 43       		.uleb128 0x43
 9372 001d DB010000 		.4byte	.LASF914
 9373 0021 05       		.byte	0x5
 9374 0022 44       		.uleb128 0x44
 9375 0023 C0AD0000 		.4byte	.LASF915
 9376 0027 05       		.byte	0x5
 9377 0028 45       		.uleb128 0x45
 9378 0029 C3120000 		.4byte	.LASF916
 9379 002d 05       		.byte	0x5
 9380 002e 46       		.uleb128 0x46
 9381 002f C42E0000 		.4byte	.LASF917
 9382 0033 05       		.byte	0x5
 9383 0034 47       		.uleb128 0x47
 9384 0035 131C0000 		.4byte	.LASF918
 9385 0039 05       		.byte	0x5
 9386 003a 48       		.uleb128 0x48
 9387 003b 93110000 		.4byte	.LASF919
 9388 003f 05       		.byte	0x5
 9389 0040 49       		.uleb128 0x49
 9390 0041 87650000 		.4byte	.LASF920
 9391 0045 05       		.byte	0x5
 9392 0046 4A       		.uleb128 0x4a
 9393 0047 49750000 		.4byte	.LASF921
 9394 004b 05       		.byte	0x5
 9395 004c 4B       		.uleb128 0x4b
 9396 004d EAA70000 		.4byte	.LASF922
 9397 0051 05       		.byte	0x5
 9398 0052 4C       		.uleb128 0x4c
 9399 0053 E7290000 		.4byte	.LASF923
 9400 0057 05       		.byte	0x5
 9401 0058 4D       		.uleb128 0x4d
 9402 0059 4BAB0000 		.4byte	.LASF924
 9403 005d 05       		.byte	0x5
 9404 005e 4E       		.uleb128 0x4e
 9405 005f 8C840000 		.4byte	.LASF925
 9406 0063 05       		.byte	0x5
 9407 0064 4F       		.uleb128 0x4f
 9408 0065 73500000 		.4byte	.LASF926
 9409 0069 05       		.byte	0x5
 9410 006a 50       		.uleb128 0x50
 9411 006b 970C0000 		.4byte	.LASF927
 9412 006f 05       		.byte	0x5
 9413 0070 51       		.uleb128 0x51
 9414 0071 3B890000 		.4byte	.LASF928
 9415 0075 05       		.byte	0x5
 9416 0076 52       		.uleb128 0x52
 9417 0077 09030000 		.4byte	.LASF929
 9418 007b 00       		.byte	0
 9419              		.section	.debug_macro,"G",%progbits,wm4.i2c_11xx.h.33.2b506d1350e00a8c26e8bf006a5f9390,comdat
 9420              	.Ldebug_macro26:
 9421 0000 0400     		.2byte	0x4
ARM GAS  /var/folders/z0/6xlwn_996xz3mwq1cgzkbq4r0000gp/T//ccjakVr1.s 			page 192


 9422 0002 00       		.byte	0
 9423 0003 05       		.byte	0x5
 9424 0004 21       		.uleb128 0x21
 9425 0005 177A0000 		.4byte	.LASF931
 9426 0009 05       		.byte	0x5
 9427 000a 46       		.uleb128 0x46
 9428 000b DC3F0000 		.4byte	.LASF932
 9429 000f 05       		.byte	0x5
 9430 0010 47       		.uleb128 0x47
 9431 0011 A6980000 		.4byte	.LASF933
 9432 0015 05       		.byte	0x5
 9433 0016 48       		.uleb128 0x48
 9434 0017 B54C0000 		.4byte	.LASF934
 9435 001b 05       		.byte	0x5
 9436 001c 49       		.uleb128 0x49
 9437 001d 957D0000 		.4byte	.LASF935
 9438 0021 05       		.byte	0x5
 9439 0022 4E       		.uleb128 0x4e
 9440 0023 3B620000 		.4byte	.LASF936
 9441 0027 05       		.byte	0x5
 9442 0028 53       		.uleb128 0x53
 9443 0029 F5590000 		.4byte	.LASF937
 9444 002d 05       		.byte	0x5
 9445 002e 54       		.uleb128 0x54
 9446 002f CA520000 		.4byte	.LASF938
 9447 0033 05       		.byte	0x5
 9448 0034 55       		.uleb128 0x55
 9449 0035 A81C0000 		.4byte	.LASF939
 9450 0039 05       		.byte	0x5
 9451 003a 56       		.uleb128 0x56
 9452 003b C4640000 		.4byte	.LASF940
 9453 003f 05       		.byte	0x5
 9454 0040 57       		.uleb128 0x57
 9455 0041 75530000 		.4byte	.LASF941
 9456 0045 05       		.byte	0x5
 9457 0046 5C       		.uleb128 0x5c
 9458 0047 67270000 		.4byte	.LASF942
 9459 004b 05       		.byte	0x5
 9460 004c 5D       		.uleb128 0x5d
 9461 004d CEAB0000 		.4byte	.LASF943
 9462 0051 05       		.byte	0x5
 9463 0052 5E       		.uleb128 0x5e
 9464 0053 44350000 		.4byte	.LASF944
 9465 0057 05       		.byte	0x5
 9466 0058 5F       		.uleb128 0x5f
 9467 0059 1C1F0000 		.4byte	.LASF945
 9468 005d 05       		.byte	0x5
 9469 005e 60       		.uleb128 0x60
 9470 005f B3550000 		.4byte	.LASF946
 9471 0063 05       		.byte	0x5
 9472 0064 65       		.uleb128 0x65
 9473 0065 AB2D0000 		.4byte	.LASF947
 9474 0069 05       		.byte	0x5
 9475 006a 66       		.uleb128 0x66
 9476 006b 3F940000 		.4byte	.LASF948
 9477 006f 05       		.byte	0x5
 9478 0070 67       		.uleb128 0x67
ARM GAS  /var/folders/z0/6xlwn_996xz3mwq1cgzkbq4r0000gp/T//ccjakVr1.s 			page 193


 9479 0071 538C0000 		.4byte	.LASF949
 9480 0075 05       		.byte	0x5
 9481 0076 68       		.uleb128 0x68
 9482 0077 78930000 		.4byte	.LASF950
 9483 007b 05       		.byte	0x5
 9484 007c 69       		.uleb128 0x69
 9485 007d A2490000 		.4byte	.LASF951
 9486 0081 05       		.byte	0x5
 9487 0082 6E       		.uleb128 0x6e
 9488 0083 18290000 		.4byte	.LASF952
 9489 0087 05       		.byte	0x5
 9490 0088 6F       		.uleb128 0x6f
 9491 0089 FF1E0000 		.4byte	.LASF953
 9492 008d 05       		.byte	0x5
 9493 008e 74       		.uleb128 0x74
 9494 008f 69040000 		.4byte	.LASF954
 9495 0093 05       		.byte	0x5
 9496 0094 75       		.uleb128 0x75
 9497 0095 3A280000 		.4byte	.LASF955
 9498 0099 05       		.byte	0x5
 9499 009a 7A       		.uleb128 0x7a
 9500 009b 87630000 		.4byte	.LASF956
 9501 009f 05       		.byte	0x5
 9502 00a0 7B       		.uleb128 0x7b
 9503 00a1 85170000 		.4byte	.LASF957
 9504 00a5 05       		.byte	0x5
 9505 00a6 7C       		.uleb128 0x7c
 9506 00a7 0B7F0000 		.4byte	.LASF958
 9507 00ab 05       		.byte	0x5
 9508 00ac 7D       		.uleb128 0x7d
 9509 00ad D9470000 		.4byte	.LASF959
 9510 00b1 05       		.byte	0x5
 9511 00b2 7E       		.uleb128 0x7e
 9512 00b3 0B850000 		.4byte	.LASF960
 9513 00b7 05       		.byte	0x5
 9514 00b8 7F       		.uleb128 0x7f
 9515 00b9 B9500000 		.4byte	.LASF961
 9516 00bd 05       		.byte	0x5
 9517 00be 8001     		.uleb128 0x80
 9518 00c0 344F0000 		.4byte	.LASF962
 9519 00c4 05       		.byte	0x5
 9520 00c5 8501     		.uleb128 0x85
 9521 00c7 787A0000 		.4byte	.LASF963
 9522 00cb 05       		.byte	0x5
 9523 00cc 8601     		.uleb128 0x86
 9524 00ce 49020000 		.4byte	.LASF964
 9525 00d2 05       		.byte	0x5
 9526 00d3 8701     		.uleb128 0x87
 9527 00d5 2EA30000 		.4byte	.LASF965
 9528 00d9 05       		.byte	0x5
 9529 00da 8801     		.uleb128 0x88
 9530 00dc B88F0000 		.4byte	.LASF966
 9531 00e0 05       		.byte	0x5
 9532 00e1 8901     		.uleb128 0x89
 9533 00e3 2D4C0000 		.4byte	.LASF967
 9534 00e7 05       		.byte	0x5
 9535 00e8 8A01     		.uleb128 0x8a
ARM GAS  /var/folders/z0/6xlwn_996xz3mwq1cgzkbq4r0000gp/T//ccjakVr1.s 			page 194


 9536 00ea 61350000 		.4byte	.LASF968
 9537 00ee 05       		.byte	0x5
 9538 00ef 8B01     		.uleb128 0x8b
 9539 00f1 9B780000 		.4byte	.LASF969
 9540 00f5 05       		.byte	0x5
 9541 00f6 9001     		.uleb128 0x90
 9542 00f8 3A7D0000 		.4byte	.LASF970
 9543 00fc 05       		.byte	0x5
 9544 00fd 9101     		.uleb128 0x91
 9545 00ff E9A00000 		.4byte	.LASF971
 9546 0103 05       		.byte	0x5
 9547 0104 9301     		.uleb128 0x93
 9548 0106 6CA50000 		.4byte	.LASF972
 9549 010a 05       		.byte	0x5
 9550 010b 9401     		.uleb128 0x94
 9551 010d 49670000 		.4byte	.LASF973
 9552 0111 05       		.byte	0x5
 9553 0112 9601     		.uleb128 0x96
 9554 0114 5C480000 		.4byte	.LASF974
 9555 0118 05       		.byte	0x5
 9556 0119 9701     		.uleb128 0x97
 9557 011b 131B0000 		.4byte	.LASF975
 9558 011f 05       		.byte	0x5
 9559 0120 9801     		.uleb128 0x98
 9560 0122 45240000 		.4byte	.LASF976
 9561 0126 05       		.byte	0x5
 9562 0127 9901     		.uleb128 0x99
 9563 0129 0A780000 		.4byte	.LASF977
 9564 012d 05       		.byte	0x5
 9565 012e 9A01     		.uleb128 0x9a
 9566 0130 A87F0000 		.4byte	.LASF978
 9567 0134 05       		.byte	0x5
 9568 0135 A001     		.uleb128 0xa0
 9569 0137 402C0000 		.4byte	.LASF979
 9570 013b 05       		.byte	0x5
 9571 013c A101     		.uleb128 0xa1
 9572 013e CB330000 		.4byte	.LASF980
 9573 0142 05       		.byte	0x5
 9574 0143 A301     		.uleb128 0xa3
 9575 0145 622C0000 		.4byte	.LASF981
 9576 0149 05       		.byte	0x5
 9577 014a A401     		.uleb128 0xa4
 9578 014c 74550000 		.4byte	.LASF982
 9579 0150 05       		.byte	0x5
 9580 0151 A501     		.uleb128 0xa5
 9581 0153 EC210000 		.4byte	.LASF983
 9582 0157 05       		.byte	0x5
 9583 0158 A601     		.uleb128 0xa6
 9584 015a 71440000 		.4byte	.LASF984
 9585 015e 05       		.byte	0x5
 9586 015f AB01     		.uleb128 0xab
 9587 0161 E8310000 		.4byte	.LASF985
 9588 0165 05       		.byte	0x5
 9589 0166 AC01     		.uleb128 0xac
 9590 0168 B5980000 		.4byte	.LASF986
 9591 016c 05       		.byte	0x5
 9592 016d B201     		.uleb128 0xb2
ARM GAS  /var/folders/z0/6xlwn_996xz3mwq1cgzkbq4r0000gp/T//ccjakVr1.s 			page 195


 9593 016f 8CA80000 		.4byte	.LASF987
 9594 0173 05       		.byte	0x5
 9595 0174 B301     		.uleb128 0xb3
 9596 0176 254B0000 		.4byte	.LASF988
 9597 017a 05       		.byte	0x5
 9598 017b B401     		.uleb128 0xb4
 9599 017d D63A0000 		.4byte	.LASF989
 9600 0181 05       		.byte	0x5
 9601 0182 B501     		.uleb128 0xb5
 9602 0184 B4000000 		.4byte	.LASF990
 9603 0188 05       		.byte	0x5
 9604 0189 BA01     		.uleb128 0xba
 9605 018b 02630000 		.4byte	.LASF991
 9606 018f 05       		.byte	0x5
 9607 0190 BF01     		.uleb128 0xbf
 9608 0192 03660000 		.4byte	.LASF992
 9609 0196 05       		.byte	0x5
 9610 0197 C001     		.uleb128 0xc0
 9611 0199 AF460000 		.4byte	.LASF993
 9612 019d 05       		.byte	0x5
 9613 019e C501     		.uleb128 0xc5
 9614 01a0 D81A0000 		.4byte	.LASF994
 9615 01a4 05       		.byte	0x5
 9616 01a5 CA01     		.uleb128 0xca
 9617 01a7 88420000 		.4byte	.LASF995
 9618 01ab 05       		.byte	0x5
 9619 01ac CF01     		.uleb128 0xcf
 9620 01ae B9AA0000 		.4byte	.LASF996
 9621 01b2 05       		.byte	0x5
 9622 01b3 D401     		.uleb128 0xd4
 9623 01b5 70150000 		.4byte	.LASF997
 9624 01b9 05       		.byte	0x5
 9625 01ba D501     		.uleb128 0xd5
 9626 01bc 0E0E0000 		.4byte	.LASF998
 9627 01c0 05       		.byte	0x5
 9628 01c1 D601     		.uleb128 0xd6
 9629 01c3 B2720000 		.4byte	.LASF999
 9630 01c7 05       		.byte	0x5
 9631 01c8 DB01     		.uleb128 0xdb
 9632 01ca 171A0000 		.4byte	.LASF1000
 9633 01ce 05       		.byte	0x5
 9634 01cf DC01     		.uleb128 0xdc
 9635 01d1 D66D0000 		.4byte	.LASF1001
 9636 01d5 05       		.byte	0x5
 9637 01d6 DD01     		.uleb128 0xdd
 9638 01d8 1B2B0000 		.4byte	.LASF1002
 9639 01dc 05       		.byte	0x5
 9640 01dd DE01     		.uleb128 0xde
 9641 01df B44D0000 		.4byte	.LASF1003
 9642 01e3 05       		.byte	0x5
 9643 01e4 DF01     		.uleb128 0xdf
 9644 01e6 4A480000 		.4byte	.LASF1004
 9645 01ea 05       		.byte	0x5
 9646 01eb E001     		.uleb128 0xe0
 9647 01ed E9460000 		.4byte	.LASF1005
 9648 01f1 05       		.byte	0x5
 9649 01f2 E101     		.uleb128 0xe1
ARM GAS  /var/folders/z0/6xlwn_996xz3mwq1cgzkbq4r0000gp/T//ccjakVr1.s 			page 196


 9650 01f4 3B620000 		.4byte	.LASF936
 9651 01f8 05       		.byte	0x5
 9652 01f9 E301     		.uleb128 0xe3
 9653 01fb 92AD0000 		.4byte	.LASF1006
 9654 01ff 05       		.byte	0x5
 9655 0200 E401     		.uleb128 0xe4
 9656 0202 47050000 		.4byte	.LASF1007
 9657 0206 05       		.byte	0x5
 9658 0207 E601     		.uleb128 0xe6
 9659 0209 00000000 		.4byte	.LASF1008
 9660 020d 05       		.byte	0x5
 9661 020e EB01     		.uleb128 0xeb
 9662 0210 F1A90000 		.4byte	.LASF1009
 9663 0214 05       		.byte	0x5
 9664 0215 EC01     		.uleb128 0xec
 9665 0217 6B780000 		.4byte	.LASF1010
 9666 021b 00       		.byte	0
 9667              		.section	.debug_macro,"G",%progbits,wm4.ccand_11xx.h.33.99627f4b529fecdc77b0877ab6fe5266,comdat
 9668              	.Ldebug_macro27:
 9669 0000 0400     		.2byte	0x4
 9670 0002 00       		.byte	0
 9671 0003 05       		.byte	0x5
 9672 0004 21       		.uleb128 0x21
 9673 0005 E87A0000 		.4byte	.LASF1011
 9674 0009 05       		.byte	0x5
 9675 000a 6E       		.uleb128 0x6e
 9676 000b 9B0F0000 		.4byte	.LASF1012
 9677 000f 05       		.byte	0x5
 9678 0010 6F       		.uleb128 0x6f
 9679 0011 74450000 		.4byte	.LASF1013
 9680 0015 05       		.byte	0x5
 9681 0016 70       		.uleb128 0x70
 9682 0017 7B920000 		.4byte	.LASF1014
 9683 001b 05       		.byte	0x5
 9684 001c 71       		.uleb128 0x71
 9685 001d 7E390000 		.4byte	.LASF1015
 9686 0021 05       		.byte	0x5
 9687 0022 72       		.uleb128 0x72
 9688 0023 67880000 		.4byte	.LASF1016
 9689 0027 05       		.byte	0x5
 9690 0028 73       		.uleb128 0x73
 9691 0029 50180000 		.4byte	.LASF1017
 9692 002d 05       		.byte	0x5
 9693 002e 74       		.uleb128 0x74
 9694 002f E8640000 		.4byte	.LASF1018
 9695 0033 05       		.byte	0x5
 9696 0034 75       		.uleb128 0x75
 9697 0035 7C950000 		.4byte	.LASF1019
 9698 0039 05       		.byte	0x5
 9699 003a 76       		.uleb128 0x76
 9700 003b 1F160000 		.4byte	.LASF1020
 9701 003f 05       		.byte	0x5
 9702 0040 77       		.uleb128 0x77
 9703 0041 E6220000 		.4byte	.LASF1021
 9704 0045 05       		.byte	0x5
 9705 0046 7C       		.uleb128 0x7c
 9706 0047 2CA00000 		.4byte	.LASF1022
ARM GAS  /var/folders/z0/6xlwn_996xz3mwq1cgzkbq4r0000gp/T//ccjakVr1.s 			page 197


 9707 004b 05       		.byte	0x5
 9708 004c 7D       		.uleb128 0x7d
 9709 004d 2B400000 		.4byte	.LASF1023
 9710 0051 05       		.byte	0x5
 9711 0052 7E       		.uleb128 0x7e
 9712 0053 38970000 		.4byte	.LASF1024
 9713 0057 05       		.byte	0x5
 9714 0058 7F       		.uleb128 0x7f
 9715 0059 0B840000 		.4byte	.LASF1025
 9716 005d 05       		.byte	0x5
 9717 005e 9101     		.uleb128 0x91
 9718 0060 BA590000 		.4byte	.LASF1026
 9719 0064 05       		.byte	0x5
 9720 0065 9201     		.uleb128 0x92
 9721 0067 41760000 		.4byte	.LASF1027
 9722 006b 05       		.byte	0x5
 9723 006c 9301     		.uleb128 0x93
 9724 006e B0910000 		.4byte	.LASF1028
 9725 0072 05       		.byte	0x5
 9726 0073 9401     		.uleb128 0x94
 9727 0075 91760000 		.4byte	.LASF1029
 9728 0079 05       		.byte	0x5
 9729 007a 9501     		.uleb128 0x95
 9730 007c 231A0000 		.4byte	.LASF1030
 9731 0080 05       		.byte	0x5
 9732 0081 9601     		.uleb128 0x96
 9733 0083 E89B0000 		.4byte	.LASF1031
 9734 0087 05       		.byte	0x5
 9735 0088 9701     		.uleb128 0x97
 9736 008a 522A0000 		.4byte	.LASF1032
 9737 008e 05       		.byte	0x5
 9738 008f 9801     		.uleb128 0x98
 9739 0091 32380000 		.4byte	.LASF1033
 9740 0095 05       		.byte	0x5
 9741 0096 9901     		.uleb128 0x99
 9742 0098 9C1F0000 		.4byte	.LASF1034
 9743 009c 05       		.byte	0x5
 9744 009d 9A01     		.uleb128 0x9a
 9745 009f 99880000 		.4byte	.LASF1035
 9746 00a3 05       		.byte	0x5
 9747 00a4 9B01     		.uleb128 0x9b
 9748 00a6 149F0000 		.4byte	.LASF1036
 9749 00aa 05       		.byte	0x5
 9750 00ab 9C01     		.uleb128 0x9c
 9751 00ad 72240000 		.4byte	.LASF1037
 9752 00b1 05       		.byte	0x5
 9753 00b2 9D01     		.uleb128 0x9d
 9754 00b4 67340000 		.4byte	.LASF1038
 9755 00b8 05       		.byte	0x5
 9756 00b9 9E01     		.uleb128 0x9e
 9757 00bb 9C480000 		.4byte	.LASF1039
 9758 00bf 05       		.byte	0x5
 9759 00c0 9F01     		.uleb128 0x9f
 9760 00c2 902A0000 		.4byte	.LASF1040
 9761 00c6 05       		.byte	0x5
 9762 00c7 A901     		.uleb128 0xa9
 9763 00c9 A2430000 		.4byte	.LASF1041
ARM GAS  /var/folders/z0/6xlwn_996xz3mwq1cgzkbq4r0000gp/T//ccjakVr1.s 			page 198


 9764 00cd 05       		.byte	0x5
 9765 00ce AA01     		.uleb128 0xaa
 9766 00d0 CC450000 		.4byte	.LASF1042
 9767 00d4 05       		.byte	0x5
 9768 00d5 AB01     		.uleb128 0xab
 9769 00d7 4C9F0000 		.4byte	.LASF1043
 9770 00db 05       		.byte	0x5
 9771 00dc AC01     		.uleb128 0xac
 9772 00de 1D6E0000 		.4byte	.LASF1044
 9773 00e2 05       		.byte	0x5
 9774 00e3 AD01     		.uleb128 0xad
 9775 00e5 94570000 		.4byte	.LASF1045
 9776 00e9 05       		.byte	0x5
 9777 00ea AE01     		.uleb128 0xae
 9778 00ec 23380000 		.4byte	.LASF1046
 9779 00f0 05       		.byte	0x5
 9780 00f1 AF01     		.uleb128 0xaf
 9781 00f3 5A040000 		.4byte	.LASF1047
 9782 00f7 05       		.byte	0x5
 9783 00f8 C401     		.uleb128 0xc4
 9784 00fa 1E190000 		.4byte	.LASF1048
 9785 00fe 05       		.byte	0x5
 9786 00ff C501     		.uleb128 0xc5
 9787 0101 55960000 		.4byte	.LASF1049
 9788 0105 05       		.byte	0x5
 9789 0106 C601     		.uleb128 0xc6
 9790 0108 60950000 		.4byte	.LASF1050
 9791 010c 05       		.byte	0x5
 9792 010d C901     		.uleb128 0xc9
 9793 010f 73360000 		.4byte	.LASF1051
 9794 0113 05       		.byte	0x5
 9795 0114 CA01     		.uleb128 0xca
 9796 0116 B53B0000 		.4byte	.LASF1052
 9797 011a 05       		.byte	0x5
 9798 011b CB01     		.uleb128 0xcb
 9799 011d 98160000 		.4byte	.LASF1053
 9800 0121 05       		.byte	0x5
 9801 0122 E501     		.uleb128 0xe5
 9802 0124 55520000 		.4byte	.LASF1054
 9803 0128 00       		.byte	0
 9804              		.section	.debug_macro,"G",%progbits,wm4.newlib.h.8.36dd0417407b0a085bc04c49cc2ed13a,comdat
 9805              	.Ldebug_macro28:
 9806 0000 0400     		.2byte	0x4
 9807 0002 00       		.byte	0
 9808 0003 05       		.byte	0x5
 9809 0004 08       		.uleb128 0x8
 9810 0005 A7790000 		.4byte	.LASF1057
 9811 0009 05       		.byte	0x5
 9812 000a 15       		.uleb128 0x15
 9813 000b 85890000 		.4byte	.LASF1058
 9814 000f 05       		.byte	0x5
 9815 0010 18       		.uleb128 0x18
 9816 0011 7C0C0000 		.4byte	.LASF1059
 9817 0015 05       		.byte	0x5
 9818 0016 28       		.uleb128 0x28
 9819 0017 DD0C0000 		.4byte	.LASF1060
 9820 001b 05       		.byte	0x5
ARM GAS  /var/folders/z0/6xlwn_996xz3mwq1cgzkbq4r0000gp/T//ccjakVr1.s 			page 199


 9821 001c 32       		.uleb128 0x32
 9822 001d 722F0000 		.4byte	.LASF1061
 9823 0021 05       		.byte	0x5
 9824 0022 36       		.uleb128 0x36
 9825 0023 B3330000 		.4byte	.LASF1062
 9826 0027 05       		.byte	0x5
 9827 0028 39       		.uleb128 0x39
 9828 0029 724A0000 		.4byte	.LASF1063
 9829 002d 05       		.byte	0x5
 9830 002e 3C       		.uleb128 0x3c
 9831 002f 14770000 		.4byte	.LASF1064
 9832 0033 05       		.byte	0x5
 9833 0034 3F       		.uleb128 0x3f
 9834 0035 DAAC0000 		.4byte	.LASF1065
 9835 0039 05       		.byte	0x5
 9836 003a 42       		.uleb128 0x42
 9837 003b E58E0000 		.4byte	.LASF1066
 9838 003f 05       		.byte	0x5
 9839 0040 45       		.uleb128 0x45
 9840 0041 BEA30000 		.4byte	.LASF1067
 9841 0045 05       		.byte	0x5
 9842 0046 48       		.uleb128 0x48
 9843 0047 929F0000 		.4byte	.LASF1068
 9844 004b 05       		.byte	0x5
 9845 004c 4B       		.uleb128 0x4b
 9846 004d 5E510000 		.4byte	.LASF1069
 9847 0051 00       		.byte	0
 9848              		.section	.debug_macro,"G",%progbits,wm4.config.h.219.65a553ab5bef5482f0d7880b0d33015e,comdat
 9849              	.Ldebug_macro29:
 9850 0000 0400     		.2byte	0x4
 9851 0002 00       		.byte	0
 9852 0003 05       		.byte	0x5
 9853 0004 DB01     		.uleb128 0xdb
 9854 0006 E1620000 		.4byte	.LASF1072
 9855 000a 06       		.byte	0x6
 9856 000b E101     		.uleb128 0xe1
 9857 000d 0B900000 		.4byte	.LASF1073
 9858 0011 05       		.byte	0x5
 9859 0012 E501     		.uleb128 0xe5
 9860 0014 6C1F0000 		.4byte	.LASF1074
 9861 0018 05       		.byte	0x5
 9862 0019 F401     		.uleb128 0xf4
 9863 001b 2D6F0000 		.4byte	.LASF1075
 9864 001f 05       		.byte	0x5
 9865 0020 F801     		.uleb128 0xf8
 9866 0022 C49C0000 		.4byte	.LASF1076
 9867 0026 05       		.byte	0x5
 9868 0027 FF01     		.uleb128 0xff
 9869 0029 A5830000 		.4byte	.LASF1077
 9870 002d 05       		.byte	0x5
 9871 002e 8502     		.uleb128 0x105
 9872 0030 C9050000 		.4byte	.LASF1078
 9873 0034 00       		.byte	0
 9874              		.section	.debug_macro,"G",%progbits,wm4._ansi.h.23.84af8eb8cd468d25cc5f45f5eb13ec51,comdat
 9875              	.Ldebug_macro30:
 9876 0000 0400     		.2byte	0x4
 9877 0002 00       		.byte	0
ARM GAS  /var/folders/z0/6xlwn_996xz3mwq1cgzkbq4r0000gp/T//ccjakVr1.s 			page 200


 9878 0003 05       		.byte	0x5
 9879 0004 17       		.uleb128 0x17
 9880 0005 0A120000 		.4byte	.LASF1079
 9881 0009 05       		.byte	0x5
 9882 000a 2C       		.uleb128 0x2c
 9883 000b 86210000 		.4byte	.LASF1080
 9884 000f 05       		.byte	0x5
 9885 0010 2D       		.uleb128 0x2d
 9886 0011 C34F0000 		.4byte	.LASF1081
 9887 0015 05       		.byte	0x5
 9888 0016 2E       		.uleb128 0x2e
 9889 0017 06910000 		.4byte	.LASF1082
 9890 001b 05       		.byte	0x5
 9891 001c 32       		.uleb128 0x32
 9892 001d 58620000 		.4byte	.LASF1083
 9893 0021 05       		.byte	0x5
 9894 0022 33       		.uleb128 0x33
 9895 0023 595F0000 		.4byte	.LASF1084
 9896 0027 05       		.byte	0x5
 9897 0028 34       		.uleb128 0x34
 9898 0029 02280000 		.4byte	.LASF1085
 9899 002d 05       		.byte	0x5
 9900 002e 35       		.uleb128 0x35
 9901 002f 6B200000 		.4byte	.LASF1086
 9902 0033 05       		.byte	0x5
 9903 0034 36       		.uleb128 0x36
 9904 0035 2D2C0000 		.4byte	.LASF1087
 9905 0039 05       		.byte	0x5
 9906 003a 37       		.uleb128 0x37
 9907 003b 466D0000 		.4byte	.LASF1088
 9908 003f 05       		.byte	0x5
 9909 0040 38       		.uleb128 0x38
 9910 0041 713B0000 		.4byte	.LASF1089
 9911 0045 05       		.byte	0x5
 9912 0046 39       		.uleb128 0x39
 9913 0047 73030000 		.4byte	.LASF1090
 9914 004b 05       		.byte	0x5
 9915 004c 40       		.uleb128 0x40
 9916 004d FE080000 		.4byte	.LASF1091
 9917 0051 05       		.byte	0x5
 9918 0052 41       		.uleb128 0x41
 9919 0053 CA040000 		.4byte	.LASF1092
 9920 0057 05       		.byte	0x5
 9921 0058 42       		.uleb128 0x42
 9922 0059 3F860000 		.4byte	.LASF1093
 9923 005d 05       		.byte	0x5
 9924 005e 43       		.uleb128 0x43
 9925 005f E51C0000 		.4byte	.LASF1094
 9926 0063 05       		.byte	0x5
 9927 0064 45       		.uleb128 0x45
 9928 0065 204E0000 		.4byte	.LASF1095
 9929 0069 05       		.byte	0x5
 9930 006a 46       		.uleb128 0x46
 9931 006b 8A120000 		.4byte	.LASF1096
 9932 006f 05       		.byte	0x5
 9933 0070 47       		.uleb128 0x47
 9934 0071 7D3B0000 		.4byte	.LASF1097
ARM GAS  /var/folders/z0/6xlwn_996xz3mwq1cgzkbq4r0000gp/T//ccjakVr1.s 			page 201


 9935 0075 05       		.byte	0x5
 9936 0076 49       		.uleb128 0x49
 9937 0077 F89D0000 		.4byte	.LASF1098
 9938 007b 05       		.byte	0x5
 9939 007c 4C       		.uleb128 0x4c
 9940 007d DD540000 		.4byte	.LASF1099
 9941 0081 05       		.byte	0x5
 9942 0082 65       		.uleb128 0x65
 9943 0083 039A0000 		.4byte	.LASF1100
 9944 0087 05       		.byte	0x5
 9945 0088 7B       		.uleb128 0x7b
 9946 0089 060F0000 		.4byte	.LASF1101
 9947 008d 05       		.byte	0x5
 9948 008e 8301     		.uleb128 0x83
 9949 0090 4A0F0000 		.4byte	.LASF1102
 9950 0094 05       		.byte	0x5
 9951 0095 8401     		.uleb128 0x84
 9952 0097 710E0000 		.4byte	.LASF1103
 9953 009b 00       		.byte	0
 9954              		.section	.debug_macro,"G",%progbits,wm4.stddef.h.39.99b5021e28f91cdb161c889e07266673,comdat
 9955              	.Ldebug_macro31:
 9956 0000 0400     		.2byte	0x4
 9957 0002 00       		.byte	0
 9958 0003 05       		.byte	0x5
 9959 0004 27       		.uleb128 0x27
 9960 0005 23470000 		.4byte	.LASF1105
 9961 0009 05       		.byte	0x5
 9962 000a 28       		.uleb128 0x28
 9963 000b DA8F0000 		.4byte	.LASF1106
 9964 000f 05       		.byte	0x5
 9965 0010 2A       		.uleb128 0x2a
 9966 0011 EA660000 		.4byte	.LASF1107
 9967 0015 05       		.byte	0x5
 9968 0016 8901     		.uleb128 0x89
 9969 0018 2E2F0000 		.4byte	.LASF1108
 9970 001c 05       		.byte	0x5
 9971 001d 8A01     		.uleb128 0x8a
 9972 001f 080C0000 		.4byte	.LASF1109
 9973 0023 05       		.byte	0x5
 9974 0024 8B01     		.uleb128 0x8b
 9975 0026 22830000 		.4byte	.LASF1110
 9976 002a 05       		.byte	0x5
 9977 002b 8C01     		.uleb128 0x8c
 9978 002d EB6F0000 		.4byte	.LASF1111
 9979 0031 05       		.byte	0x5
 9980 0032 8D01     		.uleb128 0x8d
 9981 0034 656F0000 		.4byte	.LASF1112
 9982 0038 05       		.byte	0x5
 9983 0039 8E01     		.uleb128 0x8e
 9984 003b AD920000 		.4byte	.LASF1113
 9985 003f 05       		.byte	0x5
 9986 0040 8F01     		.uleb128 0x8f
 9987 0042 849D0000 		.4byte	.LASF1114
 9988 0046 05       		.byte	0x5
 9989 0047 9001     		.uleb128 0x90
 9990 0049 F1830000 		.4byte	.LASF1115
 9991 004d 05       		.byte	0x5
ARM GAS  /var/folders/z0/6xlwn_996xz3mwq1cgzkbq4r0000gp/T//ccjakVr1.s 			page 202


 9992 004e 9101     		.uleb128 0x91
 9993 0050 A52E0000 		.4byte	.LASF1116
 9994 0054 06       		.byte	0x6
 9995 0055 A101     		.uleb128 0xa1
 9996 0057 B76C0000 		.4byte	.LASF1117
 9997 005b 05       		.byte	0x5
 9998 005c BB01     		.uleb128 0xbb
 9999 005e CF610000 		.4byte	.LASF1118
 10000 0062 05       		.byte	0x5
 10001 0063 BC01     		.uleb128 0xbc
 10002 0065 9FA60000 		.4byte	.LASF1119
 10003 0069 05       		.byte	0x5
 10004 006a BD01     		.uleb128 0xbd
 10005 006c E9AC0000 		.4byte	.LASF1120
 10006 0070 05       		.byte	0x5
 10007 0071 BE01     		.uleb128 0xbe
 10008 0073 08580000 		.4byte	.LASF1121
 10009 0077 05       		.byte	0x5
 10010 0078 BF01     		.uleb128 0xbf
 10011 007a F6190000 		.4byte	.LASF1122
 10012 007e 05       		.byte	0x5
 10013 007f C001     		.uleb128 0xc0
 10014 0081 DA730000 		.4byte	.LASF1123
 10015 0085 05       		.byte	0x5
 10016 0086 C101     		.uleb128 0xc1
 10017 0088 CD710000 		.4byte	.LASF1124
 10018 008c 05       		.byte	0x5
 10019 008d C201     		.uleb128 0xc2
 10020 008f AA450000 		.4byte	.LASF1125
 10021 0093 05       		.byte	0x5
 10022 0094 C301     		.uleb128 0xc3
 10023 0096 A6630000 		.4byte	.LASF1126
 10024 009a 05       		.byte	0x5
 10025 009b C401     		.uleb128 0xc4
 10026 009d FB3F0000 		.4byte	.LASF1127
 10027 00a1 05       		.byte	0x5
 10028 00a2 C501     		.uleb128 0xc5
 10029 00a4 847D0000 		.4byte	.LASF1128
 10030 00a8 05       		.byte	0x5
 10031 00a9 C601     		.uleb128 0xc6
 10032 00ab 42110000 		.4byte	.LASF1129
 10033 00af 05       		.byte	0x5
 10034 00b0 C701     		.uleb128 0xc7
 10035 00b2 FD200000 		.4byte	.LASF1130
 10036 00b6 05       		.byte	0x5
 10037 00b7 C801     		.uleb128 0xc8
 10038 00b9 7D3F0000 		.4byte	.LASF1131
 10039 00bd 05       		.byte	0x5
 10040 00be C901     		.uleb128 0xc9
 10041 00c0 2E1C0000 		.4byte	.LASF1132
 10042 00c4 05       		.byte	0x5
 10043 00c5 CA01     		.uleb128 0xca
 10044 00c7 FC8E0000 		.4byte	.LASF1133
 10045 00cb 05       		.byte	0x5
 10046 00cc D201     		.uleb128 0xd2
 10047 00ce 95280000 		.4byte	.LASF1134
 10048 00d2 06       		.byte	0x6
ARM GAS  /var/folders/z0/6xlwn_996xz3mwq1cgzkbq4r0000gp/T//ccjakVr1.s 			page 203


 10049 00d3 EE01     		.uleb128 0xee
 10050 00d5 2C460000 		.4byte	.LASF1135
 10051 00d9 05       		.byte	0x5
 10052 00da 8B02     		.uleb128 0x10b
 10053 00dc 9F0D0000 		.4byte	.LASF1136
 10054 00e0 05       		.byte	0x5
 10055 00e1 8C02     		.uleb128 0x10c
 10056 00e3 88080000 		.4byte	.LASF1137
 10057 00e7 05       		.byte	0x5
 10058 00e8 8D02     		.uleb128 0x10d
 10059 00ea 05550000 		.4byte	.LASF1138
 10060 00ee 05       		.byte	0x5
 10061 00ef 8E02     		.uleb128 0x10e
 10062 00f1 D7480000 		.4byte	.LASF1139
 10063 00f5 05       		.byte	0x5
 10064 00f6 8F02     		.uleb128 0x10f
 10065 00f8 C08E0000 		.4byte	.LASF1140
 10066 00fc 05       		.byte	0x5
 10067 00fd 9002     		.uleb128 0x110
 10068 00ff BE920000 		.4byte	.LASF1141
 10069 0103 05       		.byte	0x5
 10070 0104 9102     		.uleb128 0x111
 10071 0106 B18A0000 		.4byte	.LASF1142
 10072 010a 05       		.byte	0x5
 10073 010b 9202     		.uleb128 0x112
 10074 010d 548B0000 		.4byte	.LASF1143
 10075 0111 05       		.byte	0x5
 10076 0112 9302     		.uleb128 0x113
 10077 0114 A7320000 		.4byte	.LASF1144
 10078 0118 05       		.byte	0x5
 10079 0119 9402     		.uleb128 0x114
 10080 011b 2C6E0000 		.4byte	.LASF1145
 10081 011f 05       		.byte	0x5
 10082 0120 9502     		.uleb128 0x115
 10083 0122 A3360000 		.4byte	.LASF1146
 10084 0126 05       		.byte	0x5
 10085 0127 9602     		.uleb128 0x116
 10086 0129 8F150000 		.4byte	.LASF1147
 10087 012d 05       		.byte	0x5
 10088 012e 9702     		.uleb128 0x117
 10089 0130 A19F0000 		.4byte	.LASF1148
 10090 0134 05       		.byte	0x5
 10091 0135 9802     		.uleb128 0x118
 10092 0137 06430000 		.4byte	.LASF1149
 10093 013b 05       		.byte	0x5
 10094 013c 9902     		.uleb128 0x119
 10095 013e 10510000 		.4byte	.LASF1150
 10096 0142 06       		.byte	0x6
 10097 0143 A602     		.uleb128 0x126
 10098 0145 28450000 		.4byte	.LASF1151
 10099 0149 06       		.byte	0x6
 10100 014a DB02     		.uleb128 0x15b
 10101 014c CD820000 		.4byte	.LASF1152
 10102 0150 06       		.byte	0x6
 10103 0151 9103     		.uleb128 0x191
 10104 0153 564F0000 		.4byte	.LASF1153
 10105 0157 05       		.byte	0x5
ARM GAS  /var/folders/z0/6xlwn_996xz3mwq1cgzkbq4r0000gp/T//ccjakVr1.s 			page 204


 10106 0158 9603     		.uleb128 0x196
 10107 015a CD800000 		.4byte	.LASF1154
 10108 015e 06       		.byte	0x6
 10109 015f 9C03     		.uleb128 0x19c
 10110 0161 0A5C0000 		.4byte	.LASF1155
 10111 0165 05       		.byte	0x5
 10112 0166 A103     		.uleb128 0x1a1
 10113 0168 165C0000 		.4byte	.LASF1156
 10114 016c 00       		.byte	0
 10115              		.section	.debug_macro,"G",%progbits,wm4.lock.h.2.9bc98482741e5e2a9450b12934a684ea,comdat
 10116              	.Ldebug_macro32:
 10117 0000 0400     		.2byte	0x4
 10118 0002 00       		.byte	0
 10119 0003 05       		.byte	0x5
 10120 0004 02       		.uleb128 0x2
 10121 0005 A1150000 		.4byte	.LASF1159
 10122 0009 05       		.byte	0x5
 10123 000a 0B       		.uleb128 0xb
 10124 000b 5A430000 		.4byte	.LASF1160
 10125 000f 05       		.byte	0x5
 10126 0010 0C       		.uleb128 0xc
 10127 0011 6C180000 		.4byte	.LASF1161
 10128 0015 05       		.byte	0x5
 10129 0016 0D       		.uleb128 0xd
 10130 0017 A3570000 		.4byte	.LASF1162
 10131 001b 05       		.byte	0x5
 10132 001c 0E       		.uleb128 0xe
 10133 001d 95900000 		.4byte	.LASF1163
 10134 0021 05       		.byte	0x5
 10135 0022 0F       		.uleb128 0xf
 10136 0023 89470000 		.4byte	.LASF1164
 10137 0027 05       		.byte	0x5
 10138 0028 10       		.uleb128 0x10
 10139 0029 29720000 		.4byte	.LASF1165
 10140 002d 05       		.byte	0x5
 10141 002e 11       		.uleb128 0x11
 10142 002f 7B0B0000 		.4byte	.LASF1166
 10143 0033 05       		.byte	0x5
 10144 0034 12       		.uleb128 0x12
 10145 0035 93610000 		.4byte	.LASF1167
 10146 0039 05       		.byte	0x5
 10147 003a 13       		.uleb128 0x13
 10148 003b 6C560000 		.4byte	.LASF1168
 10149 003f 05       		.byte	0x5
 10150 0040 14       		.uleb128 0x14
 10151 0041 C3160000 		.4byte	.LASF1169
 10152 0045 05       		.byte	0x5
 10153 0046 15       		.uleb128 0x15
 10154 0047 9F3A0000 		.4byte	.LASF1170
 10155 004b 05       		.byte	0x5
 10156 004c 16       		.uleb128 0x16
 10157 004d 58A00000 		.4byte	.LASF1171
 10158 0051 00       		.byte	0
 10159              		.section	.debug_macro,"G",%progbits,wm4._types.h.125.5cf8a495f1f7ef36777ad868a1e32068,comdat
 10160              	.Ldebug_macro33:
 10161 0000 0400     		.2byte	0x4
 10162 0002 00       		.byte	0
ARM GAS  /var/folders/z0/6xlwn_996xz3mwq1cgzkbq4r0000gp/T//ccjakVr1.s 			page 205


 10163 0003 06       		.byte	0x6
 10164 0004 7D       		.uleb128 0x7d
 10165 0005 E28D0000 		.4byte	.LASF1172
 10166 0009 05       		.byte	0x5
 10167 000a 9001     		.uleb128 0x90
 10168 000c 4D640000 		.4byte	.LASF1173
 10169 0010 06       		.byte	0x6
 10170 0011 9201     		.uleb128 0x92
 10171 0013 1E6C0000 		.4byte	.LASF391
 10172 0017 05       		.byte	0x5
 10173 0018 9E01     		.uleb128 0x9e
 10174 001a 9B960000 		.4byte	.LASF1174
 10175 001e 00       		.byte	0
 10176              		.section	.debug_macro,"G",%progbits,wm4.stddef.h.161.5349cb105733e8777bfb0cf53c4e3f34,comdat
 10177              	.Ldebug_macro34:
 10178 0000 0400     		.2byte	0x4
 10179 0002 00       		.byte	0
 10180 0003 06       		.byte	0x6
 10181 0004 A101     		.uleb128 0xa1
 10182 0006 B76C0000 		.4byte	.LASF1117
 10183 000a 06       		.byte	0x6
 10184 000b EE01     		.uleb128 0xee
 10185 000d 2C460000 		.4byte	.LASF1135
 10186 0011 06       		.byte	0x6
 10187 0012 DB02     		.uleb128 0x15b
 10188 0014 CD820000 		.4byte	.LASF1152
 10189 0018 05       		.byte	0x5
 10190 0019 E002     		.uleb128 0x160
 10191 001b 00030000 		.4byte	.LASF1175
 10192 001f 06       		.byte	0x6
 10193 0020 E702     		.uleb128 0x167
 10194 0022 0D4D0000 		.4byte	.LASF1176
 10195 0026 06       		.byte	0x6
 10196 0027 9103     		.uleb128 0x191
 10197 0029 564F0000 		.4byte	.LASF1153
 10198 002d 05       		.byte	0x5
 10199 002e 9603     		.uleb128 0x196
 10200 0030 CD800000 		.4byte	.LASF1154
 10201 0034 06       		.byte	0x6
 10202 0035 9C03     		.uleb128 0x19c
 10203 0037 0A5C0000 		.4byte	.LASF1155
 10204 003b 05       		.byte	0x5
 10205 003c A103     		.uleb128 0x1a1
 10206 003e 165C0000 		.4byte	.LASF1156
 10207 0042 00       		.byte	0
 10208              		.section	.debug_macro,"G",%progbits,wm4._types.h.183.c226d164ceca1f2ecb9ae9360c54a098,comdat
 10209              	.Ldebug_macro35:
 10210 0000 0400     		.2byte	0x4
 10211 0002 00       		.byte	0
 10212 0003 05       		.byte	0x5
 10213 0004 B701     		.uleb128 0xb7
 10214 0006 FC030000 		.4byte	.LASF1177
 10215 000a 05       		.byte	0x5
 10216 000b BA01     		.uleb128 0xba
 10217 000d 097A0000 		.4byte	.LASF1178
 10218 0011 05       		.byte	0x5
 10219 0012 BD01     		.uleb128 0xbd
ARM GAS  /var/folders/z0/6xlwn_996xz3mwq1cgzkbq4r0000gp/T//ccjakVr1.s 			page 206


 10220 0014 E5670000 		.4byte	.LASF1179
 10221 0018 05       		.byte	0x5
 10222 0019 C001     		.uleb128 0xc0
 10223 001b D3390000 		.4byte	.LASF1180
 10224 001f 00       		.byte	0
 10225              		.section	.debug_macro,"G",%progbits,wm4.reent.h.17.23b059516345f8f5abfa01ddc379570f,comdat
 10226              	.Ldebug_macro36:
 10227 0000 0400     		.2byte	0x4
 10228 0002 00       		.byte	0
 10229 0003 05       		.byte	0x5
 10230 0004 11       		.uleb128 0x11
 10231 0005 FF4F0000 		.4byte	.LASF1181
 10232 0009 05       		.byte	0x5
 10233 000a 15       		.uleb128 0x15
 10234 000b 87720000 		.4byte	.LASF1182
 10235 000f 05       		.byte	0x5
 10236 0010 48       		.uleb128 0x48
 10237 0011 C7290000 		.4byte	.LASF1183
 10238 0015 05       		.byte	0x5
 10239 0016 64       		.uleb128 0x64
 10240 0017 779E0000 		.4byte	.LASF1184
 10241 001b 05       		.byte	0x5
 10242 001c 6A       		.uleb128 0x6a
 10243 001d 53920000 		.4byte	.LASF1185
 10244 0021 05       		.byte	0x5
 10245 0022 B201     		.uleb128 0xb2
 10246 0024 7D960000 		.4byte	.LASF1186
 10247 0028 05       		.byte	0x5
 10248 0029 B802     		.uleb128 0x138
 10249 002b 9D8B0000 		.4byte	.LASF1187
 10250 002f 05       		.byte	0x5
 10251 0030 B902     		.uleb128 0x139
 10252 0032 BB510000 		.4byte	.LASF1188
 10253 0036 05       		.byte	0x5
 10254 0037 BA02     		.uleb128 0x13a
 10255 0039 C55E0000 		.4byte	.LASF1189
 10256 003d 05       		.byte	0x5
 10257 003e BB02     		.uleb128 0x13b
 10258 0040 2F5A0000 		.4byte	.LASF1190
 10259 0044 05       		.byte	0x5
 10260 0045 BC02     		.uleb128 0x13c
 10261 0047 64690000 		.4byte	.LASF1191
 10262 004b 05       		.byte	0x5
 10263 004c BD02     		.uleb128 0x13d
 10264 004e BA670000 		.4byte	.LASF1192
 10265 0052 05       		.byte	0x5
 10266 0053 BE02     		.uleb128 0x13e
 10267 0055 888B0000 		.4byte	.LASF1193
 10268 0059 05       		.byte	0x5
 10269 005a CA02     		.uleb128 0x14a
 10270 005c 391F0000 		.4byte	.LASF1194
 10271 0060 05       		.byte	0x5
 10272 0061 CB02     		.uleb128 0x14b
 10273 0063 64A30000 		.4byte	.LASF1195
 10274 0067 05       		.byte	0x5
 10275 0068 CC02     		.uleb128 0x14c
 10276 006a DD7E0000 		.4byte	.LASF1196
ARM GAS  /var/folders/z0/6xlwn_996xz3mwq1cgzkbq4r0000gp/T//ccjakVr1.s 			page 207


 10277 006e 05       		.byte	0x5
 10278 006f F404     		.uleb128 0x274
 10279 0071 3E6E0000 		.4byte	.LASF1197
 10280 0075 05       		.byte	0x5
 10281 0076 8A05     		.uleb128 0x28a
 10282 0078 37130000 		.4byte	.LASF1198
 10283 007c 05       		.byte	0x5
 10284 007d BA05     		.uleb128 0x2ba
 10285 007f 363D0000 		.4byte	.LASF1199
 10286 0083 05       		.byte	0x5
 10287 0084 C805     		.uleb128 0x2c8
 10288 0086 AE020000 		.4byte	.LASF1200
 10289 008a 05       		.byte	0x5
 10290 008b C905     		.uleb128 0x2c9
 10291 008d 53420000 		.4byte	.LASF1201
 10292 0091 05       		.byte	0x5
 10293 0092 CA05     		.uleb128 0x2ca
 10294 0094 F9100000 		.4byte	.LASF1202
 10295 0098 05       		.byte	0x5
 10296 0099 CB05     		.uleb128 0x2cb
 10297 009b 7E030000 		.4byte	.LASF1203
 10298 009f 05       		.byte	0x5
 10299 00a0 CC05     		.uleb128 0x2cc
 10300 00a2 D39A0000 		.4byte	.LASF1204
 10301 00a6 05       		.byte	0x5
 10302 00a7 CD05     		.uleb128 0x2cd
 10303 00a9 6D890000 		.4byte	.LASF1205
 10304 00ad 05       		.byte	0x5
 10305 00ae CE05     		.uleb128 0x2ce
 10306 00b0 621C0000 		.4byte	.LASF1206
 10307 00b4 05       		.byte	0x5
 10308 00b5 D005     		.uleb128 0x2d0
 10309 00b7 8F2C0000 		.4byte	.LASF1207
 10310 00bb 05       		.byte	0x5
 10311 00bc D105     		.uleb128 0x2d1
 10312 00be F3580000 		.4byte	.LASF1208
 10313 00c2 05       		.byte	0x5
 10314 00c3 D205     		.uleb128 0x2d2
 10315 00c5 F0730000 		.4byte	.LASF1209
 10316 00c9 05       		.byte	0x5
 10317 00ca D305     		.uleb128 0x2d3
 10318 00cc 87AE0000 		.4byte	.LASF1210
 10319 00d0 05       		.byte	0x5
 10320 00d1 D405     		.uleb128 0x2d4
 10321 00d3 2E2B0000 		.4byte	.LASF1211
 10322 00d7 05       		.byte	0x5
 10323 00d8 D505     		.uleb128 0x2d5
 10324 00da 544E0000 		.4byte	.LASF1212
 10325 00de 05       		.byte	0x5
 10326 00df D605     		.uleb128 0x2d6
 10327 00e1 02A60000 		.4byte	.LASF1213
 10328 00e5 05       		.byte	0x5
 10329 00e6 D705     		.uleb128 0x2d7
 10330 00e8 8F930000 		.4byte	.LASF1214
 10331 00ec 05       		.byte	0x5
 10332 00ed D805     		.uleb128 0x2d8
 10333 00ef 6A8C0000 		.4byte	.LASF1215
ARM GAS  /var/folders/z0/6xlwn_996xz3mwq1cgzkbq4r0000gp/T//ccjakVr1.s 			page 208


 10334 00f3 05       		.byte	0x5
 10335 00f4 D905     		.uleb128 0x2d9
 10336 00f6 A46A0000 		.4byte	.LASF1216
 10337 00fa 05       		.byte	0x5
 10338 00fb DA05     		.uleb128 0x2da
 10339 00fd 90990000 		.4byte	.LASF1217
 10340 0101 05       		.byte	0x5
 10341 0102 DB05     		.uleb128 0x2db
 10342 0104 655A0000 		.4byte	.LASF1218
 10343 0108 05       		.byte	0x5
 10344 0109 DC05     		.uleb128 0x2dc
 10345 010b 3B2E0000 		.4byte	.LASF1219
 10346 010f 05       		.byte	0x5
 10347 0110 DD05     		.uleb128 0x2dd
 10348 0112 A6170000 		.4byte	.LASF1220
 10349 0116 05       		.byte	0x5
 10350 0117 DE05     		.uleb128 0x2de
 10351 0119 CEA80000 		.4byte	.LASF1221
 10352 011d 05       		.byte	0x5
 10353 011e DF05     		.uleb128 0x2df
 10354 0120 1B5B0000 		.4byte	.LASF1222
 10355 0124 05       		.byte	0x5
 10356 0125 E005     		.uleb128 0x2e0
 10357 0127 639B0000 		.4byte	.LASF1223
 10358 012b 05       		.byte	0x5
 10359 012c E105     		.uleb128 0x2e1
 10360 012e 91660000 		.4byte	.LASF1224
 10361 0132 05       		.byte	0x5
 10362 0133 E205     		.uleb128 0x2e2
 10363 0135 BE410000 		.4byte	.LASF1225
 10364 0139 05       		.byte	0x5
 10365 013a E305     		.uleb128 0x2e3
 10366 013c E0950000 		.4byte	.LASF1226
 10367 0140 05       		.byte	0x5
 10368 0141 E405     		.uleb128 0x2e4
 10369 0143 2F0E0000 		.4byte	.LASF1227
 10370 0147 05       		.byte	0x5
 10371 0148 E505     		.uleb128 0x2e5
 10372 014a 3F010000 		.4byte	.LASF1228
 10373 014e 05       		.byte	0x5
 10374 014f E605     		.uleb128 0x2e6
 10375 0151 977A0000 		.4byte	.LASF1229
 10376 0155 05       		.byte	0x5
 10377 0156 E705     		.uleb128 0x2e7
 10378 0158 5B4F0000 		.4byte	.LASF1230
 10379 015c 05       		.byte	0x5
 10380 015d EB05     		.uleb128 0x2eb
 10381 015f 84750000 		.4byte	.LASF1231
 10382 0163 05       		.byte	0x5
 10383 0164 F305     		.uleb128 0x2f3
 10384 0166 EB5A0000 		.4byte	.LASF1232
 10385 016a 05       		.byte	0x5
 10386 016b FB05     		.uleb128 0x2fb
 10387 016d D0880000 		.4byte	.LASF1233
 10388 0171 05       		.byte	0x5
 10389 0172 8B06     		.uleb128 0x30b
 10390 0174 085B0000 		.4byte	.LASF1234
ARM GAS  /var/folders/z0/6xlwn_996xz3mwq1cgzkbq4r0000gp/T//ccjakVr1.s 			page 209


 10391 0178 05       		.byte	0x5
 10392 0179 8E06     		.uleb128 0x30e
 10393 017b FC6D0000 		.4byte	.LASF1235
 10394 017f 05       		.byte	0x5
 10395 0180 9406     		.uleb128 0x314
 10396 0182 40630000 		.4byte	.LASF1236
 10397 0186 00       		.byte	0
 10398              		.section	.debug_macro,"G",%progbits,wm4.cdefs.h.47.d0af77d4010113800282e6476aca9724,comdat
 10399              	.Ldebug_macro37:
 10400 0000 0400     		.2byte	0x4
 10401 0002 00       		.byte	0
 10402 0003 05       		.byte	0x5
 10403 0004 2F       		.uleb128 0x2f
 10404 0005 376F0000 		.4byte	.LASF1238
 10405 0009 05       		.byte	0x5
 10406 000a 30       		.uleb128 0x30
 10407 000b 4C730000 		.4byte	.LASF1239
 10408 000f 05       		.byte	0x5
 10409 0010 31       		.uleb128 0x31
 10410 0011 B1A90000 		.4byte	.LASF1240
 10411 0015 05       		.byte	0x5
 10412 0016 34       		.uleb128 0x34
 10413 0017 28570000 		.4byte	.LASF1241
 10414 001b 05       		.byte	0x5
 10415 001c 37       		.uleb128 0x37
 10416 001d E99D0000 		.4byte	.LASF1242
 10417 0021 05       		.byte	0x5
 10418 0022 38       		.uleb128 0x38
 10419 0023 D10F0000 		.4byte	.LASF1243
 10420 0027 05       		.byte	0x5
 10421 0028 3A       		.uleb128 0x3a
 10422 0029 AB200000 		.4byte	.LASF1244
 10423 002d 05       		.byte	0x5
 10424 002e 3B       		.uleb128 0x3b
 10425 002f 5E4A0000 		.4byte	.LASF1245
 10426 0033 05       		.byte	0x5
 10427 0034 3C       		.uleb128 0x3c
 10428 0035 8F5A0000 		.4byte	.LASF1246
 10429 0039 05       		.byte	0x5
 10430 003a 3D       		.uleb128 0x3d
 10431 003b 0D2B0000 		.4byte	.LASF1247
 10432 003f 05       		.byte	0x5
 10433 0040 40       		.uleb128 0x40
 10434 0041 CD320000 		.4byte	.LASF1248
 10435 0045 05       		.byte	0x5
 10436 0046 41       		.uleb128 0x41
 10437 0047 400C0000 		.4byte	.LASF1249
 10438 004b 05       		.byte	0x5
 10439 004c 42       		.uleb128 0x42
 10440 004d 774B0000 		.4byte	.LASF1250
 10441 0051 05       		.byte	0x5
 10442 0052 4C       		.uleb128 0x4c
 10443 0053 A0680000 		.4byte	.LASF1251
 10444 0057 05       		.byte	0x5
 10445 0058 4F       		.uleb128 0x4f
 10446 0059 7B110000 		.4byte	.LASF1252
 10447 005d 05       		.byte	0x5
ARM GAS  /var/folders/z0/6xlwn_996xz3mwq1cgzkbq4r0000gp/T//ccjakVr1.s 			page 210


 10448 005e 55       		.uleb128 0x55
 10449 005f 21630000 		.4byte	.LASF1253
 10450 0063 05       		.byte	0x5
 10451 0064 5C       		.uleb128 0x5c
 10452 0065 37960000 		.4byte	.LASF1254
 10453 0069 05       		.byte	0x5
 10454 006a 5D       		.uleb128 0x5d
 10455 006b 605F0000 		.4byte	.LASF1255
 10456 006f 05       		.byte	0x5
 10457 0070 69       		.uleb128 0x69
 10458 0071 78470000 		.4byte	.LASF1256
 10459 0075 05       		.byte	0x5
 10460 0076 6A       		.uleb128 0x6a
 10461 0077 118E0000 		.4byte	.LASF1257
 10462 007b 05       		.byte	0x5
 10463 007c 6E       		.uleb128 0x6e
 10464 007d 43070000 		.4byte	.LASF1258
 10465 0081 05       		.byte	0x5
 10466 0082 6F       		.uleb128 0x6f
 10467 0083 89000000 		.4byte	.LASF1259
 10468 0087 05       		.byte	0x5
 10469 0088 70       		.uleb128 0x70
 10470 0089 55940000 		.4byte	.LASF1260
 10471 008d 05       		.byte	0x5
 10472 008e 73       		.uleb128 0x73
 10473 008f 58110000 		.4byte	.LASF1261
 10474 0093 05       		.byte	0x5
 10475 0094 76       		.uleb128 0x76
 10476 0095 A0040000 		.4byte	.LASF1262
 10477 0099 05       		.byte	0x5
 10478 009a 7D       		.uleb128 0x7d
 10479 009b D6560000 		.4byte	.LASF1263
 10480 009f 05       		.byte	0x5
 10481 00a0 7E       		.uleb128 0x7e
 10482 00a1 3A600000 		.4byte	.LASF1264
 10483 00a5 05       		.byte	0x5
 10484 00a6 7F       		.uleb128 0x7f
 10485 00a7 C8240000 		.4byte	.LASF1265
 10486 00ab 05       		.byte	0x5
 10487 00ac 8301     		.uleb128 0x83
 10488 00ae 72660000 		.4byte	.LASF1266
 10489 00b2 05       		.byte	0x5
 10490 00b3 8A01     		.uleb128 0x8a
 10491 00b5 37150000 		.4byte	.LASF1267
 10492 00b9 05       		.byte	0x5
 10493 00ba 8E01     		.uleb128 0x8e
 10494 00bc 5B3C0000 		.4byte	.LASF1268
 10495 00c0 05       		.byte	0x5
 10496 00c1 8F01     		.uleb128 0x8f
 10497 00c3 CB350000 		.4byte	.LASF1269
 10498 00c7 05       		.byte	0x5
 10499 00c8 9201     		.uleb128 0x92
 10500 00ca 573F0000 		.4byte	.LASF1270
 10501 00ce 05       		.byte	0x5
 10502 00cf 9501     		.uleb128 0x95
 10503 00d1 BA300000 		.4byte	.LASF1271
 10504 00d5 05       		.byte	0x5
ARM GAS  /var/folders/z0/6xlwn_996xz3mwq1cgzkbq4r0000gp/T//ccjakVr1.s 			page 211


 10505 00d6 9601     		.uleb128 0x96
 10506 00d8 E71B0000 		.4byte	.LASF1272
 10507 00dc 05       		.byte	0x5
 10508 00dd 9701     		.uleb128 0x97
 10509 00df 23910000 		.4byte	.LASF1273
 10510 00e3 05       		.byte	0x5
 10511 00e4 9901     		.uleb128 0x99
 10512 00e6 FC520000 		.4byte	.LASF1274
 10513 00ea 05       		.byte	0x5
 10514 00eb 9A01     		.uleb128 0x9a
 10515 00ed CD1C0000 		.4byte	.LASF1275
 10516 00f1 05       		.byte	0x5
 10517 00f2 9C01     		.uleb128 0x9c
 10518 00f4 FF670000 		.4byte	.LASF1276
 10519 00f8 05       		.byte	0x5
 10520 00f9 9E01     		.uleb128 0x9e
 10521 00fb 2F9C0000 		.4byte	.LASF1277
 10522 00ff 05       		.byte	0x5
 10523 0100 AF01     		.uleb128 0xaf
 10524 0102 B7090000 		.4byte	.LASF1278
 10525 0106 05       		.byte	0x5
 10526 0107 B001     		.uleb128 0xb0
 10527 0109 987B0000 		.4byte	.LASF1279
 10528 010d 05       		.byte	0x5
 10529 010e B101     		.uleb128 0xb1
 10530 0110 BE180000 		.4byte	.LASF1280
 10531 0114 05       		.byte	0x5
 10532 0115 B201     		.uleb128 0xb2
 10533 0117 40A80000 		.4byte	.LASF1281
 10534 011b 05       		.byte	0x5
 10535 011c B301     		.uleb128 0xb3
 10536 011e D8870000 		.4byte	.LASF1282
 10537 0122 05       		.byte	0x5
 10538 0123 B501     		.uleb128 0xb5
 10539 0125 B6060000 		.4byte	.LASF1283
 10540 0129 05       		.byte	0x5
 10541 012a B601     		.uleb128 0xb6
 10542 012c B48C0000 		.4byte	.LASF1284
 10543 0130 05       		.byte	0x5
 10544 0131 B701     		.uleb128 0xb7
 10545 0133 AB440000 		.4byte	.LASF1285
 10546 0137 05       		.byte	0x5
 10547 0138 EF01     		.uleb128 0xef
 10548 013a E52A0000 		.4byte	.LASF1286
 10549 013e 05       		.byte	0x5
 10550 013f FC01     		.uleb128 0xfc
 10551 0141 726F0000 		.4byte	.LASF1287
 10552 0145 05       		.byte	0x5
 10553 0146 FD01     		.uleb128 0xfd
 10554 0148 AA820000 		.4byte	.LASF1288
 10555 014c 05       		.byte	0x5
 10556 014d FE01     		.uleb128 0xfe
 10557 014f 8D970000 		.4byte	.LASF1289
 10558 0153 05       		.byte	0x5
 10559 0154 FF01     		.uleb128 0xff
 10560 0156 119E0000 		.4byte	.LASF1290
 10561 015a 05       		.byte	0x5
ARM GAS  /var/folders/z0/6xlwn_996xz3mwq1cgzkbq4r0000gp/T//ccjakVr1.s 			page 212


 10562 015b 8002     		.uleb128 0x100
 10563 015d 695D0000 		.4byte	.LASF1291
 10564 0161 05       		.byte	0x5
 10565 0162 8102     		.uleb128 0x101
 10566 0164 4E0B0000 		.4byte	.LASF1292
 10567 0168 05       		.byte	0x5
 10568 0169 8202     		.uleb128 0x102
 10569 016b F84A0000 		.4byte	.LASF1293
 10570 016f 05       		.byte	0x5
 10571 0170 8502     		.uleb128 0x105
 10572 0172 12950000 		.4byte	.LASF1294
 10573 0176 05       		.byte	0x5
 10574 0177 8A02     		.uleb128 0x10a
 10575 0179 8B8E0000 		.4byte	.LASF1295
 10576 017d 05       		.byte	0x5
 10577 017e A002     		.uleb128 0x120
 10578 0180 AA120000 		.4byte	.LASF1296
 10579 0184 05       		.byte	0x5
 10580 0185 A702     		.uleb128 0x127
 10581 0187 00A70000 		.4byte	.LASF1297
 10582 018b 05       		.byte	0x5
 10583 018c AF02     		.uleb128 0x12f
 10584 018e FEAB0000 		.4byte	.LASF1298
 10585 0192 05       		.byte	0x5
 10586 0193 B502     		.uleb128 0x135
 10587 0195 A0810000 		.4byte	.LASF1299
 10588 0199 05       		.byte	0x5
 10589 019a D202     		.uleb128 0x152
 10590 019c 43040000 		.4byte	.LASF1300
 10591 01a0 05       		.byte	0x5
 10592 01a1 E602     		.uleb128 0x166
 10593 01a3 90940000 		.4byte	.LASF1301
 10594 01a7 05       		.byte	0x5
 10595 01a8 EC02     		.uleb128 0x16c
 10596 01aa 48A90000 		.4byte	.LASF1302
 10597 01ae 05       		.byte	0x5
 10598 01af ED02     		.uleb128 0x16d
 10599 01b1 6F730000 		.4byte	.LASF1303
 10600 01b5 05       		.byte	0x5
 10601 01b6 F402     		.uleb128 0x174
 10602 01b8 865C0000 		.4byte	.LASF1304
 10603 01bc 05       		.byte	0x5
 10604 01bd FA02     		.uleb128 0x17a
 10605 01bf F6960000 		.4byte	.LASF1305
 10606 01c3 05       		.byte	0x5
 10607 01c4 8003     		.uleb128 0x180
 10608 01c6 37230000 		.4byte	.LASF1306
 10609 01ca 05       		.byte	0x5
 10610 01cb 8103     		.uleb128 0x181
 10611 01cd E8A40000 		.4byte	.LASF1307
 10612 01d1 05       		.byte	0x5
 10613 01d2 8803     		.uleb128 0x188
 10614 01d4 980E0000 		.4byte	.LASF1308
 10615 01d8 05       		.byte	0x5
 10616 01d9 8903     		.uleb128 0x189
 10617 01db 83740000 		.4byte	.LASF1309
 10618 01df 05       		.byte	0x5
ARM GAS  /var/folders/z0/6xlwn_996xz3mwq1cgzkbq4r0000gp/T//ccjakVr1.s 			page 213


 10619 01e0 9003     		.uleb128 0x190
 10620 01e2 95240000 		.4byte	.LASF1310
 10621 01e6 05       		.byte	0x5
 10622 01e7 9603     		.uleb128 0x196
 10623 01e9 C2A70000 		.4byte	.LASF1311
 10624 01ed 05       		.byte	0x5
 10625 01ee A803     		.uleb128 0x1a8
 10626 01f0 84990000 		.4byte	.LASF1312
 10627 01f4 05       		.byte	0x5
 10628 01f5 CB03     		.uleb128 0x1cb
 10629 01f7 110B0000 		.4byte	.LASF1313
 10630 01fb 05       		.byte	0x5
 10631 01fc CC03     		.uleb128 0x1cc
 10632 01fe 0B620000 		.4byte	.LASF1314
 10633 0202 05       		.byte	0x5
 10634 0203 D303     		.uleb128 0x1d3
 10635 0205 E8150000 		.4byte	.LASF1315
 10636 0209 05       		.byte	0x5
 10637 020a D403     		.uleb128 0x1d4
 10638 020c 089B0000 		.4byte	.LASF1316
 10639 0210 05       		.byte	0x5
 10640 0211 D503     		.uleb128 0x1d5
 10641 0213 B3650000 		.4byte	.LASF1317
 10642 0217 05       		.byte	0x5
 10643 0218 DC03     		.uleb128 0x1dc
 10644 021a 19A70000 		.4byte	.LASF1318
 10645 021e 05       		.byte	0x5
 10646 021f DD03     		.uleb128 0x1dd
 10647 0221 F97A0000 		.4byte	.LASF1319
 10648 0225 05       		.byte	0x5
 10649 0226 E703     		.uleb128 0x1e7
 10650 0228 B95C0000 		.4byte	.LASF1320
 10651 022c 05       		.byte	0x5
 10652 022d FD03     		.uleb128 0x1fd
 10653 022f E8040000 		.4byte	.LASF1321
 10654 0233 05       		.byte	0x5
 10655 0234 FF03     		.uleb128 0x1ff
 10656 0236 218A0000 		.4byte	.LASF1322
 10657 023a 05       		.byte	0x5
 10658 023b 8104     		.uleb128 0x201
 10659 023d A22F0000 		.4byte	.LASF1323
 10660 0241 05       		.byte	0x5
 10661 0242 8204     		.uleb128 0x202
 10662 0244 78700000 		.4byte	.LASF1324
 10663 0248 05       		.byte	0x5
 10664 0249 8404     		.uleb128 0x204
 10665 024b 806B0000 		.4byte	.LASF1325
 10666 024f 05       		.byte	0x5
 10667 0250 9004     		.uleb128 0x210
 10668 0252 935B0000 		.4byte	.LASF1326
 10669 0256 05       		.byte	0x5
 10670 0257 9E04     		.uleb128 0x21e
 10671 0259 3D1B0000 		.4byte	.LASF1327
 10672 025d 05       		.byte	0x5
 10673 025e A304     		.uleb128 0x223
 10674 0260 D1550000 		.4byte	.LASF1328
 10675 0264 05       		.byte	0x5
ARM GAS  /var/folders/z0/6xlwn_996xz3mwq1cgzkbq4r0000gp/T//ccjakVr1.s 			page 214


 10676 0265 A804     		.uleb128 0x228
 10677 0267 A1860000 		.4byte	.LASF1329
 10678 026b 05       		.byte	0x5
 10679 026c AB04     		.uleb128 0x22b
 10680 026e 2D6A0000 		.4byte	.LASF1330
 10681 0272 05       		.byte	0x5
 10682 0273 AF04     		.uleb128 0x22f
 10683 0275 EB120000 		.4byte	.LASF1331
 10684 0279 05       		.byte	0x5
 10685 027a B104     		.uleb128 0x231
 10686 027c 8E3F0000 		.4byte	.LASF1332
 10687 0280 05       		.byte	0x5
 10688 0281 D404     		.uleb128 0x254
 10689 0283 58A70000 		.4byte	.LASF1333
 10690 0287 05       		.byte	0x5
 10691 0288 D804     		.uleb128 0x258
 10692 028a 2C5F0000 		.4byte	.LASF1334
 10693 028e 05       		.byte	0x5
 10694 028f DC04     		.uleb128 0x25c
 10695 0291 8A820000 		.4byte	.LASF1335
 10696 0295 05       		.byte	0x5
 10697 0296 E004     		.uleb128 0x260
 10698 0298 09880000 		.4byte	.LASF1336
 10699 029c 05       		.byte	0x5
 10700 029d E404     		.uleb128 0x264
 10701 029f 759F0000 		.4byte	.LASF1337
 10702 02a3 05       		.byte	0x5
 10703 02a4 E804     		.uleb128 0x268
 10704 02a6 12220000 		.4byte	.LASF1338
 10705 02aa 05       		.byte	0x5
 10706 02ab EC04     		.uleb128 0x26c
 10707 02ad F4720000 		.4byte	.LASF1339
 10708 02b1 05       		.byte	0x5
 10709 02b2 F004     		.uleb128 0x270
 10710 02b4 B71E0000 		.4byte	.LASF1340
 10711 02b8 05       		.byte	0x5
 10712 02b9 8105     		.uleb128 0x281
 10713 02bb 2E830000 		.4byte	.LASF1341
 10714 02bf 05       		.byte	0x5
 10715 02c0 8205     		.uleb128 0x282
 10716 02c2 6A320000 		.4byte	.LASF1342
 10717 02c6 05       		.byte	0x5
 10718 02c7 9405     		.uleb128 0x294
 10719 02c9 EE270000 		.4byte	.LASF1343
 10720 02cd 05       		.byte	0x5
 10721 02ce 9805     		.uleb128 0x298
 10722 02d0 092F0000 		.4byte	.LASF1344
 10723 02d4 05       		.byte	0x5
 10724 02d5 9B05     		.uleb128 0x29b
 10725 02d7 22980000 		.4byte	.LASF1345
 10726 02db 05       		.byte	0x5
 10727 02dc 9D05     		.uleb128 0x29d
 10728 02de 73590000 		.4byte	.LASF1346
 10729 02e2 05       		.byte	0x5
 10730 02e3 A105     		.uleb128 0x2a1
 10731 02e5 EEAA0000 		.4byte	.LASF1347
 10732 02e9 05       		.byte	0x5
ARM GAS  /var/folders/z0/6xlwn_996xz3mwq1cgzkbq4r0000gp/T//ccjakVr1.s 			page 215


 10733 02ea A305     		.uleb128 0x2a3
 10734 02ec CE630000 		.4byte	.LASF1348
 10735 02f0 05       		.byte	0x5
 10736 02f1 A705     		.uleb128 0x2a7
 10737 02f3 01690000 		.4byte	.LASF1349
 10738 02f7 05       		.byte	0x5
 10739 02f8 AA05     		.uleb128 0x2aa
 10740 02fa 87340000 		.4byte	.LASF1350
 10741 02fe 05       		.byte	0x5
 10742 02ff AC05     		.uleb128 0x2ac
 10743 0301 61300000 		.4byte	.LASF1351
 10744 0305 05       		.byte	0x5
 10745 0306 B005     		.uleb128 0x2b0
 10746 0308 661E0000 		.4byte	.LASF1352
 10747 030c 05       		.byte	0x5
 10748 030d B205     		.uleb128 0x2b2
 10749 030f 134A0000 		.4byte	.LASF1353
 10750 0313 05       		.byte	0x5
 10751 0314 B405     		.uleb128 0x2b4
 10752 0316 F1140000 		.4byte	.LASF1354
 10753 031a 05       		.byte	0x5
 10754 031b B805     		.uleb128 0x2b8
 10755 031d EB0C0000 		.4byte	.LASF1355
 10756 0321 05       		.byte	0x5
 10757 0322 BB05     		.uleb128 0x2bb
 10758 0324 DA6E0000 		.4byte	.LASF1356
 10759 0328 05       		.byte	0x5
 10760 0329 BC05     		.uleb128 0x2bc
 10761 032b DB500000 		.4byte	.LASF1357
 10762 032f 00       		.byte	0
 10763              		.section	.debug_macro,"G",%progbits,wm4.string.h.15.dab3980bf35408a4c507182805e2de3a,comdat
 10764              	.Ldebug_macro38:
 10765 0000 0400     		.2byte	0x4
 10766 0002 00       		.byte	0
 10767 0003 05       		.byte	0x5
 10768 0004 0F       		.uleb128 0xf
 10769 0005 58440000 		.4byte	.LASF1358
 10770 0009 05       		.byte	0x5
 10771 000a 10       		.uleb128 0x10
 10772 000b 3FAA0000 		.4byte	.LASF1359
 10773 000f 00       		.byte	0
 10774              		.section	.debug_macro,"G",%progbits,wm4.stddef.h.161.19e15733342b50ead2919490b095303e,comdat
 10775              	.Ldebug_macro39:
 10776 0000 0400     		.2byte	0x4
 10777 0002 00       		.byte	0
 10778 0003 06       		.byte	0x6
 10779 0004 A101     		.uleb128 0xa1
 10780 0006 B76C0000 		.4byte	.LASF1117
 10781 000a 06       		.byte	0x6
 10782 000b EE01     		.uleb128 0xee
 10783 000d 2C460000 		.4byte	.LASF1135
 10784 0011 06       		.byte	0x6
 10785 0012 DB02     		.uleb128 0x15b
 10786 0014 CD820000 		.4byte	.LASF1152
 10787 0018 06       		.byte	0x6
 10788 0019 9103     		.uleb128 0x191
 10789 001b 564F0000 		.4byte	.LASF1153
ARM GAS  /var/folders/z0/6xlwn_996xz3mwq1cgzkbq4r0000gp/T//ccjakVr1.s 			page 216


 10790 001f 05       		.byte	0x5
 10791 0020 9603     		.uleb128 0x196
 10792 0022 CD800000 		.4byte	.LASF1154
 10793 0026 06       		.byte	0x6
 10794 0027 9C03     		.uleb128 0x19c
 10795 0029 0A5C0000 		.4byte	.LASF1155
 10796 002d 05       		.byte	0x5
 10797 002e A103     		.uleb128 0x1a1
 10798 0030 165C0000 		.4byte	.LASF1156
 10799 0034 00       		.byte	0
 10800              		.section	.debug_line,"",%progbits
 10801              	.Ldebug_line0:
 10802 0000 A8060000 		.section	.debug_str,"MS",%progbits,1
 10802      02004204 
 10802      00000201 
 10802      FB0E0D00 
 10802      01010101 
 10803              	.LASF1008:
 10804 0000 4932435F 		.ascii	"I2C_CheckError(ErrorCode) (ErrorCode & 0x10000000)\000"
 10804      43686563 
 10804      6B457272 
 10804      6F722845 
 10804      72726F72 
 10805              	.LASF1684:
 10806 0033 75736572 		.ascii	"user_buffer\000"
 10806      5F627566 
 10806      66657200 
 10807              	.LASF251:
 10808 003f 5F5F4C41 		.ascii	"__LACCUM_EPSILON__ 0x1P-31LK\000"
 10808      4343554D 
 10808      5F455053 
 10808      494C4F4E 
 10808      5F5F2030 
 10809              	.LASF329:
 10810 005c 5F5F7468 		.ascii	"__thumb__ 1\000"
 10810      756D625F 
 10810      5F203100 
 10811              	.LASF1503:
 10812 0068 52455345 		.ascii	"RESET_TIMER1_32\000"
 10812      545F5449 
 10812      4D455231 
 10812      5F333200 
 10813              	.LASF1527:
 10814 0078 53595343 		.ascii	"SYSCTL_CLOCK_CAN\000"
 10814      544C5F43 
 10814      4C4F434B 
 10814      5F43414E 
 10814      00
 10815              	.LASF1259:
 10816 0089 5F5F474E 		.ascii	"__GNUCLIKE___OFFSETOF 1\000"
 10816      55434C49 
 10816      4B455F5F 
 10816      5F4F4646 
 10816      5345544F 
 10817              	.LASF242:
 10818 00a1 5F5F5541 		.ascii	"__UACCUM_FBIT__ 16\000"
 10818      4343554D 
ARM GAS  /var/folders/z0/6xlwn_996xz3mwq1cgzkbq4r0000gp/T//ccjakVr1.s 			page 217


 10818      5F464249 
 10818      545F5F20 
 10818      313600
 10819              	.LASF990:
 10820 00b4 4932435F 		.ascii	"I2C_I2MMCTRL_BITMASK ((0x07))\000"
 10820      49324D4D 
 10820      4354524C 
 10820      5F424954 
 10820      4D41534B 
 10821              	.LASF211:
 10822 00d2 5F5F4C46 		.ascii	"__LFRACT_EPSILON__ 0x1P-31LR\000"
 10822      52414354 
 10822      5F455053 
 10822      494C4F4E 
 10822      5F5F2030 
 10823              	.LASF28:
 10824 00ef 5F5F464C 		.ascii	"__FLOAT_WORD_ORDER__ __ORDER_LITTLE_ENDIAN__\000"
 10824      4F41545F 
 10824      574F5244 
 10824      5F4F5244 
 10824      45525F5F 
 10825              	.LASF1589:
 10826 011c 6D6F6465 		.ascii	"mode_id\000"
 10826      5F696400 
 10827              	.LASF725:
 10828 0124 4D445F49 		.ascii	"MD_INV (0x1 << 6)\000"
 10828      4E562028 
 10828      30783120 
 10828      3C3C2036 
 10828      2900
 10829              	.LASF1687:
 10830 0136 64617461 		.ascii	"data_len\000"
 10830      5F6C656E 
 10830      00
 10831              	.LASF1228:
 10832 013f 5F524545 		.ascii	"_REENT_L64A_BUF(ptr) ((ptr)->_new._reent._l64a_buf)"
 10832      4E545F4C 
 10832      3634415F 
 10832      42554628 
 10832      70747229 
 10833 0172 00       		.ascii	"\000"
 10834              	.LASF147:
 10835 0173 5F5F4442 		.ascii	"__DBL_EPSILON__ ((double)2.2204460492503131e-16L)\000"
 10835      4C5F4550 
 10835      53494C4F 
 10835      4E5F5F20 
 10835      2828646F 
 10836              	.LASF243:
 10837 01a5 5F5F5541 		.ascii	"__UACCUM_IBIT__ 16\000"
 10837      4343554D 
 10837      5F494249 
 10837      545F5F20 
 10837      313600
 10838              	.LASF899:
 10839 01b8 5353505F 		.ascii	"SSP_SR_BITMASK ((uint32_t) (0x1F))\000"
 10839      53525F42 
 10839      49544D41 
ARM GAS  /var/folders/z0/6xlwn_996xz3mwq1cgzkbq4r0000gp/T//ccjakVr1.s 			page 218


 10839      534B2028 
 10839      2875696E 
 10840              	.LASF914:
 10841 01db 4144435F 		.ascii	"ADC_DR_DONE(n) (((n) >> 31))\000"
 10841      44525F44 
 10841      4F4E4528 
 10841      6E292028 
 10841      28286E29 
 10842              	.LASF372:
 10843 01f8 5F5F4D49 		.ascii	"__MISC_VISIBLE 1\000"
 10843      53435F56 
 10843      49534942 
 10843      4C452031 
 10843      00
 10844              	.LASF546:
 10845 0209 5343425F 		.ascii	"SCB_CPUID_IMPLEMENTER_Msk (0xFFUL << SCB_CPUID_IMPL"
 10845      43505549 
 10845      445F494D 
 10845      504C454D 
 10845      454E5445 
 10846 023c 454D454E 		.ascii	"EMENTER_Pos)\000"
 10846      5445525F 
 10846      506F7329 
 10846      00
 10847              	.LASF964:
 10848 0249 4932435F 		.ascii	"I2C_I2STAT_M_RX_RESTART ((0x10))\000"
 10848      49325354 
 10848      41545F4D 
 10848      5F52585F 
 10848      52455354 
 10849              	.LASF110:
 10850 026a 5F5F494E 		.ascii	"__INT_FAST16_MAX__ 0x7fffffff\000"
 10850      545F4641 
 10850      53543136 
 10850      5F4D4158 
 10850      5F5F2030 
 10851              	.LASF414:
 10852 0288 5F5F4C45 		.ascii	"__LEAST16 \"h\"\000"
 10852      41535431 
 10852      36202268 
 10852      2200
 10853              	.LASF1361:
 10854 0296 5F43414E 		.ascii	"_CAN_H_ \000"
 10854      5F485F20 
 10854      00
 10855              	.LASF345:
 10856 029f 46534145 		.ascii	"FSAE_DRIVERS 1\000"
 10856      5F445249 
 10856      56455253 
 10856      203100
 10857              	.LASF1200:
 10858 02ae 5F524545 		.ascii	"_REENT_CHECK_RAND48(ptr) \000"
 10858      4E545F43 
 10858      4845434B 
 10858      5F52414E 
 10858      44343828 
 10859              	.LASF488:
ARM GAS  /var/folders/z0/6xlwn_996xz3mwq1cgzkbq4r0000gp/T//ccjakVr1.s 			page 219


 10860 02c8 57434841 		.ascii	"WCHAR_MAX (__WCHAR_MAX__)\000"
 10860      525F4D41 
 10860      5820285F 
 10860      5F574348 
 10860      41525F4D 
 10861              	.LASF83:
 10862 02e2 5F5F5349 		.ascii	"__SIG_ATOMIC_MAX__ 0x7fffffff\000"
 10862      475F4154 
 10862      4F4D4943 
 10862      5F4D4158 
 10862      5F5F2030 
 10863              	.LASF1175:
 10864 0300 5F57494E 		.ascii	"_WINT_T \000"
 10864      545F5420 
 10864      00
 10865              	.LASF929:
 10866 0309 4144435F 		.ascii	"ADC_SAMPLE_RATE_CONFIG_MASK (ADC_CR_CLKDIV(0xFF) | "
 10866      53414D50 
 10866      4C455F52 
 10866      4154455F 
 10866      434F4E46 
 10867 033c 4144435F 		.ascii	"ADC_CR_BITACC(0x07))\000"
 10867      43525F42 
 10867      49544143 
 10867      43283078 
 10867      30372929 
 10868              	.LASF1584:
 10869 0351 43414E43 		.ascii	"CANCLKDIV\000"
 10869      4C4B4449 
 10869      5600
 10870              	.LASF863:
 10871 035b 55415254 		.ascii	"UART_FDR_BITMASK (0xFF)\000"
 10871      5F464452 
 10871      5F424954 
 10871      4D41534B 
 10871      20283078 
 10872              	.LASF1090:
 10873 0373 5F564F49 		.ascii	"_VOID void\000"
 10873      4420766F 
 10873      696400
 10874              	.LASF1203:
 10875 037e 5F524545 		.ascii	"_REENT_CHECK_ASCTIME_BUF(ptr) \000"
 10875      4E545F43 
 10875      4845434B 
 10875      5F415343 
 10875      54494D45 
 10876              	.LASF766:
 10877 039d 55415254 		.ascii	"UART_IER_MSINT (1 << 3)\000"
 10877      5F494552 
 10877      5F4D5349 
 10877      4E542028 
 10877      31203C3C 
 10878              	.LASF733:
 10879 03b5 4D445F4F 		.ascii	"MD_OPENDRAIN (0x1 << 10)\000"
 10879      50454E44 
 10879      5241494E 
 10879      20283078 
ARM GAS  /var/folders/z0/6xlwn_996xz3mwq1cgzkbq4r0000gp/T//ccjakVr1.s 			page 220


 10879      31203C3C 
 10880              	.LASF1618:
 10881 03ce 43414E4F 		.ascii	"CANOPEN_sdo_seg_write\000"
 10881      50454E5F 
 10881      73646F5F 
 10881      7365675F 
 10881      77726974 
 10882              	.LASF836:
 10883 03e4 55415254 		.ascii	"UART_MSR_BITMASK (0xFF)\000"
 10883      5F4D5352 
 10883      5F424954 
 10883      4D41534B 
 10883      20283078 
 10884              	.LASF1177:
 10885 03fc 5F434C4F 		.ascii	"_CLOCK_T_ unsigned long\000"
 10885      434B5F54 
 10885      5F20756E 
 10885      7369676E 
 10885      6564206C 
 10886              	.LASF388:
 10887 0414 5F5F6861 		.ascii	"__have_longlong64 1\000"
 10887      76655F6C 
 10887      6F6E676C 
 10887      6F6E6736 
 10887      34203100 
 10888              	.LASF77:
 10889 0428 5F5F5054 		.ascii	"__PTRDIFF_MAX__ 0x7fffffff\000"
 10889      52444946 
 10889      465F4D41 
 10889      585F5F20 
 10889      30783766 
 10890              	.LASF1300:
 10891 0443 5F546872 		.ascii	"_Thread_local __thread\000"
 10891      6561645F 
 10891      6C6F6361 
 10891      6C205F5F 
 10891      74687265 
 10892              	.LASF1047:
 10893 045a 4F445F53 		.ascii	"OD_SEG_RW 0x60\000"
 10893      45475F52 
 10893      57203078 
 10893      363000
 10894              	.LASF954:
 10895 0469 4932435F 		.ascii	"I2C_I2STAT_NO_INF ((0xF8))\000"
 10895      49325354 
 10895      41545F4E 
 10895      4F5F494E 
 10895      46202828 
 10896              	.LASF479:
 10897 0484 494E544D 		.ascii	"INTMAX_MAX (__INTMAX_MAX__)\000"
 10897      41585F4D 
 10897      41582028 
 10897      5F5F494E 
 10897      544D4158 
 10898              	.LASF1262:
 10899 04a0 5F5F474E 		.ascii	"__GNUCLIKE_BUILTIN_CONSTANT_P 1\000"
 10899      55434C49 
ARM GAS  /var/folders/z0/6xlwn_996xz3mwq1cgzkbq4r0000gp/T//ccjakVr1.s 			page 221


 10899      4B455F42 
 10899      55494C54 
 10899      494E5F43 
 10900              	.LASF1367:
 10901 04c0 5F5F7569 		.ascii	"__uint8_t\000"
 10901      6E74385F 
 10901      7400
 10902              	.LASF1092:
 10903 04ca 5F455846 		.ascii	"_EXFUN(name,proto) name proto\000"
 10903      554E286E 
 10903      616D652C 
 10903      70726F74 
 10903      6F29206E 
 10904              	.LASF1321:
 10905 04e8 5F5F7072 		.ascii	"__printflike(fmtarg,firstvararg) __attribute__((__f"
 10905      696E7466 
 10905      6C696B65 
 10905      28666D74 
 10905      6172672C 
 10906 051b 6F726D61 		.ascii	"ormat__ (__printf__, fmtarg, firstvararg)))\000"
 10906      745F5F20 
 10906      285F5F70 
 10906      72696E74 
 10906      665F5F2C 
 10907              	.LASF1007:
 10908 0547 4932435F 		.ascii	"I2C_NAK_RECV (0x10000000 | 0x01)\000"
 10908      4E414B5F 
 10908      52454356 
 10908      20283078 
 10908      31303030 
 10909              	.LASF0:
 10910 0568 5F5F5354 		.ascii	"__STDC__ 1\000"
 10910      44435F5F 
 10910      203100
 10911              	.LASF536:
 10912 0573 5F5F494E 		.ascii	"__INLINE inline\000"
 10912      4C494E45 
 10912      20696E6C 
 10912      696E6500 
 10913              	.LASF1383:
 10914 0583 5F426F6F 		.ascii	"_Bool\000"
 10914      6C00
 10915              	.LASF483:
 10916 0589 5349475F 		.ascii	"SIG_ATOMIC_MIN (-__STDINT_EXP(INT_MAX) - 1)\000"
 10916      41544F4D 
 10916      49435F4D 
 10916      494E2028 
 10916      2D5F5F53 
 10917              	.LASF223:
 10918 05b5 5F5F554C 		.ascii	"__ULLFRACT_IBIT__ 0\000"
 10918      4C465241 
 10918      43545F49 
 10918      4249545F 
 10918      5F203000 
 10919              	.LASF1078:
 10920 05c9 5F524541 		.ascii	"_READ_WRITE_BUFSIZE_TYPE int\000"
 10920      445F5752 
ARM GAS  /var/folders/z0/6xlwn_996xz3mwq1cgzkbq4r0000gp/T//ccjakVr1.s 			page 222


 10920      4954455F 
 10920      42554653 
 10920      495A455F 
 10921              	.LASF289:
 10922 05e6 5F5F5341 		.ascii	"__SA_FBIT__ 15\000"
 10922      5F464249 
 10922      545F5F20 
 10922      313500
 10923              	.LASF181:
 10924 05f5 5F5F4445 		.ascii	"__DEC128_MIN_EXP__ (-6142)\000"
 10924      43313238 
 10924      5F4D494E 
 10924      5F455850 
 10924      5F5F2028 
 10925              	.LASF299:
 10926 0610 5F5F5544 		.ascii	"__UDA_FBIT__ 32\000"
 10926      415F4642 
 10926      49545F5F 
 10926      20333200 
 10927              	.LASF542:
 10928 0620 5F5F4920 		.ascii	"__I volatile const\000"
 10928      766F6C61 
 10928      74696C65 
 10928      20636F6E 
 10928      737400
 10929              	.LASF1453:
 10930 0633 53595341 		.ascii	"SYSAHBCLKCTRL\000"
 10930      4842434C 
 10930      4B435452 
 10930      4C00
 10931              	.LASF458:
 10932 0641 494E545F 		.ascii	"INT_LEAST32_MIN (-__INT_LEAST32_MAX__ - 1)\000"
 10932      4C454153 
 10932      5433325F 
 10932      4D494E20 
 10932      282D5F5F 
 10933              	.LASF1605:
 10934 066c 6973725F 		.ascii	"isr_handled\000"
 10934      68616E64 
 10934      6C656400 
 10935              	.LASF46:
 10936 0678 5F5F5549 		.ascii	"__UINT64_TYPE__ long long unsigned int\000"
 10936      4E543634 
 10936      5F545950 
 10936      455F5F20 
 10936      6C6F6E67 
 10937              	.LASF143:
 10938 069f 5F5F4442 		.ascii	"__DBL_MAX_10_EXP__ 308\000"
 10938      4C5F4D41 
 10938      585F3130 
 10938      5F455850 
 10938      5F5F2033 
 10939              	.LASF1283:
 10940 06b6 5F5F636F 		.ascii	"__const const\000"
 10940      6E737420 
 10940      636F6E73 
 10940      7400
ARM GAS  /var/folders/z0/6xlwn_996xz3mwq1cgzkbq4r0000gp/T//ccjakVr1.s 			page 223


 10941              	.LASF744:
 10942 06c4 54494D45 		.ascii	"TIMER_MATCH_INT(n) (_BIT((n) & 0x0F))\000"
 10942      525F4D41 
 10942      5443485F 
 10942      494E5428 
 10942      6E292028 
 10943              	.LASF116:
 10944 06ea 5F5F5549 		.ascii	"__UINT_FAST64_MAX__ 0xffffffffffffffffULL\000"
 10944      4E545F46 
 10944      41535436 
 10944      345F4D41 
 10944      585F5F20 
 10945              	.LASF1421:
 10946 0714 4C504331 		.ascii	"LPC11CXX_IRQn_Type\000"
 10946      31435858 
 10946      5F495251 
 10946      6E5F5479 
 10946      706500
 10947              	.LASF32:
 10948 0727 5F5F5743 		.ascii	"__WCHAR_TYPE__ unsigned int\000"
 10948      4841525F 
 10948      54595045 
 10948      5F5F2075 
 10948      6E736967 
 10949              	.LASF1258:
 10950 0743 5F5F474E 		.ascii	"__GNUCLIKE___TYPEOF 1\000"
 10950      55434C49 
 10950      4B455F5F 
 10950      5F545950 
 10950      454F4620 
 10951              	.LASF290:
 10952 0759 5F5F5341 		.ascii	"__SA_IBIT__ 16\000"
 10952      5F494249 
 10952      545F5F20 
 10952      313600
 10953              	.LASF495:
 10954 0768 494E5433 		.ascii	"INT32_C(x) __INT32_C(x)\000"
 10954      325F4328 
 10954      7829205F 
 10954      5F494E54 
 10954      33325F43 
 10955              	.LASF825:
 10956 0780 55415254 		.ascii	"UART_LSR_TXFE (1 << 8)\000"
 10956      5F4C5352 
 10956      5F545846 
 10956      45202831 
 10956      203C3C20 
 10957              	.LASF1689:
 10958 0797 72785F62 		.ascii	"rx_buffer\000"
 10958      75666665 
 10958      7200
 10959              	.LASF15:
 10960 07a1 5F5F5349 		.ascii	"__SIZEOF_LONG__ 4\000"
 10960      5A454F46 
 10960      5F4C4F4E 
 10960      475F5F20 
 10960      3400
ARM GAS  /var/folders/z0/6xlwn_996xz3mwq1cgzkbq4r0000gp/T//ccjakVr1.s 			page 224


 10961              	.LASF730:
 10962 07b3 4D445F53 		.ascii	"MD_SFI2C (0x0 << 8)\000"
 10962      46493243 
 10962      20283078 
 10962      30203C3C 
 10962      20382900 
 10963              	.LASF1537:
 10964 07c7 72657365 		.ascii	"reserved0\000"
 10964      72766564 
 10964      3000
 10965              	.LASF1540:
 10966 07d1 72657365 		.ascii	"reserved1\000"
 10966      72766564 
 10966      3100
 10967              	.LASF1541:
 10968 07db 72657365 		.ascii	"reserved2\000"
 10968      72766564 
 10968      3200
 10969              	.LASF1542:
 10970 07e5 72657365 		.ascii	"reserved3\000"
 10970      72766564 
 10970      3300
 10971              	.LASF1543:
 10972 07ef 72657365 		.ascii	"reserved4\000"
 10972      72766564 
 10972      3400
 10973              	.LASF1363:
 10974 07f9 4E554D5F 		.ascii	"NUM_MSG_OBJS 2\000"
 10974      4D53475F 
 10974      4F424A53 
 10974      203200
 10975              	.LASF850:
 10976 0808 55415254 		.ascii	"UART_ICR_IRDAEN (1 << 0)\000"
 10976      5F494352 
 10976      5F495244 
 10976      41454E20 
 10976      2831203C 
 10977              	.LASF890:
 10978 0821 5353505F 		.ascii	"SSP_CR0_BITMASK ((uint32_t) (0xFFFF))\000"
 10978      4352305F 
 10978      4249544D 
 10978      41534B20 
 10978      28287569 
 10979              	.LASF880:
 10980 0847 5F5F5353 		.ascii	"__SSP_11XX_H_ \000"
 10980      505F3131 
 10980      58585F48 
 10980      5F2000
 10981              	.LASF497:
 10982 0856 494E5436 		.ascii	"INT64_C(x) __INT64_C(x)\000"
 10982      345F4328 
 10982      7829205F 
 10982      5F494E54 
 10982      36345F43 
 10983              	.LASF540:
 10984 086e 5F5F434F 		.ascii	"__CORE_CMFUNC_H \000"
 10984      52455F43 
ARM GAS  /var/folders/z0/6xlwn_996xz3mwq1cgzkbq4r0000gp/T//ccjakVr1.s 			page 225


 10984      4D46554E 
 10984      435F4820 
 10984      00
 10985              	.LASF1402:
 10986 087f 43414E5F 		.ascii	"CAN_IRQn\000"
 10986      4952516E 
 10986      00
 10987              	.LASF1137:
 10988 0888 5F5F5743 		.ascii	"__WCHAR_T__ \000"
 10988      4841525F 
 10988      545F5F20 
 10988      00
 10989              	.LASF554:
 10990 0895 5343425F 		.ascii	"SCB_CPUID_REVISION_Msk (0xFUL << SCB_CPUID_REVISION"
 10990      43505549 
 10990      445F5245 
 10990      56495349 
 10990      4F4E5F4D 
 10991 08c8 5F506F73 		.ascii	"_Pos)\000"
 10991      2900
 10992              	.LASF1507:
 10993 08ce 43484950 		.ascii	"CHIP_SYSCTL_PERIPH_RESET_T\000"
 10993      5F535953 
 10993      43544C5F 
 10993      50455249 
 10993      50485F52 
 10994              	.LASF819:
 10995 08e9 55415254 		.ascii	"UART_LSR_PE (1 << 2)\000"
 10995      5F4C5352 
 10995      5F504520 
 10995      2831203C 
 10995      3C203229 
 10996              	.LASF1091:
 10997 08fe 5F455846 		.ascii	"_EXFUN_NOTHROW(name,proto) name proto _NOTHROW\000"
 10997      554E5F4E 
 10997      4F544852 
 10997      4F57286E 
 10997      616D652C 
 10998              	.LASF1578:
 10999 092d 43414E4E 		.ascii	"CANND1\000"
 10999      443100
 11000              	.LASF1579:
 11001 0934 43414E4E 		.ascii	"CANND2\000"
 11001      443200
 11002              	.LASF561:
 11003 093b 5343425F 		.ascii	"SCB_ICSR_PENDSTSET_Pos 26\000"
 11003      49435352 
 11003      5F50454E 
 11003      44535453 
 11003      45545F50 
 11004              	.LASF840:
 11005 0955 55415254 		.ascii	"UART_ACR_ABEOINT_CLR (1 << 8)\000"
 11005      5F414352 
 11005      5F414245 
 11005      4F494E54 
 11005      5F434C52 
 11006              	.LASF502:
ARM GAS  /var/folders/z0/6xlwn_996xz3mwq1cgzkbq4r0000gp/T//ccjakVr1.s 			page 226


 11007 0973 5F535444 		.ascii	"_STDBOOL_H \000"
 11007      424F4F4C 
 11007      5F482000 
 11008              	.LASF363:
 11009 097f 5F504F53 		.ascii	"_POSIX_C_SOURCE\000"
 11009      49585F43 
 11009      5F534F55 
 11009      52434500 
 11010              	.LASF748:
 11011 098f 54494D45 		.ascii	"TIMER_INT_ON_MATCH(n) (_BIT(((n) * 3)))\000"
 11011      525F494E 
 11011      545F4F4E 
 11011      5F4D4154 
 11011      4348286E 
 11012              	.LASF1278:
 11013 09b7 5F5F5028 		.ascii	"__P(protos) protos\000"
 11013      70726F74 
 11013      6F732920 
 11013      70726F74 
 11013      6F7300
 11014              	.LASF1558:
 11015 09ca 43414E49 		.ascii	"CANIF1_MSK2\000"
 11015      46315F4D 
 11015      534B3200 
 11016              	.LASF63:
 11017 09d6 5F5F494E 		.ascii	"__INTPTR_TYPE__ int\000"
 11017      54505452 
 11017      5F545950 
 11017      455F5F20 
 11017      696E7400 
 11018              	.LASF273:
 11019 09ea 5F5F4451 		.ascii	"__DQ_FBIT__ 63\000"
 11019      5F464249 
 11019      545F5F20 
 11019      363300
 11020              	.LASF246:
 11021 09f9 5F5F5541 		.ascii	"__UACCUM_EPSILON__ 0x1P-16UK\000"
 11021      4343554D 
 11021      5F455053 
 11021      494C4F4E 
 11021      5F5F2030 
 11022              	.LASF800:
 11023 0a16 55415254 		.ascii	"UART_LCR_SBS_1BIT (0 << 2)\000"
 11023      5F4C4352 
 11023      5F534253 
 11023      5F314249 
 11023      54202830 
 11024              	.LASF136:
 11025 0a31 5F5F464C 		.ascii	"__FLT_HAS_INFINITY__ 1\000"
 11025      545F4841 
 11025      535F494E 
 11025      46494E49 
 11025      54595F5F 
 11026              	.LASF801:
 11027 0a48 55415254 		.ascii	"UART_LCR_SBS_2BIT (1 << 2)\000"
 11027      5F4C4352 
 11027      5F534253 
ARM GAS  /var/folders/z0/6xlwn_996xz3mwq1cgzkbq4r0000gp/T//ccjakVr1.s 			page 227


 11027      5F324249 
 11027      54202831 
 11028              	.LASF1378:
 11029 0a63 75696E74 		.ascii	"uint16_t\000"
 11029      31365F74 
 11029      00
 11030              	.LASF1426:
 11031 0a6c 52534552 		.ascii	"RSERVED1\000"
 11031      56454431 
 11031      00
 11032              	.LASF397:
 11033 0a75 756E7369 		.ascii	"unsigned +0\000"
 11033      676E6564 
 11033      202B3000 
 11034              	.LASF174:
 11035 0a81 5F5F4445 		.ascii	"__DEC64_MIN_EXP__ (-382)\000"
 11035      4336345F 
 11035      4D494E5F 
 11035      4558505F 
 11035      5F20282D 
 11036              	.LASF714:
 11037 0a9a 494F434F 		.ascii	"IOCON_DIGMODE_EN (0x1 << 7)\000"
 11037      4E5F4449 
 11037      474D4F44 
 11037      455F454E 
 11037      20283078 
 11038              	.LASF634:
 11039 0ab6 4C50435F 		.ascii	"LPC_FLASH_BASE 0x4003C000\000"
 11039      464C4153 
 11039      485F4241 
 11039      53452030 
 11039      78343030 
 11040              	.LASF476:
 11041 0ad0 494E545F 		.ascii	"INT_FAST64_MIN (-__INT_FAST64_MAX__ - 1)\000"
 11041      46415354 
 11041      36345F4D 
 11041      494E2028 
 11041      2D5F5F49 
 11042              	.LASF762:
 11043 0af9 55415254 		.ascii	"UART_DLM_MASKBIT (0xFF)\000"
 11043      5F444C4D 
 11043      5F4D4153 
 11043      4B424954 
 11043      20283078 
 11044              	.LASF1313:
 11045 0b11 5F5F7072 		.ascii	"__predict_true(exp) __builtin_expect((exp), 1)\000"
 11045      65646963 
 11045      745F7472 
 11045      75652865 
 11045      78702920 
 11046              	.LASF1544:
 11047 0b40 4C50435F 		.ascii	"LPC_ROM_API_T\000"
 11047      524F4D5F 
 11047      4150495F 
 11047      5400
 11048              	.LASF1292:
 11049 0b4e 5F5F616C 		.ascii	"__aligned(x) __attribute__((__aligned__(x)))\000"
ARM GAS  /var/folders/z0/6xlwn_996xz3mwq1cgzkbq4r0000gp/T//ccjakVr1.s 			page 228


 11049      69676E65 
 11049      64287829 
 11049      205F5F61 
 11049      74747269 
 11050              	.LASF1166:
 11051 0b7b 5F5F6C6F 		.ascii	"__lock_acquire(lock) (_CAST_VOID 0)\000"
 11051      636B5F61 
 11051      63717569 
 11051      7265286C 
 11051      6F636B29 
 11052              	.LASF753:
 11053 0b9f 54494D45 		.ascii	"TIMER_INT_ON_CAP(n) (_BIT((((n) * 3) + 2)))\000"
 11053      525F494E 
 11053      545F4F4E 
 11053      5F434150 
 11053      286E2920 
 11054              	.LASF330:
 11055 0bcb 5F5F4152 		.ascii	"__ARM_ARCH_ISA_THUMB 1\000"
 11055      4D5F4152 
 11055      43485F49 
 11055      53415F54 
 11055      48554D42 
 11056              	.LASF785:
 11057 0be2 55415254 		.ascii	"UART_FCR_RX_RS (1 << 1)\000"
 11057      5F464352 
 11057      5F52585F 
 11057      52532028 
 11057      31203C3C 
 11058              	.LASF544:
 11059 0bfa 5F5F494F 		.ascii	"__IO volatile\000"
 11059      20766F6C 
 11059      6174696C 
 11059      6500
 11060              	.LASF1109:
 11061 0c08 5F545F50 		.ascii	"_T_PTRDIFF_ \000"
 11061      54524449 
 11061      46465F20 
 11061      00
 11062              	.LASF1646:
 11063 0c15 52585F42 		.ascii	"RX_BUFFER_FULL_CAN_ERROR\000"
 11063      55464645 
 11063      525F4655 
 11063      4C4C5F43 
 11063      414E5F45 
 11064              	.LASF1506:
 11065 0c2e 52455345 		.ascii	"RESET_ADC0\000"
 11065      545F4144 
 11065      433000
 11066              	.LASF1532:
 11067 0c39 6974656D 		.ascii	"itemSz\000"
 11067      537A00
 11068              	.LASF1249:
 11069 0c40 5F5F756E 		.ascii	"__unbounded \000"
 11069      626F756E 
 11069      64656420 
 11069      00
 11070              	.LASF194:
ARM GAS  /var/folders/z0/6xlwn_996xz3mwq1cgzkbq4r0000gp/T//ccjakVr1.s 			page 229


 11071 0c4d 5F5F5553 		.ascii	"__USFRACT_MIN__ 0.0UHR\000"
 11071      46524143 
 11071      545F4D49 
 11071      4E5F5F20 
 11071      302E3055 
 11072              	.LASF798:
 11073 0c64 55415254 		.ascii	"UART_LCR_WLEN8 (3 << 0)\000"
 11073      5F4C4352 
 11073      5F574C45 
 11073      4E382028 
 11073      33203C3C 
 11074              	.LASF1059:
 11075 0c7c 5F57414E 		.ascii	"_WANT_REGISTER_FINI 1\000"
 11075      545F5245 
 11075      47495354 
 11075      45525F46 
 11075      494E4920 
 11076              	.LASF1590:
 11077 0c92 6D61736B 		.ascii	"mask\000"
 11077      00
 11078              	.LASF927:
 11079 0c97 4144435F 		.ascii	"ADC_CR_START_MCOA2 ((6UL << 24))\000"
 11079      43525F53 
 11079      54415254 
 11079      5F4D434F 
 11079      41322028 
 11080              	.LASF518:
 11081 0cb8 45585445 		.ascii	"EXTERN extern\000"
 11081      524E2065 
 11081      78746572 
 11081      6E00
 11082              	.LASF150:
 11083 0cc6 5F5F4442 		.ascii	"__DBL_HAS_INFINITY__ 1\000"
 11083      4C5F4841 
 11083      535F494E 
 11083      46494E49 
 11083      54595F5F 
 11084              	.LASF1060:
 11085 0cdd 5F4D425F 		.ascii	"_MB_LEN_MAX 1\000"
 11085      4C454E5F 
 11085      4D415820 
 11085      3100
 11086              	.LASF1355:
 11087 0ceb 5F5F6E6F 		.ascii	"__no_lock_analysis __lock_annotate(no_thread_safety"
 11087      5F6C6F63 
 11087      6B5F616E 
 11087      616C7973 
 11087      6973205F 
 11088 0d1e 5F616E61 		.ascii	"_analysis)\000"
 11088      6C797369 
 11088      732900
 11089              	.LASF1673:
 11090 0d29 63616E5F 		.ascii	"can_sjw\000"
 11090      736A7700 
 11091              	.LASF180:
 11092 0d31 5F5F4445 		.ascii	"__DEC128_MANT_DIG__ 34\000"
 11092      43313238 
ARM GAS  /var/folders/z0/6xlwn_996xz3mwq1cgzkbq4r0000gp/T//ccjakVr1.s 			page 230


 11092      5F4D414E 
 11092      545F4449 
 11092      475F5F20 
 11093              	.LASF473:
 11094 0d48 494E545F 		.ascii	"INT_FAST32_MIN (-__INT_FAST32_MAX__ - 1)\000"
 11094      46415354 
 11094      33325F4D 
 11094      494E2028 
 11094      2D5F5F49 
 11095              	.LASF69:
 11096 0d71 5F5F5348 		.ascii	"__SHRT_MAX__ 0x7fff\000"
 11096      52545F4D 
 11096      41585F5F 
 11096      20307837 
 11096      66666600 
 11097              	.LASF625:
 11098 0d85 4C50435F 		.ascii	"LPC_USART_BASE 0x40008000\000"
 11098      55534152 
 11098      545F4241 
 11098      53452030 
 11098      78343030 
 11099              	.LASF1136:
 11100 0d9f 5F5F7763 		.ascii	"__wchar_t__ \000"
 11100      6861725F 
 11100      745F5F20 
 11100      00
 11101              	.LASF459:
 11102 0dac 494E545F 		.ascii	"INT_LEAST32_MAX (__INT_LEAST32_MAX__)\000"
 11102      4C454153 
 11102      5433325F 
 11102      4D415820 
 11102      285F5F49 
 11103              	.LASF95:
 11104 0dd2 5F5F494E 		.ascii	"__INT_LEAST16_MAX__ 0x7fff\000"
 11104      545F4C45 
 11104      41535431 
 11104      365F4D41 
 11104      585F5F20 
 11105              	.LASF898:
 11106 0ded 5353505F 		.ascii	"SSP_DR_BITMASK(n) ((n) & 0xFFFF)\000"
 11106      44525F42 
 11106      49544D41 
 11106      534B286E 
 11106      29202828 
 11107              	.LASF998:
 11108 0e0e 4932435F 		.ascii	"I2C_SETUP_STATUS_NOACKF (1 << 9)\000"
 11108      53455455 
 11108      505F5354 
 11108      41545553 
 11108      5F4E4F41 
 11109              	.LASF1227:
 11110 0e2f 5F524545 		.ascii	"_REENT_WCSRTOMBS_STATE(ptr) ((ptr)->_new._reent._wc"
 11110      4E545F57 
 11110      43535254 
 11110      4F4D4253 
 11110      5F535441 
 11111 0e62 7372746F 		.ascii	"srtombs_state)\000"
ARM GAS  /var/folders/z0/6xlwn_996xz3mwq1cgzkbq4r0000gp/T//ccjakVr1.s 			page 231


 11111      6D62735F 
 11111      73746174 
 11111      652900
 11112              	.LASF1103:
 11113 0e71 5F4E4F49 		.ascii	"_NOINLINE_STATIC _NOINLINE static\000"
 11113      4E4C494E 
 11113      455F5354 
 11113      41544943 
 11113      205F4E4F 
 11114              	.LASF1425:
 11115 0e93 49434552 		.ascii	"ICER\000"
 11115      00
 11116              	.LASF1308:
 11117 0e98 5F5F6661 		.ascii	"__fastcall __attribute__((__fastcall__))\000"
 11117      73746361 
 11117      6C6C205F 
 11117      5F617474 
 11117      72696275 
 11118              	.LASF734:
 11119 0ec1 46554E43 		.ascii	"FUNC0 0x0\000"
 11119      30203078 
 11119      3000
 11120              	.LASF869:
 11121 0ecb 55415254 		.ascii	"UART_SYNCCTRL_TSBYPASS (1 << 3)\000"
 11121      5F53594E 
 11121      43435452 
 11121      4C5F5453 
 11121      42595041 
 11122              	.LASF811:
 11123 0eeb 55415254 		.ascii	"UART_MCR_DTR_CTRL (1 << 0)\000"
 11123      5F4D4352 
 11123      5F445452 
 11123      5F435452 
 11123      4C202831 
 11124              	.LASF1101:
 11125 0f06 5F454C49 		.ascii	"_ELIDABLE_INLINE extern __inline__ _ATTRIBUTE ((__a"
 11125      4441424C 
 11125      455F494E 
 11125      4C494E45 
 11125      20657874 
 11126 0f39 6C776179 		.ascii	"lways_inline__))\000"
 11126      735F696E 
 11126      6C696E65 
 11126      5F5F2929 
 11126      00
 11127              	.LASF1102:
 11128 0f4a 5F4E4F49 		.ascii	"_NOINLINE __attribute__ ((__noinline__))\000"
 11128      4E4C494E 
 11128      45205F5F 
 11128      61747472 
 11128      69627574 
 11129              	.LASF112:
 11130 0f73 5F5F494E 		.ascii	"__INT_FAST64_MAX__ 0x7fffffffffffffffLL\000"
 11130      545F4641 
 11130      53543634 
 11130      5F4D4158 
 11130      5F5F2030 
ARM GAS  /var/folders/z0/6xlwn_996xz3mwq1cgzkbq4r0000gp/T//ccjakVr1.s 			page 232


 11131              	.LASF1012:
 11132 0f9b 43414E5F 		.ascii	"CAN_ERROR_NONE 0x00000000UL\000"
 11132      4552524F 
 11132      525F4E4F 
 11132      4E452030 
 11132      78303030 
 11133              	.LASF851:
 11134 0fb7 55415254 		.ascii	"UART_ICR_IRDAINV (1 << 1)\000"
 11134      5F494352 
 11134      5F495244 
 11134      41494E56 
 11134      20283120 
 11135              	.LASF1243:
 11136 0fd1 5F5F6C6F 		.ascii	"__long_double_t long double\000"
 11136      6E675F64 
 11136      6F75626C 
 11136      655F7420 
 11136      6C6F6E67 
 11137              	.LASF259:
 11138 0fed 5F5F4C4C 		.ascii	"__LLACCUM_MIN__ (-0X1P31LLK-0X1P31LLK)\000"
 11138      41434355 
 11138      4D5F4D49 
 11138      4E5F5F20 
 11138      282D3058 
 11139              	.LASF567:
 11140 1014 5343425F 		.ascii	"SCB_ICSR_ISRPENDING_Pos 22\000"
 11140      49435352 
 11140      5F495352 
 11140      50454E44 
 11140      494E475F 
 11141              	.LASF60:
 11142 102f 5F5F5549 		.ascii	"__UINT_FAST16_TYPE__ unsigned int\000"
 11142      4E545F46 
 11142      41535431 
 11142      365F5459 
 11142      50455F5F 
 11143              	.LASF749:
 11144 1051 54494D45 		.ascii	"TIMER_RESET_ON_MATCH(n) (_BIT((((n) * 3) + 1)))\000"
 11144      525F5245 
 11144      5345545F 
 11144      4F4E5F4D 
 11144      41544348 
 11145              	.LASF92:
 11146 1081 5F5F5549 		.ascii	"__UINT64_MAX__ 0xffffffffffffffffULL\000"
 11146      4E543634 
 11146      5F4D4158 
 11146      5F5F2030 
 11146      78666666 
 11147              	.LASF1632:
 11148 10a6 4E4F5F52 		.ascii	"NO_RX_CAN_MESSAGE\000"
 11148      585F4341 
 11148      4E5F4D45 
 11148      53534147 
 11148      4500
 11149              	.LASF775:
 11150 10b8 55415254 		.ascii	"UART_IIR_ABEO_INT (1 << 8)\000"
 11150      5F494952 
ARM GAS  /var/folders/z0/6xlwn_996xz3mwq1cgzkbq4r0000gp/T//ccjakVr1.s 			page 233


 11150      5F414245 
 11150      4F5F494E 
 11150      54202831 
 11151              	.LASF14:
 11152 10d3 5F5F5349 		.ascii	"__SIZEOF_INT__ 4\000"
 11152      5A454F46 
 11152      5F494E54 
 11152      5F5F2034 
 11152      00
 11153              	.LASF331:
 11154 10e4 5F5F4152 		.ascii	"__ARMEL__ 1\000"
 11154      4D454C5F 
 11154      5F203100 
 11155              	.LASF1379:
 11156 10f0 75696E74 		.ascii	"uint32_t\000"
 11156      33325F74 
 11156      00
 11157              	.LASF1202:
 11158 10f9 5F524545 		.ascii	"_REENT_CHECK_TM(ptr) \000"
 11158      4E545F43 
 11158      4845434B 
 11158      5F544D28 
 11158      70747229 
 11159              	.LASF1624:
 11160 110f 63616E5F 		.ascii	"can_receive\000"
 11160      72656365 
 11160      69766500 
 11161              	.LASF38:
 11162 111b 5F5F5349 		.ascii	"__SIG_ATOMIC_TYPE__ int\000"
 11162      475F4154 
 11162      4F4D4943 
 11162      5F545950 
 11162      455F5F20 
 11163              	.LASF1635:
 11164 1133 424F4646 		.ascii	"BOFF_CAN_ERROR\000"
 11164      5F43414E 
 11164      5F455252 
 11164      4F5200
 11165              	.LASF1129:
 11166 1142 5F425344 		.ascii	"_BSD_SIZE_T_DEFINED_ \000"
 11166      5F53495A 
 11166      455F545F 
 11166      44454649 
 11166      4E45445F 
 11167              	.LASF1261:
 11168 1158 5F5F474E 		.ascii	"__GNUCLIKE_CTOR_SECTION_HANDLING 1\000"
 11168      55434C49 
 11168      4B455F43 
 11168      544F525F 
 11168      53454354 
 11169              	.LASF1252:
 11170 117b 5F5F6861 		.ascii	"__has_feature(x) 0\000"
 11170      735F6665 
 11170      61747572 
 11170      65287829 
 11170      203000
 11171              	.LASF1382:
ARM GAS  /var/folders/z0/6xlwn_996xz3mwq1cgzkbq4r0000gp/T//ccjakVr1.s 			page 234


 11172 118e 54525545 		.ascii	"TRUE\000"
 11172      00
 11173              	.LASF919:
 11174 1193 4144435F 		.ascii	"ADC_CR_PDN ((1UL << 21))\000"
 11174      43525F50 
 11174      444E2028 
 11174      2831554C 
 11174      203C3C20 
 11175              	.LASF681:
 11176 11ac 53595343 		.ascii	"SYSCTL_SLPWAKE_IRC_PD (1 << 1)\000"
 11176      544C5F53 
 11176      4C505741 
 11176      4B455F49 
 11176      52435F50 
 11177              	.LASF393:
 11178 11cb 73686F72 		.ascii	"short\000"
 11178      7400
 11179              	.LASF1704:
 11180 11d1 2E2E2F2E 		.ascii	"../../lib/lpc11cx4-library/evt_lib/src/can.c\000"
 11180      2E2F6C69 
 11180      622F6C70 
 11180      63313163 
 11180      78342D6C 
 11181              	.LASF1434:
 11182 11fe 5359534D 		.ascii	"SYSMEMREMAP\000"
 11182      454D5245 
 11182      4D415000 
 11183              	.LASF1079:
 11184 120a 5F484156 		.ascii	"_HAVE_STDC \000"
 11184      455F5354 
 11184      44432000 
 11185              	.LASF1686:
 11186 1216 6D73675F 		.ascii	"msg_id\000"
 11186      696400
 11187              	.LASF845:
 11188 121d 55415254 		.ascii	"UART_RS485CTRL_AADEN (1 << 2)\000"
 11188      5F525334 
 11188      38354354 
 11188      524C5F41 
 11188      4144454E 
 11189              	.LASF104:
 11190 123b 5F5F5549 		.ascii	"__UINT16_C(c) c\000"
 11190      4E543136 
 11190      5F432863 
 11190      29206300 
 11191              	.LASF319:
 11192 124b 5F5F5052 		.ascii	"__PRAGMA_REDEFINE_EXTNAME 1\000"
 11192      41474D41 
 11192      5F524544 
 11192      4546494E 
 11192      455F4558 
 11193              	.LASF50:
 11194 1267 5F5F494E 		.ascii	"__INT_LEAST64_TYPE__ long long int\000"
 11194      545F4C45 
 11194      41535436 
 11194      345F5459 
 11194      50455F5F 
ARM GAS  /var/folders/z0/6xlwn_996xz3mwq1cgzkbq4r0000gp/T//ccjakVr1.s 			page 235


 11195              	.LASF1096:
 11196 128a 5F444546 		.ascii	"_DEFUN_VOID(name) name(_NOARGS)\000"
 11196      554E5F56 
 11196      4F494428 
 11196      6E616D65 
 11196      29206E61 
 11197              	.LASF1296:
 11198 12aa 5F416C69 		.ascii	"_Alignas(x) __aligned(x)\000"
 11198      676E6173 
 11198      28782920 
 11198      5F5F616C 
 11198      69676E65 
 11199              	.LASF916:
 11200 12c3 4144435F 		.ascii	"ADC_CR_CH_SEL(n) ((1UL << (n)))\000"
 11200      43525F43 
 11200      485F5345 
 11200      4C286E29 
 11200      20282831 
 11201              	.LASF1549:
 11202 12e3 43414E43 		.ascii	"CANCTRL\000"
 11202      54524C00 
 11203              	.LASF1331:
 11204 12eb 5F5F7379 		.ascii	"__sym_compat(sym,impl,verid) __asm__(\".symver \" #"
 11204      6D5F636F 
 11204      6D706174 
 11204      2873796D 
 11204      2C696D70 
 11205 131c 696D706C 		.ascii	"impl \", \" #sym \"@\" #verid)\000"
 11205      20222C20 
 11205      22202373 
 11205      796D2022 
 11205      40222023 
 11206              	.LASF1198:
 11207 1337 5F524545 		.ascii	"_REENT_INIT(var) { 0, &(var).__sf[0], &(var).__sf[1"
 11207      4E545F49 
 11207      4E495428 
 11207      76617229 
 11207      207B2030 
 11208 136a 5D2C2026 		.ascii	"], &(var).__sf[2], 0, \"\", 0, _NULL, 0, _NULL, _NU"
 11208      28766172 
 11208      292E5F5F 
 11208      73665B32 
 11208      5D2C2030 
 11209 139b 4C4C2C20 		.ascii	"LL, 0, _NULL, _NULL, 0, _NULL, { { 0, _NULL, \"\", "
 11209      302C205F 
 11209      4E554C4C 
 11209      2C205F4E 
 11209      554C4C2C 
 11210 13cc 7B302C20 		.ascii	"{0, 0, 0, 0, 0, 0, 0, 0, 0}, 0, 1, { {_RAND48_SEED_"
 11210      302C2030 
 11210      2C20302C 
 11210      20302C20 
 11210      302C2030 
 11211 13ff 302C205F 		.ascii	"0, _RAND48_SEED_1, _RAND48_SEED_2}, {_RAND48_MULT_0"
 11211      52414E44 
 11211      34385F53 
 11211      4545445F 
ARM GAS  /var/folders/z0/6xlwn_996xz3mwq1cgzkbq4r0000gp/T//ccjakVr1.s 			page 236


 11211      312C205F 
 11212 1432 2C205F52 		.ascii	", _RAND48_MULT_1, _RAND48_MULT_2}, _RAND48_ADD }, {"
 11212      414E4434 
 11212      385F4D55 
 11212      4C545F31 
 11212      2C205F52 
 11213 1465 302C207B 		.ascii	"0, {0}}, {0, {0}}, {0, {0}}, \"\", \"\", 0, {0, {0}"
 11213      307D7D2C 
 11213      207B302C 
 11213      207B307D 
 11213      7D2C207B 
 11214 1494 7D2C207B 		.ascii	"}, {0, {0}}, {0, {0}}, {0, {0}}, {0, {0}} } }, _REE"
 11214      302C207B 
 11214      307D7D2C 
 11214      207B302C 
 11214      207B307D 
 11215 14c7 4E545F49 		.ascii	"NT_INIT_ATEXIT _NULL, {_NULL, 0, _NULL} }\000"
 11215      4E49545F 
 11215      41544558 
 11215      4954205F 
 11215      4E554C4C 
 11216              	.LASF1354:
 11217 14f1 5F5F7265 		.ascii	"__requires_unlocked(...) __lock_annotate(locks_excl"
 11217      71756972 
 11217      65735F75 
 11217      6E6C6F63 
 11217      6B656428 
 11218 1524 75646564 		.ascii	"uded(__VA_ARGS__))\000"
 11218      285F5F56 
 11218      415F4152 
 11218      47535F5F 
 11218      292900
 11219              	.LASF1267:
 11220 1537 5F5F636F 		.ascii	"__compiler_membar() __asm __volatile(\" \" : : : \""
 11220      6D70696C 
 11220      65725F6D 
 11220      656D6261 
 11220      72282920 
 11221 1567 6D656D6F 		.ascii	"memory\")\000"
 11221      72792229 
 11221      00
 11222              	.LASF997:
 11223 1570 4932435F 		.ascii	"I2C_SETUP_STATUS_ARBF (1 << 8)\000"
 11223      53455455 
 11223      505F5354 
 11223      41545553 
 11223      5F415242 
 11224              	.LASF1147:
 11225 158f 5F5F5F69 		.ascii	"___int_wchar_t_h \000"
 11225      6E745F77 
 11225      63686172 
 11225      5F745F68 
 11225      2000
 11226              	.LASF1159:
 11227 15a1 5F5F5359 		.ascii	"__SYS_LOCK_H__ \000"
 11227      535F4C4F 
 11227      434B5F48 
ARM GAS  /var/folders/z0/6xlwn_996xz3mwq1cgzkbq4r0000gp/T//ccjakVr1.s 			page 237


 11227      5F5F2000 
 11228              	.LASF427:
 11229 15b1 5F494E54 		.ascii	"_INT64_T_DECLARED \000"
 11229      36345F54 
 11229      5F444543 
 11229      4C415245 
 11229      442000
 11230              	.LASF693:
 11231 15c4 53595343 		.ascii	"SYSCTL_POWERDOWN_SYSOSC_PD (1 << 5)\000"
 11231      544C5F50 
 11231      4F574552 
 11231      444F574E 
 11231      5F535953 
 11232              	.LASF1315:
 11233 15e8 5F5F7365 		.ascii	"__sentinel __attribute__((__sentinel__))\000"
 11233      6E74696E 
 11233      656C205F 
 11233      5F617474 
 11233      72696275 
 11234              	.LASF267:
 11235 1611 5F5F5151 		.ascii	"__QQ_FBIT__ 7\000"
 11235      5F464249 
 11235      545F5F20 
 11235      3700
 11236              	.LASF1020:
 11237 161f 43414E5F 		.ascii	"CAN_ERROR_BIT0 0x00000080UL\000"
 11237      4552524F 
 11237      525F4249 
 11237      54302030 
 11237      78303030 
 11238              	.LASF448:
 11239 163b 55494E54 		.ascii	"UINT_LEAST8_MAX (__UINT_LEAST8_MAX__)\000"
 11239      5F4C4541 
 11239      5354385F 
 11239      4D415820 
 11239      285F5F55 
 11240              	.LASF864:
 11241 1661 55415254 		.ascii	"UART_TER1_TXEN (1 << 7)\000"
 11241      5F544552 
 11241      315F5458 
 11241      454E2028 
 11241      31203C3C 
 11242              	.LASF461:
 11243 1679 494E5436 		.ascii	"INT64_MIN (-__INT64_MAX__ - 1)\000"
 11243      345F4D49 
 11243      4E20282D 
 11243      5F5F494E 
 11243      5436345F 
 11244              	.LASF1053:
 11245 1698 43414E5F 		.ascii	"CAN_SDOSEG_CLOSE 2\000"
 11245      53444F53 
 11245      45475F43 
 11245      4C4F5345 
 11245      203200
 11246              	.LASF23:
 11247 16ab 5F5F4249 		.ascii	"__BIGGEST_ALIGNMENT__ 8\000"
 11247      47474553 
ARM GAS  /var/folders/z0/6xlwn_996xz3mwq1cgzkbq4r0000gp/T//ccjakVr1.s 			page 238


 11247      545F414C 
 11247      49474E4D 
 11247      454E545F 
 11248              	.LASF1169:
 11249 16c3 5F5F6C6F 		.ascii	"__lock_try_acquire_recursive(lock) (_CAST_VOID 0)\000"
 11249      636B5F74 
 11249      72795F61 
 11249      63717569 
 11249      72655F72 
 11250              	.LASF43:
 11251 16f5 5F5F5549 		.ascii	"__UINT8_TYPE__ unsigned char\000"
 11251      4E54385F 
 11251      54595045 
 11251      5F5F2075 
 11251      6E736967 
 11252              	.LASF604:
 11253 1712 53797354 		.ascii	"SysTick_LOAD_RELOAD_Msk (0xFFFFFFUL << SysTick_LOAD"
 11253      69636B5F 
 11253      4C4F4144 
 11253      5F52454C 
 11253      4F41445F 
 11254 1745 5F52454C 		.ascii	"_RELOAD_Pos)\000"
 11254      4F41445F 
 11254      506F7329 
 11254      00
 11255              	.LASF460:
 11256 1752 55494E54 		.ascii	"UINT_LEAST32_MAX (__UINT_LEAST32_MAX__)\000"
 11256      5F4C4541 
 11256      53543332 
 11256      5F4D4158 
 11256      20285F5F 
 11257              	.LASF1457:
 11258 177a 53535031 		.ascii	"SSP1CLKDIV\000"
 11258      434C4B44 
 11258      495600
 11259              	.LASF957:
 11260 1785 4932435F 		.ascii	"I2C_I2STAT_M_TX_RESTART ((0x10))\000"
 11260      49325354 
 11260      41545F4D 
 11260      5F54585F 
 11260      52455354 
 11261              	.LASF1220:
 11262 17a6 5F524545 		.ascii	"_REENT_MBLEN_STATE(ptr) ((ptr)->_new._reent._mblen_"
 11262      4E545F4D 
 11262      424C454E 
 11262      5F535441 
 11262      54452870 
 11263 17d9 73746174 		.ascii	"state)\000"
 11263      652900
 11264              	.LASF638:
 11265 17e0 4C50435F 		.ascii	"LPC_USB0_BASE 0x40080000\000"
 11265      55534230 
 11265      5F424153 
 11265      45203078 
 11265      34303038 
 11266              	.LASF265:
 11267 17f9 5F5F554C 		.ascii	"__ULLACCUM_MAX__ 0XFFFFFFFFFFFFFFFFP-32ULLK\000"
ARM GAS  /var/folders/z0/6xlwn_996xz3mwq1cgzkbq4r0000gp/T//ccjakVr1.s 			page 239


 11267      4C414343 
 11267      554D5F4D 
 11267      41585F5F 
 11267      20305846 
 11268              	.LASF1672:
 11269 1825 636C6B5F 		.ascii	"clk_per_bit\000"
 11269      7065725F 
 11269      62697400 
 11270              	.LASF678:
 11271 1831 53595343 		.ascii	"SYSCTL_DEEPSLP_BOD_PD (1 << 3)\000"
 11271      544C5F44 
 11271      45455053 
 11271      4C505F42 
 11271      4F445F50 
 11272              	.LASF1017:
 11273 1850 43414E5F 		.ascii	"CAN_ERROR_FORM 0x00000010UL\000"
 11273      4552524F 
 11273      525F464F 
 11273      524D2030 
 11273      78303030 
 11274              	.LASF1161:
 11275 186c 5F5F4C4F 		.ascii	"__LOCK_INIT_RECURSIVE(class,lock) static int lock ="
 11275      434B5F49 
 11275      4E49545F 
 11275      52454355 
 11275      52534956 
 11276 189f 20303B00 		.ascii	" 0;\000"
 11277              	.LASF1442:
 11278 18a3 5744544F 		.ascii	"WDTOSCCTRL\000"
 11278      53434354 
 11278      524C00
 11279              	.LASF1546:
 11280 18ae 43414E49 		.ascii	"CANIF1_CMDMSK_R\000"
 11280      46315F43 
 11280      4D444D53 
 11280      4B5F5200 
 11281              	.LASF1280:
 11282 18be 5F5F434F 		.ascii	"__CONCAT(x,y) __CONCAT1(x,y)\000"
 11282      4E434154 
 11282      28782C79 
 11282      29205F5F 
 11282      434F4E43 
 11283              	.LASF590:
 11284 18db 5343425F 		.ascii	"SCB_CCR_STKALIGN_Msk (1UL << SCB_CCR_STKALIGN_Pos)\000"
 11284      4343525F 
 11284      53544B41 
 11284      4C49474E 
 11284      5F4D736B 
 11285              	.LASF1545:
 11286 190e 43414E49 		.ascii	"CANIF1_CMDMSK_W\000"
 11286      46315F43 
 11286      4D444D53 
 11286      4B5F5700 
 11287              	.LASF1048:
 11288 191e 43414E5F 		.ascii	"CAN_SDOREQ_NOTHANDLED 0\000"
 11288      53444F52 
 11288      45515F4E 
ARM GAS  /var/folders/z0/6xlwn_996xz3mwq1cgzkbq4r0000gp/T//ccjakVr1.s 			page 240


 11288      4F544841 
 11288      4E444C45 
 11289              	.LASF896:
 11290 1936 5353505F 		.ascii	"SSP_CR1_BITMASK ((uint32_t) (0x0F))\000"
 11290      4352315F 
 11290      4249544D 
 11290      41534B20 
 11290      28287569 
 11291              	.LASF787:
 11292 195a 55415254 		.ascii	"UART_FCR_DMAMODE_SEL (1 << 3)\000"
 11292      5F464352 
 11292      5F444D41 
 11292      4D4F4445 
 11292      5F53454C 
 11293              	.LASF228:
 11294 1978 5F5F5341 		.ascii	"__SACCUM_IBIT__ 8\000"
 11294      4343554D 
 11294      5F494249 
 11294      545F5F20 
 11294      3800
 11295              	.LASF1056:
 11296 198a 5F414E53 		.ascii	"_ANSIDECL_H_ \000"
 11296      49444543 
 11296      4C5F485F 
 11296      2000
 11297              	.LASF44:
 11298 1998 5F5F5549 		.ascii	"__UINT16_TYPE__ short unsigned int\000"
 11298      4E543136 
 11298      5F545950 
 11298      455F5F20 
 11298      73686F72 
 11299              	.LASF1389:
 11300 19bb 50494F30 		.ascii	"PIO0_0_IRQn\000"
 11300      5F305F49 
 11300      52516E00 
 11301              	.LASF553:
 11302 19c7 5343425F 		.ascii	"SCB_CPUID_REVISION_Pos 0\000"
 11302      43505549 
 11302      445F5245 
 11302      56495349 
 11302      4F4E5F50 
 11303              	.LASF833:
 11304 19e0 55415254 		.ascii	"UART_MSR_DSR (1 << 5)\000"
 11304      5F4D5352 
 11304      5F445352 
 11304      20283120 
 11304      3C3C2035 
 11305              	.LASF1122:
 11306 19f6 5F545F53 		.ascii	"_T_SIZE_ \000"
 11306      495A455F 
 11306      2000
 11307              	.LASF1386:
 11308 1a00 53564361 		.ascii	"SVCall_IRQn\000"
 11308      6C6C5F49 
 11308      52516E00 
 11309              	.LASF1437:
 11310 1a0c 53595350 		.ascii	"SYSPLLSTAT\000"
ARM GAS  /var/folders/z0/6xlwn_996xz3mwq1cgzkbq4r0000gp/T//ccjakVr1.s 			page 241


 11310      4C4C5354 
 11310      415400
 11311              	.LASF1000:
 11312 1a17 4932435F 		.ascii	"I2C_OK 0x00\000"
 11312      4F4B2030 
 11312      78303000 
 11313              	.LASF1030:
 11314 1a23 53444F5F 		.ascii	"SDO_ABORT_WRITEONLY 0x06010001UL\000"
 11314      41424F52 
 11314      545F5752 
 11314      4954454F 
 11314      4E4C5920 
 11315              	.LASF1504:
 11316 1a44 52455345 		.ascii	"RESET_ACMP\000"
 11316      545F4143 
 11316      4D5000
 11317              	.LASF1649:
 11318 1a4f 43686970 		.ascii	"Chip_SYSCTL_AssertPeriphReset\000"
 11318      5F535953 
 11318      43544C5F 
 11318      41737365 
 11318      72745065 
 11319              	.LASF1679:
 11320 1a6d 43414E5F 		.ascii	"CAN_Init\000"
 11320      496E6974 
 11320      00
 11321              	.LASF107:
 11322 1a76 5F5F5549 		.ascii	"__UINT_LEAST64_MAX__ 0xffffffffffffffffULL\000"
 11322      4E545F4C 
 11322      45415354 
 11322      36345F4D 
 11322      41585F5F 
 11323              	.LASF94:
 11324 1aa1 5F5F494E 		.ascii	"__INT8_C(c) c\000"
 11324      54385F43 
 11324      28632920 
 11324      6300
 11325              	.LASF895:
 11326 1aaf 5353505F 		.ascii	"SSP_CR1_SO_DISABLE ((uint32_t) (1 << 3))\000"
 11326      4352315F 
 11326      534F5F44 
 11326      49534142 
 11326      4C452028 
 11327              	.LASF994:
 11328 1ad8 4932435F 		.ascii	"I2C_I2MASK_MASK(n) ((n & 0xFE))\000"
 11328      49324D41 
 11328      534B5F4D 
 11328      41534B28 
 11328      6E292028 
 11329              	.LASF1456:
 11330 1af8 55534152 		.ascii	"USARTCLKDIV\000"
 11330      54434C4B 
 11330      44495600 
 11331              	.LASF338:
 11332 1b04 5F5F4152 		.ascii	"__ARM_EABI__ 1\000"
 11332      4D5F4541 
 11332      42495F5F 
ARM GAS  /var/folders/z0/6xlwn_996xz3mwq1cgzkbq4r0000gp/T//ccjakVr1.s 			page 242


 11332      203100
 11333              	.LASF975:
 11334 1b13 4932435F 		.ascii	"I2C_I2STAT_S_RX_PRE_SLA_DAT_NACK ((0x88))\000"
 11334      49325354 
 11334      41545F53 
 11334      5F52585F 
 11334      5052455F 
 11335              	.LASF1327:
 11336 1b3d 5F5F7072 		.ascii	"__printf0like(fmtarg,firstvararg) \000"
 11336      696E7466 
 11336      306C696B 
 11336      6528666D 
 11336      74617267 
 11337              	.LASF1595:
 11338 1b60 696E6465 		.ascii	"index\000"
 11338      7800
 11339              	.LASF628:
 11340 1b66 4C50435F 		.ascii	"LPC_TIMER32_0_BASE 0x40014000\000"
 11340      54494D45 
 11340      5233325F 
 11340      305F4241 
 11340      53452030 
 11341              	.LASF806:
 11342 1b84 55415254 		.ascii	"UART_LCR_PARITY_F_1 (2 << 4)\000"
 11342      5F4C4352 
 11342      5F504152 
 11342      4954595F 
 11342      465F3120 
 11343              	.LASF505:
 11344 1ba1 66616C73 		.ascii	"false 0\000"
 11344      65203000 
 11345              	.LASF382:
 11346 1ba9 5F5F5F69 		.ascii	"___int_least16_t_defined 1\000"
 11346      6E745F6C 
 11346      65617374 
 11346      31365F74 
 11346      5F646566 
 11347              	.LASF88:
 11348 1bc4 5F5F494E 		.ascii	"__INT64_MAX__ 0x7fffffffffffffffLL\000"
 11348      5436345F 
 11348      4D41585F 
 11348      5F203078 
 11348      37666666 
 11349              	.LASF1272:
 11350 1be7 5F5F4343 		.ascii	"__CC_SUPPORTS___INLINE 1\000"
 11350      5F535550 
 11350      504F5254 
 11350      535F5F5F 
 11350      494E4C49 
 11351              	.LASF7:
 11352 1c00 5F5F4154 		.ascii	"__ATOMIC_SEQ_CST 5\000"
 11352      4F4D4943 
 11352      5F534551 
 11352      5F435354 
 11352      203500
 11353              	.LASF918:
 11354 1c13 4144435F 		.ascii	"ADC_CR_BURST ((1UL << 16))\000"
ARM GAS  /var/folders/z0/6xlwn_996xz3mwq1cgzkbq4r0000gp/T//ccjakVr1.s 			page 243


 11354      43525F42 
 11354      55525354 
 11354      20282831 
 11354      554C203C 
 11355              	.LASF1132:
 11356 1c2e 5F474343 		.ascii	"_GCC_SIZE_T \000"
 11356      5F53495A 
 11356      455F5420 
 11356      00
 11357              	.LASF1509:
 11358 1c3b 43484950 		.ascii	"CHIP_SYSCTL_CLOCK\000"
 11358      5F535953 
 11358      43544C5F 
 11358      434C4F43 
 11358      4B00
 11359              	.LASF1659:
 11360 1c4d 436F6E76 		.ascii	"Convert_To_CAN_Error\000"
 11360      6572745F 
 11360      546F5F43 
 11360      414E5F45 
 11360      72726F72 
 11361              	.LASF1206:
 11362 1c62 5F524545 		.ascii	"_REENT_CHECK_SIGNAL_BUF(ptr) \000"
 11362      4E545F43 
 11362      4845434B 
 11362      5F534947 
 11362      4E414C5F 
 11363              	.LASF661:
 11364 1c80 4C50435F 		.ascii	"LPC_CCAN ((LPC_CCAN_T *) LPC_CAN0_BASE)\000"
 11364      4343414E 
 11364      2028284C 
 11364      50435F43 
 11364      43414E5F 
 11365              	.LASF939:
 11366 1ca8 4932435F 		.ascii	"I2C_I2CONSET_STO ((0x10))\000"
 11366      4932434F 
 11366      4E534554 
 11366      5F53544F 
 11366      20282830 
 11367              	.LASF1563:
 11368 1cc2 43414E49 		.ascii	"CANIF1_DA2\000"
 11368      46315F44 
 11368      413200
 11369              	.LASF1275:
 11370 1ccd 5F5F4343 		.ascii	"__CC_SUPPORTS_WARNING 1\000"
 11370      5F535550 
 11370      504F5254 
 11370      535F5741 
 11370      524E494E 
 11371              	.LASF1094:
 11372 1ce5 5F455846 		.ascii	"_EXFNPTR(name,proto) (* name) proto\000"
 11372      4E505452 
 11372      286E616D 
 11372      652C7072 
 11372      6F746F29 
 11373              	.LASF59:
 11374 1d09 5F5F5549 		.ascii	"__UINT_FAST8_TYPE__ unsigned int\000"
ARM GAS  /var/folders/z0/6xlwn_996xz3mwq1cgzkbq4r0000gp/T//ccjakVr1.s 			page 244


 11374      4E545F46 
 11374      41535438 
 11374      5F545950 
 11374      455F5F20 
 11375              	.LASF1401:
 11376 1d2a 50494F31 		.ascii	"PIO1_0_IRQn\000"
 11376      5F305F49 
 11376      52516E00 
 11377              	.LASF574:
 11378 1d36 5343425F 		.ascii	"SCB_AIRCR_VECTKEY_Msk (0xFFFFUL << SCB_AIRCR_VECTKE"
 11378      41495243 
 11378      525F5645 
 11378      43544B45 
 11378      595F4D73 
 11379 1d69 595F506F 		.ascii	"Y_Pos)\000"
 11379      732900
 11380              	.LASF301:
 11381 1d70 5F5F5554 		.ascii	"__UTA_FBIT__ 64\000"
 11381      415F4642 
 11381      49545F5F 
 11381      20363400 
 11382              	.LASF704:
 11383 1d80 494F434F 		.ascii	"IOCON_FUNC5 0x5\000"
 11383      4E5F4655 
 11383      4E433520 
 11383      30783500 
 11384              	.LASF139:
 11385 1d90 5F5F4442 		.ascii	"__DBL_DIG__ 15\000"
 11385      4C5F4449 
 11385      475F5F20 
 11385      313500
 11386              	.LASF1516:
 11387 1d9f 53595343 		.ascii	"SYSCTL_CLOCK_GPIO\000"
 11387      544C5F43 
 11387      4C4F434B 
 11387      5F475049 
 11387      4F00
 11388              	.LASF376:
 11389 1db1 5F5F4558 		.ascii	"__EXP(x) __ ##x ##__\000"
 11389      50287829 
 11389      205F5F20 
 11389      23237820 
 11389      23235F5F 
 11390              	.LASF902:
 11391 1dc6 5353505F 		.ascii	"SSP_CPHA_SECOND SSP_CR0_CPHA_SECOND\000"
 11391      43504841 
 11391      5F534543 
 11391      4F4E4420 
 11391      5353505F 
 11392              	.LASF158:
 11393 1dea 5F5F4445 		.ascii	"__DECIMAL_DIG__ 17\000"
 11393      43494D41 
 11393      4C5F4449 
 11393      475F5F20 
 11393      313700
 11394              	.LASF617:
 11395 1dfd 53434220 		.ascii	"SCB ((SCB_Type *) SCB_BASE )\000"
ARM GAS  /var/folders/z0/6xlwn_996xz3mwq1cgzkbq4r0000gp/T//ccjakVr1.s 			page 245


 11395      28285343 
 11395      425F5479 
 11395      7065202A 
 11395      29205343 
 11396              	.LASF451:
 11397 1e1a 55494E54 		.ascii	"UINT16_MAX (__UINT16_MAX__)\000"
 11397      31365F4D 
 11397      41582028 
 11397      5F5F5549 
 11397      4E543136 
 11398              	.LASF49:
 11399 1e36 5F5F494E 		.ascii	"__INT_LEAST32_TYPE__ long int\000"
 11399      545F4C45 
 11399      41535433 
 11399      325F5459 
 11399      50455F5F 
 11400              	.LASF526:
 11401 1e54 5F5F434D 		.ascii	"__CMSIS_11CXX_H_ \000"
 11401      5349535F 
 11401      31314358 
 11401      585F485F 
 11401      2000
 11402              	.LASF1352:
 11403 1e66 5F5F7265 		.ascii	"__requires_exclusive(...) __lock_annotate(exclusive"
 11403      71756972 
 11403      65735F65 
 11403      78636C75 
 11403      73697665 
 11404 1e99 5F6C6F63 		.ascii	"_locks_required(__VA_ARGS__))\000"
 11404      6B735F72 
 11404      65717569 
 11404      72656428 
 11404      5F5F5641 
 11405              	.LASF1340:
 11406 1eb7 5F5F4445 		.ascii	"__DEQUALIFY(type,var) ((type)(__uintptr_t)(const vo"
 11406      5155414C 
 11406      49465928 
 11406      74797065 
 11406      2C766172 
 11407 1eea 6C617469 		.ascii	"latile void *)(var))\000"
 11407      6C652076 
 11407      6F696420 
 11407      2A292876 
 11407      61722929 
 11408              	.LASF953:
 11409 1eff 4932435F 		.ascii	"I2C_STAT_CODE_ERROR ((0xFF))\000"
 11409      53544154 
 11409      5F434F44 
 11409      455F4552 
 11409      524F5220 
 11410              	.LASF945:
 11411 1f1c 4932435F 		.ascii	"I2C_I2CONCLR_STAC ((1 << 5))\000"
 11411      4932434F 
 11411      4E434C52 
 11411      5F535441 
 11411      43202828 
 11412              	.LASF1194:
ARM GAS  /var/folders/z0/6xlwn_996xz3mwq1cgzkbq4r0000gp/T//ccjakVr1.s 			page 246


 11413 1f39 5F524545 		.ascii	"_REENT_EMERGENCY_SIZE 25\000"
 11413      4E545F45 
 11413      4D455247 
 11413      454E4359 
 11413      5F53495A 
 11414              	.LASF1404:
 11415 1f52 49324330 		.ascii	"I2C0_IRQn\000"
 11415      5F495251 
 11415      6E00
 11416              	.LASF302:
 11417 1f5c 5F5F5554 		.ascii	"__UTA_IBIT__ 64\000"
 11417      415F4942 
 11417      49545F5F 
 11417      20363400 
 11418              	.LASF1074:
 11419 1f6c 5F5F5241 		.ascii	"__RAND_MAX 0x7fffffff\000"
 11419      4E445F4D 
 11419      41582030 
 11419      78376666 
 11419      66666666 
 11420              	.LASF462:
 11421 1f82 494E5436 		.ascii	"INT64_MAX (__INT64_MAX__)\000"
 11421      345F4D41 
 11421      5820285F 
 11421      5F494E54 
 11421      36345F4D 
 11422              	.LASF1034:
 11423 1f9c 53444F5F 		.ascii	"SDO_ABORT_ACCINCOMP 0x06040047UL\000"
 11423      41424F52 
 11423      545F4143 
 11423      43494E43 
 11423      4F4D5020 
 11424              	.LASF1705:
 11425 1fbd 2F557365 		.ascii	"/Users/tukyab/Documents/MIT/FSAE/csb/charger_shutdo"
 11425      72732F74 
 11425      756B7961 
 11425      622F446F 
 11425      63756D65 
 11426 1ff0 776E5F62 		.ascii	"wn_board\000"
 11426      6F617264 
 11426      00
 11427              	.LASF652:
 11428 1ff9 4C50435F 		.ascii	"LPC_TIMER32_0 ((LPC_TIMER_T *) LPC_TIMER32_0_BASE)\000"
 11428      54494D45 
 11428      5233325F 
 11428      30202828 
 11428      4C50435F 
 11429              	.LASF842:
 11430 202c 55415254 		.ascii	"UART_ACR_BITMASK (0x307)\000"
 11430      5F414352 
 11430      5F424954 
 11430      4D41534B 
 11430      20283078 
 11431              	.LASF1615:
 11432 2045 43414E4F 		.ascii	"CANOPEN_sdo_read\000"
 11432      50454E5F 
 11432      73646F5F 
ARM GAS  /var/folders/z0/6xlwn_996xz3mwq1cgzkbq4r0000gp/T//ccjakVr1.s 			page 247


 11432      72656164 
 11432      00
 11433              	.LASF728:
 11434 2056 4D445F44 		.ascii	"MD_DISFIL (0x0 << 8)\000"
 11434      49534649 
 11434      4C202830 
 11434      7830203C 
 11434      3C203829 
 11435              	.LASF1086:
 11436 206b 5F434F4E 		.ascii	"_CONST const\000"
 11436      53542063 
 11436      6F6E7374 
 11436      00
 11437              	.LASF208:
 11438 2078 5F5F4C46 		.ascii	"__LFRACT_IBIT__ 0\000"
 11438      52414354 
 11438      5F494249 
 11438      545F5F20 
 11438      3000
 11439              	.LASF304:
 11440 208a 5F5F5553 		.ascii	"__USER_LABEL_PREFIX__ \000"
 11440      45525F4C 
 11440      4142454C 
 11440      5F505245 
 11440      4649585F 
 11441              	.LASF1467:
 11442 20a1 434C4B4F 		.ascii	"CLKOUTSEL\000"
 11442      55545345 
 11442      4C00
 11443              	.LASF1244:
 11444 20ab 5F5F6174 		.ascii	"__attribute_malloc__ \000"
 11444      74726962 
 11444      7574655F 
 11444      6D616C6C 
 11444      6F635F5F 
 11445              	.LASF695:
 11446 20c1 53595343 		.ascii	"SYSCTL_POWERDOWN_SYSPLL_PD (1 << 7)\000"
 11446      544C5F50 
 11446      4F574552 
 11446      444F574E 
 11446      5F535953 
 11447              	.LASF816:
 11448 20e5 55415254 		.ascii	"UART_MCR_BITMASK (0xD3)\000"
 11448      5F4D4352 
 11448      5F424954 
 11448      4D41534B 
 11448      20283078 
 11449              	.LASF1130:
 11450 20fd 5F53495A 		.ascii	"_SIZE_T_DECLARED \000"
 11450      455F545F 
 11450      4445434C 
 11450      41524544 
 11450      2000
 11451              	.LASF378:
 11452 210f 5F5F5F69 		.ascii	"___int16_t_defined 1\000"
 11452      6E743136 
 11452      5F745F64 
ARM GAS  /var/folders/z0/6xlwn_996xz3mwq1cgzkbq4r0000gp/T//ccjakVr1.s 			page 248


 11452      6566696E 
 11452      65642031 
 11453              	.LASF1660:
 11454 2124 43414E5F 		.ascii	"CAN_TransmitMsgObj\000"
 11454      5472616E 
 11454      736D6974 
 11454      4D73674F 
 11454      626A00
 11455              	.LASF616:
 11456 2137 5343425F 		.ascii	"SCB_BASE (SCS_BASE + 0x0D00UL)\000"
 11456      42415345 
 11456      20285343 
 11456      535F4241 
 11456      5345202B 
 11457              	.LASF778:
 11458 2156 55415254 		.ascii	"UART_IIR_INTID_MASK (7 << 1)\000"
 11458      5F494952 
 11458      5F494E54 
 11458      49445F4D 
 11458      41534B20 
 11459              	.LASF1680:
 11460 2173 43616E41 		.ascii	"CanApiClkInitTable\000"
 11460      7069436C 
 11460      6B496E69 
 11460      74546162 
 11460      6C6500
 11461              	.LASF1080:
 11462 2186 5F424547 		.ascii	"_BEGIN_STD_C \000"
 11462      494E5F53 
 11462      54445F43 
 11462      2000
 11463              	.LASF268:
 11464 2194 5F5F5151 		.ascii	"__QQ_IBIT__ 0\000"
 11464      5F494249 
 11464      545F5F20 
 11464      3000
 11465              	.LASF637:
 11466 21a2 4C50435F 		.ascii	"LPC_SYSCTL_BASE 0x40048000\000"
 11466      53595343 
 11466      544C5F42 
 11466      41534520 
 11466      30783430 
 11467              	.LASF1622:
 11468 21bd 696E6974 		.ascii	"init_can\000"
 11468      5F63616E 
 11468      00
 11469              	.LASF886:
 11470 21c6 5353505F 		.ascii	"SSP_CR0_CPOL_HI ((uint32_t) (1 << 6))\000"
 11470      4352305F 
 11470      43504F4C 
 11470      5F484920 
 11470      28287569 
 11471              	.LASF983:
 11472 21ec 4932435F 		.ascii	"I2C_I2STAT_S_TX_LAST_DAT_ACK ((0xC8))\000"
 11472      49325354 
 11472      41545F53 
 11472      5F54585F 
ARM GAS  /var/folders/z0/6xlwn_996xz3mwq1cgzkbq4r0000gp/T//ccjakVr1.s 			page 249


 11472      4C415354 
 11473              	.LASF1338:
 11474 2212 5F5F4445 		.ascii	"__DECONST(type,var) ((type)(__uintptr_t)(const void"
 11474      434F4E53 
 11474      54287479 
 11474      70652C76 
 11474      61722920 
 11475 2245 202A2928 		.ascii	" *)(var))\000"
 11475      76617229 
 11475      2900
 11476              	.LASF807:
 11477 224f 55415254 		.ascii	"UART_LCR_PARITY_F_0 (3 << 4)\000"
 11477      5F4C4352 
 11477      5F504152 
 11477      4954595F 
 11477      465F3020 
 11478              	.LASF146:
 11479 226c 5F5F4442 		.ascii	"__DBL_MIN__ ((double)2.2250738585072014e-308L)\000"
 11479      4C5F4D49 
 11479      4E5F5F20 
 11479      2828646F 
 11479      75626C65 
 11480              	.LASF1496:
 11481 229b 52455345 		.ascii	"RESET_I2C0\000"
 11481      545F4932 
 11481      433000
 11482              	.LASF813:
 11483 22a6 55415254 		.ascii	"UART_MCR_LOOPB_EN (1 << 4)\000"
 11483      5F4D4352 
 11483      5F4C4F4F 
 11483      50425F45 
 11483      4E202831 
 11484              	.LASF109:
 11485 22c1 5F5F494E 		.ascii	"__INT_FAST8_MAX__ 0x7fffffff\000"
 11485      545F4641 
 11485      5354385F 
 11485      4D41585F 
 11485      5F203078 
 11486              	.LASF1478:
 11487 22de 50494E54 		.ascii	"PINTSEL\000"
 11487      53454C00 
 11488              	.LASF1021:
 11489 22e6 43414E5F 		.ascii	"CAN_ERROR_CRC 0x00000100UL\000"
 11489      4552524F 
 11489      525F4352 
 11489      43203078 
 11489      30303030 
 11490              	.LASF471:
 11491 2301 494E545F 		.ascii	"INT_FAST16_MAX (__INT_FAST16_MAX__)\000"
 11491      46415354 
 11491      31365F4D 
 11491      41582028 
 11491      5F5F494E 
 11492              	.LASF755:
 11493 2325 5F5F5249 		.ascii	"__RING_BUFFER_H_ \000"
 11493      4E475F42 
 11493      55464645 
ARM GAS  /var/folders/z0/6xlwn_996xz3mwq1cgzkbq4r0000gp/T//ccjakVr1.s 			page 250


 11493      525F485F 
 11493      2000
 11494              	.LASF1306:
 11495 2337 5F5F6E6F 		.ascii	"__nonnull(x) __attribute__((__nonnull__(x)))\000"
 11495      6E6E756C 
 11495      6C287829 
 11495      205F5F61 
 11495      74747269 
 11496              	.LASF793:
 11497 2364 55415254 		.ascii	"UART_FCR_TRG_LEV3 (3 << 6)\000"
 11497      5F464352 
 11497      5F545247 
 11497      5F4C4556 
 11497      33202833 
 11498              	.LASF159:
 11499 237f 5F5F4C44 		.ascii	"__LDBL_MAX__ 1.7976931348623157e+308L\000"
 11499      424C5F4D 
 11499      41585F5F 
 11499      20312E37 
 11499      39373639 
 11500              	.LASF1487:
 11501 23a5 53544152 		.ascii	"STARTERP1\000"
 11501      54455250 
 11501      3100
 11502              	.LASF777:
 11503 23af 55415254 		.ascii	"UART_IIR_BITMASK (0x3CF)\000"
 11503      5F494952 
 11503      5F424954 
 11503      4D41534B 
 11503      20283078 
 11504              	.LASF1573:
 11505 23c8 43414E49 		.ascii	"CANIF2_DA2\000"
 11505      46325F44 
 11505      413200
 11506              	.LASF511:
 11507 23d3 5F534246 		.ascii	"_SBF\000"
 11507      00
 11508              	.LASF260:
 11509 23d8 5F5F4C4C 		.ascii	"__LLACCUM_MAX__ 0X7FFFFFFFFFFFFFFFP-31LLK\000"
 11509      41434355 
 11509      4D5F4D41 
 11509      585F5F20 
 11509      30583746 
 11510              	.LASF803:
 11511 2402 55415254 		.ascii	"UART_LCR_PARITY_DIS (0 << 3)\000"
 11511      5F4C4352 
 11511      5F504152 
 11511      4954595F 
 11511      44495320 
 11512              	.LASF1593:
 11513 241f 4343414E 		.ascii	"CCAN_MSG_OBJ\000"
 11513      5F4D5347 
 11513      5F4F424A 
 11513      00
 11514              	.LASF154:
 11515 242c 5F5F4C44 		.ascii	"__LDBL_MIN_EXP__ (-1021)\000"
 11515      424C5F4D 
ARM GAS  /var/folders/z0/6xlwn_996xz3mwq1cgzkbq4r0000gp/T//ccjakVr1.s 			page 251


 11515      494E5F45 
 11515      58505F5F 
 11515      20282D31 
 11516              	.LASF976:
 11517 2445 4932435F 		.ascii	"I2C_I2STAT_S_RX_PRE_GENCALL_DAT_ACK ((0x90))\000"
 11517      49325354 
 11517      41545F53 
 11517      5F52585F 
 11517      5052455F 
 11518              	.LASF1037:
 11519 2472 53444F5F 		.ascii	"SDO_ABORT_VALUE_RANGE 0x06090030UL\000"
 11519      41424F52 
 11519      545F5641 
 11519      4C55455F 
 11519      52414E47 
 11520              	.LASF1310:
 11521 2495 5F5F7265 		.ascii	"__returns_twice __attribute__((__returns_twice__))\000"
 11521      7475726E 
 11521      735F7477 
 11521      69636520 
 11521      5F5F6174 
 11522              	.LASF1265:
 11523 24c8 5F5F474E 		.ascii	"__GNUCLIKE_BUILTIN_VAALIST 1\000"
 11523      55434C49 
 11523      4B455F42 
 11523      55494C54 
 11523      494E5F56 
 11524              	.LASF204:
 11525 24e5 5F5F5546 		.ascii	"__UFRACT_MIN__ 0.0UR\000"
 11525      52414354 
 11525      5F4D494E 
 11525      5F5F2030 
 11525      2E305552 
 11526              	.LASF400:
 11527 24fa 5F5F696E 		.ascii	"__int20 +2\000"
 11527      74323020 
 11527      2B3200
 11528              	.LASF906:
 11529 2505 5353505F 		.ascii	"SSP_MASTER_MODE SSP_CR1_MASTER_EN\000"
 11529      4D415354 
 11529      45525F4D 
 11529      4F444520 
 11529      5353505F 
 11530              	.LASF866:
 11531 2527 55415254 		.ascii	"UART_SYNCCTRL_SYNC (1 << 0)\000"
 11531      5F53594E 
 11531      43435452 
 11531      4C5F5359 
 11531      4E432028 
 11532              	.LASF1539:
 11533 2543 70777241 		.ascii	"pwrApiBase\000"
 11533      70694261 
 11533      736500
 11534              	.LASF465:
 11535 254e 494E545F 		.ascii	"INT_LEAST64_MAX (__INT_LEAST64_MAX__)\000"
 11535      4C454153 
 11535      5436345F 
ARM GAS  /var/folders/z0/6xlwn_996xz3mwq1cgzkbq4r0000gp/T//ccjakVr1.s 			page 252


 11535      4D415820 
 11535      285F5F49 
 11536              	.LASF127:
 11537 2574 5F5F464C 		.ascii	"__FLT_MIN_10_EXP__ (-37)\000"
 11537      545F4D49 
 11537      4E5F3130 
 11537      5F455850 
 11537      5F5F2028 
 11538              	.LASF1644:
 11539 258d 554E5245 		.ascii	"UNRECOGNIZED_ERROR_CODE\000"
 11539      434F474E 
 11539      495A4544 
 11539      5F455252 
 11539      4F525F43 
 11540              	.LASF1423:
 11541 25a5 49534552 		.ascii	"ISER\000"
 11541      00
 11542              	.LASF612:
 11543 25aa 53797354 		.ascii	"SysTick_CALIB_TENMS_Msk (0xFFFFFFUL << SysTick_VAL_"
 11543      69636B5F 
 11543      43414C49 
 11543      425F5445 
 11543      4E4D535F 
 11544 25dd 43555252 		.ascii	"CURRENT_Pos)\000"
 11544      454E545F 
 11544      506F7329 
 11544      00
 11545              	.LASF343:
 11546 25ea 434F5245 		.ascii	"CORE_M0 1\000"
 11546      5F4D3020 
 11546      3100
 11547              	.LASF1368:
 11548 25f4 5F5F7569 		.ascii	"__uint16_t\000"
 11548      6E743136 
 11548      5F7400
 11549              	.LASF149:
 11550 25ff 5F5F4442 		.ascii	"__DBL_HAS_DENORM__ 1\000"
 11550      4C5F4841 
 11550      535F4445 
 11550      4E4F524D 
 11550      5F5F2031 
 11551              	.LASF284:
 11552 2614 5F5F5544 		.ascii	"__UDQ_IBIT__ 0\000"
 11552      515F4942 
 11552      49545F5F 
 11552      203000
 11553              	.LASF138:
 11554 2623 5F5F4442 		.ascii	"__DBL_MANT_DIG__ 53\000"
 11554      4C5F4D41 
 11554      4E545F44 
 11554      49475F5F 
 11554      20353300 
 11555              	.LASF229:
 11556 2637 5F5F5341 		.ascii	"__SACCUM_MIN__ (-0X1P7HK-0X1P7HK)\000"
 11556      4343554D 
 11556      5F4D494E 
 11556      5F5F2028 
ARM GAS  /var/folders/z0/6xlwn_996xz3mwq1cgzkbq4r0000gp/T//ccjakVr1.s 			page 253


 11556      2D305831 
 11557              	.LASF1703:
 11558 2659 474E5520 		.ascii	"GNU C89 5.4.1 20160919 (release) [ARM/embedded-5-br"
 11558      43383920 
 11558      352E342E 
 11558      31203230 
 11558      31363039 
 11559 268c 616E6368 		.ascii	"anch revision 240496] -mcpu=cortex-m0 -mthumb -g -g"
 11559      20726576 
 11559      6973696F 
 11559      6E203234 
 11559      30343936 
 11560 26bf 67646233 		.ascii	"gdb3 -O2 -std=gnu90 -ffunction-sections -fdata-sect"
 11560      202D4F32 
 11560      202D7374 
 11560      643D676E 
 11560      75393020 
 11561 26f2 696F6E73 		.ascii	"ions\000"
 11561      00
 11562              	.LASF390:
 11563 26f7 7369676E 		.ascii	"signed\000"
 11563      656400
 11564              	.LASF344:
 11565 26fe 44454255 		.ascii	"DEBUG_ENABLE 1\000"
 11565      475F454E 
 11565      41424C45 
 11565      203100
 11566              	.LASF419:
 11567 270d 5F55494E 		.ascii	"_UINT8_T_DECLARED \000"
 11567      54385F54 
 11567      5F444543 
 11567      4C415245 
 11567      442000
 11568              	.LASF659:
 11569 2720 4C50435F 		.ascii	"LPC_SYSCTL ((LPC_SYSCTL_T *) LPC_SYSCTL_BASE)\000"
 11569      53595343 
 11569      544C2028 
 11569      284C5043 
 11569      5F535953 
 11570              	.LASF264:
 11571 274e 5F5F554C 		.ascii	"__ULLACCUM_MIN__ 0.0ULLK\000"
 11571      4C414343 
 11571      554D5F4D 
 11571      494E5F5F 
 11571      20302E30 
 11572              	.LASF942:
 11573 2767 4932435F 		.ascii	"I2C_I2CONCLR_AAC ((1 << 2))\000"
 11573      4932434F 
 11573      4E434C52 
 11573      5F414143 
 11573      20282831 
 11574              	.LASF658:
 11575 2783 4C50435F 		.ascii	"LPC_IOCON ((LPC_IOCON_T *) LPC_IOCON_BASE)\000"
 11575      494F434F 
 11575      4E202828 
 11575      4C50435F 
 11575      494F434F 
ARM GAS  /var/folders/z0/6xlwn_996xz3mwq1cgzkbq4r0000gp/T//ccjakVr1.s 			page 254


 11576              	.LASF449:
 11577 27ae 494E5431 		.ascii	"INT16_MIN (-__INT16_MAX__ - 1)\000"
 11577      365F4D49 
 11577      4E20282D 
 11577      5F5F494E 
 11577      5431365F 
 11578              	.LASF1602:
 11579 27cd 6E6F6465 		.ascii	"node_id\000"
 11579      5F696400 
 11580              	.LASF171:
 11581 27d5 5F5F4445 		.ascii	"__DEC32_EPSILON__ 1E-6DF\000"
 11581      4333325F 
 11581      45505349 
 11581      4C4F4E5F 
 11581      5F203145 
 11582              	.LASF1343:
 11583 27ee 5F5F6C6F 		.ascii	"__lock_annotate(x) \000"
 11583      636B5F61 
 11583      6E6E6F74 
 11583      61746528 
 11583      78292000 
 11584              	.LASF1085:
 11585 2802 5F4E4F41 		.ascii	"_NOARGS void\000"
 11585      52475320 
 11585      766F6964 
 11585      00
 11586              	.LASF1701:
 11587 280f 43686970 		.ascii	"Chip_Clock_GetMainClockRate\000"
 11587      5F436C6F 
 11587      636B5F47 
 11587      65744D61 
 11587      696E436C 
 11588              	.LASF670:
 11589 282b 5F5F464D 		.ascii	"__FMC_11XX_H_ \000"
 11589      435F3131 
 11589      58585F48 
 11589      5F2000
 11590              	.LASF955:
 11591 283a 4932435F 		.ascii	"I2C_I2STAT_BUS_ERROR ((0x00))\000"
 11591      49325354 
 11591      41545F42 
 11591      55535F45 
 11591      52524F52 
 11592              	.LASF885:
 11593 2858 5353505F 		.ascii	"SSP_CR0_CPOL_LO ((uint32_t) (0))\000"
 11593      4352305F 
 11593      43504F4C 
 11593      5F4C4F20 
 11593      28287569 
 11594              	.LASF1698:
 11595 2879 746D705F 		.ascii	"tmp_msg_obj_2\000"
 11595      6D73675F 
 11595      6F626A5F 
 11595      3200
 11596              	.LASF361:
 11597 2887 5F504F53 		.ascii	"_POSIX_SOURCE\000"
 11597      49585F53 
ARM GAS  /var/folders/z0/6xlwn_996xz3mwq1cgzkbq4r0000gp/T//ccjakVr1.s 			page 255


 11597      4F555243 
 11597      4500
 11598              	.LASF1134:
 11599 2895 5F5F7369 		.ascii	"__size_t \000"
 11599      7A655F74 
 11599      2000
 11600              	.LASF75:
 11601 289f 5F5F5749 		.ascii	"__WINT_MAX__ 0xffffffffU\000"
 11601      4E545F4D 
 11601      41585F5F 
 11601      20307866 
 11601      66666666 
 11602              	.LASF1475:
 11603 28b8 52455345 		.ascii	"RESERVED11\000"
 11603      52564544 
 11603      313100
 11604              	.LASF776:
 11605 28c3 55415254 		.ascii	"UART_IIR_ABTO_INT (1 << 9)\000"
 11605      5F494952 
 11605      5F414254 
 11605      4F5F494E 
 11605      54202831 
 11606              	.LASF913:
 11607 28de 4144435F 		.ascii	"ADC_CR_BITACC(n) ((((n) & 0x7) << 17))\000"
 11607      43525F42 
 11607      49544143 
 11607      43286E29 
 11607      20282828 
 11608              	.LASF232:
 11609 2905 5F5F5553 		.ascii	"__USACCUM_FBIT__ 8\000"
 11609      41434355 
 11609      4D5F4642 
 11609      49545F5F 
 11609      203800
 11610              	.LASF952:
 11611 2918 4932435F 		.ascii	"I2C_STAT_CODE_BITMASK ((0xF8))\000"
 11611      53544154 
 11611      5F434F44 
 11611      455F4249 
 11611      544D4153 
 11612              	.LASF701:
 11613 2937 494F434F 		.ascii	"IOCON_FUNC2 0x2\000"
 11613      4E5F4655 
 11613      4E433220 
 11613      30783200 
 11614              	.LASF1694:
 11615 2947 4F736352 		.ascii	"OscRateIn\000"
 11615      61746549 
 11615      6E00
 11616              	.LASF316:
 11617 2951 5F5F4743 		.ascii	"__GCC_ATOMIC_TEST_AND_SET_TRUEVAL 1\000"
 11617      435F4154 
 11617      4F4D4943 
 11617      5F544553 
 11617      545F414E 
 11618              	.LASF452:
 11619 2975 494E545F 		.ascii	"INT_LEAST16_MIN (-__INT_LEAST16_MAX__ - 1)\000"
ARM GAS  /var/folders/z0/6xlwn_996xz3mwq1cgzkbq4r0000gp/T//ccjakVr1.s 			page 256


 11619      4C454153 
 11619      5431365F 
 11619      4D494E20 
 11619      282D5F5F 
 11620              	.LASF133:
 11621 29a0 5F5F464C 		.ascii	"__FLT_EPSILON__ 1.1920928955078125e-7F\000"
 11621      545F4550 
 11621      53494C4F 
 11621      4E5F5F20 
 11621      312E3139 
 11622              	.LASF1183:
 11623 29c7 5F415445 		.ascii	"_ATEXIT_SIZE 32\000"
 11623      5849545F 
 11623      53495A45 
 11623      20333200 
 11624              	.LASF1627:
 11625 29d7 63616E6F 		.ascii	"canopen_handler\000"
 11625      70656E5F 
 11625      68616E64 
 11625      6C657200 
 11626              	.LASF923:
 11627 29e7 4144435F 		.ascii	"ADC_CR_START_CTOUT15 ((2UL << 24))\000"
 11627      43525F53 
 11627      54415254 
 11627      5F43544F 
 11627      55543135 
 11628              	.LASF1575:
 11629 2a0a 43414E49 		.ascii	"CANIF2_DB2\000"
 11629      46325F44 
 11629      423200
 11630              	.LASF102:
 11631 2a15 5F5F5549 		.ascii	"__UINT8_C(c) c\000"
 11631      4E54385F 
 11631      43286329 
 11631      206300
 11632              	.LASF889:
 11633 2a24 5353505F 		.ascii	"SSP_CR0_SCR(n) ((uint32_t) ((n & 0xFF) << 8))\000"
 11633      4352305F 
 11633      53435228 
 11633      6E292028 
 11633      2875696E 
 11634              	.LASF1032:
 11635 2a52 53444F5F 		.ascii	"SDO_ABORT_NOT_EXISTS 0x06020000UL\000"
 11635      41424F52 
 11635      545F4E4F 
 11635      545F4558 
 11635      49535453 
 11636              	.LASF1505:
 11637 2a74 52455345 		.ascii	"RESET_DAC0\000"
 11637      545F4441 
 11637      433000
 11638              	.LASF1620:
 11639 2a7f 4343414E 		.ascii	"CCAN_CALLBACKS_T\000"
 11639      5F43414C 
 11639      4C424143 
 11639      4B535F54 
 11639      00
ARM GAS  /var/folders/z0/6xlwn_996xz3mwq1cgzkbq4r0000gp/T//ccjakVr1.s 			page 257


 11640              	.LASF1040:
 11641 2a90 53444F5F 		.ascii	"SDO_ABORT_DEVSTAT 0x08000022UL\000"
 11641      41424F52 
 11641      545F4445 
 11641      56535441 
 11641      54203078 
 11642              	.LASF1538:
 11643 2aaf 63616E64 		.ascii	"candApiBase\000"
 11643      41706942 
 11643      61736500 
 11644              	.LASF415:
 11645 2abb 5F5F4C45 		.ascii	"__LEAST32 \"l\"\000"
 11645      41535433 
 11645      3220226C 
 11645      2200
 11646              	.LASF739:
 11647 2ac9 46554E43 		.ascii	"FUNC5 0x5\000"
 11647      35203078 
 11647      3500
 11648              	.LASF1582:
 11649 2ad3 43414E4D 		.ascii	"CANMSGV1\000"
 11649      53475631 
 11649      00
 11650              	.LASF1583:
 11651 2adc 43414E4D 		.ascii	"CANMSGV2\000"
 11651      53475632 
 11651      00
 11652              	.LASF1286:
 11653 2ae5 5F5F7765 		.ascii	"__weak_symbol __attribute__((__weak__))\000"
 11653      616B5F73 
 11653      796D626F 
 11653      6C205F5F 
 11653      61747472 
 11654              	.LASF1247:
 11655 2b0d 5F5F666C 		.ascii	"__flexarr [0]\000"
 11655      65786172 
 11655      72205B30 
 11655      5D00
 11656              	.LASF1002:
 11657 2b1b 4932435F 		.ascii	"I2C_BYTE_RECV 0x02\000"
 11657      42595445 
 11657      5F524543 
 11657      56203078 
 11657      303200
 11658              	.LASF1211:
 11659 2b2e 5F524545 		.ascii	"_REENT_RAND48_ADD(ptr) ((ptr)->_new._reent._r48._ad"
 11659      4E545F52 
 11659      414E4434 
 11659      385F4144 
 11659      44287074 
 11660 2b61 642900   		.ascii	"d)\000"
 11661              	.LASF1695:
 11662 2b64 5F72785F 		.ascii	"_rx_buffer\000"
 11662      62756666 
 11662      657200
 11663              	.LASF1463:
 11664 2b6f 57445443 		.ascii	"WDTCLKSEL\000"
ARM GAS  /var/folders/z0/6xlwn_996xz3mwq1cgzkbq4r0000gp/T//ccjakVr1.s 			page 258


 11664      4C4B5345 
 11664      4C00
 11665              	.LASF572:
 11666 2b79 5343425F 		.ascii	"SCB_ICSR_VECTACTIVE_Msk (0x1FFUL << SCB_ICSR_VECTAC"
 11666      49435352 
 11666      5F564543 
 11666      54414354 
 11666      4956455F 
 11667 2bac 54495645 		.ascii	"TIVE_Pos)\000"
 11667      5F506F73 
 11667      2900
 11668              	.LASF1365:
 11669 2bb6 756E7369 		.ascii	"unsigned char\000"
 11669      676E6564 
 11669      20636861 
 11669      7200
 11670              	.LASF528:
 11671 2bc4 5F5F4E56 		.ascii	"__NVIC_PRIO_BITS 2\000"
 11671      49435F50 
 11671      52494F5F 
 11671      42495453 
 11671      203200
 11672              	.LASF508:
 11673 2bd7 50415241 		.ascii	"PARAM_FUNCTIONALSTATE(State) ((State == DISABLE) ||"
 11673      4D5F4655 
 11673      4E435449 
 11673      4F4E414C 
 11673      53544154 
 11674 2c0a 20285374 		.ascii	" (State == ENABLE))\000"
 11674      61746520 
 11674      3D3D2045 
 11674      4E41424C 
 11674      45292900 
 11675              	.LASF1104:
 11676 2c1e 5F535953 		.ascii	"_SYS_REENT_H_ \000"
 11676      5F524545 
 11676      4E545F48 
 11676      5F2000
 11677              	.LASF1087:
 11678 2c2d 5F564F4C 		.ascii	"_VOLATILE volatile\000"
 11678      4154494C 
 11678      4520766F 
 11678      6C617469 
 11678      6C6500
 11679              	.LASF979:
 11680 2c40 4932435F 		.ascii	"I2C_I2STAT_S_TX_SLAR_ACK ((0xA8))\000"
 11680      49325354 
 11680      41545F53 
 11680      5F54585F 
 11680      534C4152 
 11681              	.LASF981:
 11682 2c62 4932435F 		.ascii	"I2C_I2STAT_S_TX_DAT_ACK ((0xB8))\000"
 11682      49325354 
 11682      41545F53 
 11682      5F54585F 
 11682      4441545F 
 11683              	.LASF1628:
ARM GAS  /var/folders/z0/6xlwn_996xz3mwq1cgzkbq4r0000gp/T//ccjakVr1.s 			page 259


 11684 2c83 636F6E66 		.ascii	"config_calb\000"
 11684      69675F63 
 11684      616C6200 
 11685              	.LASF1207:
 11686 2c8f 5F524545 		.ascii	"_REENT_SIGNGAM(ptr) ((ptr)->_new._reent._gamma_sign"
 11686      4E545F53 
 11686      49474E47 
 11686      414D2870 
 11686      74722920 
 11687 2cc2 67616D29 		.ascii	"gam)\000"
 11687      00
 11688              	.LASF1416:
 11689 2cc7 52657365 		.ascii	"Reserved27_IRQn\000"
 11689      72766564 
 11689      32375F49 
 11689      52516E00 
 11690              	.LASF789:
 11691 2cd7 55415254 		.ascii	"UART_TX_FIFO_SIZE (16)\000"
 11691      5F54585F 
 11691      4649464F 
 11691      5F53495A 
 11691      45202831 
 11692              	.LASF125:
 11693 2cee 5F5F464C 		.ascii	"__FLT_DIG__ 6\000"
 11693      545F4449 
 11693      475F5F20 
 11693      3600
 11694              	.LASF1639:
 11695 2cfc 42495431 		.ascii	"BIT1_CAN_ERROR\000"
 11695      5F43414E 
 11695      5F455252 
 11695      4F5200
 11696              	.LASF409:
 11697 2d0b 5F5F4641 		.ascii	"__FAST8 \000"
 11697      53543820 
 11697      00
 11698              	.LASF142:
 11699 2d14 5F5F4442 		.ascii	"__DBL_MAX_EXP__ 1024\000"
 11699      4C5F4D41 
 11699      585F4558 
 11699      505F5F20 
 11699      31303234 
 11700              	.LASF1508:
 11701 2d29 4C504331 		.ascii	"LPC11CXX_IRQn\000"
 11701      31435858 
 11701      5F495251 
 11701      6E00
 11702              	.LASF647:
 11703 2d37 4C50435F 		.ascii	"LPC_I2C ((LPC_I2C_T *) LPC_I2C_BASE)\000"
 11703      49324320 
 11703      28284C50 
 11703      435F4932 
 11703      435F5420 
 11704              	.LASF883:
 11705 2d5c 5353505F 		.ascii	"SSP_CR0_FRF_TI ((uint32_t) (1 << 4))\000"
 11705      4352305F 
 11705      4652465F 
ARM GAS  /var/folders/z0/6xlwn_996xz3mwq1cgzkbq4r0000gp/T//ccjakVr1.s 			page 260


 11705      54492028 
 11705      2875696E 
 11706              	.LASF255:
 11707 2d81 5F5F554C 		.ascii	"__ULACCUM_MAX__ 0XFFFFFFFFFFFFFFFFP-32ULK\000"
 11707      41434355 
 11707      4D5F4D41 
 11707      585F5F20 
 11707      30584646 
 11708              	.LASF947:
 11709 2dab 4932435F 		.ascii	"I2C_CON_AA (1UL << 2)\000"
 11709      434F4E5F 
 11709      41412028 
 11709      31554C20 
 11709      3C3C2032 
 11710              	.LASF103:
 11711 2dc1 5F5F5549 		.ascii	"__UINT_LEAST16_MAX__ 0xffff\000"
 11711      4E545F4C 
 11711      45415354 
 11711      31365F4D 
 11711      41585F5F 
 11712              	.LASF532:
 11713 2ddd 5F5F434D 		.ascii	"__CM0_CMSIS_VERSION_SUB (0x01)\000"
 11713      305F434D 
 11713      5349535F 
 11713      56455253 
 11713      494F4E5F 
 11714              	.LASF594:
 11715 2dfc 5343425F 		.ascii	"SCB_SHCSR_SVCALLPENDED_Msk (1UL << SCB_SHCSR_SVCALL"
 11715      53484353 
 11715      525F5356 
 11715      43414C4C 
 11715      50454E44 
 11716 2e2f 50454E44 		.ascii	"PENDED_Pos)\000"
 11716      45445F50 
 11716      6F732900 
 11717              	.LASF1219:
 11718 2e3b 5F524545 		.ascii	"_REENT_STRTOK_LAST(ptr) ((ptr)->_new._reent._strtok"
 11718      4E545F53 
 11718      5452544F 
 11718      4B5F4C41 
 11718      53542870 
 11719 2e6e 5F6C6173 		.ascii	"_last)\000"
 11719      742900
 11720              	.LASF212:
 11721 2e75 5F5F554C 		.ascii	"__ULFRACT_FBIT__ 32\000"
 11721      46524143 
 11721      545F4642 
 11721      49545F5F 
 11721      20333200 
 11722              	.LASF1586:
 11723 2e89 64617461 		.ascii	"data_16\000"
 11723      5F313600 
 11724              	.LASF21:
 11725 2e91 5F5F5349 		.ascii	"__SIZEOF_SIZE_T__ 4\000"
 11725      5A454F46 
 11725      5F53495A 
 11725      455F545F 
ARM GAS  /var/folders/z0/6xlwn_996xz3mwq1cgzkbq4r0000gp/T//ccjakVr1.s 			page 261


 11725      5F203400 
 11726              	.LASF1116:
 11727 2ea5 5F505452 		.ascii	"_PTRDIFF_T_DECLARED \000"
 11727      44494646 
 11727      5F545F44 
 11727      45434C41 
 11727      52454420 
 11728              	.LASF1603:
 11729 2eba 6D73676F 		.ascii	"msgobj_rx\000"
 11729      626A5F72 
 11729      7800
 11730              	.LASF917:
 11731 2ec4 4144435F 		.ascii	"ADC_CR_CLKDIV(n) ((((n) & 0xFF) << 8))\000"
 11731      43525F43 
 11731      4C4B4449 
 11731      56286E29 
 11731      20282828 
 11732              	.LASF581:
 11733 2eeb 5343425F 		.ascii	"SCB_AIRCR_VECTCLRACTIVE_Pos 1\000"
 11733      41495243 
 11733      525F5645 
 11733      4354434C 
 11733      52414354 
 11734              	.LASF1344:
 11735 2f09 5F5F6C6F 		.ascii	"__lockable __lock_annotate(lockable)\000"
 11735      636B6162 
 11735      6C65205F 
 11735      5F6C6F63 
 11735      6B5F616E 
 11736              	.LASF1108:
 11737 2f2e 5F505452 		.ascii	"_PTRDIFF_T \000"
 11737      44494646 
 11737      5F542000 
 11738              	.LASF1631:
 11739 2f3a 4E4F5F43 		.ascii	"NO_CAN_ERROR\000"
 11739      414E5F45 
 11739      52524F52 
 11739      00
 11740              	.LASF1385:
 11741 2f47 48617264 		.ascii	"HardFault_IRQn\000"
 11741      4661756C 
 11741      745F4952 
 11741      516E00
 11742              	.LASF831:
 11743 2f56 55415254 		.ascii	"UART_MSR_DELTA_DCD (1 << 3)\000"
 11743      5F4D5352 
 11743      5F44454C 
 11743      54415F44 
 11743      43442028 
 11744              	.LASF1061:
 11745 2f72 48415645 		.ascii	"HAVE_INITFINI_ARRAY 1\000"
 11745      5F494E49 
 11745      5446494E 
 11745      495F4152 
 11745      52415920 
 11746              	.LASF571:
 11747 2f88 5343425F 		.ascii	"SCB_ICSR_VECTACTIVE_Pos 0\000"
ARM GAS  /var/folders/z0/6xlwn_996xz3mwq1cgzkbq4r0000gp/T//ccjakVr1.s 			page 262


 11747      49435352 
 11747      5F564543 
 11747      54414354 
 11747      4956455F 
 11748              	.LASF1323:
 11749 2fa2 5F5F666F 		.ascii	"__format_arg(fmtarg) __attribute__((__format_arg__ "
 11749      726D6174 
 11749      5F617267 
 11749      28666D74 
 11749      61726729 
 11750 2fd5 28666D74 		.ascii	"(fmtarg)))\000"
 11750      61726729 
 11750      292900
 11751              	.LASF823:
 11752 2fe0 55415254 		.ascii	"UART_LSR_TEMT (1 << 6)\000"
 11752      5F4C5352 
 11752      5F54454D 
 11752      54202831 
 11752      203C3C20 
 11753              	.LASF1614:
 11754 2ff7 43414E5F 		.ascii	"CAN_error\000"
 11754      6572726F 
 11754      7200
 11755              	.LASF860:
 11756 3001 55415254 		.ascii	"UART_SCICTRL_GUARDTIME(n) ((n & 0xFF) << 8)\000"
 11756      5F534349 
 11756      4354524C 
 11756      5F475541 
 11756      52445449 
 11757              	.LASF1676:
 11758 302d 43414E5F 		.ascii	"CAN_IsTxBusy\000"
 11758      49735478 
 11758      42757379 
 11758      00
 11759              	.LASF1477:
 11760 303a 4E4D4953 		.ascii	"NMISRC\000"
 11760      524300
 11761              	.LASF359:
 11762 3041 5F444546 		.ascii	"_DEFAULT_SOURCE\000"
 11762      41554C54 
 11762      5F534F55 
 11762      52434500 
 11763              	.LASF873:
 11764 3051 5F5F5757 		.ascii	"__WWDT_11XX_H_ \000"
 11764      44545F31 
 11764      3158585F 
 11764      485F2000 
 11765              	.LASF1351:
 11766 3061 5F5F6173 		.ascii	"__asserts_shared(...) __lock_annotate(assert_shared"
 11766      73657274 
 11766      735F7368 
 11766      61726564 
 11766      282E2E2E 
 11767 3094 5F6C6F63 		.ascii	"_lock(__VA_ARGS__))\000"
 11767      6B285F5F 
 11767      56415F41 
 11767      5247535F 
ARM GAS  /var/folders/z0/6xlwn_996xz3mwq1cgzkbq4r0000gp/T//ccjakVr1.s 			page 263


 11767      5F292900 
 11768              	.LASF187:
 11769 30a8 5F5F5346 		.ascii	"__SFRACT_FBIT__ 7\000"
 11769      52414354 
 11769      5F464249 
 11769      545F5F20 
 11769      3700
 11770              	.LASF1271:
 11771 30ba 5F5F4343 		.ascii	"__CC_SUPPORTS_INLINE 1\000"
 11771      5F535550 
 11771      504F5254 
 11771      535F494E 
 11771      4C494E45 
 11772              	.LASF1429:
 11773 30d1 49435052 		.ascii	"ICPR\000"
 11773      00
 11774              	.LASF261:
 11775 30d6 5F5F4C4C 		.ascii	"__LLACCUM_EPSILON__ 0x1P-31LLK\000"
 11775      41434355 
 11775      4D5F4550 
 11775      53494C4F 
 11775      4E5F5F20 
 11776              	.LASF493:
 11777 30f5 494E5431 		.ascii	"INT16_C(x) __INT16_C(x)\000"
 11777      365F4328 
 11777      7829205F 
 11777      5F494E54 
 11777      31365F43 
 11778              	.LASF802:
 11779 310d 55415254 		.ascii	"UART_LCR_PARITY_EN (1 << 3)\000"
 11779      5F4C4352 
 11779      5F504152 
 11779      4954595F 
 11779      454E2028 
 11780              	.LASF486:
 11781 3129 50545244 		.ascii	"PTRDIFF_MIN (-PTRDIFF_MAX - 1)\000"
 11781      4946465F 
 11781      4D494E20 
 11781      282D5054 
 11781      52444946 
 11782              	.LASF1647:
 11783 3148 43414E5F 		.ascii	"CAN_ERROR_T\000"
 11783      4552524F 
 11783      525F5400 
 11784              	.LASF1479:
 11785 3154 55534243 		.ascii	"USBCLKCTRL\000"
 11785      4C4B4354 
 11785      524C00
 11786              	.LASF16:
 11787 315f 5F5F5349 		.ascii	"__SIZEOF_LONG_LONG__ 8\000"
 11787      5A454F46 
 11787      5F4C4F4E 
 11787      475F4C4F 
 11787      4E475F5F 
 11788              	.LASF552:
 11789 3176 5343425F 		.ascii	"SCB_CPUID_PARTNO_Msk (0xFFFUL << SCB_CPUID_PARTNO_P"
 11789      43505549 
ARM GAS  /var/folders/z0/6xlwn_996xz3mwq1cgzkbq4r0000gp/T//ccjakVr1.s 			page 264


 11789      445F5041 
 11789      52544E4F 
 11789      5F4D736B 
 11790 31a9 6F732900 		.ascii	"os)\000"
 11791              	.LASF57:
 11792 31ad 5F5F494E 		.ascii	"__INT_FAST32_TYPE__ int\000"
 11792      545F4641 
 11792      53543332 
 11792      5F545950 
 11792      455F5F20 
 11793              	.LASF1415:
 11794 31c5 424F445F 		.ascii	"BOD_IRQn\000"
 11794      4952516E 
 11794      00
 11795              	.LASF696:
 11796 31ce 5F5F434C 		.ascii	"__CLOCK_11XX_H_ \000"
 11796      4F434B5F 
 11796      31315858 
 11796      5F485F20 
 11796      00
 11797              	.LASF1380:
 11798 31df 75696E74 		.ascii	"uint64_t\000"
 11798      36345F74 
 11798      00
 11799              	.LASF985:
 11800 31e8 4932435F 		.ascii	"I2C_I2DAT_BITMASK ((0xFF))\000"
 11800      49324441 
 11800      545F4249 
 11800      544D4153 
 11800      4B202828 
 11801              	.LASF570:
 11802 3203 5343425F 		.ascii	"SCB_ICSR_VECTPENDING_Msk (0x1FFUL << SCB_ICSR_VECTP"
 11802      49435352 
 11802      5F564543 
 11802      5450454E 
 11802      44494E47 
 11803 3236 454E4449 		.ascii	"ENDING_Pos)\000"
 11803      4E475F50 
 11803      6F732900 
 11804              	.LASF355:
 11805 3242 5F5F4E45 		.ascii	"__NEWLIB_MINOR__ 4\000"
 11805      574C4942 
 11805      5F4D494E 
 11805      4F525F5F 
 11805      203400
 11806              	.LASF726:
 11807 3255 4D445F41 		.ascii	"MD_ADMODE (0x0 << 7)\000"
 11807      444D4F44 
 11807      45202830 
 11807      7830203C 
 11807      3C203729 
 11808              	.LASF1342:
 11809 326a 5F5F6461 		.ascii	"__datatype_type_tag(kind,type) \000"
 11809      74617479 
 11809      70655F74 
 11809      7970655F 
 11809      74616728 
ARM GAS  /var/folders/z0/6xlwn_996xz3mwq1cgzkbq4r0000gp/T//ccjakVr1.s 			page 265


 11810              	.LASF1489:
 11811 328a 5044534C 		.ascii	"PDSLEEPCFG\000"
 11811      45455043 
 11811      464700
 11812              	.LASF360:
 11813 3295 5F444546 		.ascii	"_DEFAULT_SOURCE 1\000"
 11813      41554C54 
 11813      5F534F55 
 11813      52434520 
 11813      3100
 11814              	.LASF1144:
 11815 32a7 5F574348 		.ascii	"_WCHAR_T_DEFINED_ \000"
 11815      41525F54 
 11815      5F444546 
 11815      494E4544 
 11815      5F2000
 11816              	.LASF1526:
 11817 32ba 53595343 		.ascii	"SYSCTL_CLOCK_IOCON\000"
 11817      544C5F43 
 11817      4C4F434B 
 11817      5F494F43 
 11817      4F4E00
 11818              	.LASF1248:
 11819 32cd 5F5F626F 		.ascii	"__bounded \000"
 11819      756E6465 
 11819      642000
 11820              	.LASF33:
 11821 32d8 5F5F5749 		.ascii	"__WINT_TYPE__ unsigned int\000"
 11821      4E545F54 
 11821      5950455F 
 11821      5F20756E 
 11821      7369676E 
 11822              	.LASF651:
 11823 32f3 4C50435F 		.ascii	"LPC_TIMER16_1 ((LPC_TIMER_T *) LPC_TIMER16_1_BASE)\000"
 11823      54494D45 
 11823      5231365F 
 11823      31202828 
 11823      4C50435F 
 11824              	.LASF821:
 11825 3326 55415254 		.ascii	"UART_LSR_BI (1 << 4)\000"
 11825      5F4C5352 
 11825      5F424920 
 11825      2831203C 
 11825      3C203429 
 11826              	.LASF381:
 11827 333b 5F5F5F69 		.ascii	"___int_least8_t_defined 1\000"
 11827      6E745F6C 
 11827      65617374 
 11827      385F745F 
 11827      64656669 
 11828              	.LASF1587:
 11829 3355 64617461 		.ascii	"data_32\000"
 11829      5F333200 
 11830              	.LASF5:
 11831 335d 5F5F5645 		.ascii	"__VERSION__ \"5.4.1 20160919 (release) [ARM/embedde"
 11831      5253494F 
 11831      4E5F5F20 
ARM GAS  /var/folders/z0/6xlwn_996xz3mwq1cgzkbq4r0000gp/T//ccjakVr1.s 			page 266


 11831      22352E34 
 11831      2E312032 
 11832 338f 642D352D 		.ascii	"d-5-branch revision 240496]\"\000"
 11832      6272616E 
 11832      63682072 
 11832      65766973 
 11832      696F6E20 
 11833              	.LASF1668:
 11834 33ac 7175616E 		.ascii	"quanta\000"
 11834      746100
 11835              	.LASF1062:
 11836 33b3 5F415445 		.ascii	"_ATEXIT_DYNAMIC_ALLOC 1\000"
 11836      5849545F 
 11836      44594E41 
 11836      4D49435F 
 11836      414C4C4F 
 11837              	.LASF980:
 11838 33cb 4932435F 		.ascii	"I2C_I2STAT_S_TX_ARB_LOST_M_SLA ((0xB0))\000"
 11838      49325354 
 11838      41545F53 
 11838      5F54585F 
 11838      4152425F 
 11839              	.LASF86:
 11840 33f3 5F5F494E 		.ascii	"__INT16_MAX__ 0x7fff\000"
 11840      5431365F 
 11840      4D41585F 
 11840      5F203078 
 11840      37666666 
 11841              	.LASF1604:
 11842 3408 6D73676F 		.ascii	"msgobj_tx\000"
 11842      626A5F74 
 11842      7800
 11843              	.LASF256:
 11844 3412 5F5F554C 		.ascii	"__ULACCUM_EPSILON__ 0x1P-32ULK\000"
 11844      41434355 
 11844      4D5F4550 
 11844      53494C4F 
 11844      4E5F5F20 
 11845              	.LASF124:
 11846 3431 5F5F464C 		.ascii	"__FLT_MANT_DIG__ 24\000"
 11846      545F4D41 
 11846      4E545F44 
 11846      49475F5F 
 11846      20323400 
 11847              	.LASF901:
 11848 3445 5353505F 		.ascii	"SSP_CPHA_FIRST SSP_CR0_CPHA_FIRST\000"
 11848      43504841 
 11848      5F464952 
 11848      53542053 
 11848      53505F43 
 11849              	.LASF1038:
 11850 3467 53444F5F 		.ascii	"SDO_ABORT_TRANSFER 0x08000020UL\000"
 11850      41424F52 
 11850      545F5452 
 11850      414E5346 
 11850      45522030 
 11851              	.LASF1350:
ARM GAS  /var/folders/z0/6xlwn_996xz3mwq1cgzkbq4r0000gp/T//ccjakVr1.s 			page 267


 11852 3487 5F5F6173 		.ascii	"__asserts_exclusive(...) __lock_annotate(assert_exc"
 11852      73657274 
 11852      735F6578 
 11852      636C7573 
 11852      69766528 
 11853 34ba 6C757369 		.ascii	"lusive_lock(__VA_ARGS__))\000"
 11853      76655F6C 
 11853      6F636B28 
 11853      5F5F5641 
 11853      5F415247 
 11854              	.LASF736:
 11855 34d4 46554E43 		.ascii	"FUNC2 0x2\000"
 11855      32203078 
 11855      3200
 11856              	.LASF796:
 11857 34de 55415254 		.ascii	"UART_LCR_WLEN6 (1 << 0)\000"
 11857      5F4C4352 
 11857      5F574C45 
 11857      4E362028 
 11857      31203C3C 
 11858              	.LASF252:
 11859 34f6 5F5F554C 		.ascii	"__ULACCUM_FBIT__ 32\000"
 11859      41434355 
 11859      4D5F4642 
 11859      49545F5F 
 11859      20333200 
 11860              	.LASF573:
 11861 350a 5343425F 		.ascii	"SCB_AIRCR_VECTKEY_Pos 16\000"
 11861      41495243 
 11861      525F5645 
 11861      43544B45 
 11861      595F506F 
 11862              	.LASF440:
 11863 3523 494E5450 		.ascii	"INTPTR_MIN (-__INTPTR_MAX__ - 1)\000"
 11863      54525F4D 
 11863      494E2028 
 11863      2D5F5F49 
 11863      4E545054 
 11864              	.LASF944:
 11865 3544 4932435F 		.ascii	"I2C_I2CONCLR_STOC ((1 << 4))\000"
 11865      4932434F 
 11865      4E434C52 
 11865      5F53544F 
 11865      43202828 
 11866              	.LASF968:
 11867 3561 4932435F 		.ascii	"I2C_I2STAT_M_RX_DAT_ACK ((0x50))\000"
 11867      49325354 
 11867      41545F4D 
 11867      5F52585F 
 11867      4441545F 
 11868              	.LASF1685:
 11869 3582 43414E5F 		.ascii	"CAN_Transmit\000"
 11869      5472616E 
 11869      736D6974 
 11869      00
 11870              	.LASF882:
 11871 358f 5353505F 		.ascii	"SSP_CR0_FRF_SPI ((uint32_t) (0 << 4))\000"
ARM GAS  /var/folders/z0/6xlwn_996xz3mwq1cgzkbq4r0000gp/T//ccjakVr1.s 			page 268


 11871      4352305F 
 11871      4652465F 
 11871      53504920 
 11871      28287569 
 11872              	.LASF325:
 11873 35b5 5F5F4152 		.ascii	"__ARM_ARCH_PROFILE 77\000"
 11873      4D5F4152 
 11873      43485F50 
 11873      524F4649 
 11873      4C452037 
 11874              	.LASF1269:
 11875 35cb 5F5F474E 		.ascii	"__GNUCLIKE_MATH_BUILTIN_RELOPS \000"
 11875      55434C49 
 11875      4B455F4D 
 11875      4154485F 
 11875      4255494C 
 11876              	.LASF609:
 11877 35eb 53797354 		.ascii	"SysTick_CALIB_SKEW_Pos 30\000"
 11877      69636B5F 
 11877      43414C49 
 11877      425F534B 
 11877      45575F50 
 11878              	.LASF768:
 11879 3605 55415254 		.ascii	"UART_IER_ABEOINT (1 << 8)\000"
 11879      5F494552 
 11879      5F414245 
 11879      4F494E54 
 11879      20283120 
 11880              	.LASF522:
 11881 361f 494E4C49 		.ascii	"INLINE inline\000"
 11881      4E452069 
 11881      6E6C696E 
 11881      6500
 11882              	.LASF422:
 11883 362d 5F55494E 		.ascii	"_UINT16_T_DECLARED \000"
 11883      5431365F 
 11883      545F4445 
 11883      434C4152 
 11883      45442000 
 11884              	.LASF253:
 11885 3641 5F5F554C 		.ascii	"__ULACCUM_IBIT__ 32\000"
 11885      41434355 
 11885      4D5F4942 
 11885      49545F5F 
 11885      20333200 
 11886              	.LASF805:
 11887 3655 55415254 		.ascii	"UART_LCR_PARITY_EVEN (1 << 4)\000"
 11887      5F4C4352 
 11887      5F504152 
 11887      4954595F 
 11887      4556454E 
 11888              	.LASF1051:
 11889 3673 43414E5F 		.ascii	"CAN_SDOSEG_SEGMENT 0\000"
 11889      53444F53 
 11889      45475F53 
 11889      45474D45 
 11889      4E542030 
ARM GAS  /var/folders/z0/6xlwn_996xz3mwq1cgzkbq4r0000gp/T//ccjakVr1.s 			page 269


 11890              	.LASF676:
 11891 3688 53595343 		.ascii	"SYSCTL_RST_SYSRST (1 << 4)\000"
 11891      544C5F52 
 11891      53545F53 
 11891      59535253 
 11891      54202831 
 11892              	.LASF1146:
 11893 36a3 5F574348 		.ascii	"_WCHAR_T_H \000"
 11893      41525F54 
 11893      5F482000 
 11894              	.LASF169:
 11895 36af 5F5F4445 		.ascii	"__DEC32_MIN__ 1E-95DF\000"
 11895      4333325F 
 11895      4D494E5F 
 11895      5F203145 
 11895      2D393544 
 11896              	.LASF684:
 11897 36c5 53595343 		.ascii	"SYSCTL_SLPWAKE_ADC_PD (1 << 4)\000"
 11897      544C5F53 
 11897      4C505741 
 11897      4B455F41 
 11897      44435F50 
 11898              	.LASF27:
 11899 36e4 5F5F4259 		.ascii	"__BYTE_ORDER__ __ORDER_LITTLE_ENDIAN__\000"
 11899      54455F4F 
 11899      52444552 
 11899      5F5F205F 
 11899      5F4F5244 
 11900              	.LASF569:
 11901 370b 5343425F 		.ascii	"SCB_ICSR_VECTPENDING_Pos 12\000"
 11901      49435352 
 11901      5F564543 
 11901      5450454E 
 11901      44494E47 
 11902              	.LASF893:
 11903 3727 5353505F 		.ascii	"SSP_CR1_SLAVE_EN ((uint32_t) (1 << 2))\000"
 11903      4352315F 
 11903      534C4156 
 11903      455F454E 
 11903      20282875 
 11904              	.LASF108:
 11905 374e 5F5F5549 		.ascii	"__UINT64_C(c) c ## ULL\000"
 11905      4E543634 
 11905      5F432863 
 11905      29206320 
 11905      23232055 
 11906              	.LASF758:
 11907 3765 55415254 		.ascii	"UART_RBR_MASKBIT (0xFF)\000"
 11907      5F524252 
 11907      5F4D4153 
 11907      4B424954 
 11907      20283078 
 11908              	.LASF198:
 11909 377d 5F5F4652 		.ascii	"__FRACT_IBIT__ 0\000"
 11909      4143545F 
 11909      49424954 
 11909      5F5F2030 
ARM GAS  /var/folders/z0/6xlwn_996xz3mwq1cgzkbq4r0000gp/T//ccjakVr1.s 			page 270


 11909      00
 11910              	.LASF123:
 11911 378e 5F5F464C 		.ascii	"__FLT_RADIX__ 2\000"
 11911      545F5241 
 11911      4449585F 
 11911      5F203200 
 11912              	.LASF558:
 11913 379e 5343425F 		.ascii	"SCB_ICSR_PENDSVSET_Msk (1UL << SCB_ICSR_PENDSVSET_P"
 11913      49435352 
 11913      5F50454E 
 11913      44535653 
 11913      45545F4D 
 11914 37d1 6F732900 		.ascii	"os)\000"
 11915              	.LASF297:
 11916 37d5 5F5F5553 		.ascii	"__USA_FBIT__ 16\000"
 11916      415F4642 
 11916      49545F5F 
 11916      20313600 
 11917              	.LASF401:
 11918 37e5 696E7420 		.ascii	"int +2\000"
 11918      2B3200
 11919              	.LASF1576:
 11920 37ec 43414E54 		.ascii	"CANTXREQ1\000"
 11920      58524551 
 11920      3100
 11921              	.LASF1577:
 11922 37f6 43414E54 		.ascii	"CANTXREQ2\000"
 11922      58524551 
 11922      3200
 11923              	.LASF1671:
 11924 3800 73656732 		.ascii	"seg2\000"
 11924      00
 11925              	.LASF1643:
 11926 3805 554E5245 		.ascii	"UNRECOGNIZED_MSGOBJ_CAN_ERROR\000"
 11926      434F474E 
 11926      495A4544 
 11926      5F4D5347 
 11926      4F424A5F 
 11927              	.LASF1046:
 11928 3823 4F445F53 		.ascii	"OD_SEG_WO 0x50\000"
 11928      45475F57 
 11928      4F203078 
 11928      353000
 11929              	.LASF1033:
 11930 3832 53444F5F 		.ascii	"SDO_ABORT_PARAINCOMP 0x06040043UL\000"
 11930      41424F52 
 11930      545F5041 
 11930      5241494E 
 11930      434F4D50 
 11931              	.LASF760:
 11932 3854 55415254 		.ascii	"UART_DLL_MASKBIT (0xFF)\000"
 11932      5F444C4C 
 11932      5F4D4153 
 11932      4B424954 
 11932      20283078 
 11933              	.LASF578:
 11934 386c 5343425F 		.ascii	"SCB_AIRCR_ENDIANESS_Msk (1UL << SCB_AIRCR_ENDIANESS"
ARM GAS  /var/folders/z0/6xlwn_996xz3mwq1cgzkbq4r0000gp/T//ccjakVr1.s 			page 271


 11934      41495243 
 11934      525F454E 
 11934      4449414E 
 11934      4553535F 
 11935 389f 5F506F73 		.ascii	"_Pos)\000"
 11935      2900
 11936              	.LASF779:
 11937 38a5 55415254 		.ascii	"UART_IIR_INTID_RLS (3 << 1)\000"
 11937      5F494952 
 11937      5F494E54 
 11937      49445F52 
 11937      4C532028 
 11938              	.LASF683:
 11939 38c1 53595343 		.ascii	"SYSCTL_SLPWAKE_BOD_PD (1 << 3)\000"
 11939      544C5F53 
 11939      4C505741 
 11939      4B455F42 
 11939      4F445F50 
 11940              	.LASF271:
 11941 38e0 5F5F5351 		.ascii	"__SQ_FBIT__ 31\000"
 11941      5F464249 
 11941      545F5F20 
 11941      333100
 11942              	.LASF1623:
 11943 38ef 636F6E66 		.ascii	"config_rxmsgobj\000"
 11943      69675F72 
 11943      786D7367 
 11943      6F626A00 
 11944              	.LASF81:
 11945 38ff 5F5F5549 		.ascii	"__UINTMAX_MAX__ 0xffffffffffffffffULL\000"
 11945      4E544D41 
 11945      585F4D41 
 11945      585F5F20 
 11945      30786666 
 11946              	.LASF1547:
 11947 3925 43414E49 		.ascii	"CANIF2_CMDMSK_W\000"
 11947      46325F43 
 11947      4D444D53 
 11947      4B5F5700 
 11948              	.LASF1403:
 11949 3935 53535031 		.ascii	"SSP1_IRQn\000"
 11949      5F495251 
 11949      6E00
 11950              	.LASF298:
 11951 393f 5F5F5553 		.ascii	"__USA_IBIT__ 16\000"
 11951      415F4942 
 11951      49545F5F 
 11951      20313600 
 11952              	.LASF241:
 11953 394f 5F5F4143 		.ascii	"__ACCUM_EPSILON__ 0x1P-15K\000"
 11953      43554D5F 
 11953      45505349 
 11953      4C4F4E5F 
 11953      5F203078 
 11954              	.LASF306:
 11955 396a 5F5F4348 		.ascii	"__CHAR_UNSIGNED__ 1\000"
 11955      41525F55 
ARM GAS  /var/folders/z0/6xlwn_996xz3mwq1cgzkbq4r0000gp/T//ccjakVr1.s 			page 272


 11955      4E534947 
 11955      4E45445F 
 11955      5F203100 
 11956              	.LASF1015:
 11957 397e 43414E5F 		.ascii	"CAN_ERROR_BOFF 0x00000004UL\000"
 11957      4552524F 
 11957      525F424F 
 11957      46462030 
 11957      78303030 
 11958              	.LASF250:
 11959 399a 5F5F4C41 		.ascii	"__LACCUM_MAX__ 0X7FFFFFFFFFFFFFFFP-31LK\000"
 11959      4343554D 
 11959      5F4D4158 
 11959      5F5F2030 
 11959      58374646 
 11960              	.LASF1651:
 11961 39c2 52696E67 		.ascii	"RingBuffer_Flush\000"
 11961      42756666 
 11961      65725F46 
 11961      6C757368 
 11961      00
 11962              	.LASF1180:
 11963 39d3 5F54494D 		.ascii	"_TIMER_T_ unsigned long\000"
 11963      45525F54 
 11963      5F20756E 
 11963      7369676E 
 11963      6564206C 
 11964              	.LASF172:
 11965 39eb 5F5F4445 		.ascii	"__DEC32_SUBNORMAL_MIN__ 0.000001E-95DF\000"
 11965      4333325F 
 11965      5355424E 
 11965      4F524D41 
 11965      4C5F4D49 
 11966              	.LASF1398:
 11967 3a12 50494F30 		.ascii	"PIO0_9_IRQn\000"
 11967      5F395F49 
 11967      52516E00 
 11968              	.LASF615:
 11969 3a1e 4E564943 		.ascii	"NVIC_BASE (SCS_BASE + 0x0100UL)\000"
 11969      5F424153 
 11969      45202853 
 11969      43535F42 
 11969      41534520 
 11970              	.LASF420:
 11971 3a3e 5F5F696E 		.ascii	"__int8_t_defined 1\000"
 11971      74385F74 
 11971      5F646566 
 11971      696E6564 
 11971      203100
 11972              	.LASF201:
 11973 3a51 5F5F4652 		.ascii	"__FRACT_EPSILON__ 0x1P-15R\000"
 11973      4143545F 
 11973      45505349 
 11973      4C4F4E5F 
 11973      5F203078 
 11974              	.LASF356:
 11975 3a6c 5F5F4E45 		.ascii	"__NEWLIB_PATCHLEVEL__ 0\000"
ARM GAS  /var/folders/z0/6xlwn_996xz3mwq1cgzkbq4r0000gp/T//ccjakVr1.s 			page 273


 11975      574C4942 
 11975      5F504154 
 11975      43484C45 
 11975      56454C5F 
 11976              	.LASF565:
 11977 3a84 5343425F 		.ascii	"SCB_ICSR_ISRPREEMPT_Pos 23\000"
 11977      49435352 
 11977      5F495352 
 11977      50524545 
 11977      4D50545F 
 11978              	.LASF1170:
 11979 3a9f 5F5F6C6F 		.ascii	"__lock_release(lock) (_CAST_VOID 0)\000"
 11979      636B5F72 
 11979      656C6561 
 11979      7365286C 
 11979      6F636B29 
 11980              	.LASF424:
 11981 3ac3 5F494E54 		.ascii	"_INT32_T_DECLARED \000"
 11981      33325F54 
 11981      5F444543 
 11981      4C415245 
 11981      442000
 11982              	.LASF989:
 11983 3ad6 4932435F 		.ascii	"I2C_I2MMCTRL_MATCH_ALL ((1 << 2))\000"
 11983      49324D4D 
 11983      4354524C 
 11983      5F4D4154 
 11983      43485F41 
 11984              	.LASF754:
 11985 3af8 5F5F5541 		.ascii	"__UART_11XX_H_ \000"
 11985      52545F31 
 11985      3158585F 
 11985      485F2000 
 11986              	.LASF468:
 11987 3b08 494E545F 		.ascii	"INT_FAST8_MAX (__INT_FAST8_MAX__)\000"
 11987      46415354 
 11987      385F4D41 
 11987      5820285F 
 11987      5F494E54 
 11988              	.LASF1619:
 11989 3b2a 43414E4F 		.ascii	"CANOPEN_sdo_req\000"
 11989      50454E5F 
 11989      73646F5F 
 11989      72657100 
 11990              	.LASF555:
 11991 3b3a 5343425F 		.ascii	"SCB_ICSR_NMIPENDSET_Pos 31\000"
 11991      49435352 
 11991      5F4E4D49 
 11991      50454E44 
 11991      5345545F 
 11992              	.LASF1435:
 11993 3b55 50524553 		.ascii	"PRESETCTRL\000"
 11993      45544354 
 11993      524C00
 11994              	.LASF1515:
 11995 3b60 53595343 		.ascii	"SYSCTL_CLOCK_I2C\000"
 11995      544C5F43 
ARM GAS  /var/folders/z0/6xlwn_996xz3mwq1cgzkbq4r0000gp/T//ccjakVr1.s 			page 274


 11995      4C4F434B 
 11995      5F493243 
 11995      00
 11996              	.LASF1089:
 11997 3b71 5F444F54 		.ascii	"_DOTS , ...\000"
 11997      53202C20 
 11997      2E2E2E00 
 11998              	.LASF1097:
 11999 3b7d 5F434153 		.ascii	"_CAST_VOID (void)\000"
 11999      545F564F 
 11999      49442028 
 11999      766F6964 
 11999      2900
 12000              	.LASF751:
 12001 3b8f 54494D45 		.ascii	"TIMER_CAP_RISING(n) (_BIT(((n) * 3)))\000"
 12001      525F4341 
 12001      505F5249 
 12001      53494E47 
 12001      286E2920 
 12002              	.LASF1052:
 12003 3bb5 43414E5F 		.ascii	"CAN_SDOSEG_OPEN 1\000"
 12003      53444F53 
 12003      45475F4F 
 12003      50454E20 
 12003      3100
 12004              	.LASF283:
 12005 3bc7 5F5F5544 		.ascii	"__UDQ_FBIT__ 64\000"
 12005      515F4642 
 12005      49545F5F 
 12005      20363400 
 12006              	.LASF436:
 12007 3bd7 5F5F696E 		.ascii	"__int_fast8_t_defined 1\000"
 12007      745F6661 
 12007      7374385F 
 12007      745F6465 
 12007      66696E65 
 12008              	.LASF188:
 12009 3bef 5F5F5346 		.ascii	"__SFRACT_IBIT__ 0\000"
 12009      52414354 
 12009      5F494249 
 12009      545F5F20 
 12009      3000
 12010              	.LASF410:
 12011 3c01 5F5F4641 		.ascii	"__FAST16 \000"
 12011      53543136 
 12011      2000
 12012              	.LASF467:
 12013 3c0b 494E545F 		.ascii	"INT_FAST8_MIN (-__INT_FAST8_MAX__ - 1)\000"
 12013      46415354 
 12013      385F4D49 
 12013      4E20282D 
 12013      5F5F494E 
 12014              	.LASF1588:
 12015 3c32 64617461 		.ascii	"data_64\000"
 12015      5F363400 
 12016              	.LASF380:
 12017 3c3a 5F5F5F69 		.ascii	"___int64_t_defined 1\000"
ARM GAS  /var/folders/z0/6xlwn_996xz3mwq1cgzkbq4r0000gp/T//ccjakVr1.s 			page 275


 12017      6E743634 
 12017      5F745F64 
 12017      6566696E 
 12017      65642031 
 12018              	.LASF1397:
 12019 3c4f 50494F30 		.ascii	"PIO0_8_IRQn\000"
 12019      5F385F49 
 12019      52516E00 
 12020              	.LASF1268:
 12021 3c5b 5F5F474E 		.ascii	"__GNUCLIKE_BUILTIN_NEXT_ARG 1\000"
 12021      55434C49 
 12021      4B455F42 
 12021      55494C54 
 12021      494E5F4E 
 12022              	.LASF428:
 12023 3c79 5F55494E 		.ascii	"_UINT64_T_DECLARED \000"
 12023      5436345F 
 12023      545F4445 
 12023      434C4152 
 12023      45442000 
 12024              	.LASF1692:
 12025 3c8d 63616E5F 		.ascii	"can_error_info\000"
 12025      6572726F 
 12025      725F696E 
 12025      666F00
 12026              	.LASF697:
 12027 3c9c 53595343 		.ascii	"SYSCTL_IRC_FREQ (12000000)\000"
 12027      544C5F49 
 12027      52435F46 
 12027      52455120 
 12027      28313230 
 12028              	.LASF310:
 12029 3cb7 5F5F4743 		.ascii	"__GCC_ATOMIC_CHAR32_T_LOCK_FREE 1\000"
 12029      435F4154 
 12029      4F4D4943 
 12029      5F434841 
 12029      5233325F 
 12030              	.LASF40:
 12031 3cd9 5F5F494E 		.ascii	"__INT16_TYPE__ short int\000"
 12031      5431365F 
 12031      54595045 
 12031      5F5F2073 
 12031      686F7274 
 12032              	.LASF1482:
 12033 3cf2 53544152 		.ascii	"STARTAPRP0\000"
 12033      54415052 
 12033      503000
 12034              	.LASF437:
 12035 3cfd 5F5F696E 		.ascii	"__int_fast16_t_defined 1\000"
 12035      745F6661 
 12035      73743136 
 12035      5F745F64 
 12035      6566696E 
 12036              	.LASF506:
 12037 3d16 5F5F626F 		.ascii	"__bool_true_false_are_defined 1\000"
 12037      6F6C5F74 
 12037      7275655F 
ARM GAS  /var/folders/z0/6xlwn_996xz3mwq1cgzkbq4r0000gp/T//ccjakVr1.s 			page 276


 12037      66616C73 
 12037      655F6172 
 12038              	.LASF1199:
 12039 3d36 5F524545 		.ascii	"_REENT_INIT_PTR_ZEROED(var) { (var)->_stdin = &(var"
 12039      4E545F49 
 12039      4E49545F 
 12039      5054525F 
 12039      5A45524F 
 12040 3d69 292D3E5F 		.ascii	")->__sf[0]; (var)->_stdout = &(var)->__sf[1]; (var)"
 12040      5F73665B 
 12040      305D3B20 
 12040      28766172 
 12040      292D3E5F 
 12041 3d9c 2D3E5F73 		.ascii	"->_stderr = &(var)->__sf[2]; (var)->_new._reent._ra"
 12041      74646572 
 12041      72203D20 
 12041      26287661 
 12041      72292D3E 
 12042 3dcf 6E645F6E 		.ascii	"nd_next = 1; (var)->_new._reent._r48._seed[0] = _RA"
 12042      65787420 
 12042      3D20313B 
 12042      20287661 
 12042      72292D3E 
 12043 3e02 4E443438 		.ascii	"ND48_SEED_0; (var)->_new._reent._r48._seed[1] = _RA"
 12043      5F534545 
 12043      445F303B 
 12043      20287661 
 12043      72292D3E 
 12044 3e35 4E443438 		.ascii	"ND48_SEED_1; (var)->_new._reent._r48._seed[2] = _RA"
 12044      5F534545 
 12044      445F313B 
 12044      20287661 
 12044      72292D3E 
 12045 3e68 4E443438 		.ascii	"ND48_SEED_2; (var)->_new._reent._r48._mult[0] = _RA"
 12045      5F534545 
 12045      445F323B 
 12045      20287661 
 12045      72292D3E 
 12046 3e9b 4E443438 		.ascii	"ND48_MULT_0; (var)->_new._reent._r48._mult[1] = _RA"
 12046      5F4D554C 
 12046      545F303B 
 12046      20287661 
 12046      72292D3E 
 12047 3ece 4E443438 		.ascii	"ND48_MULT_1; (var)->_new._reent._r48._mult[2] = _RA"
 12047      5F4D554C 
 12047      545F313B 
 12047      20287661 
 12047      72292D3E 
 12048 3f01 4E443438 		.ascii	"ND48_MULT_2; (var)->_new._reent._r48._add = _RAND48"
 12048      5F4D554C 
 12048      545F323B 
 12048      20287661 
 12048      72292D3E 
 12049 3f34 5F414444 		.ascii	"_ADD; }\000"
 12049      3B207D00 
 12050              	.LASF199:
 12051 3f3c 5F5F4652 		.ascii	"__FRACT_MIN__ (-0.5R-0.5R)\000"
ARM GAS  /var/folders/z0/6xlwn_996xz3mwq1cgzkbq4r0000gp/T//ccjakVr1.s 			page 277


 12051      4143545F 
 12051      4D494E5F 
 12051      5F20282D 
 12051      302E3552 
 12052              	.LASF1270:
 12053 3f57 5F5F474E 		.ascii	"__GNUCLIKE_BUILTIN_MEMCPY 1\000"
 12053      55434C49 
 12053      4B455F42 
 12053      55494C54 
 12053      494E5F4D 
 12054              	.LASF1483:
 12055 3f73 53544152 		.ascii	"STARTERP0\000"
 12055      54455250 
 12055      3000
 12056              	.LASF1131:
 12057 3f7d 5F5F5F69 		.ascii	"___int_size_t_h \000"
 12057      6E745F73 
 12057      697A655F 
 12057      745F6820 
 12057      00
 12058              	.LASF1332:
 12059 3f8e 5F5F7379 		.ascii	"__sym_default(sym,impl,verid) __asm__(\".symver \" "
 12059      6D5F6465 
 12059      6661756C 
 12059      74287379 
 12059      6D2C696D 
 12060 3fbf 23696D70 		.ascii	"#impl \", \" #sym \"@@\" #verid)\000"
 12060      6C20222C 
 12060      20222023 
 12060      73796D20 
 12060      22404022 
 12061              	.LASF932:
 12062 3fdc 5245545F 		.ascii	"RET_SLAVE_TX 6\000"
 12062      534C4156 
 12062      455F5458 
 12062      203600
 12063              	.LASF702:
 12064 3feb 494F434F 		.ascii	"IOCON_FUNC3 0x3\000"
 12064      4E5F4655 
 12064      4E433320 
 12064      30783300 
 12065              	.LASF1127:
 12066 3ffb 5F53495A 		.ascii	"_SIZE_T_DEFINED_ \000"
 12066      455F545F 
 12066      44454649 
 12066      4E45445F 
 12066      2000
 12067              	.LASF314:
 12068 400d 5F5F4743 		.ascii	"__GCC_ATOMIC_LONG_LOCK_FREE 1\000"
 12068      435F4154 
 12068      4F4D4943 
 12068      5F4C4F4E 
 12068      475F4C4F 
 12069              	.LASF1023:
 12070 402b 43414E5F 		.ascii	"CAN_MSGOBJ_EXT 0x20000000UL\000"
 12070      4D53474F 
 12070      424A5F45 
ARM GAS  /var/folders/z0/6xlwn_996xz3mwq1cgzkbq4r0000gp/T//ccjakVr1.s 			page 278


 12070      58542030 
 12070      78323030 
 12071              	.LASF333:
 12072 4047 5F5F534F 		.ascii	"__SOFTFP__ 1\000"
 12072      46544650 
 12072      5F5F2031 
 12072      00
 12073              	.LASF438:
 12074 4054 5F5F696E 		.ascii	"__int_fast32_t_defined 1\000"
 12074      745F6661 
 12074      73743332 
 12074      5F745F64 
 12074      6566696E 
 12075              	.LASF339:
 12076 406d 5F5F4758 		.ascii	"__GXX_TYPEINFO_EQUALITY_INLINE 0\000"
 12076      585F5459 
 12076      5045494E 
 12076      464F5F45 
 12076      5155414C 
 12077              	.LASF1461:
 12078 408e 55534243 		.ascii	"USBCLKDIV\000"
 12078      4C4B4449 
 12078      5600
 12079              	.LASF530:
 12080 4098 5F5F434F 		.ascii	"__CORE_CM0_H_GENERIC \000"
 12080      52455F43 
 12080      4D305F48 
 12080      5F47454E 
 12080      45524943 
 12081              	.LASF383:
 12082 40ae 5F5F5F69 		.ascii	"___int_least32_t_defined 1\000"
 12082      6E745F6C 
 12082      65617374 
 12082      33325F74 
 12082      5F646566 
 12083              	.LASF1521:
 12084 40c9 53595343 		.ascii	"SYSCTL_CLOCK_SSP0\000"
 12084      544C5F43 
 12084      4C4F434B 
 12084      5F535350 
 12084      3000
 12085              	.LASF279:
 12086 40db 5F5F5548 		.ascii	"__UHQ_FBIT__ 16\000"
 12086      515F4642 
 12086      49545F5F 
 12086      20313600 
 12087              	.LASF1377:
 12088 40eb 75696E74 		.ascii	"uint8_t\000"
 12088      385F7400 
 12089              	.LASF1396:
 12090 40f3 50494F30 		.ascii	"PIO0_7_IRQn\000"
 12090      5F375F49 
 12090      52516E00 
 12091              	.LASF480:
 12092 40ff 494E544D 		.ascii	"INTMAX_MIN (-INTMAX_MAX - 1)\000"
 12092      41585F4D 
 12092      494E2028 
ARM GAS  /var/folders/z0/6xlwn_996xz3mwq1cgzkbq4r0000gp/T//ccjakVr1.s 			page 279


 12092      2D494E54 
 12092      4D41585F 
 12093              	.LASF1360:
 12094 411c 5F535953 		.ascii	"_SYS__LOCALE_H \000"
 12094      5F5F4C4F 
 12094      43414C45 
 12094      5F482000 
 12095              	.LASF626:
 12096 412c 4C50435F 		.ascii	"LPC_TIMER16_0_BASE 0x4000C000\000"
 12096      54494D45 
 12096      5231365F 
 12096      305F4241 
 12096      53452030 
 12097              	.LASF182:
 12098 414a 5F5F4445 		.ascii	"__DEC128_MAX_EXP__ 6145\000"
 12098      43313238 
 12098      5F4D4158 
 12098      5F455850 
 12098      5F5F2036 
 12099              	.LASF1665:
 12100 4162 62617564 		.ascii	"baud_rate\000"
 12100      5F726174 
 12100      6500
 12101              	.LASF1438:
 12102 416c 55534250 		.ascii	"USBPLLCTRL\000"
 12102      4C4C4354 
 12102      524C00
 12103              	.LASF817:
 12104 4177 55415254 		.ascii	"UART_LSR_RDR (1 << 0)\000"
 12104      5F4C5352 
 12104      5F524452 
 12104      20283120 
 12104      3C3C2030 
 12105              	.LASF1637:
 12106 418d 464F524D 		.ascii	"FORM_CAN_ERROR\000"
 12106      5F43414E 
 12106      5F455252 
 12106      4F5200
 12107              	.LASF374:
 12108 419c 5F5F5356 		.ascii	"__SVID_VISIBLE 1\000"
 12108      49445F56 
 12108      49534942 
 12108      4C452031 
 12108      00
 12109              	.LASF74:
 12110 41ad 5F5F5743 		.ascii	"__WCHAR_MIN__ 0U\000"
 12110      4841525F 
 12110      4D494E5F 
 12110      5F203055 
 12110      00
 12111              	.LASF1225:
 12112 41be 5F524545 		.ascii	"_REENT_MBSRTOWCS_STATE(ptr) ((ptr)->_new._reent._mb"
 12112      4E545F4D 
 12112      42535254 
 12112      4F574353 
 12112      5F535441 
 12113 41f1 7372746F 		.ascii	"srtowcs_state)\000"
ARM GAS  /var/folders/z0/6xlwn_996xz3mwq1cgzkbq4r0000gp/T//ccjakVr1.s 			page 280


 12113      7763735F 
 12113      73746174 
 12113      652900
 12114              	.LASF184:
 12115 4200 5F5F4445 		.ascii	"__DEC128_MAX__ 9.999999999999999999999999999999999E"
 12115      43313238 
 12115      5F4D4158 
 12115      5F5F2039 
 12115      2E393939 
 12116 4233 36313434 		.ascii	"6144DL\000"
 12116      444C00
 12117              	.LASF770:
 12118 423a 55415254 		.ascii	"UART_IER_BITMASK (0x307)\000"
 12118      5F494552 
 12118      5F424954 
 12118      4D41534B 
 12118      20283078 
 12119              	.LASF1201:
 12120 4253 5F524545 		.ascii	"_REENT_CHECK_MP(ptr) \000"
 12120      4E545F43 
 12120      4845434B 
 12120      5F4D5028 
 12120      70747229 
 12121              	.LASF773:
 12122 4269 55415254 		.ascii	"UART_IIR_INTSTAT_PEND (1 << 0)\000"
 12122      5F494952 
 12122      5F494E54 
 12122      53544154 
 12122      5F50454E 
 12123              	.LASF995:
 12124 4288 4932435F 		.ascii	"I2C_I2SCLH_BITMASK ((0xFFFF))\000"
 12124      49325343 
 12124      4C485F42 
 12124      49544D41 
 12124      534B2028 
 12125              	.LASF533:
 12126 42a6 5F5F434D 		.ascii	"__CM0_CMSIS_VERSION ((__CM0_CMSIS_VERSION_MAIN << 1"
 12126      305F434D 
 12126      5349535F 
 12126      56455253 
 12126      494F4E20 
 12127 42d9 3629207C 		.ascii	"6) | __CM0_CMSIS_VERSION_SUB )\000"
 12127      205F5F43 
 12127      4D305F43 
 12127      4D534953 
 12127      5F564552 
 12128              	.LASF1638:
 12129 42f8 41434B5F 		.ascii	"ACK_CAN_ERROR\000"
 12129      43414E5F 
 12129      4552524F 
 12129      5200
 12130              	.LASF1149:
 12131 4306 5F474343 		.ascii	"_GCC_WCHAR_T \000"
 12131      5F574348 
 12131      41525F54 
 12131      2000
 12132              	.LASF477:
ARM GAS  /var/folders/z0/6xlwn_996xz3mwq1cgzkbq4r0000gp/T//ccjakVr1.s 			page 281


 12133 4314 494E545F 		.ascii	"INT_FAST64_MAX (__INT_FAST64_MAX__)\000"
 12133      46415354 
 12133      36345F4D 
 12133      41582028 
 12133      5F5F494E 
 12134              	.LASF685:
 12135 4338 53595343 		.ascii	"SYSCTL_SLPWAKE_SYSOSC_PD (1 << 5)\000"
 12135      544C5F53 
 12135      4C505741 
 12135      4B455F53 
 12135      59534F53 
 12136              	.LASF1160:
 12137 435a 5F5F4C4F 		.ascii	"__LOCK_INIT(class,lock) static int lock = 0;\000"
 12137      434B5F49 
 12137      4E495428 
 12137      636C6173 
 12137      732C6C6F 
 12138              	.LASF1640:
 12139 4387 42495430 		.ascii	"BIT0_CAN_ERROR\000"
 12139      5F43414E 
 12139      5F455252 
 12139      4F5200
 12140              	.LASF405:
 12141 4396 5F5F494E 		.ascii	"__INT8 \"hh\"\000"
 12141      54382022 
 12141      68682200 
 12142              	.LASF1041:
 12143 43a2 4F445F4E 		.ascii	"OD_NONE 0x00\000"
 12143      4F4E4520 
 12143      30783030 
 12143      00
 12144              	.LASF97:
 12145 43af 5F5F494E 		.ascii	"__INT_LEAST32_MAX__ 0x7fffffffL\000"
 12145      545F4C45 
 12145      41535433 
 12145      325F4D41 
 12145      585F5F20 
 12146              	.LASF221:
 12147 43cf 5F5F4C4C 		.ascii	"__LLFRACT_EPSILON__ 0x1P-63LLR\000"
 12147      46524143 
 12147      545F4550 
 12147      53494C4F 
 12147      4E5F5F20 
 12148              	.LASF197:
 12149 43ee 5F5F4652 		.ascii	"__FRACT_FBIT__ 15\000"
 12149      4143545F 
 12149      46424954 
 12149      5F5F2031 
 12149      3500
 12150              	.LASF557:
 12151 4400 5343425F 		.ascii	"SCB_ICSR_PENDSVSET_Pos 28\000"
 12151      49435352 
 12151      5F50454E 
 12151      44535653 
 12151      45545F50 
 12152              	.LASF721:
 12153 441a 4D445F50 		.ascii	"MD_PDN (0x1 << 3)\000"
ARM GAS  /var/folders/z0/6xlwn_996xz3mwq1cgzkbq4r0000gp/T//ccjakVr1.s 			page 282


 12153      444E2028 
 12153      30783120 
 12153      3C3C2033 
 12153      2900
 12154              	.LASF904:
 12155 442c 5353505F 		.ascii	"SSP_CPOL_LO SSP_CR0_CPOL_HI\000"
 12155      43504F4C 
 12155      5F4C4F20 
 12155      5353505F 
 12155      4352305F 
 12156              	.LASF1406:
 12157 4448 54494D45 		.ascii	"TIMER_16_1_IRQn\000"
 12157      525F3136 
 12157      5F315F49 
 12157      52516E00 
 12158              	.LASF1358:
 12159 4458 5F5F6E65 		.ascii	"__need_size_t \000"
 12159      65645F73 
 12159      697A655F 
 12159      742000
 12160              	.LASF1468:
 12161 4467 434C4B4F 		.ascii	"CLKOUTUEN\000"
 12161      55545545 
 12161      4E00
 12162              	.LASF984:
 12163 4471 4932435F 		.ascii	"I2C_SLAVE_TIME_OUT 0x10000000UL\000"
 12163      534C4156 
 12163      455F5449 
 12163      4D455F4F 
 12163      55542030 
 12164              	.LASF87:
 12165 4491 5F5F494E 		.ascii	"__INT32_MAX__ 0x7fffffffL\000"
 12165      5433325F 
 12165      4D41585F 
 12165      5F203078 
 12165      37666666 
 12166              	.LASF1285:
 12167 44ab 5F5F766F 		.ascii	"__volatile volatile\000"
 12167      6C617469 
 12167      6C652076 
 12167      6F6C6174 
 12167      696C6500 
 12168              	.LASF870:
 12169 44bf 55415254 		.ascii	"UART_SYNCCTRL_CSCEN (1 << 4)\000"
 12169      5F53594E 
 12169      43435452 
 12169      4C5F4353 
 12169      43454E20 
 12170              	.LASF620:
 12171 44dc 5F424954 		.ascii	"_BIT_SHIFT(IRQn) ( (((uint32_t)(IRQn) ) & 0x03) * 8"
 12171      5F534849 
 12171      46542849 
 12171      52516E29 
 12171      20282028 
 12172 450f 202900   		.ascii	" )\000"
 12173              	.LASF790:
 12174 4512 55415254 		.ascii	"UART_FCR_TRG_LEV0 (0)\000"
ARM GAS  /var/folders/z0/6xlwn_996xz3mwq1cgzkbq4r0000gp/T//ccjakVr1.s 			page 283


 12174      5F464352 
 12174      5F545247 
 12174      5F4C4556 
 12174      30202830 
 12175              	.LASF1151:
 12176 4528 5F425344 		.ascii	"_BSD_WCHAR_T_\000"
 12176      5F574348 
 12176      41525F54 
 12176      5F00
 12177              	.LASF1600:
 12178 4536 4343414E 		.ascii	"CCAN_ODENTRY_T\000"
 12178      5F4F4445 
 12178      4E545259 
 12178      5F5400
 12179              	.LASF68:
 12180 4545 5F5F5343 		.ascii	"__SCHAR_MAX__ 0x7f\000"
 12180      4841525F 
 12180      4D41585F 
 12180      5F203078 
 12180      376600
 12181              	.LASF318:
 12182 4558 5F5F4743 		.ascii	"__GCC_HAVE_DWARF2_CFI_ASM 1\000"
 12182      435F4841 
 12182      56455F44 
 12182      57415246 
 12182      325F4346 
 12183              	.LASF1013:
 12184 4574 43414E5F 		.ascii	"CAN_ERROR_PASS 0x00000001UL\000"
 12184      4552524F 
 12184      525F5041 
 12184      53532030 
 12184      78303030 
 12185              	.LASF591:
 12186 4590 5343425F 		.ascii	"SCB_CCR_UNALIGN_TRP_Pos 3\000"
 12186      4343525F 
 12186      554E414C 
 12186      49474E5F 
 12186      5452505F 
 12187              	.LASF1125:
 12188 45aa 5F53495A 		.ascii	"_SIZE_T_ \000"
 12188      455F545F 
 12188      2000
 12189              	.LASF810:
 12190 45b4 55415254 		.ascii	"UART_LCR_BITMASK (0xFF)\000"
 12190      5F4C4352 
 12190      5F424954 
 12190      4D41534B 
 12190      20283078 
 12191              	.LASF1042:
 12192 45cc 4F445F45 		.ascii	"OD_EXP_RO 0x10\000"
 12192      58505F52 
 12192      4F203078 
 12192      313000
 12193              	.LASF224:
 12194 45db 5F5F554C 		.ascii	"__ULLFRACT_MIN__ 0.0ULLR\000"
 12194      4C465241 
 12194      43545F4D 
ARM GAS  /var/folders/z0/6xlwn_996xz3mwq1cgzkbq4r0000gp/T//ccjakVr1.s 			page 284


 12194      494E5F5F 
 12194      20302E30 
 12195              	.LASF1648:
 12196 45f4 43686970 		.ascii	"Chip_SYSCTL_DeassertPeriphReset\000"
 12196      5F535953 
 12196      43544C5F 
 12196      44656173 
 12196      73657274 
 12197              	.LASF1524:
 12198 4614 53595343 		.ascii	"SYSCTL_CLOCK_RESERVED14\000"
 12198      544C5F43 
 12198      4C4F434B 
 12198      5F524553 
 12198      45525645 
 12199              	.LASF1135:
 12200 462c 5F5F6E65 		.ascii	"__need_size_t\000"
 12200      65645F73 
 12200      697A655F 
 12200      7400
 12201              	.LASF225:
 12202 463a 5F5F554C 		.ascii	"__ULLFRACT_MAX__ 0XFFFFFFFFFFFFFFFFP-64ULLR\000"
 12202      4C465241 
 12202      43545F4D 
 12202      41585F5F 
 12202      20305846 
 12203              	.LASF534:
 12204 4666 5F5F434F 		.ascii	"__CORTEX_M (0x00)\000"
 12204      52544558 
 12204      5F4D2028 
 12204      30783030 
 12204      2900
 12205              	.LASF216:
 12206 4678 5F5F554C 		.ascii	"__ULFRACT_EPSILON__ 0x1P-32ULR\000"
 12206      46524143 
 12206      545F4550 
 12206      53494C4F 
 12206      4E5F5F20 
 12207              	.LASF1433:
 12208 4697 4E564943 		.ascii	"NVIC_Type\000"
 12208      5F547970 
 12208      6500
 12209              	.LASF287:
 12210 46a1 5F5F4841 		.ascii	"__HA_FBIT__ 7\000"
 12210      5F464249 
 12210      545F5F20 
 12210      3700
 12211              	.LASF993:
 12212 46af 4932435F 		.ascii	"I2C_I2ADR_BITMASK ((0xFF))\000"
 12212      49324144 
 12212      525F4249 
 12212      544D4153 
 12212      4B202828 
 12213              	.LASF455:
 12214 46ca 494E5433 		.ascii	"INT32_MIN (-__INT32_MAX__ - 1)\000"
 12214      325F4D49 
 12214      4E20282D 
 12214      5F5F494E 
ARM GAS  /var/folders/z0/6xlwn_996xz3mwq1cgzkbq4r0000gp/T//ccjakVr1.s 			page 285


 12214      5433325F 
 12215              	.LASF1005:
 12216 46e9 4932435F 		.ascii	"I2C_RECV_END 0x10\000"
 12216      52454356 
 12216      5F454E44 
 12216      20307831 
 12216      3000
 12217              	.LASF65:
 12218 46fb 5F5F6861 		.ascii	"__has_include(STR) __has_include__(STR)\000"
 12218      735F696E 
 12218      636C7564 
 12218      65285354 
 12218      5229205F 
 12219              	.LASF1105:
 12220 4723 5F535444 		.ascii	"_STDDEF_H \000"
 12220      4445465F 
 12220      482000
 12221              	.LASF379:
 12222 472e 5F5F5F69 		.ascii	"___int32_t_defined 1\000"
 12222      6E743332 
 12222      5F745F64 
 12222      6566696E 
 12222      65642031 
 12223              	.LASF586:
 12224 4743 5343425F 		.ascii	"SCB_SCR_SLEEPDEEP_Msk (1UL << SCB_SCR_SLEEPDEEP_Pos"
 12224      5343525F 
 12224      534C4545 
 12224      50444545 
 12224      505F4D73 
 12225 4776 2900     		.ascii	")\000"
 12226              	.LASF1256:
 12227 4778 5F5F474E 		.ascii	"__GNUCLIKE_ASM 3\000"
 12227      55434C49 
 12227      4B455F41 
 12227      534D2033 
 12227      00
 12228              	.LASF1164:
 12229 4789 5F5F6C6F 		.ascii	"__lock_close(lock) (_CAST_VOID 0)\000"
 12229      636B5F63 
 12229      6C6F7365 
 12229      286C6F63 
 12229      6B292028 
 12230              	.LASF173:
 12231 47ab 5F5F4445 		.ascii	"__DEC64_MANT_DIG__ 16\000"
 12231      4336345F 
 12231      4D414E54 
 12231      5F444947 
 12231      5F5F2031 
 12232              	.LASF137:
 12233 47c1 5F5F464C 		.ascii	"__FLT_HAS_QUIET_NAN__ 1\000"
 12233      545F4841 
 12233      535F5155 
 12233      4945545F 
 12233      4E414E5F 
 12234              	.LASF959:
 12235 47d9 4932435F 		.ascii	"I2C_I2STAT_M_TX_SLAW_NACK ((0x20))\000"
 12235      49325354 
ARM GAS  /var/folders/z0/6xlwn_996xz3mwq1cgzkbq4r0000gp/T//ccjakVr1.s 			page 286


 12235      41545F4D 
 12235      5F54585F 
 12235      534C4157 
 12236              	.LASF828:
 12237 47fc 55415254 		.ascii	"UART_MSR_DELTA_CTS (1 << 0)\000"
 12237      5F4D5352 
 12237      5F44454C 
 12237      54415F43 
 12237      54532028 
 12238              	.LASF396:
 12239 4818 7369676E 		.ascii	"signed +0\000"
 12239      6564202B 
 12239      3000
 12240              	.LASF1519:
 12241 4822 53595343 		.ascii	"SYSCTL_CLOCK_CT32B0\000"
 12241      544C5F43 
 12241      4C4F434B 
 12241      5F435433 
 12241      32423000 
 12242              	.LASF1520:
 12243 4836 53595343 		.ascii	"SYSCTL_CLOCK_CT32B1\000"
 12243      544C5F43 
 12243      4C4F434B 
 12243      5F435433 
 12243      32423100 
 12244              	.LASF1004:
 12245 484a 4932435F 		.ascii	"I2C_SEND_END 0x08\000"
 12245      53454E44 
 12245      5F454E44 
 12245      20307830 
 12245      3800
 12246              	.LASF974:
 12247 485c 4932435F 		.ascii	"I2C_I2STAT_S_RX_PRE_SLA_DAT_ACK ((0x80))\000"
 12247      49325354 
 12247      41545F53 
 12247      5F52585F 
 12247      5052455F 
 12248              	.LASF824:
 12249 4885 55415254 		.ascii	"UART_LSR_RXFE (1 << 7)\000"
 12249      5F4C5352 
 12249      5F525846 
 12249      45202831 
 12249      203C3C20 
 12250              	.LASF1039:
 12251 489c 53444F5F 		.ascii	"SDO_ABORT_LOCAL 0x08000021UL\000"
 12251      41424F52 
 12251      545F4C4F 
 12251      43414C20 
 12251      30783038 
 12252              	.LASF1451:
 12253 48b9 4D41494E 		.ascii	"MAINCLKUEN\000"
 12253      434C4B55 
 12253      454E00
 12254              	.LASF1418:
 12255 48c4 45494E54 		.ascii	"EINT2_IRQn\000"
 12255      325F4952 
 12255      516E00
ARM GAS  /var/folders/z0/6xlwn_996xz3mwq1cgzkbq4r0000gp/T//ccjakVr1.s 			page 287


 12256              	.LASF1555:
 12257 48cf 43414E42 		.ascii	"CANBRPE\000"
 12257      52504500 
 12258              	.LASF1139:
 12259 48d7 5F545F57 		.ascii	"_T_WCHAR_ \000"
 12259      43484152 
 12259      5F2000
 12260              	.LASF1654:
 12261 48e2 43686970 		.ascii	"Chip_Clock_EnablePeriphClock\000"
 12261      5F436C6F 
 12261      636B5F45 
 12261      6E61626C 
 12261      65506572 
 12262              	.LASF26:
 12263 48ff 5F5F4F52 		.ascii	"__ORDER_PDP_ENDIAN__ 3412\000"
 12263      4445525F 
 12263      5044505F 
 12263      454E4449 
 12263      414E5F5F 
 12264              	.LASF891:
 12265 4919 5353505F 		.ascii	"SSP_CR1_LBM_EN ((uint32_t) (1 << 0))\000"
 12265      4352315F 
 12265      4C424D5F 
 12265      454E2028 
 12265      2875696E 
 12266              	.LASF8:
 12267 493e 5F5F4154 		.ascii	"__ATOMIC_ACQUIRE 2\000"
 12267      4F4D4943 
 12267      5F414351 
 12267      55495245 
 12267      203200
 12268              	.LASF632:
 12269 4951 4C50435F 		.ascii	"LPC_ACMP_BASE 0x40028000\000"
 12269      41434D50 
 12269      5F424153 
 12269      45203078 
 12269      34303032 
 12270              	.LASF1413:
 12271 496a 4144435F 		.ascii	"ADC_IRQn\000"
 12271      4952516E 
 12271      00
 12272              	.LASF423:
 12273 4973 5F5F696E 		.ascii	"__int16_t_defined 1\000"
 12273      7431365F 
 12273      745F6465 
 12273      66696E65 
 12273      64203100 
 12274              	.LASF791:
 12275 4987 55415254 		.ascii	"UART_FCR_TRG_LEV1 (1 << 6)\000"
 12275      5F464352 
 12275      5F545247 
 12275      5F4C4556 
 12275      31202831 
 12276              	.LASF951:
 12277 49a2 4932435F 		.ascii	"I2C_CON_I2EN (1UL << 6)\000"
 12277      434F4E5F 
 12277      4932454E 
ARM GAS  /var/folders/z0/6xlwn_996xz3mwq1cgzkbq4r0000gp/T//ccjakVr1.s 			page 288


 12277      20283155 
 12277      4C203C3C 
 12278              	.LASF58:
 12279 49ba 5F5F494E 		.ascii	"__INT_FAST64_TYPE__ long long int\000"
 12279      545F4641 
 12279      53543634 
 12279      5F545950 
 12279      455F5F20 
 12280              	.LASF654:
 12281 49dc 4C50435F 		.ascii	"LPC_ADC ((LPC_ADC_T *) LPC_ADC_BASE)\000"
 12281      41444320 
 12281      28284C50 
 12281      435F4144 
 12281      435F5420 
 12282              	.LASF237:
 12283 4a01 5F5F4143 		.ascii	"__ACCUM_FBIT__ 15\000"
 12283      43554D5F 
 12283      46424954 
 12283      5F5F2031 
 12283      3500
 12284              	.LASF1353:
 12285 4a13 5F5F7265 		.ascii	"__requires_shared(...) __lock_annotate(shared_locks"
 12285      71756972 
 12285      65735F73 
 12285      68617265 
 12285      64282E2E 
 12286 4a46 5F726571 		.ascii	"_required(__VA_ARGS__))\000"
 12286      75697265 
 12286      64285F5F 
 12286      56415F41 
 12286      5247535F 
 12287              	.LASF1245:
 12288 4a5e 5F5F6174 		.ascii	"__attribute_pure__ \000"
 12288      74726962 
 12288      7574655F 
 12288      70757265 
 12288      5F5F2000 
 12289              	.LASF1063:
 12290 4a72 5F484156 		.ascii	"_HAVE_LONG_DOUBLE 1\000"
 12290      455F4C4F 
 12290      4E475F44 
 12290      4F55424C 
 12290      45203100 
 12291              	.LASF99:
 12292 4a86 5F5F494E 		.ascii	"__INT_LEAST64_MAX__ 0x7fffffffffffffffLL\000"
 12292      545F4C45 
 12292      41535436 
 12292      345F4D41 
 12292      585F5F20 
 12293              	.LASF280:
 12294 4aaf 5F5F5548 		.ascii	"__UHQ_IBIT__ 0\000"
 12294      515F4942 
 12294      49545F5F 
 12294      203000
 12295              	.LASF106:
 12296 4abe 5F5F5549 		.ascii	"__UINT32_C(c) c ## UL\000"
 12296      4E543332 
ARM GAS  /var/folders/z0/6xlwn_996xz3mwq1cgzkbq4r0000gp/T//ccjakVr1.s 			page 289


 12296      5F432863 
 12296      29206320 
 12296      23232055 
 12297              	.LASF1690:
 12298 4ad4 74785F62 		.ascii	"tx_buffer\000"
 12298      75666665 
 12298      7200
 12299              	.LASF809:
 12300 4ade 55415254 		.ascii	"UART_LCR_DLAB_EN (1 << 7)\000"
 12300      5F4C4352 
 12300      5F444C41 
 12300      425F454E 
 12300      20283120 
 12301              	.LASF1293:
 12302 4af8 5F5F7365 		.ascii	"__section(x) __attribute__((__section__(x)))\000"
 12302      6374696F 
 12302      6E287829 
 12302      205F5F61 
 12302      74747269 
 12303              	.LASF988:
 12304 4b25 4932435F 		.ascii	"I2C_I2MMCTRL_ENA_SCL ((1 << 1))\000"
 12304      49324D4D 
 12304      4354524C 
 12304      5F454E41 
 12304      5F53434C 
 12305              	.LASF878:
 12306 4b45 57574454 		.ascii	"WWDT_WDMOD_WDINT ((uint32_t) (1 << 3))\000"
 12306      5F57444D 
 12306      4F445F57 
 12306      44494E54 
 12306      20282875 
 12307              	.LASF1419:
 12308 4b6c 45494E54 		.ascii	"EINT1_IRQn\000"
 12308      315F4952 
 12308      516E00
 12309              	.LASF1250:
 12310 4b77 5F5F7074 		.ascii	"__ptrvalue \000"
 12310      7276616C 
 12310      75652000 
 12311              	.LASF238:
 12312 4b83 5F5F4143 		.ascii	"__ACCUM_IBIT__ 16\000"
 12312      43554D5F 
 12312      49424954 
 12312      5F5F2031 
 12312      3600
 12313              	.LASF580:
 12314 4b95 5343425F 		.ascii	"SCB_AIRCR_SYSRESETREQ_Msk (1UL << SCB_AIRCR_SYSRESE"
 12314      41495243 
 12314      525F5359 
 12314      53524553 
 12314      45545245 
 12315 4bc8 54524551 		.ascii	"TREQ_Pos)\000"
 12315      5F506F73 
 12315      2900
 12316              	.LASF1495:
 12317 4bd2 52455345 		.ascii	"RESET_SSP0\000"
 12317      545F5353 
ARM GAS  /var/folders/z0/6xlwn_996xz3mwq1cgzkbq4r0000gp/T//ccjakVr1.s 			page 290


 12317      503000
 12318              	.LASF1497:
 12319 4bdd 52455345 		.ascii	"RESET_SSP1\000"
 12319      545F5353 
 12319      503100
 12320              	.LASF193:
 12321 4be8 5F5F5553 		.ascii	"__USFRACT_IBIT__ 0\000"
 12321      46524143 
 12321      545F4942 
 12321      49545F5F 
 12321      203000
 12322              	.LASF1699:
 12323 4bfb 52696E67 		.ascii	"RingBuffer_Insert\000"
 12323      42756666 
 12323      65725F49 
 12323      6E736572 
 12323      7400
 12324              	.LASF1652:
 12325 4c0d 52696E67 		.ascii	"RingBuff\000"
 12325      42756666 
 12325      00
 12326              	.LASF346:
 12327 4c16 43414E5F 		.ascii	"CAN_ARCHITECTURE_ARM 1\000"
 12327      41524348 
 12327      49544543 
 12327      54555245 
 12327      5F41524D 
 12328              	.LASF967:
 12329 4c2d 4932435F 		.ascii	"I2C_I2STAT_M_RX_SLAR_NACK ((0x48))\000"
 12329      49325354 
 12329      41545F4D 
 12329      5F52585F 
 12329      534C4152 
 12330              	.LASF719:
 12331 4c50 494F434F 		.ascii	"IOCON_OPENDRAIN_EN (0x1 << 10)\000"
 12331      4E5F4F50 
 12331      454E4452 
 12331      41494E5F 
 12331      454E2028 
 12332              	.LASF1374:
 12333 4c6f 5F5F7569 		.ascii	"__uint64_t\000"
 12333      6E743634 
 12333      5F7400
 12334              	.LASF892:
 12335 4c7a 5353505F 		.ascii	"SSP_CR1_SSP_EN ((uint32_t) (1 << 1))\000"
 12335      4352315F 
 12335      5353505F 
 12335      454E2028 
 12335      2875696E 
 12336              	.LASF352:
 12337 4c9f 5F4E4557 		.ascii	"_NEWLIB_VERSION_H__ 1\000"
 12337      4C49425F 
 12337      56455253 
 12337      494F4E5F 
 12337      485F5F20 
 12338              	.LASF934:
 12339 4cb5 5245545F 		.ascii	"RET_SLAVE_IDLE 2\000"
ARM GAS  /var/folders/z0/6xlwn_996xz3mwq1cgzkbq4r0000gp/T//ccjakVr1.s 			page 291


 12339      534C4156 
 12339      455F4944 
 12339      4C452032 
 12339      00
 12340              	.LASF442:
 12341 4cc6 55494E54 		.ascii	"UINTPTR_MAX (__UINTPTR_MAX__)\000"
 12341      5054525F 
 12341      4D415820 
 12341      285F5F55 
 12341      494E5450 
 12342              	.LASF161:
 12343 4ce4 5F5F4C44 		.ascii	"__LDBL_EPSILON__ 2.2204460492503131e-16L\000"
 12343      424C5F45 
 12343      5053494C 
 12343      4F4E5F5F 
 12343      20322E32 
 12344              	.LASF1176:
 12345 4d0d 5F5F6E65 		.ascii	"__need_wint_t\000"
 12345      65645F77 
 12345      696E745F 
 12345      7400
 12346              	.LASF6:
 12347 4d1b 5F5F4154 		.ascii	"__ATOMIC_RELAXED 0\000"
 12347      4F4D4943 
 12347      5F52454C 
 12347      41584544 
 12347      203000
 12348              	.LASF210:
 12349 4d2e 5F5F4C46 		.ascii	"__LFRACT_MAX__ 0X7FFFFFFFP-31LR\000"
 12349      52414354 
 12349      5F4D4158 
 12349      5F5F2030 
 12349      58374646 
 12350              	.LASF160:
 12351 4d4e 5F5F4C44 		.ascii	"__LDBL_MIN__ 2.2250738585072014e-308L\000"
 12351      424C5F4D 
 12351      494E5F5F 
 12351      20322E32 
 12351      32353037 
 12352              	.LASF230:
 12353 4d74 5F5F5341 		.ascii	"__SACCUM_MAX__ 0X7FFFP-7HK\000"
 12353      4343554D 
 12353      5F4D4158 
 12353      5F5F2030 
 12353      58374646 
 12354              	.LASF1464:
 12355 4d8f 57445443 		.ascii	"WDTCLKUEN\000"
 12355      4C4B5545 
 12355      4E00
 12356              	.LASF386:
 12357 4d99 5F535953 		.ascii	"_SYS__INTSUP_H \000"
 12357      5F5F494E 
 12357      54535550 
 12357      5F482000 
 12358              	.LASF1420:
 12359 4da9 45494E54 		.ascii	"EINT0_IRQn\000"
 12359      305F4952 
ARM GAS  /var/folders/z0/6xlwn_996xz3mwq1cgzkbq4r0000gp/T//ccjakVr1.s 			page 292


 12359      516E00
 12360              	.LASF1003:
 12361 4db4 4932435F 		.ascii	"I2C_LAST_BYTE_RECV 0x04\000"
 12361      4C415354 
 12361      5F425954 
 12361      455F5245 
 12361      43562030 
 12362              	.LASF335:
 12363 4dcc 5F5F5448 		.ascii	"__THUMB_INTERWORK__ 1\000"
 12363      554D425F 
 12363      494E5445 
 12363      52574F52 
 12363      4B5F5F20 
 12364              	.LASF373:
 12365 4de2 5F5F504F 		.ascii	"__POSIX_VISIBLE 200809\000"
 12365      5349585F 
 12365      56495349 
 12365      424C4520 
 12365      32303038 
 12366              	.LASF354:
 12367 4df9 5F5F4E45 		.ascii	"__NEWLIB__ 2\000"
 12367      574C4942 
 12367      5F5F2032 
 12367      00
 12368              	.LASF200:
 12369 4e06 5F5F4652 		.ascii	"__FRACT_MAX__ 0X7FFFP-15R\000"
 12369      4143545F 
 12369      4D41585F 
 12369      5F203058 
 12369      37464646 
 12370              	.LASF1095:
 12371 4e20 5F444546 		.ascii	"_DEFUN(name,arglist,args) name(args)\000"
 12371      554E286E 
 12371      616D652C 
 12371      6172676C 
 12371      6973742C 
 12372              	.LASF1626:
 12373 4e45 636F6E66 		.ascii	"config_canopen\000"
 12373      69675F63 
 12373      616E6F70 
 12373      656E00
 12374              	.LASF1212:
 12375 4e54 5F524545 		.ascii	"_REENT_MP_RESULT(ptr) ((ptr)->_result)\000"
 12375      4E545F4D 
 12375      505F5245 
 12375      53554C54 
 12375      28707472 
 12376              	.LASF119:
 12377 4e7b 5F5F4743 		.ascii	"__GCC_IEC_559 0\000"
 12377      435F4945 
 12377      435F3535 
 12377      39203000 
 12378              	.LASF627:
 12379 4e8b 4C50435F 		.ascii	"LPC_TIMER16_1_BASE 0x40010000\000"
 12379      54494D45 
 12379      5231365F 
 12379      315F4241 
ARM GAS  /var/folders/z0/6xlwn_996xz3mwq1cgzkbq4r0000gp/T//ccjakVr1.s 			page 293


 12379      53452030 
 12380              	.LASF218:
 12381 4ea9 5F5F4C4C 		.ascii	"__LLFRACT_IBIT__ 0\000"
 12381      46524143 
 12381      545F4942 
 12381      49545F5F 
 12381      203000
 12382              	.LASF596:
 12383 4ebc 53797354 		.ascii	"SysTick_CTRL_COUNTFLAG_Msk (1UL << SysTick_CTRL_COU"
 12383      69636B5F 
 12383      4354524C 
 12383      5F434F55 
 12383      4E54464C 
 12384 4eef 4E54464C 		.ascii	"NTFLAG_Pos)\000"
 12384      41475F50 
 12384      6F732900 
 12385              	.LASF1411:
 12386 4efb 52657365 		.ascii	"Reserved22_IRQn\000"
 12386      72766564 
 12386      32325F49 
 12386      52516E00 
 12387              	.LASF1706:
 12388 4f0b 43414E5F 		.ascii	"CAN_IRQHandler\000"
 12388      49525148 
 12388      616E646C 
 12388      657200
 12389              	.LASF772:
 12390 4f1a 55415254 		.ascii	"UART2_IER_BITMASK (0x38F)\000"
 12390      325F4945 
 12390      525F4249 
 12390      544D4153 
 12390      4B202830 
 12391              	.LASF962:
 12392 4f34 4932435F 		.ascii	"I2C_I2STAT_M_TX_ARB_LOST ((0x38))\000"
 12392      49325354 
 12392      41545F4D 
 12392      5F54585F 
 12392      4152425F 
 12393              	.LASF1153:
 12394 4f56 4E554C4C 		.ascii	"NULL\000"
 12394      00
 12395              	.LASF1230:
 12396 4f5b 5F524545 		.ascii	"_REENT_GETDATE_ERR_P(ptr) (&((ptr)->_new._reent._ge"
 12396      4E545F47 
 12396      45544441 
 12396      54455F45 
 12396      52525F50 
 12397 4f8e 74646174 		.ascii	"tdate_err))\000"
 12397      655F6572 
 12397      72292900 
 12398              	.LASF135:
 12399 4f9a 5F5F464C 		.ascii	"__FLT_HAS_DENORM__ 1\000"
 12399      545F4841 
 12399      535F4445 
 12399      4E4F524D 
 12399      5F5F2031 
 12400              	.LASF429:
ARM GAS  /var/folders/z0/6xlwn_996xz3mwq1cgzkbq4r0000gp/T//ccjakVr1.s 			page 294


 12401 4faf 5F5F696E 		.ascii	"__int64_t_defined 1\000"
 12401      7436345F 
 12401      745F6465 
 12401      66696E65 
 12401      64203100 
 12402              	.LASF1081:
 12403 4fc3 5F454E44 		.ascii	"_END_STD_C \000"
 12403      5F535444 
 12403      5F432000 
 12404              	.LASF431:
 12405 4fcf 5F55494E 		.ascii	"_UINTPTR_T_DECLARED \000"
 12405      54505452 
 12405      5F545F44 
 12405      45434C41 
 12405      52454420 
 12406              	.LASF1441:
 12407 4fe4 5359534F 		.ascii	"SYSOSCCTRL\000"
 12407      53434354 
 12407      524C00
 12408              	.LASF705:
 12409 4fef 494F434F 		.ascii	"IOCON_FUNC6 0x6\000"
 12409      4E5F4655 
 12409      4E433620 
 12409      30783600 
 12410              	.LASF1181:
 12411 4fff 5F4E554C 		.ascii	"_NULL 0\000"
 12411      4C203000 
 12412              	.LASF767:
 12413 5007 55415254 		.ascii	"UART_IER_CTSINT (1 << 7)\000"
 12413      5F494552 
 12413      5F435453 
 12413      494E5420 
 12413      2831203C 
 12414              	.LASF1655:
 12415 5020 43686970 		.ascii	"Chip_SYSCTL_PeriphReset\000"
 12415      5F535953 
 12415      43544C5F 
 12415      50657269 
 12415      70685265 
 12416              	.LASF718:
 12417 5038 494F434F 		.ascii	"IOCON_FILT_DIS (0x1 << 8)\000"
 12417      4E5F4649 
 12417      4C545F44 
 12417      49532028 
 12417      30783120 
 12418              	.LASF1512:
 12419 5052 53595343 		.ascii	"SYSCTL_CLOCK_RAM\000"
 12419      544C5F43 
 12419      4C4F434B 
 12419      5F52414D 
 12419      00
 12420              	.LASF1412:
 12421 5063 52657365 		.ascii	"Reserved23_IRQn\000"
 12421      72766564 
 12421      32335F49 
 12421      52516E00 
 12422              	.LASF926:
ARM GAS  /var/folders/z0/6xlwn_996xz3mwq1cgzkbq4r0000gp/T//ccjakVr1.s 			page 295


 12423 5073 4144435F 		.ascii	"ADC_CR_START_ADCTRIG1 ((5UL << 24))\000"
 12423      43525F53 
 12423      54415254 
 12423      5F414443 
 12423      54524947 
 12424              	.LASF515:
 12425 5097 4E554C4C 		.ascii	"NULL ((void *) 0)\000"
 12425      20282876 
 12425      6F696420 
 12425      2A292030 
 12425      2900
 12426              	.LASF1548:
 12427 50a9 43414E49 		.ascii	"CANIF2_CMDMSK_R\000"
 12427      46325F43 
 12427      4D444D53 
 12427      4B5F5200 
 12428              	.LASF961:
 12429 50b9 4932435F 		.ascii	"I2C_I2STAT_M_TX_DAT_NACK ((0x30))\000"
 12429      49325354 
 12429      41545F4D 
 12429      5F54585F 
 12429      4441545F 
 12430              	.LASF1357:
 12431 50db 5F5F7074 		.ascii	"__pt_guarded_by(x) __lock_annotate(pt_guarded_by(x)"
 12431      5F677561 
 12431      72646564 
 12431      5F627928 
 12431      7829205F 
 12432 510e 2900     		.ascii	")\000"
 12433              	.LASF1150:
 12434 5110 5F574348 		.ascii	"_WCHAR_T_DECLARED \000"
 12434      41525F54 
 12434      5F444543 
 12434      4C415245 
 12434      442000
 12435              	.LASF830:
 12436 5123 55415254 		.ascii	"UART_MSR_LO2HI_RI (1 << 2)\000"
 12436      5F4D5352 
 12436      5F4C4F32 
 12436      48495F52 
 12436      49202831 
 12437              	.LASF1625:
 12438 513e 63616E5F 		.ascii	"can_transmit\000"
 12438      7472616E 
 12438      736D6974 
 12438      00
 12439              	.LASF9:
 12440 514b 5F5F4154 		.ascii	"__ATOMIC_RELEASE 3\000"
 12440      4F4D4943 
 12440      5F52454C 
 12440      45415345 
 12440      203300
 12441              	.LASF1069:
 12442 515e 5F554E42 		.ascii	"_UNBUF_STREAM_OPT 1\000"
 12442      55465F53 
 12442      54524541 
 12442      4D5F4F50 
ARM GAS  /var/folders/z0/6xlwn_996xz3mwq1cgzkbq4r0000gp/T//ccjakVr1.s 			page 296


 12442      54203100 
 12443              	.LASF610:
 12444 5172 53797354 		.ascii	"SysTick_CALIB_SKEW_Msk (1UL << SysTick_CALIB_SKEW_P"
 12444      69636B5F 
 12444      43414C49 
 12444      425F534B 
 12444      45575F4D 
 12445 51a5 6F732900 		.ascii	"os)\000"
 12446              	.LASF1594:
 12447 51a9 4343414E 		.ascii	"CCAN_ODCONSTENTRY\000"
 12447      5F4F4443 
 12447      4F4E5354 
 12447      454E5452 
 12447      5900
 12448              	.LASF1188:
 12449 51bb 5F52414E 		.ascii	"_RAND48_SEED_1 (0xabcd)\000"
 12449      4434385F 
 12449      53454544 
 12449      5F312028 
 12449      30786162 
 12450              	.LASF665:
 12451 51d3 5F5F504D 		.ascii	"__PMU_11XX_H_ \000"
 12451      555F3131 
 12451      58585F48 
 12451      5F2000
 12452              	.LASF67:
 12453 51e2 5F5F4758 		.ascii	"__GXX_ABI_VERSION 1009\000"
 12453      585F4142 
 12453      495F5645 
 12453      5253494F 
 12453      4E203130 
 12454              	.LASF686:
 12455 51f9 53595343 		.ascii	"SYSCTL_SLPWAKE_WDTOSC_PD (1 << 6)\000"
 12455      544C5F53 
 12455      4C505741 
 12455      4B455F57 
 12455      44544F53 
 12456              	.LASF236:
 12457 521b 5F5F5553 		.ascii	"__USACCUM_EPSILON__ 0x1P-8UHK\000"
 12457      41434355 
 12457      4D5F4550 
 12457      53494C4F 
 12457      4E5F5F20 
 12458              	.LASF856:
 12459 5239 55415254 		.ascii	"UART_SCICTRL_SCIEN (1 << 0)\000"
 12459      5F534349 
 12459      4354524C 
 12459      5F534349 
 12459      454E2028 
 12460              	.LASF1054:
 12461 5255 4C50435F 		.ascii	"LPC_CCAN_API ((CCAN_API_T *) (LPC_ROM_API->candApiB"
 12461      4343414E 
 12461      5F415049 
 12461      20282843 
 12461      43414E5F 
 12462 5288 61736529 		.ascii	"ase))\000"
 12462      2900
ARM GAS  /var/folders/z0/6xlwn_996xz3mwq1cgzkbq4r0000gp/T//ccjakVr1.s 			page 297


 12463              	.LASF56:
 12464 528e 5F5F494E 		.ascii	"__INT_FAST16_TYPE__ int\000"
 12464      545F4641 
 12464      53543136 
 12464      5F545950 
 12464      455F5F20 
 12465              	.LASF450:
 12466 52a6 494E5431 		.ascii	"INT16_MAX (__INT16_MAX__)\000"
 12466      365F4D41 
 12466      5820285F 
 12466      5F494E54 
 12466      31365F4D 
 12467              	.LASF1474:
 12468 52c0 53595354 		.ascii	"SYSTCKCAL\000"
 12468      434B4341 
 12468      4C00
 12469              	.LASF938:
 12470 52ca 4932435F 		.ascii	"I2C_I2CONSET_SI ((0x08))\000"
 12470      4932434F 
 12470      4E534554 
 12470      5F534920 
 12470      28283078 
 12471              	.LASF640:
 12472 52e3 4C50435F 		.ascii	"LPC_SSP1_BASE 0x40058000\000"
 12472      53535031 
 12472      5F424153 
 12472      45203078 
 12472      34303035 
 12473              	.LASF1274:
 12474 52fc 5F5F4343 		.ascii	"__CC_SUPPORTS___FUNC__ 1\000"
 12474      5F535550 
 12474      504F5254 
 12474      535F5F5F 
 12474      46554E43 
 12475              	.LASF286:
 12476 5315 5F5F5554 		.ascii	"__UTQ_IBIT__ 0\000"
 12476      515F4942 
 12476      49545F5F 
 12476      203000
 12477              	.LASF547:
 12478 5324 5343425F 		.ascii	"SCB_CPUID_VARIANT_Pos 20\000"
 12478      43505549 
 12478      445F5641 
 12478      5249414E 
 12478      545F506F 
 12479              	.LASF835:
 12480 533d 55415254 		.ascii	"UART_MSR_DCD (1 << 7)\000"
 12480      5F4D5352 
 12480      5F444344 
 12480      20283120 
 12480      3C3C2037 
 12481              	.LASF411:
 12482 5353 5F5F4641 		.ascii	"__FAST32 \000"
 12482      53543332 
 12482      2000
 12483              	.LASF492:
 12484 535d 55494E54 		.ascii	"UINT8_C(x) __UINT8_C(x)\000"
ARM GAS  /var/folders/z0/6xlwn_996xz3mwq1cgzkbq4r0000gp/T//ccjakVr1.s 			page 298


 12484      385F4328 
 12484      7829205F 
 12484      5F55494E 
 12484      54385F43 
 12485              	.LASF941:
 12486 5375 4932435F 		.ascii	"I2C_I2CONSET_I2EN ((0x40))\000"
 12486      4932434F 
 12486      4E534554 
 12486      5F493245 
 12486      4E202828 
 12487              	.LASF321:
 12488 5390 5F5F5349 		.ascii	"__SIZEOF_WINT_T__ 4\000"
 12488      5A454F46 
 12488      5F57494E 
 12488      545F545F 
 12488      5F203400 
 12489              	.LASF771:
 12490 53a4 55415254 		.ascii	"UART1_IER_BITMASK (0x30F)\000"
 12490      315F4945 
 12490      525F4249 
 12490      544D4153 
 12490      4B202830 
 12491              	.LASF1612:
 12492 53be 43414E5F 		.ascii	"CAN_rx\000"
 12492      727800
 12493              	.LASF120:
 12494 53c5 5F5F4743 		.ascii	"__GCC_IEC_559_COMPLEX 0\000"
 12494      435F4945 
 12494      435F3535 
 12494      395F434F 
 12494      4D504C45 
 12495              	.LASF815:
 12496 53dd 55415254 		.ascii	"UART_MCR_AUTO_CTS_EN (1 << 7)\000"
 12496      5F4D4352 
 12496      5F415554 
 12496      4F5F4354 
 12496      535F454E 
 12497              	.LASF551:
 12498 53fb 5343425F 		.ascii	"SCB_CPUID_PARTNO_Pos 4\000"
 12498      43505549 
 12498      445F5041 
 12498      52544E4F 
 12498      5F506F73 
 12499              	.LASF624:
 12500 5412 4C50435F 		.ascii	"LPC_WWDT_BASE 0x40004000\000"
 12500      57574454 
 12500      5F424153 
 12500      45203078 
 12500      34303030 
 12501              	.LASF70:
 12502 542b 5F5F494E 		.ascii	"__INT_MAX__ 0x7fffffff\000"
 12502      545F4D41 
 12502      585F5F20 
 12502      30783766 
 12502      66666666 
 12503              	.LASF769:
 12504 5442 55415254 		.ascii	"UART_IER_ABTOINT (1 << 9)\000"
ARM GAS  /var/folders/z0/6xlwn_996xz3mwq1cgzkbq4r0000gp/T//ccjakVr1.s 			page 299


 12504      5F494552 
 12504      5F414254 
 12504      4F494E54 
 12504      20283120 
 12505              	.LASF131:
 12506 545c 5F5F464C 		.ascii	"__FLT_MAX__ 3.4028234663852886e+38F\000"
 12506      545F4D41 
 12506      585F5F20 
 12506      332E3430 
 12506      32383233 
 12507              	.LASF47:
 12508 5480 5F5F494E 		.ascii	"__INT_LEAST8_TYPE__ signed char\000"
 12508      545F4C45 
 12508      41535438 
 12508      5F545950 
 12508      455F5F20 
 12509              	.LASF765:
 12510 54a0 55415254 		.ascii	"UART_IER_RLSINT (1 << 2)\000"
 12510      5F494552 
 12510      5F524C53 
 12510      494E5420 
 12510      2831203C 
 12511              	.LASF447:
 12512 54b9 494E545F 		.ascii	"INT_LEAST8_MAX (__INT_LEAST8_MAX__)\000"
 12512      4C454153 
 12512      54385F4D 
 12512      41582028 
 12512      5F5F494E 
 12513              	.LASF1099:
 12514 54dd 5F504152 		.ascii	"_PARAMS(paramlist) paramlist\000"
 12514      414D5328 
 12514      70617261 
 12514      6D6C6973 
 12514      74292070 
 12515              	.LASF347:
 12516 54fa 5F5F4348 		.ascii	"__CHIP_H_ \000"
 12516      49505F48 
 12516      5F2000
 12517              	.LASF1138:
 12518 5505 5F574348 		.ascii	"_WCHAR_T \000"
 12518      41525F54 
 12518      2000
 12519              	.LASF207:
 12520 550f 5F5F4C46 		.ascii	"__LFRACT_FBIT__ 31\000"
 12520      52414354 
 12520      5F464249 
 12520      545F5F20 
 12520      333100
 12521              	.LASF463:
 12522 5522 55494E54 		.ascii	"UINT64_MAX (__UINT64_MAX__)\000"
 12522      36345F4D 
 12522      41582028 
 12522      5F5F5549 
 12522      4E543634 
 12523              	.LASF689:
 12524 553e 53595343 		.ascii	"SYSCTL_POWERDOWN_IRC_PD (1 << 1)\000"
 12524      544C5F50 
ARM GAS  /var/folders/z0/6xlwn_996xz3mwq1cgzkbq4r0000gp/T//ccjakVr1.s 			page 300


 12524      4F574552 
 12524      444F574E 
 12524      5F495243 
 12525              	.LASF320:
 12526 555f 5F5F5349 		.ascii	"__SIZEOF_WCHAR_T__ 4\000"
 12526      5A454F46 
 12526      5F574348 
 12526      41525F54 
 12526      5F5F2034 
 12527              	.LASF982:
 12528 5574 4932435F 		.ascii	"I2C_I2STAT_S_TX_DAT_NACK ((0xC0))\000"
 12528      49325354 
 12528      41545F53 
 12528      5F54585F 
 12528      4441545F 
 12529              	.LASF235:
 12530 5596 5F5F5553 		.ascii	"__USACCUM_MAX__ 0XFFFFP-8UHK\000"
 12530      41434355 
 12530      4D5F4D41 
 12530      585F5F20 
 12530      30584646 
 12531              	.LASF946:
 12532 55b3 4932435F 		.ascii	"I2C_I2CONCLR_I2ENC ((1 << 6))\000"
 12532      4932434F 
 12532      4E434C52 
 12532      5F493245 
 12532      4E432028 
 12533              	.LASF1328:
 12534 55d1 5F5F7374 		.ascii	"__strong_reference(sym,aliassym) extern __typeof (s"
 12534      726F6E67 
 12534      5F726566 
 12534      6572656E 
 12534      63652873 
 12535 5604 796D2920 		.ascii	"ym) aliassym __attribute__ ((__alias__ (#sym)))\000"
 12535      616C6961 
 12535      7373796D 
 12535      205F5F61 
 12535      74747269 
 12536              	.LASF799:
 12537 5634 55415254 		.ascii	"UART_LCR_SBS_MASK (1 << 2)\000"
 12537      5F4C4352 
 12537      5F534253 
 12537      5F4D4153 
 12537      4B202831 
 12538              	.LASF85:
 12539 564f 5F5F494E 		.ascii	"__INT8_MAX__ 0x7f\000"
 12539      54385F4D 
 12539      41585F5F 
 12539      20307837 
 12539      6600
 12540              	.LASF1472:
 12541 5661 52455345 		.ascii	"RESERVED10\000"
 12541      52564544 
 12541      313000
 12542              	.LASF1168:
 12543 566c 5F5F6C6F 		.ascii	"__lock_try_acquire(lock) (_CAST_VOID 0)\000"
 12543      636B5F74 
ARM GAS  /var/folders/z0/6xlwn_996xz3mwq1cgzkbq4r0000gp/T//ccjakVr1.s 			page 301


 12543      72795F61 
 12543      63717569 
 12543      7265286C 
 12544              	.LASF1481:
 12545 5694 52455345 		.ascii	"RESERVED12\000"
 12545      52564544 
 12545      313200
 12546              	.LASF1486:
 12547 569f 52455345 		.ascii	"RESERVED13\000"
 12547      52564544 
 12547      313300
 12548              	.LASF1488:
 12549 56aa 52455345 		.ascii	"RESERVED14\000"
 12549      52564544 
 12549      313400
 12550              	.LASF1492:
 12551 56b5 52455345 		.ascii	"RESERVED15\000"
 12551      52564544 
 12551      313500
 12552              	.LASF1444:
 12553 56c0 4C464F53 		.ascii	"LFOSCCTRL\000"
 12553      43435452 
 12553      4C00
 12554              	.LASF1536:
 12555 56ca 75736264 		.ascii	"usbdApiBase\000"
 12555      41706942 
 12555      61736500 
 12556              	.LASF1263:
 12557 56d6 5F5F474E 		.ascii	"__GNUCLIKE_BUILTIN_VARARGS 1\000"
 12557      55434C49 
 12557      4B455F42 
 12557      55494C54 
 12557      494E5F56 
 12558              	.LASF496:
 12559 56f3 55494E54 		.ascii	"UINT32_C(x) __UINT32_C(x)\000"
 12559      33325F43 
 12559      28782920 
 12559      5F5F5549 
 12559      4E543332 
 12560              	.LASF1476:
 12561 570d 4952514C 		.ascii	"IRQLATENCY\000"
 12561      4154454E 
 12561      435900
 12562              	.LASF1500:
 12563 5718 52455345 		.ascii	"RESET_TIMER0_16\000"
 12563      545F5449 
 12563      4D455230 
 12563      5F313600 
 12564              	.LASF1241:
 12565 5728 5F5F4153 		.ascii	"__ASMNAME(cname) __XSTRING (__USER_LABEL_PREFIX__) "
 12565      4D4E414D 
 12565      4528636E 
 12565      616D6529 
 12565      205F5F58 
 12566 575b 636E616D 		.ascii	"cname\000"
 12566      6500
 12567              	.LASF911:
ARM GAS  /var/folders/z0/6xlwn_996xz3mwq1cgzkbq4r0000gp/T//ccjakVr1.s 			page 302


 12568 5761 4144435F 		.ascii	"ADC_MAX_SAMPLE_RATE 400000\000"
 12568      4D41585F 
 12568      53414D50 
 12568      4C455F52 
 12568      41544520 
 12569              	.LASF788:
 12570 577c 55415254 		.ascii	"UART_FCR_BITMASK (0xCF)\000"
 12570      5F464352 
 12570      5F424954 
 12570      4D41534B 
 12570      20283078 
 12571              	.LASF1045:
 12572 5794 4F445F53 		.ascii	"OD_SEG_RO 0x40\000"
 12572      45475F52 
 12572      4F203078 
 12572      343000
 12573              	.LASF1162:
 12574 57a3 5F5F6C6F 		.ascii	"__lock_init(lock) (_CAST_VOID 0)\000"
 12574      636B5F69 
 12574      6E697428 
 12574      6C6F636B 
 12574      2920285F 
 12575              	.LASF838:
 12576 57c4 55415254 		.ascii	"UART_ACR_MODE (1 << 1)\000"
 12576      5F414352 
 12576      5F4D4F44 
 12576      45202831 
 12576      203C3C20 
 12577              	.LASF756:
 12578 57db 52425F56 		.ascii	"RB_VHEAD(rb) ((volatile uint32_t)(rb->head))\000"
 12578      48454144 
 12578      28726229 
 12578      20282876 
 12578      6F6C6174 
 12579              	.LASF1121:
 12580 5808 5F535953 		.ascii	"_SYS_SIZE_T_H \000"
 12580      5F53495A 
 12580      455F545F 
 12580      482000
 12581              	.LASF162:
 12582 5817 5F5F4C44 		.ascii	"__LDBL_DENORM_MIN__ 4.9406564584124654e-324L\000"
 12582      424C5F44 
 12582      454E4F52 
 12582      4D5F4D49 
 12582      4E5F5F20 
 12583              	.LASF80:
 12584 5844 5F5F494E 		.ascii	"__INTMAX_C(c) c ## LL\000"
 12584      544D4158 
 12584      5F432863 
 12584      29206320 
 12584      2323204C 
 12585              	.LASF249:
 12586 585a 5F5F4C41 		.ascii	"__LACCUM_MIN__ (-0X1P31LK-0X1P31LK)\000"
 12586      4343554D 
 12586      5F4D494E 
 12586      5F5F2028 
 12586      2D305831 
ARM GAS  /var/folders/z0/6xlwn_996xz3mwq1cgzkbq4r0000gp/T//ccjakVr1.s 			page 303


 12587              	.LASF114:
 12588 587e 5F5F5549 		.ascii	"__UINT_FAST16_MAX__ 0xffffffffU\000"
 12588      4E545F46 
 12588      41535431 
 12588      365F4D41 
 12588      585F5F20 
 12589              	.LASF62:
 12590 589e 5F5F5549 		.ascii	"__UINT_FAST64_TYPE__ long long unsigned int\000"
 12590      4E545F46 
 12590      41535436 
 12590      345F5459 
 12590      50455F5F 
 12591              	.LASF470:
 12592 58ca 494E545F 		.ascii	"INT_FAST16_MIN (-__INT_FAST16_MAX__ - 1)\000"
 12592      46415354 
 12592      31365F4D 
 12592      494E2028 
 12592      2D5F5F49 
 12593              	.LASF1208:
 12594 58f3 5F524545 		.ascii	"_REENT_RAND_NEXT(ptr) ((ptr)->_new._reent._rand_nex"
 12594      4E545F52 
 12594      414E445F 
 12594      4E455854 
 12594      28707472 
 12595 5926 742900   		.ascii	"t)\000"
 12596              	.LASF641:
 12597 5929 4C50435F 		.ascii	"LPC_GPIO_PORT0_BASE 0x50000000\000"
 12597      4750494F 
 12597      5F504F52 
 12597      54305F42 
 12597      41534520 
 12598              	.LASF910:
 12599 5948 5F5F4144 		.ascii	"__ADC_11XX_H_ \000"
 12599      435F3131 
 12599      58585F48 
 12599      5F2000
 12600              	.LASF668:
 12601 5957 504D555F 		.ascii	"PMU_PCON_SLEEPFLAG (1 << 8)\000"
 12601      50434F4E 
 12601      5F534C45 
 12601      4550464C 
 12601      41472028 
 12602              	.LASF1346:
 12603 5973 5F5F6C6F 		.ascii	"__locks_shared(...) __lock_annotate(shared_lock_fun"
 12603      636B735F 
 12603      73686172 
 12603      6564282E 
 12603      2E2E2920 
 12604 59a6 6374696F 		.ascii	"ction(__VA_ARGS__))\000"
 12604      6E285F5F 
 12604      56415F41 
 12604      5247535F 
 12604      5F292900 
 12605              	.LASF1026:
 12606 59ba 53444F5F 		.ascii	"SDO_ABORT_TOGGLE 0x05030000UL\000"
 12606      41424F52 
 12606      545F544F 
ARM GAS  /var/folders/z0/6xlwn_996xz3mwq1cgzkbq4r0000gp/T//ccjakVr1.s 			page 304


 12606      47474C45 
 12606      20307830 
 12607              	.LASF206:
 12608 59d8 5F5F5546 		.ascii	"__UFRACT_EPSILON__ 0x1P-16UR\000"
 12608      52414354 
 12608      5F455053 
 12608      494C4F4E 
 12608      5F5F2030 
 12609              	.LASF937:
 12610 59f5 4932435F 		.ascii	"I2C_I2CONSET_AA ((0x04))\000"
 12610      4932434F 
 12610      4E534554 
 12610      5F414120 
 12610      28283078 
 12611              	.LASF394:
 12612 5a0e 5F5F696E 		.ascii	"__int20\000"
 12612      74323000 
 12613              	.LASF78:
 12614 5a16 5F5F5349 		.ascii	"__SIZE_MAX__ 0xffffffffU\000"
 12614      5A455F4D 
 12614      41585F5F 
 12614      20307866 
 12614      66666666 
 12615              	.LASF1190:
 12616 5a2f 5F52414E 		.ascii	"_RAND48_MULT_0 (0xe66d)\000"
 12616      4434385F 
 12616      4D554C54 
 12616      5F302028 
 12616      30786536 
 12617              	.LASF1613:
 12618 5a47 43414E5F 		.ascii	"CAN_tx\000"
 12618      747800
 12619              	.LASF589:
 12620 5a4e 5343425F 		.ascii	"SCB_CCR_STKALIGN_Pos 9\000"
 12620      4343525F 
 12620      53544B41 
 12620      4C49474E 
 12620      5F506F73 
 12621              	.LASF1218:
 12622 5a65 5F524545 		.ascii	"_REENT_EMERGENCY(ptr) ((ptr)->_emergency)\000"
 12622      4E545F45 
 12622      4D455247 
 12622      454E4359 
 12622      28707472 
 12623              	.LASF1246:
 12624 5a8f 5F5F6174 		.ascii	"__attribute_format_strfmon__(a,b) \000"
 12624      74726962 
 12624      7574655F 
 12624      666F726D 
 12624      61745F73 
 12625              	.LASF113:
 12626 5ab2 5F5F5549 		.ascii	"__UINT_FAST8_MAX__ 0xffffffffU\000"
 12626      4E545F46 
 12626      41535438 
 12626      5F4D4158 
 12626      5F5F2030 
 12627              	.LASF601:
ARM GAS  /var/folders/z0/6xlwn_996xz3mwq1cgzkbq4r0000gp/T//ccjakVr1.s 			page 305


 12628 5ad1 53797354 		.ascii	"SysTick_CTRL_ENABLE_Pos 0\000"
 12628      69636B5F 
 12628      4354524C 
 12628      5F454E41 
 12628      424C455F 
 12629              	.LASF1232:
 12630 5aeb 5F4B6D61 		.ascii	"_Kmax (sizeof (size_t) << 3)\000"
 12630      78202873 
 12630      697A656F 
 12630      66202873 
 12630      697A655F 
 12631              	.LASF1234:
 12632 5b08 5F524545 		.ascii	"_REENT _impure_ptr\000"
 12632      4E54205F 
 12632      696D7075 
 12632      72655F70 
 12632      747200
 12633              	.LASF1222:
 12634 5b1b 5F524545 		.ascii	"_REENT_WCTOMB_STATE(ptr) ((ptr)->_new._reent._wctom"
 12634      4E545F57 
 12634      43544F4D 
 12634      425F5354 
 12634      41544528 
 12635 5b4e 625F7374 		.ascii	"b_state)\000"
 12635      61746529 
 12635      00
 12636              	.LASF1650:
 12637 5b57 70657269 		.ascii	"periph\000"
 12637      706800
 12638              	.LASF1657:
 12639 5b5e 4E564943 		.ascii	"NVIC_EnableIRQ\000"
 12639      5F456E61 
 12639      626C6549 
 12639      525100
 12640              	.LASF272:
 12641 5b6d 5F5F5351 		.ascii	"__SQ_IBIT__ 0\000"
 12641      5F494249 
 12641      545F5F20 
 12641      3000
 12642              	.LASF666:
 12643 5b7b 504D555F 		.ascii	"PMU_PCON_PM_SLEEP (0x0)\000"
 12643      50434F4E 
 12643      5F504D5F 
 12643      534C4545 
 12643      50202830 
 12644              	.LASF1326:
 12645 5b93 5F5F676E 		.ascii	"__gnu_inline __attribute__((__gnu_inline__, __artif"
 12645      755F696E 
 12645      6C696E65 
 12645      205F5F61 
 12645      74747269 
 12646 5bc6 69636961 		.ascii	"icial__))\000"
 12646      6C5F5F29 
 12646      2900
 12647              	.LASF710:
 12648 5bd0 494F434F 		.ascii	"IOCON_MODE_REPEATER (0x3 << 3)\000"
 12648      4E5F4D4F 
ARM GAS  /var/folders/z0/6xlwn_996xz3mwq1cgzkbq4r0000gp/T//ccjakVr1.s 			page 306


 12648      44455F52 
 12648      45504541 
 12648      54455220 
 12649              	.LASF607:
 12650 5bef 53797354 		.ascii	"SysTick_CALIB_NOREF_Pos 31\000"
 12650      69636B5F 
 12650      43414C49 
 12650      425F4E4F 
 12650      5245465F 
 12651              	.LASF1155:
 12652 5c0a 5F5F6E65 		.ascii	"__need_NULL\000"
 12652      65645F4E 
 12652      554C4C00 
 12653              	.LASF1156:
 12654 5c16 6F666673 		.ascii	"offsetof(TYPE,MEMBER) __builtin_offsetof (TYPE, MEM"
 12654      65746F66 
 12654      28545950 
 12654      452C4D45 
 12654      4D424552 
 12655 5c49 42455229 		.ascii	"BER)\000"
 12655      00
 12656              	.LASF621:
 12657 5c4e 5F534850 		.ascii	"_SHP_IDX(IRQn) ( ((((uint32_t)(IRQn) & 0x0F)-8) >> "
 12657      5F494458 
 12657      28495251 
 12657      6E292028 
 12657      20282828 
 12658 5c81 32292029 		.ascii	"2) )\000"
 12658      00
 12659              	.LASF1304:
 12660 5c86 5F5F616C 		.ascii	"__always_inline __attribute__((__always_inline__))\000"
 12660      77617973 
 12660      5F696E6C 
 12660      696E6520 
 12660      5F5F6174 
 12661              	.LASF1320:
 12662 5cb9 5F5F636F 		.ascii	"__containerof(x,s,m) ({ const volatile __typeof(((s"
 12662      6E746169 
 12662      6E65726F 
 12662      6628782C 
 12662      732C6D29 
 12663 5cec 202A2930 		.ascii	" *)0)->m) *__x = (x); __DEQUALIFY(s *, (const volat"
 12663      292D3E6D 
 12663      29202A5F 
 12663      5F78203D 
 12663      20287829 
 12664 5d1f 696C6520 		.ascii	"ile char *)__x - __offsetof(s, m));})\000"
 12664      63686172 
 12664      202A295F 
 12664      5F78202D 
 12664      205F5F6F 
 12665              	.LASF1656:
 12666 5d45 63616E5F 		.ascii	"can_error\000"
 12666      6572726F 
 12666      7200
 12667              	.LASF563:
 12668 5d4f 5343425F 		.ascii	"SCB_ICSR_PENDSTCLR_Pos 25\000"
ARM GAS  /var/folders/z0/6xlwn_996xz3mwq1cgzkbq4r0000gp/T//ccjakVr1.s 			page 307


 12668      49435352 
 12668      5F50454E 
 12668      44535443 
 12668      4C525F50 
 12669              	.LASF1291:
 12670 5d69 5F5F7061 		.ascii	"__packed __attribute__((__packed__))\000"
 12670      636B6564 
 12670      205F5F61 
 12670      74747269 
 12670      62757465 
 12671              	.LASF167:
 12672 5d8e 5F5F4445 		.ascii	"__DEC32_MIN_EXP__ (-94)\000"
 12672      4333325F 
 12672      4D494E5F 
 12672      4558505F 
 12672      5F20282D 
 12673              	.LASF636:
 12674 5da6 4C50435F 		.ascii	"LPC_IOCON_BASE 0x40044000\000"
 12674      494F434F 
 12674      4E5F4241 
 12674      53452030 
 12674      78343030 
 12675              	.LASF602:
 12676 5dc0 53797354 		.ascii	"SysTick_CTRL_ENABLE_Msk (1UL << SysTick_CTRL_ENABLE"
 12676      69636B5F 
 12676      4354524C 
 12676      5F454E41 
 12676      424C455F 
 12677 5df3 5F506F73 		.ascii	"_Pos)\000"
 12677      2900
 12678              	.LASF189:
 12679 5df9 5F5F5346 		.ascii	"__SFRACT_MIN__ (-0.5HR-0.5HR)\000"
 12679      52414354 
 12679      5F4D494E 
 12679      5F5F2028 
 12679      2D302E35 
 12680              	.LASF247:
 12681 5e17 5F5F4C41 		.ascii	"__LACCUM_FBIT__ 31\000"
 12681      4343554D 
 12681      5F464249 
 12681      545F5F20 
 12681      333100
 12682              	.LASF353:
 12683 5e2a 5F4E4557 		.ascii	"_NEWLIB_VERSION \"2.4.0\"\000"
 12683      4C49425F 
 12683      56455253 
 12683      494F4E20 
 12683      22322E34 
 12684              	.LASF611:
 12685 5e42 53797354 		.ascii	"SysTick_CALIB_TENMS_Pos 0\000"
 12685      69636B5F 
 12685      43414C49 
 12685      425F5445 
 12685      4E4D535F 
 12686              	.LASF254:
 12687 5e5c 5F5F554C 		.ascii	"__ULACCUM_MIN__ 0.0ULK\000"
 12687      41434355 
ARM GAS  /var/folders/z0/6xlwn_996xz3mwq1cgzkbq4r0000gp/T//ccjakVr1.s 			page 308


 12687      4D5F4D49 
 12687      4E5F5F20 
 12687      302E3055 
 12688              	.LASF1502:
 12689 5e73 52455345 		.ascii	"RESET_TIMER0_32\000"
 12689      545F5449 
 12689      4D455230 
 12689      5F333200 
 12690              	.LASF677:
 12691 5e83 53595343 		.ascii	"SYSCTL_NMISRC_ENABLE ((uint32_t) 1 << 31)\000"
 12691      544C5F4E 
 12691      4D495352 
 12691      435F454E 
 12691      41424C45 
 12692              	.LASF1157:
 12693 5ead 5F535953 		.ascii	"_SYS__TYPES_H \000"
 12693      5F5F5459 
 12693      5045535F 
 12693      482000
 12694              	.LASF1596:
 12695 5ebc 73756269 		.ascii	"subindex\000"
 12695      6E646578 
 12695      00
 12696              	.LASF1189:
 12697 5ec5 5F52414E 		.ascii	"_RAND48_SEED_2 (0x1234)\000"
 12697      4434385F 
 12697      53454544 
 12697      5F322028 
 12697      30783132 
 12698              	.LASF545:
 12699 5edd 5343425F 		.ascii	"SCB_CPUID_IMPLEMENTER_Pos 24\000"
 12699      43505549 
 12699      445F494D 
 12699      504C454D 
 12699      454E5445 
 12700              	.LASF71:
 12701 5efa 5F5F4C4F 		.ascii	"__LONG_MAX__ 0x7fffffffL\000"
 12701      4E475F4D 
 12701      41585F5F 
 12701      20307837 
 12701      66666666 
 12702              	.LASF529:
 12703 5f13 5F5F5665 		.ascii	"__Vendor_SysTickConfig 0\000"
 12703      6E646F72 
 12703      5F537973 
 12703      5469636B 
 12703      436F6E66 
 12704              	.LASF1334:
 12705 5f2c 5F5F5243 		.ascii	"__RCSID(s) struct __hack\000"
 12705      53494428 
 12705      73292073 
 12705      74727563 
 12705      74205F5F 
 12706              	.LASF98:
 12707 5f45 5F5F494E 		.ascii	"__INT32_C(c) c ## L\000"
 12707      5433325F 
 12707      43286329 
ARM GAS  /var/folders/z0/6xlwn_996xz3mwq1cgzkbq4r0000gp/T//ccjakVr1.s 			page 309


 12707      20632023 
 12707      23204C00 
 12708              	.LASF1084:
 12709 5f59 5F414E44 		.ascii	"_AND ,\000"
 12709      202C00
 12710              	.LASF1255:
 12711 5f60 5F5F454E 		.ascii	"__END_DECLS \000"
 12711      445F4445 
 12711      434C5320 
 12711      00
 12712              	.LASF282:
 12713 5f6d 5F5F5553 		.ascii	"__USQ_IBIT__ 0\000"
 12713      515F4942 
 12713      49545F5F 
 12713      203000
 12714              	.LASF709:
 12715 5f7c 494F434F 		.ascii	"IOCON_MODE_PULLUP (0x2 << 3)\000"
 12715      4E5F4D4F 
 12715      44455F50 
 12715      554C4C55 
 12715      50202830 
 12716              	.LASF1432:
 12717 5f99 73697A65 		.ascii	"sizetype\000"
 12717      74797065 
 12717      00
 12718              	.LASF384:
 12719 5fa2 5F5F5F69 		.ascii	"___int_least64_t_defined 1\000"
 12719      6E745F6C 
 12719      65617374 
 12719      36345F74 
 12719      5F646566 
 12720              	.LASF178:
 12721 5fbd 5F5F4445 		.ascii	"__DEC64_EPSILON__ 1E-15DD\000"
 12721      4336345F 
 12721      45505349 
 12721      4C4F4E5F 
 12721      5F203145 
 12722              	.LASF516:
 12723 5fd7 4E454C45 		.ascii	"NELEMENTS(array) (sizeof(array) / sizeof(array[0]))"
 12723      4D454E54 
 12723      53286172 
 12723      72617929 
 12723      20287369 
 12724 600a 00       		.ascii	"\000"
 12725              	.LASF1621:
 12726 600b 4343414E 		.ascii	"CCAN_API\000"
 12726      5F415049 
 12726      00
 12727              	.LASF875:
 12728 6014 57574454 		.ascii	"WWDT_WDMOD_WDEN ((uint32_t) (1 << 0))\000"
 12728      5F57444D 
 12728      4F445F57 
 12728      44454E20 
 12728      28287569 
 12729              	.LASF1264:
 12730 603a 5F5F474E 		.ascii	"__GNUCLIKE_BUILTIN_STDARG 1\000"
 12730      55434C49 
ARM GAS  /var/folders/z0/6xlwn_996xz3mwq1cgzkbq4r0000gp/T//ccjakVr1.s 			page 310


 12730      4B455F42 
 12730      55494C54 
 12730      494E5F53 
 12731              	.LASF432:
 12732 6056 5F5F696E 		.ascii	"__int_least8_t_defined 1\000"
 12732      745F6C65 
 12732      61737438 
 12732      5F745F64 
 12732      6566696E 
 12733              	.LASF531:
 12734 606f 5F5F434D 		.ascii	"__CM0_CMSIS_VERSION_MAIN (0x03)\000"
 12734      305F434D 
 12734      5349535F 
 12734      56455253 
 12734      494F4E5F 
 12735              	.LASF587:
 12736 608f 5343425F 		.ascii	"SCB_SCR_SLEEPONEXIT_Pos 1\000"
 12736      5343525F 
 12736      534C4545 
 12736      504F4E45 
 12736      5849545F 
 12737              	.LASF713:
 12738 60a9 494F434F 		.ascii	"IOCON_ADMODE_EN (0x0 << 7)\000"
 12738      4E5F4144 
 12738      4D4F4445 
 12738      5F454E20 
 12738      28307830 
 12739              	.LASF1471:
 12740 60c4 50494F50 		.ascii	"PIOPORCAP\000"
 12740      4F524341 
 12740      5000
 12741              	.LASF168:
 12742 60ce 5F5F4445 		.ascii	"__DEC32_MAX_EXP__ 97\000"
 12742      4333325F 
 12742      4D41585F 
 12742      4558505F 
 12742      5F203937 
 12743              	.LASF1071:
 12744 60e3 5F5F4945 		.ascii	"__IEEE_LITTLE_ENDIAN \000"
 12744      45455F4C 
 12744      4954544C 
 12744      455F454E 
 12744      4449414E 
 12745              	.LASF675:
 12746 60f9 53595343 		.ascii	"SYSCTL_RST_BOD (1 << 3)\000"
 12746      544C5F52 
 12746      53545F42 
 12746      4F442028 
 12746      31203C3C 
 12747              	.LASF1514:
 12748 6111 53595343 		.ascii	"SYSCTL_CLOCK_FLASHARRAY\000"
 12748      544C5F43 
 12748      4C4F434B 
 12748      5F464C41 
 12748      53484152 
 12749              	.LASF1369:
 12750 6129 73686F72 		.ascii	"short unsigned int\000"
ARM GAS  /var/folders/z0/6xlwn_996xz3mwq1cgzkbq4r0000gp/T//ccjakVr1.s 			page 311


 12750      7420756E 
 12750      7369676E 
 12750      65642069 
 12750      6E7400
 12751              	.LASF1392:
 12752 613c 50494F30 		.ascii	"PIO0_3_IRQn\000"
 12752      5F335F49 
 12752      52516E00 
 12753              	.LASF597:
 12754 6148 53797354 		.ascii	"SysTick_CTRL_CLKSOURCE_Pos 2\000"
 12754      69636B5F 
 12754      4354524C 
 12754      5F434C4B 
 12754      534F5552 
 12755              	.LASF1364:
 12756 6165 7369676E 		.ascii	"signed char\000"
 12756      65642063 
 12756      68617200 
 12757              	.LASF1523:
 12758 6171 53595343 		.ascii	"SYSCTL_CLOCK_ADC\000"
 12758      544C5F43 
 12758      4C4F434B 
 12758      5F414443 
 12758      00
 12759              	.LASF3:
 12760 6182 5F5F474E 		.ascii	"__GNUC_MINOR__ 4\000"
 12760      55435F4D 
 12760      494E4F52 
 12760      5F5F2034 
 12760      00
 12761              	.LASF1167:
 12762 6193 5F5F6C6F 		.ascii	"__lock_acquire_recursive(lock) (_CAST_VOID 0)\000"
 12762      636B5F61 
 12762      63717569 
 12762      72655F72 
 12762      65637572 
 12763              	.LASF1599:
 12764 61c1 656E7472 		.ascii	"entrytype_len\000"
 12764      79747970 
 12764      655F6C65 
 12764      6E00
 12765              	.LASF1118:
 12766 61cf 5F5F7369 		.ascii	"__size_t__ \000"
 12766      7A655F74 
 12766      5F5F2000 
 12767              	.LASF1070:
 12768 61db 5F5F5359 		.ascii	"__SYS_CONFIG_H__ \000"
 12768      535F434F 
 12768      4E464947 
 12768      5F485F5F 
 12768      2000
 12769              	.LASF841:
 12770 61ed 55415254 		.ascii	"UART_ACR_ABTOINT_CLR (1 << 9)\000"
 12770      5F414352 
 12770      5F414254 
 12770      4F494E54 
 12770      5F434C52 
ARM GAS  /var/folders/z0/6xlwn_996xz3mwq1cgzkbq4r0000gp/T//ccjakVr1.s 			page 312


 12771              	.LASF1314:
 12772 620b 5F5F7072 		.ascii	"__predict_false(exp) __builtin_expect((exp), 0)\000"
 12772      65646963 
 12772      745F6661 
 12772      6C736528 
 12772      65787029 
 12773              	.LASF936:
 12774 623b 4932435F 		.ascii	"I2C_STA_STO_RECV 0x20\000"
 12774      5354415F 
 12774      53544F5F 
 12774      52454356 
 12774      20307832 
 12775              	.LASF1591:
 12776 6251 6D73676F 		.ascii	"msgobj\000"
 12776      626A00
 12777              	.LASF1083:
 12778 6258 5F505452 		.ascii	"_PTR void *\000"
 12778      20766F69 
 12778      64202A00 
 12779              	.LASF1667:
 12780 6264 70436C6B 		.ascii	"pClk\000"
 12780      00
 12781              	.LASF266:
 12782 6269 5F5F554C 		.ascii	"__ULLACCUM_EPSILON__ 0x1P-32ULLK\000"
 12782      4C414343 
 12782      554D5F45 
 12782      5053494C 
 12782      4F4E5F5F 
 12783              	.LASF22:
 12784 628a 5F5F4348 		.ascii	"__CHAR_BIT__ 8\000"
 12784      41525F42 
 12784      49545F5F 
 12784      203800
 12785              	.LASF34:
 12786 6299 5F5F494E 		.ascii	"__INTMAX_TYPE__ long long int\000"
 12786      544D4158 
 12786      5F545950 
 12786      455F5F20 
 12786      6C6F6E67 
 12787              	.LASF740:
 12788 62b7 46554E43 		.ascii	"FUNC6 0x6\000"
 12788      36203078 
 12788      3600
 12789              	.LASF905:
 12790 62c1 5353505F 		.ascii	"SSP_SLAVE_MODE SSP_CR1_SLAVE_EN\000"
 12790      534C4156 
 12790      455F4D4F 
 12790      44452053 
 12790      53505F43 
 12791              	.LASF1072:
 12792 62e1 5F504F49 		.ascii	"_POINTER_INT long\000"
 12792      4E544552 
 12792      5F494E54 
 12792      206C6F6E 
 12792      6700
 12793              	.LASF1609:
 12794 62f3 6F645F74 		.ascii	"od_table\000"
ARM GAS  /var/folders/z0/6xlwn_996xz3mwq1cgzkbq4r0000gp/T//ccjakVr1.s 			page 313


 12794      61626C65 
 12794      00
 12795              	.LASF1531:
 12796 62fc 636F756E 		.ascii	"count\000"
 12796      7400
 12797              	.LASF991:
 12798 6302 49324441 		.ascii	"I2DATA_BUFFER_BITMASK ((0xFF))\000"
 12798      54415F42 
 12798      55464645 
 12798      525F4249 
 12798      544D4153 
 12799              	.LASF1253:
 12800 6321 5F5F6861 		.ascii	"__has_builtin(x) 0\000"
 12800      735F6275 
 12800      696C7469 
 12800      6E287829 
 12800      203000
 12801              	.LASF1391:
 12802 6334 50494F30 		.ascii	"PIO0_2_IRQn\000"
 12802      5F325F49 
 12802      52516E00 
 12803              	.LASF1236:
 12804 6340 5F474C4F 		.ascii	"_GLOBAL_ATEXIT (_GLOBAL_REENT->_atexit)\000"
 12804      42414C5F 
 12804      41544558 
 12804      49542028 
 12804      5F474C4F 
 12805              	.LASF643:
 12806 6368 4C50435F 		.ascii	"LPC_GPIO_PORT2_BASE 0x50020000\000"
 12806      4750494F 
 12806      5F504F52 
 12806      54325F42 
 12806      41534520 
 12807              	.LASF956:
 12808 6387 4932435F 		.ascii	"I2C_I2STAT_M_TX_START ((0x08))\000"
 12808      49325354 
 12808      41545F4D 
 12808      5F54585F 
 12808      53544152 
 12809              	.LASF1126:
 12810 63a6 5F425344 		.ascii	"_BSD_SIZE_T_ \000"
 12810      5F53495A 
 12810      455F545F 
 12810      2000
 12811              	.LASF907:
 12812 63b4 5F5F524F 		.ascii	"__ROMAPI_11XX_H_ \000"
 12812      4D415049 
 12812      5F313158 
 12812      585F485F 
 12812      2000
 12813              	.LASF1550:
 12814 63c6 43414E53 		.ascii	"CANSTAT\000"
 12814      54415400 
 12815              	.LASF1348:
 12816 63ce 5F5F7472 		.ascii	"__trylocks_shared(...) __lock_annotate(shared_trylo"
 12816      796C6F63 
 12816      6B735F73 
ARM GAS  /var/folders/z0/6xlwn_996xz3mwq1cgzkbq4r0000gp/T//ccjakVr1.s 			page 314


 12816      68617265 
 12816      64282E2E 
 12817 6401 636B5F66 		.ascii	"ck_function(__VA_ARGS__))\000"
 12817      756E6374 
 12817      696F6E28 
 12817      5F5F5641 
 12817      5F415247 
 12818              	.LASF66:
 12819 641b 5F5F6861 		.ascii	"__has_include_next(STR) __has_include_next__(STR)\000"
 12819      735F696E 
 12819      636C7564 
 12819      655F6E65 
 12819      78742853 
 12820              	.LASF1173:
 12821 644d 756E7369 		.ascii	"unsigned signed\000"
 12821      676E6564 
 12821      20736967 
 12821      6E656400 
 12822              	.LASF117:
 12823 645d 5F5F494E 		.ascii	"__INTPTR_MAX__ 0x7fffffff\000"
 12823      54505452 
 12823      5F4D4158 
 12823      5F5F2030 
 12823      78376666 
 12824              	.LASF1610:
 12825 6477 4343414E 		.ascii	"CCAN_CANOPENCFG_T\000"
 12825      5F43414E 
 12825      4F50454E 
 12825      4346475F 
 12825      5400
 12826              	.LASF1677:
 12827 6489 43414E5F 		.ascii	"CAN_SetMask1\000"
 12827      5365744D 
 12827      61736B31 
 12827      00
 12828              	.LASF1678:
 12829 6496 43414E5F 		.ascii	"CAN_SetMask2\000"
 12829      5365744D 
 12829      61736B32 
 12829      00
 12830              	.LASF317:
 12831 64a3 5F5F4743 		.ascii	"__GCC_ATOMIC_POINTER_LOCK_FREE 1\000"
 12831      435F4154 
 12831      4F4D4943 
 12831      5F504F49 
 12831      4E544552 
 12832              	.LASF940:
 12833 64c4 4932435F 		.ascii	"I2C_I2CONSET_STA ((0x20))\000"
 12833      4932434F 
 12833      4E534554 
 12833      5F535441 
 12833      20282830 
 12834              	.LASF1469:
 12835 64de 434C4B4F 		.ascii	"CLKOUTDIV\000"
 12835      55544449 
 12835      5600
 12836              	.LASF1018:
ARM GAS  /var/folders/z0/6xlwn_996xz3mwq1cgzkbq4r0000gp/T//ccjakVr1.s 			page 315


 12837 64e8 43414E5F 		.ascii	"CAN_ERROR_ACK 0x00000020UL\000"
 12837      4552524F 
 12837      525F4143 
 12837      4B203078 
 12837      30303030 
 12838              	.LASF145:
 12839 6503 5F5F4442 		.ascii	"__DBL_MAX__ ((double)1.7976931348623157e+308L)\000"
 12839      4C5F4D41 
 12839      585F5F20 
 12839      2828646F 
 12839      75626C65 
 12840              	.LASF780:
 12841 6532 55415254 		.ascii	"UART_IIR_INTID_RDA (2 << 1)\000"
 12841      5F494952 
 12841      5F494E54 
 12841      49445F52 
 12841      44412028 
 12842              	.LASF566:
 12843 654e 5343425F 		.ascii	"SCB_ICSR_ISRPREEMPT_Msk (1UL << SCB_ICSR_ISRPREEMPT"
 12843      49435352 
 12843      5F495352 
 12843      50524545 
 12843      4D50545F 
 12844 6581 5F506F73 		.ascii	"_Pos)\000"
 12844      2900
 12845              	.LASF920:
 12846 6587 4144435F 		.ascii	"ADC_CR_START_MASK ((7UL << 24))\000"
 12846      43525F53 
 12846      54415254 
 12846      5F4D4153 
 12846      4B202828 
 12847              	.LASF1390:
 12848 65a7 50494F30 		.ascii	"PIO0_1_IRQn\000"
 12848      5F315F49 
 12848      52516E00 
 12849              	.LASF1317:
 12850 65b3 5F5F6869 		.ascii	"__hidden __attribute__((__visibility__(\"hidden\"))"
 12850      6464656E 
 12850      205F5F61 
 12850      74747269 
 12850      62757465 
 12851 65e4 2900     		.ascii	")\000"
 12852              	.LASF24:
 12853 65e6 5F5F4F52 		.ascii	"__ORDER_LITTLE_ENDIAN__ 1234\000"
 12853      4445525F 
 12853      4C495454 
 12853      4C455F45 
 12853      4E444941 
 12854              	.LASF992:
 12855 6603 4932435F 		.ascii	"I2C_I2ADR_GC ((1 << 0))\000"
 12855      49324144 
 12855      525F4743 
 12855      20282831 
 12855      203C3C20 
 12856              	.LASF829:
 12857 661b 55415254 		.ascii	"UART_MSR_DELTA_DSR (1 << 1)\000"
 12857      5F4D5352 
ARM GAS  /var/folders/z0/6xlwn_996xz3mwq1cgzkbq4r0000gp/T//ccjakVr1.s 			page 316


 12857      5F44454C 
 12857      54415F44 
 12857      53522028 
 12858              	.LASF385:
 12859 6637 5F5F4558 		.ascii	"__EXP\000"
 12859      5000
 12860              	.LASF671:
 12861 663d 5F5F5359 		.ascii	"__SYSCTL_11XX_H_ \000"
 12861      5343544C 
 12861      5F313158 
 12861      585F485F 
 12861      2000
 12862              	.LASF175:
 12863 664f 5F5F4445 		.ascii	"__DEC64_MAX_EXP__ 385\000"
 12863      4336345F 
 12863      4D41585F 
 12863      4558505F 
 12863      5F203338 
 12864              	.LASF1693:
 12865 6665 6D73675F 		.ascii	"msg_obj_stat\000"
 12865      6F626A5F 
 12865      73746174 
 12865      00
 12866              	.LASF1266:
 12867 6672 5F5F474E 		.ascii	"__GNUC_VA_LIST_COMPATIBILITY 1\000"
 12867      55435F56 
 12867      415F4C49 
 12867      53545F43 
 12867      4F4D5041 
 12868              	.LASF1224:
 12869 6691 5F524545 		.ascii	"_REENT_MBRTOWC_STATE(ptr) ((ptr)->_new._reent._mbrt"
 12869      4E545F4D 
 12869      4252544F 
 12869      57435F53 
 12869      54415445 
 12870 66c4 6F77635F 		.ascii	"owc_state)\000"
 12870      73746174 
 12870      652900
 12871              	.LASF163:
 12872 66cf 5F5F4C44 		.ascii	"__LDBL_HAS_DENORM__ 1\000"
 12872      424C5F48 
 12872      41535F44 
 12872      454E4F52 
 12872      4D5F5F20 
 12873              	.LASF1662:
 12874 66e5 73656E74 		.ascii	"sent\000"
 12874      00
 12875              	.LASF1107:
 12876 66ea 5F414E53 		.ascii	"_ANSI_STDDEF_H \000"
 12876      495F5354 
 12876      44444546 
 12876      5F482000 
 12877              	.LASF399:
 12878 66fa 73686F72 		.ascii	"short +1\000"
 12878      74202B31 
 12878      00
 12879              	.LASF490:
ARM GAS  /var/folders/z0/6xlwn_996xz3mwq1cgzkbq4r0000gp/T//ccjakVr1.s 			page 317


 12880 6703 57494E54 		.ascii	"WINT_MIN (__WINT_MIN__)\000"
 12880      5F4D494E 
 12880      20285F5F 
 12880      57494E54 
 12880      5F4D494E 
 12881              	.LASF111:
 12882 671b 5F5F494E 		.ascii	"__INT_FAST32_MAX__ 0x7fffffff\000"
 12882      545F4641 
 12882      53543332 
 12882      5F4D4158 
 12882      5F5F2030 
 12883              	.LASF1702:
 12884 6739 52696E67 		.ascii	"RingBuffer_Init\000"
 12884      42756666 
 12884      65725F49 
 12884      6E697400 
 12885              	.LASF973:
 12886 6749 4932435F 		.ascii	"I2C_I2STAT_S_RX_ARB_LOST_M_GENCALL ((0x78))\000"
 12886      49325354 
 12886      41545F53 
 12886      5F52585F 
 12886      4152425F 
 12887              	.LASF879:
 12888 6775 57574454 		.ascii	"WWDT_WDMOD_WDPROTECT ((uint32_t) (1 << 4))\000"
 12888      5F57444D 
 12888      4F445F57 
 12888      4450524F 
 12888      54454354 
 12889              	.LASF827:
 12890 67a0 55415254 		.ascii	"UART1_LSR_BITMASK (0x1FF)\000"
 12890      315F4C53 
 12890      525F4249 
 12890      544D4153 
 12890      4B202830 
 12891              	.LASF1192:
 12892 67ba 5F52414E 		.ascii	"_RAND48_MULT_2 (0x0005)\000"
 12892      4434385F 
 12892      4D554C54 
 12892      5F322028 
 12892      30783030 
 12893              	.LASF510:
 12894 67d2 5F424954 		.ascii	"_BIT(n) (1 << (n))\000"
 12894      286E2920 
 12894      2831203C 
 12894      3C20286E 
 12894      292900
 12895              	.LASF1179:
 12896 67e5 5F434C4F 		.ascii	"_CLOCKID_T_ unsigned long\000"
 12896      434B4944 
 12896      5F545F20 
 12896      756E7369 
 12896      676E6564 
 12897              	.LASF1276:
 12898 67ff 5F5F4343 		.ascii	"__CC_SUPPORTS_VARADIC_XXX 1\000"
 12898      5F535550 
 12898      504F5254 
 12898      535F5641 
ARM GAS  /var/folders/z0/6xlwn_996xz3mwq1cgzkbq4r0000gp/T//ccjakVr1.s 			page 318


 12898      52414449 
 12899              	.LASF341:
 12900 681b 5F5F5553 		.ascii	"__USES_INITFINI__ 1\000"
 12900      45535F49 
 12900      4E495446 
 12900      494E495F 
 12900      5F203100 
 12901              	.LASF313:
 12902 682f 5F5F4743 		.ascii	"__GCC_ATOMIC_INT_LOCK_FREE 1\000"
 12902      435F4154 
 12902      4F4D4943 
 12902      5F494E54 
 12902      5F4C4F43 
 12903              	.LASF657:
 12904 684c 4C50435F 		.ascii	"LPC_SSP0 ((LPC_SSP_T *) LPC_SSP0_BASE)\000"
 12904      53535030 
 12904      2028284C 
 12904      50435F53 
 12904      53505F54 
 12905              	.LASF1598:
 12906 6873 4343414E 		.ascii	"CCAN_ODENTRY\000"
 12906      5F4F4445 
 12906      4E545259 
 12906      00
 12907              	.LASF646:
 12908 6880 4C50435F 		.ascii	"LPC_ROM_API_BASE_LOC 0x1FFF1FF8\000"
 12908      524F4D5F 
 12908      4150495F 
 12908      42415345 
 12908      5F4C4F43 
 12909              	.LASF1251:
 12910 68a0 5F5F6861 		.ascii	"__has_extension __has_feature\000"
 12910      735F6578 
 12910      74656E73 
 12910      696F6E20 
 12910      5F5F6861 
 12911              	.LASF303:
 12912 68be 5F5F5245 		.ascii	"__REGISTER_PREFIX__ \000"
 12912      47495354 
 12912      45525F50 
 12912      52454649 
 12912      585F5F20 
 12913              	.LASF1601:
 12914 68d3 4343414E 		.ascii	"CCAN_CANOPENCFG\000"
 12914      5F43414E 
 12914      4F50454E 
 12914      43464700 
 12915              	.LASF629:
 12916 68e3 4C50435F 		.ascii	"LPC_TIMER32_1_BASE 0x40018000\000"
 12916      54494D45 
 12916      5233325F 
 12916      315F4241 
 12916      53452030 
 12917              	.LASF1349:
 12918 6901 5F5F756E 		.ascii	"__unlocks(...) __lock_annotate(unlock_function(__VA"
 12918      6C6F636B 
 12918      73282E2E 
ARM GAS  /var/folders/z0/6xlwn_996xz3mwq1cgzkbq4r0000gp/T//ccjakVr1.s 			page 319


 12918      2E29205F 
 12918      5F6C6F63 
 12919 6934 5F415247 		.ascii	"_ARGS__))\000"
 12919      535F5F29 
 12919      2900
 12920              	.LASF1562:
 12921 693e 43414E49 		.ascii	"CANIF1_DA1\000"
 12921      46315F44 
 12921      413100
 12922              	.LASF195:
 12923 6949 5F5F5553 		.ascii	"__USFRACT_MAX__ 0XFFP-8UHR\000"
 12923      46524143 
 12923      545F4D41 
 12923      585F5F20 
 12923      30584646 
 12924              	.LASF1191:
 12925 6964 5F52414E 		.ascii	"_RAND48_MULT_1 (0xdeec)\000"
 12925      4434385F 
 12925      4D554C54 
 12925      5F312028 
 12925      30786465 
 12926              	.LASF348:
 12927 697c 5F5F4C50 		.ascii	"__LPC_TYPES_H_ \000"
 12927      435F5459 
 12927      5045535F 
 12927      485F2000 
 12928              	.LASF1630:
 12929 698c 43414E5F 		.ascii	"CAN_ERROR\000"
 12929      4552524F 
 12929      5200
 12930              	.LASF45:
 12931 6996 5F5F5549 		.ascii	"__UINT32_TYPE__ long unsigned int\000"
 12931      4E543332 
 12931      5F545950 
 12931      455F5F20 
 12931      6C6F6E67 
 12932              	.LASF1664:
 12933 69b8 42617564 		.ascii	"Baudrate_Calculate\000"
 12933      72617465 
 12933      5F43616C 
 12933      63756C61 
 12933      746500
 12934              	.LASF1055:
 12935 69cb 5F535452 		.ascii	"_STRING_H_ \000"
 12935      494E475F 
 12935      485F2000 
 12936              	.LASF877:
 12937 69d7 57574454 		.ascii	"WWDT_WDMOD_WDTOF ((uint32_t) (1 << 2))\000"
 12937      5F57444D 
 12937      4F445F57 
 12937      44544F46 
 12937      20282875 
 12938              	.LASF818:
 12939 69fe 55415254 		.ascii	"UART_LSR_OE (1 << 1)\000"
 12939      5F4C5352 
 12939      5F4F4520 
 12939      2831203C 
ARM GAS  /var/folders/z0/6xlwn_996xz3mwq1cgzkbq4r0000gp/T//ccjakVr1.s 			page 320


 12939      3C203129 
 12940              	.LASF141:
 12941 6a13 5F5F4442 		.ascii	"__DBL_MIN_10_EXP__ (-307)\000"
 12941      4C5F4D49 
 12941      4E5F3130 
 12941      5F455850 
 12941      5F5F2028 
 12942              	.LASF1330:
 12943 6a2d 5F5F7761 		.ascii	"__warn_references(sym,msg) __asm__(\".section .gnu."
 12943      726E5F72 
 12943      65666572 
 12943      656E6365 
 12943      73287379 
 12944 6a5f 7761726E 		.ascii	"warning.\" #sym); __asm__(\".asciz \\\"\" msg \"\\\""
 12944      696E672E 
 12944      22202373 
 12944      796D293B 
 12944      205F5F61 
 12945 6a8b 22293B20 		.ascii	"\"); __asm__(\".previous\")\000"
 12945      5F5F6173 
 12945      6D5F5F28 
 12945      222E7072 
 12945      6576696F 
 12946              	.LASF1216:
 12947 6aa4 5F524545 		.ascii	"_REENT_ASCTIME_BUF(ptr) ((ptr)->_new._reent._asctim"
 12947      4E545F41 
 12947      53435449 
 12947      4D455F42 
 12947      55462870 
 12948 6ad7 655F6275 		.ascii	"e_buf)\000"
 12948      662900
 12949              	.LASF881:
 12950 6ade 5353505F 		.ascii	"SSP_CR0_DSS(n) ((uint32_t) ((n) & 0xF))\000"
 12950      4352305F 
 12950      44535328 
 12950      6E292028 
 12950      2875696E 
 12951              	.LASF281:
 12952 6b06 5F5F5553 		.ascii	"__USQ_FBIT__ 32\000"
 12952      515F4642 
 12952      49545F5F 
 12952      20333200 
 12953              	.LASF698:
 12954 6b16 5F5F494F 		.ascii	"__IOCON_11XX_H_ \000"
 12954      434F4E5F 
 12954      31315858 
 12954      5F485F20 
 12954      00
 12955              	.LASF55:
 12956 6b27 5F5F494E 		.ascii	"__INT_FAST8_TYPE__ int\000"
 12956      545F4641 
 12956      5354385F 
 12956      54595045 
 12956      5F5F2069 
 12957              	.LASF500:
 12958 6b3e 55494E54 		.ascii	"UINTMAX_C(x) __UINTMAX_C(x)\000"
 12958      4D41585F 
ARM GAS  /var/folders/z0/6xlwn_996xz3mwq1cgzkbq4r0000gp/T//ccjakVr1.s 			page 321


 12958      43287829 
 12958      205F5F55 
 12958      494E544D 
 12959              	.LASF832:
 12960 6b5a 55415254 		.ascii	"UART_MSR_CTS (1 << 4)\000"
 12960      5F4D5352 
 12960      5F435453 
 12960      20283120 
 12960      3C3C2034 
 12961              	.LASF699:
 12962 6b70 494F434F 		.ascii	"IOCON_FUNC0 0x0\000"
 12962      4E5F4655 
 12962      4E433020 
 12962      30783000 
 12963              	.LASF1325:
 12964 6b80 5F5F7374 		.ascii	"__strftimelike(fmtarg,firstvararg) __attribute__((_"
 12964      72667469 
 12964      6D656C69 
 12964      6B652866 
 12964      6D746172 
 12965 6bb3 5F666F72 		.ascii	"_format__ (__strftime__, fmtarg, firstvararg)))\000"
 12965      6D61745F 
 12965      5F20285F 
 12965      5F737472 
 12965      6674696D 
 12966              	.LASF874:
 12967 6be3 57574454 		.ascii	"WWDT_WDMOD_BITMASK ((uint32_t) 0x1F)\000"
 12967      5F57444D 
 12967      4F445F42 
 12967      49544D41 
 12967      534B2028 
 12968              	.LASF1564:
 12969 6c08 43414E49 		.ascii	"CANIF1_DB1\000"
 12969      46315F44 
 12969      423100
 12970              	.LASF1565:
 12971 6c13 43414E49 		.ascii	"CANIF1_DB2\000"
 12971      46315F44 
 12971      423200
 12972              	.LASF391:
 12973 6c1e 756E7369 		.ascii	"unsigned\000"
 12973      676E6564 
 12973      00
 12974              	.LASF814:
 12975 6c27 55415254 		.ascii	"UART_MCR_AUTO_RTS_EN (1 << 6)\000"
 12975      5F4D4352 
 12975      5F415554 
 12975      4F5F5254 
 12975      535F454E 
 12976              	.LASF1:
 12977 6c45 5F5F5354 		.ascii	"__STDC_HOSTED__ 1\000"
 12977      44435F48 
 12977      4F535445 
 12977      445F5F20 
 12977      3100
 12978              	.LASF512:
 12979 6c57 5F534246 		.ascii	"_SBF(f,v) ((v) << (f))\000"
ARM GAS  /var/folders/z0/6xlwn_996xz3mwq1cgzkbq4r0000gp/T//ccjakVr1.s 			page 322


 12979      28662C76 
 12979      29202828 
 12979      7629203C 
 12979      3C202866 
 12980              	.LASF82:
 12981 6c6e 5F5F5549 		.ascii	"__UINTMAX_C(c) c ## ULL\000"
 12981      4E544D41 
 12981      585F4328 
 12981      63292063 
 12981      20232320 
 12982              	.LASF179:
 12983 6c86 5F5F4445 		.ascii	"__DEC64_SUBNORMAL_MIN__ 0.000000000000001E-383DD\000"
 12983      4336345F 
 12983      5355424E 
 12983      4F524D41 
 12983      4C5F4D49 
 12984              	.LASF1117:
 12985 6cb7 5F5F6E65 		.ascii	"__need_ptrdiff_t\000"
 12985      65645F70 
 12985      74726469 
 12985      66665F74 
 12985      00
 12986              	.LASF908:
 12987 6cc8 5F5F4C50 		.ascii	"__LPC_ERROR_H__ \000"
 12987      435F4552 
 12987      524F525F 
 12987      485F5F20 
 12987      00
 12988              	.LASF715:
 12989 6cd9 494F434F 		.ascii	"IOCON_SFI2C_EN (0x0 << 8)\000"
 12989      4E5F5346 
 12989      4932435F 
 12989      454E2028 
 12989      30783020 
 12990              	.LASF737:
 12991 6cf3 46554E43 		.ascii	"FUNC3 0x3\000"
 12991      33203078 
 12991      3300
 12992              	.LASF328:
 12993 6cfd 5F5F4150 		.ascii	"__APCS_32__ 1\000"
 12993      43535F33 
 12993      325F5F20 
 12993      3100
 12994              	.LASF1569:
 12995 6d0b 43414E49 		.ascii	"CANIF2_ARB1\000"
 12995      46325F41 
 12995      52423100 
 12996              	.LASF1570:
 12997 6d17 43414E49 		.ascii	"CANIF2_ARB2\000"
 12997      46325F41 
 12997      52423200 
 12998              	.LASF445:
 12999 6d23 55494E54 		.ascii	"UINT8_MAX (__UINT8_MAX__)\000"
 12999      385F4D41 
 12999      5820285F 
 12999      5F55494E 
 12999      54385F4D 
ARM GAS  /var/folders/z0/6xlwn_996xz3mwq1cgzkbq4r0000gp/T//ccjakVr1.s 			page 323


 13000              	.LASF1370:
 13001 6d3d 6C6F6E67 		.ascii	"long int\000"
 13001      20696E74 
 13001      00
 13002              	.LASF1088:
 13003 6d46 5F534947 		.ascii	"_SIGNED signed\000"
 13003      4E454420 
 13003      7369676E 
 13003      656400
 13004              	.LASF76:
 13005 6d55 5F5F5749 		.ascii	"__WINT_MIN__ 0U\000"
 13005      4E545F4D 
 13005      494E5F5F 
 13005      20305500 
 13006              	.LASF606:
 13007 6d65 53797354 		.ascii	"SysTick_VAL_CURRENT_Msk (0xFFFFFFUL << SysTick_VAL_"
 13007      69636B5F 
 13007      56414C5F 
 13007      43555252 
 13007      454E545F 
 13008 6d98 43555252 		.ascii	"CURRENT_Pos)\000"
 13008      454E545F 
 13008      506F7329 
 13008      00
 13009              	.LASF520:
 13010 6da5 4D415828 		.ascii	"MAX(a,b) (((a) > (b)) ? (a) : (b))\000"
 13010      612C6229 
 13010      20282828 
 13010      6129203E 
 13010      20286229 
 13011              	.LASF517:
 13012 6dc8 53544154 		.ascii	"STATIC static\000"
 13012      49432073 
 13012      74617469 
 13012      6300
 13013              	.LASF1001:
 13014 6dd6 4932435F 		.ascii	"I2C_BYTE_SENT 0x01\000"
 13014      42595445 
 13014      5F53454E 
 13014      54203078 
 13014      303100
 13015              	.LASF367:
 13016 6de9 5F5F4154 		.ascii	"__ATFILE_VISIBLE 1\000"
 13016      46494C45 
 13016      5F564953 
 13016      49424C45 
 13016      203100
 13017              	.LASF1235:
 13018 6dfc 5F474C4F 		.ascii	"_GLOBAL_REENT _global_impure_ptr\000"
 13018      42414C5F 
 13018      5245454E 
 13018      54205F67 
 13018      6C6F6261 
 13019              	.LASF1044:
 13020 6e1d 4F445F45 		.ascii	"OD_EXP_RW 0x30\000"
 13020      58505F52 
 13020      57203078 
ARM GAS  /var/folders/z0/6xlwn_996xz3mwq1cgzkbq4r0000gp/T//ccjakVr1.s 			page 324


 13020      333000
 13021              	.LASF1145:
 13022 6e2c 5F574348 		.ascii	"_WCHAR_T_DEFINED \000"
 13022      41525F54 
 13022      5F444546 
 13022      494E4544 
 13022      2000
 13023              	.LASF1197:
 13024 6e3e 5F4E5F4C 		.ascii	"_N_LISTS 30\000"
 13024      49535453 
 13024      20333000 
 13025              	.LASF499:
 13026 6e4a 494E544D 		.ascii	"INTMAX_C(x) __INTMAX_C(x)\000"
 13026      41585F43 
 13026      28782920 
 13026      5F5F494E 
 13026      544D4158 
 13027              	.LASF720:
 13028 6e64 4D445F50 		.ascii	"MD_PLN (0x0 << 3)\000"
 13028      4C4E2028 
 13028      30783020 
 13028      3C3C2033 
 13028      2900
 13029              	.LASF31:
 13030 6e76 5F5F5054 		.ascii	"__PTRDIFF_TYPE__ int\000"
 13030      52444946 
 13030      465F5459 
 13030      50455F5F 
 13030      20696E74 
 13031              	.LASF1691:
 13032 6e8b 63616E5F 		.ascii	"can_error_flag\000"
 13032      6572726F 
 13032      725F666C 
 13032      616700
 13033              	.LASF309:
 13034 6e9a 5F5F4743 		.ascii	"__GCC_ATOMIC_CHAR16_T_LOCK_FREE 1\000"
 13034      435F4154 
 13034      4F4D4943 
 13034      5F434841 
 13034      5231365F 
 13035              	.LASF549:
 13036 6ebc 5343425F 		.ascii	"SCB_CPUID_ARCHITECTURE_Pos 16\000"
 13036      43505549 
 13036      445F4152 
 13036      43484954 
 13036      45435455 
 13037              	.LASF1356:
 13038 6eda 5F5F6775 		.ascii	"__guarded_by(x) __lock_annotate(guarded_by(x))\000"
 13038      61726465 
 13038      645F6279 
 13038      28782920 
 13038      5F5F6C6F 
 13039              	.LASF688:
 13040 6f09 53595343 		.ascii	"SYSCTL_POWERDOWN_IRCOUT_PD (1 << 0)\000"
 13040      544C5F50 
 13040      4F574552 
 13040      444F574E 
ARM GAS  /var/folders/z0/6xlwn_996xz3mwq1cgzkbq4r0000gp/T//ccjakVr1.s 			page 325


 13040      5F495243 
 13041              	.LASF1075:
 13042 6f2d 5F5F4558 		.ascii	"__EXPORT \000"
 13042      504F5254 
 13042      2000
 13043              	.LASF1238:
 13044 6f37 5F5F504D 		.ascii	"__PMT(args) args\000"
 13044      54286172 
 13044      67732920 
 13044      61726773 
 13044      00
 13045              	.LASF1670:
 13046 6f48 73656731 		.ascii	"seg1\000"
 13046      00
 13047              	.LASF1559:
 13048 6f4d 43414E49 		.ascii	"CANIF1_ARB1\000"
 13048      46315F41 
 13048      52423100 
 13049              	.LASF1560:
 13050 6f59 43414E49 		.ascii	"CANIF1_ARB2\000"
 13050      46315F41 
 13050      52423200 
 13051              	.LASF1112:
 13052 6f65 5F505452 		.ascii	"_PTRDIFF_T_ \000"
 13052      44494646 
 13052      5F545F20 
 13052      00
 13053              	.LASF1287:
 13054 6f72 5F5F6465 		.ascii	"__dead2 __attribute__((__noreturn__))\000"
 13054      61643220 
 13054      5F5F6174 
 13054      74726962 
 13054      7574655F 
 13055              	.LASF1697:
 13056 6f98 746D705F 		.ascii	"tmp_msg_obj\000"
 13056      6D73675F 
 13056      6F626A00 
 13057              	.LASF519:
 13058 6fa4 554E5553 		.ascii	"UNUSED(x) (void)(x)\000"
 13058      45442878 
 13058      29202876 
 13058      6F696429 
 13058      28782900 
 13059              	.LASF375:
 13060 6fb8 5F5F5853 		.ascii	"__XSI_VISIBLE 0\000"
 13060      495F5649 
 13060      5349424C 
 13060      45203000 
 13061              	.LASF746:
 13062 6fc8 54494D45 		.ascii	"TIMER_ENABLE ((uint32_t) (1 << 0))\000"
 13062      525F454E 
 13062      41424C45 
 13062      20282875 
 13062      696E7433 
 13063              	.LASF1111:
 13064 6feb 5F5F5054 		.ascii	"__PTRDIFF_T \000"
 13064      52444946 
ARM GAS  /var/folders/z0/6xlwn_996xz3mwq1cgzkbq4r0000gp/T//ccjakVr1.s 			page 326


 13064      465F5420 
 13064      00
 13065              	.LASF862:
 13066 6ff8 55415254 		.ascii	"UART_FDR_MULVAL(n) ((n << 4) & 0xF0)\000"
 13066      5F464452 
 13066      5F4D554C 
 13066      56414C28 
 13066      6E292028 
 13067              	.LASF257:
 13068 701d 5F5F4C4C 		.ascii	"__LLACCUM_FBIT__ 31\000"
 13068      41434355 
 13068      4D5F4642 
 13068      49545F5F 
 13068      20333100 
 13069              	.LASF608:
 13070 7031 53797354 		.ascii	"SysTick_CALIB_NOREF_Msk (1UL << SysTick_CALIB_NOREF"
 13070      69636B5F 
 13070      43414C49 
 13070      425F4E4F 
 13070      5245465F 
 13071 7064 5F506F73 		.ascii	"_Pos)\000"
 13071      2900
 13072              	.LASF413:
 13073 706a 5F5F4C45 		.ascii	"__LEAST8 \"hh\"\000"
 13073      41535438 
 13073      20226868 
 13073      2200
 13074              	.LASF1324:
 13075 7078 5F5F7374 		.ascii	"__strfmonlike(fmtarg,firstvararg) __attribute__((__"
 13075      72666D6F 
 13075      6E6C696B 
 13075      6528666D 
 13075      74617267 
 13076 70ab 666F726D 		.ascii	"format__ (__strfmon__, fmtarg, firstvararg)))\000"
 13076      61745F5F 
 13076      20285F5F 
 13076      73747266 
 13076      6D6F6E5F 
 13077              	.LASF888:
 13078 70d9 5353505F 		.ascii	"SSP_CR0_CPHA_SECOND ((uint32_t) (1 << 7))\000"
 13078      4352305F 
 13078      43504841 
 13078      5F534543 
 13078      4F4E4420 
 13079              	.LASF1362:
 13080 7103 43414E5F 		.ascii	"CAN_BUF_SIZE 16\000"
 13080      4255465F 
 13080      53495A45 
 13080      20313600 
 13081              	.LASF277:
 13082 7113 5F5F5551 		.ascii	"__UQQ_FBIT__ 8\000"
 13082      515F4642 
 13082      49545F5F 
 13082      203800
 13083              	.LASF227:
 13084 7122 5F5F5341 		.ascii	"__SACCUM_FBIT__ 7\000"
 13084      4343554D 
ARM GAS  /var/folders/z0/6xlwn_996xz3mwq1cgzkbq4r0000gp/T//ccjakVr1.s 			page 327


 13084      5F464249 
 13084      545F5F20 
 13084      3700
 13085              	.LASF269:
 13086 7134 5F5F4851 		.ascii	"__HQ_FBIT__ 15\000"
 13086      5F464249 
 13086      545F5F20 
 13086      313500
 13087              	.LASF844:
 13088 7143 55415254 		.ascii	"UART_RS485CTRL_RX_DIS (1 << 1)\000"
 13088      5F525334 
 13088      38354354 
 13088      524C5F52 
 13088      585F4449 
 13089              	.LASF258:
 13090 7162 5F5F4C4C 		.ascii	"__LLACCUM_IBIT__ 32\000"
 13090      41434355 
 13090      4D5F4942 
 13090      49545F5F 
 13090      20333200 
 13091              	.LASF598:
 13092 7176 53797354 		.ascii	"SysTick_CTRL_CLKSOURCE_Msk (1UL << SysTick_CTRL_CLK"
 13092      69636B5F 
 13092      4354524C 
 13092      5F434C4B 
 13092      534F5552 
 13093 71a9 534F5552 		.ascii	"SOURCE_Pos)\000"
 13093      43455F50 
 13093      6F732900 
 13094              	.LASF1669:
 13095 71b5 73656773 		.ascii	"segs\000"
 13095      00
 13096              	.LASF1666:
 13097 71ba 63616E5F 		.ascii	"can_api_timing_cfg\000"
 13097      6170695F 
 13097      74696D69 
 13097      6E675F63 
 13097      666700
 13098              	.LASF1124:
 13099 71cd 5F5F5349 		.ascii	"__SIZE_T \000"
 13099      5A455F54 
 13099      2000
 13100              	.LASF1567:
 13101 71d7 43414E49 		.ascii	"CANIF2_MSK1\000"
 13101      46325F4D 
 13101      534B3100 
 13102              	.LASF1568:
 13103 71e3 43414E49 		.ascii	"CANIF2_MSK2\000"
 13103      46325F4D 
 13103      534B3200 
 13104              	.LASF664:
 13105 71ef 4C50435F 		.ascii	"LPC_ROM_API (*((LPC_ROM_API_T * *) LPC_ROM_API_BASE"
 13105      524F4D5F 
 13105      41504920 
 13105      282A2828 
 13105      4C50435F 
 13106 7222 5F4C4F43 		.ascii	"_LOC))\000"
ARM GAS  /var/folders/z0/6xlwn_996xz3mwq1cgzkbq4r0000gp/T//ccjakVr1.s 			page 328


 13106      292900
 13107              	.LASF1165:
 13108 7229 5F5F6C6F 		.ascii	"__lock_close_recursive(lock) (_CAST_VOID 0)\000"
 13108      636B5F63 
 13108      6C6F7365 
 13108      5F726563 
 13108      75727369 
 13109              	.LASF153:
 13110 7255 5F5F4C44 		.ascii	"__LDBL_DIG__ 15\000"
 13110      424C5F44 
 13110      49475F5F 
 13110      20313500 
 13111              	.LASF37:
 13112 7265 5F5F4348 		.ascii	"__CHAR32_TYPE__ long unsigned int\000"
 13112      41523332 
 13112      5F545950 
 13112      455F5F20 
 13112      6C6F6E67 
 13113              	.LASF1182:
 13114 7287 5F5F4C6F 		.ascii	"__Long long\000"
 13114      6E67206C 
 13114      6F6E6700 
 13115              	.LASF312:
 13116 7293 5F5F4743 		.ascii	"__GCC_ATOMIC_SHORT_LOCK_FREE 1\000"
 13116      435F4154 
 13116      4F4D4943 
 13116      5F53484F 
 13116      52545F4C 
 13117              	.LASF999:
 13118 72b2 4932435F 		.ascii	"I2C_SETUP_STATUS_DONE (1 << 10)\000"
 13118      53455455 
 13118      505F5354 
 13118      41545553 
 13118      5F444F4E 
 13119              	.LASF215:
 13120 72d2 5F5F554C 		.ascii	"__ULFRACT_MAX__ 0XFFFFFFFFP-32ULR\000"
 13120      46524143 
 13120      545F4D41 
 13120      585F5F20 
 13120      30584646 
 13121              	.LASF1339:
 13122 72f4 5F5F4445 		.ascii	"__DEVOLATILE(type,var) ((type)(__uintptr_t)(volatil"
 13122      564F4C41 
 13122      54494C45 
 13122      28747970 
 13122      652C7661 
 13123 7327 6520766F 		.ascii	"e void *)(var))\000"
 13123      6964202A 
 13123      29287661 
 13123      72292900 
 13124              	.LASF29:
 13125 7337 5F5F5349 		.ascii	"__SIZEOF_POINTER__ 4\000"
 13125      5A454F46 
 13125      5F504F49 
 13125      4E544552 
 13125      5F5F2034 
 13126              	.LASF1239:
ARM GAS  /var/folders/z0/6xlwn_996xz3mwq1cgzkbq4r0000gp/T//ccjakVr1.s 			page 329


 13127 734c 5F5F444F 		.ascii	"__DOTS , ...\000"
 13127      5453202C 
 13127      202E2E2E 
 13127      00
 13128              	.LASF491:
 13129 7359 494E5438 		.ascii	"INT8_C(x) __INT8_C(x)\000"
 13129      5F432878 
 13129      29205F5F 
 13129      494E5438 
 13129      5F432878 
 13130              	.LASF1303:
 13131 736f 5F5F7075 		.ascii	"__pure __attribute__((__pure__))\000"
 13131      7265205F 
 13131      5F617474 
 13131      72696275 
 13131      74655F5F 
 13132              	.LASF759:
 13133 7390 55415254 		.ascii	"UART_LOAD_DLL(div) ((div) & 0xFF)\000"
 13133      5F4C4F41 
 13133      445F444C 
 13133      4C286469 
 13133      76292028 
 13134              	.LASF35:
 13135 73b2 5F5F5549 		.ascii	"__UINTMAX_TYPE__ long long unsigned int\000"
 13135      4E544D41 
 13135      585F5459 
 13135      50455F5F 
 13135      206C6F6E 
 13136              	.LASF1123:
 13137 73da 5F545F53 		.ascii	"_T_SIZE \000"
 13137      495A4520 
 13137      00
 13138              	.LASF538:
 13139 73e3 5F5F4650 		.ascii	"__FPU_USED 0\000"
 13139      555F5553 
 13139      45442030 
 13139      00
 13140              	.LASF1209:
 13141 73f0 5F524545 		.ascii	"_REENT_RAND48_SEED(ptr) ((ptr)->_new._reent._r48._s"
 13141      4E545F52 
 13141      414E4434 
 13141      385F5345 
 13141      45442870 
 13142 7423 65656429 		.ascii	"eed)\000"
 13142      00
 13143              	.LASF783:
 13144 7428 55415254 		.ascii	"UART_IIR_INTID_MODEM (0 << 1)\000"
 13144      5F494952 
 13144      5F494E54 
 13144      49445F4D 
 13144      4F44454D 
 13145              	.LASF1557:
 13146 7446 43414E49 		.ascii	"CANIF1_MSK1\000"
 13146      46315F4D 
 13146      534B3100 
 13147              	.LASF679:
 13148 7452 53595343 		.ascii	"SYSCTL_DEEPSLP_WDTOSC_PD (1 << 6)\000"
ARM GAS  /var/folders/z0/6xlwn_996xz3mwq1cgzkbq4r0000gp/T//ccjakVr1.s 			page 330


 13148      544C5F44 
 13148      45455053 
 13148      4C505F57 
 13148      44544F53 
 13149              	.LASF1636:
 13150 7474 53545546 		.ascii	"STUF_CAN_ERROR\000"
 13150      5F43414E 
 13150      5F455252 
 13150      4F5200
 13151              	.LASF1309:
 13152 7483 5F5F7265 		.ascii	"__result_use_check __attribute__((__warn_unused_res"
 13152      73756C74 
 13152      5F757365 
 13152      5F636865 
 13152      636B205F 
 13153 74b6 756C745F 		.ascii	"ult__))\000"
 13153      5F292900 
 13154              	.LASF560:
 13155 74be 5343425F 		.ascii	"SCB_ICSR_PENDSVCLR_Msk (1UL << SCB_ICSR_PENDSVCLR_P"
 13155      49435352 
 13155      5F50454E 
 13155      44535643 
 13155      4C525F4D 
 13156 74f1 6F732900 		.ascii	"os)\000"
 13157              	.LASF357:
 13158 74f5 5F5F474E 		.ascii	"__GNUC_PREREQ(maj,min) ((__GNUC__ << 16) + __GNUC_M"
 13158      55435F50 
 13158      52455245 
 13158      51286D61 
 13158      6A2C6D69 
 13159 7528 494E4F52 		.ascii	"INOR__ >= ((maj) << 16) + (min))\000"
 13159      5F5F203E 
 13159      3D202828 
 13159      6D616A29 
 13159      203C3C20 
 13160              	.LASF921:
 13161 7549 4144435F 		.ascii	"ADC_CR_START_MODE_SEL(SEL) ((SEL << 24))\000"
 13161      43525F53 
 13161      54415254 
 13161      5F4D4F44 
 13161      455F5345 
 13162              	.LASF1372:
 13163 7572 6C6F6E67 		.ascii	"long unsigned int\000"
 13163      20756E73 
 13163      69676E65 
 13163      6420696E 
 13163      7400
 13164              	.LASF1231:
 13165 7584 5F524545 		.ascii	"_REENT_INIT_PTR(var) { memset((var), 0, sizeof(*(va"
 13165      4E545F49 
 13165      4E49545F 
 13165      50545228 
 13165      76617229 
 13166 75b7 72292929 		.ascii	"r))); _REENT_INIT_PTR_ZEROED(var); }\000"
 13166      3B205F52 
 13166      45454E54 
 13166      5F494E49 
ARM GAS  /var/folders/z0/6xlwn_996xz3mwq1cgzkbq4r0000gp/T//ccjakVr1.s 			page 331


 13166      545F5054 
 13167              	.LASF543:
 13168 75dc 5F5F4F20 		.ascii	"__O volatile\000"
 13168      766F6C61 
 13168      74696C65 
 13168      00
 13169              	.LASF764:
 13170 75e9 55415254 		.ascii	"UART_IER_THREINT (1 << 1)\000"
 13170      5F494552 
 13170      5F544852 
 13170      45494E54 
 13170      20283120 
 13171              	.LASF13:
 13172 7603 5F5F4649 		.ascii	"__FINITE_MATH_ONLY__ 0\000"
 13172      4E495445 
 13172      5F4D4154 
 13172      485F4F4E 
 13172      4C595F5F 
 13173              	.LASF72:
 13174 761a 5F5F4C4F 		.ascii	"__LONG_LONG_MAX__ 0x7fffffffffffffffLL\000"
 13174      4E475F4C 
 13174      4F4E475F 
 13174      4D41585F 
 13174      5F203078 
 13175              	.LASF1027:
 13176 7641 53444F5F 		.ascii	"SDO_ABORT_SDOTIMEOUT 0x05040000UL\000"
 13176      41424F52 
 13176      545F5344 
 13176      4F54494D 
 13176      454F5554 
 13177              	.LASF443:
 13178 7663 494E5438 		.ascii	"INT8_MIN (-__INT8_MAX__ - 1)\000"
 13178      5F4D494E 
 13178      20282D5F 
 13178      5F494E54 
 13178      385F4D41 
 13179              	.LASF523:
 13180 7680 5F5F5359 		.ascii	"__SYS_CONFIG_H_ \000"
 13180      535F434F 
 13180      4E464947 
 13180      5F485F20 
 13180      00
 13181              	.LASF1029:
 13182 7691 53444F5F 		.ascii	"SDO_ABORT_UNSUPPORTED 0x06010000UL\000"
 13182      41424F52 
 13182      545F554E 
 13182      53555050 
 13182      4F525445 
 13183              	.LASF498:
 13184 76b4 55494E54 		.ascii	"UINT64_C(x) __UINT64_C(x)\000"
 13184      36345F43 
 13184      28782920 
 13184      5F5F5549 
 13184      4E543634 
 13185              	.LASF871:
 13186 76ce 55415254 		.ascii	"UART_SYNCCTRL_STARTSTOPDISABLE (1 << 5)\000"
 13186      5F53594E 
ARM GAS  /var/folders/z0/6xlwn_996xz3mwq1cgzkbq4r0000gp/T//ccjakVr1.s 			page 332


 13186      43435452 
 13186      4C5F5354 
 13186      41525453 
 13187              	.LASF209:
 13188 76f6 5F5F4C46 		.ascii	"__LFRACT_MIN__ (-0.5LR-0.5LR)\000"
 13188      52414354 
 13188      5F4D494E 
 13188      5F5F2028 
 13188      2D302E35 
 13189              	.LASF1064:
 13190 7714 5F484156 		.ascii	"_HAVE_CC_INHIBIT_LOOP_TO_LIBCALL 1\000"
 13190      455F4343 
 13190      5F494E48 
 13190      49424954 
 13190      5F4C4F4F 
 13191              	.LASF588:
 13192 7737 5343425F 		.ascii	"SCB_SCR_SLEEPONEXIT_Msk (1UL << SCB_SCR_SLEEPONEXIT"
 13192      5343525F 
 13192      534C4545 
 13192      504F4E45 
 13192      5849545F 
 13193 776a 5F506F73 		.ascii	"_Pos)\000"
 13193      2900
 13194              	.LASF614:
 13195 7770 53797354 		.ascii	"SysTick_BASE (SCS_BASE + 0x0010UL)\000"
 13195      69636B5F 
 13195      42415345 
 13195      20285343 
 13195      535F4241 
 13196              	.LASF219:
 13197 7793 5F5F4C4C 		.ascii	"__LLFRACT_MIN__ (-0.5LLR-0.5LLR)\000"
 13197      46524143 
 13197      545F4D49 
 13197      4E5F5F20 
 13197      282D302E 
 13198              	.LASF781:
 13199 77b4 55415254 		.ascii	"UART_IIR_INTID_CTI (6 << 1)\000"
 13199      5F494952 
 13199      5F494E54 
 13199      49445F43 
 13199      54492028 
 13200              	.LASF1480:
 13201 77d0 55534243 		.ascii	"USBCLKST\000"
 13201      4C4B5354 
 13201      00
 13202              	.LASF717:
 13203 77d9 494F434F 		.ascii	"IOCON_FASTI2C_EN (0x2 << 8)\000"
 13203      4E5F4641 
 13203      53544932 
 13203      435F454E 
 13203      20283078 
 13204              	.LASF370:
 13205 77f5 5F5F4953 		.ascii	"__ISO_C_VISIBLE 1999\000"
 13205      4F5F435F 
 13205      56495349 
 13205      424C4520 
 13205      31393939 
ARM GAS  /var/folders/z0/6xlwn_996xz3mwq1cgzkbq4r0000gp/T//ccjakVr1.s 			page 333


 13206              	.LASF977:
 13207 780a 4932435F 		.ascii	"I2C_I2STAT_S_RX_PRE_GENCALL_DAT_NACK ((0x98))\000"
 13207      49325354 
 13207      41545F53 
 13207      5F52585F 
 13207      5052455F 
 13208              	.LASF315:
 13209 7838 5F5F4743 		.ascii	"__GCC_ATOMIC_LLONG_LOCK_FREE 1\000"
 13209      435F4154 
 13209      4F4D4943 
 13209      5F4C4C4F 
 13209      4E475F4C 
 13210              	.LASF1237:
 13211 7857 5F535953 		.ascii	"_SYS_CDEFS_H_ \000"
 13211      5F434445 
 13211      46535F48 
 13211      5F2000
 13212              	.LASF509:
 13213 7866 5F424954 		.ascii	"_BIT\000"
 13213      00
 13214              	.LASF1010:
 13215 786b 4932435F 		.ascii	"I2C_MONITOR_CFG_MATCHALL I2C_I2MMCTRL_MATCH_ALL\000"
 13215      4D4F4E49 
 13215      544F525F 
 13215      4346475F 
 13215      4D415443 
 13216              	.LASF969:
 13217 789b 4932435F 		.ascii	"I2C_I2STAT_M_RX_DAT_NACK ((0x58))\000"
 13217      49325354 
 13217      41545F4D 
 13217      5F52585F 
 13217      4441545F 
 13218              	.LASF1529:
 13219 78bd 43484950 		.ascii	"CHIP_SYSCTL_CLOCK_T\000"
 13219      5F535953 
 13219      43544C5F 
 13219      434C4F43 
 13219      4B5F5400 
 13220              	.LASF1494:
 13221 78d1 4C50435F 		.ascii	"LPC_SYSCTL_T\000"
 13221      53595343 
 13221      544C5F54 
 13221      00
 13222              	.LASF564:
 13223 78de 5343425F 		.ascii	"SCB_ICSR_PENDSTCLR_Msk (1UL << SCB_ICSR_PENDSTCLR_P"
 13223      49435352 
 13223      5F50454E 
 13223      44535443 
 13223      4C525F4D 
 13224 7911 6F732900 		.ascii	"os)\000"
 13225              	.LASF618:
 13226 7915 53797354 		.ascii	"SysTick ((SysTick_Type *) SysTick_BASE )\000"
 13226      69636B20 
 13226      28285379 
 13226      73546963 
 13226      6B5F5479 
 13227              	.LASF548:
ARM GAS  /var/folders/z0/6xlwn_996xz3mwq1cgzkbq4r0000gp/T//ccjakVr1.s 			page 334


 13228 793e 5343425F 		.ascii	"SCB_CPUID_VARIANT_Msk (0xFUL << SCB_CPUID_VARIANT_P"
 13228      43505549 
 13228      445F5641 
 13228      5249414E 
 13228      545F4D73 
 13229 7971 6F732900 		.ascii	"os)\000"
 13230              	.LASF392:
 13231 7975 63686172 		.ascii	"char\000"
 13231      00
 13232              	.LASF692:
 13233 797a 53595343 		.ascii	"SYSCTL_POWERDOWN_ADC_PD (1 << 4)\000"
 13233      544C5F50 
 13233      4F574552 
 13233      444F574E 
 13233      5F414443 
 13234              	.LASF1499:
 13235 799b 52455345 		.ascii	"RESET_UART0\000"
 13235      545F5541 
 13235      52543000 
 13236              	.LASF1057:
 13237 79a7 5F5F4E45 		.ascii	"__NEWLIB_H__ 1\000"
 13237      574C4942 
 13237      5F485F5F 
 13237      203100
 13238              	.LASF231:
 13239 79b6 5F5F5341 		.ascii	"__SACCUM_EPSILON__ 0x1P-7HK\000"
 13239      4343554D 
 13239      5F455053 
 13239      494C4F4E 
 13239      5F5F2030 
 13240              	.LASF475:
 13241 79d2 55494E54 		.ascii	"UINT_FAST32_MAX (__UINT_FAST32_MAX__)\000"
 13241      5F464153 
 13241      5433325F 
 13241      4D415820 
 13241      285F5F55 
 13242              	.LASF1511:
 13243 79f8 53595343 		.ascii	"SYSCTL_CLOCK_ROM\000"
 13243      544C5F43 
 13243      4C4F434B 
 13243      5F524F4D 
 13243      00
 13244              	.LASF1178:
 13245 7a09 5F54494D 		.ascii	"_TIME_T_ long\000"
 13245      455F545F 
 13245      206C6F6E 
 13245      6700
 13246              	.LASF931:
 13247 7a17 5F5F4932 		.ascii	"__I2C_11XX_H_ \000"
 13247      435F3131 
 13247      58585F48 
 13247      5F2000
 13248              	.LASF1447:
 13249 7a26 53595350 		.ascii	"SYSPLLCLKUEN\000"
 13249      4C4C434C 
 13249      4B55454E 
 13249      00
ARM GAS  /var/folders/z0/6xlwn_996xz3mwq1cgzkbq4r0000gp/T//ccjakVr1.s 			page 335


 13250              	.LASF262:
 13251 7a33 5F5F554C 		.ascii	"__ULLACCUM_FBIT__ 32\000"
 13251      4C414343 
 13251      554D5F46 
 13251      4249545F 
 13251      5F203332 
 13252              	.LASF674:
 13253 7a48 53595343 		.ascii	"SYSCTL_RST_WDT (1 << 2)\000"
 13253      544C5F52 
 13253      53545F57 
 13253      44542028 
 13253      31203C3C 
 13254              	.LASF786:
 13255 7a60 55415254 		.ascii	"UART_FCR_TX_RS (1 << 2)\000"
 13255      5F464352 
 13255      5F54585F 
 13255      52532028 
 13255      31203C3C 
 13256              	.LASF963:
 13257 7a78 4932435F 		.ascii	"I2C_I2STAT_M_RX_START ((0x08))\000"
 13257      49325354 
 13257      41545F4D 
 13257      5F52585F 
 13257      53544152 
 13258              	.LASF1229:
 13259 7a97 5F524545 		.ascii	"_REENT_SIGNAL_BUF(ptr) ((ptr)->_new._reent._signal_"
 13259      4E545F53 
 13259      49474E41 
 13259      4C5F4255 
 13259      46287074 
 13260 7aca 62756629 		.ascii	"buf)\000"
 13260      00
 13261              	.LASF165:
 13262 7acf 5F5F4C44 		.ascii	"__LDBL_HAS_QUIET_NAN__ 1\000"
 13262      424C5F48 
 13262      41535F51 
 13262      55494554 
 13262      5F4E414E 
 13263              	.LASF1011:
 13264 7ae8 5F5F4343 		.ascii	"__CCAND_11XX_H_ \000"
 13264      414E445F 
 13264      31315858 
 13264      5F485F20 
 13264      00
 13265              	.LASF1319:
 13266 7af9 5F5F7261 		.ascii	"__rangeof(type,start,end) (__offsetof(type, end) - "
 13266      6E67656F 
 13266      66287479 
 13266      70652C73 
 13266      74617274 
 13267 7b2c 5F5F6F66 		.ascii	"__offsetof(type, start))\000"
 13267      66736574 
 13267      6F662874 
 13267      7970652C 
 13267      20737461 
 13268              	.LASF691:
 13269 7b45 53595343 		.ascii	"SYSCTL_POWERDOWN_BOD_PD (1 << 3)\000"
ARM GAS  /var/folders/z0/6xlwn_996xz3mwq1cgzkbq4r0000gp/T//ccjakVr1.s 			page 336


 13269      544C5F50 
 13269      4F574552 
 13269      444F574E 
 13269      5F424F44 
 13270              	.LASF73:
 13271 7b66 5F5F5743 		.ascii	"__WCHAR_MAX__ 0xffffffffU\000"
 13271      4841525F 
 13271      4D41585F 
 13271      5F203078 
 13271      66666666 
 13272              	.LASF797:
 13273 7b80 55415254 		.ascii	"UART_LCR_WLEN7 (2 << 0)\000"
 13273      5F4C4352 
 13273      5F574C45 
 13273      4E372028 
 13273      32203C3C 
 13274              	.LASF1279:
 13275 7b98 5F5F434F 		.ascii	"__CONCAT1(x,y) x ## y\000"
 13275      4E434154 
 13275      3128782C 
 13275      79292078 
 13275      20232320 
 13276              	.LASF837:
 13277 7bae 55415254 		.ascii	"UART_ACR_START (1 << 0)\000"
 13277      5F414352 
 13277      5F535441 
 13277      52542028 
 13277      31203C3C 
 13278              	.LASF1484:
 13279 7bc6 53544152 		.ascii	"STARTRSRP0CLR\000"
 13279      54525352 
 13279      5030434C 
 13279      5200
 13280              	.LASF364:
 13281 7bd4 5F504F53 		.ascii	"_POSIX_C_SOURCE 200809L\000"
 13281      49585F43 
 13281      5F534F55 
 13281      52434520 
 13281      32303038 
 13282              	.LASF694:
 13283 7bec 53595343 		.ascii	"SYSCTL_POWERDOWN_WDTOSC_PD (1 << 6)\000"
 13283      544C5F50 
 13283      4F574552 
 13283      444F574E 
 13283      5F574454 
 13284              	.LASF441:
 13285 7c10 494E5450 		.ascii	"INTPTR_MAX (__INTPTR_MAX__)\000"
 13285      54525F4D 
 13285      41582028 
 13285      5F5F494E 
 13285      54505452 
 13286              	.LASF1428:
 13287 7c2c 52455345 		.ascii	"RESERVED2\000"
 13287      52564544 
 13287      3200
 13288              	.LASF263:
 13289 7c36 5F5F554C 		.ascii	"__ULLACCUM_IBIT__ 32\000"
ARM GAS  /var/folders/z0/6xlwn_996xz3mwq1cgzkbq4r0000gp/T//ccjakVr1.s 			page 337


 13289      4C414343 
 13289      554D5F49 
 13289      4249545F 
 13289      5F203332 
 13290              	.LASF897:
 13291 7c4b 5353505F 		.ascii	"SSP_CPSR_BITMASK ((uint32_t) (0xFF))\000"
 13291      43505352 
 13291      5F424954 
 13291      4D41534B 
 13291      20282875 
 13292              	.LASF761:
 13293 7c70 55415254 		.ascii	"UART_LOAD_DLM(div) (((div) >> 8) & 0xFF)\000"
 13293      5F4C4F41 
 13293      445F444C 
 13293      4D286469 
 13293      76292028 
 13294              	.LASF152:
 13295 7c99 5F5F4C44 		.ascii	"__LDBL_MANT_DIG__ 53\000"
 13295      424C5F4D 
 13295      414E545F 
 13295      4449475F 
 13295      5F203533 
 13296              	.LASF584:
 13297 7cae 5343425F 		.ascii	"SCB_SCR_SEVONPEND_Msk (1UL << SCB_SCR_SEVONPEND_Pos"
 13297      5343525F 
 13297      5345564F 
 13297      4E50454E 
 13297      445F4D73 
 13298 7ce1 2900     		.ascii	")\000"
 13299              	.LASF222:
 13300 7ce3 5F5F554C 		.ascii	"__ULLFRACT_FBIT__ 64\000"
 13300      4C465241 
 13300      43545F46 
 13300      4249545F 
 13300      5F203634 
 13301              	.LASF820:
 13302 7cf8 55415254 		.ascii	"UART_LSR_FE (1 << 3)\000"
 13302      5F4C5352 
 13302      5F464520 
 13302      2831203C 
 13302      3C203329 
 13303              	.LASF274:
 13304 7d0d 5F5F4451 		.ascii	"__DQ_IBIT__ 0\000"
 13304      5F494249 
 13304      545F5F20 
 13304      3000
 13305              	.LASF644:
 13306 7d1b 4C50435F 		.ascii	"LPC_GPIO_PORT3_BASE 0x50030000\000"
 13306      4750494F 
 13306      5F504F52 
 13306      54335F42 
 13306      41534520 
 13307              	.LASF970:
 13308 7d3a 4932435F 		.ascii	"I2C_I2STAT_S_RX_SLAW_ACK ((0x60))\000"
 13308      49325354 
 13308      41545F53 
 13308      5F52585F 
ARM GAS  /var/folders/z0/6xlwn_996xz3mwq1cgzkbq4r0000gp/T//ccjakVr1.s 			page 338


 13308      534C4157 
 13309              	.LASF454:
 13310 7d5c 55494E54 		.ascii	"UINT_LEAST16_MAX (__UINT_LEAST16_MAX__)\000"
 13310      5F4C4541 
 13310      53543136 
 13310      5F4D4158 
 13310      20285F5F 
 13311              	.LASF1128:
 13312 7d84 5F53495A 		.ascii	"_SIZE_T_DEFINED \000"
 13312      455F545F 
 13312      44454649 
 13312      4E454420 
 13312      00
 13313              	.LASF935:
 13314 7d95 5245545F 		.ascii	"RET_SLAVE_BUSY 0\000"
 13314      534C4156 
 13314      455F4255 
 13314      53592030 
 13314      00
 13315              	.LASF444:
 13316 7da6 494E5438 		.ascii	"INT8_MAX (__INT8_MAX__)\000"
 13316      5F4D4158 
 13316      20285F5F 
 13316      494E5438 
 13316      5F4D4158 
 13317              	.LASF513:
 13318 7dbe 5F424954 		.ascii	"_BITMASK\000"
 13318      4D41534B 
 13318      00
 13319              	.LASF600:
 13320 7dc7 53797354 		.ascii	"SysTick_CTRL_TICKINT_Msk (1UL << SysTick_CTRL_TICKI"
 13320      69636B5F 
 13320      4354524C 
 13320      5F544943 
 13320      4B494E54 
 13321 7dfa 4E545F50 		.ascii	"NT_Pos)\000"
 13321      6F732900 
 13322              	.LASF278:
 13323 7e02 5F5F5551 		.ascii	"__UQQ_IBIT__ 0\000"
 13323      515F4942 
 13323      49545F5F 
 13323      203000
 13324              	.LASF128:
 13325 7e11 5F5F464C 		.ascii	"__FLT_MAX_EXP__ 128\000"
 13325      545F4D41 
 13325      585F4558 
 13325      505F5F20 
 13325      31323800 
 13326              	.LASF377:
 13327 7e25 5F5F5F69 		.ascii	"___int8_t_defined 1\000"
 13327      6E74385F 
 13327      745F6465 
 13327      66696E65 
 13327      64203100 
 13328              	.LASF660:
 13329 7e39 4C50435F 		.ascii	"LPC_SSP1 ((LPC_SSP_T *) LPC_SSP1_BASE)\000"
 13329      53535031 
ARM GAS  /var/folders/z0/6xlwn_996xz3mwq1cgzkbq4r0000gp/T//ccjakVr1.s 			page 339


 13329      2028284C 
 13329      50435F53 
 13329      53505F54 
 13330              	.LASF412:
 13331 7e60 5F5F4641 		.ascii	"__FAST64 \"ll\"\000"
 13331      53543634 
 13331      20226C6C 
 13331      2200
 13332              	.LASF1443:
 13333 7e6e 49524343 		.ascii	"IRCCTRL\000"
 13333      54524C00 
 13334              	.LASF550:
 13335 7e76 5343425F 		.ascii	"SCB_CPUID_ARCHITECTURE_Msk (0xFUL << SCB_CPUID_ARCH"
 13335      43505549 
 13335      445F4152 
 13335      43484954 
 13335      45435455 
 13336 7ea9 49544543 		.ascii	"ITECTURE_Pos)\000"
 13336      54555245 
 13336      5F506F73 
 13336      2900
 13337              	.LASF472:
 13338 7eb7 55494E54 		.ascii	"UINT_FAST16_MAX (__UINT_FAST16_MAX__)\000"
 13338      5F464153 
 13338      5431365F 
 13338      4D415820 
 13338      285F5F55 
 13339              	.LASF1196:
 13340 7edd 5F524545 		.ascii	"_REENT_SIGNAL_SIZE 24\000"
 13340      4E545F53 
 13340      49474E41 
 13340      4C5F5349 
 13340      5A452032 
 13341              	.LASF623:
 13342 7ef3 4C50435F 		.ascii	"LPC_I2C_BASE 0x40000000\000"
 13342      4932435F 
 13342      42415345 
 13342      20307834 
 13342      30303030 
 13343              	.LASF958:
 13344 7f0b 4932435F 		.ascii	"I2C_I2STAT_M_TX_SLAW_ACK ((0x18))\000"
 13344      49325354 
 13344      41545F4D 
 13344      5F54585F 
 13344      534C4157 
 13345              	.LASF673:
 13346 7f2d 53595343 		.ascii	"SYSCTL_RST_EXTRST (1 << 1)\000"
 13346      544C5F52 
 13346      53545F45 
 13346      58545253 
 13346      54202831 
 13347              	.LASF368:
 13348 7f48 5F5F4253 		.ascii	"__BSD_VISIBLE 1\000"
 13348      445F5649 
 13348      5349424C 
 13348      45203100 
 13349              	.LASF433:
ARM GAS  /var/folders/z0/6xlwn_996xz3mwq1cgzkbq4r0000gp/T//ccjakVr1.s 			page 340


 13350 7f58 5F5F696E 		.ascii	"__int_least16_t_defined 1\000"
 13350      745F6C65 
 13350      61737431 
 13350      365F745F 
 13350      64656669 
 13351              	.LASF649:
 13352 7f72 4C50435F 		.ascii	"LPC_USART ((LPC_USART_T *) LPC_USART_BASE)\000"
 13352      55534152 
 13352      54202828 
 13352      4C50435F 
 13352      55534152 
 13353              	.LASF1436:
 13354 7f9d 53595350 		.ascii	"SYSPLLCTRL\000"
 13354      4C4C4354 
 13354      524C00
 13355              	.LASF978:
 13356 7fa8 4932435F 		.ascii	"I2C_I2STAT_S_RX_STA_STO_SLVREC_SLVTRX ((0xA0))\000"
 13356      49325354 
 13356      41545F53 
 13356      5F52585F 
 13356      5354415F 
 13357              	.LASF446:
 13358 7fd7 494E545F 		.ascii	"INT_LEAST8_MIN (-__INT_LEAST8_MAX__ - 1)\000"
 13358      4C454153 
 13358      54385F4D 
 13358      494E2028 
 13358      2D5F5F49 
 13359              	.LASF858:
 13360 8000 55415254 		.ascii	"UART_SCICTRL_PROTSEL_T1 (1 << 2)\000"
 13360      5F534349 
 13360      4354524C 
 13360      5F50524F 
 13360      5453454C 
 13361              	.LASF430:
 13362 8021 5F494E54 		.ascii	"_INTPTR_T_DECLARED \000"
 13362      5054525F 
 13362      545F4445 
 13362      434C4152 
 13362      45442000 
 13363              	.LASF1490:
 13364 8035 50445741 		.ascii	"PDWAKECFG\000"
 13364      4B454346 
 13364      4700
 13365              	.LASF582:
 13366 803f 5343425F 		.ascii	"SCB_AIRCR_VECTCLRACTIVE_Msk (1UL << SCB_AIRCR_VECTC"
 13366      41495243 
 13366      525F5645 
 13366      4354434C 
 13366      52414354 
 13367 8072 4C524143 		.ascii	"LRACTIVE_Pos)\000"
 13367      54495645 
 13367      5F506F73 
 13367      2900
 13368              	.LASF716:
 13369 8080 494F434F 		.ascii	"IOCON_STDI2C_EN (0x1 << 8)\000"
 13369      4E5F5354 
 13369      44493243 
ARM GAS  /var/folders/z0/6xlwn_996xz3mwq1cgzkbq4r0000gp/T//ccjakVr1.s 			page 341


 13369      5F454E20 
 13369      28307831 
 13370              	.LASF105:
 13371 809b 5F5F5549 		.ascii	"__UINT_LEAST32_MAX__ 0xffffffffUL\000"
 13371      4E545F4C 
 13371      45415354 
 13371      33325F4D 
 13371      41585F5F 
 13372              	.LASF404:
 13373 80bd 5F494E54 		.ascii	"_INT32_EQ_LONG \000"
 13373      33325F45 
 13373      515F4C4F 
 13373      4E472000 
 13374              	.LASF1154:
 13375 80cd 4E554C4C 		.ascii	"NULL ((void *)0)\000"
 13375      20282876 
 13375      6F696420 
 13375      2A293029 
 13375      00
 13376              	.LASF196:
 13377 80de 5F5F5553 		.ascii	"__USFRACT_EPSILON__ 0x1P-8UHR\000"
 13377      46524143 
 13377      545F4550 
 13377      53494C4F 
 13377      4E5F5F20 
 13378              	.LASF30:
 13379 80fc 5F5F5349 		.ascii	"__SIZE_TYPE__ unsigned int\000"
 13379      5A455F54 
 13379      5950455F 
 13379      5F20756E 
 13379      7369676E 
 13380              	.LASF403:
 13381 8117 5F494E54 		.ascii	"_INTPTR_EQ_INT \000"
 13381      5054525F 
 13381      45515F49 
 13381      4E542000 
 13382              	.LASF25:
 13383 8127 5F5F4F52 		.ascii	"__ORDER_BIG_ENDIAN__ 4321\000"
 13383      4445525F 
 13383      4249475F 
 13383      454E4449 
 13383      414E5F5F 
 13384              	.LASF205:
 13385 8141 5F5F5546 		.ascii	"__UFRACT_MAX__ 0XFFFFP-16UR\000"
 13385      52414354 
 13385      5F4D4158 
 13385      5F5F2030 
 13385      58464646 
 13386              	.LASF466:
 13387 815d 55494E54 		.ascii	"UINT_LEAST64_MAX (__UINT_LEAST64_MAX__)\000"
 13387      5F4C4541 
 13387      53543634 
 13387      5F4D4158 
 13387      20285F5F 
 13388              	.LASF350:
 13389 8185 5F4D4143 		.ascii	"_MACHINE__DEFAULT_TYPES_H \000"
 13389      48494E45 
ARM GAS  /var/folders/z0/6xlwn_996xz3mwq1cgzkbq4r0000gp/T//ccjakVr1.s 			page 342


 13389      5F5F4445 
 13389      4641554C 
 13389      545F5459 
 13390              	.LASF1299:
 13391 81a0 5F4E6F72 		.ascii	"_Noreturn __dead2\000"
 13391      65747572 
 13391      6E205F5F 
 13391      64656164 
 13391      3200
 13392              	.LASF61:
 13393 81b2 5F5F5549 		.ascii	"__UINT_FAST32_TYPE__ unsigned int\000"
 13393      4E545F46 
 13393      41535433 
 13393      325F5459 
 13393      50455F5F 
 13394              	.LASF84:
 13395 81d4 5F5F5349 		.ascii	"__SIG_ATOMIC_MIN__ (-__SIG_ATOMIC_MAX__ - 1)\000"
 13395      475F4154 
 13395      4F4D4943 
 13395      5F4D494E 
 13395      5F5F2028 
 13396              	.LASF504:
 13397 8201 74727565 		.ascii	"true 1\000"
 13397      203100
 13398              	.LASF599:
 13399 8208 53797354 		.ascii	"SysTick_CTRL_TICKINT_Pos 1\000"
 13399      69636B5F 
 13399      4354524C 
 13399      5F544943 
 13399      4B494E54 
 13400              	.LASF1513:
 13401 8223 53595343 		.ascii	"SYSCTL_CLOCK_FLASHREG\000"
 13401      544C5F43 
 13401      4C4F434B 
 13401      5F464C41 
 13401      53485245 
 13402              	.LASF457:
 13403 8239 55494E54 		.ascii	"UINT32_MAX (__UINT32_MAX__)\000"
 13403      33325F4D 
 13403      41582028 
 13403      5F5F5549 
 13403      4E543332 
 13404              	.LASF648:
 13405 8255 4C50435F 		.ascii	"LPC_WWDT ((LPC_WWDT_T *) LPC_WWDT_BASE)\000"
 13405      57574454 
 13405      2028284C 
 13405      50435F57 
 13405      5744545F 
 13406              	.LASF1448:
 13407 827d 55534250 		.ascii	"USBPLLCLKSEL\000"
 13407      4C4C434C 
 13407      4B53454C 
 13407      00
 13408              	.LASF1335:
 13409 828a 5F5F5243 		.ascii	"__RCSID_SOURCE(s) struct __hack\000"
 13409      5349445F 
 13409      534F5552 
ARM GAS  /var/folders/z0/6xlwn_996xz3mwq1cgzkbq4r0000gp/T//ccjakVr1.s 			page 343


 13409      43452873 
 13409      29207374 
 13410              	.LASF1288:
 13411 82aa 5F5F7075 		.ascii	"__pure2 __attribute__((__const__))\000"
 13411      72653220 
 13411      5F5F6174 
 13411      74726962 
 13411      7574655F 
 13412              	.LASF1152:
 13413 82cd 5F5F6E65 		.ascii	"__need_wchar_t\000"
 13413      65645F77 
 13413      63686172 
 13413      5F7400
 13414              	.LASF130:
 13415 82dc 5F5F464C 		.ascii	"__FLT_DECIMAL_DIG__ 9\000"
 13415      545F4445 
 13415      43494D41 
 13415      4C5F4449 
 13415      475F5F20 
 13416              	.LASF583:
 13417 82f2 5343425F 		.ascii	"SCB_SCR_SEVONPEND_Pos 4\000"
 13417      5343525F 
 13417      5345564F 
 13417      4E50454E 
 13417      445F506F 
 13418              	.LASF41:
 13419 830a 5F5F494E 		.ascii	"__INT32_TYPE__ long int\000"
 13419      5433325F 
 13419      54595045 
 13419      5F5F206C 
 13419      6F6E6720 
 13420              	.LASF1110:
 13421 8322 5F545F50 		.ascii	"_T_PTRDIFF \000"
 13421      54524449 
 13421      46462000 
 13422              	.LASF1341:
 13423 832e 5F5F6172 		.ascii	"__arg_type_tag(arg_kind,arg_idx,type_tag_idx) \000"
 13423      675F7479 
 13423      70655F74 
 13423      61672861 
 13423      72675F6B 
 13424              	.LASF233:
 13425 835d 5F5F5553 		.ascii	"__USACCUM_IBIT__ 8\000"
 13425      41434355 
 13425      4D5F4942 
 13425      49545F5F 
 13425      203800
 13426              	.LASF868:
 13427 8370 55415254 		.ascii	"UART_SYNCCTRL_FES (1 << 2)\000"
 13427      5F53594E 
 13427      43435452 
 13427      4C5F4645 
 13427      53202831 
 13428              	.LASF605:
 13429 838b 53797354 		.ascii	"SysTick_VAL_CURRENT_Pos 0\000"
 13429      69636B5F 
 13429      56414C5F 
ARM GAS  /var/folders/z0/6xlwn_996xz3mwq1cgzkbq4r0000gp/T//ccjakVr1.s 			page 344


 13429      43555252 
 13429      454E545F 
 13430              	.LASF1077:
 13431 83a5 5F524541 		.ascii	"_READ_WRITE_RETURN_TYPE int\000"
 13431      445F5752 
 13431      4954455F 
 13431      52455455 
 13431      524E5F54 
 13432              	.LASF214:
 13433 83c1 5F5F554C 		.ascii	"__ULFRACT_MIN__ 0.0ULR\000"
 13433      46524143 
 13433      545F4D49 
 13433      4E5F5F20 
 13433      302E3055 
 13434              	.LASF288:
 13435 83d8 5F5F4841 		.ascii	"__HA_IBIT__ 8\000"
 13435      5F494249 
 13435      545F5F20 
 13435      3800
 13436              	.LASF1439:
 13437 83e6 55534250 		.ascii	"USBPLLSTAT\000"
 13437      4C4C5354 
 13437      415400
 13438              	.LASF1115:
 13439 83f1 5F474343 		.ascii	"_GCC_PTRDIFF_T \000"
 13439      5F505452 
 13439      44494646 
 13439      5F542000 
 13440              	.LASF1459:
 13441 8401 55534243 		.ascii	"USBCLKSEL\000"
 13441      4C4B5345 
 13441      4C00
 13442              	.LASF1025:
 13443 840b 43414E5F 		.ascii	"CAN_MSGOBJ_RTR 0x40000000UL\000"
 13443      4D53474F 
 13443      424A5F52 
 13443      54522030 
 13443      78343030 
 13444              	.LASF1641:
 13445 8427 4352435F 		.ascii	"CRC_CAN_ERROR\000"
 13445      43414E5F 
 13445      4552524F 
 13445      5200
 13446              	.LASF592:
 13447 8435 5343425F 		.ascii	"SCB_CCR_UNALIGN_TRP_Msk (1UL << SCB_CCR_UNALIGN_TRP"
 13447      4343525F 
 13447      554E414C 
 13447      49474E5F 
 13447      5452505F 
 13448 8468 5F506F73 		.ascii	"_Pos)\000"
 13448      2900
 13449              	.LASF64:
 13450 846e 5F5F5549 		.ascii	"__UINTPTR_TYPE__ unsigned int\000"
 13450      4E545054 
 13450      525F5459 
 13450      50455F5F 
 13450      20756E73 
ARM GAS  /var/folders/z0/6xlwn_996xz3mwq1cgzkbq4r0000gp/T//ccjakVr1.s 			page 345


 13451              	.LASF925:
 13452 848c 4144435F 		.ascii	"ADC_CR_START_ADCTRIG0 ((4UL << 24))\000"
 13452      43525F53 
 13452      54415254 
 13452      5F414443 
 13452      54524947 
 13453              	.LASF656:
 13454 84b0 4C50435F 		.ascii	"LPC_FMC ((LPC_FMC_T *) LPC_FLASH_BASE)\000"
 13454      464D4320 
 13454      28284C50 
 13454      435F464D 
 13454      435F5420 
 13455              	.LASF757:
 13456 84d7 52425F56 		.ascii	"RB_VTAIL(rb) ((volatile uint32_t)(rb->tail))\000"
 13456      5441494C 
 13456      28726229 
 13456      20282876 
 13456      6F6C6174 
 13457              	.LASF1553:
 13458 8504 43414E49 		.ascii	"CANINT\000"
 13458      4E5400
 13459              	.LASF960:
 13460 850b 4932435F 		.ascii	"I2C_I2STAT_M_TX_DAT_ACK ((0x28))\000"
 13460      49325354 
 13460      41545F4D 
 13460      5F54585F 
 13460      4441545F 
 13461              	.LASF642:
 13462 852c 4C50435F 		.ascii	"LPC_GPIO_PORT1_BASE 0x50010000\000"
 13462      4750494F 
 13462      5F504F52 
 13462      54315F42 
 13462      41534520 
 13463              	.LASF912:
 13464 854b 4144435F 		.ascii	"ADC_DR_RESULT(n) ((((n) >> 6) & 0x3FF))\000"
 13464      44525F52 
 13464      4553554C 
 13464      54286E29 
 13464      20282828 
 13465              	.LASF507:
 13466 8573 50415241 		.ascii	"PARAM_SETSTATE(State) ((State == RESET) || (State ="
 13466      4D5F5345 
 13466      54535441 
 13466      54452853 
 13466      74617465 
 13467 85a6 3D205345 		.ascii	"= SET))\000"
 13467      54292900 
 13468              	.LASF1580:
 13469 85ae 43414E49 		.ascii	"CANIR1\000"
 13469      523100
 13470              	.LASF485:
 13471 85b5 50545244 		.ascii	"PTRDIFF_MAX (__PTRDIFF_MAX__)\000"
 13471      4946465F 
 13471      4D415820 
 13471      285F5F50 
 13471      54524449 
 13472              	.LASF435:
ARM GAS  /var/folders/z0/6xlwn_996xz3mwq1cgzkbq4r0000gp/T//ccjakVr1.s 			page 346


 13473 85d3 5F5F696E 		.ascii	"__int_least64_t_defined 1\000"
 13473      745F6C65 
 13473      61737436 
 13473      345F745F 
 13473      64656669 
 13474              	.LASF1658:
 13475 85ed 4952516E 		.ascii	"IRQn\000"
 13475      00
 13476              	.LASF848:
 13477 85f2 55415254 		.ascii	"UART_RS485CTRL_OINV_1 (1 << 5)\000"
 13477      5F525334 
 13477      38354354 
 13477      524C5F4F 
 13477      494E565F 
 13478              	.LASF669:
 13479 8611 504D555F 		.ascii	"PMU_PCON_DPDFLAG (1 << 11)\000"
 13479      50434F4E 
 13479      5F445044 
 13479      464C4147 
 13479      20283120 
 13480              	.LASF1688:
 13481 862c 43414E5F 		.ascii	"CAN_GetErrorStatus\000"
 13481      47657445 
 13481      72726F72 
 13481      53746174 
 13481      757300
 13482              	.LASF1093:
 13483 863f 5F455850 		.ascii	"_EXPARM(name,proto) (* name) proto\000"
 13483      41524D28 
 13483      6E616D65 
 13483      2C70726F 
 13483      746F2920 
 13484              	.LASF894:
 13485 8662 5353505F 		.ascii	"SSP_CR1_MASTER_EN ((uint32_t) (0))\000"
 13485      4352315F 
 13485      4D415354 
 13485      45525F45 
 13485      4E202828 
 13486              	.LASF323:
 13487 8685 5F5F4152 		.ascii	"__ARM_SIZEOF_MINIMAL_ENUM 1\000"
 13487      4D5F5349 
 13487      5A454F46 
 13487      5F4D494E 
 13487      494D414C 
 13488              	.LASF1329:
 13489 86a1 5F5F7765 		.ascii	"__weak_reference(sym,alias) __asm__(\".weak \" #ali"
 13489      616B5F72 
 13489      65666572 
 13489      656E6365 
 13489      2873796D 
 13490 86d2 6173293B 		.ascii	"as); __asm__(\".equ \" #alias \", \" #sym)\000"
 13490      205F5F61 
 13490      736D5F5F 
 13490      28222E65 
 13490      71752022 
 13491              	.LASF100:
 13492 86f9 5F5F494E 		.ascii	"__INT64_C(c) c ## LL\000"
ARM GAS  /var/folders/z0/6xlwn_996xz3mwq1cgzkbq4r0000gp/T//ccjakVr1.s 			page 347


 13492      5436345F 
 13492      43286329 
 13492      20632023 
 13492      23204C4C 
 13493              	.LASF406:
 13494 870e 5F5F494E 		.ascii	"__INT16 \"h\"\000"
 13494      54313620 
 13494      22682200 
 13495              	.LASF782:
 13496 871a 55415254 		.ascii	"UART_IIR_INTID_THRE (1 << 1)\000"
 13496      5F494952 
 13496      5F494E54 
 13496      49445F54 
 13496      48524520 
 13497              	.LASF387:
 13498 8737 5F5F5354 		.ascii	"__STDINT_EXP(x) __ ##x ##__\000"
 13498      44494E54 
 13498      5F455850 
 13498      28782920 
 13498      5F5F2023 
 13499              	.LASF847:
 13500 8753 55415254 		.ascii	"UART_RS485CTRL_DCTRL_EN (1 << 4)\000"
 13500      5F525334 
 13500      38354354 
 13500      524C5F44 
 13500      4354524C 
 13501              	.LASF291:
 13502 8774 5F5F4441 		.ascii	"__DA_FBIT__ 31\000"
 13502      5F464249 
 13502      545F5F20 
 13502      333100
 13503              	.LASF1473:
 13504 8783 424F4443 		.ascii	"BODCTRL\000"
 13504      54524C00 
 13505              	.LASF340:
 13506 878b 5F5F454C 		.ascii	"__ELF__ 1\000"
 13506      465F5F20 
 13506      3100
 13507              	.LASF1561:
 13508 8795 43414E49 		.ascii	"CANIF1_MCTRL\000"
 13508      46315F4D 
 13508      4354524C 
 13508      00
 13509              	.LASF662:
 13510 87a2 4C50435F 		.ascii	"LPC_USB ((LPC_USB_T *) LPC_USB0_BASE)\000"
 13510      55534220 
 13510      28284C50 
 13510      435F5553 
 13510      425F5420 
 13511              	.LASF417:
 13512 87c8 5F535953 		.ascii	"_SYS__STDINT_H \000"
 13512      5F5F5354 
 13512      44494E54 
 13512      5F482000 
 13513              	.LASF1282:
 13514 87d8 5F5F5853 		.ascii	"__XSTRING(x) __STRING(x)\000"
 13514      5452494E 
ARM GAS  /var/folders/z0/6xlwn_996xz3mwq1cgzkbq4r0000gp/T//ccjakVr1.s 			page 348


 13514      47287829 
 13514      205F5F53 
 13514      5452494E 
 13515              	.LASF826:
 13516 87f1 55415254 		.ascii	"UART_LSR_BITMASK (0xFF)\000"
 13516      5F4C5352 
 13516      5F424954 
 13516      4D41534B 
 13516      20283078 
 13517              	.LASF1336:
 13518 8809 5F5F5343 		.ascii	"__SCCSID(s) struct __hack\000"
 13518      43534944 
 13518      28732920 
 13518      73747275 
 13518      6374205F 
 13519              	.LASF307:
 13520 8823 5F5F4743 		.ascii	"__GCC_ATOMIC_BOOL_LOCK_FREE 1\000"
 13520      435F4154 
 13520      4F4D4943 
 13520      5F424F4F 
 13520      4C5F4C4F 
 13521              	.LASF177:
 13522 8841 5F5F4445 		.ascii	"__DEC64_MAX__ 9.999999999999999E384DD\000"
 13522      4336345F 
 13522      4D41585F 
 13522      5F20392E 
 13522      39393939 
 13523              	.LASF1016:
 13524 8867 43414E5F 		.ascii	"CAN_ERROR_STUF 0x00000008UL\000"
 13524      4552524F 
 13524      525F5354 
 13524      55462030 
 13524      78303030 
 13525              	.LASF129:
 13526 8883 5F5F464C 		.ascii	"__FLT_MAX_10_EXP__ 38\000"
 13526      545F4D41 
 13526      585F3130 
 13526      5F455850 
 13526      5F5F2033 
 13527              	.LASF1035:
 13528 8899 53444F5F 		.ascii	"SDO_ABORT_TYPEMISMATCH 0x06070010UL\000"
 13528      41424F52 
 13528      545F5459 
 13528      50454D49 
 13528      534D4154 
 13529              	.LASF421:
 13530 88bd 5F494E54 		.ascii	"_INT16_T_DECLARED \000"
 13530      31365F54 
 13530      5F444543 
 13530      4C415245 
 13530      442000
 13531              	.LASF1233:
 13532 88d0 5F5F4154 		.ascii	"__ATTRIBUTE_IMPURE_PTR__ \000"
 13532      54524942 
 13532      5554455F 
 13532      494D5055 
 13532      52455F50 
ARM GAS  /var/folders/z0/6xlwn_996xz3mwq1cgzkbq4r0000gp/T//ccjakVr1.s 			page 349


 13533              	.LASF292:
 13534 88ea 5F5F4441 		.ascii	"__DA_IBIT__ 32\000"
 13534      5F494249 
 13534      545F5F20 
 13534      333200
 13535              	.LASF275:
 13536 88f9 5F5F5451 		.ascii	"__TQ_FBIT__ 127\000"
 13536      5F464249 
 13536      545F5F20 
 13536      31323700 
 13537              	.LASF334:
 13538 8909 5F5F5646 		.ascii	"__VFP_FP__ 1\000"
 13538      505F4650 
 13538      5F5F2031 
 13538      00
 13539              	.LASF852:
 13540 8916 55415254 		.ascii	"UART_ICR_FIXPULSE_EN (1 << 2)\000"
 13540      5F494352 
 13540      5F464958 
 13540      50554C53 
 13540      455F454E 
 13541              	.LASF1608:
 13542 8934 6F645F6E 		.ascii	"od_num\000"
 13542      756D00
 13543              	.LASF928:
 13544 893b 4144435F 		.ascii	"ADC_CR_EDGE ((1UL << 27))\000"
 13544      43525F45 
 13544      44474520 
 13544      28283155 
 13544      4C203C3C 
 13545              	.LASF402:
 13546 8955 6C6F6E67 		.ascii	"long +4\000"
 13546      202B3400 
 13547              	.LASF1534:
 13548 895d 7461696C 		.ascii	"tail\000"
 13548      00
 13549              	.LASF349:
 13550 8962 5F535444 		.ascii	"_STDINT_H \000"
 13550      494E545F 
 13550      482000
 13551              	.LASF1205:
 13552 896d 5F524545 		.ascii	"_REENT_CHECK_MISC(ptr) \000"
 13552      4E545F43 
 13552      4845434B 
 13552      5F4D4953 
 13552      43287074 
 13553              	.LASF1058:
 13554 8985 5F57414E 		.ascii	"_WANT_IO_LONG_LONG 1\000"
 13554      545F494F 
 13554      5F4C4F4E 
 13554      475F4C4F 
 13554      4E472031 
 13555              	.LASF849:
 13556 899a 55415254 		.ascii	"UART_RS485CTRL_BITMASK (0x3F)\000"
 13556      5F525334 
 13556      38354354 
 13556      524C5F42 
ARM GAS  /var/folders/z0/6xlwn_996xz3mwq1cgzkbq4r0000gp/T//ccjakVr1.s 			page 350


 13556      49544D41 
 13557              	.LASF482:
 13558 89b8 53495A45 		.ascii	"SIZE_MAX (__SIZE_MAX__)\000"
 13558      5F4D4158 
 13558      20285F5F 
 13558      53495A45 
 13558      5F4D4158 
 13559              	.LASF859:
 13560 89d0 55415254 		.ascii	"UART_SCICTRL_TXRETRY(n) ((n & 0x07) << 5)\000"
 13560      5F534349 
 13560      4354524C 
 13560      5F545852 
 13560      45545259 
 13561              	.LASF213:
 13562 89fa 5F5F554C 		.ascii	"__ULFRACT_IBIT__ 0\000"
 13562      46524143 
 13562      545F4942 
 13562      49545F5F 
 13562      203000
 13563              	.LASF1597:
 13564 8a0d 4343414E 		.ascii	"CCAN_ODCONSTENTRY_T\000"
 13564      5F4F4443 
 13564      4F4E5354 
 13564      454E5452 
 13564      595F5400 
 13565              	.LASF1322:
 13566 8a21 5F5F7363 		.ascii	"__scanflike(fmtarg,firstvararg) __attribute__((__fo"
 13566      616E666C 
 13566      696B6528 
 13566      666D7461 
 13566      72672C66 
 13567 8a54 726D6174 		.ascii	"rmat__ (__scanf__, fmtarg, firstvararg)))\000"
 13567      5F5F2028 
 13567      5F5F7363 
 13567      616E665F 
 13567      5F2C2066 
 13568              	.LASF903:
 13569 8a7e 5353505F 		.ascii	"SSP_CPOL_HI SSP_CR0_CPOL_LO\000"
 13569      43504F4C 
 13569      5F484920 
 13569      5353505F 
 13569      4352305F 
 13570              	.LASF324:
 13571 8a9a 5F5F4152 		.ascii	"__ARM_SIZEOF_WCHAR_T 4\000"
 13571      4D5F5349 
 13571      5A454F46 
 13571      5F574348 
 13571      41525F54 
 13572              	.LASF1142:
 13573 8ab1 5F574348 		.ascii	"_WCHAR_T_ \000"
 13573      41525F54 
 13573      5F2000
 13574              	.LASF663:
 13575 8abc 4C50435F 		.ascii	"LPC_GPIO ((LPC_GPIO_T *) LPC_GPIO_PORT0_BASE)\000"
 13575      4750494F 
 13575      2028284C 
 13575      50435F47 
ARM GAS  /var/folders/z0/6xlwn_996xz3mwq1cgzkbq4r0000gp/T//ccjakVr1.s 			page 351


 13575      50494F5F 
 13576              	.LASF19:
 13577 8aea 5F5F5349 		.ascii	"__SIZEOF_DOUBLE__ 8\000"
 13577      5A454F46 
 13577      5F444F55 
 13577      424C455F 
 13577      5F203800 
 13578              	.LASF115:
 13579 8afe 5F5F5549 		.ascii	"__UINT_FAST32_MAX__ 0xffffffffU\000"
 13579      4E545F46 
 13579      41535433 
 13579      325F4D41 
 13579      585F5F20 
 13580              	.LASF156:
 13581 8b1e 5F5F4C44 		.ascii	"__LDBL_MAX_EXP__ 1024\000"
 13581      424C5F4D 
 13581      41585F45 
 13581      58505F5F 
 13581      20313032 
 13582              	.LASF245:
 13583 8b34 5F5F5541 		.ascii	"__UACCUM_MAX__ 0XFFFFFFFFP-16UK\000"
 13583      4343554D 
 13583      5F4D4158 
 13583      5F5F2030 
 13583      58464646 
 13584              	.LASF1143:
 13585 8b54 5F425344 		.ascii	"_BSD_WCHAR_T_ \000"
 13585      5F574348 
 13585      41525F54 
 13585      5F2000
 13586              	.LASF369:
 13587 8b63 5F5F474E 		.ascii	"__GNU_VISIBLE 0\000"
 13587      555F5649 
 13587      5349424C 
 13587      45203000 
 13588              	.LASF1617:
 13589 8b73 43414E4F 		.ascii	"CANOPEN_sdo_seg_read\000"
 13589      50454E5F 
 13589      73646F5F 
 13589      7365675F 
 13589      72656164 
 13590              	.LASF1193:
 13591 8b88 5F52414E 		.ascii	"_RAND48_ADD (0x000b)\000"
 13591      4434385F 
 13591      41444420 
 13591      28307830 
 13591      30306229 
 13592              	.LASF1187:
 13593 8b9d 5F52414E 		.ascii	"_RAND48_SEED_0 (0x330e)\000"
 13593      4434385F 
 13593      53454544 
 13593      5F302028 
 13593      30783333 
 13594              	.LASF930:
 13595 8bb5 5F5F4750 		.ascii	"__GPIO_11XX_2_H_ \000"
 13595      494F5F31 
 13595      3158585F 
ARM GAS  /var/folders/z0/6xlwn_996xz3mwq1cgzkbq4r0000gp/T//ccjakVr1.s 			page 352


 13595      325F485F 
 13595      2000
 13596              	.LASF1400:
 13597 8bc7 50494F30 		.ascii	"PIO0_11_IRQn\000"
 13597      5F31315F 
 13597      4952516E 
 13597      00
 13598              	.LASF724:
 13599 8bd4 4D445F48 		.ascii	"MD_HYS (0x1 << 5)\000"
 13599      59532028 
 13599      30783120 
 13599      3C3C2035 
 13599      2900
 13600              	.LASF556:
 13601 8be6 5343425F 		.ascii	"SCB_ICSR_NMIPENDSET_Msk (1UL << SCB_ICSR_NMIPENDSET"
 13601      49435352 
 13601      5F4E4D49 
 13601      50454E44 
 13601      5345545F 
 13602 8c19 5F506F73 		.ascii	"_Pos)\000"
 13602      2900
 13603              	.LASF79:
 13604 8c1f 5F5F494E 		.ascii	"__INTMAX_MAX__ 0x7fffffffffffffffLL\000"
 13604      544D4158 
 13604      5F4D4158 
 13604      5F5F2030 
 13604      78376666 
 13605              	.LASF1371:
 13606 8c43 5F5F7569 		.ascii	"__uint32_t\000"
 13606      6E743332 
 13606      5F7400
 13607              	.LASF1530:
 13608 8c4e 64617461 		.ascii	"data\000"
 13608      00
 13609              	.LASF949:
 13610 8c53 4932435F 		.ascii	"I2C_CON_STO (1UL << 4)\000"
 13610      434F4E5F 
 13610      53544F20 
 13610      2831554C 
 13610      203C3C20 
 13611              	.LASF1215:
 13612 8c6a 5F524545 		.ascii	"_REENT_MP_FREELIST(ptr) ((ptr)->_freelist)\000"
 13612      4E545F4D 
 13612      505F4652 
 13612      45454C49 
 13612      53542870 
 13613              	.LASF12:
 13614 8c95 5F5F4F50 		.ascii	"__OPTIMIZE__ 1\000"
 13614      54494D49 
 13614      5A455F5F 
 13614      203100
 13615              	.LASF300:
 13616 8ca4 5F5F5544 		.ascii	"__UDA_IBIT__ 32\000"
 13616      415F4942 
 13616      49545F5F 
 13616      20333200 
 13617              	.LASF1284:
ARM GAS  /var/folders/z0/6xlwn_996xz3mwq1cgzkbq4r0000gp/T//ccjakVr1.s 			page 353


 13618 8cb4 5F5F7369 		.ascii	"__signed signed\000"
 13618      676E6564 
 13618      20736967 
 13618      6E656400 
 13619              	.LASF784:
 13620 8cc4 55415254 		.ascii	"UART_FCR_FIFO_EN (1 << 0)\000"
 13620      5F464352 
 13620      5F464946 
 13620      4F5F454E 
 13620      20283120 
 13621              	.LASF747:
 13622 8cde 54494D45 		.ascii	"TIMER_RESET ((uint32_t) (1 << 1))\000"
 13622      525F5245 
 13622      53455420 
 13622      28287569 
 13622      6E743332 
 13623              	.LASF1388:
 13624 8d00 53797354 		.ascii	"SysTick_IRQn\000"
 13624      69636B5F 
 13624      4952516E 
 13624      00
 13625              	.LASF593:
 13626 8d0d 5343425F 		.ascii	"SCB_SHCSR_SVCALLPENDED_Pos 15\000"
 13626      53484353 
 13626      525F5356 
 13626      43414C4C 
 13626      50454E44 
 13627              	.LASF351:
 13628 8d2b 5F535953 		.ascii	"_SYS_FEATURES_H \000"
 13628      5F464541 
 13628      54555245 
 13628      535F4820 
 13628      00
 13629              	.LASF635:
 13630 8d3c 4C50435F 		.ascii	"LPC_SSP0_BASE 0x40040000\000"
 13630      53535030 
 13630      5F424153 
 13630      45203078 
 13630      34303034 
 13631              	.LASF326:
 13632 8d55 5F5F6172 		.ascii	"__arm__ 1\000"
 13632      6D5F5F20 
 13632      3100
 13633              	.LASF706:
 13634 8d5f 494F434F 		.ascii	"IOCON_FUNC7 0x7\000"
 13634      4E5F4655 
 13634      4E433720 
 13634      30783700 
 13635              	.LASF1533:
 13636 8d6f 68656164 		.ascii	"head\000"
 13636      00
 13637              	.LASF653:
 13638 8d74 4C50435F 		.ascii	"LPC_TIMER32_1 ((LPC_TIMER_T *) LPC_TIMER32_1_BASE)\000"
 13638      54494D45 
 13638      5233325F 
 13638      31202828 
 13638      4C50435F 
ARM GAS  /var/folders/z0/6xlwn_996xz3mwq1cgzkbq4r0000gp/T//ccjakVr1.s 			page 354


 13639              	.LASF1399:
 13640 8da7 50494F30 		.ascii	"PIO0_10_IRQn\000"
 13640      5F31305F 
 13640      4952516E 
 13640      00
 13641              	.LASF1581:
 13642 8db4 43414E49 		.ascii	"CANIR2\000"
 13642      523200
 13643              	.LASF1414:
 13644 8dbb 5744545F 		.ascii	"WDT_IRQn\000"
 13644      4952516E 
 13644      00
 13645              	.LASF595:
 13646 8dc4 53797354 		.ascii	"SysTick_CTRL_COUNTFLAG_Pos 16\000"
 13646      69636B5F 
 13646      4354524C 
 13646      5F434F55 
 13646      4E54464C 
 13647              	.LASF1172:
 13648 8de2 5F5F7369 		.ascii	"__size_t\000"
 13648      7A655F74 
 13648      00
 13649              	.LASF478:
 13650 8deb 55494E54 		.ascii	"UINT_FAST64_MAX (__UINT_FAST64_MAX__)\000"
 13650      5F464153 
 13650      5436345F 
 13650      4D415820 
 13650      285F5F55 
 13651              	.LASF1257:
 13652 8e11 5F5F474E 		.ascii	"__GNUCLIKE_MATH_BUILTIN_CONSTANTS \000"
 13652      55434C49 
 13652      4B455F4D 
 13652      4154485F 
 13652      4255494C 
 13653              	.LASF622:
 13654 8e34 5F49505F 		.ascii	"_IP_IDX(IRQn) ( ((uint32_t)(IRQn) >> 2) )\000"
 13654      49445828 
 13654      4952516E 
 13654      29202820 
 13654      28287569 
 13655              	.LASF10:
 13656 8e5e 5F5F4154 		.ascii	"__ATOMIC_ACQ_REL 4\000"
 13656      4F4D4943 
 13656      5F414351 
 13656      5F52454C 
 13656      203400
 13657              	.LASF855:
 13658 8e71 55415254 		.ascii	"UART_HDEN_HDEN ((1 << 0))\000"
 13658      5F484445 
 13658      4E5F4844 
 13658      454E2028 
 13658      2831203C 
 13659              	.LASF1295:
 13660 8e8b 5F5F616C 		.ascii	"__alloc_align(x) __attribute__((__alloc_align__(x))"
 13660      6C6F635F 
 13660      616C6967 
 13660      6E287829 
ARM GAS  /var/folders/z0/6xlwn_996xz3mwq1cgzkbq4r0000gp/T//ccjakVr1.s 			page 355


 13660      205F5F61 
 13661 8ebe 2900     		.ascii	")\000"
 13662              	.LASF1140:
 13663 8ec0 5F545F57 		.ascii	"_T_WCHAR \000"
 13663      43484152 
 13663      2000
 13664              	.LASF792:
 13665 8eca 55415254 		.ascii	"UART_FCR_TRG_LEV2 (2 << 6)\000"
 13665      5F464352 
 13665      5F545247 
 13665      5F4C4556 
 13665      32202832 
 13666              	.LASF1066:
 13667 8ee5 5F465657 		.ascii	"_FVWRITE_IN_STREAMIO 1\000"
 13667      52495445 
 13667      5F494E5F 
 13667      53545245 
 13667      414D494F 
 13668              	.LASF1133:
 13669 8efc 5F53495A 		.ascii	"_SIZET_ \000"
 13669      45545F20 
 13669      00
 13670              	.LASF39:
 13671 8f05 5F5F494E 		.ascii	"__INT8_TYPE__ signed char\000"
 13671      54385F54 
 13671      5950455F 
 13671      5F207369 
 13671      676E6564 
 13672              	.LASF562:
 13673 8f1f 5343425F 		.ascii	"SCB_ICSR_PENDSTSET_Msk (1UL << SCB_ICSR_PENDSTSET_P"
 13673      49435352 
 13673      5F50454E 
 13673      44535453 
 13673      45545F4D 
 13674 8f52 6F732900 		.ascii	"os)\000"
 13675              	.LASF1452:
 13676 8f56 53595341 		.ascii	"SYSAHBCLKDIV\000"
 13676      4842434C 
 13676      4B444956 
 13676      00
 13677              	.LASF619:
 13678 8f63 4E564943 		.ascii	"NVIC ((NVIC_Type *) NVIC_BASE )\000"
 13678      2028284E 
 13678      5649435F 
 13678      54797065 
 13678      202A2920 
 13679              	.LASF839:
 13680 8f83 55415254 		.ascii	"UART_ACR_AUTO_RESTART (1 << 2)\000"
 13680      5F414352 
 13680      5F415554 
 13680      4F5F5245 
 13680      53544152 
 13681              	.LASF727:
 13682 8fa2 4D445F44 		.ascii	"MD_DIGMODE (0x1 << 7)\000"
 13682      49474D4F 
 13682      44452028 
 13682      30783120 
ARM GAS  /var/folders/z0/6xlwn_996xz3mwq1cgzkbq4r0000gp/T//ccjakVr1.s 			page 356


 13682      3C3C2037 
 13683              	.LASF966:
 13684 8fb8 4932435F 		.ascii	"I2C_I2STAT_M_RX_SLAR_ACK ((0x40))\000"
 13684      49325354 
 13684      41545F4D 
 13684      5F52585F 
 13684      534C4152 
 13685              	.LASF1106:
 13686 8fda 5F535444 		.ascii	"_STDDEF_H_ \000"
 13686      4445465F 
 13686      485F2000 
 13687              	.LASF1384:
 13688 8fe6 4E6F6E4D 		.ascii	"NonMaskableInt_IRQn\000"
 13688      61736B61 
 13688      626C6549 
 13688      6E745F49 
 13688      52516E00 
 13689              	.LASF366:
 13690 8ffa 5F415446 		.ascii	"_ATFILE_SOURCE 1\000"
 13690      494C455F 
 13690      534F5552 
 13690      43452031 
 13690      00
 13691              	.LASF1073:
 13692 900b 5F5F5241 		.ascii	"__RAND_MAX\000"
 13692      4E445F4D 
 13692      415800
 13693              	.LASF358:
 13694 9016 5F5F474E 		.ascii	"__GNUC_PREREQ__(ma,mi) __GNUC_PREREQ(ma, mi)\000"
 13694      55435F50 
 13694      52455245 
 13694      515F5F28 
 13694      6D612C6D 
 13695              	.LASF240:
 13696 9043 5F5F4143 		.ascii	"__ACCUM_MAX__ 0X7FFFFFFFP-15K\000"
 13696      43554D5F 
 13696      4D41585F 
 13696      5F203058 
 13696      37464646 
 13697              	.LASF337:
 13698 9061 5F5F4152 		.ascii	"__ARM_PCS 1\000"
 13698      4D5F5043 
 13698      53203100 
 13699              	.LASF1634:
 13700 906d 5741524E 		.ascii	"WARN_CAN_ERROR_WARN\000"
 13700      5F43414E 
 13700      5F455252 
 13700      4F525F57 
 13700      41524E00 
 13701              	.LASF1424:
 13702 9081 52455345 		.ascii	"RESERVED0\000"
 13702      52564544 
 13702      3000
 13703              	.LASF1440:
 13704 908b 52455345 		.ascii	"RESERVED1\000"
 13704      52564544 
 13704      3100
ARM GAS  /var/folders/z0/6xlwn_996xz3mwq1cgzkbq4r0000gp/T//ccjakVr1.s 			page 357


 13705              	.LASF1163:
 13706 9095 5F5F6C6F 		.ascii	"__lock_init_recursive(lock) (_CAST_VOID 0)\000"
 13706      636B5F69 
 13706      6E69745F 
 13706      72656375 
 13706      72736976 
 13707              	.LASF1430:
 13708 90c0 52455345 		.ascii	"RESERVED3\000"
 13708      52564544 
 13708      3300
 13709              	.LASF1431:
 13710 90ca 52455345 		.ascii	"RESERVED4\000"
 13710      52564544 
 13710      3400
 13711              	.LASF1454:
 13712 90d4 52455345 		.ascii	"RESERVED5\000"
 13712      52564544 
 13712      3500
 13713              	.LASF1458:
 13714 90de 52455345 		.ascii	"RESERVED6\000"
 13714      52564544 
 13714      3600
 13715              	.LASF1462:
 13716 90e8 52455345 		.ascii	"RESERVED7\000"
 13716      52564544 
 13716      3700
 13717              	.LASF1466:
 13718 90f2 52455345 		.ascii	"RESERVED8\000"
 13718      52564544 
 13718      3800
 13719              	.LASF1470:
 13720 90fc 52455345 		.ascii	"RESERVED9\000"
 13720      52564544 
 13720      3900
 13721              	.LASF1082:
 13722 9106 5F4E4F54 		.ascii	"_NOTHROW \000"
 13722      48524F57 
 13722      2000
 13723              	.LASF1522:
 13724 9110 53595343 		.ascii	"SYSCTL_CLOCK_UART0\000"
 13724      544C5F43 
 13724      4C4F434B 
 13724      5F554152 
 13724      543000
 13725              	.LASF1273:
 13726 9123 5F5F4343 		.ascii	"__CC_SUPPORTS___INLINE__ 1\000"
 13726      5F535550 
 13726      504F5254 
 13726      535F5F5F 
 13726      494E4C49 
 13727              	.LASF650:
 13728 913e 4C50435F 		.ascii	"LPC_TIMER16_0 ((LPC_TIMER_T *) LPC_TIMER16_0_BASE)\000"
 13728      54494D45 
 13728      5231365F 
 13728      30202828 
 13728      4C50435F 
 13729              	.LASF1700:
ARM GAS  /var/folders/z0/6xlwn_996xz3mwq1cgzkbq4r0000gp/T//ccjakVr1.s 			page 358


 13730 9171 52696E67 		.ascii	"RingBuffer_Pop\000"
 13730      42756666 
 13730      65725F50 
 13730      6F7000
 13731              	.LASF708:
 13732 9180 494F434F 		.ascii	"IOCON_MODE_PULLDOWN (0x1 << 3)\000"
 13732      4E5F4D4F 
 13732      44455F50 
 13732      554C4C44 
 13732      4F574E20 
 13733              	.LASF525:
 13734 919f 5F5F434D 		.ascii	"__CMSIS_H_ \000"
 13734      5349535F 
 13734      485F2000 
 13735              	.LASF1427:
 13736 91ab 49535052 		.ascii	"ISPR\000"
 13736      00
 13737              	.LASF1028:
 13738 91b0 53444F5F 		.ascii	"SDO_ABORT_UNKNOWN_COMMAND 0x05040001UL\000"
 13738      41424F52 
 13738      545F554E 
 13738      4B4E4F57 
 13738      4E5F434F 
 13739              	.LASF439:
 13740 91d7 5F5F696E 		.ascii	"__int_fast64_t_defined 1\000"
 13740      745F6661 
 13740      73743634 
 13740      5F745F64 
 13740      6566696E 
 13741              	.LASF1517:
 13742 91f0 53595343 		.ascii	"SYSCTL_CLOCK_CT16B0\000"
 13742      544C5F43 
 13742      4C4F434B 
 13742      5F435431 
 13742      36423000 
 13743              	.LASF1518:
 13744 9204 53595343 		.ascii	"SYSCTL_CLOCK_CT16B1\000"
 13744      544C5F43 
 13744      4C4F434B 
 13744      5F435431 
 13744      36423100 
 13745              	.LASF843:
 13746 9218 55415254 		.ascii	"UART_RS485CTRL_NMM_EN (1 << 0)\000"
 13746      5F525334 
 13746      38354354 
 13746      524C5F4E 
 13746      4D4D5F45 
 13747              	.LASF1629:
 13748 9237 4343414E 		.ascii	"CCAN_API_T\000"
 13748      5F415049 
 13748      5F5400
 13749              	.LASF742:
 13750 9242 5F5F5449 		.ascii	"__TIMER_11XX_H_ \000"
 13750      4D45525F 
 13750      31315858 
 13750      5F485F20 
 13750      00
ARM GAS  /var/folders/z0/6xlwn_996xz3mwq1cgzkbq4r0000gp/T//ccjakVr1.s 			page 359


 13751              	.LASF1185:
 13752 9253 5F524545 		.ascii	"_REENT_INIT_ATEXIT _NULL, _ATEXIT_INIT,\000"
 13752      4E545F49 
 13752      4E49545F 
 13752      41544558 
 13752      4954205F 
 13753              	.LASF1014:
 13754 927b 43414E5F 		.ascii	"CAN_ERROR_WARN 0x00000002UL\000"
 13754      4552524F 
 13754      525F5741 
 13754      524E2030 
 13754      78303030 
 13755              	.LASF305:
 13756 9297 5F5F474E 		.ascii	"__GNUC_GNU_INLINE__ 1\000"
 13756      55435F47 
 13756      4E555F49 
 13756      4E4C494E 
 13756      455F5F20 
 13757              	.LASF1113:
 13758 92ad 5F425344 		.ascii	"_BSD_PTRDIFF_T_ \000"
 13758      5F505452 
 13758      44494646 
 13758      5F545F20 
 13758      00
 13759              	.LASF1141:
 13760 92be 5F5F5743 		.ascii	"__WCHAR_T \000"
 13760      4841525F 
 13760      542000
 13761              	.LASF680:
 13762 92c9 53595343 		.ascii	"SYSCTL_SLPWAKE_IRCOUT_PD (1 << 0)\000"
 13762      544C5F53 
 13762      4C505741 
 13762      4B455F49 
 13762      52434F55 
 13763              	.LASF1417:
 13764 92eb 45494E54 		.ascii	"EINT3_IRQn\000"
 13764      335F4952 
 13764      516E00
 13765              	.LASF248:
 13766 92f6 5F5F4C41 		.ascii	"__LACCUM_IBIT__ 32\000"
 13766      4343554D 
 13766      5F494249 
 13766      545F5F20 
 13766      333200
 13767              	.LASF876:
 13768 9309 57574454 		.ascii	"WWDT_WDMOD_WDRESET ((uint32_t) (1 << 1))\000"
 13768      5F57444D 
 13768      4F445F57 
 13768      44524553 
 13768      45542028 
 13769              	.LASF176:
 13770 9332 5F5F4445 		.ascii	"__DEC64_MIN__ 1E-383DD\000"
 13770      4336345F 
 13770      4D494E5F 
 13770      5F203145 
 13770      2D333833 
 13771              	.LASF96:
ARM GAS  /var/folders/z0/6xlwn_996xz3mwq1cgzkbq4r0000gp/T//ccjakVr1.s 			page 360


 13772 9349 5F5F494E 		.ascii	"__INT16_C(c) c\000"
 13772      5431365F 
 13772      43286329 
 13772      206300
 13773              	.LASF731:
 13774 9358 4D445F53 		.ascii	"MD_STDI2C (0x1 << 8)\000"
 13774      54444932 
 13774      43202830 
 13774      7831203C 
 13774      3C203829 
 13775              	.LASF1585:
 13776 936d 4C50435F 		.ascii	"LPC_CCAN_T\000"
 13776      4343414E 
 13776      5F5400
 13777              	.LASF950:
 13778 9378 4932435F 		.ascii	"I2C_CON_STA (1UL << 5)\000"
 13778      434F4E5F 
 13778      53544120 
 13778      2831554C 
 13778      203C3C20 
 13779              	.LASF1214:
 13780 938f 5F524545 		.ascii	"_REENT_MP_P5S(ptr) ((ptr)->_p5s)\000"
 13780      4E545F4D 
 13780      505F5035 
 13780      53287074 
 13780      72292028 
 13781              	.LASF568:
 13782 93b0 5343425F 		.ascii	"SCB_ICSR_ISRPENDING_Msk (1UL << SCB_ICSR_ISRPENDING"
 13782      49435352 
 13782      5F495352 
 13782      50454E44 
 13782      494E475F 
 13783 93e3 5F506F73 		.ascii	"_Pos)\000"
 13783      2900
 13784              	.LASF579:
 13785 93e9 5343425F 		.ascii	"SCB_AIRCR_SYSRESETREQ_Pos 2\000"
 13785      41495243 
 13785      525F5359 
 13785      53524553 
 13785      45545245 
 13786              	.LASF1375:
 13787 9405 6C6F6E67 		.ascii	"long long unsigned int\000"
 13787      206C6F6E 
 13787      6720756E 
 13787      7369676E 
 13787      65642069 
 13788              	.LASF17:
 13789 941c 5F5F5349 		.ascii	"__SIZEOF_SHORT__ 2\000"
 13789      5A454F46 
 13789      5F53484F 
 13789      52545F5F 
 13789      203200
 13790              	.LASF389:
 13791 942f 5F5F6861 		.ascii	"__have_long32 1\000"
 13791      76655F6C 
 13791      6F6E6733 
 13791      32203100 
ARM GAS  /var/folders/z0/6xlwn_996xz3mwq1cgzkbq4r0000gp/T//ccjakVr1.s 			page 361


 13792              	.LASF948:
 13793 943f 4932435F 		.ascii	"I2C_CON_SI (1UL << 3)\000"
 13793      434F4E5F 
 13793      53492028 
 13793      31554C20 
 13793      3C3C2033 
 13794              	.LASF1260:
 13795 9455 5F5F474E 		.ascii	"__GNUCLIKE___SECTION 1\000"
 13795      55434C49 
 13795      4B455F5F 
 13795      5F534543 
 13795      54494F4E 
 13796              	.LASF89:
 13797 946c 5F5F5549 		.ascii	"__UINT8_MAX__ 0xff\000"
 13797      4E54385F 
 13797      4D41585F 
 13797      5F203078 
 13797      666600
 13798              	.LASF1552:
 13799 947f 43414E42 		.ascii	"CANBT\000"
 13799      5400
 13800              	.LASF1450:
 13801 9485 4D41494E 		.ascii	"MAINCLKSEL\000"
 13801      434C4B53 
 13801      454C00
 13802              	.LASF1301:
 13803 9490 5F5F6765 		.ascii	"__generic(expr,t,yes,no) __builtin_choose_expr( __b"
 13803      6E657269 
 13803      63286578 
 13803      70722C74 
 13803      2C796573 
 13804 94c3 75696C74 		.ascii	"uiltin_types_compatible_p(__typeof(expr), t), yes, "
 13804      696E5F74 
 13804      79706573 
 13804      5F636F6D 
 13804      70617469 
 13805 94f6 6E6F2900 		.ascii	"no)\000"
 13806              	.LASF865:
 13807 94fa 55415254 		.ascii	"UART_TER2_TXEN (1 << 0)\000"
 13807      5F544552 
 13807      325F5458 
 13807      454E2028 
 13807      31203C3C 
 13808              	.LASF1294:
 13809 9512 5F5F616C 		.ascii	"__alloc_size(x) __attribute__((__alloc_size__(x)))\000"
 13809      6C6F635F 
 13809      73697A65 
 13809      28782920 
 13809      5F5F6174 
 13810              	.LASF577:
 13811 9545 5343425F 		.ascii	"SCB_AIRCR_ENDIANESS_Pos 15\000"
 13811      41495243 
 13811      525F454E 
 13811      4449414E 
 13811      4553535F 
 13812              	.LASF1050:
 13813 9560 43414E5F 		.ascii	"CAN_SDOREQ_HANDLED_NOSEND 2\000"
ARM GAS  /var/folders/z0/6xlwn_996xz3mwq1cgzkbq4r0000gp/T//ccjakVr1.s 			page 362


 13813      53444F52 
 13813      45515F48 
 13813      414E444C 
 13813      45445F4E 
 13814              	.LASF1019:
 13815 957c 43414E5F 		.ascii	"CAN_ERROR_BIT1 0x00000040UL\000"
 13815      4552524F 
 13815      525F4249 
 13815      54312030 
 13815      78303030 
 13816              	.LASF812:
 13817 9598 55415254 		.ascii	"UART_MCR_RTS_CTRL (1 << 1)\000"
 13817      5F4D4352 
 13817      5F525453 
 13817      5F435452 
 13817      4C202831 
 13818              	.LASF752:
 13819 95b3 54494D45 		.ascii	"TIMER_CAP_FALLING(n) (_BIT((((n) * 3) + 1)))\000"
 13819      525F4341 
 13819      505F4641 
 13819      4C4C494E 
 13819      47286E29 
 13820              	.LASF1226:
 13821 95e0 5F524545 		.ascii	"_REENT_WCRTOMB_STATE(ptr) ((ptr)->_new._reent._wcrt"
 13821      4E545F57 
 13821      4352544F 
 13821      4D425F53 
 13821      54415445 
 13822 9613 6F6D625F 		.ascii	"omb_state)\000"
 13822      73746174 
 13822      652900
 13823              	.LASF183:
 13824 961e 5F5F4445 		.ascii	"__DEC128_MIN__ 1E-6143DL\000"
 13824      43313238 
 13824      5F4D494E 
 13824      5F5F2031 
 13824      452D3631 
 13825              	.LASF1254:
 13826 9637 5F5F4245 		.ascii	"__BEGIN_DECLS \000"
 13826      47494E5F 
 13826      4445434C 
 13826      532000
 13827              	.LASF1611:
 13828 9646 4343414E 		.ascii	"CCAN_CALLBACKS\000"
 13828      5F43414C 
 13828      4C424143 
 13828      4B5300
 13829              	.LASF1049:
 13830 9655 43414E5F 		.ascii	"CAN_SDOREQ_HANDLED_SEND 1\000"
 13830      53444F52 
 13830      45515F48 
 13830      414E444C 
 13830      45445F53 
 13831              	.LASF1556:
 13832 966f 43414E49 		.ascii	"CANIF1_CMDREQ\000"
 13832      46315F43 
 13832      4D445245 
ARM GAS  /var/folders/z0/6xlwn_996xz3mwq1cgzkbq4r0000gp/T//ccjakVr1.s 			page 363


 13832      5100
 13833              	.LASF1186:
 13834 967d 5F524545 		.ascii	"_REENT_SMALL_CHECK_INIT(ptr) \000"
 13834      4E545F53 
 13834      4D414C4C 
 13834      5F434845 
 13834      434B5F49 
 13835              	.LASF1174:
 13836 969b 5F5F6E65 		.ascii	"__need_wint_t \000"
 13836      65645F77 
 13836      696E745F 
 13836      742000
 13837              	.LASF118:
 13838 96aa 5F5F5549 		.ascii	"__UINTPTR_MAX__ 0xffffffffU\000"
 13838      4E545054 
 13838      525F4D41 
 13838      585F5F20 
 13838      30786666 
 13839              	.LASF244:
 13840 96c6 5F5F5541 		.ascii	"__UACCUM_MIN__ 0.0UK\000"
 13840      4343554D 
 13840      5F4D494E 
 13840      5F5F2030 
 13840      2E30554B 
 13841              	.LASF1445:
 13842 96db 53595352 		.ascii	"SYSRSTSTAT\000"
 13842      53545354 
 13842      415400
 13843              	.LASF1408:
 13844 96e6 54494D45 		.ascii	"TIMER_32_1_IRQn\000"
 13844      525F3332 
 13844      5F315F49 
 13844      52516E00 
 13845              	.LASF1305:
 13846 96f6 5F5F6E6F 		.ascii	"__noinline __attribute__ ((__noinline__))\000"
 13846      696E6C69 
 13846      6E65205F 
 13846      5F617474 
 13846      72696275 
 13847              	.LASF630:
 13848 9720 4C50435F 		.ascii	"LPC_ADC_BASE 0x4001C000\000"
 13848      4144435F 
 13848      42415345 
 13848      20307834 
 13848      30303143 
 13849              	.LASF1024:
 13850 9738 43414E5F 		.ascii	"CAN_MSGOBJ_DAT 0x00000000UL\000"
 13850      4D53474F 
 13850      424A5F44 
 13850      41542030 
 13850      78303030 
 13851              	.LASF1465:
 13852 9754 57445443 		.ascii	"WDTCLKDIV\000"
 13852      4C4B4449 
 13852      5600
 13853              	.LASF191:
 13854 975e 5F5F5346 		.ascii	"__SFRACT_EPSILON__ 0x1P-7HR\000"
ARM GAS  /var/folders/z0/6xlwn_996xz3mwq1cgzkbq4r0000gp/T//ccjakVr1.s 			page 364


 13854      52414354 
 13854      5F455053 
 13854      494C4F4E 
 13854      5F5F2030 
 13855              	.LASF11:
 13856 977a 5F5F4154 		.ascii	"__ATOMIC_CONSUME 1\000"
 13856      4F4D4943 
 13856      5F434F4E 
 13856      53554D45 
 13856      203100
 13857              	.LASF1289:
 13858 978d 5F5F756E 		.ascii	"__unused __attribute__((__unused__))\000"
 13858      75736564 
 13858      205F5F61 
 13858      74747269 
 13858      62757465 
 13859              	.LASF132:
 13860 97b2 5F5F464C 		.ascii	"__FLT_MIN__ 1.1754943508222875e-38F\000"
 13860      545F4D49 
 13860      4E5F5F20 
 13860      312E3137 
 13860      35343934 
 13861              	.LASF48:
 13862 97d6 5F5F494E 		.ascii	"__INT_LEAST16_TYPE__ short int\000"
 13862      545F4C45 
 13862      41535431 
 13862      365F5459 
 13862      50455F5F 
 13863              	.LASF54:
 13864 97f5 5F5F5549 		.ascii	"__UINT_LEAST64_TYPE__ long long unsigned int\000"
 13864      4E545F4C 
 13864      45415354 
 13864      36345F54 
 13864      5950455F 
 13865              	.LASF1345:
 13866 9822 5F5F6C6F 		.ascii	"__locks_exclusive(...) __lock_annotate(exclusive_lo"
 13866      636B735F 
 13866      6578636C 
 13866      75736976 
 13866      65282E2E 
 13867 9855 636B5F66 		.ascii	"ck_function(__VA_ARGS__))\000"
 13867      756E6374 
 13867      696F6E28 
 13867      5F5F5641 
 13867      5F415247 
 13868              	.LASF192:
 13869 986f 5F5F5553 		.ascii	"__USFRACT_FBIT__ 8\000"
 13869      46524143 
 13869      545F4642 
 13869      49545F5F 
 13869      203800
 13870              	.LASF741:
 13871 9882 46554E43 		.ascii	"FUNC7 0x7\000"
 13871      37203078 
 13871      3700
 13872              	.LASF1381:
 13873 988c 46414C53 		.ascii	"FALSE\000"
ARM GAS  /var/folders/z0/6xlwn_996xz3mwq1cgzkbq4r0000gp/T//ccjakVr1.s 			page 365


 13873      4500
 13874              	.LASF1682:
 13875 9892 43414E5F 		.ascii	"CAN_ResetPeripheral\000"
 13875      52657365 
 13875      74506572 
 13875      69706865 
 13875      72616C00 
 13876              	.LASF933:
 13877 98a6 5245545F 		.ascii	"RET_SLAVE_RX 5\000"
 13877      534C4156 
 13877      455F5258 
 13877      203500
 13878              	.LASF986:
 13879 98b5 4932435F 		.ascii	"I2C_I2DAT_IDLE_CHAR (0xFF)\000"
 13879      49324441 
 13879      545F4944 
 13879      4C455F43 
 13879      48415220 
 13880              	.LASF1661:
 13881 98d0 6D73675F 		.ascii	"msg_obj\000"
 13881      6F626A00 
 13882              	.LASF872:
 13883 98d8 55415254 		.ascii	"UART_SYNCCTRL_CCCLR (1 << 6)\000"
 13883      5F53594E 
 13883      43435452 
 13883      4C5F4343 
 13883      434C5220 
 13884              	.LASF311:
 13885 98f5 5F5F4743 		.ascii	"__GCC_ATOMIC_WCHAR_T_LOCK_FREE 1\000"
 13885      435F4154 
 13885      4F4D4943 
 13885      5F574348 
 13885      41525F54 
 13886              	.LASF234:
 13887 9916 5F5F5553 		.ascii	"__USACCUM_MIN__ 0.0UHK\000"
 13887      41434355 
 13887      4D5F4D49 
 13887      4E5F5F20 
 13887      302E3055 
 13888              	.LASF217:
 13889 992d 5F5F4C4C 		.ascii	"__LLFRACT_FBIT__ 63\000"
 13889      46524143 
 13889      545F4642 
 13889      49545F5F 
 13889      20363300 
 13890              	.LASF613:
 13891 9941 5343535F 		.ascii	"SCS_BASE (0xE000E000UL)\000"
 13891      42415345 
 13891      20283078 
 13891      45303030 
 13891      45303030 
 13892              	.LASF1675:
 13893 9959 43414E5F 		.ascii	"CAN_GetRxErrorCount\000"
 13893      47657452 
 13893      78457272 
 13893      6F72436F 
 13893      756E7400 
ARM GAS  /var/folders/z0/6xlwn_996xz3mwq1cgzkbq4r0000gp/T//ccjakVr1.s 			page 366


 13894              	.LASF322:
 13895 996d 5F5F5349 		.ascii	"__SIZEOF_PTRDIFF_T__ 4\000"
 13895      5A454F46 
 13895      5F505452 
 13895      44494646 
 13895      5F545F5F 
 13896              	.LASF1312:
 13897 9984 5F5F7265 		.ascii	"__restrict \000"
 13897      73747269 
 13897      63742000 
 13898              	.LASF1217:
 13899 9990 5F524545 		.ascii	"_REENT_TM(ptr) (&(ptr)->_new._reent._localtime_buf)"
 13899      4E545F54 
 13899      4D287074 
 13899      72292028 
 13899      26287074 
 13900 99c3 00       		.ascii	"\000"
 13901              	.LASF144:
 13902 99c4 5F5F4442 		.ascii	"__DBL_DECIMAL_DIG__ 17\000"
 13902      4C5F4445 
 13902      43494D41 
 13902      4C5F4449 
 13902      475F5F20 
 13903              	.LASF1407:
 13904 99db 54494D45 		.ascii	"TIMER_32_0_IRQn\000"
 13904      525F3332 
 13904      5F305F49 
 13904      52516E00 
 13905              	.LASF712:
 13906 99eb 494F434F 		.ascii	"IOCON_INV_EN (0x1 << 6)\000"
 13906      4E5F494E 
 13906      565F454E 
 13906      20283078 
 13906      31203C3C 
 13907              	.LASF1100:
 13908 9a03 5F415454 		.ascii	"_ATTRIBUTE(attrs) __attribute__ (attrs)\000"
 13908      52494255 
 13908      54452861 
 13908      74747273 
 13908      29205F5F 
 13909              	.LASF398:
 13910 9a2b 63686172 		.ascii	"char +0\000"
 13910      202B3000 
 13911              	.LASF711:
 13912 9a33 494F434F 		.ascii	"IOCON_HYS_EN (0x1 << 5)\000"
 13912      4E5F4859 
 13912      535F454E 
 13912      20283078 
 13912      31203C3C 
 13913              	.LASF425:
 13914 9a4b 5F55494E 		.ascii	"_UINT32_T_DECLARED \000"
 13914      5433325F 
 13914      545F4445 
 13914      434C4152 
 13914      45442000 
 13915              	.LASF1491:
 13916 9a5f 50445255 		.ascii	"PDRUNCFG\000"
ARM GAS  /var/folders/z0/6xlwn_996xz3mwq1cgzkbq4r0000gp/T//ccjakVr1.s 			page 367


 13916      4E434647 
 13916      00
 13917              	.LASF365:
 13918 9a68 5F415446 		.ascii	"_ATFILE_SOURCE\000"
 13918      494C455F 
 13918      534F5552 
 13918      434500
 13919              	.LASF1566:
 13920 9a77 43414E49 		.ascii	"CANIF2_CMDREQ\000"
 13920      46325F43 
 13920      4D445245 
 13920      5100
 13921              	.LASF1606:
 13922 9a85 6F645F63 		.ascii	"od_const_num\000"
 13922      6F6E7374 
 13922      5F6E756D 
 13922      00
 13923              	.LASF239:
 13924 9a92 5F5F4143 		.ascii	"__ACCUM_MIN__ (-0X1P15K-0X1P15K)\000"
 13924      43554D5F 
 13924      4D494E5F 
 13924      5F20282D 
 13924      30583150 
 13925              	.LASF667:
 13926 9ab3 504D555F 		.ascii	"PMU_PCON_PM_DEEPPOWERDOWN (0x2)\000"
 13926      50434F4E 
 13926      5F504D5F 
 13926      44454550 
 13926      504F5745 
 13927              	.LASF1204:
 13928 9ad3 5F524545 		.ascii	"_REENT_CHECK_EMERGENCY(ptr) \000"
 13928      4E545F43 
 13928      4845434B 
 13928      5F454D45 
 13928      5247454E 
 13929              	.LASF140:
 13930 9af0 5F5F4442 		.ascii	"__DBL_MIN_EXP__ (-1021)\000"
 13930      4C5F4D49 
 13930      4E5F4558 
 13930      505F5F20 
 13930      282D3130 
 13931              	.LASF1316:
 13932 9b08 5F5F6578 		.ascii	"__exported __attribute__((__visibility__(\"default\""
 13932      706F7274 
 13932      6564205F 
 13932      5F617474 
 13932      72696275 
 13933 9b3a 29292900 		.ascii	")))\000"
 13934              	.LASF408:
 13935 9b3e 5F5F494E 		.ascii	"__INT64 \"ll\"\000"
 13935      54363420 
 13935      226C6C22 
 13935      00
 13936              	.LASF631:
 13937 9b4b 4C50435F 		.ascii	"LPC_DAC_BASE 0x40024000\000"
 13937      4441435F 
 13937      42415345 
ARM GAS  /var/folders/z0/6xlwn_996xz3mwq1cgzkbq4r0000gp/T//ccjakVr1.s 			page 368


 13937      20307834 
 13937      30303234 
 13938              	.LASF1223:
 13939 9b63 5F524545 		.ascii	"_REENT_MBRLEN_STATE(ptr) ((ptr)->_new._reent._mbrle"
 13939      4E545F4D 
 13939      42524C45 
 13939      4E5F5354 
 13939      41544528 
 13940 9b96 6E5F7374 		.ascii	"n_state)\000"
 13940      61746529 
 13940      00
 13941              	.LASF464:
 13942 9b9f 494E545F 		.ascii	"INT_LEAST64_MIN (-__INT_LEAST64_MAX__ - 1)\000"
 13942      4C454153 
 13942      5436345F 
 13942      4D494E20 
 13942      282D5F5F 
 13943              	.LASF645:
 13944 9bca 4941505F 		.ascii	"IAP_ENTRY_LOCATION 0X1FFF1FF1\000"
 13944      454E5452 
 13944      595F4C4F 
 13944      43415449 
 13944      4F4E2030 
 13945              	.LASF1031:
 13946 9be8 53444F5F 		.ascii	"SDO_ABORT_READONLY 0x06010002UL\000"
 13946      41424F52 
 13946      545F5245 
 13946      41444F4E 
 13946      4C592030 
 13947              	.LASF484:
 13948 9c08 5349475F 		.ascii	"SIG_ATOMIC_MAX (__STDINT_EXP(INT_MAX))\000"
 13948      41544F4D 
 13948      49435F4D 
 13948      41582028 
 13948      5F5F5354 
 13949              	.LASF1277:
 13950 9c2f 5F5F4343 		.ascii	"__CC_SUPPORTS_DYNAMIC_ARRAY_INIT 1\000"
 13950      5F535550 
 13950      504F5254 
 13950      535F4459 
 13950      4E414D49 
 13951              	.LASF1554:
 13952 9c52 43414E54 		.ascii	"CANTEST\000"
 13952      45535400 
 13953              	.LASF655:
 13954 9c5a 4C50435F 		.ascii	"LPC_PMU ((LPC_PMU_T *) LPC_PMU_BASE)\000"
 13954      504D5520 
 13954      28284C50 
 13954      435F504D 
 13954      555F5420 
 13955              	.LASF157:
 13956 9c7f 5F5F4C44 		.ascii	"__LDBL_MAX_10_EXP__ 308\000"
 13956      424C5F4D 
 13956      41585F31 
 13956      305F4558 
 13956      505F5F20 
 13957              	.LASF407:
ARM GAS  /var/folders/z0/6xlwn_996xz3mwq1cgzkbq4r0000gp/T//ccjakVr1.s 			page 369


 13958 9c97 5F5F494E 		.ascii	"__INT32 \"l\"\000"
 13958      54333220 
 13958      226C2200 
 13959              	.LASF861:
 13960 9ca3 55415254 		.ascii	"UART_FDR_DIVADDVAL(n) (n & 0x0F)\000"
 13960      5F464452 
 13960      5F444956 
 13960      41444456 
 13960      414C286E 
 13961              	.LASF1076:
 13962 9cc4 5F5F494D 		.ascii	"__IMPORT \000"
 13962      504F5254 
 13962      2000
 13963              	.LASF362:
 13964 9cce 5F504F53 		.ascii	"_POSIX_SOURCE 1\000"
 13964      49585F53 
 13964      4F555243 
 13964      45203100 
 13965              	.LASF342:
 13966 9cde 55415254 		.ascii	"UART_BAUD 57600\000"
 13966      5F424155 
 13966      44203537 
 13966      36303000 
 13967              	.LASF469:
 13968 9cee 55494E54 		.ascii	"UINT_FAST8_MAX (__UINT_FAST8_MAX__)\000"
 13968      5F464153 
 13968      54385F4D 
 13968      41582028 
 13968      5F5F5549 
 13969              	.LASF1551:
 13970 9d12 43414E45 		.ascii	"CANEC\000"
 13970      4300
 13971              	.LASF1446:
 13972 9d18 53595350 		.ascii	"SYSPLLCLKSEL\000"
 13972      4C4C434C 
 13972      4B53454C 
 13972      00
 13973              	.LASF42:
 13974 9d25 5F5F494E 		.ascii	"__INT64_TYPE__ long long int\000"
 13974      5436345F 
 13974      54595045 
 13974      5F5F206C 
 13974      6F6E6720 
 13975              	.LASF293:
 13976 9d42 5F5F5441 		.ascii	"__TA_FBIT__ 63\000"
 13976      5F464249 
 13976      545F5F20 
 13976      363300
 13977              	.LASF170:
 13978 9d51 5F5F4445 		.ascii	"__DEC32_MAX__ 9.999999E96DF\000"
 13978      4333325F 
 13978      4D41585F 
 13978      5F20392E 
 13978      39393939 
 13979              	.LASF1387:
 13980 9d6d 50656E64 		.ascii	"PendSV_IRQn\000"
 13980      53565F49 
ARM GAS  /var/folders/z0/6xlwn_996xz3mwq1cgzkbq4r0000gp/T//ccjakVr1.s 			page 370


 13980      52516E00 
 13981              	.LASF503:
 13982 9d79 626F6F6C 		.ascii	"bool _Bool\000"
 13982      205F426F 
 13982      6F6C00
 13983              	.LASF1114:
 13984 9d84 5F5F5F69 		.ascii	"___int_ptrdiff_t_h \000"
 13984      6E745F70 
 13984      74726469 
 13984      66665F74 
 13984      5F682000 
 13985              	.LASF308:
 13986 9d98 5F5F4743 		.ascii	"__GCC_ATOMIC_CHAR_LOCK_FREE 1\000"
 13986      435F4154 
 13986      4F4D4943 
 13986      5F434841 
 13986      525F4C4F 
 13987              	.LASF53:
 13988 9db6 5F5F5549 		.ascii	"__UINT_LEAST32_TYPE__ long unsigned int\000"
 13988      4E545F4C 
 13988      45415354 
 13988      33325F54 
 13988      5950455F 
 13989              	.LASF1663:
 13990 9dde 6572726F 		.ascii	"error_info\000"
 13990      725F696E 
 13990      666F00
 13991              	.LASF1242:
 13992 9de9 5F5F7074 		.ascii	"__ptr_t void *\000"
 13992      725F7420 
 13992      766F6964 
 13992      202A00
 13993              	.LASF1098:
 13994 9df8 5F4C4F4E 		.ascii	"_LONG_DOUBLE long double\000"
 13994      475F444F 
 13994      55424C45 
 13994      206C6F6E 
 13994      6720646F 
 13995              	.LASF1290:
 13996 9e11 5F5F7573 		.ascii	"__used __attribute__((__used__))\000"
 13996      6564205F 
 13996      5F617474 
 13996      72696275 
 13996      74655F5F 
 13997              	.LASF745:
 13998 9e32 54494D45 		.ascii	"TIMER_CAP_INT(n) (_BIT((((n) & 0x0F) + 4)))\000"
 13998      525F4341 
 13998      505F494E 
 13998      54286E29 
 13998      20285F42 
 13999              	.LASF1409:
 14000 9e5e 53535030 		.ascii	"SSP0_IRQn\000"
 14000      5F495251 
 14000      6E00
 14001              	.LASF294:
 14002 9e68 5F5F5441 		.ascii	"__TA_IBIT__ 64\000"
 14002      5F494249 
ARM GAS  /var/folders/z0/6xlwn_996xz3mwq1cgzkbq4r0000gp/T//ccjakVr1.s 			page 371


 14002      545F5F20 
 14002      363400
 14003              	.LASF1184:
 14004 9e77 5F415445 		.ascii	"_ATEXIT_INIT {_NULL, 0, {_NULL}, {{_NULL}, {_NULL},"
 14004      5849545F 
 14004      494E4954 
 14004      207B5F4E 
 14004      554C4C2C 
 14005 9eaa 20302C20 		.ascii	" 0, 0}}\000"
 14005      307D7D00 
 14006              	.LASF1572:
 14007 9eb2 43414E49 		.ascii	"CANIF2_DA1\000"
 14007      46325F44 
 14007      413100
 14008              	.LASF690:
 14009 9ebd 53595343 		.ascii	"SYSCTL_POWERDOWN_FLASH_PD (1 << 2)\000"
 14009      544C5F50 
 14009      4F574552 
 14009      444F574E 
 14009      5F464C41 
 14010              	.LASF270:
 14011 9ee0 5F5F4851 		.ascii	"__HQ_IBIT__ 0\000"
 14011      5F494249 
 14011      545F5F20 
 14011      3000
 14012              	.LASF795:
 14013 9eee 55415254 		.ascii	"UART_LCR_WLEN5 (0 << 0)\000"
 14013      5F4C4352 
 14013      5F574C45 
 14013      4E352028 
 14013      30203C3C 
 14014              	.LASF1373:
 14015 9f06 6C6F6E67 		.ascii	"long long int\000"
 14015      206C6F6E 
 14015      6720696E 
 14015      7400
 14016              	.LASF1036:
 14017 9f14 53444F5F 		.ascii	"SDO_ABORT_UNKNOWNSUB 0x06090011UL\000"
 14017      41424F52 
 14017      545F554E 
 14017      4B4E4F57 
 14017      4E535542 
 14018              	.LASF121:
 14019 9f36 5F5F464C 		.ascii	"__FLT_EVAL_METHOD__ 0\000"
 14019      545F4556 
 14019      414C5F4D 
 14019      4554484F 
 14019      445F5F20 
 14020              	.LASF1043:
 14021 9f4c 4F445F45 		.ascii	"OD_EXP_WO 0x20\000"
 14021      58505F57 
 14021      4F203078 
 14021      323000
 14022              	.LASF559:
 14023 9f5b 5343425F 		.ascii	"SCB_ICSR_PENDSVCLR_Pos 27\000"
 14023      49435352 
 14023      5F50454E 
ARM GAS  /var/folders/z0/6xlwn_996xz3mwq1cgzkbq4r0000gp/T//ccjakVr1.s 			page 372


 14023      44535643 
 14023      4C525F50 
 14024              	.LASF1337:
 14025 9f75 5F5F434F 		.ascii	"__COPYRIGHT(s) struct __hack\000"
 14025      50595249 
 14025      47485428 
 14025      73292073 
 14025      74727563 
 14026              	.LASF1068:
 14027 9f92 5F574944 		.ascii	"_WIDE_ORIENT 1\000"
 14027      455F4F52 
 14027      49454E54 
 14027      203100
 14028              	.LASF1148:
 14029 9fa1 5F5F494E 		.ascii	"__INT_WCHAR_T_H \000"
 14029      545F5743 
 14029      4841525F 
 14029      545F4820 
 14029      00
 14030              	.LASF395:
 14031 9fb2 6C6F6E67 		.ascii	"long\000"
 14031      00
 14032              	.LASF295:
 14033 9fb7 5F5F5548 		.ascii	"__UHA_FBIT__ 8\000"
 14033      415F4642 
 14033      49545F5F 
 14033      203800
 14034              	.LASF226:
 14035 9fc6 5F5F554C 		.ascii	"__ULLFRACT_EPSILON__ 0x1P-64ULLR\000"
 14035      4C465241 
 14035      43545F45 
 14035      5053494C 
 14035      4F4E5F5F 
 14036              	.LASF186:
 14037 9fe7 5F5F4445 		.ascii	"__DEC128_SUBNORMAL_MIN__ 0.000000000000000000000000"
 14037      43313238 
 14037      5F535542 
 14037      4E4F524D 
 14037      414C5F4D 
 14038 a01a 30303030 		.ascii	"000000001E-6143DL\000"
 14038      30303030 
 14038      31452D36 
 14038      31343344 
 14038      4C00
 14039              	.LASF1022:
 14040 a02c 43414E5F 		.ascii	"CAN_MSGOBJ_STD 0x00000000UL\000"
 14040      4D53474F 
 14040      424A5F53 
 14040      54442030 
 14040      78303030 
 14041              	.LASF703:
 14042 a048 494F434F 		.ascii	"IOCON_FUNC4 0x4\000"
 14042      4E5F4655 
 14042      4E433420 
 14042      30783400 
 14043              	.LASF1171:
 14044 a058 5F5F6C6F 		.ascii	"__lock_release_recursive(lock) (_CAST_VOID 0)\000"
ARM GAS  /var/folders/z0/6xlwn_996xz3mwq1cgzkbq4r0000gp/T//ccjakVr1.s 			page 373


 14044      636B5F72 
 14044      656C6561 
 14044      73655F72 
 14044      65637572 
 14045              	.LASF416:
 14046 a086 5F5F4C45 		.ascii	"__LEAST64 \"ll\"\000"
 14046      41535436 
 14046      3420226C 
 14046      6C2200
 14047              	.LASF707:
 14048 a095 494F434F 		.ascii	"IOCON_MODE_INACT (0x0 << 3)\000"
 14048      4E5F4D4F 
 14048      44455F49 
 14048      4E414354 
 14048      20283078 
 14049              	.LASF846:
 14050 a0b1 55415254 		.ascii	"UART_RS485CTRL_SEL_DTR (1 << 3)\000"
 14050      5F525334 
 14050      38354354 
 14050      524C5F53 
 14050      454C5F44 
 14051              	.LASF672:
 14052 a0d1 53595343 		.ascii	"SYSCTL_RST_POR (1 << 0)\000"
 14052      544C5F52 
 14052      53545F50 
 14052      4F522028 
 14052      31203C3C 
 14053              	.LASF971:
 14054 a0e9 4932435F 		.ascii	"I2C_I2STAT_S_RX_ARB_LOST_M_SLA ((0x68))\000"
 14054      49325354 
 14054      41545F53 
 14054      5F52585F 
 14054      4152425F 
 14055              	.LASF867:
 14056 a111 55415254 		.ascii	"UART_SYNCCTRL_CSRC_MASTER (1 << 1)\000"
 14056      5F53594E 
 14056      43435452 
 14056      4C5F4353 
 14056      52435F4D 
 14057              	.LASF700:
 14058 a134 494F434F 		.ascii	"IOCON_FUNC1 0x1\000"
 14058      4E5F4655 
 14058      4E433120 
 14058      30783100 
 14059              	.LASF723:
 14060 a144 4D445F42 		.ascii	"MD_BUK (0x3 << 3)\000"
 14060      554B2028 
 14060      30783320 
 14060      3C3C2033 
 14060      2900
 14061              	.LASF453:
 14062 a156 494E545F 		.ascii	"INT_LEAST16_MAX (__INT_LEAST16_MAX__)\000"
 14062      4C454153 
 14062      5431365F 
 14062      4D415820 
 14062      285F5F49 
 14063              	.LASF1574:
ARM GAS  /var/folders/z0/6xlwn_996xz3mwq1cgzkbq4r0000gp/T//ccjakVr1.s 			page 374


 14064 a17c 43414E49 		.ascii	"CANIF2_DB1\000"
 14064      46325F44 
 14064      423100
 14065              	.LASF854:
 14066 a187 55415254 		.ascii	"UART_ICR_BITMASK (0x3F)\000"
 14066      5F494352 
 14066      5F424954 
 14066      4D41534B 
 14066      20283078 
 14067              	.LASF763:
 14068 a19f 55415254 		.ascii	"UART_IER_RBRINT (1 << 0)\000"
 14068      5F494552 
 14068      5F524252 
 14068      494E5420 
 14068      2831203C 
 14069              	.LASF90:
 14070 a1b8 5F5F5549 		.ascii	"__UINT16_MAX__ 0xffff\000"
 14070      4E543136 
 14070      5F4D4158 
 14070      5F5F2030 
 14070      78666666 
 14071              	.LASF1455:
 14072 a1ce 53535030 		.ascii	"SSP0CLKDIV\000"
 14072      434C4B44 
 14072      495600
 14073              	.LASF327:
 14074 a1d9 5F5F4152 		.ascii	"__ARM_ARCH 6\000"
 14074      4D5F4152 
 14074      43482036 
 14074      00
 14075              	.LASF1653:
 14076 a1e6 6D73675F 		.ascii	"msg_obj_num\000"
 14076      6F626A5F 
 14076      6E756D00 
 14077              	.LASF900:
 14078 a1f2 5353505F 		.ascii	"SSP_ICR_BITMASK ((uint32_t) (0x03))\000"
 14078      4943525F 
 14078      4249544D 
 14078      41534B20 
 14078      28287569 
 14079              	.LASF203:
 14080 a216 5F5F5546 		.ascii	"__UFRACT_IBIT__ 0\000"
 14080      52414354 
 14080      5F494249 
 14080      545F5F20 
 14080      3000
 14081              	.LASF1449:
 14082 a228 55534250 		.ascii	"USBPLLCLKUEN\000"
 14082      4C4C434C 
 14082      4B55454E 
 14082      00
 14083              	.LASF1607:
 14084 a235 6F645F63 		.ascii	"od_const_table\000"
 14084      6F6E7374 
 14084      5F746162 
 14084      6C6500
 14085              	.LASF738:
ARM GAS  /var/folders/z0/6xlwn_996xz3mwq1cgzkbq4r0000gp/T//ccjakVr1.s 			page 375


 14086 a244 46554E43 		.ascii	"FUNC4 0x4\000"
 14086      34203078 
 14086      3400
 14087              	.LASF887:
 14088 a24e 5353505F 		.ascii	"SSP_CR0_CPHA_FIRST ((uint32_t) (0))\000"
 14088      4352305F 
 14088      43504841 
 14088      5F464952 
 14088      53542028 
 14089              	.LASF151:
 14090 a272 5F5F4442 		.ascii	"__DBL_HAS_QUIET_NAN__ 1\000"
 14090      4C5F4841 
 14090      535F5155 
 14090      4945545F 
 14090      4E414E5F 
 14091              	.LASF155:
 14092 a28a 5F5F4C44 		.ascii	"__LDBL_MIN_10_EXP__ (-307)\000"
 14092      424C5F4D 
 14092      494E5F31 
 14092      305F4558 
 14092      505F5F20 
 14093              	.LASF166:
 14094 a2a5 5F5F4445 		.ascii	"__DEC32_MANT_DIG__ 7\000"
 14094      4333325F 
 14094      4D414E54 
 14094      5F444947 
 14094      5F5F2037 
 14095              	.LASF336:
 14096 a2ba 5F5F4152 		.ascii	"__ARM_ARCH_6M__ 1\000"
 14096      4D5F4152 
 14096      43485F36 
 14096      4D5F5F20 
 14096      3100
 14097              	.LASF514:
 14098 a2cc 5F424954 		.ascii	"_BITMASK(field_width) ( _BIT(field_width) - 1)\000"
 14098      4D41534B 
 14098      28666965 
 14098      6C645F77 
 14098      69647468 
 14099              	.LASF639:
 14100 a2fb 4C50435F 		.ascii	"LPC_CAN0_BASE 0x40050000\000"
 14100      43414E30 
 14100      5F424153 
 14100      45203078 
 14100      34303035 
 14101              	.LASF603:
 14102 a314 53797354 		.ascii	"SysTick_LOAD_RELOAD_Pos 0\000"
 14102      69636B5F 
 14102      4C4F4144 
 14102      5F52454C 
 14102      4F41445F 
 14103              	.LASF965:
 14104 a32e 4932435F 		.ascii	"I2C_I2STAT_M_RX_ARB_LOST ((0x38))\000"
 14104      49325354 
 14104      41545F4D 
 14104      5F52585F 
 14104      4152425F 
ARM GAS  /var/folders/z0/6xlwn_996xz3mwq1cgzkbq4r0000gp/T//ccjakVr1.s 			page 376


 14105              	.LASF729:
 14106 a350 4D445F45 		.ascii	"MD_ENFIL (0x1 << 8)\000"
 14106      4E46494C 
 14106      20283078 
 14106      31203C3C 
 14106      20382900 
 14107              	.LASF1195:
 14108 a364 5F524545 		.ascii	"_REENT_ASCTIME_SIZE 26\000"
 14108      4E545F41 
 14108      53435449 
 14108      4D455F53 
 14108      495A4520 
 14109              	.LASF122:
 14110 a37b 5F5F4445 		.ascii	"__DEC_EVAL_METHOD__ 2\000"
 14110      435F4556 
 14110      414C5F4D 
 14110      4554484F 
 14110      445F5F20 
 14111              	.LASF164:
 14112 a391 5F5F4C44 		.ascii	"__LDBL_HAS_INFINITY__ 1\000"
 14112      424C5F48 
 14112      41535F49 
 14112      4E46494E 
 14112      4954595F 
 14113              	.LASF1460:
 14114 a3a9 55534243 		.ascii	"USBCLKUEN\000"
 14114      4C4B5545 
 14114      4E00
 14115              	.LASF1498:
 14116 a3b3 52455345 		.ascii	"RESET_CAN0\000"
 14116      545F4341 
 14116      4E3000
 14117              	.LASF1067:
 14118 a3be 5F465345 		.ascii	"_FSEEK_OPTIMIZATION 1\000"
 14118      454B5F4F 
 14118      5054494D 
 14118      495A4154 
 14118      494F4E20 
 14119              	.LASF535:
 14120 a3d4 5F5F4153 		.ascii	"__ASM __asm\000"
 14120      4D205F5F 
 14120      61736D00 
 14121              	.LASF1395:
 14122 a3e0 50494F30 		.ascii	"PIO0_6_IRQn\000"
 14122      5F365F49 
 14122      52516E00 
 14123              	.LASF1633:
 14124 a3ec 45504153 		.ascii	"EPASS_CAN_ERROR\000"
 14124      535F4341 
 14124      4E5F4552 
 14124      524F5200 
 14125              	.LASF732:
 14126 a3fc 4D445F46 		.ascii	"MD_FASTI2C (0x2 << 8)\000"
 14126      41535449 
 14126      32432028 
 14126      30783220 
 14126      3C3C2038 
ARM GAS  /var/folders/z0/6xlwn_996xz3mwq1cgzkbq4r0000gp/T//ccjakVr1.s 			page 377


 14127              	.LASF190:
 14128 a412 5F5F5346 		.ascii	"__SFRACT_MAX__ 0X7FP-7HR\000"
 14128      52414354 
 14128      5F4D4158 
 14128      5F5F2030 
 14128      58374650 
 14129              	.LASF1683:
 14130 a42b 43414E5F 		.ascii	"CAN_Receive\000"
 14130      52656365 
 14130      69766500 
 14131              	.LASF2:
 14132 a437 5F5F474E 		.ascii	"__GNUC__ 5\000"
 14132      55435F5F 
 14132      203500
 14133              	.LASF474:
 14134 a442 494E545F 		.ascii	"INT_FAST32_MAX (__INT_FAST32_MAX__)\000"
 14134      46415354 
 14134      33325F4D 
 14134      41582028 
 14134      5F5F494E 
 14135              	.LASF909:
 14136 a466 434F4D50 		.ascii	"COMPILE_TIME_ASSERT(pred) switch(0){case 0:case pre"
 14136      494C455F 
 14136      54494D45 
 14136      5F415353 
 14136      45525428 
 14137 a499 643A3B7D 		.ascii	"d:;}\000"
 14137      00
 14138              	.LASF1493:
 14139 a49e 44455649 		.ascii	"DEVICEID\000"
 14139      43454944 
 14139      00
 14140              	.LASF20:
 14141 a4a7 5F5F5349 		.ascii	"__SIZEOF_LONG_DOUBLE__ 8\000"
 14141      5A454F46 
 14141      5F4C4F4E 
 14141      475F444F 
 14141      55424C45 
 14142              	.LASF527:
 14143 a4c0 5F5F4D50 		.ascii	"__MPU_PRESENT 0\000"
 14143      555F5052 
 14143      4553454E 
 14143      54203000 
 14144              	.LASF743:
 14145 a4d0 54494D45 		.ascii	"TIMER_IR_CLR(n) _BIT(n)\000"
 14145      525F4952 
 14145      5F434C52 
 14145      286E2920 
 14145      5F424954 
 14146              	.LASF1307:
 14147 a4e8 5F5F6E6F 		.ascii	"__nonnull_all __attribute__((__nonnull__))\000"
 14147      6E6E756C 
 14147      6C5F616C 
 14147      6C205F5F 
 14147      61747472 
 14148              	.LASF1616:
 14149 a513 43414E4F 		.ascii	"CANOPEN_sdo_write\000"
ARM GAS  /var/folders/z0/6xlwn_996xz3mwq1cgzkbq4r0000gp/T//ccjakVr1.s 			page 378


 14149      50454E5F 
 14149      73646F5F 
 14149      77726974 
 14149      6500
 14150              	.LASF148:
 14151 a525 5F5F4442 		.ascii	"__DBL_DENORM_MIN__ ((double)4.9406564584124654e-324"
 14151      4C5F4445 
 14151      4E4F524D 
 14151      5F4D494E 
 14151      5F5F2028 
 14152 a558 4C2900   		.ascii	"L)\000"
 14153              	.LASF1510:
 14154 a55b 53595343 		.ascii	"SYSCTL_CLOCK_SYS\000"
 14154      544C5F43 
 14154      4C4F434B 
 14154      5F535953 
 14154      00
 14155              	.LASF972:
 14156 a56c 4932435F 		.ascii	"I2C_I2STAT_S_RX_GENCALL_ACK ((0x70))\000"
 14156      49325354 
 14156      41545F53 
 14156      5F52585F 
 14156      47454E43 
 14157              	.LASF332:
 14158 a591 5F5F5448 		.ascii	"__THUMBEL__ 1\000"
 14158      554D4245 
 14158      4C5F5F20 
 14158      3100
 14159              	.LASF1394:
 14160 a59f 50494F30 		.ascii	"PIO0_5_IRQn\000"
 14160      5F355F49 
 14160      52516E00 
 14161              	.LASF1410:
 14162 a5ab 55415254 		.ascii	"UART0_IRQn\000"
 14162      305F4952 
 14162      516E00
 14163              	.LASF774:
 14164 a5b6 55415254 		.ascii	"UART_IIR_FIFO_EN (3 << 6)\000"
 14164      5F494952 
 14164      5F464946 
 14164      4F5F454E 
 14164      20283320 
 14165              	.LASF494:
 14166 a5d0 55494E54 		.ascii	"UINT16_C(x) __UINT16_C(x)\000"
 14166      31365F43 
 14166      28782920 
 14166      5F5F5549 
 14166      4E543136 
 14167              	.LASF1485:
 14168 a5ea 53544152 		.ascii	"STARTSRP0\000"
 14168      54535250 
 14168      3000
 14169              	.LASF276:
 14170 a5f4 5F5F5451 		.ascii	"__TQ_IBIT__ 0\000"
 14170      5F494249 
 14170      545F5F20 
 14170      3000
ARM GAS  /var/folders/z0/6xlwn_996xz3mwq1cgzkbq4r0000gp/T//ccjakVr1.s 			page 379


 14171              	.LASF1213:
 14172 a602 5F524545 		.ascii	"_REENT_MP_RESULT_K(ptr) ((ptr)->_result_k)\000"
 14172      4E545F4D 
 14172      505F5245 
 14172      53554C54 
 14172      5F4B2870 
 14173              	.LASF687:
 14174 a62d 53595343 		.ascii	"SYSCTL_SLPWAKE_SYSPLL_PD (1 << 7)\000"
 14174      544C5F53 
 14174      4C505741 
 14174      4B455F53 
 14174      5953504C 
 14175              	.LASF18:
 14176 a64f 5F5F5349 		.ascii	"__SIZEOF_FLOAT__ 4\000"
 14176      5A454F46 
 14176      5F464C4F 
 14176      41545F5F 
 14176      203400
 14177              	.LASF1405:
 14178 a662 54494D45 		.ascii	"TIMER_16_0_IRQn\000"
 14178      525F3136 
 14178      5F305F49 
 14178      52516E00 
 14179              	.LASF1528:
 14180 a672 53595343 		.ascii	"SYSCTL_CLOCK_SSP1\000"
 14180      544C5F43 
 14180      4C4F434B 
 14180      5F535350 
 14180      3100
 14181              	.LASF185:
 14182 a684 5F5F4445 		.ascii	"__DEC128_EPSILON__ 1E-33DL\000"
 14182      43313238 
 14182      5F455053 
 14182      494C4F4E 
 14182      5F5F2031 
 14183              	.LASF1119:
 14184 a69f 5F5F5349 		.ascii	"__SIZE_T__ \000"
 14184      5A455F54 
 14184      5F5F2000 
 14185              	.LASF524:
 14186 a6ab 43484950 		.ascii	"CHIP_LPC11CXX \000"
 14186      5F4C5043 
 14186      31314358 
 14186      582000
 14187              	.LASF481:
 14188 a6ba 55494E54 		.ascii	"UINTMAX_MAX (__UINTMAX_MAX__)\000"
 14188      4D41585F 
 14188      4D415820 
 14188      285F5F55 
 14188      494E544D 
 14189              	.LASF804:
 14190 a6d8 55415254 		.ascii	"UART_LCR_PARITY_ODD (0 << 4)\000"
 14190      5F4C4352 
 14190      5F504152 
 14190      4954595F 
 14190      4F444420 
 14191              	.LASF1696:
ARM GAS  /var/folders/z0/6xlwn_996xz3mwq1cgzkbq4r0000gp/T//ccjakVr1.s 			page 380


 14192 a6f5 5F74785F 		.ascii	"_tx_buffer\000"
 14192      62756666 
 14192      657200
 14193              	.LASF1297:
 14194 a700 5F416C69 		.ascii	"_Alignof(x) __alignof(x)\000"
 14194      676E6F66 
 14194      28782920 
 14194      5F5F616C 
 14194      69676E6F 
 14195              	.LASF1318:
 14196 a719 5F5F6F66 		.ascii	"__offsetof(type,field) offsetof(type, field)\000"
 14196      66736574 
 14196      6F662874 
 14196      7970652C 
 14196      6669656C 
 14197              	.LASF418:
 14198 a746 5F494E54 		.ascii	"_INT8_T_DECLARED \000"
 14198      385F545F 
 14198      4445434C 
 14198      41524544 
 14198      2000
 14199              	.LASF1333:
 14200 a758 5F5F4642 		.ascii	"__FBSDID(s) struct __hack\000"
 14200      53444944 
 14200      28732920 
 14200      73747275 
 14200      6374205F 
 14201              	.LASF51:
 14202 a772 5F5F5549 		.ascii	"__UINT_LEAST8_TYPE__ unsigned char\000"
 14202      4E545F4C 
 14202      45415354 
 14202      385F5459 
 14202      50455F5F 
 14203              	.LASF822:
 14204 a795 55415254 		.ascii	"UART_LSR_THRE (1 << 5)\000"
 14204      5F4C5352 
 14204      5F544852 
 14204      45202831 
 14204      203C3C20 
 14205              	.LASF371:
 14206 a7ac 5F5F4C41 		.ascii	"__LARGEFILE_VISIBLE 0\000"
 14206      52474546 
 14206      494C455F 
 14206      56495349 
 14206      424C4520 
 14207              	.LASF1311:
 14208 a7c2 5F5F756E 		.ascii	"__unreachable() __builtin_unreachable()\000"
 14208      72656163 
 14208      6861626C 
 14208      65282920 
 14208      5F5F6275 
 14209              	.LASF922:
 14210 a7ea 4144435F 		.ascii	"ADC_CR_START_NOW ((1UL << 24))\000"
 14210      43525F53 
 14210      54415254 
 14210      5F4E4F57 
 14210      20282831 
ARM GAS  /var/folders/z0/6xlwn_996xz3mwq1cgzkbq4r0000gp/T//ccjakVr1.s 			page 381


 14211              	.LASF794:
 14212 a809 55415254 		.ascii	"UART_LCR_WLEN_MASK (3 << 0)\000"
 14212      5F4C4352 
 14212      5F574C45 
 14212      4E5F4D41 
 14212      534B2028 
 14213              	.LASF808:
 14214 a825 55415254 		.ascii	"UART_LCR_BREAK_EN (1 << 6)\000"
 14214      5F4C4352 
 14214      5F425245 
 14214      414B5F45 
 14214      4E202831 
 14215              	.LASF1281:
 14216 a840 5F5F5354 		.ascii	"__STRING(x) #x\000"
 14216      52494E47 
 14216      28782920 
 14216      237800
 14217              	.LASF633:
 14218 a84f 4C50435F 		.ascii	"LPC_PMU_BASE 0x40038000\000"
 14218      504D555F 
 14218      42415345 
 14218      20307834 
 14218      30303338 
 14219              	.LASF1645:
 14220 a867 54585F42 		.ascii	"TX_BUFFER_FULL_CAN_ERROR\000"
 14220      55464645 
 14220      525F4655 
 14220      4C4C5F43 
 14220      414E5F45 
 14221              	.LASF1393:
 14222 a880 50494F30 		.ascii	"PIO0_4_IRQn\000"
 14222      5F345F49 
 14222      52516E00 
 14223              	.LASF987:
 14224 a88c 4932435F 		.ascii	"I2C_I2MMCTRL_MM_ENA ((1 << 0))\000"
 14224      49324D4D 
 14224      4354524C 
 14224      5F4D4D5F 
 14224      454E4120 
 14225              	.LASF36:
 14226 a8ab 5F5F4348 		.ascii	"__CHAR16_TYPE__ short unsigned int\000"
 14226      41523136 
 14226      5F545950 
 14226      455F5F20 
 14226      73686F72 
 14227              	.LASF1221:
 14228 a8ce 5F524545 		.ascii	"_REENT_MBTOWC_STATE(ptr) ((ptr)->_new._reent._mbtow"
 14228      4E545F4D 
 14228      42544F57 
 14228      435F5354 
 14228      41544528 
 14229 a901 635F7374 		.ascii	"c_state)\000"
 14229      61746529 
 14229      00
 14230              	.LASF202:
 14231 a90a 5F5F5546 		.ascii	"__UFRACT_FBIT__ 16\000"
 14231      52414354 
ARM GAS  /var/folders/z0/6xlwn_996xz3mwq1cgzkbq4r0000gp/T//ccjakVr1.s 			page 382


 14231      5F464249 
 14231      545F5F20 
 14231      313600
 14232              	.LASF537:
 14233 a91d 5F5F5354 		.ascii	"__STATIC_INLINE static inline\000"
 14233      41544943 
 14233      5F494E4C 
 14233      494E4520 
 14233      73746174 
 14234              	.LASF1376:
 14235 a93b 756E7369 		.ascii	"unsigned int\000"
 14235      676E6564 
 14235      20696E74 
 14235      00
 14236              	.LASF1302:
 14237 a948 5F5F6D61 		.ascii	"__malloc_like __attribute__((__malloc__))\000"
 14237      6C6C6F63 
 14237      5F6C696B 
 14237      65205F5F 
 14237      61747472 
 14238              	.LASF857:
 14239 a972 55415254 		.ascii	"UART_SCICTRL_NACKDIS (1 << 1)\000"
 14239      5F534349 
 14239      4354524C 
 14239      5F4E4143 
 14239      4B444953 
 14240              	.LASF682:
 14241 a990 53595343 		.ascii	"SYSCTL_SLPWAKE_FLASH_PD (1 << 2)\000"
 14241      544C5F53 
 14241      4C505741 
 14241      4B455F46 
 14241      4C415348 
 14242              	.LASF1240:
 14243 a9b1 5F5F5448 		.ascii	"__THROW \000"
 14243      524F5720 
 14243      00
 14244              	.LASF487:
 14245 a9ba 57434841 		.ascii	"WCHAR_MIN (__WCHAR_MIN__)\000"
 14245      525F4D49 
 14245      4E20285F 
 14245      5F574348 
 14245      41525F4D 
 14246              	.LASF1571:
 14247 a9d4 43414E49 		.ascii	"CANIF2_MCTRL\000"
 14247      46325F4D 
 14247      4354524C 
 14247      00
 14248              	.LASF1501:
 14249 a9e1 52455345 		.ascii	"RESET_TIMER1_16\000"
 14249      545F5449 
 14249      4D455231 
 14249      5F313600 
 14250              	.LASF1009:
 14251 a9f1 4932435F 		.ascii	"I2C_MONITOR_CFG_SCL_OUTPUT I2C_I2MMCTRL_ENA_SCL\000"
 14251      4D4F4E49 
 14251      544F525F 
 14251      4346475F 
ARM GAS  /var/folders/z0/6xlwn_996xz3mwq1cgzkbq4r0000gp/T//ccjakVr1.s 			page 383


 14251      53434C5F 
 14252              	.LASF1422:
 14253 aa21 4952516E 		.ascii	"IRQn_Type\000"
 14253      5F547970 
 14253      6500
 14254              	.LASF501:
 14255 aa2b 5F474343 		.ascii	"_GCC_WRAP_STDINT_H \000"
 14255      5F575241 
 14255      505F5354 
 14255      44494E54 
 14255      5F482000 
 14256              	.LASF1359:
 14257 aa3f 5F5F6E65 		.ascii	"__need_NULL \000"
 14257      65645F4E 
 14257      554C4C20 
 14257      00
 14258              	.LASF521:
 14259 aa4c 4D494E28 		.ascii	"MIN(a,b) (((a) < (b)) ? (a) : (b))\000"
 14259      612C6229 
 14259      20282828 
 14259      6129203C 
 14259      20286229 
 14260              	.LASF1642:
 14261 aa6f 554E5553 		.ascii	"UNUSED_CAN_ERROR\000"
 14261      45445F43 
 14261      414E5F45 
 14261      52524F52 
 14261      00
 14262              	.LASF296:
 14263 aa80 5F5F5548 		.ascii	"__UHA_IBIT__ 8\000"
 14263      415F4942 
 14263      49545F5F 
 14263      203800
 14264              	.LASF220:
 14265 aa8f 5F5F4C4C 		.ascii	"__LLFRACT_MAX__ 0X7FFFFFFFFFFFFFFFP-63LLR\000"
 14265      46524143 
 14265      545F4D41 
 14265      585F5F20 
 14265      30583746 
 14266              	.LASF996:
 14267 aab9 4932435F 		.ascii	"I2C_I2SCLL_BITMASK ((0xFFFF))\000"
 14267      49325343 
 14267      4C4C5F42 
 14267      49544D41 
 14267      534B2028 
 14268              	.LASF126:
 14269 aad7 5F5F464C 		.ascii	"__FLT_MIN_EXP__ (-125)\000"
 14269      545F4D49 
 14269      4E5F4558 
 14269      505F5F20 
 14269      282D3132 
 14270              	.LASF1347:
 14271 aaee 5F5F7472 		.ascii	"__trylocks_exclusive(...) __lock_annotate(exclusive"
 14271      796C6F63 
 14271      6B735F65 
 14271      78636C75 
 14271      73697665 
ARM GAS  /var/folders/z0/6xlwn_996xz3mwq1cgzkbq4r0000gp/T//ccjakVr1.s 			page 384


 14272 ab21 5F747279 		.ascii	"_trylock_function(__VA_ARGS__))\000"
 14272      6C6F636B 
 14272      5F66756E 
 14272      6374696F 
 14272      6E285F5F 
 14273              	.LASF1366:
 14274 ab41 73686F72 		.ascii	"short int\000"
 14274      7420696E 
 14274      7400
 14275              	.LASF924:
 14276 ab4b 4144435F 		.ascii	"ADC_CR_START_CTOUT8 ((3UL << 24))\000"
 14276      43525F53 
 14276      54415254 
 14276      5F43544F 
 14276      55543820 
 14277              	.LASF1535:
 14278 ab6d 52494E47 		.ascii	"RINGBUFF_T\000"
 14278      42554646 
 14278      5F5400
 14279              	.LASF1158:
 14280 ab78 5F4D4143 		.ascii	"_MACHINE__TYPES_H \000"
 14280      48494E45 
 14280      5F5F5459 
 14280      5045535F 
 14280      482000
 14281              	.LASF750:
 14282 ab8b 54494D45 		.ascii	"TIMER_STOP_ON_MATCH(n) (_BIT((((n) * 3) + 2)))\000"
 14282      525F5354 
 14282      4F505F4F 
 14282      4E5F4D41 
 14282      54434828 
 14283              	.LASF1674:
 14284 abba 43414E5F 		.ascii	"CAN_GetTxErrorCount\000"
 14284      47657454 
 14284      78457272 
 14284      6F72436F 
 14284      756E7400 
 14285              	.LASF943:
 14286 abce 4932435F 		.ascii	"I2C_I2CONCLR_SIC ((1 << 3))\000"
 14286      4932434F 
 14286      4E434C52 
 14286      5F534943 
 14286      20282831 
 14287              	.LASF426:
 14288 abea 5F5F696E 		.ascii	"__int32_t_defined 1\000"
 14288      7433325F 
 14288      745F6465 
 14288      66696E65 
 14288      64203100 
 14289              	.LASF1298:
 14290 abfe 5F41746F 		.ascii	"_Atomic(T) struct { T volatile __val; }\000"
 14290      6D696328 
 14290      54292073 
 14290      74727563 
 14290      74207B20 
 14291              	.LASF576:
 14292 ac26 5343425F 		.ascii	"SCB_AIRCR_VECTKEYSTAT_Msk (0xFFFFUL << SCB_AIRCR_VE"
ARM GAS  /var/folders/z0/6xlwn_996xz3mwq1cgzkbq4r0000gp/T//ccjakVr1.s 			page 385


 14292      41495243 
 14292      525F5645 
 14292      43544B45 
 14292      59535441 
 14293 ac59 43544B45 		.ascii	"CTKEYSTAT_Pos)\000"
 14293      59535441 
 14293      545F506F 
 14293      732900
 14294              	.LASF735:
 14295 ac68 46554E43 		.ascii	"FUNC1 0x1\000"
 14295      31203078 
 14295      3100
 14296              	.LASF541:
 14297 ac72 5F5F434F 		.ascii	"__CORE_CM0_H_DEPENDANT \000"
 14297      52455F43 
 14297      4D305F48 
 14297      5F444550 
 14297      454E4441 
 14298              	.LASF52:
 14299 ac8a 5F5F5549 		.ascii	"__UINT_LEAST16_TYPE__ short unsigned int\000"
 14299      4E545F4C 
 14299      45415354 
 14299      31365F54 
 14299      5950455F 
 14300              	.LASF853:
 14301 acb3 55415254 		.ascii	"UART_ICR_PULSEDIV(n) ((n & 0x07) << 3)\000"
 14301      5F494352 
 14301      5F50554C 
 14301      53454449 
 14301      56286E29 
 14302              	.LASF1065:
 14303 acda 5F4C4442 		.ascii	"_LDBL_EQ_DBL 1\000"
 14303      4C5F4551 
 14303      5F44424C 
 14303      203100
 14304              	.LASF1120:
 14305 ace9 5F53495A 		.ascii	"_SIZE_T \000"
 14305      455F5420 
 14305      00
 14306              	.LASF884:
 14307 acf2 5353505F 		.ascii	"SSP_CR0_FRF_MICROWIRE ((uint32_t) (2 << 4))\000"
 14307      4352305F 
 14307      4652465F 
 14307      4D494352 
 14307      4F574952 
 14308              	.LASF1525:
 14309 ad1e 53595343 		.ascii	"SYSCTL_CLOCK_WDT\000"
 14309      544C5F43 
 14309      4C4F434B 
 14309      5F574454 
 14309      00
 14310              	.LASF134:
 14311 ad2f 5F5F464C 		.ascii	"__FLT_DENORM_MIN__ 1.4012984643248171e-45F\000"
 14311      545F4445 
 14311      4E4F524D 
 14311      5F4D494E 
 14311      5F5F2031 
ARM GAS  /var/folders/z0/6xlwn_996xz3mwq1cgzkbq4r0000gp/T//ccjakVr1.s 			page 386


 14312              	.LASF285:
 14313 ad5a 5F5F5554 		.ascii	"__UTQ_FBIT__ 128\000"
 14313      515F4642 
 14313      49545F5F 
 14313      20313238 
 14313      00
 14314              	.LASF722:
 14315 ad6b 4D445F50 		.ascii	"MD_PUP (0x2 << 3)\000"
 14315      55502028 
 14315      30783220 
 14315      3C3C2033 
 14315      2900
 14316              	.LASF834:
 14317 ad7d 55415254 		.ascii	"UART_MSR_RI (1 << 6)\000"
 14317      5F4D5352 
 14317      5F524920 
 14317      2831203C 
 14317      3C203629 
 14318              	.LASF1006:
 14319 ad92 4932435F 		.ascii	"I2C_ERR (0x10000000)\000"
 14319      45525220 
 14319      28307831 
 14319      30303030 
 14319      30303029 
 14320              	.LASF101:
 14321 ada7 5F5F5549 		.ascii	"__UINT_LEAST8_MAX__ 0xff\000"
 14321      4E545F4C 
 14321      45415354 
 14321      385F4D41 
 14321      585F5F20 
 14322              	.LASF915:
 14323 adc0 4144435F 		.ascii	"ADC_DR_OVERRUN(n) ((((n) >> 30) & (1UL)))\000"
 14323      44525F4F 
 14323      56455252 
 14323      554E286E 
 14323      29202828 
 14324              	.LASF1681:
 14325 adea 63616C6C 		.ascii	"callbacks\000"
 14325      6261636B 
 14325      7300
 14326              	.LASF539:
 14327 adf4 5F5F434F 		.ascii	"__CORE_CMINSTR_H \000"
 14327      52455F43 
 14327      4D494E53 
 14327      54525F48 
 14327      2000
 14328              	.LASF91:
 14329 ae06 5F5F5549 		.ascii	"__UINT32_MAX__ 0xffffffffUL\000"
 14329      4E543332 
 14329      5F4D4158 
 14329      5F5F2030 
 14329      78666666 
 14330              	.LASF93:
 14331 ae22 5F5F494E 		.ascii	"__INT_LEAST8_MAX__ 0x7f\000"
 14331      545F4C45 
 14331      41535438 
 14331      5F4D4158 
ARM GAS  /var/folders/z0/6xlwn_996xz3mwq1cgzkbq4r0000gp/T//ccjakVr1.s 			page 387


 14331      5F5F2030 
 14332              	.LASF489:
 14333 ae3a 57494E54 		.ascii	"WINT_MAX (__WINT_MAX__)\000"
 14333      5F4D4158 
 14333      20285F5F 
 14333      57494E54 
 14333      5F4D4158 
 14334              	.LASF585:
 14335 ae52 5343425F 		.ascii	"SCB_SCR_SLEEPDEEP_Pos 2\000"
 14335      5343525F 
 14335      534C4545 
 14335      50444545 
 14335      505F506F 
 14336              	.LASF575:
 14337 ae6a 5343425F 		.ascii	"SCB_AIRCR_VECTKEYSTAT_Pos 16\000"
 14337      41495243 
 14337      525F5645 
 14337      43544B45 
 14337      59535441 
 14338              	.LASF1210:
 14339 ae87 5F524545 		.ascii	"_REENT_RAND48_MULT(ptr) ((ptr)->_new._reent._r48._m"
 14339      4E545F52 
 14339      414E4434 
 14339      385F4D55 
 14339      4C542870 
 14340 aeba 756C7429 		.ascii	"ult)\000"
 14340      00
 14341              	.LASF434:
 14342 aebf 5F5F696E 		.ascii	"__int_least32_t_defined 1\000"
 14342      745F6C65 
 14342      61737433 
 14342      325F745F 
 14342      64656669 
 14343              	.LASF1592:
 14344 aed9 4343414E 		.ascii	"CCAN_MSG_OBJ_T\000"
 14344      5F4D5347 
 14344      5F4F424A 
 14344      5F5400
 14345              	.LASF4:
 14346 aee8 5F5F474E 		.ascii	"__GNUC_PATCHLEVEL__ 1\000"
 14346      55435F50 
 14346      41544348 
 14346      4C455645 
 14346      4C5F5F20 
 14347              	.LASF456:
 14348 aefe 494E5433 		.ascii	"INT32_MAX (__INT32_MAX__)\000"
 14348      325F4D41 
 14348      5820285F 
 14348      5F494E54 
 14348      33325F4D 
 14349              		.ident	"GCC: (GNU Tools for ARM Embedded Processors) 5.4.1 20160919 (release) [ARM/embedded-5-bran
ARM GAS  /var/folders/z0/6xlwn_996xz3mwq1cgzkbq4r0000gp/T//ccjakVr1.s 			page 388


DEFINED SYMBOLS
                            *ABS*:0000000000000000 can.c
/var/folders/z0/6xlwn_996xz3mwq1cgzkbq4r0000gp/T//ccjakVr1.s:79     .text.CAN_error:0000000000000000 $t
/var/folders/z0/6xlwn_996xz3mwq1cgzkbq4r0000gp/T//ccjakVr1.s:84     .text.CAN_error:0000000000000000 CAN_error
/var/folders/z0/6xlwn_996xz3mwq1cgzkbq4r0000gp/T//ccjakVr1.s:109    .text.CAN_error:000000000000000c $d
/var/folders/z0/6xlwn_996xz3mwq1cgzkbq4r0000gp/T//ccjakVr1.s:115    .text.CAN_rx:0000000000000000 $t
/var/folders/z0/6xlwn_996xz3mwq1cgzkbq4r0000gp/T//ccjakVr1.s:120    .text.CAN_rx:0000000000000000 CAN_rx
/var/folders/z0/6xlwn_996xz3mwq1cgzkbq4r0000gp/T//ccjakVr1.s:168    .text.CAN_rx:0000000000000030 $d
                            *COM*:0000000000000018 msg_obj
/var/folders/z0/6xlwn_996xz3mwq1cgzkbq4r0000gp/T//ccjakVr1.s:177    .text.CAN_tx:0000000000000000 $t
/var/folders/z0/6xlwn_996xz3mwq1cgzkbq4r0000gp/T//ccjakVr1.s:182    .text.CAN_tx:0000000000000000 CAN_tx
/var/folders/z0/6xlwn_996xz3mwq1cgzkbq4r0000gp/T//ccjakVr1.s:251    .text.CAN_tx:0000000000000040 $d
                            *COM*:0000000000000018 tmp_msg_obj_2
/var/folders/z0/6xlwn_996xz3mwq1cgzkbq4r0000gp/T//ccjakVr1.s:264    .text.Baudrate_Calculate:0000000000000000 $t
/var/folders/z0/6xlwn_996xz3mwq1cgzkbq4r0000gp/T//ccjakVr1.s:269    .text.Baudrate_Calculate:0000000000000000 Baudrate_Calculate
/var/folders/z0/6xlwn_996xz3mwq1cgzkbq4r0000gp/T//ccjakVr1.s:428    .text.Baudrate_Calculate:0000000000000090 $d
/var/folders/z0/6xlwn_996xz3mwq1cgzkbq4r0000gp/T//ccjakVr1.s:433    .text.CAN_GetTxErrorCount:0000000000000000 $t
/var/folders/z0/6xlwn_996xz3mwq1cgzkbq4r0000gp/T//ccjakVr1.s:438    .text.CAN_GetTxErrorCount:0000000000000000 CAN_GetTxErrorCount
/var/folders/z0/6xlwn_996xz3mwq1cgzkbq4r0000gp/T//ccjakVr1.s:457    .text.CAN_GetTxErrorCount:0000000000000008 $d
/var/folders/z0/6xlwn_996xz3mwq1cgzkbq4r0000gp/T//ccjakVr1.s:462    .text.CAN_GetRxErrorCount:0000000000000000 $t
/var/folders/z0/6xlwn_996xz3mwq1cgzkbq4r0000gp/T//ccjakVr1.s:467    .text.CAN_GetRxErrorCount:0000000000000000 CAN_GetRxErrorCount
/var/folders/z0/6xlwn_996xz3mwq1cgzkbq4r0000gp/T//ccjakVr1.s:487    .text.CAN_GetRxErrorCount:000000000000000c $d
/var/folders/z0/6xlwn_996xz3mwq1cgzkbq4r0000gp/T//ccjakVr1.s:492    .text.CAN_IsTxBusy:0000000000000000 $t
/var/folders/z0/6xlwn_996xz3mwq1cgzkbq4r0000gp/T//ccjakVr1.s:497    .text.CAN_IsTxBusy:0000000000000000 CAN_IsTxBusy
/var/folders/z0/6xlwn_996xz3mwq1cgzkbq4r0000gp/T//ccjakVr1.s:519    .text.CAN_IsTxBusy:0000000000000010 $d
/var/folders/z0/6xlwn_996xz3mwq1cgzkbq4r0000gp/T//ccjakVr1.s:524    .text.CAN_ResetPeripheral:0000000000000000 $t
/var/folders/z0/6xlwn_996xz3mwq1cgzkbq4r0000gp/T//ccjakVr1.s:529    .text.CAN_ResetPeripheral:0000000000000000 CAN_ResetPeripheral
/var/folders/z0/6xlwn_996xz3mwq1cgzkbq4r0000gp/T//ccjakVr1.s:584    .text.CAN_ResetPeripheral:0000000000000020 $d
/var/folders/z0/6xlwn_996xz3mwq1cgzkbq4r0000gp/T//ccjakVr1.s:590    .text.Convert_To_CAN_Error:0000000000000000 $t
/var/folders/z0/6xlwn_996xz3mwq1cgzkbq4r0000gp/T//ccjakVr1.s:595    .text.Convert_To_CAN_Error:0000000000000000 Convert_To_CAN_Error
/var/folders/z0/6xlwn_996xz3mwq1cgzkbq4r0000gp/T//ccjakVr1.s:618    .rodata.Convert_To_CAN_Error:0000000000000000 $d
/var/folders/z0/6xlwn_996xz3mwq1cgzkbq4r0000gp/T//ccjakVr1.s:686    .text.Convert_To_CAN_Error:0000000000000048 $d
/var/folders/z0/6xlwn_996xz3mwq1cgzkbq4r0000gp/T//ccjakVr1.s:693    .text.CAN_IRQHandler:0000000000000000 $t
/var/folders/z0/6xlwn_996xz3mwq1cgzkbq4r0000gp/T//ccjakVr1.s:698    .text.CAN_IRQHandler:0000000000000000 CAN_IRQHandler
/var/folders/z0/6xlwn_996xz3mwq1cgzkbq4r0000gp/T//ccjakVr1.s:725    .text.CAN_IRQHandler:0000000000000010 $d
/var/folders/z0/6xlwn_996xz3mwq1cgzkbq4r0000gp/T//ccjakVr1.s:730    .text.CAN_SetMask1:0000000000000000 $t
/var/folders/z0/6xlwn_996xz3mwq1cgzkbq4r0000gp/T//ccjakVr1.s:735    .text.CAN_SetMask1:0000000000000000 CAN_SetMask1
/var/folders/z0/6xlwn_996xz3mwq1cgzkbq4r0000gp/T//ccjakVr1.s:799    .text.CAN_SetMask1:0000000000000038 $d
/var/folders/z0/6xlwn_996xz3mwq1cgzkbq4r0000gp/T//ccjakVr1.s:805    .text.CAN_SetMask2:0000000000000000 $t
/var/folders/z0/6xlwn_996xz3mwq1cgzkbq4r0000gp/T//ccjakVr1.s:810    .text.CAN_SetMask2:0000000000000000 CAN_SetMask2
/var/folders/z0/6xlwn_996xz3mwq1cgzkbq4r0000gp/T//ccjakVr1.s:864    .text.CAN_SetMask2:0000000000000028 $d
/var/folders/z0/6xlwn_996xz3mwq1cgzkbq4r0000gp/T//ccjakVr1.s:870    .text.CAN_Init:0000000000000000 $t
/var/folders/z0/6xlwn_996xz3mwq1cgzkbq4r0000gp/T//ccjakVr1.s:875    .text.CAN_Init:0000000000000000 CAN_Init
/var/folders/z0/6xlwn_996xz3mwq1cgzkbq4r0000gp/T//ccjakVr1.s:1004   .text.CAN_Init:0000000000000088 $d
                            *COM*:0000000000000180 _rx_buffer
                            *COM*:0000000000000180 _tx_buffer
/var/folders/z0/6xlwn_996xz3mwq1cgzkbq4r0000gp/T//ccjakVr1.s:1018   .text.CAN_Receive:0000000000000000 $t
/var/folders/z0/6xlwn_996xz3mwq1cgzkbq4r0000gp/T//ccjakVr1.s:1023   .text.CAN_Receive:0000000000000000 CAN_Receive
/var/folders/z0/6xlwn_996xz3mwq1cgzkbq4r0000gp/T//ccjakVr1.s:1070   .text.CAN_Receive:0000000000000028 $d
/var/folders/z0/6xlwn_996xz3mwq1cgzkbq4r0000gp/T//ccjakVr1.s:1077   .text.CAN_TransmitMsgObj:0000000000000000 $t
/var/folders/z0/6xlwn_996xz3mwq1cgzkbq4r0000gp/T//ccjakVr1.s:1082   .text.CAN_TransmitMsgObj:0000000000000000 CAN_TransmitMsgObj
/var/folders/z0/6xlwn_996xz3mwq1cgzkbq4r0000gp/T//ccjakVr1.s:1187   .text.CAN_TransmitMsgObj:000000000000005c $d
/var/folders/z0/6xlwn_996xz3mwq1cgzkbq4r0000gp/T//ccjakVr1.s:1197   .text.CAN_Transmit:0000000000000000 $t
/var/folders/z0/6xlwn_996xz3mwq1cgzkbq4r0000gp/T//ccjakVr1.s:1202   .text.CAN_Transmit:0000000000000000 CAN_Transmit
/var/folders/z0/6xlwn_996xz3mwq1cgzkbq4r0000gp/T//ccjakVr1.s:1252   .text.CAN_Transmit:0000000000000024 $d
                            *COM*:0000000000000018 tmp_msg_obj
/var/folders/z0/6xlwn_996xz3mwq1cgzkbq4r0000gp/T//ccjakVr1.s:1257   .text.CAN_GetErrorStatus:0000000000000000 $t
ARM GAS  /var/folders/z0/6xlwn_996xz3mwq1cgzkbq4r0000gp/T//ccjakVr1.s 			page 389


/var/folders/z0/6xlwn_996xz3mwq1cgzkbq4r0000gp/T//ccjakVr1.s:1262   .text.CAN_GetErrorStatus:0000000000000000 CAN_GetErrorStatus
/var/folders/z0/6xlwn_996xz3mwq1cgzkbq4r0000gp/T//ccjakVr1.s:1285   .text.CAN_GetErrorStatus:000000000000000c $d
/var/folders/z0/6xlwn_996xz3mwq1cgzkbq4r0000gp/T//ccjakVr1.s:1295   .rodata:0000000000000000 $d
/var/folders/z0/6xlwn_996xz3mwq1cgzkbq4r0000gp/T//ccjakVr1.s:1315   .bss.tx_buffer:0000000000000000 $d
/var/folders/z0/6xlwn_996xz3mwq1cgzkbq4r0000gp/T//ccjakVr1.s:1319   .bss.tx_buffer:0000000000000000 tx_buffer
/var/folders/z0/6xlwn_996xz3mwq1cgzkbq4r0000gp/T//ccjakVr1.s:1322   .bss.rx_buffer:0000000000000000 $d
/var/folders/z0/6xlwn_996xz3mwq1cgzkbq4r0000gp/T//ccjakVr1.s:1326   .bss.rx_buffer:0000000000000000 rx_buffer
/var/folders/z0/6xlwn_996xz3mwq1cgzkbq4r0000gp/T//ccjakVr1.s:1329   .bss.can_error_info:0000000000000000 $d
/var/folders/z0/6xlwn_996xz3mwq1cgzkbq4r0000gp/T//ccjakVr1.s:1333   .bss.can_error_info:0000000000000000 can_error_info
/var/folders/z0/6xlwn_996xz3mwq1cgzkbq4r0000gp/T//ccjakVr1.s:1336   .bss.msg_obj_stat:0000000000000000 $d
/var/folders/z0/6xlwn_996xz3mwq1cgzkbq4r0000gp/T//ccjakVr1.s:1340   .bss.msg_obj_stat:0000000000000000 msg_obj_stat
/var/folders/z0/6xlwn_996xz3mwq1cgzkbq4r0000gp/T//ccjakVr1.s:1346   .bss.can_error_flag:0000000000000000 can_error_flag
/var/folders/z0/6xlwn_996xz3mwq1cgzkbq4r0000gp/T//ccjakVr1.s:1347   .bss.can_error_flag:0000000000000000 $d
                     .debug_frame:0000000000000010 $d
                           .group:0000000000000000 wm4.0.875846967d3f9b39cda0d496d1540481
                           .group:0000000000000000 wm4._newlib_version.h.4.ad342815780c8db09778091a421b5b5b
                           .group:0000000000000000 wm4.features.h.33.863f3be0b2e521e624fcc7d6fa31d2ca
                           .group:0000000000000000 wm4._default_types.h.15.933e8edd27a65e0b69af4a865eb623d2
                           .group:0000000000000000 wm4._intsup.h.10.b82bf99f69d6a5c085fc866de0d3eb9b
                           .group:0000000000000000 wm4._stdint.h.10.7a5f60e6741af4a5594a3867d347e1f9
                           .group:0000000000000000 wm4.stdint.h.23.373a9d32a9e4c2e88fd347156532d281
                           .group:0000000000000000 wm4.stdbool.h.29.07dce69c3b78884144b7f7bd19483461
                           .group:0000000000000000 wm4.lpc_types.h.63.860ba57581a002825766a7c2ac00d549
                           .group:0000000000000000 wm4.sys_config.h.31.9f234e9c90333d233c7e647ebe63e928
                           .group:0000000000000000 wm4.cmsis_11cxx.h.33.407e9bbb5d170cd1552d3f7dc3fd5c42
                           .group:0000000000000000 wm4.core_cm0.h.32.192d13cfa8b31e63c86621de62eb153f
                           .group:0000000000000000 wm4.core_cm0.h.120.f4257ea7d0bce0cbabffe223e23b2fd4
                           .group:0000000000000000 wm4.chip.h.116.857da603c399e979152c31968de4baae
                           .group:0000000000000000 wm4.pmu_11xx.h.33.1d6b708881441cb98d19b8bab3caa180
                           .group:0000000000000000 wm4.sysctl_11xx.h.33.ae61a1181e608f8409883008e291930c
                           .group:0000000000000000 wm4.clock_11xx.h.33.23290a9e2ed919e3a6958d25130bc848
                           .group:0000000000000000 wm4.iocon_11xx.h.33.25e2b3cde122df23fb07b984cb4f3a93
                           .group:0000000000000000 wm4.timer_11xx.h.33.c92f50a9325789ee6a8ffd6248980d70
                           .group:0000000000000000 wm4.ring_buffer.h.33.2f271415f1f27d60350fb4738c5cbee6
                           .group:0000000000000000 wm4.uart_11xx.h.98.fe68b709973730a4fba3f3ce60c5c312
                           .group:0000000000000000 wm4.wwdt_11xx.h.33.5768344983cb842df69cc91ea86cabb0
                           .group:0000000000000000 wm4.ssp_11xx.h.33.af054d3d65f4cb0c078be40bb872ec37
                           .group:0000000000000000 wm4.error.h.38.ae74fe1dd9d19c80c505f1fda144fce8
                           .group:0000000000000000 wm4.adc_11xx.h.33.6ce7433ac6b30df70a6993d01dbd513f
                           .group:0000000000000000 wm4.i2c_11xx.h.33.2b506d1350e00a8c26e8bf006a5f9390
                           .group:0000000000000000 wm4.ccand_11xx.h.33.99627f4b529fecdc77b0877ab6fe5266
                           .group:0000000000000000 wm4.newlib.h.8.36dd0417407b0a085bc04c49cc2ed13a
                           .group:0000000000000000 wm4.config.h.219.65a553ab5bef5482f0d7880b0d33015e
                           .group:0000000000000000 wm4._ansi.h.23.84af8eb8cd468d25cc5f45f5eb13ec51
                           .group:0000000000000000 wm4.stddef.h.39.99b5021e28f91cdb161c889e07266673
                           .group:0000000000000000 wm4.lock.h.2.9bc98482741e5e2a9450b12934a684ea
                           .group:0000000000000000 wm4._types.h.125.5cf8a495f1f7ef36777ad868a1e32068
                           .group:0000000000000000 wm4.stddef.h.161.5349cb105733e8777bfb0cf53c4e3f34
                           .group:0000000000000000 wm4._types.h.183.c226d164ceca1f2ecb9ae9360c54a098
                           .group:0000000000000000 wm4.reent.h.17.23b059516345f8f5abfa01ddc379570f
                           .group:0000000000000000 wm4.cdefs.h.47.d0af77d4010113800282e6476aca9724
                           .group:0000000000000000 wm4.string.h.15.dab3980bf35408a4c507182805e2de3a
                           .group:0000000000000000 wm4.stddef.h.161.19e15733342b50ead2919490b095303e

UNDEFINED SYMBOLS
RingBuffer_Insert
RingBuffer_Pop
ARM GAS  /var/folders/z0/6xlwn_996xz3mwq1cgzkbq4r0000gp/T//ccjakVr1.s 			page 390


__aeabi_uidiv
Chip_Clock_GetMainClockRate
RingBuffer_Init
