ARM GAS  /var/folders/z0/6xlwn_996xz3mwq1cgzkbq4r0000gp/T//ccjakVr1.s 			page 1


   1              		.syntax unified
   2              		.cpu cortex-m0
   3              		.fpu softvfp
   4              		.eabi_attribute 20, 1	@ Tag_ABI_FP_denormal
   5              		.eabi_attribute 21, 1	@ Tag_ABI_FP_exceptions
   6              		.eabi_attribute 23, 3	@ Tag_ABI_FP_number_model
   7              		.eabi_attribute 24, 1	@ Tag_ABI_align8_needed
   8              		.eabi_attribute 25, 1	@ Tag_ABI_align8_preserved
   9              		.eabi_attribute 26, 1	@ Tag_ABI_enum_size
  10              		.eabi_attribute 30, 2	@ Tag_ABI_optimization_goals
  11              		.eabi_attribute 34, 0	@ Tag_CPU_unaligned_access
  12              		.eabi_attribute 18, 4	@ Tag_ABI_PCS_wchar_t
  13              		.file	"can.c"
  14              	@ GNU C89 (GNU Tools for ARM Embedded Processors) version 5.4.1 20160919 (release) [ARM/embedded-5-
  15              	@	compiled by GNU C version 4.2.1 (Based on Apple Inc. build 5658) (LLVM build 2336.9.00), GMP vers
  16              	@ GGC heuristics: --param ggc-min-expand=100 --param ggc-min-heapsize=131072
  17              	@ options passed:  -I . -I inc/
  18              	@ -I ../../lib/lpc11cx4-library/lpc_chip_11cxx_lib/inc
  19              	@ -I ../../lib/lpc11cx4-library/evt_lib/inc/ -I ../../lib/CANlib
  20              	@ -imultilib armv6-m
  21              	@ -iprefix /usr/local/Cellar/gcc-arm-none-eabi/20160928/bin/../lib/gcc/arm-none-eabi/5.4.1/
  22              	@ -isysroot /usr/local/Cellar/gcc-arm-none-eabi/20160928/bin/../arm-none-eabi
  23              	@ -MD bin/can.d -MF bin/can.d -MP -MQ bin/can.o -D__USES_INITFINI__
  24              	@ -D UART_BAUD=57600 -D CORE_M0 -D DEBUG_ENABLE -D FSAE_DRIVERS
  25              	@ -D CAN_ARCHITECTURE_ARM ../../lib/lpc11cx4-library/evt_lib/src/can.c
  26              	@ -mcpu=cortex-m0 -mthumb -auxbase-strip bin/can.o -g -ggdb3 -O2 -Wall
  27              	@ -Wstrict-prototypes -Wextra -std=gnu90 -ffunction-sections
  28              	@ -fdata-sections -fdiagnostics-color=always -fverbose-asm
  29              	@ options enabled:  -faggressive-loop-optimizations -falign-functions
  30              	@ -falign-jumps -falign-labels -falign-loops -fauto-inc-dec
  31              	@ -fbranch-count-reg -fcaller-saves -fchkp-check-incomplete-type
  32              	@ -fchkp-check-read -fchkp-check-write -fchkp-instrument-calls
  33              	@ -fchkp-narrow-bounds -fchkp-optimize -fchkp-store-bounds
  34              	@ -fchkp-use-static-bounds -fchkp-use-static-const-bounds
  35              	@ -fchkp-use-wrappers -fcombine-stack-adjustments -fcommon -fcompare-elim
  36              	@ -fcprop-registers -fcrossjumping -fcse-follow-jumps -fdata-sections
  37              	@ -fdefer-pop -fdelete-null-pointer-checks -fdevirtualize
  38              	@ -fdevirtualize-speculatively -fdwarf2-cfi-asm -fearly-inlining
  39              	@ -feliminate-unused-debug-types -fexpensive-optimizations
  40              	@ -fforward-propagate -ffunction-cse -ffunction-sections -fgcse -fgcse-lm
  41              	@ -fgnu-runtime -fgnu-unique -fguess-branch-probability
  42              	@ -fhoist-adjacent-loads -fident -fif-conversion -fif-conversion2
  43              	@ -findirect-inlining -finline -finline-atomics
  44              	@ -finline-functions-called-once -finline-small-functions -fipa-cp
  45              	@ -fipa-cp-alignment -fipa-icf -fipa-icf-functions -fipa-icf-variables
  46              	@ -fipa-profile -fipa-pure-const -fipa-reference -fipa-sra
  47              	@ -fira-hoist-pressure -fira-share-save-slots -fira-share-spill-slots
  48              	@ -fisolate-erroneous-paths-dereference -fivopts -fkeep-static-consts
  49              	@ -fleading-underscore -flifetime-dse -flra-remat -flto-odr-type-merging
  50              	@ -fmath-errno -fmerge-constants -fmerge-debug-strings
  51              	@ -fmove-loop-invariants -fomit-frame-pointer -foptimize-sibling-calls
  52              	@ -foptimize-strlen -fpartial-inlining -fpeephole -fpeephole2
  53              	@ -fprefetch-loop-arrays -freg-struct-return -freorder-blocks
  54              	@ -freorder-functions -frerun-cse-after-loop
  55              	@ -fsched-critical-path-heuristic -fsched-dep-count-heuristic
  56              	@ -fsched-group-heuristic -fsched-interblock -fsched-last-insn-heuristic
  57              	@ -fsched-pressure -fsched-rank-heuristic -fsched-spec
ARM GAS  /var/folders/z0/6xlwn_996xz3mwq1cgzkbq4r0000gp/T//ccjakVr1.s 			page 2


  58              	@ -fsched-spec-insn-heuristic -fsched-stalled-insns-dep -fschedule-insns2
  59              	@ -fsection-anchors -fsemantic-interposition -fshow-column -fshrink-wrap
  60              	@ -fsigned-zeros -fsplit-ivs-in-unroller -fsplit-wide-types -fssa-phiopt
  61              	@ -fstdarg-opt -fstrict-aliasing -fstrict-overflow
  62              	@ -fstrict-volatile-bitfields -fsync-libcalls -fthread-jumps
  63              	@ -ftoplevel-reorder -ftrapping-math -ftree-bit-ccp -ftree-builtin-call-dce
  64              	@ -ftree-ccp -ftree-ch -ftree-coalesce-vars -ftree-copy-prop
  65              	@ -ftree-copyrename -ftree-cselim -ftree-dce -ftree-dominator-opts
  66              	@ -ftree-dse -ftree-forwprop -ftree-fre -ftree-loop-if-convert
  67              	@ -ftree-loop-im -ftree-loop-ivcanon -ftree-loop-optimize
  68              	@ -ftree-parallelize-loops= -ftree-phiprop -ftree-pre -ftree-pta
  69              	@ -ftree-reassoc -ftree-scev-cprop -ftree-sink -ftree-slsr -ftree-sra
  70              	@ -ftree-switch-conversion -ftree-tail-merge -ftree-ter -ftree-vrp
  71              	@ -funit-at-a-time -fvar-tracking -fvar-tracking-assignments -fverbose-asm
  72              	@ -fzero-initialized-in-bss -mlittle-endian -mpic-data-is-text-relative
  73              	@ -msched-prolog -mthumb -mvectorize-with-neon-quad
  74              	
  75              		.text
  76              	.Ltext0:
  77              		.cfi_sections	.debug_frame
  78              		.section	.text.CAN_error,"ax",%progbits
  79              		.align	2
  80              		.global	CAN_error
  81              		.code	16
  82              		.thumb_func
  83              		.type	CAN_error, %function
  84              	CAN_error:
  85              	.LFB206:
  86              		.file 1 "../../lib/lpc11cx4-library/evt_lib/src/can.c"
   1:../../lib/lpc11cx4-library/evt_lib/src/can.c **** #ifndef _LEGACY_
   2:../../lib/lpc11cx4-library/evt_lib/src/can.c **** #include "chip.h"
   3:../../lib/lpc11cx4-library/evt_lib/src/can.c **** #include <string.h>
   4:../../lib/lpc11cx4-library/evt_lib/src/can.c **** #include "can.h"
   5:../../lib/lpc11cx4-library/evt_lib/src/can.c **** 
   6:../../lib/lpc11cx4-library/evt_lib/src/can.c **** #define CAN_BUF_SIZE 16
   7:../../lib/lpc11cx4-library/evt_lib/src/can.c **** 
   8:../../lib/lpc11cx4-library/evt_lib/src/can.c **** CCAN_MSG_OBJ_T msg_obj;
   9:../../lib/lpc11cx4-library/evt_lib/src/can.c **** static RINGBUFF_T rx_buffer;
  10:../../lib/lpc11cx4-library/evt_lib/src/can.c **** CCAN_MSG_OBJ_T _rx_buffer[CAN_BUF_SIZE];
  11:../../lib/lpc11cx4-library/evt_lib/src/can.c **** 
  12:../../lib/lpc11cx4-library/evt_lib/src/can.c **** static RINGBUFF_T tx_buffer;
  13:../../lib/lpc11cx4-library/evt_lib/src/can.c **** CCAN_MSG_OBJ_T _tx_buffer[CAN_BUF_SIZE];
  14:../../lib/lpc11cx4-library/evt_lib/src/can.c **** CCAN_MSG_OBJ_T tmp_msg_obj; // temporarily store data/CAN ID to insert into tx_buf
  15:../../lib/lpc11cx4-library/evt_lib/src/can.c **** CCAN_MSG_OBJ_T tmp_msg_obj_2;
  16:../../lib/lpc11cx4-library/evt_lib/src/can.c **** 
  17:../../lib/lpc11cx4-library/evt_lib/src/can.c **** static bool can_error_flag;
  18:../../lib/lpc11cx4-library/evt_lib/src/can.c **** static uint32_t can_error_info;
  19:../../lib/lpc11cx4-library/evt_lib/src/can.c **** 
  20:../../lib/lpc11cx4-library/evt_lib/src/can.c **** 
  21:../../lib/lpc11cx4-library/evt_lib/src/can.c **** #define NUM_MSG_OBJS 2
  22:../../lib/lpc11cx4-library/evt_lib/src/can.c **** #if NUM_MSG_OBJS > 2
  23:../../lib/lpc11cx4-library/evt_lib/src/can.c **** 	#error "Allocating too many message objects to CAN Tx can cause bad shit"
  24:../../lib/lpc11cx4-library/evt_lib/src/can.c **** #endif
  25:../../lib/lpc11cx4-library/evt_lib/src/can.c **** static bool msg_obj_stat[NUM_MSG_OBJS + 1];
  26:../../lib/lpc11cx4-library/evt_lib/src/can.c **** 
  27:../../lib/lpc11cx4-library/evt_lib/src/can.c **** 
  28:../../lib/lpc11cx4-library/evt_lib/src/can.c **** bool CAN_IsTxBusy(void);
ARM GAS  /var/folders/z0/6xlwn_996xz3mwq1cgzkbq4r0000gp/T//ccjakVr1.s 			page 3


  29:../../lib/lpc11cx4-library/evt_lib/src/can.c **** void Baudrate_Calculate(uint32_t baud_rate, uint32_t *can_api_timing_cfg);
  30:../../lib/lpc11cx4-library/evt_lib/src/can.c **** CAN_ERROR_T Convert_To_CAN_Error(uint32_t can_error);
  31:../../lib/lpc11cx4-library/evt_lib/src/can.c **** 
  32:../../lib/lpc11cx4-library/evt_lib/src/can.c **** 
  33:../../lib/lpc11cx4-library/evt_lib/src/can.c **** /*************************************************
  34:../../lib/lpc11cx4-library/evt_lib/src/can.c ****  *                  HELPERS
  35:../../lib/lpc11cx4-library/evt_lib/src/can.c ****  * ************************************************/
  36:../../lib/lpc11cx4-library/evt_lib/src/can.c **** 
  37:../../lib/lpc11cx4-library/evt_lib/src/can.c **** // TODO EXPLAIN WHAT THIS DOES AND SIMPLIFY
  38:../../lib/lpc11cx4-library/evt_lib/src/can.c **** void Baudrate_Calculate(uint32_t baud_rate, uint32_t *can_api_timing_cfg) {
  39:../../lib/lpc11cx4-library/evt_lib/src/can.c **** 	uint32_t pClk, div, quanta, segs, seg1, seg2, clk_per_bit, can_sjw;
  40:../../lib/lpc11cx4-library/evt_lib/src/can.c **** 	Chip_Clock_EnablePeriphClock(SYSCTL_CLOCK_CAN);
  41:../../lib/lpc11cx4-library/evt_lib/src/can.c **** 	pClk = Chip_Clock_GetMainClockRate();
  42:../../lib/lpc11cx4-library/evt_lib/src/can.c **** 
  43:../../lib/lpc11cx4-library/evt_lib/src/can.c **** 	clk_per_bit = pClk / baud_rate;
  44:../../lib/lpc11cx4-library/evt_lib/src/can.c **** 
  45:../../lib/lpc11cx4-library/evt_lib/src/can.c **** 	for (div = 0; div <= 15; div++) {
  46:../../lib/lpc11cx4-library/evt_lib/src/can.c **** 		for (quanta = 1; quanta <= 32; quanta++) {
  47:../../lib/lpc11cx4-library/evt_lib/src/can.c **** 			for (segs = 3; segs <= 17; segs++) {
  48:../../lib/lpc11cx4-library/evt_lib/src/can.c **** 				if (clk_per_bit == (segs * quanta * (div + 1))) {
  49:../../lib/lpc11cx4-library/evt_lib/src/can.c **** 					segs -= 3;
  50:../../lib/lpc11cx4-library/evt_lib/src/can.c **** 					seg1 = segs / 2;
  51:../../lib/lpc11cx4-library/evt_lib/src/can.c **** 					seg2 = segs - seg1;
  52:../../lib/lpc11cx4-library/evt_lib/src/can.c **** 					can_sjw = seg1 > 3 ? 3 : seg1;
  53:../../lib/lpc11cx4-library/evt_lib/src/can.c **** 					can_api_timing_cfg[0] = div;
  54:../../lib/lpc11cx4-library/evt_lib/src/can.c **** 					can_api_timing_cfg[1] =
  55:../../lib/lpc11cx4-library/evt_lib/src/can.c **** 						((quanta - 1) & 0x3F) | (can_sjw & 0x03) << 6 | (seg1 & 0x0F) << 8 | (seg2 & 0x07) << 12;
  56:../../lib/lpc11cx4-library/evt_lib/src/can.c **** 					return;
  57:../../lib/lpc11cx4-library/evt_lib/src/can.c **** 				}
  58:../../lib/lpc11cx4-library/evt_lib/src/can.c **** 			}
  59:../../lib/lpc11cx4-library/evt_lib/src/can.c **** 		}
  60:../../lib/lpc11cx4-library/evt_lib/src/can.c **** 	}
  61:../../lib/lpc11cx4-library/evt_lib/src/can.c **** }
  62:../../lib/lpc11cx4-library/evt_lib/src/can.c **** 
  63:../../lib/lpc11cx4-library/evt_lib/src/can.c **** uint8_t CAN_GetTxErrorCount(void) {
  64:../../lib/lpc11cx4-library/evt_lib/src/can.c ****     // page 290 in the user manual
  65:../../lib/lpc11cx4-library/evt_lib/src/can.c ****     return LPC_CCAN->CANEC & 0x000000FF;
  66:../../lib/lpc11cx4-library/evt_lib/src/can.c **** }
  67:../../lib/lpc11cx4-library/evt_lib/src/can.c **** 
  68:../../lib/lpc11cx4-library/evt_lib/src/can.c **** uint8_t CAN_GetRxErrorCount(void) {
  69:../../lib/lpc11cx4-library/evt_lib/src/can.c ****     // page 290 in the user manual
  70:../../lib/lpc11cx4-library/evt_lib/src/can.c ****     return (LPC_CCAN->CANEC & 0x00007F00) >> 8;
  71:../../lib/lpc11cx4-library/evt_lib/src/can.c **** }
  72:../../lib/lpc11cx4-library/evt_lib/src/can.c **** 
  73:../../lib/lpc11cx4-library/evt_lib/src/can.c **** bool CAN_IsTxBusy(void) {
  74:../../lib/lpc11cx4-library/evt_lib/src/can.c ****     // page 302 in the user manual
  75:../../lib/lpc11cx4-library/evt_lib/src/can.c ****     return ((LPC_CCAN->CANTXREQ1 & 0x00000002) >> 1) == 1;
  76:../../lib/lpc11cx4-library/evt_lib/src/can.c **** }
  77:../../lib/lpc11cx4-library/evt_lib/src/can.c **** 
  78:../../lib/lpc11cx4-library/evt_lib/src/can.c **** // TODO SAVE CURRENT IN FLIGHT MESSAGE SO THAT ON RESET ANY IN FLIGHT MESSAGES CAN BE RE-SENT
  79:../../lib/lpc11cx4-library/evt_lib/src/can.c **** 
  80:../../lib/lpc11cx4-library/evt_lib/src/can.c **** bool CAN_ResetPeripheral(void) {
  81:../../lib/lpc11cx4-library/evt_lib/src/can.c **** 	if(LPC_CCAN->CANSTAT>>7&0x01) {
  82:../../lib/lpc11cx4-library/evt_lib/src/can.c ****     	Chip_SYSCTL_PeriphReset(RESET_CAN0);
  83:../../lib/lpc11cx4-library/evt_lib/src/can.c ****     	return true;
  84:../../lib/lpc11cx4-library/evt_lib/src/can.c ****     }
  85:../../lib/lpc11cx4-library/evt_lib/src/can.c ****    return false;
ARM GAS  /var/folders/z0/6xlwn_996xz3mwq1cgzkbq4r0000gp/T//ccjakVr1.s 			page 4


  86:../../lib/lpc11cx4-library/evt_lib/src/can.c **** }
  87:../../lib/lpc11cx4-library/evt_lib/src/can.c **** 
  88:../../lib/lpc11cx4-library/evt_lib/src/can.c **** CAN_ERROR_T Convert_To_CAN_Error(uint32_t can_error) {
  89:../../lib/lpc11cx4-library/evt_lib/src/can.c **** 	if (!can_error) return NO_CAN_ERROR;
  90:../../lib/lpc11cx4-library/evt_lib/src/can.c ****     switch(can_error & 0x6) {
  91:../../lib/lpc11cx4-library/evt_lib/src/can.c ****        case 0x1: return STUF_CAN_ERROR;
  92:../../lib/lpc11cx4-library/evt_lib/src/can.c ****        case 0x2: return FORM_CAN_ERROR;
  93:../../lib/lpc11cx4-library/evt_lib/src/can.c ****        case 0x3: return ACK_CAN_ERROR;
  94:../../lib/lpc11cx4-library/evt_lib/src/can.c ****        case 0x4: return BIT1_CAN_ERROR;
  95:../../lib/lpc11cx4-library/evt_lib/src/can.c ****        case 0x5: return BIT0_CAN_ERROR;
  96:../../lib/lpc11cx4-library/evt_lib/src/can.c ****        case 0x6: return CRC_CAN_ERROR;
  97:../../lib/lpc11cx4-library/evt_lib/src/can.c ****        case 0x7: return UNUSED_CAN_ERROR;
  98:../../lib/lpc11cx4-library/evt_lib/src/can.c ****     }
  99:../../lib/lpc11cx4-library/evt_lib/src/can.c ****     if (can_error == 0x400) return UNRECOGNIZED_MSGOBJ_CAN_ERROR;
 100:../../lib/lpc11cx4-library/evt_lib/src/can.c ****     if (can_error == 0x800) return RX_BUFFER_FULL_CAN_ERROR;
 101:../../lib/lpc11cx4-library/evt_lib/src/can.c ****     return UNRECOGNIZED_ERROR_CODE;
 102:../../lib/lpc11cx4-library/evt_lib/src/can.c **** }
 103:../../lib/lpc11cx4-library/evt_lib/src/can.c **** 
 104:../../lib/lpc11cx4-library/evt_lib/src/can.c **** /*************************************************
 105:../../lib/lpc11cx4-library/evt_lib/src/can.c ****  *                  CALLBACKS
 106:../../lib/lpc11cx4-library/evt_lib/src/can.c ****  * ************************************************/
 107:../../lib/lpc11cx4-library/evt_lib/src/can.c **** 
 108:../../lib/lpc11cx4-library/evt_lib/src/can.c **** /*	CAN receive callback */
 109:../../lib/lpc11cx4-library/evt_lib/src/can.c **** void CAN_rx(uint8_t msg_obj_num) {
 110:../../lib/lpc11cx4-library/evt_lib/src/can.c **** 	/* Determine which CAN message has been received */
 111:../../lib/lpc11cx4-library/evt_lib/src/can.c **** 	msg_obj.msgobj = msg_obj_num;
 112:../../lib/lpc11cx4-library/evt_lib/src/can.c **** 	/* Now load up the msg_obj structure with the CAN message */
 113:../../lib/lpc11cx4-library/evt_lib/src/can.c **** 	LPC_CCAN_API->can_receive(&msg_obj);
 114:../../lib/lpc11cx4-library/evt_lib/src/can.c **** 	if (!RingBuffer_Insert(&rx_buffer, &msg_obj)) {
 115:../../lib/lpc11cx4-library/evt_lib/src/can.c **** 		can_error_flag = true;
 116:../../lib/lpc11cx4-library/evt_lib/src/can.c **** 		can_error_info = 0x800;
 117:../../lib/lpc11cx4-library/evt_lib/src/can.c **** 	}
 118:../../lib/lpc11cx4-library/evt_lib/src/can.c **** }
 119:../../lib/lpc11cx4-library/evt_lib/src/can.c **** 
 120:../../lib/lpc11cx4-library/evt_lib/src/can.c **** /*	CAN transmit callback */
 121:../../lib/lpc11cx4-library/evt_lib/src/can.c **** void CAN_tx(uint8_t msg_obj_num) {
 122:../../lib/lpc11cx4-library/evt_lib/src/can.c **** 	if (msg_obj_num <= NUM_MSG_OBJS) {
 123:../../lib/lpc11cx4-library/evt_lib/src/can.c **** 		msg_obj_stat[msg_obj_num] = false;
 124:../../lib/lpc11cx4-library/evt_lib/src/can.c **** 
 125:../../lib/lpc11cx4-library/evt_lib/src/can.c **** 		if (RingBuffer_Pop(&tx_buffer, &tmp_msg_obj_2)){
 126:../../lib/lpc11cx4-library/evt_lib/src/can.c **** 			tmp_msg_obj_2.msgobj = msg_obj_num;
 127:../../lib/lpc11cx4-library/evt_lib/src/can.c **** 			LPC_CCAN_API->can_transmit(&tmp_msg_obj_2);
 128:../../lib/lpc11cx4-library/evt_lib/src/can.c **** 			msg_obj_stat[msg_obj_num] = true;
 129:../../lib/lpc11cx4-library/evt_lib/src/can.c **** 		}
 130:../../lib/lpc11cx4-library/evt_lib/src/can.c **** 	} else {
 131:../../lib/lpc11cx4-library/evt_lib/src/can.c **** 		can_error_flag = true;
 132:../../lib/lpc11cx4-library/evt_lib/src/can.c **** 		can_error_info = 0x400;
 133:../../lib/lpc11cx4-library/evt_lib/src/can.c **** 	}
 134:../../lib/lpc11cx4-library/evt_lib/src/can.c **** }
 135:../../lib/lpc11cx4-library/evt_lib/src/can.c **** 
 136:../../lib/lpc11cx4-library/evt_lib/src/can.c **** /*	CAN error callback */
 137:../../lib/lpc11cx4-library/evt_lib/src/can.c **** void CAN_error(uint32_t error_info) {
  87              		.loc 1 137 0
  88              		.cfi_startproc
  89              		@ args = 0, pretend = 0, frame = 0
  90              		@ frame_needed = 0, uses_anonymous_args = 0
  91              		@ link register save eliminated.
ARM GAS  /var/folders/z0/6xlwn_996xz3mwq1cgzkbq4r0000gp/T//ccjakVr1.s 			page 5


  92              	.LVL0:
 138:../../lib/lpc11cx4-library/evt_lib/src/can.c **** 	can_error_info = error_info;
 139:../../lib/lpc11cx4-library/evt_lib/src/can.c **** 	can_error_flag = true;
  93              		.loc 1 139 0
  94 0000 0122     		movs	r2, #1	@ tmp113,
 138:../../lib/lpc11cx4-library/evt_lib/src/can.c **** 	can_error_info = error_info;
  95              		.loc 1 138 0
  96 0002 024B     		ldr	r3, .L2	@ tmp111,
 140:../../lib/lpc11cx4-library/evt_lib/src/can.c **** }
  97              		.loc 1 140 0
  98              		@ sp needed	@
 138:../../lib/lpc11cx4-library/evt_lib/src/can.c **** 	can_error_info = error_info;
  99              		.loc 1 138 0
 100 0004 1860     		str	r0, [r3]	@ error_info, can_error_info
 139:../../lib/lpc11cx4-library/evt_lib/src/can.c **** }
 101              		.loc 1 139 0
 102 0006 024B     		ldr	r3, .L2+4	@ tmp112,
 103 0008 1A70     		strb	r2, [r3]	@ tmp113, can_error_flag
 104              		.loc 1 140 0
 105 000a 7047     		bx	lr
 106              	.L3:
 107              		.align	2
 108              	.L2:
 109 000c 00000000 		.word	.LANCHOR0
 110 0010 00000000 		.word	.LANCHOR1
 111              		.cfi_endproc
 112              	.LFE206:
 113              		.size	CAN_error, .-CAN_error
 114              		.section	.text.CAN_rx,"ax",%progbits
 115              		.align	2
 116              		.global	CAN_rx
 117              		.code	16
 118              		.thumb_func
 119              		.type	CAN_rx, %function
 120              	CAN_rx:
 121              	.LFB204:
 109:../../lib/lpc11cx4-library/evt_lib/src/can.c **** 	/* Determine which CAN message has been received */
 122              		.loc 1 109 0
 123              		.cfi_startproc
 124              		@ args = 0, pretend = 0, frame = 0
 125              		@ frame_needed = 0, uses_anonymous_args = 0
 126              	.LVL1:
 127 0000 10B5     		push	{r4, lr}	@
 128              		.cfi_def_cfa_offset 8
 129              		.cfi_offset 4, -8
 130              		.cfi_offset 14, -4
 111:../../lib/lpc11cx4-library/evt_lib/src/can.c **** 	/* Now load up the msg_obj structure with the CAN message */
 131              		.loc 1 111 0
 132 0002 0B4C     		ldr	r4, .L7	@ tmp116,
 113:../../lib/lpc11cx4-library/evt_lib/src/can.c **** 	if (!RingBuffer_Insert(&rx_buffer, &msg_obj)) {
 133              		.loc 1 113 0
 134 0004 0B4B     		ldr	r3, .L7+4	@ tmp119,
 111:../../lib/lpc11cx4-library/evt_lib/src/can.c **** 	/* Now load up the msg_obj structure with the CAN message */
 135              		.loc 1 111 0
 136 0006 6074     		strb	r0, [r4, #17]	@ msg_obj_num, msg_obj.msgobj
 113:../../lib/lpc11cx4-library/evt_lib/src/can.c **** 	if (!RingBuffer_Insert(&rx_buffer, &msg_obj)) {
 137              		.loc 1 113 0
ARM GAS  /var/folders/z0/6xlwn_996xz3mwq1cgzkbq4r0000gp/T//ccjakVr1.s 			page 6


 138 0008 1B68     		ldr	r3, [r3]	@ MEM[(struct LPC_ROM_API_T * *)536813560B], MEM[(struct LPC_ROM_API_T * *)536813560B
 139 000a 2000     		movs	r0, r4	@, tmp116
 140              	.LVL2:
 141 000c 9B68     		ldr	r3, [r3, #8]	@ _5->candApiBase, _5->candApiBase
 142 000e DB68     		ldr	r3, [r3, #12]	@ _7->can_receive, _7->can_receive
 143 0010 9847     		blx	r3	@ _7->can_receive
 144              	.LVL3:
 114:../../lib/lpc11cx4-library/evt_lib/src/can.c **** 		can_error_flag = true;
 145              		.loc 1 114 0
 146 0012 2100     		movs	r1, r4	@, tmp116
 147 0014 0848     		ldr	r0, .L7+8	@,
 148 0016 FFF7FEFF 		bl	RingBuffer_Insert	@
 149              	.LVL4:
 150 001a 0028     		cmp	r0, #0	@ D.6920,
 151 001c 06D1     		bne	.L4	@,
 115:../../lib/lpc11cx4-library/evt_lib/src/can.c **** 		can_error_info = 0x800;
 152              		.loc 1 115 0
 153 001e 0122     		movs	r2, #1	@ tmp126,
 154 0020 064B     		ldr	r3, .L7+12	@ tmp125,
 155 0022 1A70     		strb	r2, [r3]	@ tmp126, can_error_flag
 116:../../lib/lpc11cx4-library/evt_lib/src/can.c **** 	}
 156              		.loc 1 116 0
 157 0024 8022     		movs	r2, #128	@ tmp129,
 158 0026 064B     		ldr	r3, .L7+16	@ tmp128,
 159 0028 1201     		lsls	r2, r2, #4	@ tmp129, tmp129,
 160 002a 1A60     		str	r2, [r3]	@ tmp129, can_error_info
 161              	.L4:
 118:../../lib/lpc11cx4-library/evt_lib/src/can.c **** 
 162              		.loc 1 118 0
 163              		@ sp needed	@
 164 002c 10BD     		pop	{r4, pc}
 165              	.L8:
 166 002e C046     		.align	2
 167              	.L7:
 168 0030 00000000 		.word	msg_obj
 169 0034 F81FFF1F 		.word	536813560
 170 0038 00000000 		.word	.LANCHOR2
 171 003c 00000000 		.word	.LANCHOR1
 172 0040 00000000 		.word	.LANCHOR0
 173              		.cfi_endproc
 174              	.LFE204:
 175              		.size	CAN_rx, .-CAN_rx
 176              		.section	.text.CAN_tx,"ax",%progbits
 177              		.align	2
 178              		.global	CAN_tx
 179              		.code	16
 180              		.thumb_func
 181              		.type	CAN_tx, %function
 182              	CAN_tx:
 183              	.LFB205:
 121:../../lib/lpc11cx4-library/evt_lib/src/can.c **** 	if (msg_obj_num <= NUM_MSG_OBJS) {
 184              		.loc 1 121 0
 185              		.cfi_startproc
 186              		@ args = 0, pretend = 0, frame = 0
 187              		@ frame_needed = 0, uses_anonymous_args = 0
 188              	.LVL5:
 189 0000 70B5     		push	{r4, r5, r6, lr}	@
ARM GAS  /var/folders/z0/6xlwn_996xz3mwq1cgzkbq4r0000gp/T//ccjakVr1.s 			page 7


 190              		.cfi_def_cfa_offset 16
 191              		.cfi_offset 4, -16
 192              		.cfi_offset 5, -12
 193              		.cfi_offset 6, -8
 194              		.cfi_offset 14, -4
 121:../../lib/lpc11cx4-library/evt_lib/src/can.c **** 	if (msg_obj_num <= NUM_MSG_OBJS) {
 195              		.loc 1 121 0
 196 0002 0400     		movs	r4, r0	@ msg_obj_num, msg_obj_num
 122:../../lib/lpc11cx4-library/evt_lib/src/can.c **** 		msg_obj_stat[msg_obj_num] = false;
 197              		.loc 1 122 0
 198 0004 0228     		cmp	r0, #2	@ msg_obj_num,
 199 0006 07D9     		bls	.L15	@,
 131:../../lib/lpc11cx4-library/evt_lib/src/can.c **** 		can_error_info = 0x400;
 200              		.loc 1 131 0
 201 0008 0122     		movs	r2, #1	@ tmp133,
 202 000a 0D4B     		ldr	r3, .L16	@ tmp132,
 203 000c 1A70     		strb	r2, [r3]	@ tmp133, can_error_flag
 132:../../lib/lpc11cx4-library/evt_lib/src/can.c **** 	}
 204              		.loc 1 132 0
 205 000e 8022     		movs	r2, #128	@ tmp136,
 206 0010 0C4B     		ldr	r3, .L16+4	@ tmp135,
 207 0012 D200     		lsls	r2, r2, #3	@ tmp136, tmp136,
 208 0014 1A60     		str	r2, [r3]	@ tmp136, can_error_info
 209              	.LVL6:
 210              	.L9:
 134:../../lib/lpc11cx4-library/evt_lib/src/can.c **** 
 211              		.loc 1 134 0
 212              		@ sp needed	@
 213 0016 70BD     		pop	{r4, r5, r6, pc}
 214              	.LVL7:
 215              	.L15:
 216              	.LBB23:
 217              	.LBB24:
 123:../../lib/lpc11cx4-library/evt_lib/src/can.c **** 
 218              		.loc 1 123 0
 219 0018 0023     		movs	r3, #0	@ tmp118,
 220 001a 0B4E     		ldr	r6, .L16+8	@ tmp117,
 125:../../lib/lpc11cx4-library/evt_lib/src/can.c **** 			tmp_msg_obj_2.msgobj = msg_obj_num;
 221              		.loc 1 125 0
 222 001c 0B4D     		ldr	r5, .L16+12	@ tmp120,
 123:../../lib/lpc11cx4-library/evt_lib/src/can.c **** 
 223              		.loc 1 123 0
 224 001e 3354     		strb	r3, [r6, r0]	@ tmp118, msg_obj_stat
 125:../../lib/lpc11cx4-library/evt_lib/src/can.c **** 			tmp_msg_obj_2.msgobj = msg_obj_num;
 225              		.loc 1 125 0
 226 0020 2900     		movs	r1, r5	@, tmp120
 227 0022 0B48     		ldr	r0, .L16+16	@,
 228              	.LVL8:
 229 0024 FFF7FEFF 		bl	RingBuffer_Pop	@
 230              	.LVL9:
 231 0028 0028     		cmp	r0, #0	@ D.6927,
 232 002a F4D0     		beq	.L9	@,
 127:../../lib/lpc11cx4-library/evt_lib/src/can.c **** 			msg_obj_stat[msg_obj_num] = true;
 233              		.loc 1 127 0
 234 002c 094B     		ldr	r3, .L16+20	@ tmp125,
 126:../../lib/lpc11cx4-library/evt_lib/src/can.c **** 			LPC_CCAN_API->can_transmit(&tmp_msg_obj_2);
 235              		.loc 1 126 0
ARM GAS  /var/folders/z0/6xlwn_996xz3mwq1cgzkbq4r0000gp/T//ccjakVr1.s 			page 8


 236 002e 6C74     		strb	r4, [r5, #17]	@ msg_obj_num, tmp_msg_obj_2.msgobj
 127:../../lib/lpc11cx4-library/evt_lib/src/can.c **** 			msg_obj_stat[msg_obj_num] = true;
 237              		.loc 1 127 0
 238 0030 1B68     		ldr	r3, [r3]	@ MEM[(struct LPC_ROM_API_T * *)536813560B], MEM[(struct LPC_ROM_API_T * *)536813560B
 239 0032 2800     		movs	r0, r5	@, tmp120
 240 0034 9B68     		ldr	r3, [r3, #8]	@ _9->candApiBase, _9->candApiBase
 241 0036 1B69     		ldr	r3, [r3, #16]	@ _11->can_transmit, _11->can_transmit
 242 0038 9847     		blx	r3	@ _11->can_transmit
 243              	.LVL10:
 128:../../lib/lpc11cx4-library/evt_lib/src/can.c **** 		}
 244              		.loc 1 128 0
 245 003a 0123     		movs	r3, #1	@ tmp130,
 246 003c 3355     		strb	r3, [r6, r4]	@ tmp130, msg_obj_stat
 247 003e EAE7     		b	.L9	@
 248              	.L17:
 249              		.align	2
 250              	.L16:
 251 0040 00000000 		.word	.LANCHOR1
 252 0044 00000000 		.word	.LANCHOR0
 253 0048 00000000 		.word	.LANCHOR3
 254 004c 00000000 		.word	tmp_msg_obj_2
 255 0050 00000000 		.word	.LANCHOR4
 256 0054 F81FFF1F 		.word	536813560
 257              	.LBE24:
 258              	.LBE23:
 259              		.cfi_endproc
 260              	.LFE205:
 261              		.size	CAN_tx, .-CAN_tx
 262              		.global	__aeabi_uidiv
 263              		.section	.text.Baudrate_Calculate,"ax",%progbits
 264              		.align	2
 265              		.global	Baudrate_Calculate
 266              		.code	16
 267              		.thumb_func
 268              		.type	Baudrate_Calculate, %function
 269              	Baudrate_Calculate:
 270              	.LFB198:
  38:../../lib/lpc11cx4-library/evt_lib/src/can.c **** 	uint32_t pClk, div, quanta, segs, seg1, seg2, clk_per_bit, can_sjw;
 271              		.loc 1 38 0
 272              		.cfi_startproc
 273              		@ args = 0, pretend = 0, frame = 0
 274              		@ frame_needed = 0, uses_anonymous_args = 0
 275              	.LVL11:
 276              	.LBB25:
 277              	.LBB26:
 278              		.file 2 "../../lib/lpc11cx4-library/lpc_chip_11cxx_lib/inc/clock_11xx.h"
   1:../../lib/lpc11cx4-library/lpc_chip_11cxx_lib/inc/clock_11xx.h **** /*
   2:../../lib/lpc11cx4-library/lpc_chip_11cxx_lib/inc/clock_11xx.h ****  * @brief LPC11XX Clock control functions
   3:../../lib/lpc11cx4-library/lpc_chip_11cxx_lib/inc/clock_11xx.h ****  *
   4:../../lib/lpc11cx4-library/lpc_chip_11cxx_lib/inc/clock_11xx.h ****  * @note
   5:../../lib/lpc11cx4-library/lpc_chip_11cxx_lib/inc/clock_11xx.h ****  * Copyright(C) NXP Semiconductors, 2012
   6:../../lib/lpc11cx4-library/lpc_chip_11cxx_lib/inc/clock_11xx.h ****  * All rights reserved.
   7:../../lib/lpc11cx4-library/lpc_chip_11cxx_lib/inc/clock_11xx.h ****  *
   8:../../lib/lpc11cx4-library/lpc_chip_11cxx_lib/inc/clock_11xx.h ****  * @par
   9:../../lib/lpc11cx4-library/lpc_chip_11cxx_lib/inc/clock_11xx.h ****  * Software that is described herein is for illustrative purposes only
  10:../../lib/lpc11cx4-library/lpc_chip_11cxx_lib/inc/clock_11xx.h ****  * which provides customers with programming information regarding the
  11:../../lib/lpc11cx4-library/lpc_chip_11cxx_lib/inc/clock_11xx.h ****  * LPC products.  This software is supplied "AS IS" without any warranties of
ARM GAS  /var/folders/z0/6xlwn_996xz3mwq1cgzkbq4r0000gp/T//ccjakVr1.s 			page 9


  12:../../lib/lpc11cx4-library/lpc_chip_11cxx_lib/inc/clock_11xx.h ****  * any kind, and NXP Semiconductors and its licensor disclaim any and
  13:../../lib/lpc11cx4-library/lpc_chip_11cxx_lib/inc/clock_11xx.h ****  * all warranties, express or implied, including all implied warranties of
  14:../../lib/lpc11cx4-library/lpc_chip_11cxx_lib/inc/clock_11xx.h ****  * merchantability, fitness for a particular purpose and non-infringement of
  15:../../lib/lpc11cx4-library/lpc_chip_11cxx_lib/inc/clock_11xx.h ****  * intellectual property rights.  NXP Semiconductors assumes no responsibility
  16:../../lib/lpc11cx4-library/lpc_chip_11cxx_lib/inc/clock_11xx.h ****  * or liability for the use of the software, conveys no license or rights under any
  17:../../lib/lpc11cx4-library/lpc_chip_11cxx_lib/inc/clock_11xx.h ****  * patent, copyright, mask work right, or any other intellectual property rights in
  18:../../lib/lpc11cx4-library/lpc_chip_11cxx_lib/inc/clock_11xx.h ****  * or to any products. NXP Semiconductors reserves the right to make changes
  19:../../lib/lpc11cx4-library/lpc_chip_11cxx_lib/inc/clock_11xx.h ****  * in the software without notification. NXP Semiconductors also makes no
  20:../../lib/lpc11cx4-library/lpc_chip_11cxx_lib/inc/clock_11xx.h ****  * representation or warranty that such application will be suitable for the
  21:../../lib/lpc11cx4-library/lpc_chip_11cxx_lib/inc/clock_11xx.h ****  * specified use without further testing or modification.
  22:../../lib/lpc11cx4-library/lpc_chip_11cxx_lib/inc/clock_11xx.h ****  *
  23:../../lib/lpc11cx4-library/lpc_chip_11cxx_lib/inc/clock_11xx.h ****  * @par
  24:../../lib/lpc11cx4-library/lpc_chip_11cxx_lib/inc/clock_11xx.h ****  * Permission to use, copy, modify, and distribute this software and its
  25:../../lib/lpc11cx4-library/lpc_chip_11cxx_lib/inc/clock_11xx.h ****  * documentation is hereby granted, under NXP Semiconductors' and its
  26:../../lib/lpc11cx4-library/lpc_chip_11cxx_lib/inc/clock_11xx.h ****  * licensor's relevant copyrights in the software, without fee, provided that it
  27:../../lib/lpc11cx4-library/lpc_chip_11cxx_lib/inc/clock_11xx.h ****  * is used in conjunction with NXP Semiconductors microcontrollers.  This
  28:../../lib/lpc11cx4-library/lpc_chip_11cxx_lib/inc/clock_11xx.h ****  * copyright, permission, and disclaimer notice must appear in all copies of
  29:../../lib/lpc11cx4-library/lpc_chip_11cxx_lib/inc/clock_11xx.h ****  * this code.
  30:../../lib/lpc11cx4-library/lpc_chip_11cxx_lib/inc/clock_11xx.h ****  */
  31:../../lib/lpc11cx4-library/lpc_chip_11cxx_lib/inc/clock_11xx.h **** 
  32:../../lib/lpc11cx4-library/lpc_chip_11cxx_lib/inc/clock_11xx.h **** #ifndef __CLOCK_11XX_H_
  33:../../lib/lpc11cx4-library/lpc_chip_11cxx_lib/inc/clock_11xx.h **** #define __CLOCK_11XX_H_
  34:../../lib/lpc11cx4-library/lpc_chip_11cxx_lib/inc/clock_11xx.h **** 
  35:../../lib/lpc11cx4-library/lpc_chip_11cxx_lib/inc/clock_11xx.h **** #ifdef __cplusplus
  36:../../lib/lpc11cx4-library/lpc_chip_11cxx_lib/inc/clock_11xx.h **** extern "C" {
  37:../../lib/lpc11cx4-library/lpc_chip_11cxx_lib/inc/clock_11xx.h **** #endif
  38:../../lib/lpc11cx4-library/lpc_chip_11cxx_lib/inc/clock_11xx.h **** 
  39:../../lib/lpc11cx4-library/lpc_chip_11cxx_lib/inc/clock_11xx.h **** /** @defgroup CLOCK_11XX CHIP: LPC11xx Clock Control block driver
  40:../../lib/lpc11cx4-library/lpc_chip_11cxx_lib/inc/clock_11xx.h ****  * @ingroup CHIP_11XX_Drivers
  41:../../lib/lpc11cx4-library/lpc_chip_11cxx_lib/inc/clock_11xx.h ****  * @{
  42:../../lib/lpc11cx4-library/lpc_chip_11cxx_lib/inc/clock_11xx.h ****  */
  43:../../lib/lpc11cx4-library/lpc_chip_11cxx_lib/inc/clock_11xx.h **** 
  44:../../lib/lpc11cx4-library/lpc_chip_11cxx_lib/inc/clock_11xx.h **** /** Internal oscillator frequency */
  45:../../lib/lpc11cx4-library/lpc_chip_11cxx_lib/inc/clock_11xx.h **** #define SYSCTL_IRC_FREQ (12000000)
  46:../../lib/lpc11cx4-library/lpc_chip_11cxx_lib/inc/clock_11xx.h **** 
  47:../../lib/lpc11cx4-library/lpc_chip_11cxx_lib/inc/clock_11xx.h **** /**
  48:../../lib/lpc11cx4-library/lpc_chip_11cxx_lib/inc/clock_11xx.h ****  * @brief	Set System PLL divider values
  49:../../lib/lpc11cx4-library/lpc_chip_11cxx_lib/inc/clock_11xx.h ****  * @param	msel    : PLL feedback divider value. M = msel + 1.
  50:../../lib/lpc11cx4-library/lpc_chip_11cxx_lib/inc/clock_11xx.h ****  * @param	psel    : PLL post divider value. P =  (1<<psel).
  51:../../lib/lpc11cx4-library/lpc_chip_11cxx_lib/inc/clock_11xx.h ****  * @return	Nothing
  52:../../lib/lpc11cx4-library/lpc_chip_11cxx_lib/inc/clock_11xx.h ****  * @note	See the user manual for how to setup the PLL.
  53:../../lib/lpc11cx4-library/lpc_chip_11cxx_lib/inc/clock_11xx.h ****  */
  54:../../lib/lpc11cx4-library/lpc_chip_11cxx_lib/inc/clock_11xx.h **** STATIC INLINE void Chip_Clock_SetupSystemPLL(uint8_t msel, uint8_t psel)
  55:../../lib/lpc11cx4-library/lpc_chip_11cxx_lib/inc/clock_11xx.h **** {
  56:../../lib/lpc11cx4-library/lpc_chip_11cxx_lib/inc/clock_11xx.h **** 	LPC_SYSCTL->SYSPLLCTRL = (msel & 0x1F) | ((psel & 0x3) << 5);
  57:../../lib/lpc11cx4-library/lpc_chip_11cxx_lib/inc/clock_11xx.h **** }
  58:../../lib/lpc11cx4-library/lpc_chip_11cxx_lib/inc/clock_11xx.h **** 
  59:../../lib/lpc11cx4-library/lpc_chip_11cxx_lib/inc/clock_11xx.h **** /**
  60:../../lib/lpc11cx4-library/lpc_chip_11cxx_lib/inc/clock_11xx.h ****  * @brief	Read System PLL lock status
  61:../../lib/lpc11cx4-library/lpc_chip_11cxx_lib/inc/clock_11xx.h ****  * @return	true of the PLL is locked. false if not locked
  62:../../lib/lpc11cx4-library/lpc_chip_11cxx_lib/inc/clock_11xx.h ****  */
  63:../../lib/lpc11cx4-library/lpc_chip_11cxx_lib/inc/clock_11xx.h **** STATIC INLINE bool Chip_Clock_IsSystemPLLLocked(void)
  64:../../lib/lpc11cx4-library/lpc_chip_11cxx_lib/inc/clock_11xx.h **** {
  65:../../lib/lpc11cx4-library/lpc_chip_11cxx_lib/inc/clock_11xx.h **** 	return (bool) ((LPC_SYSCTL->SYSPLLSTAT & 1) != 0);
  66:../../lib/lpc11cx4-library/lpc_chip_11cxx_lib/inc/clock_11xx.h **** }
  67:../../lib/lpc11cx4-library/lpc_chip_11cxx_lib/inc/clock_11xx.h **** 
  68:../../lib/lpc11cx4-library/lpc_chip_11cxx_lib/inc/clock_11xx.h **** /**
ARM GAS  /var/folders/z0/6xlwn_996xz3mwq1cgzkbq4r0000gp/T//ccjakVr1.s 			page 10


  69:../../lib/lpc11cx4-library/lpc_chip_11cxx_lib/inc/clock_11xx.h ****  * Clock sources for system and USB PLLs
  70:../../lib/lpc11cx4-library/lpc_chip_11cxx_lib/inc/clock_11xx.h ****  */
  71:../../lib/lpc11cx4-library/lpc_chip_11cxx_lib/inc/clock_11xx.h **** typedef enum CHIP_SYSCTL_PLLCLKSRC {
  72:../../lib/lpc11cx4-library/lpc_chip_11cxx_lib/inc/clock_11xx.h **** 	SYSCTL_PLLCLKSRC_IRC = 0,		/*!< Internal oscillator in */
  73:../../lib/lpc11cx4-library/lpc_chip_11cxx_lib/inc/clock_11xx.h **** 	SYSCTL_PLLCLKSRC_MAINOSC,		/*!< Crystal (main) oscillator in */
  74:../../lib/lpc11cx4-library/lpc_chip_11cxx_lib/inc/clock_11xx.h **** #if defined(CHIP_LPC11AXX)
  75:../../lib/lpc11cx4-library/lpc_chip_11cxx_lib/inc/clock_11xx.h **** 	SYSCTL_PLLCLKSRC_EXT_CLKIN,	/*!< External clock in (11Axx only) */
  76:../../lib/lpc11cx4-library/lpc_chip_11cxx_lib/inc/clock_11xx.h **** #else
  77:../../lib/lpc11cx4-library/lpc_chip_11cxx_lib/inc/clock_11xx.h **** 	SYSCTL_PLLCLKSRC_RESERVED1,	/*!< Reserved */
  78:../../lib/lpc11cx4-library/lpc_chip_11cxx_lib/inc/clock_11xx.h **** #endif
  79:../../lib/lpc11cx4-library/lpc_chip_11cxx_lib/inc/clock_11xx.h **** 	SYSCTL_PLLCLKSRC_RESERVED2,	/*!< Reserved */
  80:../../lib/lpc11cx4-library/lpc_chip_11cxx_lib/inc/clock_11xx.h **** } CHIP_SYSCTL_PLLCLKSRC_T;
  81:../../lib/lpc11cx4-library/lpc_chip_11cxx_lib/inc/clock_11xx.h **** 
  82:../../lib/lpc11cx4-library/lpc_chip_11cxx_lib/inc/clock_11xx.h **** /**
  83:../../lib/lpc11cx4-library/lpc_chip_11cxx_lib/inc/clock_11xx.h ****  * @brief	Set System PLL clock source
  84:../../lib/lpc11cx4-library/lpc_chip_11cxx_lib/inc/clock_11xx.h ****  * @param	src	: Clock source for system PLL
  85:../../lib/lpc11cx4-library/lpc_chip_11cxx_lib/inc/clock_11xx.h ****  * @return	Nothing
  86:../../lib/lpc11cx4-library/lpc_chip_11cxx_lib/inc/clock_11xx.h ****  * @note	This function will also toggle the clock source update register
  87:../../lib/lpc11cx4-library/lpc_chip_11cxx_lib/inc/clock_11xx.h ****  * to update the clock source.
  88:../../lib/lpc11cx4-library/lpc_chip_11cxx_lib/inc/clock_11xx.h ****  */
  89:../../lib/lpc11cx4-library/lpc_chip_11cxx_lib/inc/clock_11xx.h **** void Chip_Clock_SetSystemPLLSource(CHIP_SYSCTL_PLLCLKSRC_T src);
  90:../../lib/lpc11cx4-library/lpc_chip_11cxx_lib/inc/clock_11xx.h **** 
  91:../../lib/lpc11cx4-library/lpc_chip_11cxx_lib/inc/clock_11xx.h **** #if defined(CHIP_LPC11UXX)
  92:../../lib/lpc11cx4-library/lpc_chip_11cxx_lib/inc/clock_11xx.h **** /**
  93:../../lib/lpc11cx4-library/lpc_chip_11cxx_lib/inc/clock_11xx.h ****  * @brief	Set USB PLL divider values
  94:../../lib/lpc11cx4-library/lpc_chip_11cxx_lib/inc/clock_11xx.h ****  * @param	msel    : PLL feedback divider value. M = msel + 1.
  95:../../lib/lpc11cx4-library/lpc_chip_11cxx_lib/inc/clock_11xx.h ****  * @param	psel    : PLL post divider value. P = (1<<psel).
  96:../../lib/lpc11cx4-library/lpc_chip_11cxx_lib/inc/clock_11xx.h ****  * @return	Nothing
  97:../../lib/lpc11cx4-library/lpc_chip_11cxx_lib/inc/clock_11xx.h ****  * @note	See the user manual for how to setup the PLL.
  98:../../lib/lpc11cx4-library/lpc_chip_11cxx_lib/inc/clock_11xx.h ****  */
  99:../../lib/lpc11cx4-library/lpc_chip_11cxx_lib/inc/clock_11xx.h **** STATIC INLINE void Chip_Clock_SetupUSBPLL(uint8_t msel, uint8_t psel)
 100:../../lib/lpc11cx4-library/lpc_chip_11cxx_lib/inc/clock_11xx.h **** {
 101:../../lib/lpc11cx4-library/lpc_chip_11cxx_lib/inc/clock_11xx.h **** 	LPC_SYSCTL->USBPLLCTRL = (msel & 0x1F) | ((psel & 0x3) << 5);
 102:../../lib/lpc11cx4-library/lpc_chip_11cxx_lib/inc/clock_11xx.h **** }
 103:../../lib/lpc11cx4-library/lpc_chip_11cxx_lib/inc/clock_11xx.h **** 
 104:../../lib/lpc11cx4-library/lpc_chip_11cxx_lib/inc/clock_11xx.h **** /**
 105:../../lib/lpc11cx4-library/lpc_chip_11cxx_lib/inc/clock_11xx.h ****  * @brief	Read USB PLL lock status
 106:../../lib/lpc11cx4-library/lpc_chip_11cxx_lib/inc/clock_11xx.h ****  * @return	true of the PLL is locked. false if not locked
 107:../../lib/lpc11cx4-library/lpc_chip_11cxx_lib/inc/clock_11xx.h ****  */
 108:../../lib/lpc11cx4-library/lpc_chip_11cxx_lib/inc/clock_11xx.h **** STATIC INLINE bool Chip_Clock_IsUSBPLLLocked(void)
 109:../../lib/lpc11cx4-library/lpc_chip_11cxx_lib/inc/clock_11xx.h **** {
 110:../../lib/lpc11cx4-library/lpc_chip_11cxx_lib/inc/clock_11xx.h **** 	return (bool) ((LPC_SYSCTL->USBPLLSTAT & 1) != 0);
 111:../../lib/lpc11cx4-library/lpc_chip_11cxx_lib/inc/clock_11xx.h **** }
 112:../../lib/lpc11cx4-library/lpc_chip_11cxx_lib/inc/clock_11xx.h **** 
 113:../../lib/lpc11cx4-library/lpc_chip_11cxx_lib/inc/clock_11xx.h **** /**
 114:../../lib/lpc11cx4-library/lpc_chip_11cxx_lib/inc/clock_11xx.h ****  * @brief	Set USB PLL clock source
 115:../../lib/lpc11cx4-library/lpc_chip_11cxx_lib/inc/clock_11xx.h ****  * @param	src	: Clock source for USB PLL
 116:../../lib/lpc11cx4-library/lpc_chip_11cxx_lib/inc/clock_11xx.h ****  * @return	Nothing
 117:../../lib/lpc11cx4-library/lpc_chip_11cxx_lib/inc/clock_11xx.h ****  * @note	This function will also toggle the clock source update register
 118:../../lib/lpc11cx4-library/lpc_chip_11cxx_lib/inc/clock_11xx.h ****  * to update the clock source.
 119:../../lib/lpc11cx4-library/lpc_chip_11cxx_lib/inc/clock_11xx.h ****  */
 120:../../lib/lpc11cx4-library/lpc_chip_11cxx_lib/inc/clock_11xx.h **** void Chip_Clock_SetUSBPLLSource(CHIP_SYSCTL_PLLCLKSRC_T src);
 121:../../lib/lpc11cx4-library/lpc_chip_11cxx_lib/inc/clock_11xx.h **** 
 122:../../lib/lpc11cx4-library/lpc_chip_11cxx_lib/inc/clock_11xx.h **** #endif /*defined(CHIP_LPC11UXX)*/
 123:../../lib/lpc11cx4-library/lpc_chip_11cxx_lib/inc/clock_11xx.h **** 
 124:../../lib/lpc11cx4-library/lpc_chip_11cxx_lib/inc/clock_11xx.h **** /**
 125:../../lib/lpc11cx4-library/lpc_chip_11cxx_lib/inc/clock_11xx.h ****  * @brief	Bypass System Oscillator and set oscillator frequency range
ARM GAS  /var/folders/z0/6xlwn_996xz3mwq1cgzkbq4r0000gp/T//ccjakVr1.s 			page 11


 126:../../lib/lpc11cx4-library/lpc_chip_11cxx_lib/inc/clock_11xx.h ****  * @param	bypass	: Flag to bypass oscillator
 127:../../lib/lpc11cx4-library/lpc_chip_11cxx_lib/inc/clock_11xx.h ****  * @param	highfr	: Flag to set oscillator range from 15-25 MHz
 128:../../lib/lpc11cx4-library/lpc_chip_11cxx_lib/inc/clock_11xx.h ****  * @return	Nothing
 129:../../lib/lpc11cx4-library/lpc_chip_11cxx_lib/inc/clock_11xx.h ****  * @note	Sets the PLL input to bypass the oscillator. This would be
 130:../../lib/lpc11cx4-library/lpc_chip_11cxx_lib/inc/clock_11xx.h ****  * used if an external clock that is not an oscillator is attached
 131:../../lib/lpc11cx4-library/lpc_chip_11cxx_lib/inc/clock_11xx.h ****  * to the XTALIN pin.
 132:../../lib/lpc11cx4-library/lpc_chip_11cxx_lib/inc/clock_11xx.h ****  */
 133:../../lib/lpc11cx4-library/lpc_chip_11cxx_lib/inc/clock_11xx.h **** void Chip_Clock_SetPLLBypass(bool bypass, bool highfr);
 134:../../lib/lpc11cx4-library/lpc_chip_11cxx_lib/inc/clock_11xx.h **** 
 135:../../lib/lpc11cx4-library/lpc_chip_11cxx_lib/inc/clock_11xx.h **** /**
 136:../../lib/lpc11cx4-library/lpc_chip_11cxx_lib/inc/clock_11xx.h ****  * Watchdog and low frequency oscillator frequencies plus or minus 40%
 137:../../lib/lpc11cx4-library/lpc_chip_11cxx_lib/inc/clock_11xx.h ****  */
 138:../../lib/lpc11cx4-library/lpc_chip_11cxx_lib/inc/clock_11xx.h **** typedef enum CHIP_WDTLFO_OSC {
 139:../../lib/lpc11cx4-library/lpc_chip_11cxx_lib/inc/clock_11xx.h **** 	WDTLFO_OSC_ILLEGAL,
 140:../../lib/lpc11cx4-library/lpc_chip_11cxx_lib/inc/clock_11xx.h **** 	WDTLFO_OSC_0_60,	/*!< 0.6 MHz watchdog/LFO rate */
 141:../../lib/lpc11cx4-library/lpc_chip_11cxx_lib/inc/clock_11xx.h **** 	WDTLFO_OSC_1_05,	/*!< 1.05 MHz watchdog/LFO rate */
 142:../../lib/lpc11cx4-library/lpc_chip_11cxx_lib/inc/clock_11xx.h **** 	WDTLFO_OSC_1_40,	/*!< 1.4 MHz watchdog/LFO rate */
 143:../../lib/lpc11cx4-library/lpc_chip_11cxx_lib/inc/clock_11xx.h **** 	WDTLFO_OSC_1_75,	/*!< 1.75 MHz watchdog/LFO rate */
 144:../../lib/lpc11cx4-library/lpc_chip_11cxx_lib/inc/clock_11xx.h **** 	WDTLFO_OSC_2_10,	/*!< 2.1 MHz watchdog/LFO rate */
 145:../../lib/lpc11cx4-library/lpc_chip_11cxx_lib/inc/clock_11xx.h **** 	WDTLFO_OSC_2_40,	/*!< 2.4 MHz watchdog/LFO rate */
 146:../../lib/lpc11cx4-library/lpc_chip_11cxx_lib/inc/clock_11xx.h **** 	WDTLFO_OSC_2_70,	/*!< 2.7 MHz watchdog/LFO rate */
 147:../../lib/lpc11cx4-library/lpc_chip_11cxx_lib/inc/clock_11xx.h **** 	WDTLFO_OSC_3_00,	/*!< 3.0 MHz watchdog/LFO rate */
 148:../../lib/lpc11cx4-library/lpc_chip_11cxx_lib/inc/clock_11xx.h **** 	WDTLFO_OSC_3_25,	/*!< 3.25 MHz watchdog/LFO rate */
 149:../../lib/lpc11cx4-library/lpc_chip_11cxx_lib/inc/clock_11xx.h **** 	WDTLFO_OSC_3_50,	/*!< 3.5 MHz watchdog/LFO rate */
 150:../../lib/lpc11cx4-library/lpc_chip_11cxx_lib/inc/clock_11xx.h **** 	WDTLFO_OSC_3_75,	/*!< 3.75 MHz watchdog/LFO rate */
 151:../../lib/lpc11cx4-library/lpc_chip_11cxx_lib/inc/clock_11xx.h **** 	WDTLFO_OSC_4_00,	/*!< 4.0 MHz watchdog/LFO rate */
 152:../../lib/lpc11cx4-library/lpc_chip_11cxx_lib/inc/clock_11xx.h **** 	WDTLFO_OSC_4_20,	/*!< 4.2 MHz watchdog/LFO rate */
 153:../../lib/lpc11cx4-library/lpc_chip_11cxx_lib/inc/clock_11xx.h **** 	WDTLFO_OSC_4_40,	/*!< 4.4 MHz watchdog/LFO rate */
 154:../../lib/lpc11cx4-library/lpc_chip_11cxx_lib/inc/clock_11xx.h **** 	WDTLFO_OSC_4_60		/*!< 4.6 MHz watchdog/LFO rate */
 155:../../lib/lpc11cx4-library/lpc_chip_11cxx_lib/inc/clock_11xx.h **** } CHIP_WDTLFO_OSC_T;
 156:../../lib/lpc11cx4-library/lpc_chip_11cxx_lib/inc/clock_11xx.h **** 
 157:../../lib/lpc11cx4-library/lpc_chip_11cxx_lib/inc/clock_11xx.h **** /**
 158:../../lib/lpc11cx4-library/lpc_chip_11cxx_lib/inc/clock_11xx.h ****  * @brief	Setup Watchdog oscillator rate and divider
 159:../../lib/lpc11cx4-library/lpc_chip_11cxx_lib/inc/clock_11xx.h ****  * @param	wdtclk	: Selected watchdog clock rate
 160:../../lib/lpc11cx4-library/lpc_chip_11cxx_lib/inc/clock_11xx.h ****  * @param	div		: Watchdog divider value, even value between 2 and 64
 161:../../lib/lpc11cx4-library/lpc_chip_11cxx_lib/inc/clock_11xx.h ****  * @return	Nothing
 162:../../lib/lpc11cx4-library/lpc_chip_11cxx_lib/inc/clock_11xx.h ****  * @note	Watchdog rate = selected rate divided by divider rate
 163:../../lib/lpc11cx4-library/lpc_chip_11cxx_lib/inc/clock_11xx.h ****  */
 164:../../lib/lpc11cx4-library/lpc_chip_11cxx_lib/inc/clock_11xx.h **** STATIC INLINE void Chip_Clock_SetWDTOSC(CHIP_WDTLFO_OSC_T wdtclk, uint8_t div)
 165:../../lib/lpc11cx4-library/lpc_chip_11cxx_lib/inc/clock_11xx.h **** {
 166:../../lib/lpc11cx4-library/lpc_chip_11cxx_lib/inc/clock_11xx.h **** 	LPC_SYSCTL->WDTOSCCTRL  = (((uint32_t) wdtclk) << 5) | ((div >> 1) - 1);
 167:../../lib/lpc11cx4-library/lpc_chip_11cxx_lib/inc/clock_11xx.h **** }
 168:../../lib/lpc11cx4-library/lpc_chip_11cxx_lib/inc/clock_11xx.h **** 
 169:../../lib/lpc11cx4-library/lpc_chip_11cxx_lib/inc/clock_11xx.h **** #if defined(CHIP_LPC11AXX)
 170:../../lib/lpc11cx4-library/lpc_chip_11cxx_lib/inc/clock_11xx.h **** /**
 171:../../lib/lpc11cx4-library/lpc_chip_11cxx_lib/inc/clock_11xx.h ****  * @brief	Setup low frequency oscillator rate and divider
 172:../../lib/lpc11cx4-library/lpc_chip_11cxx_lib/inc/clock_11xx.h ****  * @param	lfoclk	: Selected low frequency clock rate
 173:../../lib/lpc11cx4-library/lpc_chip_11cxx_lib/inc/clock_11xx.h ****  * @param	div		: Low frequency divider value, even value between 2 and 64
 174:../../lib/lpc11cx4-library/lpc_chip_11cxx_lib/inc/clock_11xx.h ****  * @return	Nothing
 175:../../lib/lpc11cx4-library/lpc_chip_11cxx_lib/inc/clock_11xx.h ****  * @note	Low frequency oscillator rate = selected rate divided by divider rate
 176:../../lib/lpc11cx4-library/lpc_chip_11cxx_lib/inc/clock_11xx.h ****  */
 177:../../lib/lpc11cx4-library/lpc_chip_11cxx_lib/inc/clock_11xx.h **** STATIC INLINE void Chip_Clock_SetLFOSC(CHIP_WDTLFO_OSC_T lfoclk, uint8_t div)
 178:../../lib/lpc11cx4-library/lpc_chip_11cxx_lib/inc/clock_11xx.h **** {
 179:../../lib/lpc11cx4-library/lpc_chip_11cxx_lib/inc/clock_11xx.h **** 	LPC_SYSCTL->LFOSCCTRL  = (((uint32_t) lfoclk) << 5) | ((div >> 1) - 1);
 180:../../lib/lpc11cx4-library/lpc_chip_11cxx_lib/inc/clock_11xx.h **** }
 181:../../lib/lpc11cx4-library/lpc_chip_11cxx_lib/inc/clock_11xx.h **** 
 182:../../lib/lpc11cx4-library/lpc_chip_11cxx_lib/inc/clock_11xx.h **** #endif /*CHIP_LPC11AXX*/
ARM GAS  /var/folders/z0/6xlwn_996xz3mwq1cgzkbq4r0000gp/T//ccjakVr1.s 			page 12


 183:../../lib/lpc11cx4-library/lpc_chip_11cxx_lib/inc/clock_11xx.h **** 
 184:../../lib/lpc11cx4-library/lpc_chip_11cxx_lib/inc/clock_11xx.h **** /**
 185:../../lib/lpc11cx4-library/lpc_chip_11cxx_lib/inc/clock_11xx.h ****  * Clock sources for main system clock
 186:../../lib/lpc11cx4-library/lpc_chip_11cxx_lib/inc/clock_11xx.h ****  */
 187:../../lib/lpc11cx4-library/lpc_chip_11cxx_lib/inc/clock_11xx.h **** typedef enum CHIP_SYSCTL_MAINCLKSRC {
 188:../../lib/lpc11cx4-library/lpc_chip_11cxx_lib/inc/clock_11xx.h **** 	SYSCTL_MAINCLKSRC_IRC = 0,		/*!< Internal oscillator */
 189:../../lib/lpc11cx4-library/lpc_chip_11cxx_lib/inc/clock_11xx.h **** 	SYSCTL_MAINCLKSRC_PLLIN,		/*!< System PLL input */
 190:../../lib/lpc11cx4-library/lpc_chip_11cxx_lib/inc/clock_11xx.h **** 	SYSCTL_MAINCLKSRC_LFOSC,		/*!< LF oscillator rate (11Axx only) */
 191:../../lib/lpc11cx4-library/lpc_chip_11cxx_lib/inc/clock_11xx.h **** 	SYSCTL_MAINCLKSRC_WDTOSC = SYSCTL_MAINCLKSRC_LFOSC,	/*!< Watchdog oscillator rate */
 192:../../lib/lpc11cx4-library/lpc_chip_11cxx_lib/inc/clock_11xx.h **** 	SYSCTL_MAINCLKSRC_PLLOUT,		/*!< System PLL output */
 193:../../lib/lpc11cx4-library/lpc_chip_11cxx_lib/inc/clock_11xx.h **** } CHIP_SYSCTL_MAINCLKSRC_T;
 194:../../lib/lpc11cx4-library/lpc_chip_11cxx_lib/inc/clock_11xx.h **** 
 195:../../lib/lpc11cx4-library/lpc_chip_11cxx_lib/inc/clock_11xx.h **** /**
 196:../../lib/lpc11cx4-library/lpc_chip_11cxx_lib/inc/clock_11xx.h ****  * @brief	Set main system clock source
 197:../../lib/lpc11cx4-library/lpc_chip_11cxx_lib/inc/clock_11xx.h ****  * @param	src	: Clock source for main system
 198:../../lib/lpc11cx4-library/lpc_chip_11cxx_lib/inc/clock_11xx.h ****  * @return	Nothing
 199:../../lib/lpc11cx4-library/lpc_chip_11cxx_lib/inc/clock_11xx.h ****  * @note	This function will also toggle the clock source update register
 200:../../lib/lpc11cx4-library/lpc_chip_11cxx_lib/inc/clock_11xx.h ****  * to update the clock source.
 201:../../lib/lpc11cx4-library/lpc_chip_11cxx_lib/inc/clock_11xx.h ****  */
 202:../../lib/lpc11cx4-library/lpc_chip_11cxx_lib/inc/clock_11xx.h **** void Chip_Clock_SetMainClockSource(CHIP_SYSCTL_MAINCLKSRC_T src);
 203:../../lib/lpc11cx4-library/lpc_chip_11cxx_lib/inc/clock_11xx.h **** 
 204:../../lib/lpc11cx4-library/lpc_chip_11cxx_lib/inc/clock_11xx.h **** /**
 205:../../lib/lpc11cx4-library/lpc_chip_11cxx_lib/inc/clock_11xx.h ****  * @brief   Returns the main clock source
 206:../../lib/lpc11cx4-library/lpc_chip_11cxx_lib/inc/clock_11xx.h ****  * @return	Which clock is used for the core clock source?
 207:../../lib/lpc11cx4-library/lpc_chip_11cxx_lib/inc/clock_11xx.h ****  */
 208:../../lib/lpc11cx4-library/lpc_chip_11cxx_lib/inc/clock_11xx.h **** STATIC INLINE CHIP_SYSCTL_MAINCLKSRC_T Chip_Clock_GetMainClockSource(void)
 209:../../lib/lpc11cx4-library/lpc_chip_11cxx_lib/inc/clock_11xx.h **** {
 210:../../lib/lpc11cx4-library/lpc_chip_11cxx_lib/inc/clock_11xx.h **** 	return (CHIP_SYSCTL_MAINCLKSRC_T) (LPC_SYSCTL->MAINCLKSEL);
 211:../../lib/lpc11cx4-library/lpc_chip_11cxx_lib/inc/clock_11xx.h **** }
 212:../../lib/lpc11cx4-library/lpc_chip_11cxx_lib/inc/clock_11xx.h **** 
 213:../../lib/lpc11cx4-library/lpc_chip_11cxx_lib/inc/clock_11xx.h **** /**
 214:../../lib/lpc11cx4-library/lpc_chip_11cxx_lib/inc/clock_11xx.h ****  * @brief	Set system clock divider
 215:../../lib/lpc11cx4-library/lpc_chip_11cxx_lib/inc/clock_11xx.h ****  * @param	div	: divider for system clock
 216:../../lib/lpc11cx4-library/lpc_chip_11cxx_lib/inc/clock_11xx.h ****  * @return	Nothing
 217:../../lib/lpc11cx4-library/lpc_chip_11cxx_lib/inc/clock_11xx.h ****  * @note	Use 0 to disable, or a divider value of 1 to 255. The system clock
 218:../../lib/lpc11cx4-library/lpc_chip_11cxx_lib/inc/clock_11xx.h ****  * rate is the main system clock divided by this value.
 219:../../lib/lpc11cx4-library/lpc_chip_11cxx_lib/inc/clock_11xx.h ****  */
 220:../../lib/lpc11cx4-library/lpc_chip_11cxx_lib/inc/clock_11xx.h **** STATIC INLINE void Chip_Clock_SetSysClockDiv(uint32_t div)
 221:../../lib/lpc11cx4-library/lpc_chip_11cxx_lib/inc/clock_11xx.h **** {
 222:../../lib/lpc11cx4-library/lpc_chip_11cxx_lib/inc/clock_11xx.h **** 	LPC_SYSCTL->SYSAHBCLKDIV  = div;
 223:../../lib/lpc11cx4-library/lpc_chip_11cxx_lib/inc/clock_11xx.h **** }
 224:../../lib/lpc11cx4-library/lpc_chip_11cxx_lib/inc/clock_11xx.h **** 
 225:../../lib/lpc11cx4-library/lpc_chip_11cxx_lib/inc/clock_11xx.h **** /**
 226:../../lib/lpc11cx4-library/lpc_chip_11cxx_lib/inc/clock_11xx.h ****  * System and peripheral clocks
 227:../../lib/lpc11cx4-library/lpc_chip_11cxx_lib/inc/clock_11xx.h ****  */
 228:../../lib/lpc11cx4-library/lpc_chip_11cxx_lib/inc/clock_11xx.h **** typedef enum CHIP_SYSCTL_CLOCK {
 229:../../lib/lpc11cx4-library/lpc_chip_11cxx_lib/inc/clock_11xx.h **** 	SYSCTL_CLOCK_SYS = 0,				/*!< 0: System clock */
 230:../../lib/lpc11cx4-library/lpc_chip_11cxx_lib/inc/clock_11xx.h **** 	SYSCTL_CLOCK_ROM,					/*!<1:  ROM clock */
 231:../../lib/lpc11cx4-library/lpc_chip_11cxx_lib/inc/clock_11xx.h **** 	SYSCTL_CLOCK_RAM,					/*!< 2: RAM clock */
 232:../../lib/lpc11cx4-library/lpc_chip_11cxx_lib/inc/clock_11xx.h **** 	SYSCTL_CLOCK_FLASHREG,				/*!< 3: FLASH register interface clock */
 233:../../lib/lpc11cx4-library/lpc_chip_11cxx_lib/inc/clock_11xx.h **** 	SYSCTL_CLOCK_FLASHARRAY,			/*!< 4: FLASH array access clock */
 234:../../lib/lpc11cx4-library/lpc_chip_11cxx_lib/inc/clock_11xx.h **** #if defined(CHIP_LPC110X)
 235:../../lib/lpc11cx4-library/lpc_chip_11cxx_lib/inc/clock_11xx.h **** 	SYSCTL_CLOCK_RESERVED5,				/*!< 5: Reserved */
 236:../../lib/lpc11cx4-library/lpc_chip_11cxx_lib/inc/clock_11xx.h **** #else
 237:../../lib/lpc11cx4-library/lpc_chip_11cxx_lib/inc/clock_11xx.h **** 	SYSCTL_CLOCK_I2C,					/*!< 5: I2C clock, not on LPC110x */
 238:../../lib/lpc11cx4-library/lpc_chip_11cxx_lib/inc/clock_11xx.h **** #endif
 239:../../lib/lpc11cx4-library/lpc_chip_11cxx_lib/inc/clock_11xx.h **** 	SYSCTL_CLOCK_GPIO,					/*!< 6: GPIO clock */
ARM GAS  /var/folders/z0/6xlwn_996xz3mwq1cgzkbq4r0000gp/T//ccjakVr1.s 			page 13


 240:../../lib/lpc11cx4-library/lpc_chip_11cxx_lib/inc/clock_11xx.h **** 	SYSCTL_CLOCK_CT16B0,				/*!< 7: 16-bit Counter/timer 0 clock */
 241:../../lib/lpc11cx4-library/lpc_chip_11cxx_lib/inc/clock_11xx.h **** 	SYSCTL_CLOCK_CT16B1,				/*!< 8: 16-bit Counter/timer 1 clock */
 242:../../lib/lpc11cx4-library/lpc_chip_11cxx_lib/inc/clock_11xx.h **** 	SYSCTL_CLOCK_CT32B0,				/*!< 9: 32-bit Counter/timer 0 clock */
 243:../../lib/lpc11cx4-library/lpc_chip_11cxx_lib/inc/clock_11xx.h **** 	SYSCTL_CLOCK_CT32B1,				/*!< 10: 32-bit Counter/timer 1 clock */
 244:../../lib/lpc11cx4-library/lpc_chip_11cxx_lib/inc/clock_11xx.h **** 	SYSCTL_CLOCK_SSP0,					/*!< 11: SSP0 clock */
 245:../../lib/lpc11cx4-library/lpc_chip_11cxx_lib/inc/clock_11xx.h **** 	SYSCTL_CLOCK_UART0,					/*!< 12: UART0 clock */
 246:../../lib/lpc11cx4-library/lpc_chip_11cxx_lib/inc/clock_11xx.h **** 	SYSCTL_CLOCK_ADC,					/*!< 13: ADC clock */
 247:../../lib/lpc11cx4-library/lpc_chip_11cxx_lib/inc/clock_11xx.h **** #if defined(CHIP_LPC11UXX)
 248:../../lib/lpc11cx4-library/lpc_chip_11cxx_lib/inc/clock_11xx.h **** 	SYSCTL_CLOCK_USB,					/*!< 14: USB clock, LPC11Uxx only */
 249:../../lib/lpc11cx4-library/lpc_chip_11cxx_lib/inc/clock_11xx.h **** #else
 250:../../lib/lpc11cx4-library/lpc_chip_11cxx_lib/inc/clock_11xx.h **** 	SYSCTL_CLOCK_RESERVED14,			/*!< 14: Reserved */
 251:../../lib/lpc11cx4-library/lpc_chip_11cxx_lib/inc/clock_11xx.h **** #endif
 252:../../lib/lpc11cx4-library/lpc_chip_11cxx_lib/inc/clock_11xx.h **** 	SYSCTL_CLOCK_WDT,					/*!< 15: Watchdog timer clock */
 253:../../lib/lpc11cx4-library/lpc_chip_11cxx_lib/inc/clock_11xx.h **** 	SYSCTL_CLOCK_IOCON,					/*!< 16: IOCON block clock */
 254:../../lib/lpc11cx4-library/lpc_chip_11cxx_lib/inc/clock_11xx.h **** #if defined(CHIP_LPC11CXX)
 255:../../lib/lpc11cx4-library/lpc_chip_11cxx_lib/inc/clock_11xx.h **** 	SYSCTL_CLOCK_CAN,					/*!< 17: CAN clock, LPC11Cxx only */
 256:../../lib/lpc11cx4-library/lpc_chip_11cxx_lib/inc/clock_11xx.h **** #else
 257:../../lib/lpc11cx4-library/lpc_chip_11cxx_lib/inc/clock_11xx.h **** 	SYSCTL_CLOCK_RESERVED17,			/*!< 17: Reserved */
 258:../../lib/lpc11cx4-library/lpc_chip_11cxx_lib/inc/clock_11xx.h **** #endif
 259:../../lib/lpc11cx4-library/lpc_chip_11cxx_lib/inc/clock_11xx.h **** #if !(defined(CHIP_LPC110X) || defined(CHIP_LPC11XXLV))  
 260:../../lib/lpc11cx4-library/lpc_chip_11cxx_lib/inc/clock_11xx.h **** 	SYSCTL_CLOCK_SSP1,					/*!< 18: SSP1 clock, LPC11A/C/E/Uxx//1125 only */
 261:../../lib/lpc11cx4-library/lpc_chip_11cxx_lib/inc/clock_11xx.h **** #if !defined(CHIP_LPC11CXX)
 262:../../lib/lpc11cx4-library/lpc_chip_11cxx_lib/inc/clock_11xx.h **** 	SYSCTL_CLOCK_PINT,					/*!< 19: GPIO Pin int register interface clock, LPC11A/E/Uxx only */
 263:../../lib/lpc11cx4-library/lpc_chip_11cxx_lib/inc/clock_11xx.h **** #if defined(CHIP_LPC11AXX)
 264:../../lib/lpc11cx4-library/lpc_chip_11cxx_lib/inc/clock_11xx.h **** 	SYSCTL_CLOCK_ACOMP,					/*!< 20: Analog comparator clock, LPC11Axx only */
 265:../../lib/lpc11cx4-library/lpc_chip_11cxx_lib/inc/clock_11xx.h **** 	SYSCTL_CLOCK_DAC,					/*!< 21: DAC clock, LPC11Axx only */
 266:../../lib/lpc11cx4-library/lpc_chip_11cxx_lib/inc/clock_11xx.h **** #else
 267:../../lib/lpc11cx4-library/lpc_chip_11cxx_lib/inc/clock_11xx.h **** 	SYSCTL_CLOCK_RESERVED20,			/*!< 20: Reserved */
 268:../../lib/lpc11cx4-library/lpc_chip_11cxx_lib/inc/clock_11xx.h **** 	SYSCTL_CLOCK_RESERVED21,			/*!< 21: Reserved */
 269:../../lib/lpc11cx4-library/lpc_chip_11cxx_lib/inc/clock_11xx.h **** #endif
 270:../../lib/lpc11cx4-library/lpc_chip_11cxx_lib/inc/clock_11xx.h **** 	SYSCTL_CLOCK_RESERVED22,			/*!< 22: Reserved */
 271:../../lib/lpc11cx4-library/lpc_chip_11cxx_lib/inc/clock_11xx.h **** 	SYSCTL_CLOCK_P0INT,					/*!< 23: GPIO GROUP1 interrupt register clock, LPC11Axx only */
 272:../../lib/lpc11cx4-library/lpc_chip_11cxx_lib/inc/clock_11xx.h **** 	SYSCTL_CLOCK_GROUP0INT = SYSCTL_CLOCK_P0INT,/*!< 23: GPIO GROUP0 interrupt register interface cloc
 273:../../lib/lpc11cx4-library/lpc_chip_11cxx_lib/inc/clock_11xx.h **** 	SYSCTL_CLOCK_P1INT,					/*!< 24: GPIO GROUP1 interrupt register clock, LPC11Axx only */
 274:../../lib/lpc11cx4-library/lpc_chip_11cxx_lib/inc/clock_11xx.h **** 	SYSCTL_CLOCK_GROUP1INT = SYSCTL_CLOCK_P1INT,/*!< 24: GPIO GROUP1 interrupt register interface cloc
 275:../../lib/lpc11cx4-library/lpc_chip_11cxx_lib/inc/clock_11xx.h **** 	SYSCTL_CLOCK_RESERVED25,			/*!< 25: Reserved */
 276:../../lib/lpc11cx4-library/lpc_chip_11cxx_lib/inc/clock_11xx.h **** #if defined(CHIP_LPC11EXX)  || defined(CHIP_LPC11UXX)
 277:../../lib/lpc11cx4-library/lpc_chip_11cxx_lib/inc/clock_11xx.h **** 	SYSCTL_CLOCK_RAM1,					/*!< 26: SRAM block (0x20000000) clock, LPC11E/Uxx only */
 278:../../lib/lpc11cx4-library/lpc_chip_11cxx_lib/inc/clock_11xx.h **** #else
 279:../../lib/lpc11cx4-library/lpc_chip_11cxx_lib/inc/clock_11xx.h **** 	SYSCTL_CLOCK_RESERVED26,			/*!< 26: Reserved */
 280:../../lib/lpc11cx4-library/lpc_chip_11cxx_lib/inc/clock_11xx.h **** #endif
 281:../../lib/lpc11cx4-library/lpc_chip_11cxx_lib/inc/clock_11xx.h **** #if defined(CHIP_LPC11UXX)
 282:../../lib/lpc11cx4-library/lpc_chip_11cxx_lib/inc/clock_11xx.h **** 	SYSCTL_CLOCK_USBRAM,				/*!< 27: USB SRAM block clock, LPC11Uxx only */
 283:../../lib/lpc11cx4-library/lpc_chip_11cxx_lib/inc/clock_11xx.h **** #else
 284:../../lib/lpc11cx4-library/lpc_chip_11cxx_lib/inc/clock_11xx.h **** 	SYSCTL_CLOCK_RESERVED27,			/*!< 27: Reserved */
 285:../../lib/lpc11cx4-library/lpc_chip_11cxx_lib/inc/clock_11xx.h **** #endif
 286:../../lib/lpc11cx4-library/lpc_chip_11cxx_lib/inc/clock_11xx.h **** #endif /* !defined(CHIP_LPC11CXX) */
 287:../../lib/lpc11cx4-library/lpc_chip_11cxx_lib/inc/clock_11xx.h **** #endif /* !(defined(CHIP_LPC110X) || defined(CHIP_LPC11XXLV)) */
 288:../../lib/lpc11cx4-library/lpc_chip_11cxx_lib/inc/clock_11xx.h **** } CHIP_SYSCTL_CLOCK_T;
 289:../../lib/lpc11cx4-library/lpc_chip_11cxx_lib/inc/clock_11xx.h **** 
 290:../../lib/lpc11cx4-library/lpc_chip_11cxx_lib/inc/clock_11xx.h **** /**
 291:../../lib/lpc11cx4-library/lpc_chip_11cxx_lib/inc/clock_11xx.h ****  * @brief	Enable a system or peripheral clock
 292:../../lib/lpc11cx4-library/lpc_chip_11cxx_lib/inc/clock_11xx.h ****  * @param	clk	: Clock to enable
 293:../../lib/lpc11cx4-library/lpc_chip_11cxx_lib/inc/clock_11xx.h ****  * @return	Nothing
 294:../../lib/lpc11cx4-library/lpc_chip_11cxx_lib/inc/clock_11xx.h ****  */
 295:../../lib/lpc11cx4-library/lpc_chip_11cxx_lib/inc/clock_11xx.h **** STATIC INLINE void Chip_Clock_EnablePeriphClock(CHIP_SYSCTL_CLOCK_T clk)
 296:../../lib/lpc11cx4-library/lpc_chip_11cxx_lib/inc/clock_11xx.h **** {
ARM GAS  /var/folders/z0/6xlwn_996xz3mwq1cgzkbq4r0000gp/T//ccjakVr1.s 			page 14


 297:../../lib/lpc11cx4-library/lpc_chip_11cxx_lib/inc/clock_11xx.h **** 	LPC_SYSCTL->SYSAHBCLKCTRL |= (1 << clk);
 279              		.loc 2 297 0
 280 0000 8022     		movs	r2, #128	@ tmp138,
 281              	.LBE26:
 282              	.LBE25:
  38:../../lib/lpc11cx4-library/evt_lib/src/can.c **** 	uint32_t pClk, div, quanta, segs, seg1, seg2, clk_per_bit, can_sjw;
 283              		.loc 1 38 0
 284 0002 F0B5     		push	{r4, r5, r6, r7, lr}	@
 285              		.cfi_def_cfa_offset 20
 286              		.cfi_offset 4, -20
 287              		.cfi_offset 5, -16
 288              		.cfi_offset 6, -12
 289              		.cfi_offset 7, -8
 290              		.cfi_offset 14, -4
 291 0004 0500     		movs	r5, r0	@ baud_rate, baud_rate
 292              	.LBB30:
 293              	.LBB27:
 294              		.loc 2 297 0
 295 0006 8020     		movs	r0, #128	@ tmp139,
 296              	.LVL12:
 297              	.LBE27:
 298              	.LBE30:
  38:../../lib/lpc11cx4-library/evt_lib/src/can.c **** 	uint32_t pClk, div, quanta, segs, seg1, seg2, clk_per_bit, can_sjw;
 299              		.loc 1 38 0
 300 0008 4746     		mov	r7, r8	@,
 301 000a 0C00     		movs	r4, r1	@ can_api_timing_cfg, can_api_timing_cfg
 302              	.LBB31:
 303              	.LBB28:
 304              		.loc 2 297 0
 305 000c 2049     		ldr	r1, .L32	@ tmp137,
 306              	.LVL13:
 307 000e 8002     		lsls	r0, r0, #10	@ tmp139, tmp139,
 308 0010 8B58     		ldr	r3, [r1, r2]	@ D.6964, MEM[(struct LPC_SYSCTL_T *)1074036736B].SYSAHBCLKCTRL
 309              	.LBE28:
 310              	.LBE31:
  38:../../lib/lpc11cx4-library/evt_lib/src/can.c **** 	uint32_t pClk, div, quanta, segs, seg1, seg2, clk_per_bit, can_sjw;
 311              		.loc 1 38 0
 312 0012 80B4     		push	{r7}	@
 313              		.cfi_def_cfa_offset 24
 314              		.cfi_offset 8, -24
 315              	.LBB32:
 316              	.LBB29:
 317              		.loc 2 297 0
 318 0014 0343     		orrs	r3, r0	@ D.6964, tmp139
 319 0016 8B50     		str	r3, [r1, r2]	@ D.6964, MEM[(struct LPC_SYSCTL_T *)1074036736B].SYSAHBCLKCTRL
 320              	.LVL14:
 321              	.LBE29:
 322              	.LBE32:
  41:../../lib/lpc11cx4-library/evt_lib/src/can.c **** 
 323              		.loc 1 41 0
 324 0018 FFF7FEFF 		bl	Chip_Clock_GetMainClockRate	@
 325              	.LVL15:
  43:../../lib/lpc11cx4-library/evt_lib/src/can.c **** 
 326              		.loc 1 43 0
 327 001c 2900     		movs	r1, r5	@, baud_rate
 328 001e FFF7FEFF 		bl	__aeabi_uidiv	@
 329              	.LVL16:
ARM GAS  /var/folders/z0/6xlwn_996xz3mwq1cgzkbq4r0000gp/T//ccjakVr1.s 			page 15


  45:../../lib/lpc11cx4-library/evt_lib/src/can.c **** 		for (quanta = 1; quanta <= 32; quanta++) {
 330              		.loc 1 45 0
 331 0022 0023     		movs	r3, #0	@ div,
  43:../../lib/lpc11cx4-library/evt_lib/src/can.c **** 
 332              		.loc 1 43 0
 333 0024 0327     		movs	r7, #3	@ ivtmp.65,
  45:../../lib/lpc11cx4-library/evt_lib/src/can.c **** 		for (quanta = 1; quanta <= 32; quanta++) {
 334              		.loc 1 45 0
 335 0026 9846     		mov	r8, r3	@ div, div
 336              	.LVL17:
 337              	.L19:
 338 0028 0123     		movs	r3, #1	@ div,
 339 002a 4344     		add	r3, r3, r8	@ div, div
 340 002c 9C46     		mov	ip, r3	@ div, div
  38:../../lib/lpc11cx4-library/evt_lib/src/can.c **** 	uint32_t pClk, div, quanta, segs, seg1, seg2, clk_per_bit, can_sjw;
 341              		.loc 1 38 0
 342 002e 3E00     		movs	r6, r7	@ ivtmp.58, ivtmp.65
 343 0030 1900     		movs	r1, r3	@ ivtmp.56, div
 344 0032 0125     		movs	r5, #1	@ quanta,
 345              	.LVL18:
 346              	.L25:
 347 0034 3200     		movs	r2, r6	@ ivtmp.47, ivtmp.58
 348 0036 0323     		movs	r3, #3	@ segs,
 349              	.LVL19:
 350              	.L23:
  48:../../lib/lpc11cx4-library/evt_lib/src/can.c **** 					segs -= 3;
 351              		.loc 1 48 0
 352 0038 9042     		cmp	r0, r2	@ clk_per_bit, ivtmp.47
 353 003a 0ED0     		beq	.L30	@,
  47:../../lib/lpc11cx4-library/evt_lib/src/can.c **** 				if (clk_per_bit == (segs * quanta * (div + 1))) {
 354              		.loc 1 47 0 discriminator 2
 355 003c 0133     		adds	r3, r3, #1	@ segs,
 356              	.LVL20:
 357 003e 5218     		adds	r2, r2, r1	@ ivtmp.47, ivtmp.47, ivtmp.56
 358 0040 122B     		cmp	r3, #18	@ segs,
 359 0042 F9D1     		bne	.L23	@,
  46:../../lib/lpc11cx4-library/evt_lib/src/can.c **** 			for (segs = 3; segs <= 17; segs++) {
 360              		.loc 1 46 0 discriminator 2
 361 0044 0135     		adds	r5, r5, #1	@ quanta,
 362              	.LVL21:
 363 0046 6144     		add	r1, r1, ip	@ ivtmp.56, div
 364 0048 F619     		adds	r6, r6, r7	@ ivtmp.58, ivtmp.58, ivtmp.65
 365 004a 212D     		cmp	r5, #33	@ quanta,
 366 004c F2D1     		bne	.L25	@,
 367              	.LVL22:
  45:../../lib/lpc11cx4-library/evt_lib/src/can.c **** 		for (quanta = 1; quanta <= 32; quanta++) {
 368              		.loc 1 45 0 discriminator 2
 369 004e 6346     		mov	r3, ip	@ div, div
 370              	.LVL23:
 371 0050 0337     		adds	r7, r7, #3	@ ivtmp.65,
 372 0052 102B     		cmp	r3, #16	@ div,
 373 0054 17D0     		beq	.L18	@,
 374 0056 E046     		mov	r8, ip	@ div, div
 375              	.LVL24:
 376 0058 E6E7     		b	.L19	@
 377              	.LVL25:
 378              	.L30:
ARM GAS  /var/folders/z0/6xlwn_996xz3mwq1cgzkbq4r0000gp/T//ccjakVr1.s 			page 16


  53:../../lib/lpc11cx4-library/evt_lib/src/can.c **** 					can_api_timing_cfg[1] =
 379              		.loc 1 53 0
 380 005a 4246     		mov	r2, r8	@ div, div
  49:../../lib/lpc11cx4-library/evt_lib/src/can.c **** 					seg1 = segs / 2;
 381              		.loc 1 49 0
 382 005c 033B     		subs	r3, r3, #3	@ segs,
 383              	.LVL26:
  50:../../lib/lpc11cx4-library/evt_lib/src/can.c **** 					seg2 = segs - seg1;
 384              		.loc 1 50 0
 385 005e 5808     		lsrs	r0, r3, #1	@ seg1, segs,
 386              	.LVL27:
  53:../../lib/lpc11cx4-library/evt_lib/src/can.c **** 					can_api_timing_cfg[1] =
 387              		.loc 1 53 0
 388 0060 2260     		str	r2, [r4]	@ div, *can_api_timing_cfg_21(D)
  54:../../lib/lpc11cx4-library/evt_lib/src/can.c **** 						((quanta - 1) & 0x3F) | (can_sjw & 0x03) << 6 | (seg1 & 0x0F) << 8 | (seg2 & 0x07) << 12;
 389              		.loc 1 54 0
 390 0062 0200     		movs	r2, r0	@ can_sjw, seg1
 391 0064 0328     		cmp	r0, #3	@ seg1,
 392 0066 11D8     		bhi	.L31	@,
 393              	.L21:
 394 0068 F021     		movs	r1, #240	@ tmp149,
 395 006a 9601     		lsls	r6, r2, #6	@ D.6964, can_sjw,
 396 006c 0901     		lsls	r1, r1, #4	@ tmp149, tmp149,
 397 006e 0202     		lsls	r2, r0, #8	@ D.6964, seg1,
 398 0070 0A40     		ands	r2, r1	@ D.6964, tmp149
 399 0072 3243     		orrs	r2, r6	@ D.6964, D.6964
 400 0074 013D     		subs	r5, r5, #1	@ D.6964,
 401              	.LVL28:
 402 0076 1543     		orrs	r5, r2	@ D.6964, D.6964
 403              	.LVL29:
 404 0078 E022     		movs	r2, #224	@ tmp156,
 405 007a 1B1A     		subs	r3, r3, r0	@ seg2, segs, seg1
 406              	.LVL30:
 407 007c 1B03     		lsls	r3, r3, #12	@ D.6964, seg2,
 408 007e D201     		lsls	r2, r2, #7	@ tmp156, tmp156,
 409 0080 1340     		ands	r3, r2	@ D.6964, tmp156
 410 0082 1D43     		orrs	r5, r3	@ D.6964, D.6964
 411 0084 6560     		str	r5, [r4, #4]	@ D.6964, MEM[(uint32_t *)can_api_timing_cfg_21(D) + 4B]
 412              	.LVL31:
 413              	.L18:
  61:../../lib/lpc11cx4-library/evt_lib/src/can.c **** 
 414              		.loc 1 61 0
 415              		@ sp needed	@
 416              	.LVL32:
 417 0086 04BC     		pop	{r2}
 418 0088 9046     		mov	r8, r2
 419 008a F0BD     		pop	{r4, r5, r6, r7, pc}
 420              	.LVL33:
 421              	.L31:
  54:../../lib/lpc11cx4-library/evt_lib/src/can.c **** 						((quanta - 1) & 0x3F) | (can_sjw & 0x03) << 6 | (seg1 & 0x0F) << 8 | (seg2 & 0x07) << 12;
 422              		.loc 1 54 0
 423 008c 0322     		movs	r2, #3	@ can_sjw,
 424 008e EBE7     		b	.L21	@
 425              	.L33:
 426              		.align	2
 427              	.L32:
 428 0090 00800440 		.word	1074036736
ARM GAS  /var/folders/z0/6xlwn_996xz3mwq1cgzkbq4r0000gp/T//ccjakVr1.s 			page 17


 429              		.cfi_endproc
 430              	.LFE198:
 431              		.size	Baudrate_Calculate, .-Baudrate_Calculate
 432              		.section	.text.CAN_GetTxErrorCount,"ax",%progbits
 433              		.align	2
 434              		.global	CAN_GetTxErrorCount
 435              		.code	16
 436              		.thumb_func
 437              		.type	CAN_GetTxErrorCount, %function
 438              	CAN_GetTxErrorCount:
 439              	.LFB199:
  63:../../lib/lpc11cx4-library/evt_lib/src/can.c ****     // page 290 in the user manual
 440              		.loc 1 63 0
 441              		.cfi_startproc
 442              		@ args = 0, pretend = 0, frame = 0
 443              		@ frame_needed = 0, uses_anonymous_args = 0
 444              		@ link register save eliminated.
  65:../../lib/lpc11cx4-library/evt_lib/src/can.c **** }
 445              		.loc 1 65 0
 446 0000 014B     		ldr	r3, .L35	@ tmp113,
  66:../../lib/lpc11cx4-library/evt_lib/src/can.c **** 
 447              		.loc 1 66 0
 448              		@ sp needed	@
  65:../../lib/lpc11cx4-library/evt_lib/src/can.c **** }
 449              		.loc 1 65 0
 450 0002 9868     		ldr	r0, [r3, #8]	@ D.6968, MEM[(struct LPC_CCAN_T *)1074069504B].CANEC
 451 0004 C0B2     		uxtb	r0, r0	@ D.6969, D.6968
  66:../../lib/lpc11cx4-library/evt_lib/src/can.c **** 
 452              		.loc 1 66 0
 453 0006 7047     		bx	lr
 454              	.L36:
 455              		.align	2
 456              	.L35:
 457 0008 00000540 		.word	1074069504
 458              		.cfi_endproc
 459              	.LFE199:
 460              		.size	CAN_GetTxErrorCount, .-CAN_GetTxErrorCount
 461              		.section	.text.CAN_GetRxErrorCount,"ax",%progbits
 462              		.align	2
 463              		.global	CAN_GetRxErrorCount
 464              		.code	16
 465              		.thumb_func
 466              		.type	CAN_GetRxErrorCount, %function
 467              	CAN_GetRxErrorCount:
 468              	.LFB200:
  68:../../lib/lpc11cx4-library/evt_lib/src/can.c ****     // page 290 in the user manual
 469              		.loc 1 68 0
 470              		.cfi_startproc
 471              		@ args = 0, pretend = 0, frame = 0
 472              		@ frame_needed = 0, uses_anonymous_args = 0
 473              		@ link register save eliminated.
  70:../../lib/lpc11cx4-library/evt_lib/src/can.c **** }
 474              		.loc 1 70 0
 475 0000 024B     		ldr	r3, .L38	@ tmp115,
  71:../../lib/lpc11cx4-library/evt_lib/src/can.c **** 
 476              		.loc 1 71 0
 477              		@ sp needed	@
ARM GAS  /var/folders/z0/6xlwn_996xz3mwq1cgzkbq4r0000gp/T//ccjakVr1.s 			page 18


  70:../../lib/lpc11cx4-library/evt_lib/src/can.c **** }
 478              		.loc 1 70 0
 479 0002 9868     		ldr	r0, [r3, #8]	@ D.6972, MEM[(struct LPC_CCAN_T *)1074069504B].CANEC
 480 0004 4004     		lsls	r0, r0, #17	@ tmp118, D.6972,
 481 0006 400E     		lsrs	r0, r0, #25	@ D.6973, tmp118,
  71:../../lib/lpc11cx4-library/evt_lib/src/can.c **** 
 482              		.loc 1 71 0
 483 0008 7047     		bx	lr
 484              	.L39:
 485 000a C046     		.align	2
 486              	.L38:
 487 000c 00000540 		.word	1074069504
 488              		.cfi_endproc
 489              	.LFE200:
 490              		.size	CAN_GetRxErrorCount, .-CAN_GetRxErrorCount
 491              		.section	.text.CAN_IsTxBusy,"ax",%progbits
 492              		.align	2
 493              		.global	CAN_IsTxBusy
 494              		.code	16
 495              		.thumb_func
 496              		.type	CAN_IsTxBusy, %function
 497              	CAN_IsTxBusy:
 498              	.LFB201:
  73:../../lib/lpc11cx4-library/evt_lib/src/can.c ****     // page 302 in the user manual
 499              		.loc 1 73 0
 500              		.cfi_startproc
 501              		@ args = 0, pretend = 0, frame = 0
 502              		@ frame_needed = 0, uses_anonymous_args = 0
 503              		@ link register save eliminated.
  75:../../lib/lpc11cx4-library/evt_lib/src/can.c **** }
 504              		.loc 1 75 0
 505 0000 8223     		movs	r3, #130	@ tmp115,
 506 0002 034A     		ldr	r2, .L41	@ tmp114,
 507 0004 5B00     		lsls	r3, r3, #1	@ tmp115, tmp115,
 508 0006 D058     		ldr	r0, [r2, r3]	@ D.6976, MEM[(struct LPC_CCAN_T *)1074069504B].CANTXREQ1
  76:../../lib/lpc11cx4-library/evt_lib/src/can.c **** 
 509              		.loc 1 76 0
 510              		@ sp needed	@
  75:../../lib/lpc11cx4-library/evt_lib/src/can.c **** }
 511              		.loc 1 75 0
 512 0008 8007     		lsls	r0, r0, #30	@ tmp121, D.6976,
 513 000a C00F     		lsrs	r0, r0, #31	@ D.6977, tmp121,
  76:../../lib/lpc11cx4-library/evt_lib/src/can.c **** 
 514              		.loc 1 76 0
 515 000c 7047     		bx	lr
 516              	.L42:
 517 000e C046     		.align	2
 518              	.L41:
 519 0010 00000540 		.word	1074069504
 520              		.cfi_endproc
 521              	.LFE201:
 522              		.size	CAN_IsTxBusy, .-CAN_IsTxBusy
 523              		.section	.text.CAN_ResetPeripheral,"ax",%progbits
 524              		.align	2
 525              		.global	CAN_ResetPeripheral
 526              		.code	16
 527              		.thumb_func
ARM GAS  /var/folders/z0/6xlwn_996xz3mwq1cgzkbq4r0000gp/T//ccjakVr1.s 			page 19


 528              		.type	CAN_ResetPeripheral, %function
 529              	CAN_ResetPeripheral:
 530              	.LFB202:
  80:../../lib/lpc11cx4-library/evt_lib/src/can.c **** 	if(LPC_CCAN->CANSTAT>>7&0x01) {
 531              		.loc 1 80 0
 532              		.cfi_startproc
 533              		@ args = 0, pretend = 0, frame = 0
 534              		@ frame_needed = 0, uses_anonymous_args = 0
 535              		@ link register save eliminated.
  81:../../lib/lpc11cx4-library/evt_lib/src/can.c ****     	Chip_SYSCTL_PeriphReset(RESET_CAN0);
 536              		.loc 1 81 0
 537 0000 074B     		ldr	r3, .L47	@ tmp119,
  85:../../lib/lpc11cx4-library/evt_lib/src/can.c **** }
 538              		.loc 1 85 0
 539 0002 0020     		movs	r0, #0	@ D.6980,
  81:../../lib/lpc11cx4-library/evt_lib/src/can.c ****     	Chip_SYSCTL_PeriphReset(RESET_CAN0);
 540              		.loc 1 81 0
 541 0004 5B68     		ldr	r3, [r3, #4]	@ D.6981, MEM[(struct LPC_CCAN_T *)1074069504B].CANSTAT
 542 0006 1B06     		lsls	r3, r3, #24	@ tmp130, D.6981,
 543 0008 08D5     		bpl	.L44	@,
 544              	.LVL34:
 545              	.LBB33:
 546              	.LBB34:
 547              	.LBB35:
 548              		.file 3 "../../lib/lpc11cx4-library/lpc_chip_11cxx_lib/inc/sysctl_11xx.h"
   1:../../lib/lpc11cx4-library/lpc_chip_11cxx_lib/inc/sysctl_11xx.h **** /*
   2:../../lib/lpc11cx4-library/lpc_chip_11cxx_lib/inc/sysctl_11xx.h ****  * @brief LPC11XX System Control registers and control functions
   3:../../lib/lpc11cx4-library/lpc_chip_11cxx_lib/inc/sysctl_11xx.h ****  *
   4:../../lib/lpc11cx4-library/lpc_chip_11cxx_lib/inc/sysctl_11xx.h ****  * @note
   5:../../lib/lpc11cx4-library/lpc_chip_11cxx_lib/inc/sysctl_11xx.h ****  * Copyright(C) NXP Semiconductors, 2012
   6:../../lib/lpc11cx4-library/lpc_chip_11cxx_lib/inc/sysctl_11xx.h ****  * All rights reserved.
   7:../../lib/lpc11cx4-library/lpc_chip_11cxx_lib/inc/sysctl_11xx.h ****  *
   8:../../lib/lpc11cx4-library/lpc_chip_11cxx_lib/inc/sysctl_11xx.h ****  * @par
   9:../../lib/lpc11cx4-library/lpc_chip_11cxx_lib/inc/sysctl_11xx.h ****  * Software that is described herein is for illustrative purposes only
  10:../../lib/lpc11cx4-library/lpc_chip_11cxx_lib/inc/sysctl_11xx.h ****  * which provides customers with programming information regarding the
  11:../../lib/lpc11cx4-library/lpc_chip_11cxx_lib/inc/sysctl_11xx.h ****  * LPC products.  This software is supplied "AS IS" without any warranties of
  12:../../lib/lpc11cx4-library/lpc_chip_11cxx_lib/inc/sysctl_11xx.h ****  * any kind, and NXP Semiconductors and its licensor disclaim any and
  13:../../lib/lpc11cx4-library/lpc_chip_11cxx_lib/inc/sysctl_11xx.h ****  * all warranties, express or implied, including all implied warranties of
  14:../../lib/lpc11cx4-library/lpc_chip_11cxx_lib/inc/sysctl_11xx.h ****  * merchantability, fitness for a particular purpose and non-infringement of
  15:../../lib/lpc11cx4-library/lpc_chip_11cxx_lib/inc/sysctl_11xx.h ****  * intellectual property rights.  NXP Semiconductors assumes no responsibility
  16:../../lib/lpc11cx4-library/lpc_chip_11cxx_lib/inc/sysctl_11xx.h ****  * or liability for the use of the software, conveys no license or rights under any
  17:../../lib/lpc11cx4-library/lpc_chip_11cxx_lib/inc/sysctl_11xx.h ****  * patent, copyright, mask work right, or any other intellectual property rights in
  18:../../lib/lpc11cx4-library/lpc_chip_11cxx_lib/inc/sysctl_11xx.h ****  * or to any products. NXP Semiconductors reserves the right to make changes
  19:../../lib/lpc11cx4-library/lpc_chip_11cxx_lib/inc/sysctl_11xx.h ****  * in the software without notification. NXP Semiconductors also makes no
  20:../../lib/lpc11cx4-library/lpc_chip_11cxx_lib/inc/sysctl_11xx.h ****  * representation or warranty that such application will be suitable for the
  21:../../lib/lpc11cx4-library/lpc_chip_11cxx_lib/inc/sysctl_11xx.h ****  * specified use without further testing or modification.
  22:../../lib/lpc11cx4-library/lpc_chip_11cxx_lib/inc/sysctl_11xx.h ****  *
  23:../../lib/lpc11cx4-library/lpc_chip_11cxx_lib/inc/sysctl_11xx.h ****  * @par
  24:../../lib/lpc11cx4-library/lpc_chip_11cxx_lib/inc/sysctl_11xx.h ****  * Permission to use, copy, modify, and distribute this software and its
  25:../../lib/lpc11cx4-library/lpc_chip_11cxx_lib/inc/sysctl_11xx.h ****  * documentation is hereby granted, under NXP Semiconductors' and its
  26:../../lib/lpc11cx4-library/lpc_chip_11cxx_lib/inc/sysctl_11xx.h ****  * licensor's relevant copyrights in the software, without fee, provided that it
  27:../../lib/lpc11cx4-library/lpc_chip_11cxx_lib/inc/sysctl_11xx.h ****  * is used in conjunction with NXP Semiconductors microcontrollers.  This
  28:../../lib/lpc11cx4-library/lpc_chip_11cxx_lib/inc/sysctl_11xx.h ****  * copyright, permission, and disclaimer notice must appear in all copies of
  29:../../lib/lpc11cx4-library/lpc_chip_11cxx_lib/inc/sysctl_11xx.h ****  * this code.
  30:../../lib/lpc11cx4-library/lpc_chip_11cxx_lib/inc/sysctl_11xx.h ****  */
  31:../../lib/lpc11cx4-library/lpc_chip_11cxx_lib/inc/sysctl_11xx.h **** 
  32:../../lib/lpc11cx4-library/lpc_chip_11cxx_lib/inc/sysctl_11xx.h **** #ifndef __SYSCTL_11XX_H_
ARM GAS  /var/folders/z0/6xlwn_996xz3mwq1cgzkbq4r0000gp/T//ccjakVr1.s 			page 20


  33:../../lib/lpc11cx4-library/lpc_chip_11cxx_lib/inc/sysctl_11xx.h **** #define __SYSCTL_11XX_H_
  34:../../lib/lpc11cx4-library/lpc_chip_11cxx_lib/inc/sysctl_11xx.h **** 
  35:../../lib/lpc11cx4-library/lpc_chip_11cxx_lib/inc/sysctl_11xx.h **** #ifdef __cplusplus
  36:../../lib/lpc11cx4-library/lpc_chip_11cxx_lib/inc/sysctl_11xx.h **** extern "C" {
  37:../../lib/lpc11cx4-library/lpc_chip_11cxx_lib/inc/sysctl_11xx.h **** #endif
  38:../../lib/lpc11cx4-library/lpc_chip_11cxx_lib/inc/sysctl_11xx.h **** 
  39:../../lib/lpc11cx4-library/lpc_chip_11cxx_lib/inc/sysctl_11xx.h **** /** @defgroup SYSCTL_11XX CHIP: LPC11xx System Control block driver
  40:../../lib/lpc11cx4-library/lpc_chip_11cxx_lib/inc/sysctl_11xx.h ****  * @ingroup CHIP_11XX_Drivers
  41:../../lib/lpc11cx4-library/lpc_chip_11cxx_lib/inc/sysctl_11xx.h ****  * @{
  42:../../lib/lpc11cx4-library/lpc_chip_11cxx_lib/inc/sysctl_11xx.h ****  */
  43:../../lib/lpc11cx4-library/lpc_chip_11cxx_lib/inc/sysctl_11xx.h **** 
  44:../../lib/lpc11cx4-library/lpc_chip_11cxx_lib/inc/sysctl_11xx.h **** /**
  45:../../lib/lpc11cx4-library/lpc_chip_11cxx_lib/inc/sysctl_11xx.h ****  * @brief LPC11XX System Control block structure
  46:../../lib/lpc11cx4-library/lpc_chip_11cxx_lib/inc/sysctl_11xx.h ****  */
  47:../../lib/lpc11cx4-library/lpc_chip_11cxx_lib/inc/sysctl_11xx.h **** typedef struct {			/*!< SYSCTL Structure */
  48:../../lib/lpc11cx4-library/lpc_chip_11cxx_lib/inc/sysctl_11xx.h **** 	__IO uint32_t  SYSMEMREMAP;		/*!< System Memory remap register */
  49:../../lib/lpc11cx4-library/lpc_chip_11cxx_lib/inc/sysctl_11xx.h **** 	__IO uint32_t  PRESETCTRL;		/*!< Peripheral reset Control register */
  50:../../lib/lpc11cx4-library/lpc_chip_11cxx_lib/inc/sysctl_11xx.h **** 	__IO uint32_t  SYSPLLCTRL;		/*!< System PLL control register */
  51:../../lib/lpc11cx4-library/lpc_chip_11cxx_lib/inc/sysctl_11xx.h **** 	__I  uint32_t  SYSPLLSTAT;		/*!< System PLL status register */
  52:../../lib/lpc11cx4-library/lpc_chip_11cxx_lib/inc/sysctl_11xx.h **** 	__IO uint32_t  USBPLLCTRL;		/*!< USB PLL control register, LPC11UXX only*/
  53:../../lib/lpc11cx4-library/lpc_chip_11cxx_lib/inc/sysctl_11xx.h **** 	__I  uint32_t  USBPLLSTAT;		/*!< USB PLL status register, LPC11UXX only */
  54:../../lib/lpc11cx4-library/lpc_chip_11cxx_lib/inc/sysctl_11xx.h **** 	__I  uint32_t  RESERVED1[2];
  55:../../lib/lpc11cx4-library/lpc_chip_11cxx_lib/inc/sysctl_11xx.h **** 	__IO uint32_t  SYSOSCCTRL;		/*!< System Oscillator control register */
  56:../../lib/lpc11cx4-library/lpc_chip_11cxx_lib/inc/sysctl_11xx.h **** 	__IO uint32_t  WDTOSCCTRL;		/*!< Watchdog Oscillator control register */
  57:../../lib/lpc11cx4-library/lpc_chip_11cxx_lib/inc/sysctl_11xx.h **** 	__IO uint32_t  IRCCTRL;			/*!< IRC control register, not on LPC11UXX and LPC11EXX */
  58:../../lib/lpc11cx4-library/lpc_chip_11cxx_lib/inc/sysctl_11xx.h **** 	__IO uint32_t  LFOSCCTRL;		/*!< LF oscillator control, LPC11AXX only */
  59:../../lib/lpc11cx4-library/lpc_chip_11cxx_lib/inc/sysctl_11xx.h **** 	__IO uint32_t  SYSRSTSTAT;		/*!< System Reset Status register           */
  60:../../lib/lpc11cx4-library/lpc_chip_11cxx_lib/inc/sysctl_11xx.h **** 	__I  uint32_t  RESERVED2[3];
  61:../../lib/lpc11cx4-library/lpc_chip_11cxx_lib/inc/sysctl_11xx.h **** 	__IO uint32_t  SYSPLLCLKSEL;	/*!< System PLL clock source select register */
  62:../../lib/lpc11cx4-library/lpc_chip_11cxx_lib/inc/sysctl_11xx.h **** 	__IO uint32_t  SYSPLLCLKUEN;	/*!< System PLL clock source update enable register*/
  63:../../lib/lpc11cx4-library/lpc_chip_11cxx_lib/inc/sysctl_11xx.h **** 	__IO uint32_t  USBPLLCLKSEL;	/*!< USB PLL clock source select register, LPC11UXX only */
  64:../../lib/lpc11cx4-library/lpc_chip_11cxx_lib/inc/sysctl_11xx.h **** 	__IO uint32_t  USBPLLCLKUEN;	/*!< USB PLL clock source update enable register, LPC11UXX only */
  65:../../lib/lpc11cx4-library/lpc_chip_11cxx_lib/inc/sysctl_11xx.h **** 	__I  uint32_t  RESERVED3[8];
  66:../../lib/lpc11cx4-library/lpc_chip_11cxx_lib/inc/sysctl_11xx.h **** 	__IO uint32_t  MAINCLKSEL;	/*!< Main clock source select register		*/
  67:../../lib/lpc11cx4-library/lpc_chip_11cxx_lib/inc/sysctl_11xx.h **** 	__IO uint32_t  MAINCLKUEN;	/*!< Main clock source update enable register	*/
  68:../../lib/lpc11cx4-library/lpc_chip_11cxx_lib/inc/sysctl_11xx.h **** 	__IO uint32_t  SYSAHBCLKDIV;	/*!< System Clock divider register */
  69:../../lib/lpc11cx4-library/lpc_chip_11cxx_lib/inc/sysctl_11xx.h **** 	__I  uint32_t  RESERVED4;
  70:../../lib/lpc11cx4-library/lpc_chip_11cxx_lib/inc/sysctl_11xx.h **** 	__IO uint32_t  SYSAHBCLKCTRL;	/*!< System clock control register */
  71:../../lib/lpc11cx4-library/lpc_chip_11cxx_lib/inc/sysctl_11xx.h **** 	__I  uint32_t  RESERVED5[4];
  72:../../lib/lpc11cx4-library/lpc_chip_11cxx_lib/inc/sysctl_11xx.h **** 	__IO uint32_t  SSP0CLKDIV;	/*!< SSP0 clock divider register   */
  73:../../lib/lpc11cx4-library/lpc_chip_11cxx_lib/inc/sysctl_11xx.h **** 	__IO uint32_t  USARTCLKDIV;	/*!< UART clock divider register   */
  74:../../lib/lpc11cx4-library/lpc_chip_11cxx_lib/inc/sysctl_11xx.h **** 	__IO uint32_t  SSP1CLKDIV;	/*!< SSP1 clock divider register, not on CHIP_LPC110X, CHIP_LPC11XXLV *
  75:../../lib/lpc11cx4-library/lpc_chip_11cxx_lib/inc/sysctl_11xx.h **** 	__I  uint32_t  RESERVED6[8];
  76:../../lib/lpc11cx4-library/lpc_chip_11cxx_lib/inc/sysctl_11xx.h **** 	__IO uint32_t  USBCLKSEL;	/*!< USB clock source select register, LPC11UXX only */
  77:../../lib/lpc11cx4-library/lpc_chip_11cxx_lib/inc/sysctl_11xx.h **** 	__IO uint32_t  USBCLKUEN;	/*!< USB clock source update enable register, LPC11UXX only */
  78:../../lib/lpc11cx4-library/lpc_chip_11cxx_lib/inc/sysctl_11xx.h **** 	__IO uint32_t  USBCLKDIV;	/*!< USB clock source divider register, LPC11UXX only */
  79:../../lib/lpc11cx4-library/lpc_chip_11cxx_lib/inc/sysctl_11xx.h **** 	__I  uint32_t  RESERVED7;
  80:../../lib/lpc11cx4-library/lpc_chip_11cxx_lib/inc/sysctl_11xx.h **** 	__IO uint32_t  WDTCLKSEL;	/*!< WDT clock source select register, some parts only */
  81:../../lib/lpc11cx4-library/lpc_chip_11cxx_lib/inc/sysctl_11xx.h **** 	__IO uint32_t  WDTCLKUEN;	/*!< WDT clock source update enable register, some parts only */
  82:../../lib/lpc11cx4-library/lpc_chip_11cxx_lib/inc/sysctl_11xx.h **** 	__IO uint32_t  WDTCLKDIV;	/*!< WDT clock divider register, some parts only */
  83:../../lib/lpc11cx4-library/lpc_chip_11cxx_lib/inc/sysctl_11xx.h **** 	__I  uint32_t  RESERVED8;
  84:../../lib/lpc11cx4-library/lpc_chip_11cxx_lib/inc/sysctl_11xx.h **** 	__IO uint32_t  CLKOUTSEL;	/*!< Clock out source select register, not on LPC1102/04 */
  85:../../lib/lpc11cx4-library/lpc_chip_11cxx_lib/inc/sysctl_11xx.h **** 	__IO uint32_t  CLKOUTUEN;	/*!< Clock out source update enable register, not on LPC1102/04 */
  86:../../lib/lpc11cx4-library/lpc_chip_11cxx_lib/inc/sysctl_11xx.h **** 	__IO uint32_t  CLKOUTDIV;	/*!< Clock out divider register, not on LPC1102/04 */
  87:../../lib/lpc11cx4-library/lpc_chip_11cxx_lib/inc/sysctl_11xx.h **** 	__I  uint32_t  RESERVED9[5];
  88:../../lib/lpc11cx4-library/lpc_chip_11cxx_lib/inc/sysctl_11xx.h **** 	__I  uint32_t  PIOPORCAP[2];/*!< POR captured PIO status registers, index 1 on LPC1102/04 */
  89:../../lib/lpc11cx4-library/lpc_chip_11cxx_lib/inc/sysctl_11xx.h **** 	__I  uint32_t  RESERVED10[18];
ARM GAS  /var/folders/z0/6xlwn_996xz3mwq1cgzkbq4r0000gp/T//ccjakVr1.s 			page 21


  90:../../lib/lpc11cx4-library/lpc_chip_11cxx_lib/inc/sysctl_11xx.h **** 	__IO uint32_t  BODCTRL;		/*!< Brown Out Detect register */
  91:../../lib/lpc11cx4-library/lpc_chip_11cxx_lib/inc/sysctl_11xx.h **** 	__IO uint32_t  SYSTCKCAL;	/*!< System tick counter calibration register */
  92:../../lib/lpc11cx4-library/lpc_chip_11cxx_lib/inc/sysctl_11xx.h **** 	__I  uint32_t  RESERVED11[6];
  93:../../lib/lpc11cx4-library/lpc_chip_11cxx_lib/inc/sysctl_11xx.h **** 	__IO uint32_t  IRQLATENCY;	/*!< IRQ delay register, on LPC11UXX and LPC11EXX only */
  94:../../lib/lpc11cx4-library/lpc_chip_11cxx_lib/inc/sysctl_11xx.h **** 	__IO uint32_t  NMISRC;		/*!< NMI source control register,some parts only */
  95:../../lib/lpc11cx4-library/lpc_chip_11cxx_lib/inc/sysctl_11xx.h **** 	__IO uint32_t  PINTSEL[8];	/*!< GPIO pin interrupt select register 0-7, not on CHIP_LPC110X, CHIP_
  96:../../lib/lpc11cx4-library/lpc_chip_11cxx_lib/inc/sysctl_11xx.h **** 	__IO uint32_t  USBCLKCTRL;	/*!< USB clock control register, LPC11UXX only */
  97:../../lib/lpc11cx4-library/lpc_chip_11cxx_lib/inc/sysctl_11xx.h **** 	__I  uint32_t  USBCLKST;	/*!< USB clock status register, LPC11UXX only */
  98:../../lib/lpc11cx4-library/lpc_chip_11cxx_lib/inc/sysctl_11xx.h **** 	__I  uint32_t  RESERVED12[24];
  99:../../lib/lpc11cx4-library/lpc_chip_11cxx_lib/inc/sysctl_11xx.h **** 	__IO uint32_t  STARTAPRP0;	/*!< Start loigc 0 interrupt wake up enable register 0, on CHIP_LPC110X
 100:../../lib/lpc11cx4-library/lpc_chip_11cxx_lib/inc/sysctl_11xx.h **** 	__IO uint32_t  STARTERP0;	/*!< Start loigc signal enable register 0, not on LPC11AXX */
 101:../../lib/lpc11cx4-library/lpc_chip_11cxx_lib/inc/sysctl_11xx.h **** 	__IO uint32_t  STARTRSRP0CLR;	/*!< Start loigc reset register 0, on CHIP_LPC110X, CHIP_LPC11XXLV, 
 102:../../lib/lpc11cx4-library/lpc_chip_11cxx_lib/inc/sysctl_11xx.h **** 	__IO uint32_t  STARTSRP0;		/*!< Start loigc status register 0, on CHIP_LPC110X, CHIP_LPC11XXLV, CH
 103:../../lib/lpc11cx4-library/lpc_chip_11cxx_lib/inc/sysctl_11xx.h **** 	__I  uint32_t  RESERVED13;
 104:../../lib/lpc11cx4-library/lpc_chip_11cxx_lib/inc/sysctl_11xx.h **** 	__IO uint32_t  STARTERP1;	/*!< Start logic 1 interrupt wake up enable register 1, on LPC11UXX and 
 105:../../lib/lpc11cx4-library/lpc_chip_11cxx_lib/inc/sysctl_11xx.h **** 	__I  uint32_t  RESERVED14[6];
 106:../../lib/lpc11cx4-library/lpc_chip_11cxx_lib/inc/sysctl_11xx.h **** 	__IO uint32_t  PDSLEEPCFG;	/*!< Power down states in deep sleep mode register, not on LPC11AXX */
 107:../../lib/lpc11cx4-library/lpc_chip_11cxx_lib/inc/sysctl_11xx.h **** 	__IO uint32_t  PDWAKECFG;	/*!< Power down states in wake up from deep sleep register, not on LPC11
 108:../../lib/lpc11cx4-library/lpc_chip_11cxx_lib/inc/sysctl_11xx.h **** 	__IO uint32_t  PDRUNCFG;	/*!< Power configuration register*/
 109:../../lib/lpc11cx4-library/lpc_chip_11cxx_lib/inc/sysctl_11xx.h **** 	__I  uint32_t  RESERVED15[110];
 110:../../lib/lpc11cx4-library/lpc_chip_11cxx_lib/inc/sysctl_11xx.h **** 	__I  uint32_t  DEVICEID;	/*!< Device ID register */
 111:../../lib/lpc11cx4-library/lpc_chip_11cxx_lib/inc/sysctl_11xx.h **** } LPC_SYSCTL_T;
 112:../../lib/lpc11cx4-library/lpc_chip_11cxx_lib/inc/sysctl_11xx.h **** 
 113:../../lib/lpc11cx4-library/lpc_chip_11cxx_lib/inc/sysctl_11xx.h **** /**
 114:../../lib/lpc11cx4-library/lpc_chip_11cxx_lib/inc/sysctl_11xx.h ****  * System memory remap modes used to remap interrupt vectors
 115:../../lib/lpc11cx4-library/lpc_chip_11cxx_lib/inc/sysctl_11xx.h ****  */
 116:../../lib/lpc11cx4-library/lpc_chip_11cxx_lib/inc/sysctl_11xx.h **** typedef enum CHIP_SYSCTL_BOOT_MODE_REMAP {
 117:../../lib/lpc11cx4-library/lpc_chip_11cxx_lib/inc/sysctl_11xx.h **** 	REMAP_BOOT_LOADER_MODE,	/*!< Interrupt vectors are re-mapped to Boot ROM */
 118:../../lib/lpc11cx4-library/lpc_chip_11cxx_lib/inc/sysctl_11xx.h **** 	REMAP_USER_RAM_MODE,	/*!< Interrupt vectors are re-mapped to Static RAM */
 119:../../lib/lpc11cx4-library/lpc_chip_11cxx_lib/inc/sysctl_11xx.h **** 	REMAP_USER_FLASH_MODE	/*!< Interrupt vectors are not re-mapped and reside in Flash */
 120:../../lib/lpc11cx4-library/lpc_chip_11cxx_lib/inc/sysctl_11xx.h **** } CHIP_SYSCTL_BOOT_MODE_REMAP_T;
 121:../../lib/lpc11cx4-library/lpc_chip_11cxx_lib/inc/sysctl_11xx.h **** 
 122:../../lib/lpc11cx4-library/lpc_chip_11cxx_lib/inc/sysctl_11xx.h **** /**
 123:../../lib/lpc11cx4-library/lpc_chip_11cxx_lib/inc/sysctl_11xx.h ****  * @brief	Re-map interrupt vectors
 124:../../lib/lpc11cx4-library/lpc_chip_11cxx_lib/inc/sysctl_11xx.h ****  * @param	remap	: system memory map value
 125:../../lib/lpc11cx4-library/lpc_chip_11cxx_lib/inc/sysctl_11xx.h ****  * @return	Nothing
 126:../../lib/lpc11cx4-library/lpc_chip_11cxx_lib/inc/sysctl_11xx.h ****  */
 127:../../lib/lpc11cx4-library/lpc_chip_11cxx_lib/inc/sysctl_11xx.h **** STATIC INLINE void Chip_SYSCTL_Map(CHIP_SYSCTL_BOOT_MODE_REMAP_T remap)
 128:../../lib/lpc11cx4-library/lpc_chip_11cxx_lib/inc/sysctl_11xx.h **** {
 129:../../lib/lpc11cx4-library/lpc_chip_11cxx_lib/inc/sysctl_11xx.h **** 	LPC_SYSCTL->SYSMEMREMAP = (uint32_t) remap;
 130:../../lib/lpc11cx4-library/lpc_chip_11cxx_lib/inc/sysctl_11xx.h **** }
 131:../../lib/lpc11cx4-library/lpc_chip_11cxx_lib/inc/sysctl_11xx.h **** 
 132:../../lib/lpc11cx4-library/lpc_chip_11cxx_lib/inc/sysctl_11xx.h **** /**
 133:../../lib/lpc11cx4-library/lpc_chip_11cxx_lib/inc/sysctl_11xx.h ****  * Peripheral reset identifiers, not available on all devices
 134:../../lib/lpc11cx4-library/lpc_chip_11cxx_lib/inc/sysctl_11xx.h ****  */
 135:../../lib/lpc11cx4-library/lpc_chip_11cxx_lib/inc/sysctl_11xx.h **** typedef enum {
 136:../../lib/lpc11cx4-library/lpc_chip_11cxx_lib/inc/sysctl_11xx.h **** 	RESET_SSP0,			/*!< SSP0 reset control */
 137:../../lib/lpc11cx4-library/lpc_chip_11cxx_lib/inc/sysctl_11xx.h **** 	RESET_I2C0,			/*!< I2C0 reset control */
 138:../../lib/lpc11cx4-library/lpc_chip_11cxx_lib/inc/sysctl_11xx.h **** 	RESET_SSP1,			/*!< SSP1 reset control */
 139:../../lib/lpc11cx4-library/lpc_chip_11cxx_lib/inc/sysctl_11xx.h **** #if !defined(CHIP_LPC1125)
 140:../../lib/lpc11cx4-library/lpc_chip_11cxx_lib/inc/sysctl_11xx.h **** 	RESET_CAN0,			/*!< CAN0 reset control */
 141:../../lib/lpc11cx4-library/lpc_chip_11cxx_lib/inc/sysctl_11xx.h **** 	RESET_UART0,		/*!< UART0 reset control */
 142:../../lib/lpc11cx4-library/lpc_chip_11cxx_lib/inc/sysctl_11xx.h **** 	RESET_TIMER0_16,	/*!< 16-bit Timer 0 reset control */
 143:../../lib/lpc11cx4-library/lpc_chip_11cxx_lib/inc/sysctl_11xx.h **** 	RESET_TIMER1_16,	/*!< 16-bit Timer 1 reset control */
 144:../../lib/lpc11cx4-library/lpc_chip_11cxx_lib/inc/sysctl_11xx.h **** 	RESET_TIMER0_32,	/*!< 32-bit Timer 0 reset control */
 145:../../lib/lpc11cx4-library/lpc_chip_11cxx_lib/inc/sysctl_11xx.h **** 	RESET_TIMER1_32,	/*!< 32-bit Timer 1 reset control */
 146:../../lib/lpc11cx4-library/lpc_chip_11cxx_lib/inc/sysctl_11xx.h **** 	RESET_ACMP,			/*!< Analog comparator reset control */
ARM GAS  /var/folders/z0/6xlwn_996xz3mwq1cgzkbq4r0000gp/T//ccjakVr1.s 			page 22


 147:../../lib/lpc11cx4-library/lpc_chip_11cxx_lib/inc/sysctl_11xx.h **** 	RESET_DAC0,			/*!< DAC reset control */
 148:../../lib/lpc11cx4-library/lpc_chip_11cxx_lib/inc/sysctl_11xx.h **** 	RESET_ADC0			/*!< ADC reset control */
 149:../../lib/lpc11cx4-library/lpc_chip_11cxx_lib/inc/sysctl_11xx.h **** #endif
 150:../../lib/lpc11cx4-library/lpc_chip_11cxx_lib/inc/sysctl_11xx.h **** } CHIP_SYSCTL_PERIPH_RESET_T;
 151:../../lib/lpc11cx4-library/lpc_chip_11cxx_lib/inc/sysctl_11xx.h **** 
 152:../../lib/lpc11cx4-library/lpc_chip_11cxx_lib/inc/sysctl_11xx.h **** /**
 153:../../lib/lpc11cx4-library/lpc_chip_11cxx_lib/inc/sysctl_11xx.h ****  * @brief	Assert reset for a peripheral
 154:../../lib/lpc11cx4-library/lpc_chip_11cxx_lib/inc/sysctl_11xx.h ****  * @param	periph	: Peripheral to assert reset for
 155:../../lib/lpc11cx4-library/lpc_chip_11cxx_lib/inc/sysctl_11xx.h ****  * @return	Nothing
 156:../../lib/lpc11cx4-library/lpc_chip_11cxx_lib/inc/sysctl_11xx.h ****  * @note	The peripheral will stay in reset until reset is de-asserted. Call
 157:../../lib/lpc11cx4-library/lpc_chip_11cxx_lib/inc/sysctl_11xx.h ****  * Chip_SYSCTL_DeassertPeriphReset() to de-assert the reset.
 158:../../lib/lpc11cx4-library/lpc_chip_11cxx_lib/inc/sysctl_11xx.h ****  */
 159:../../lib/lpc11cx4-library/lpc_chip_11cxx_lib/inc/sysctl_11xx.h **** STATIC INLINE void Chip_SYSCTL_AssertPeriphReset(CHIP_SYSCTL_PERIPH_RESET_T periph)
 160:../../lib/lpc11cx4-library/lpc_chip_11cxx_lib/inc/sysctl_11xx.h **** {
 161:../../lib/lpc11cx4-library/lpc_chip_11cxx_lib/inc/sysctl_11xx.h **** 	LPC_SYSCTL->PRESETCTRL &= ~(1 << (uint32_t) periph);
 549              		.loc 3 161 0
 550 000a 0822     		movs	r2, #8	@ tmp124,
 551 000c 054B     		ldr	r3, .L47+4	@ tmp123,
 552              	.LBE35:
 553              	.LBE34:
 554              	.LBE33:
  83:../../lib/lpc11cx4-library/evt_lib/src/can.c ****     }
 555              		.loc 1 83 0
 556 000e 0130     		adds	r0, r0, #1	@ D.6980,
 557              	.LBB40:
 558              	.LBB37:
 559              	.LBB36:
 560              		.loc 3 161 0
 561 0010 5968     		ldr	r1, [r3, #4]	@ D.6981, MEM[(struct LPC_SYSCTL_T *)1074036736B].PRESETCTRL
 562 0012 9143     		bics	r1, r2	@ D.6981, tmp124
 563 0014 5960     		str	r1, [r3, #4]	@ D.6981, MEM[(struct LPC_SYSCTL_T *)1074036736B].PRESETCTRL
 564              	.LVL35:
 565              	.LBE36:
 566              	.LBE37:
 567              	.LBB38:
 568              	.LBB39:
 162:../../lib/lpc11cx4-library/lpc_chip_11cxx_lib/inc/sysctl_11xx.h **** }
 163:../../lib/lpc11cx4-library/lpc_chip_11cxx_lib/inc/sysctl_11xx.h **** 
 164:../../lib/lpc11cx4-library/lpc_chip_11cxx_lib/inc/sysctl_11xx.h **** /**
 165:../../lib/lpc11cx4-library/lpc_chip_11cxx_lib/inc/sysctl_11xx.h ****  * @brief	De-assert reset for a peripheral
 166:../../lib/lpc11cx4-library/lpc_chip_11cxx_lib/inc/sysctl_11xx.h ****  * @param	periph	: Peripheral to de-assert reset for
 167:../../lib/lpc11cx4-library/lpc_chip_11cxx_lib/inc/sysctl_11xx.h ****  * @return	Nothing
 168:../../lib/lpc11cx4-library/lpc_chip_11cxx_lib/inc/sysctl_11xx.h ****  */
 169:../../lib/lpc11cx4-library/lpc_chip_11cxx_lib/inc/sysctl_11xx.h **** STATIC INLINE void Chip_SYSCTL_DeassertPeriphReset(CHIP_SYSCTL_PERIPH_RESET_T periph)
 170:../../lib/lpc11cx4-library/lpc_chip_11cxx_lib/inc/sysctl_11xx.h **** {
 171:../../lib/lpc11cx4-library/lpc_chip_11cxx_lib/inc/sysctl_11xx.h **** 	LPC_SYSCTL->PRESETCTRL |= (1 << (uint32_t) periph);
 569              		.loc 3 171 0
 570 0016 5968     		ldr	r1, [r3, #4]	@ D.6981, MEM[(struct LPC_SYSCTL_T *)1074036736B].PRESETCTRL
 571 0018 0A43     		orrs	r2, r1	@ D.6981, D.6981
 572 001a 5A60     		str	r2, [r3, #4]	@ D.6981, MEM[(struct LPC_SYSCTL_T *)1074036736B].PRESETCTRL
 573              	.LVL36:
 574              	.L44:
 575              	.LBE39:
 576              	.LBE38:
 577              	.LBE40:
  86:../../lib/lpc11cx4-library/evt_lib/src/can.c **** 
 578              		.loc 1 86 0
ARM GAS  /var/folders/z0/6xlwn_996xz3mwq1cgzkbq4r0000gp/T//ccjakVr1.s 			page 23


 579              		@ sp needed	@
 580 001c 7047     		bx	lr
 581              	.L48:
 582 001e C046     		.align	2
 583              	.L47:
 584 0020 00000540 		.word	1074069504
 585 0024 00800440 		.word	1074036736
 586              		.cfi_endproc
 587              	.LFE202:
 588              		.size	CAN_ResetPeripheral, .-CAN_ResetPeripheral
 589              		.section	.text.Convert_To_CAN_Error,"ax",%progbits
 590              		.align	2
 591              		.global	Convert_To_CAN_Error
 592              		.code	16
 593              		.thumb_func
 594              		.type	Convert_To_CAN_Error, %function
 595              	Convert_To_CAN_Error:
 596              	.LFB203:
  88:../../lib/lpc11cx4-library/evt_lib/src/can.c **** 	if (!can_error) return NO_CAN_ERROR;
 597              		.loc 1 88 0
 598              		.cfi_startproc
 599              		@ args = 0, pretend = 0, frame = 0
 600              		@ frame_needed = 0, uses_anonymous_args = 0
 601              		@ link register save eliminated.
 602              	.LVL37:
  88:../../lib/lpc11cx4-library/evt_lib/src/can.c **** 	if (!can_error) return NO_CAN_ERROR;
 603              		.loc 1 88 0
 604 0000 0200     		movs	r2, r0	@ can_error, can_error
  89:../../lib/lpc11cx4-library/evt_lib/src/can.c ****     switch(can_error & 0x6) {
 605              		.loc 1 89 0
 606 0002 0020     		movs	r0, #0	@ D.6991,
 607              	.LVL38:
 608 0004 002A     		cmp	r2, #0	@ can_error,
 609 0006 0FD0     		beq	.L50	@,
  90:../../lib/lpc11cx4-library/evt_lib/src/can.c ****        case 0x1: return STUF_CAN_ERROR;
 610              		.loc 1 90 0
 611 0008 0623     		movs	r3, #6	@ tmp114,
 612 000a 0F49     		ldr	r1, .L63	@ tmp118,
 613 000c 1340     		ands	r3, r2	@ D.6992, can_error
 614 000e 9B00     		lsls	r3, r3, #2	@ tmp116, D.6992,
 615 0010 CB58     		ldr	r3, [r1, r3]	@ tmp119,
 616 0012 9F46     		mov	pc, r3	@ tmp119
 617              		.section	.rodata.Convert_To_CAN_Error,"a",%progbits
 618              		.align	2
 619              	.L52:
 620 0000 14000000 		.word	.L51
 621 0004 2A000000 		.word	.L59
 622 0008 2E000000 		.word	.L53
 623 000c 32000000 		.word	.L54
 624 0010 36000000 		.word	.L55
 625 0014 3A000000 		.word	.L56
 626 0018 3E000000 		.word	.L57
 627              		.section	.text.Convert_To_CAN_Error
 628              	.L51:
 629              	.LVL39:
 630              	.LBB43:
 631              	.LBB44:
ARM GAS  /var/folders/z0/6xlwn_996xz3mwq1cgzkbq4r0000gp/T//ccjakVr1.s 			page 24


  99:../../lib/lpc11cx4-library/evt_lib/src/can.c ****     if (can_error == 0x800) return RX_BUFFER_FULL_CAN_ERROR;
 632              		.loc 1 99 0
 633 0014 8023     		movs	r3, #128	@ tmp120,
 634 0016 0C20     		movs	r0, #12	@ D.6991,
 635 0018 DB00     		lsls	r3, r3, #3	@ tmp120, tmp120,
 636 001a 9A42     		cmp	r2, r3	@ can_error, tmp120
 637 001c 04D0     		beq	.L50	@,
 100:../../lib/lpc11cx4-library/evt_lib/src/can.c ****     return UNRECOGNIZED_ERROR_CODE;
 638              		.loc 1 100 0
 639 001e 8023     		movs	r3, #128	@ tmp121,
 640 0020 1B01     		lsls	r3, r3, #4	@ tmp121, tmp121,
 641 0022 9A42     		cmp	r2, r3	@ can_error, tmp121
 642 0024 0DD0     		beq	.L61	@,
 101:../../lib/lpc11cx4-library/evt_lib/src/can.c **** }
 643              		.loc 1 101 0
 644 0026 0130     		adds	r0, r0, #1	@ D.6991,
 645              	.LVL40:
 646              	.L50:
 647              	.LBE44:
 648              	.LBE43:
 102:../../lib/lpc11cx4-library/evt_lib/src/can.c **** 
 649              		.loc 1 102 0
 650              		@ sp needed	@
 651 0028 7047     		bx	lr
 652              	.L59:
  91:../../lib/lpc11cx4-library/evt_lib/src/can.c ****        case 0x2: return FORM_CAN_ERROR;
 653              		.loc 1 91 0
 654 002a 0520     		movs	r0, #5	@ D.6991,
 655 002c FCE7     		b	.L50	@
 656              	.L53:
  92:../../lib/lpc11cx4-library/evt_lib/src/can.c ****        case 0x3: return ACK_CAN_ERROR;
 657              		.loc 1 92 0
 658 002e 0620     		movs	r0, #6	@ D.6991,
 659 0030 FAE7     		b	.L50	@
 660              	.L54:
  93:../../lib/lpc11cx4-library/evt_lib/src/can.c ****        case 0x4: return BIT1_CAN_ERROR;
 661              		.loc 1 93 0
 662 0032 0720     		movs	r0, #7	@ D.6991,
 663 0034 F8E7     		b	.L50	@
 664              	.L55:
  94:../../lib/lpc11cx4-library/evt_lib/src/can.c ****        case 0x5: return BIT0_CAN_ERROR;
 665              		.loc 1 94 0
 666 0036 0820     		movs	r0, #8	@ D.6991,
 667 0038 F6E7     		b	.L50	@
 668              	.L56:
  95:../../lib/lpc11cx4-library/evt_lib/src/can.c ****        case 0x6: return CRC_CAN_ERROR;
 669              		.loc 1 95 0
 670 003a 0920     		movs	r0, #9	@ D.6991,
 671 003c F4E7     		b	.L50	@
 672              	.L57:
  96:../../lib/lpc11cx4-library/evt_lib/src/can.c ****        case 0x7: return UNUSED_CAN_ERROR;
 673              		.loc 1 96 0
 674 003e 0A20     		movs	r0, #10	@ D.6991,
 675 0040 F2E7     		b	.L50	@
 676              	.LVL41:
 677              	.L61:
 678              	.LBB46:
ARM GAS  /var/folders/z0/6xlwn_996xz3mwq1cgzkbq4r0000gp/T//ccjakVr1.s 			page 25


 679              	.LBB45:
 100:../../lib/lpc11cx4-library/evt_lib/src/can.c ****     return UNRECOGNIZED_ERROR_CODE;
 680              		.loc 1 100 0
 681 0042 0F20     		movs	r0, #15	@ D.6991,
 682 0044 F0E7     		b	.L50	@
 683              	.L64:
 684 0046 C046     		.align	2
 685              	.L63:
 686 0048 00000000 		.word	.L52
 687              	.LBE45:
 688              	.LBE46:
 689              		.cfi_endproc
 690              	.LFE203:
 691              		.size	Convert_To_CAN_Error, .-Convert_To_CAN_Error
 692              		.section	.text.CAN_IRQHandler,"ax",%progbits
 693              		.align	2
 694              		.global	CAN_IRQHandler
 695              		.code	16
 696              		.thumb_func
 697              		.type	CAN_IRQHandler, %function
 698              	CAN_IRQHandler:
 699              	.LFB207:
 141:../../lib/lpc11cx4-library/evt_lib/src/can.c **** 
 142:../../lib/lpc11cx4-library/evt_lib/src/can.c **** /**
 143:../../lib/lpc11cx4-library/evt_lib/src/can.c ****  * @brief	CCAN Interrupt Handler
 144:../../lib/lpc11cx4-library/evt_lib/src/can.c ****  * @return	Nothing
 145:../../lib/lpc11cx4-library/evt_lib/src/can.c ****  * @note	The CCAN interrupt handler must be provided by the user application.
 146:../../lib/lpc11cx4-library/evt_lib/src/can.c ****  *	It's function is to call the isr() API located in the ROM
 147:../../lib/lpc11cx4-library/evt_lib/src/can.c ****  */
 148:../../lib/lpc11cx4-library/evt_lib/src/can.c **** void CAN_IRQHandler(void) {
 700              		.loc 1 148 0
 701              		.cfi_startproc
 702              		@ args = 0, pretend = 0, frame = 0
 703              		@ frame_needed = 0, uses_anonymous_args = 0
 149:../../lib/lpc11cx4-library/evt_lib/src/can.c **** 	LPC_CCAN_API->isr();
 704              		.loc 1 149 0
 705 0000 034B     		ldr	r3, .L66	@ tmp114,
 148:../../lib/lpc11cx4-library/evt_lib/src/can.c **** 	LPC_CCAN_API->isr();
 706              		.loc 1 148 0
 707 0002 10B5     		push	{r4, lr}	@
 708              		.cfi_def_cfa_offset 8
 709              		.cfi_offset 4, -8
 710              		.cfi_offset 14, -4
 711              		.loc 1 149 0
 712 0004 1B68     		ldr	r3, [r3]	@ MEM[(struct LPC_ROM_API_T * *)536813560B], MEM[(struct LPC_ROM_API_T * *)536813560B
 150:../../lib/lpc11cx4-library/evt_lib/src/can.c **** }
 713              		.loc 1 150 0
 714              		@ sp needed	@
 149:../../lib/lpc11cx4-library/evt_lib/src/can.c **** 	LPC_CCAN_API->isr();
 715              		.loc 1 149 0
 716 0006 9B68     		ldr	r3, [r3, #8]	@ _2->candApiBase, _2->candApiBase
 717 0008 5B68     		ldr	r3, [r3, #4]	@ _4->isr, _4->isr
 718 000a 9847     		blx	r3	@ _4->isr
 719              	.LVL42:
 720              		.loc 1 150 0
 721 000c 10BD     		pop	{r4, pc}
 722              	.L67:
ARM GAS  /var/folders/z0/6xlwn_996xz3mwq1cgzkbq4r0000gp/T//ccjakVr1.s 			page 26


 723 000e C046     		.align	2
 724              	.L66:
 725 0010 F81FFF1F 		.word	536813560
 726              		.cfi_endproc
 727              	.LFE207:
 728              		.size	CAN_IRQHandler, .-CAN_IRQHandler
 729              		.section	.text.CAN_SetMask1,"ax",%progbits
 730              		.align	2
 731              		.global	CAN_SetMask1
 732              		.code	16
 733              		.thumb_func
 734              		.type	CAN_SetMask1, %function
 735              	CAN_SetMask1:
 736              	.LFB209:
 151:../../lib/lpc11cx4-library/evt_lib/src/can.c **** 
 152:../../lib/lpc11cx4-library/evt_lib/src/can.c **** void CAN_Init(uint32_t baud_rate) {
 153:../../lib/lpc11cx4-library/evt_lib/src/can.c **** 
 154:../../lib/lpc11cx4-library/evt_lib/src/can.c **** 	RingBuffer_Init(&rx_buffer, _rx_buffer, sizeof(CCAN_MSG_OBJ_T), CAN_BUF_SIZE);
 155:../../lib/lpc11cx4-library/evt_lib/src/can.c **** 	RingBuffer_Flush(&rx_buffer);
 156:../../lib/lpc11cx4-library/evt_lib/src/can.c **** 
 157:../../lib/lpc11cx4-library/evt_lib/src/can.c **** 	RingBuffer_Init(&tx_buffer, _tx_buffer, sizeof(CCAN_MSG_OBJ_T), CAN_BUF_SIZE);
 158:../../lib/lpc11cx4-library/evt_lib/src/can.c **** 	RingBuffer_Flush(&tx_buffer);
 159:../../lib/lpc11cx4-library/evt_lib/src/can.c **** 
 160:../../lib/lpc11cx4-library/evt_lib/src/can.c **** 	uint32_t CanApiClkInitTable[2];
 161:../../lib/lpc11cx4-library/evt_lib/src/can.c **** 	CCAN_CALLBACKS_T callbacks = {
 162:../../lib/lpc11cx4-library/evt_lib/src/can.c **** 		CAN_rx,
 163:../../lib/lpc11cx4-library/evt_lib/src/can.c **** 		CAN_tx,
 164:../../lib/lpc11cx4-library/evt_lib/src/can.c **** 		CAN_error,
 165:../../lib/lpc11cx4-library/evt_lib/src/can.c **** 		NULL,
 166:../../lib/lpc11cx4-library/evt_lib/src/can.c **** 		NULL,
 167:../../lib/lpc11cx4-library/evt_lib/src/can.c **** 		NULL,
 168:../../lib/lpc11cx4-library/evt_lib/src/can.c **** 		NULL,
 169:../../lib/lpc11cx4-library/evt_lib/src/can.c **** 		NULL,
 170:../../lib/lpc11cx4-library/evt_lib/src/can.c **** 	};
 171:../../lib/lpc11cx4-library/evt_lib/src/can.c **** 	Baudrate_Calculate(baud_rate, CanApiClkInitTable);
 172:../../lib/lpc11cx4-library/evt_lib/src/can.c **** 
 173:../../lib/lpc11cx4-library/evt_lib/src/can.c **** 	LPC_CCAN_API->init_can(&CanApiClkInitTable[0], TRUE);
 174:../../lib/lpc11cx4-library/evt_lib/src/can.c **** 	/* Configure the CAN callback functions */
 175:../../lib/lpc11cx4-library/evt_lib/src/can.c **** 	LPC_CCAN_API->config_calb(&callbacks);
 176:../../lib/lpc11cx4-library/evt_lib/src/can.c **** 	/* Enable the CAN Interrupt */
 177:../../lib/lpc11cx4-library/evt_lib/src/can.c **** 	NVIC_EnableIRQ(CAN_IRQn);
 178:../../lib/lpc11cx4-library/evt_lib/src/can.c **** 
 179:../../lib/lpc11cx4-library/evt_lib/src/can.c **** 	/* Configure message objects to accept all messages */
 180:../../lib/lpc11cx4-library/evt_lib/src/can.c **** 	CAN_SetMask1(0, 0);
 181:../../lib/lpc11cx4-library/evt_lib/src/can.c **** 	CAN_SetMask2(0, 0);
 182:../../lib/lpc11cx4-library/evt_lib/src/can.c **** 
 183:../../lib/lpc11cx4-library/evt_lib/src/can.c **** 	can_error_flag = false;
 184:../../lib/lpc11cx4-library/evt_lib/src/can.c **** 	can_error_info = 0;
 185:../../lib/lpc11cx4-library/evt_lib/src/can.c **** 
 186:../../lib/lpc11cx4-library/evt_lib/src/can.c **** 	memset(msg_obj_stat, 0, sizeof(bool)*NUM_MSG_OBJS);
 187:../../lib/lpc11cx4-library/evt_lib/src/can.c **** }
 188:../../lib/lpc11cx4-library/evt_lib/src/can.c **** 
 189:../../lib/lpc11cx4-library/evt_lib/src/can.c **** // ANDs the mask with the input ID and checks if == to mode_id
 190:../../lib/lpc11cx4-library/evt_lib/src/can.c **** void CAN_SetMask1(uint32_t mask, uint32_t mode_id) {
 737              		.loc 1 190 0
 738              		.cfi_startproc
 739              		@ args = 0, pretend = 0, frame = 0
ARM GAS  /var/folders/z0/6xlwn_996xz3mwq1cgzkbq4r0000gp/T//ccjakVr1.s 			page 27


 740              		@ frame_needed = 0, uses_anonymous_args = 0
 741              	.LVL43:
 191:../../lib/lpc11cx4-library/evt_lib/src/can.c **** 	msg_obj.msgobj = 27;
 742              		.loc 1 191 0
 743 0000 1B23     		movs	r3, #27	@ tmp125,
 190:../../lib/lpc11cx4-library/evt_lib/src/can.c **** 	msg_obj.msgobj = 27;
 744              		.loc 1 190 0
 745 0002 70B5     		push	{r4, r5, r6, lr}	@
 746              		.cfi_def_cfa_offset 16
 747              		.cfi_offset 4, -16
 748              		.cfi_offset 5, -12
 749              		.cfi_offset 6, -8
 750              		.cfi_offset 14, -4
 751              		.loc 1 191 0
 752 0004 0C4C     		ldr	r4, .L69	@ tmp124,
 192:../../lib/lpc11cx4-library/evt_lib/src/can.c **** 	msg_obj.mode_id = mode_id;
 193:../../lib/lpc11cx4-library/evt_lib/src/can.c **** 	msg_obj.mask = mask; 
 194:../../lib/lpc11cx4-library/evt_lib/src/can.c **** 	LPC_CCAN_API->config_rxmsgobj(&msg_obj);
 753              		.loc 1 194 0
 754 0006 0D4D     		ldr	r5, .L69+4	@ tmp130,
 191:../../lib/lpc11cx4-library/evt_lib/src/can.c **** 	msg_obj.mode_id = mode_id;
 755              		.loc 1 191 0
 756 0008 6374     		strb	r3, [r4, #17]	@ tmp125, msg_obj.msgobj
 757              		.loc 1 194 0
 758 000a 2B68     		ldr	r3, [r5]	@ MEM[(struct LPC_ROM_API_T * *)536813560B], MEM[(struct LPC_ROM_API_T * *)536813560B
 192:../../lib/lpc11cx4-library/evt_lib/src/can.c **** 	msg_obj.mode_id = mode_id;
 759              		.loc 1 192 0
 760 000c 2160     		str	r1, [r4]	@ mode_id, msg_obj.mode_id
 761              		.loc 1 194 0
 762 000e 9B68     		ldr	r3, [r3, #8]	@ _7->candApiBase, _7->candApiBase
 193:../../lib/lpc11cx4-library/evt_lib/src/can.c **** 	LPC_CCAN_API->config_rxmsgobj(&msg_obj);
 763              		.loc 1 193 0
 764 0010 6060     		str	r0, [r4, #4]	@ mask, msg_obj.mask
 765              		.loc 1 194 0
 766 0012 9B68     		ldr	r3, [r3, #8]	@ _9->config_rxmsgobj, _9->config_rxmsgobj
 767 0014 2000     		movs	r0, r4	@, tmp124
 768              	.LVL44:
 769 0016 9847     		blx	r3	@ _9->config_rxmsgobj
 770              	.LVL45:
 195:../../lib/lpc11cx4-library/evt_lib/src/can.c **** 	msg_obj.msgobj = 28;
 771              		.loc 1 195 0
 772 0018 1C23     		movs	r3, #28	@ tmp135,
 773 001a 6374     		strb	r3, [r4, #17]	@ tmp135, msg_obj.msgobj
 196:../../lib/lpc11cx4-library/evt_lib/src/can.c **** 	LPC_CCAN_API->config_rxmsgobj(&msg_obj);
 774              		.loc 1 196 0
 775 001c 2B68     		ldr	r3, [r5]	@ MEM[(struct LPC_ROM_API_T * *)536813560B], MEM[(struct LPC_ROM_API_T * *)536813560B
 776 001e 2000     		movs	r0, r4	@, tmp124
 777 0020 9B68     		ldr	r3, [r3, #8]	@ _13->candApiBase, _13->candApiBase
 197:../../lib/lpc11cx4-library/evt_lib/src/can.c **** 	msg_obj.msgobj = 29;
 198:../../lib/lpc11cx4-library/evt_lib/src/can.c **** 	LPC_CCAN_API->config_rxmsgobj(&msg_obj);
 199:../../lib/lpc11cx4-library/evt_lib/src/can.c **** }
 778              		.loc 1 199 0
 779              		@ sp needed	@
 196:../../lib/lpc11cx4-library/evt_lib/src/can.c **** 	LPC_CCAN_API->config_rxmsgobj(&msg_obj);
 780              		.loc 1 196 0
 781 0022 9B68     		ldr	r3, [r3, #8]	@ _15->config_rxmsgobj, _15->config_rxmsgobj
 782 0024 9847     		blx	r3	@ _15->config_rxmsgobj
ARM GAS  /var/folders/z0/6xlwn_996xz3mwq1cgzkbq4r0000gp/T//ccjakVr1.s 			page 28


 783              	.LVL46:
 197:../../lib/lpc11cx4-library/evt_lib/src/can.c **** 	msg_obj.msgobj = 29;
 784              		.loc 1 197 0
 785 0026 1D23     		movs	r3, #29	@ tmp143,
 786 0028 6374     		strb	r3, [r4, #17]	@ tmp143, msg_obj.msgobj
 198:../../lib/lpc11cx4-library/evt_lib/src/can.c **** }
 787              		.loc 1 198 0
 788 002a 2B68     		ldr	r3, [r5]	@ MEM[(struct LPC_ROM_API_T * *)536813560B], MEM[(struct LPC_ROM_API_T * *)536813560B
 789 002c 2000     		movs	r0, r4	@, tmp124
 790 002e 9B68     		ldr	r3, [r3, #8]	@ _19->candApiBase, _19->candApiBase
 791 0030 9B68     		ldr	r3, [r3, #8]	@ _21->config_rxmsgobj, _21->config_rxmsgobj
 792 0032 9847     		blx	r3	@ _21->config_rxmsgobj
 793              	.LVL47:
 794              		.loc 1 199 0
 795 0034 70BD     		pop	{r4, r5, r6, pc}
 796              	.L70:
 797 0036 C046     		.align	2
 798              	.L69:
 799 0038 00000000 		.word	msg_obj
 800 003c F81FFF1F 		.word	536813560
 801              		.cfi_endproc
 802              	.LFE209:
 803              		.size	CAN_SetMask1, .-CAN_SetMask1
 804              		.section	.text.CAN_SetMask2,"ax",%progbits
 805              		.align	2
 806              		.global	CAN_SetMask2
 807              		.code	16
 808              		.thumb_func
 809              		.type	CAN_SetMask2, %function
 810              	CAN_SetMask2:
 811              	.LFB210:
 200:../../lib/lpc11cx4-library/evt_lib/src/can.c **** 
 201:../../lib/lpc11cx4-library/evt_lib/src/can.c **** void CAN_SetMask2(uint32_t mask, uint32_t mode_id) {
 812              		.loc 1 201 0
 813              		.cfi_startproc
 814              		@ args = 0, pretend = 0, frame = 0
 815              		@ frame_needed = 0, uses_anonymous_args = 0
 816              	.LVL48:
 202:../../lib/lpc11cx4-library/evt_lib/src/can.c **** 	msg_obj.msgobj = 30;
 817              		.loc 1 202 0
 818 0000 1E23     		movs	r3, #30	@ tmp121,
 201:../../lib/lpc11cx4-library/evt_lib/src/can.c **** 	msg_obj.msgobj = 30;
 819              		.loc 1 201 0
 820 0002 70B5     		push	{r4, r5, r6, lr}	@
 821              		.cfi_def_cfa_offset 16
 822              		.cfi_offset 4, -16
 823              		.cfi_offset 5, -12
 824              		.cfi_offset 6, -8
 825              		.cfi_offset 14, -4
 826              		.loc 1 202 0
 827 0004 084C     		ldr	r4, .L72	@ tmp120,
 203:../../lib/lpc11cx4-library/evt_lib/src/can.c **** 	msg_obj.mode_id = mode_id;
 204:../../lib/lpc11cx4-library/evt_lib/src/can.c **** 	msg_obj.mask = mask; 
 205:../../lib/lpc11cx4-library/evt_lib/src/can.c **** 	LPC_CCAN_API->config_rxmsgobj(&msg_obj);
 828              		.loc 1 205 0
 829 0006 094D     		ldr	r5, .L72+4	@ tmp126,
 202:../../lib/lpc11cx4-library/evt_lib/src/can.c **** 	msg_obj.mode_id = mode_id;
ARM GAS  /var/folders/z0/6xlwn_996xz3mwq1cgzkbq4r0000gp/T//ccjakVr1.s 			page 29


 830              		.loc 1 202 0
 831 0008 6374     		strb	r3, [r4, #17]	@ tmp121, msg_obj.msgobj
 832              		.loc 1 205 0
 833 000a 2B68     		ldr	r3, [r5]	@ MEM[(struct LPC_ROM_API_T * *)536813560B], MEM[(struct LPC_ROM_API_T * *)536813560B
 203:../../lib/lpc11cx4-library/evt_lib/src/can.c **** 	msg_obj.mode_id = mode_id;
 834              		.loc 1 203 0
 835 000c 2160     		str	r1, [r4]	@ mode_id, msg_obj.mode_id
 836              		.loc 1 205 0
 837 000e 9B68     		ldr	r3, [r3, #8]	@ _7->candApiBase, _7->candApiBase
 204:../../lib/lpc11cx4-library/evt_lib/src/can.c **** 	LPC_CCAN_API->config_rxmsgobj(&msg_obj);
 838              		.loc 1 204 0
 839 0010 6060     		str	r0, [r4, #4]	@ mask, msg_obj.mask
 840              		.loc 1 205 0
 841 0012 9B68     		ldr	r3, [r3, #8]	@ _9->config_rxmsgobj, _9->config_rxmsgobj
 842 0014 2000     		movs	r0, r4	@, tmp120
 843              	.LVL49:
 844 0016 9847     		blx	r3	@ _9->config_rxmsgobj
 845              	.LVL50:
 206:../../lib/lpc11cx4-library/evt_lib/src/can.c **** 	msg_obj.msgobj = 31;
 846              		.loc 1 206 0
 847 0018 1F23     		movs	r3, #31	@ tmp131,
 848 001a 6374     		strb	r3, [r4, #17]	@ tmp131, msg_obj.msgobj
 207:../../lib/lpc11cx4-library/evt_lib/src/can.c **** 	LPC_CCAN_API->config_rxmsgobj(&msg_obj);
 849              		.loc 1 207 0
 850 001c 2B68     		ldr	r3, [r5]	@ MEM[(struct LPC_ROM_API_T * *)536813560B], MEM[(struct LPC_ROM_API_T * *)536813560B
 851 001e 2000     		movs	r0, r4	@, tmp120
 852 0020 9B68     		ldr	r3, [r3, #8]	@ _13->candApiBase, _13->candApiBase
 208:../../lib/lpc11cx4-library/evt_lib/src/can.c **** }
 853              		.loc 1 208 0
 854              		@ sp needed	@
 207:../../lib/lpc11cx4-library/evt_lib/src/can.c **** 	LPC_CCAN_API->config_rxmsgobj(&msg_obj);
 855              		.loc 1 207 0
 856 0022 9B68     		ldr	r3, [r3, #8]	@ _15->config_rxmsgobj, _15->config_rxmsgobj
 857 0024 9847     		blx	r3	@ _15->config_rxmsgobj
 858              	.LVL51:
 859              		.loc 1 208 0
 860 0026 70BD     		pop	{r4, r5, r6, pc}
 861              	.L73:
 862              		.align	2
 863              	.L72:
 864 0028 00000000 		.word	msg_obj
 865 002c F81FFF1F 		.word	536813560
 866              		.cfi_endproc
 867              	.LFE210:
 868              		.size	CAN_SetMask2, .-CAN_SetMask2
 869              		.section	.text.CAN_Init,"ax",%progbits
 870              		.align	2
 871              		.global	CAN_Init
 872              		.code	16
 873              		.thumb_func
 874              		.type	CAN_Init, %function
 875              	CAN_Init:
 876              	.LFB208:
 152:../../lib/lpc11cx4-library/evt_lib/src/can.c **** 
 877              		.loc 1 152 0
 878              		.cfi_startproc
 879              		@ args = 0, pretend = 0, frame = 40
ARM GAS  /var/folders/z0/6xlwn_996xz3mwq1cgzkbq4r0000gp/T//ccjakVr1.s 			page 30


 880              		@ frame_needed = 0, uses_anonymous_args = 0
 881              	.LVL52:
 882 0000 F0B5     		push	{r4, r5, r6, r7, lr}	@
 883              		.cfi_def_cfa_offset 20
 884              		.cfi_offset 4, -20
 885              		.cfi_offset 5, -16
 886              		.cfi_offset 6, -12
 887              		.cfi_offset 7, -8
 888              		.cfi_offset 14, -4
 889              	.LBB47:
 890              	.LBB48:
 891              		.file 4 "../../lib/lpc11cx4-library/lpc_chip_11cxx_lib/inc/ring_buffer.h"
   1:../../lib/lpc11cx4-library/lpc_chip_11cxx_lib/inc/ring_buffer.h **** /*
   2:../../lib/lpc11cx4-library/lpc_chip_11cxx_lib/inc/ring_buffer.h ****  * @brief Common ring buffer support functions
   3:../../lib/lpc11cx4-library/lpc_chip_11cxx_lib/inc/ring_buffer.h ****  *
   4:../../lib/lpc11cx4-library/lpc_chip_11cxx_lib/inc/ring_buffer.h ****  * @note
   5:../../lib/lpc11cx4-library/lpc_chip_11cxx_lib/inc/ring_buffer.h ****  * Copyright(C) NXP Semiconductors, 2012
   6:../../lib/lpc11cx4-library/lpc_chip_11cxx_lib/inc/ring_buffer.h ****  * All rights reserved.
   7:../../lib/lpc11cx4-library/lpc_chip_11cxx_lib/inc/ring_buffer.h ****  *
   8:../../lib/lpc11cx4-library/lpc_chip_11cxx_lib/inc/ring_buffer.h ****  * @par
   9:../../lib/lpc11cx4-library/lpc_chip_11cxx_lib/inc/ring_buffer.h ****  * Software that is described herein is for illustrative purposes only
  10:../../lib/lpc11cx4-library/lpc_chip_11cxx_lib/inc/ring_buffer.h ****  * which provides customers with programming information regarding the
  11:../../lib/lpc11cx4-library/lpc_chip_11cxx_lib/inc/ring_buffer.h ****  * LPC products.  This software is supplied "AS IS" without any warranties of
  12:../../lib/lpc11cx4-library/lpc_chip_11cxx_lib/inc/ring_buffer.h ****  * any kind, and NXP Semiconductors and its licensor disclaim any and
  13:../../lib/lpc11cx4-library/lpc_chip_11cxx_lib/inc/ring_buffer.h ****  * all warranties, express or implied, including all implied warranties of
  14:../../lib/lpc11cx4-library/lpc_chip_11cxx_lib/inc/ring_buffer.h ****  * merchantability, fitness for a particular purpose and non-infringement of
  15:../../lib/lpc11cx4-library/lpc_chip_11cxx_lib/inc/ring_buffer.h ****  * intellectual property rights.  NXP Semiconductors assumes no responsibility
  16:../../lib/lpc11cx4-library/lpc_chip_11cxx_lib/inc/ring_buffer.h ****  * or liability for the use of the software, conveys no license or rights under any
  17:../../lib/lpc11cx4-library/lpc_chip_11cxx_lib/inc/ring_buffer.h ****  * patent, copyright, mask work right, or any other intellectual property rights in
  18:../../lib/lpc11cx4-library/lpc_chip_11cxx_lib/inc/ring_buffer.h ****  * or to any products. NXP Semiconductors reserves the right to make changes
  19:../../lib/lpc11cx4-library/lpc_chip_11cxx_lib/inc/ring_buffer.h ****  * in the software without notification. NXP Semiconductors also makes no
  20:../../lib/lpc11cx4-library/lpc_chip_11cxx_lib/inc/ring_buffer.h ****  * representation or warranty that such application will be suitable for the
  21:../../lib/lpc11cx4-library/lpc_chip_11cxx_lib/inc/ring_buffer.h ****  * specified use without further testing or modification.
  22:../../lib/lpc11cx4-library/lpc_chip_11cxx_lib/inc/ring_buffer.h ****  *
  23:../../lib/lpc11cx4-library/lpc_chip_11cxx_lib/inc/ring_buffer.h ****  * @par
  24:../../lib/lpc11cx4-library/lpc_chip_11cxx_lib/inc/ring_buffer.h ****  * Permission to use, copy, modify, and distribute this software and its
  25:../../lib/lpc11cx4-library/lpc_chip_11cxx_lib/inc/ring_buffer.h ****  * documentation is hereby granted, under NXP Semiconductors' and its
  26:../../lib/lpc11cx4-library/lpc_chip_11cxx_lib/inc/ring_buffer.h ****  * licensor's relevant copyrights in the software, without fee, provided that it
  27:../../lib/lpc11cx4-library/lpc_chip_11cxx_lib/inc/ring_buffer.h ****  * is used in conjunction with NXP Semiconductors microcontrollers.  This
  28:../../lib/lpc11cx4-library/lpc_chip_11cxx_lib/inc/ring_buffer.h ****  * copyright, permission, and disclaimer notice must appear in all copies of
  29:../../lib/lpc11cx4-library/lpc_chip_11cxx_lib/inc/ring_buffer.h ****  * this code.
  30:../../lib/lpc11cx4-library/lpc_chip_11cxx_lib/inc/ring_buffer.h ****  */
  31:../../lib/lpc11cx4-library/lpc_chip_11cxx_lib/inc/ring_buffer.h **** 
  32:../../lib/lpc11cx4-library/lpc_chip_11cxx_lib/inc/ring_buffer.h **** #ifndef __RING_BUFFER_H_
  33:../../lib/lpc11cx4-library/lpc_chip_11cxx_lib/inc/ring_buffer.h **** #define __RING_BUFFER_H_
  34:../../lib/lpc11cx4-library/lpc_chip_11cxx_lib/inc/ring_buffer.h **** 
  35:../../lib/lpc11cx4-library/lpc_chip_11cxx_lib/inc/ring_buffer.h **** #include "lpc_types.h"
  36:../../lib/lpc11cx4-library/lpc_chip_11cxx_lib/inc/ring_buffer.h **** 
  37:../../lib/lpc11cx4-library/lpc_chip_11cxx_lib/inc/ring_buffer.h **** /** @defgroup Ring_Buffer CHIP: Simple ring buffer implementation
  38:../../lib/lpc11cx4-library/lpc_chip_11cxx_lib/inc/ring_buffer.h ****  * @ingroup CHIP_Common
  39:../../lib/lpc11cx4-library/lpc_chip_11cxx_lib/inc/ring_buffer.h ****  * @{
  40:../../lib/lpc11cx4-library/lpc_chip_11cxx_lib/inc/ring_buffer.h ****  */
  41:../../lib/lpc11cx4-library/lpc_chip_11cxx_lib/inc/ring_buffer.h **** 
  42:../../lib/lpc11cx4-library/lpc_chip_11cxx_lib/inc/ring_buffer.h **** /**
  43:../../lib/lpc11cx4-library/lpc_chip_11cxx_lib/inc/ring_buffer.h ****  * @brief Ring buffer structure
  44:../../lib/lpc11cx4-library/lpc_chip_11cxx_lib/inc/ring_buffer.h ****  */
  45:../../lib/lpc11cx4-library/lpc_chip_11cxx_lib/inc/ring_buffer.h **** typedef struct {
ARM GAS  /var/folders/z0/6xlwn_996xz3mwq1cgzkbq4r0000gp/T//ccjakVr1.s 			page 31


  46:../../lib/lpc11cx4-library/lpc_chip_11cxx_lib/inc/ring_buffer.h **** 	void *data;
  47:../../lib/lpc11cx4-library/lpc_chip_11cxx_lib/inc/ring_buffer.h **** 	uint32_t count;
  48:../../lib/lpc11cx4-library/lpc_chip_11cxx_lib/inc/ring_buffer.h **** 	uint32_t itemSz;
  49:../../lib/lpc11cx4-library/lpc_chip_11cxx_lib/inc/ring_buffer.h **** 	uint32_t head;
  50:../../lib/lpc11cx4-library/lpc_chip_11cxx_lib/inc/ring_buffer.h **** 	uint32_t tail;
  51:../../lib/lpc11cx4-library/lpc_chip_11cxx_lib/inc/ring_buffer.h **** } RINGBUFF_T;
  52:../../lib/lpc11cx4-library/lpc_chip_11cxx_lib/inc/ring_buffer.h **** 
  53:../../lib/lpc11cx4-library/lpc_chip_11cxx_lib/inc/ring_buffer.h **** /**
  54:../../lib/lpc11cx4-library/lpc_chip_11cxx_lib/inc/ring_buffer.h ****  * @def		RB_VHEAD(rb)
  55:../../lib/lpc11cx4-library/lpc_chip_11cxx_lib/inc/ring_buffer.h ****  * volatile typecasted head index
  56:../../lib/lpc11cx4-library/lpc_chip_11cxx_lib/inc/ring_buffer.h ****  */
  57:../../lib/lpc11cx4-library/lpc_chip_11cxx_lib/inc/ring_buffer.h **** // #define RB_VHEAD(rb)              (*(volatile uint32_t *) &(rb)->head)
  58:../../lib/lpc11cx4-library/lpc_chip_11cxx_lib/inc/ring_buffer.h **** #define RB_VHEAD(rb)				((volatile uint32_t)(rb->head))
  59:../../lib/lpc11cx4-library/lpc_chip_11cxx_lib/inc/ring_buffer.h **** 
  60:../../lib/lpc11cx4-library/lpc_chip_11cxx_lib/inc/ring_buffer.h **** /**
  61:../../lib/lpc11cx4-library/lpc_chip_11cxx_lib/inc/ring_buffer.h ****  * @def		RB_VTAIL(rb)
  62:../../lib/lpc11cx4-library/lpc_chip_11cxx_lib/inc/ring_buffer.h ****  * volatile typecasted tail index
  63:../../lib/lpc11cx4-library/lpc_chip_11cxx_lib/inc/ring_buffer.h ****  */
  64:../../lib/lpc11cx4-library/lpc_chip_11cxx_lib/inc/ring_buffer.h **** // #define RB_VTAIL(rb)              (*(volatile uint32_t *) &(rb)->tail)
  65:../../lib/lpc11cx4-library/lpc_chip_11cxx_lib/inc/ring_buffer.h **** #define RB_VTAIL(rb)				((volatile uint32_t)(rb->tail))
  66:../../lib/lpc11cx4-library/lpc_chip_11cxx_lib/inc/ring_buffer.h **** 
  67:../../lib/lpc11cx4-library/lpc_chip_11cxx_lib/inc/ring_buffer.h **** /**
  68:../../lib/lpc11cx4-library/lpc_chip_11cxx_lib/inc/ring_buffer.h ****  * @brief	Initialize ring buffer
  69:../../lib/lpc11cx4-library/lpc_chip_11cxx_lib/inc/ring_buffer.h ****  * @param	RingBuff	: Pointer to ring buffer to initialize
  70:../../lib/lpc11cx4-library/lpc_chip_11cxx_lib/inc/ring_buffer.h ****  * @param	buffer		: Pointer to buffer to associate with RingBuff
  71:../../lib/lpc11cx4-library/lpc_chip_11cxx_lib/inc/ring_buffer.h ****  * @param	itemSize	: Size of each buffer item size
  72:../../lib/lpc11cx4-library/lpc_chip_11cxx_lib/inc/ring_buffer.h ****  * @param	count		: Size of ring buffer
  73:../../lib/lpc11cx4-library/lpc_chip_11cxx_lib/inc/ring_buffer.h ****  * @note	Memory pointed by @a buffer must have correct alignment of
  74:../../lib/lpc11cx4-library/lpc_chip_11cxx_lib/inc/ring_buffer.h ****  * 			@a itemSize, and @a count must be a power of 2 and must at
  75:../../lib/lpc11cx4-library/lpc_chip_11cxx_lib/inc/ring_buffer.h ****  * 			least be 2 or greater.
  76:../../lib/lpc11cx4-library/lpc_chip_11cxx_lib/inc/ring_buffer.h ****  * @return	Nothing
  77:../../lib/lpc11cx4-library/lpc_chip_11cxx_lib/inc/ring_buffer.h ****  */
  78:../../lib/lpc11cx4-library/lpc_chip_11cxx_lib/inc/ring_buffer.h **** int RingBuffer_Init(RINGBUFF_T *RingBuff, void *buffer, uint32_t itemSize, uint32_t count);
  79:../../lib/lpc11cx4-library/lpc_chip_11cxx_lib/inc/ring_buffer.h **** 
  80:../../lib/lpc11cx4-library/lpc_chip_11cxx_lib/inc/ring_buffer.h **** /**
  81:../../lib/lpc11cx4-library/lpc_chip_11cxx_lib/inc/ring_buffer.h ****  * @brief	Resets the ring buffer to empty
  82:../../lib/lpc11cx4-library/lpc_chip_11cxx_lib/inc/ring_buffer.h ****  * @param	RingBuff	: Pointer to ring buffer
  83:../../lib/lpc11cx4-library/lpc_chip_11cxx_lib/inc/ring_buffer.h ****  * @return	Nothing
  84:../../lib/lpc11cx4-library/lpc_chip_11cxx_lib/inc/ring_buffer.h ****  */
  85:../../lib/lpc11cx4-library/lpc_chip_11cxx_lib/inc/ring_buffer.h **** STATIC INLINE void RingBuffer_Flush(RINGBUFF_T *RingBuff)
  86:../../lib/lpc11cx4-library/lpc_chip_11cxx_lib/inc/ring_buffer.h **** {
  87:../../lib/lpc11cx4-library/lpc_chip_11cxx_lib/inc/ring_buffer.h **** 	RingBuff->head = RingBuff->tail = 0;
 892              		.loc 4 87 0
 893 0002 0024     		movs	r4, #0	@ tmp122,
 894              	.LBE48:
 895              	.LBE47:
 154:../../lib/lpc11cx4-library/evt_lib/src/can.c **** 	RingBuffer_Flush(&rx_buffer);
 896              		.loc 1 154 0
 897 0004 204D     		ldr	r5, .L75	@ tmp120,
 152:../../lib/lpc11cx4-library/evt_lib/src/can.c **** 
 898              		.loc 1 152 0
 899 0006 8BB0     		sub	sp, sp, #44	@,,
 900              		.cfi_def_cfa_offset 64
 152:../../lib/lpc11cx4-library/evt_lib/src/can.c **** 
 901              		.loc 1 152 0
 902 0008 0600     		movs	r6, r0	@ baud_rate, baud_rate
 154:../../lib/lpc11cx4-library/evt_lib/src/can.c **** 	RingBuffer_Flush(&rx_buffer);
ARM GAS  /var/folders/z0/6xlwn_996xz3mwq1cgzkbq4r0000gp/T//ccjakVr1.s 			page 32


 903              		.loc 1 154 0
 904 000a 1023     		movs	r3, #16	@,
 905 000c 1822     		movs	r2, #24	@,
 906 000e 1F49     		ldr	r1, .L75+4	@,
 907 0010 2800     		movs	r0, r5	@, tmp120
 908              	.LVL53:
 909 0012 FFF7FEFF 		bl	RingBuffer_Init	@
 910              	.LVL54:
 911              	.LBB50:
 912              	.LBB49:
 913              		.loc 4 87 0
 914 0016 2C61     		str	r4, [r5, #16]	@ tmp122, MEM[(uint32_t *)&rx_buffer + 16B]
 915 0018 EC60     		str	r4, [r5, #12]	@ tmp122, MEM[(uint32_t *)&rx_buffer + 12B]
 916              	.LBE49:
 917              	.LBE50:
 157:../../lib/lpc11cx4-library/evt_lib/src/can.c **** 	RingBuffer_Flush(&tx_buffer);
 918              		.loc 1 157 0
 919 001a 1D4D     		ldr	r5, .L75+8	@ tmp126,
 920 001c 1D49     		ldr	r1, .L75+12	@,
 921 001e 1023     		movs	r3, #16	@,
 922 0020 1822     		movs	r2, #24	@,
 923 0022 2800     		movs	r0, r5	@, tmp126
 924 0024 FFF7FEFF 		bl	RingBuffer_Init	@
 925              	.LVL55:
 926              	.LBB51:
 927              	.LBB52:
 928              		.loc 4 87 0
 929 0028 2C61     		str	r4, [r5, #16]	@ tmp122, MEM[(uint32_t *)&tx_buffer + 16B]
 930 002a EC60     		str	r4, [r5, #12]	@ tmp122, MEM[(uint32_t *)&tx_buffer + 12B]
 931              	.LBE52:
 932              	.LBE51:
 161:../../lib/lpc11cx4-library/evt_lib/src/can.c **** 		CAN_rx,
 933              		.loc 1 161 0
 934 002c 02AD     		add	r5, sp, #8	@ tmp131,,
 935 002e 2A00     		movs	r2, r5	@ tmp133, tmp131
 936 0030 194B     		ldr	r3, .L75+16	@ tmp132,
 937 0032 83CB     		ldmia	r3!, {r0, r1, r7}	@ tmp134, tmp158, tmp157, tmp159
 938 0034 83C2     		stmia	r2!, {r0, r1, r7}	@ tmp133, tmp158, tmp157, tmp159
 939 0036 83CB     		ldmia	r3!, {r0, r1, r7}	@ tmp134, tmp161, tmp160, tmp162
 940 0038 83C2     		stmia	r2!, {r0, r1, r7}	@ tmp133, tmp161, tmp160, tmp162
 941 003a 03CB     		ldmia	r3!, {r0, r1}	@ tmp134, tmp164, tmp163
 942 003c 03C2     		stmia	r2!, {r0, r1}	@ tmp133, tmp164, tmp163
 171:../../lib/lpc11cx4-library/evt_lib/src/can.c **** 
 943              		.loc 1 171 0
 944 003e 3000     		movs	r0, r6	@, baud_rate
 173:../../lib/lpc11cx4-library/evt_lib/src/can.c **** 	/* Configure the CAN callback functions */
 945              		.loc 1 173 0
 946 0040 164E     		ldr	r6, .L75+20	@ tmp137,
 947              	.LVL56:
 171:../../lib/lpc11cx4-library/evt_lib/src/can.c **** 
 948              		.loc 1 171 0
 949 0042 6946     		mov	r1, sp	@,
 950 0044 FFF7FEFF 		bl	Baudrate_Calculate	@
 951              	.LVL57:
 173:../../lib/lpc11cx4-library/evt_lib/src/can.c **** 	/* Configure the CAN callback functions */
 952              		.loc 1 173 0
 953 0048 3368     		ldr	r3, [r6]	@ MEM[(struct LPC_ROM_API_T * *)536813560B], MEM[(struct LPC_ROM_API_T * *)536813560B
ARM GAS  /var/folders/z0/6xlwn_996xz3mwq1cgzkbq4r0000gp/T//ccjakVr1.s 			page 33


 954 004a 0121     		movs	r1, #1	@,
 955 004c 9B68     		ldr	r3, [r3, #8]	@ _9->candApiBase, _9->candApiBase
 956 004e 6846     		mov	r0, sp	@,
 957 0050 1B68     		ldr	r3, [r3]	@ _11->init_can, _11->init_can
 958 0052 9847     		blx	r3	@ _11->init_can
 959              	.LVL58:
 175:../../lib/lpc11cx4-library/evt_lib/src/can.c **** 	/* Enable the CAN Interrupt */
 960              		.loc 1 175 0
 961 0054 3368     		ldr	r3, [r6]	@ MEM[(struct LPC_ROM_API_T * *)536813560B], MEM[(struct LPC_ROM_API_T * *)536813560B
 962 0056 2800     		movs	r0, r5	@, tmp131
 963 0058 9B68     		ldr	r3, [r3, #8]	@ _14->candApiBase, _14->candApiBase
 964 005a DB69     		ldr	r3, [r3, #28]	@ _16->config_calb, _16->config_calb
 965 005c 9847     		blx	r3	@ _16->config_calb
 966              	.LVL59:
 967              	.LBB53:
 968              	.LBB54:
 969              		.file 5 "../../lib/lpc11cx4-library/lpc_chip_11cxx_lib/inc/core_cm0.h"
   1:../../lib/lpc11cx4-library/lpc_chip_11cxx_lib/inc/core_cm0.h **** /**************************************************************************//**
   2:../../lib/lpc11cx4-library/lpc_chip_11cxx_lib/inc/core_cm0.h ****  * @file     core_cm0.h
   3:../../lib/lpc11cx4-library/lpc_chip_11cxx_lib/inc/core_cm0.h ****  * @brief    CMSIS Cortex-M0 Core Peripheral Access Layer Header File
   4:../../lib/lpc11cx4-library/lpc_chip_11cxx_lib/inc/core_cm0.h ****  * @version  V3.01
   5:../../lib/lpc11cx4-library/lpc_chip_11cxx_lib/inc/core_cm0.h ****  * @date     13. March 2012
   6:../../lib/lpc11cx4-library/lpc_chip_11cxx_lib/inc/core_cm0.h ****  *
   7:../../lib/lpc11cx4-library/lpc_chip_11cxx_lib/inc/core_cm0.h ****  * @note
   8:../../lib/lpc11cx4-library/lpc_chip_11cxx_lib/inc/core_cm0.h ****  * Copyright (C) 2009-2012 ARM Limited. All rights reserved.
   9:../../lib/lpc11cx4-library/lpc_chip_11cxx_lib/inc/core_cm0.h ****  *
  10:../../lib/lpc11cx4-library/lpc_chip_11cxx_lib/inc/core_cm0.h ****  * @par
  11:../../lib/lpc11cx4-library/lpc_chip_11cxx_lib/inc/core_cm0.h ****  * ARM Limited (ARM) is supplying this software for use with Cortex-M
  12:../../lib/lpc11cx4-library/lpc_chip_11cxx_lib/inc/core_cm0.h ****  * processor based microcontrollers.  This file can be freely distributed
  13:../../lib/lpc11cx4-library/lpc_chip_11cxx_lib/inc/core_cm0.h ****  * within development tools that are supporting such ARM based processors.
  14:../../lib/lpc11cx4-library/lpc_chip_11cxx_lib/inc/core_cm0.h ****  *
  15:../../lib/lpc11cx4-library/lpc_chip_11cxx_lib/inc/core_cm0.h ****  * @par
  16:../../lib/lpc11cx4-library/lpc_chip_11cxx_lib/inc/core_cm0.h ****  * THIS SOFTWARE IS PROVIDED "AS IS".  NO WARRANTIES, WHETHER EXPRESS, IMPLIED
  17:../../lib/lpc11cx4-library/lpc_chip_11cxx_lib/inc/core_cm0.h ****  * OR STATUTORY, INCLUDING, BUT NOT LIMITED TO, IMPLIED WARRANTIES OF
  18:../../lib/lpc11cx4-library/lpc_chip_11cxx_lib/inc/core_cm0.h ****  * MERCHANTABILITY AND FITNESS FOR A PARTICULAR PURPOSE APPLY TO THIS SOFTWARE.
  19:../../lib/lpc11cx4-library/lpc_chip_11cxx_lib/inc/core_cm0.h ****  * ARM SHALL NOT, IN ANY CIRCUMSTANCES, BE LIABLE FOR SPECIAL, INCIDENTAL, OR
  20:../../lib/lpc11cx4-library/lpc_chip_11cxx_lib/inc/core_cm0.h ****  * CONSEQUENTIAL DAMAGES, FOR ANY REASON WHATSOEVER.
  21:../../lib/lpc11cx4-library/lpc_chip_11cxx_lib/inc/core_cm0.h ****  *
  22:../../lib/lpc11cx4-library/lpc_chip_11cxx_lib/inc/core_cm0.h ****  ******************************************************************************/
  23:../../lib/lpc11cx4-library/lpc_chip_11cxx_lib/inc/core_cm0.h **** #if defined ( __ICCARM__ )
  24:../../lib/lpc11cx4-library/lpc_chip_11cxx_lib/inc/core_cm0.h ****  #pragma system_include  /* treat file as system include file for MISRA check */
  25:../../lib/lpc11cx4-library/lpc_chip_11cxx_lib/inc/core_cm0.h **** #endif
  26:../../lib/lpc11cx4-library/lpc_chip_11cxx_lib/inc/core_cm0.h **** 
  27:../../lib/lpc11cx4-library/lpc_chip_11cxx_lib/inc/core_cm0.h **** #ifdef __cplusplus
  28:../../lib/lpc11cx4-library/lpc_chip_11cxx_lib/inc/core_cm0.h ****  extern "C" {
  29:../../lib/lpc11cx4-library/lpc_chip_11cxx_lib/inc/core_cm0.h **** #endif
  30:../../lib/lpc11cx4-library/lpc_chip_11cxx_lib/inc/core_cm0.h **** 
  31:../../lib/lpc11cx4-library/lpc_chip_11cxx_lib/inc/core_cm0.h **** #ifndef __CORE_CM0_H_GENERIC
  32:../../lib/lpc11cx4-library/lpc_chip_11cxx_lib/inc/core_cm0.h **** #define __CORE_CM0_H_GENERIC
  33:../../lib/lpc11cx4-library/lpc_chip_11cxx_lib/inc/core_cm0.h **** 
  34:../../lib/lpc11cx4-library/lpc_chip_11cxx_lib/inc/core_cm0.h **** /** \page CMSIS_MISRA_Exceptions  MISRA-C:2004 Compliance Exceptions
  35:../../lib/lpc11cx4-library/lpc_chip_11cxx_lib/inc/core_cm0.h ****   CMSIS violates the following MISRA-C:2004 rules:
  36:../../lib/lpc11cx4-library/lpc_chip_11cxx_lib/inc/core_cm0.h **** 
  37:../../lib/lpc11cx4-library/lpc_chip_11cxx_lib/inc/core_cm0.h ****    \li Required Rule 8.5, object/function definition in header file.<br>
  38:../../lib/lpc11cx4-library/lpc_chip_11cxx_lib/inc/core_cm0.h ****      Function definitions in header files are used to allow 'inlining'.
  39:../../lib/lpc11cx4-library/lpc_chip_11cxx_lib/inc/core_cm0.h **** 
  40:../../lib/lpc11cx4-library/lpc_chip_11cxx_lib/inc/core_cm0.h ****    \li Required Rule 18.4, declaration of union type or object of union type: '{...}'.<br>
ARM GAS  /var/folders/z0/6xlwn_996xz3mwq1cgzkbq4r0000gp/T//ccjakVr1.s 			page 34


  41:../../lib/lpc11cx4-library/lpc_chip_11cxx_lib/inc/core_cm0.h ****      Unions are used for effective representation of core registers.
  42:../../lib/lpc11cx4-library/lpc_chip_11cxx_lib/inc/core_cm0.h **** 
  43:../../lib/lpc11cx4-library/lpc_chip_11cxx_lib/inc/core_cm0.h ****    \li Advisory Rule 19.7, Function-like macro defined.<br>
  44:../../lib/lpc11cx4-library/lpc_chip_11cxx_lib/inc/core_cm0.h ****      Function-like macros are used to allow more efficient code.
  45:../../lib/lpc11cx4-library/lpc_chip_11cxx_lib/inc/core_cm0.h ****  */
  46:../../lib/lpc11cx4-library/lpc_chip_11cxx_lib/inc/core_cm0.h **** 
  47:../../lib/lpc11cx4-library/lpc_chip_11cxx_lib/inc/core_cm0.h **** 
  48:../../lib/lpc11cx4-library/lpc_chip_11cxx_lib/inc/core_cm0.h **** /*******************************************************************************
  49:../../lib/lpc11cx4-library/lpc_chip_11cxx_lib/inc/core_cm0.h ****  *                 CMSIS definitions
  50:../../lib/lpc11cx4-library/lpc_chip_11cxx_lib/inc/core_cm0.h ****  ******************************************************************************/
  51:../../lib/lpc11cx4-library/lpc_chip_11cxx_lib/inc/core_cm0.h **** /** \ingroup Cortex_M0
  52:../../lib/lpc11cx4-library/lpc_chip_11cxx_lib/inc/core_cm0.h ****   @{
  53:../../lib/lpc11cx4-library/lpc_chip_11cxx_lib/inc/core_cm0.h ****  */
  54:../../lib/lpc11cx4-library/lpc_chip_11cxx_lib/inc/core_cm0.h **** 
  55:../../lib/lpc11cx4-library/lpc_chip_11cxx_lib/inc/core_cm0.h **** /*  CMSIS CM0 definitions */
  56:../../lib/lpc11cx4-library/lpc_chip_11cxx_lib/inc/core_cm0.h **** #define __CM0_CMSIS_VERSION_MAIN  (0x03)                                   /*!< [31:16] CMSIS HAL m
  57:../../lib/lpc11cx4-library/lpc_chip_11cxx_lib/inc/core_cm0.h **** #define __CM0_CMSIS_VERSION_SUB   (0x01)                                   /*!< [15:0]  CMSIS HAL s
  58:../../lib/lpc11cx4-library/lpc_chip_11cxx_lib/inc/core_cm0.h **** #define __CM0_CMSIS_VERSION       ((__CM0_CMSIS_VERSION_MAIN << 16) | \
  59:../../lib/lpc11cx4-library/lpc_chip_11cxx_lib/inc/core_cm0.h ****                                     __CM0_CMSIS_VERSION_SUB          )     /*!< CMSIS HAL version n
  60:../../lib/lpc11cx4-library/lpc_chip_11cxx_lib/inc/core_cm0.h **** 
  61:../../lib/lpc11cx4-library/lpc_chip_11cxx_lib/inc/core_cm0.h **** #define __CORTEX_M                (0x00)                                   /*!< Cortex-M Core      
  62:../../lib/lpc11cx4-library/lpc_chip_11cxx_lib/inc/core_cm0.h **** 
  63:../../lib/lpc11cx4-library/lpc_chip_11cxx_lib/inc/core_cm0.h **** 
  64:../../lib/lpc11cx4-library/lpc_chip_11cxx_lib/inc/core_cm0.h **** #if   defined ( __CC_ARM )
  65:../../lib/lpc11cx4-library/lpc_chip_11cxx_lib/inc/core_cm0.h ****   #define __ASM            __asm                                      /*!< asm keyword for ARM Comp
  66:../../lib/lpc11cx4-library/lpc_chip_11cxx_lib/inc/core_cm0.h ****   #define __INLINE         __inline                                   /*!< inline keyword for ARM C
  67:../../lib/lpc11cx4-library/lpc_chip_11cxx_lib/inc/core_cm0.h ****   #define __STATIC_INLINE  static __inline
  68:../../lib/lpc11cx4-library/lpc_chip_11cxx_lib/inc/core_cm0.h **** 
  69:../../lib/lpc11cx4-library/lpc_chip_11cxx_lib/inc/core_cm0.h **** #elif defined ( __ICCARM__ )
  70:../../lib/lpc11cx4-library/lpc_chip_11cxx_lib/inc/core_cm0.h ****   #define __ASM            __asm                                      /*!< asm keyword for IAR Comp
  71:../../lib/lpc11cx4-library/lpc_chip_11cxx_lib/inc/core_cm0.h ****   #define __INLINE         inline                                     /*!< inline keyword for IAR C
  72:../../lib/lpc11cx4-library/lpc_chip_11cxx_lib/inc/core_cm0.h ****   #define __STATIC_INLINE  static inline
  73:../../lib/lpc11cx4-library/lpc_chip_11cxx_lib/inc/core_cm0.h **** 
  74:../../lib/lpc11cx4-library/lpc_chip_11cxx_lib/inc/core_cm0.h **** #elif defined ( __GNUC__ )
  75:../../lib/lpc11cx4-library/lpc_chip_11cxx_lib/inc/core_cm0.h ****   #define __ASM            __asm                                      /*!< asm keyword for GNU Comp
  76:../../lib/lpc11cx4-library/lpc_chip_11cxx_lib/inc/core_cm0.h ****   #define __INLINE         inline                                     /*!< inline keyword for GNU C
  77:../../lib/lpc11cx4-library/lpc_chip_11cxx_lib/inc/core_cm0.h ****   #define __STATIC_INLINE  static inline
  78:../../lib/lpc11cx4-library/lpc_chip_11cxx_lib/inc/core_cm0.h **** 
  79:../../lib/lpc11cx4-library/lpc_chip_11cxx_lib/inc/core_cm0.h **** #elif defined ( __TASKING__ )
  80:../../lib/lpc11cx4-library/lpc_chip_11cxx_lib/inc/core_cm0.h ****   #define __ASM            __asm                                      /*!< asm keyword for TASKING 
  81:../../lib/lpc11cx4-library/lpc_chip_11cxx_lib/inc/core_cm0.h ****   #define __INLINE         inline                                     /*!< inline keyword for TASKI
  82:../../lib/lpc11cx4-library/lpc_chip_11cxx_lib/inc/core_cm0.h ****   #define __STATIC_INLINE  static inline
  83:../../lib/lpc11cx4-library/lpc_chip_11cxx_lib/inc/core_cm0.h **** 
  84:../../lib/lpc11cx4-library/lpc_chip_11cxx_lib/inc/core_cm0.h **** #endif
  85:../../lib/lpc11cx4-library/lpc_chip_11cxx_lib/inc/core_cm0.h **** 
  86:../../lib/lpc11cx4-library/lpc_chip_11cxx_lib/inc/core_cm0.h **** /** __FPU_USED indicates whether an FPU is used or not. This core does not support an FPU at all
  87:../../lib/lpc11cx4-library/lpc_chip_11cxx_lib/inc/core_cm0.h **** */
  88:../../lib/lpc11cx4-library/lpc_chip_11cxx_lib/inc/core_cm0.h **** #define __FPU_USED       0
  89:../../lib/lpc11cx4-library/lpc_chip_11cxx_lib/inc/core_cm0.h **** 
  90:../../lib/lpc11cx4-library/lpc_chip_11cxx_lib/inc/core_cm0.h **** #if defined ( __CC_ARM )
  91:../../lib/lpc11cx4-library/lpc_chip_11cxx_lib/inc/core_cm0.h ****   #if defined __TARGET_FPU_VFP
  92:../../lib/lpc11cx4-library/lpc_chip_11cxx_lib/inc/core_cm0.h ****     #warning "Compiler generates FPU instructions for a device without an FPU (check __FPU_PRESENT)
  93:../../lib/lpc11cx4-library/lpc_chip_11cxx_lib/inc/core_cm0.h ****   #endif
  94:../../lib/lpc11cx4-library/lpc_chip_11cxx_lib/inc/core_cm0.h **** 
  95:../../lib/lpc11cx4-library/lpc_chip_11cxx_lib/inc/core_cm0.h **** #elif defined ( __ICCARM__ )
  96:../../lib/lpc11cx4-library/lpc_chip_11cxx_lib/inc/core_cm0.h ****   #if defined __ARMVFP__
  97:../../lib/lpc11cx4-library/lpc_chip_11cxx_lib/inc/core_cm0.h ****     #warning "Compiler generates FPU instructions for a device without an FPU (check __FPU_PRESENT)
ARM GAS  /var/folders/z0/6xlwn_996xz3mwq1cgzkbq4r0000gp/T//ccjakVr1.s 			page 35


  98:../../lib/lpc11cx4-library/lpc_chip_11cxx_lib/inc/core_cm0.h ****   #endif
  99:../../lib/lpc11cx4-library/lpc_chip_11cxx_lib/inc/core_cm0.h **** 
 100:../../lib/lpc11cx4-library/lpc_chip_11cxx_lib/inc/core_cm0.h **** #elif defined ( __GNUC__ )
 101:../../lib/lpc11cx4-library/lpc_chip_11cxx_lib/inc/core_cm0.h ****   #if defined (__VFP_FP__) && !defined(__SOFTFP__)
 102:../../lib/lpc11cx4-library/lpc_chip_11cxx_lib/inc/core_cm0.h ****     #warning "Compiler generates FPU instructions for a device without an FPU (check __FPU_PRESENT)
 103:../../lib/lpc11cx4-library/lpc_chip_11cxx_lib/inc/core_cm0.h ****   #endif
 104:../../lib/lpc11cx4-library/lpc_chip_11cxx_lib/inc/core_cm0.h **** 
 105:../../lib/lpc11cx4-library/lpc_chip_11cxx_lib/inc/core_cm0.h **** #elif defined ( __TASKING__ )
 106:../../lib/lpc11cx4-library/lpc_chip_11cxx_lib/inc/core_cm0.h ****   #if defined __FPU_VFP__
 107:../../lib/lpc11cx4-library/lpc_chip_11cxx_lib/inc/core_cm0.h ****     #error "Compiler generates FPU instructions for a device without an FPU (check __FPU_PRESENT)"
 108:../../lib/lpc11cx4-library/lpc_chip_11cxx_lib/inc/core_cm0.h ****   #endif
 109:../../lib/lpc11cx4-library/lpc_chip_11cxx_lib/inc/core_cm0.h **** #endif
 110:../../lib/lpc11cx4-library/lpc_chip_11cxx_lib/inc/core_cm0.h **** 
 111:../../lib/lpc11cx4-library/lpc_chip_11cxx_lib/inc/core_cm0.h **** #include <stdint.h>                      /* standard types definitions                      */
 112:../../lib/lpc11cx4-library/lpc_chip_11cxx_lib/inc/core_cm0.h **** #include <core_cmInstr.h>                /* Core Instruction Access                         */
 113:../../lib/lpc11cx4-library/lpc_chip_11cxx_lib/inc/core_cm0.h **** #include <core_cmFunc.h>                 /* Core Function Access                            */
 114:../../lib/lpc11cx4-library/lpc_chip_11cxx_lib/inc/core_cm0.h **** 
 115:../../lib/lpc11cx4-library/lpc_chip_11cxx_lib/inc/core_cm0.h **** #endif /* __CORE_CM0_H_GENERIC */
 116:../../lib/lpc11cx4-library/lpc_chip_11cxx_lib/inc/core_cm0.h **** 
 117:../../lib/lpc11cx4-library/lpc_chip_11cxx_lib/inc/core_cm0.h **** #ifndef __CMSIS_GENERIC
 118:../../lib/lpc11cx4-library/lpc_chip_11cxx_lib/inc/core_cm0.h **** 
 119:../../lib/lpc11cx4-library/lpc_chip_11cxx_lib/inc/core_cm0.h **** #ifndef __CORE_CM0_H_DEPENDANT
 120:../../lib/lpc11cx4-library/lpc_chip_11cxx_lib/inc/core_cm0.h **** #define __CORE_CM0_H_DEPENDANT
 121:../../lib/lpc11cx4-library/lpc_chip_11cxx_lib/inc/core_cm0.h **** 
 122:../../lib/lpc11cx4-library/lpc_chip_11cxx_lib/inc/core_cm0.h **** /* check device defines and use defaults */
 123:../../lib/lpc11cx4-library/lpc_chip_11cxx_lib/inc/core_cm0.h **** #if defined __CHECK_DEVICE_DEFINES
 124:../../lib/lpc11cx4-library/lpc_chip_11cxx_lib/inc/core_cm0.h ****   #ifndef __CM0_REV
 125:../../lib/lpc11cx4-library/lpc_chip_11cxx_lib/inc/core_cm0.h ****     #define __CM0_REV               0x0000
 126:../../lib/lpc11cx4-library/lpc_chip_11cxx_lib/inc/core_cm0.h ****     #warning "__CM0_REV not defined in device header file; using default!"
 127:../../lib/lpc11cx4-library/lpc_chip_11cxx_lib/inc/core_cm0.h ****   #endif
 128:../../lib/lpc11cx4-library/lpc_chip_11cxx_lib/inc/core_cm0.h **** 
 129:../../lib/lpc11cx4-library/lpc_chip_11cxx_lib/inc/core_cm0.h ****   #ifndef __NVIC_PRIO_BITS
 130:../../lib/lpc11cx4-library/lpc_chip_11cxx_lib/inc/core_cm0.h ****     #define __NVIC_PRIO_BITS          2
 131:../../lib/lpc11cx4-library/lpc_chip_11cxx_lib/inc/core_cm0.h ****     #warning "__NVIC_PRIO_BITS not defined in device header file; using default!"
 132:../../lib/lpc11cx4-library/lpc_chip_11cxx_lib/inc/core_cm0.h ****   #endif
 133:../../lib/lpc11cx4-library/lpc_chip_11cxx_lib/inc/core_cm0.h **** 
 134:../../lib/lpc11cx4-library/lpc_chip_11cxx_lib/inc/core_cm0.h ****   #ifndef __Vendor_SysTickConfig
 135:../../lib/lpc11cx4-library/lpc_chip_11cxx_lib/inc/core_cm0.h ****     #define __Vendor_SysTickConfig    0
 136:../../lib/lpc11cx4-library/lpc_chip_11cxx_lib/inc/core_cm0.h ****     #warning "__Vendor_SysTickConfig not defined in device header file; using default!"
 137:../../lib/lpc11cx4-library/lpc_chip_11cxx_lib/inc/core_cm0.h ****   #endif
 138:../../lib/lpc11cx4-library/lpc_chip_11cxx_lib/inc/core_cm0.h **** #endif
 139:../../lib/lpc11cx4-library/lpc_chip_11cxx_lib/inc/core_cm0.h **** 
 140:../../lib/lpc11cx4-library/lpc_chip_11cxx_lib/inc/core_cm0.h **** /* IO definitions (access restrictions to peripheral registers) */
 141:../../lib/lpc11cx4-library/lpc_chip_11cxx_lib/inc/core_cm0.h **** /**
 142:../../lib/lpc11cx4-library/lpc_chip_11cxx_lib/inc/core_cm0.h ****     \defgroup CMSIS_glob_defs CMSIS Global Defines
 143:../../lib/lpc11cx4-library/lpc_chip_11cxx_lib/inc/core_cm0.h **** 
 144:../../lib/lpc11cx4-library/lpc_chip_11cxx_lib/inc/core_cm0.h ****     <strong>IO Type Qualifiers</strong> are used
 145:../../lib/lpc11cx4-library/lpc_chip_11cxx_lib/inc/core_cm0.h ****     \li to specify the access to peripheral variables.
 146:../../lib/lpc11cx4-library/lpc_chip_11cxx_lib/inc/core_cm0.h ****     \li for automatic generation of peripheral register debug information.
 147:../../lib/lpc11cx4-library/lpc_chip_11cxx_lib/inc/core_cm0.h **** */
 148:../../lib/lpc11cx4-library/lpc_chip_11cxx_lib/inc/core_cm0.h **** #ifdef __cplusplus
 149:../../lib/lpc11cx4-library/lpc_chip_11cxx_lib/inc/core_cm0.h ****   #define   __I     volatile             /*!< Defines 'read only' permissions                 */
 150:../../lib/lpc11cx4-library/lpc_chip_11cxx_lib/inc/core_cm0.h **** #else
 151:../../lib/lpc11cx4-library/lpc_chip_11cxx_lib/inc/core_cm0.h ****   #define   __I     volatile const       /*!< Defines 'read only' permissions                 */
 152:../../lib/lpc11cx4-library/lpc_chip_11cxx_lib/inc/core_cm0.h **** #endif
 153:../../lib/lpc11cx4-library/lpc_chip_11cxx_lib/inc/core_cm0.h **** #define     __O     volatile             /*!< Defines 'write only' permissions                */
 154:../../lib/lpc11cx4-library/lpc_chip_11cxx_lib/inc/core_cm0.h **** #define     __IO    volatile             /*!< Defines 'read / write' permissions              */
ARM GAS  /var/folders/z0/6xlwn_996xz3mwq1cgzkbq4r0000gp/T//ccjakVr1.s 			page 36


 155:../../lib/lpc11cx4-library/lpc_chip_11cxx_lib/inc/core_cm0.h **** 
 156:../../lib/lpc11cx4-library/lpc_chip_11cxx_lib/inc/core_cm0.h **** /*@} end of group Cortex_M0 */
 157:../../lib/lpc11cx4-library/lpc_chip_11cxx_lib/inc/core_cm0.h **** 
 158:../../lib/lpc11cx4-library/lpc_chip_11cxx_lib/inc/core_cm0.h **** 
 159:../../lib/lpc11cx4-library/lpc_chip_11cxx_lib/inc/core_cm0.h **** 
 160:../../lib/lpc11cx4-library/lpc_chip_11cxx_lib/inc/core_cm0.h **** /*******************************************************************************
 161:../../lib/lpc11cx4-library/lpc_chip_11cxx_lib/inc/core_cm0.h ****  *                 Register Abstraction
 162:../../lib/lpc11cx4-library/lpc_chip_11cxx_lib/inc/core_cm0.h ****   Core Register contain:
 163:../../lib/lpc11cx4-library/lpc_chip_11cxx_lib/inc/core_cm0.h ****   - Core Register
 164:../../lib/lpc11cx4-library/lpc_chip_11cxx_lib/inc/core_cm0.h ****   - Core NVIC Register
 165:../../lib/lpc11cx4-library/lpc_chip_11cxx_lib/inc/core_cm0.h ****   - Core SCB Register
 166:../../lib/lpc11cx4-library/lpc_chip_11cxx_lib/inc/core_cm0.h ****   - Core SysTick Register
 167:../../lib/lpc11cx4-library/lpc_chip_11cxx_lib/inc/core_cm0.h ****  ******************************************************************************/
 168:../../lib/lpc11cx4-library/lpc_chip_11cxx_lib/inc/core_cm0.h **** /** \defgroup CMSIS_core_register Defines and Type Definitions
 169:../../lib/lpc11cx4-library/lpc_chip_11cxx_lib/inc/core_cm0.h ****     \brief Type definitions and defines for Cortex-M processor based devices.
 170:../../lib/lpc11cx4-library/lpc_chip_11cxx_lib/inc/core_cm0.h **** */
 171:../../lib/lpc11cx4-library/lpc_chip_11cxx_lib/inc/core_cm0.h **** 
 172:../../lib/lpc11cx4-library/lpc_chip_11cxx_lib/inc/core_cm0.h **** /** \ingroup    CMSIS_core_register
 173:../../lib/lpc11cx4-library/lpc_chip_11cxx_lib/inc/core_cm0.h ****     \defgroup   CMSIS_CORE  Status and Control Registers
 174:../../lib/lpc11cx4-library/lpc_chip_11cxx_lib/inc/core_cm0.h ****     \brief  Core Register type definitions.
 175:../../lib/lpc11cx4-library/lpc_chip_11cxx_lib/inc/core_cm0.h ****   @{
 176:../../lib/lpc11cx4-library/lpc_chip_11cxx_lib/inc/core_cm0.h ****  */
 177:../../lib/lpc11cx4-library/lpc_chip_11cxx_lib/inc/core_cm0.h **** 
 178:../../lib/lpc11cx4-library/lpc_chip_11cxx_lib/inc/core_cm0.h **** /** \brief  Union type to access the Application Program Status Register (APSR).
 179:../../lib/lpc11cx4-library/lpc_chip_11cxx_lib/inc/core_cm0.h ****  */
 180:../../lib/lpc11cx4-library/lpc_chip_11cxx_lib/inc/core_cm0.h **** typedef union
 181:../../lib/lpc11cx4-library/lpc_chip_11cxx_lib/inc/core_cm0.h **** {
 182:../../lib/lpc11cx4-library/lpc_chip_11cxx_lib/inc/core_cm0.h ****   struct
 183:../../lib/lpc11cx4-library/lpc_chip_11cxx_lib/inc/core_cm0.h ****   {
 184:../../lib/lpc11cx4-library/lpc_chip_11cxx_lib/inc/core_cm0.h **** #if (__CORTEX_M != 0x04)
 185:../../lib/lpc11cx4-library/lpc_chip_11cxx_lib/inc/core_cm0.h ****     uint32_t _reserved0:27;              /*!< bit:  0..26  Reserved                           */
 186:../../lib/lpc11cx4-library/lpc_chip_11cxx_lib/inc/core_cm0.h **** #else
 187:../../lib/lpc11cx4-library/lpc_chip_11cxx_lib/inc/core_cm0.h ****     uint32_t _reserved0:16;              /*!< bit:  0..15  Reserved                           */
 188:../../lib/lpc11cx4-library/lpc_chip_11cxx_lib/inc/core_cm0.h ****     uint32_t GE:4;                       /*!< bit: 16..19  Greater than or Equal flags        */
 189:../../lib/lpc11cx4-library/lpc_chip_11cxx_lib/inc/core_cm0.h ****     uint32_t _reserved1:7;               /*!< bit: 20..26  Reserved                           */
 190:../../lib/lpc11cx4-library/lpc_chip_11cxx_lib/inc/core_cm0.h **** #endif
 191:../../lib/lpc11cx4-library/lpc_chip_11cxx_lib/inc/core_cm0.h ****     uint32_t Q:1;                        /*!< bit:     27  Saturation condition flag          */
 192:../../lib/lpc11cx4-library/lpc_chip_11cxx_lib/inc/core_cm0.h ****     uint32_t V:1;                        /*!< bit:     28  Overflow condition code flag       */
 193:../../lib/lpc11cx4-library/lpc_chip_11cxx_lib/inc/core_cm0.h ****     uint32_t C:1;                        /*!< bit:     29  Carry condition code flag          */
 194:../../lib/lpc11cx4-library/lpc_chip_11cxx_lib/inc/core_cm0.h ****     uint32_t Z:1;                        /*!< bit:     30  Zero condition code flag           */
 195:../../lib/lpc11cx4-library/lpc_chip_11cxx_lib/inc/core_cm0.h ****     uint32_t N:1;                        /*!< bit:     31  Negative condition code flag       */
 196:../../lib/lpc11cx4-library/lpc_chip_11cxx_lib/inc/core_cm0.h ****   } b;                                   /*!< Structure used for bit  access                  */
 197:../../lib/lpc11cx4-library/lpc_chip_11cxx_lib/inc/core_cm0.h ****   uint32_t w;                            /*!< Type      used for word access                  */
 198:../../lib/lpc11cx4-library/lpc_chip_11cxx_lib/inc/core_cm0.h **** } APSR_Type;
 199:../../lib/lpc11cx4-library/lpc_chip_11cxx_lib/inc/core_cm0.h **** 
 200:../../lib/lpc11cx4-library/lpc_chip_11cxx_lib/inc/core_cm0.h **** 
 201:../../lib/lpc11cx4-library/lpc_chip_11cxx_lib/inc/core_cm0.h **** /** \brief  Union type to access the Interrupt Program Status Register (IPSR).
 202:../../lib/lpc11cx4-library/lpc_chip_11cxx_lib/inc/core_cm0.h ****  */
 203:../../lib/lpc11cx4-library/lpc_chip_11cxx_lib/inc/core_cm0.h **** typedef union
 204:../../lib/lpc11cx4-library/lpc_chip_11cxx_lib/inc/core_cm0.h **** {
 205:../../lib/lpc11cx4-library/lpc_chip_11cxx_lib/inc/core_cm0.h ****   struct
 206:../../lib/lpc11cx4-library/lpc_chip_11cxx_lib/inc/core_cm0.h ****   {
 207:../../lib/lpc11cx4-library/lpc_chip_11cxx_lib/inc/core_cm0.h ****     uint32_t ISR:9;                      /*!< bit:  0.. 8  Exception number                   */
 208:../../lib/lpc11cx4-library/lpc_chip_11cxx_lib/inc/core_cm0.h ****     uint32_t _reserved0:23;              /*!< bit:  9..31  Reserved                           */
 209:../../lib/lpc11cx4-library/lpc_chip_11cxx_lib/inc/core_cm0.h ****   } b;                                   /*!< Structure used for bit  access                  */
 210:../../lib/lpc11cx4-library/lpc_chip_11cxx_lib/inc/core_cm0.h ****   uint32_t w;                            /*!< Type      used for word access                  */
 211:../../lib/lpc11cx4-library/lpc_chip_11cxx_lib/inc/core_cm0.h **** } IPSR_Type;
ARM GAS  /var/folders/z0/6xlwn_996xz3mwq1cgzkbq4r0000gp/T//ccjakVr1.s 			page 37


 212:../../lib/lpc11cx4-library/lpc_chip_11cxx_lib/inc/core_cm0.h **** 
 213:../../lib/lpc11cx4-library/lpc_chip_11cxx_lib/inc/core_cm0.h **** 
 214:../../lib/lpc11cx4-library/lpc_chip_11cxx_lib/inc/core_cm0.h **** /** \brief  Union type to access the Special-Purpose Program Status Registers (xPSR).
 215:../../lib/lpc11cx4-library/lpc_chip_11cxx_lib/inc/core_cm0.h ****  */
 216:../../lib/lpc11cx4-library/lpc_chip_11cxx_lib/inc/core_cm0.h **** typedef union
 217:../../lib/lpc11cx4-library/lpc_chip_11cxx_lib/inc/core_cm0.h **** {
 218:../../lib/lpc11cx4-library/lpc_chip_11cxx_lib/inc/core_cm0.h ****   struct
 219:../../lib/lpc11cx4-library/lpc_chip_11cxx_lib/inc/core_cm0.h ****   {
 220:../../lib/lpc11cx4-library/lpc_chip_11cxx_lib/inc/core_cm0.h ****     uint32_t ISR:9;                      /*!< bit:  0.. 8  Exception number                   */
 221:../../lib/lpc11cx4-library/lpc_chip_11cxx_lib/inc/core_cm0.h **** #if (__CORTEX_M != 0x04)
 222:../../lib/lpc11cx4-library/lpc_chip_11cxx_lib/inc/core_cm0.h ****     uint32_t _reserved0:15;              /*!< bit:  9..23  Reserved                           */
 223:../../lib/lpc11cx4-library/lpc_chip_11cxx_lib/inc/core_cm0.h **** #else
 224:../../lib/lpc11cx4-library/lpc_chip_11cxx_lib/inc/core_cm0.h ****     uint32_t _reserved0:7;               /*!< bit:  9..15  Reserved                           */
 225:../../lib/lpc11cx4-library/lpc_chip_11cxx_lib/inc/core_cm0.h ****     uint32_t GE:4;                       /*!< bit: 16..19  Greater than or Equal flags        */
 226:../../lib/lpc11cx4-library/lpc_chip_11cxx_lib/inc/core_cm0.h ****     uint32_t _reserved1:4;               /*!< bit: 20..23  Reserved                           */
 227:../../lib/lpc11cx4-library/lpc_chip_11cxx_lib/inc/core_cm0.h **** #endif
 228:../../lib/lpc11cx4-library/lpc_chip_11cxx_lib/inc/core_cm0.h ****     uint32_t T:1;                        /*!< bit:     24  Thumb bit        (read 0)          */
 229:../../lib/lpc11cx4-library/lpc_chip_11cxx_lib/inc/core_cm0.h ****     uint32_t IT:2;                       /*!< bit: 25..26  saved IT state   (read 0)          */
 230:../../lib/lpc11cx4-library/lpc_chip_11cxx_lib/inc/core_cm0.h ****     uint32_t Q:1;                        /*!< bit:     27  Saturation condition flag          */
 231:../../lib/lpc11cx4-library/lpc_chip_11cxx_lib/inc/core_cm0.h ****     uint32_t V:1;                        /*!< bit:     28  Overflow condition code flag       */
 232:../../lib/lpc11cx4-library/lpc_chip_11cxx_lib/inc/core_cm0.h ****     uint32_t C:1;                        /*!< bit:     29  Carry condition code flag          */
 233:../../lib/lpc11cx4-library/lpc_chip_11cxx_lib/inc/core_cm0.h ****     uint32_t Z:1;                        /*!< bit:     30  Zero condition code flag           */
 234:../../lib/lpc11cx4-library/lpc_chip_11cxx_lib/inc/core_cm0.h ****     uint32_t N:1;                        /*!< bit:     31  Negative condition code flag       */
 235:../../lib/lpc11cx4-library/lpc_chip_11cxx_lib/inc/core_cm0.h ****   } b;                                   /*!< Structure used for bit  access                  */
 236:../../lib/lpc11cx4-library/lpc_chip_11cxx_lib/inc/core_cm0.h ****   uint32_t w;                            /*!< Type      used for word access                  */
 237:../../lib/lpc11cx4-library/lpc_chip_11cxx_lib/inc/core_cm0.h **** } xPSR_Type;
 238:../../lib/lpc11cx4-library/lpc_chip_11cxx_lib/inc/core_cm0.h **** 
 239:../../lib/lpc11cx4-library/lpc_chip_11cxx_lib/inc/core_cm0.h **** 
 240:../../lib/lpc11cx4-library/lpc_chip_11cxx_lib/inc/core_cm0.h **** /** \brief  Union type to access the Control Registers (CONTROL).
 241:../../lib/lpc11cx4-library/lpc_chip_11cxx_lib/inc/core_cm0.h ****  */
 242:../../lib/lpc11cx4-library/lpc_chip_11cxx_lib/inc/core_cm0.h **** typedef union
 243:../../lib/lpc11cx4-library/lpc_chip_11cxx_lib/inc/core_cm0.h **** {
 244:../../lib/lpc11cx4-library/lpc_chip_11cxx_lib/inc/core_cm0.h ****   struct
 245:../../lib/lpc11cx4-library/lpc_chip_11cxx_lib/inc/core_cm0.h ****   {
 246:../../lib/lpc11cx4-library/lpc_chip_11cxx_lib/inc/core_cm0.h ****     uint32_t nPRIV:1;                    /*!< bit:      0  Execution privilege in Thread mode */
 247:../../lib/lpc11cx4-library/lpc_chip_11cxx_lib/inc/core_cm0.h ****     uint32_t SPSEL:1;                    /*!< bit:      1  Stack to be used                   */
 248:../../lib/lpc11cx4-library/lpc_chip_11cxx_lib/inc/core_cm0.h ****     uint32_t FPCA:1;                     /*!< bit:      2  FP extension active flag           */
 249:../../lib/lpc11cx4-library/lpc_chip_11cxx_lib/inc/core_cm0.h ****     uint32_t _reserved0:29;              /*!< bit:  3..31  Reserved                           */
 250:../../lib/lpc11cx4-library/lpc_chip_11cxx_lib/inc/core_cm0.h ****   } b;                                   /*!< Structure used for bit  access                  */
 251:../../lib/lpc11cx4-library/lpc_chip_11cxx_lib/inc/core_cm0.h ****   uint32_t w;                            /*!< Type      used for word access                  */
 252:../../lib/lpc11cx4-library/lpc_chip_11cxx_lib/inc/core_cm0.h **** } CONTROL_Type;
 253:../../lib/lpc11cx4-library/lpc_chip_11cxx_lib/inc/core_cm0.h **** 
 254:../../lib/lpc11cx4-library/lpc_chip_11cxx_lib/inc/core_cm0.h **** /*@} end of group CMSIS_CORE */
 255:../../lib/lpc11cx4-library/lpc_chip_11cxx_lib/inc/core_cm0.h **** 
 256:../../lib/lpc11cx4-library/lpc_chip_11cxx_lib/inc/core_cm0.h **** 
 257:../../lib/lpc11cx4-library/lpc_chip_11cxx_lib/inc/core_cm0.h **** /** \ingroup    CMSIS_core_register
 258:../../lib/lpc11cx4-library/lpc_chip_11cxx_lib/inc/core_cm0.h ****     \defgroup   CMSIS_NVIC  Nested Vectored Interrupt Controller (NVIC)
 259:../../lib/lpc11cx4-library/lpc_chip_11cxx_lib/inc/core_cm0.h ****     \brief      Type definitions for the NVIC Registers
 260:../../lib/lpc11cx4-library/lpc_chip_11cxx_lib/inc/core_cm0.h ****   @{
 261:../../lib/lpc11cx4-library/lpc_chip_11cxx_lib/inc/core_cm0.h ****  */
 262:../../lib/lpc11cx4-library/lpc_chip_11cxx_lib/inc/core_cm0.h **** 
 263:../../lib/lpc11cx4-library/lpc_chip_11cxx_lib/inc/core_cm0.h **** /** \brief  Structure type to access the Nested Vectored Interrupt Controller (NVIC).
 264:../../lib/lpc11cx4-library/lpc_chip_11cxx_lib/inc/core_cm0.h ****  */
 265:../../lib/lpc11cx4-library/lpc_chip_11cxx_lib/inc/core_cm0.h **** typedef struct
 266:../../lib/lpc11cx4-library/lpc_chip_11cxx_lib/inc/core_cm0.h **** {
 267:../../lib/lpc11cx4-library/lpc_chip_11cxx_lib/inc/core_cm0.h ****   __IO uint32_t ISER[1];                 /*!< Offset: 0x000 (R/W)  Interrupt Set Enable Register   
 268:../../lib/lpc11cx4-library/lpc_chip_11cxx_lib/inc/core_cm0.h ****        uint32_t RESERVED0[31];
ARM GAS  /var/folders/z0/6xlwn_996xz3mwq1cgzkbq4r0000gp/T//ccjakVr1.s 			page 38


 269:../../lib/lpc11cx4-library/lpc_chip_11cxx_lib/inc/core_cm0.h ****   __IO uint32_t ICER[1];                 /*!< Offset: 0x080 (R/W)  Interrupt Clear Enable Register 
 270:../../lib/lpc11cx4-library/lpc_chip_11cxx_lib/inc/core_cm0.h ****        uint32_t RSERVED1[31];
 271:../../lib/lpc11cx4-library/lpc_chip_11cxx_lib/inc/core_cm0.h ****   __IO uint32_t ISPR[1];                 /*!< Offset: 0x100 (R/W)  Interrupt Set Pending Register  
 272:../../lib/lpc11cx4-library/lpc_chip_11cxx_lib/inc/core_cm0.h ****        uint32_t RESERVED2[31];
 273:../../lib/lpc11cx4-library/lpc_chip_11cxx_lib/inc/core_cm0.h ****   __IO uint32_t ICPR[1];                 /*!< Offset: 0x180 (R/W)  Interrupt Clear Pending Register
 274:../../lib/lpc11cx4-library/lpc_chip_11cxx_lib/inc/core_cm0.h ****        uint32_t RESERVED3[31];
 275:../../lib/lpc11cx4-library/lpc_chip_11cxx_lib/inc/core_cm0.h ****        uint32_t RESERVED4[64];
 276:../../lib/lpc11cx4-library/lpc_chip_11cxx_lib/inc/core_cm0.h ****   __IO uint32_t IP[8];                   /*!< Offset: 0x300 (R/W)  Interrupt Priority Register     
 277:../../lib/lpc11cx4-library/lpc_chip_11cxx_lib/inc/core_cm0.h **** }  NVIC_Type;
 278:../../lib/lpc11cx4-library/lpc_chip_11cxx_lib/inc/core_cm0.h **** 
 279:../../lib/lpc11cx4-library/lpc_chip_11cxx_lib/inc/core_cm0.h **** /*@} end of group CMSIS_NVIC */
 280:../../lib/lpc11cx4-library/lpc_chip_11cxx_lib/inc/core_cm0.h **** 
 281:../../lib/lpc11cx4-library/lpc_chip_11cxx_lib/inc/core_cm0.h **** 
 282:../../lib/lpc11cx4-library/lpc_chip_11cxx_lib/inc/core_cm0.h **** /** \ingroup  CMSIS_core_register
 283:../../lib/lpc11cx4-library/lpc_chip_11cxx_lib/inc/core_cm0.h ****     \defgroup CMSIS_SCB     System Control Block (SCB)
 284:../../lib/lpc11cx4-library/lpc_chip_11cxx_lib/inc/core_cm0.h ****     \brief      Type definitions for the System Control Block Registers
 285:../../lib/lpc11cx4-library/lpc_chip_11cxx_lib/inc/core_cm0.h ****   @{
 286:../../lib/lpc11cx4-library/lpc_chip_11cxx_lib/inc/core_cm0.h ****  */
 287:../../lib/lpc11cx4-library/lpc_chip_11cxx_lib/inc/core_cm0.h **** 
 288:../../lib/lpc11cx4-library/lpc_chip_11cxx_lib/inc/core_cm0.h **** /** \brief  Structure type to access the System Control Block (SCB).
 289:../../lib/lpc11cx4-library/lpc_chip_11cxx_lib/inc/core_cm0.h ****  */
 290:../../lib/lpc11cx4-library/lpc_chip_11cxx_lib/inc/core_cm0.h **** typedef struct
 291:../../lib/lpc11cx4-library/lpc_chip_11cxx_lib/inc/core_cm0.h **** {
 292:../../lib/lpc11cx4-library/lpc_chip_11cxx_lib/inc/core_cm0.h ****   __I  uint32_t CPUID;                   /*!< Offset: 0x000 (R/ )  CPUID Base Register             
 293:../../lib/lpc11cx4-library/lpc_chip_11cxx_lib/inc/core_cm0.h ****   __IO uint32_t ICSR;                    /*!< Offset: 0x004 (R/W)  Interrupt Control and State Regi
 294:../../lib/lpc11cx4-library/lpc_chip_11cxx_lib/inc/core_cm0.h ****        uint32_t RESERVED0;
 295:../../lib/lpc11cx4-library/lpc_chip_11cxx_lib/inc/core_cm0.h ****   __IO uint32_t AIRCR;                   /*!< Offset: 0x00C (R/W)  Application Interrupt and Reset 
 296:../../lib/lpc11cx4-library/lpc_chip_11cxx_lib/inc/core_cm0.h ****   __IO uint32_t SCR;                     /*!< Offset: 0x010 (R/W)  System Control Register         
 297:../../lib/lpc11cx4-library/lpc_chip_11cxx_lib/inc/core_cm0.h ****   __IO uint32_t CCR;                     /*!< Offset: 0x014 (R/W)  Configuration Control Register  
 298:../../lib/lpc11cx4-library/lpc_chip_11cxx_lib/inc/core_cm0.h ****        uint32_t RESERVED1;
 299:../../lib/lpc11cx4-library/lpc_chip_11cxx_lib/inc/core_cm0.h ****   __IO uint32_t SHP[2];                  /*!< Offset: 0x01C (R/W)  System Handlers Priority Registe
 300:../../lib/lpc11cx4-library/lpc_chip_11cxx_lib/inc/core_cm0.h ****   __IO uint32_t SHCSR;                   /*!< Offset: 0x024 (R/W)  System Handler Control and State
 301:../../lib/lpc11cx4-library/lpc_chip_11cxx_lib/inc/core_cm0.h **** } SCB_Type;
 302:../../lib/lpc11cx4-library/lpc_chip_11cxx_lib/inc/core_cm0.h **** 
 303:../../lib/lpc11cx4-library/lpc_chip_11cxx_lib/inc/core_cm0.h **** /* SCB CPUID Register Definitions */
 304:../../lib/lpc11cx4-library/lpc_chip_11cxx_lib/inc/core_cm0.h **** #define SCB_CPUID_IMPLEMENTER_Pos          24                                             /*!< SCB 
 305:../../lib/lpc11cx4-library/lpc_chip_11cxx_lib/inc/core_cm0.h **** #define SCB_CPUID_IMPLEMENTER_Msk          (0xFFUL << SCB_CPUID_IMPLEMENTER_Pos)          /*!< SCB 
 306:../../lib/lpc11cx4-library/lpc_chip_11cxx_lib/inc/core_cm0.h **** 
 307:../../lib/lpc11cx4-library/lpc_chip_11cxx_lib/inc/core_cm0.h **** #define SCB_CPUID_VARIANT_Pos              20                                             /*!< SCB 
 308:../../lib/lpc11cx4-library/lpc_chip_11cxx_lib/inc/core_cm0.h **** #define SCB_CPUID_VARIANT_Msk              (0xFUL << SCB_CPUID_VARIANT_Pos)               /*!< SCB 
 309:../../lib/lpc11cx4-library/lpc_chip_11cxx_lib/inc/core_cm0.h **** 
 310:../../lib/lpc11cx4-library/lpc_chip_11cxx_lib/inc/core_cm0.h **** #define SCB_CPUID_ARCHITECTURE_Pos         16                                             /*!< SCB 
 311:../../lib/lpc11cx4-library/lpc_chip_11cxx_lib/inc/core_cm0.h **** #define SCB_CPUID_ARCHITECTURE_Msk         (0xFUL << SCB_CPUID_ARCHITECTURE_Pos)          /*!< SCB 
 312:../../lib/lpc11cx4-library/lpc_chip_11cxx_lib/inc/core_cm0.h **** 
 313:../../lib/lpc11cx4-library/lpc_chip_11cxx_lib/inc/core_cm0.h **** #define SCB_CPUID_PARTNO_Pos                4                                             /*!< SCB 
 314:../../lib/lpc11cx4-library/lpc_chip_11cxx_lib/inc/core_cm0.h **** #define SCB_CPUID_PARTNO_Msk               (0xFFFUL << SCB_CPUID_PARTNO_Pos)              /*!< SCB 
 315:../../lib/lpc11cx4-library/lpc_chip_11cxx_lib/inc/core_cm0.h **** 
 316:../../lib/lpc11cx4-library/lpc_chip_11cxx_lib/inc/core_cm0.h **** #define SCB_CPUID_REVISION_Pos              0                                             /*!< SCB 
 317:../../lib/lpc11cx4-library/lpc_chip_11cxx_lib/inc/core_cm0.h **** #define SCB_CPUID_REVISION_Msk             (0xFUL << SCB_CPUID_REVISION_Pos)              /*!< SCB 
 318:../../lib/lpc11cx4-library/lpc_chip_11cxx_lib/inc/core_cm0.h **** 
 319:../../lib/lpc11cx4-library/lpc_chip_11cxx_lib/inc/core_cm0.h **** /* SCB Interrupt Control State Register Definitions */
 320:../../lib/lpc11cx4-library/lpc_chip_11cxx_lib/inc/core_cm0.h **** #define SCB_ICSR_NMIPENDSET_Pos            31                                             /*!< SCB 
 321:../../lib/lpc11cx4-library/lpc_chip_11cxx_lib/inc/core_cm0.h **** #define SCB_ICSR_NMIPENDSET_Msk            (1UL << SCB_ICSR_NMIPENDSET_Pos)               /*!< SCB 
 322:../../lib/lpc11cx4-library/lpc_chip_11cxx_lib/inc/core_cm0.h **** 
 323:../../lib/lpc11cx4-library/lpc_chip_11cxx_lib/inc/core_cm0.h **** #define SCB_ICSR_PENDSVSET_Pos             28                                             /*!< SCB 
 324:../../lib/lpc11cx4-library/lpc_chip_11cxx_lib/inc/core_cm0.h **** #define SCB_ICSR_PENDSVSET_Msk             (1UL << SCB_ICSR_PENDSVSET_Pos)                /*!< SCB 
 325:../../lib/lpc11cx4-library/lpc_chip_11cxx_lib/inc/core_cm0.h **** 
ARM GAS  /var/folders/z0/6xlwn_996xz3mwq1cgzkbq4r0000gp/T//ccjakVr1.s 			page 39


 326:../../lib/lpc11cx4-library/lpc_chip_11cxx_lib/inc/core_cm0.h **** #define SCB_ICSR_PENDSVCLR_Pos             27                                             /*!< SCB 
 327:../../lib/lpc11cx4-library/lpc_chip_11cxx_lib/inc/core_cm0.h **** #define SCB_ICSR_PENDSVCLR_Msk             (1UL << SCB_ICSR_PENDSVCLR_Pos)                /*!< SCB 
 328:../../lib/lpc11cx4-library/lpc_chip_11cxx_lib/inc/core_cm0.h **** 
 329:../../lib/lpc11cx4-library/lpc_chip_11cxx_lib/inc/core_cm0.h **** #define SCB_ICSR_PENDSTSET_Pos             26                                             /*!< SCB 
 330:../../lib/lpc11cx4-library/lpc_chip_11cxx_lib/inc/core_cm0.h **** #define SCB_ICSR_PENDSTSET_Msk             (1UL << SCB_ICSR_PENDSTSET_Pos)                /*!< SCB 
 331:../../lib/lpc11cx4-library/lpc_chip_11cxx_lib/inc/core_cm0.h **** 
 332:../../lib/lpc11cx4-library/lpc_chip_11cxx_lib/inc/core_cm0.h **** #define SCB_ICSR_PENDSTCLR_Pos             25                                             /*!< SCB 
 333:../../lib/lpc11cx4-library/lpc_chip_11cxx_lib/inc/core_cm0.h **** #define SCB_ICSR_PENDSTCLR_Msk             (1UL << SCB_ICSR_PENDSTCLR_Pos)                /*!< SCB 
 334:../../lib/lpc11cx4-library/lpc_chip_11cxx_lib/inc/core_cm0.h **** 
 335:../../lib/lpc11cx4-library/lpc_chip_11cxx_lib/inc/core_cm0.h **** #define SCB_ICSR_ISRPREEMPT_Pos            23                                             /*!< SCB 
 336:../../lib/lpc11cx4-library/lpc_chip_11cxx_lib/inc/core_cm0.h **** #define SCB_ICSR_ISRPREEMPT_Msk            (1UL << SCB_ICSR_ISRPREEMPT_Pos)               /*!< SCB 
 337:../../lib/lpc11cx4-library/lpc_chip_11cxx_lib/inc/core_cm0.h **** 
 338:../../lib/lpc11cx4-library/lpc_chip_11cxx_lib/inc/core_cm0.h **** #define SCB_ICSR_ISRPENDING_Pos            22                                             /*!< SCB 
 339:../../lib/lpc11cx4-library/lpc_chip_11cxx_lib/inc/core_cm0.h **** #define SCB_ICSR_ISRPENDING_Msk            (1UL << SCB_ICSR_ISRPENDING_Pos)               /*!< SCB 
 340:../../lib/lpc11cx4-library/lpc_chip_11cxx_lib/inc/core_cm0.h **** 
 341:../../lib/lpc11cx4-library/lpc_chip_11cxx_lib/inc/core_cm0.h **** #define SCB_ICSR_VECTPENDING_Pos           12                                             /*!< SCB 
 342:../../lib/lpc11cx4-library/lpc_chip_11cxx_lib/inc/core_cm0.h **** #define SCB_ICSR_VECTPENDING_Msk           (0x1FFUL << SCB_ICSR_VECTPENDING_Pos)          /*!< SCB 
 343:../../lib/lpc11cx4-library/lpc_chip_11cxx_lib/inc/core_cm0.h **** 
 344:../../lib/lpc11cx4-library/lpc_chip_11cxx_lib/inc/core_cm0.h **** #define SCB_ICSR_VECTACTIVE_Pos             0                                             /*!< SCB 
 345:../../lib/lpc11cx4-library/lpc_chip_11cxx_lib/inc/core_cm0.h **** #define SCB_ICSR_VECTACTIVE_Msk            (0x1FFUL << SCB_ICSR_VECTACTIVE_Pos)           /*!< SCB 
 346:../../lib/lpc11cx4-library/lpc_chip_11cxx_lib/inc/core_cm0.h **** 
 347:../../lib/lpc11cx4-library/lpc_chip_11cxx_lib/inc/core_cm0.h **** /* SCB Application Interrupt and Reset Control Register Definitions */
 348:../../lib/lpc11cx4-library/lpc_chip_11cxx_lib/inc/core_cm0.h **** #define SCB_AIRCR_VECTKEY_Pos              16                                             /*!< SCB 
 349:../../lib/lpc11cx4-library/lpc_chip_11cxx_lib/inc/core_cm0.h **** #define SCB_AIRCR_VECTKEY_Msk              (0xFFFFUL << SCB_AIRCR_VECTKEY_Pos)            /*!< SCB 
 350:../../lib/lpc11cx4-library/lpc_chip_11cxx_lib/inc/core_cm0.h **** 
 351:../../lib/lpc11cx4-library/lpc_chip_11cxx_lib/inc/core_cm0.h **** #define SCB_AIRCR_VECTKEYSTAT_Pos          16                                             /*!< SCB 
 352:../../lib/lpc11cx4-library/lpc_chip_11cxx_lib/inc/core_cm0.h **** #define SCB_AIRCR_VECTKEYSTAT_Msk          (0xFFFFUL << SCB_AIRCR_VECTKEYSTAT_Pos)        /*!< SCB 
 353:../../lib/lpc11cx4-library/lpc_chip_11cxx_lib/inc/core_cm0.h **** 
 354:../../lib/lpc11cx4-library/lpc_chip_11cxx_lib/inc/core_cm0.h **** #define SCB_AIRCR_ENDIANESS_Pos            15                                             /*!< SCB 
 355:../../lib/lpc11cx4-library/lpc_chip_11cxx_lib/inc/core_cm0.h **** #define SCB_AIRCR_ENDIANESS_Msk            (1UL << SCB_AIRCR_ENDIANESS_Pos)               /*!< SCB 
 356:../../lib/lpc11cx4-library/lpc_chip_11cxx_lib/inc/core_cm0.h **** 
 357:../../lib/lpc11cx4-library/lpc_chip_11cxx_lib/inc/core_cm0.h **** #define SCB_AIRCR_SYSRESETREQ_Pos           2                                             /*!< SCB 
 358:../../lib/lpc11cx4-library/lpc_chip_11cxx_lib/inc/core_cm0.h **** #define SCB_AIRCR_SYSRESETREQ_Msk          (1UL << SCB_AIRCR_SYSRESETREQ_Pos)             /*!< SCB 
 359:../../lib/lpc11cx4-library/lpc_chip_11cxx_lib/inc/core_cm0.h **** 
 360:../../lib/lpc11cx4-library/lpc_chip_11cxx_lib/inc/core_cm0.h **** #define SCB_AIRCR_VECTCLRACTIVE_Pos         1                                             /*!< SCB 
 361:../../lib/lpc11cx4-library/lpc_chip_11cxx_lib/inc/core_cm0.h **** #define SCB_AIRCR_VECTCLRACTIVE_Msk        (1UL << SCB_AIRCR_VECTCLRACTIVE_Pos)           /*!< SCB 
 362:../../lib/lpc11cx4-library/lpc_chip_11cxx_lib/inc/core_cm0.h **** 
 363:../../lib/lpc11cx4-library/lpc_chip_11cxx_lib/inc/core_cm0.h **** /* SCB System Control Register Definitions */
 364:../../lib/lpc11cx4-library/lpc_chip_11cxx_lib/inc/core_cm0.h **** #define SCB_SCR_SEVONPEND_Pos               4                                             /*!< SCB 
 365:../../lib/lpc11cx4-library/lpc_chip_11cxx_lib/inc/core_cm0.h **** #define SCB_SCR_SEVONPEND_Msk              (1UL << SCB_SCR_SEVONPEND_Pos)                 /*!< SCB 
 366:../../lib/lpc11cx4-library/lpc_chip_11cxx_lib/inc/core_cm0.h **** 
 367:../../lib/lpc11cx4-library/lpc_chip_11cxx_lib/inc/core_cm0.h **** #define SCB_SCR_SLEEPDEEP_Pos               2                                             /*!< SCB 
 368:../../lib/lpc11cx4-library/lpc_chip_11cxx_lib/inc/core_cm0.h **** #define SCB_SCR_SLEEPDEEP_Msk              (1UL << SCB_SCR_SLEEPDEEP_Pos)                 /*!< SCB 
 369:../../lib/lpc11cx4-library/lpc_chip_11cxx_lib/inc/core_cm0.h **** 
 370:../../lib/lpc11cx4-library/lpc_chip_11cxx_lib/inc/core_cm0.h **** #define SCB_SCR_SLEEPONEXIT_Pos             1                                             /*!< SCB 
 371:../../lib/lpc11cx4-library/lpc_chip_11cxx_lib/inc/core_cm0.h **** #define SCB_SCR_SLEEPONEXIT_Msk            (1UL << SCB_SCR_SLEEPONEXIT_Pos)               /*!< SCB 
 372:../../lib/lpc11cx4-library/lpc_chip_11cxx_lib/inc/core_cm0.h **** 
 373:../../lib/lpc11cx4-library/lpc_chip_11cxx_lib/inc/core_cm0.h **** /* SCB Configuration Control Register Definitions */
 374:../../lib/lpc11cx4-library/lpc_chip_11cxx_lib/inc/core_cm0.h **** #define SCB_CCR_STKALIGN_Pos                9                                             /*!< SCB 
 375:../../lib/lpc11cx4-library/lpc_chip_11cxx_lib/inc/core_cm0.h **** #define SCB_CCR_STKALIGN_Msk               (1UL << SCB_CCR_STKALIGN_Pos)                  /*!< SCB 
 376:../../lib/lpc11cx4-library/lpc_chip_11cxx_lib/inc/core_cm0.h **** 
 377:../../lib/lpc11cx4-library/lpc_chip_11cxx_lib/inc/core_cm0.h **** #define SCB_CCR_UNALIGN_TRP_Pos             3                                             /*!< SCB 
 378:../../lib/lpc11cx4-library/lpc_chip_11cxx_lib/inc/core_cm0.h **** #define SCB_CCR_UNALIGN_TRP_Msk            (1UL << SCB_CCR_UNALIGN_TRP_Pos)               /*!< SCB 
 379:../../lib/lpc11cx4-library/lpc_chip_11cxx_lib/inc/core_cm0.h **** 
 380:../../lib/lpc11cx4-library/lpc_chip_11cxx_lib/inc/core_cm0.h **** /* SCB System Handler Control and State Register Definitions */
 381:../../lib/lpc11cx4-library/lpc_chip_11cxx_lib/inc/core_cm0.h **** #define SCB_SHCSR_SVCALLPENDED_Pos         15                                             /*!< SCB 
 382:../../lib/lpc11cx4-library/lpc_chip_11cxx_lib/inc/core_cm0.h **** #define SCB_SHCSR_SVCALLPENDED_Msk         (1UL << SCB_SHCSR_SVCALLPENDED_Pos)            /*!< SCB 
ARM GAS  /var/folders/z0/6xlwn_996xz3mwq1cgzkbq4r0000gp/T//ccjakVr1.s 			page 40


 383:../../lib/lpc11cx4-library/lpc_chip_11cxx_lib/inc/core_cm0.h **** 
 384:../../lib/lpc11cx4-library/lpc_chip_11cxx_lib/inc/core_cm0.h **** /*@} end of group CMSIS_SCB */
 385:../../lib/lpc11cx4-library/lpc_chip_11cxx_lib/inc/core_cm0.h **** 
 386:../../lib/lpc11cx4-library/lpc_chip_11cxx_lib/inc/core_cm0.h **** 
 387:../../lib/lpc11cx4-library/lpc_chip_11cxx_lib/inc/core_cm0.h **** /** \ingroup  CMSIS_core_register
 388:../../lib/lpc11cx4-library/lpc_chip_11cxx_lib/inc/core_cm0.h ****     \defgroup CMSIS_SysTick     System Tick Timer (SysTick)
 389:../../lib/lpc11cx4-library/lpc_chip_11cxx_lib/inc/core_cm0.h ****     \brief      Type definitions for the System Timer Registers.
 390:../../lib/lpc11cx4-library/lpc_chip_11cxx_lib/inc/core_cm0.h ****   @{
 391:../../lib/lpc11cx4-library/lpc_chip_11cxx_lib/inc/core_cm0.h ****  */
 392:../../lib/lpc11cx4-library/lpc_chip_11cxx_lib/inc/core_cm0.h **** 
 393:../../lib/lpc11cx4-library/lpc_chip_11cxx_lib/inc/core_cm0.h **** /** \brief  Structure type to access the System Timer (SysTick).
 394:../../lib/lpc11cx4-library/lpc_chip_11cxx_lib/inc/core_cm0.h ****  */
 395:../../lib/lpc11cx4-library/lpc_chip_11cxx_lib/inc/core_cm0.h **** typedef struct
 396:../../lib/lpc11cx4-library/lpc_chip_11cxx_lib/inc/core_cm0.h **** {
 397:../../lib/lpc11cx4-library/lpc_chip_11cxx_lib/inc/core_cm0.h ****   __IO uint32_t CTRL;                    /*!< Offset: 0x000 (R/W)  SysTick Control and Status Regis
 398:../../lib/lpc11cx4-library/lpc_chip_11cxx_lib/inc/core_cm0.h ****   __IO uint32_t LOAD;                    /*!< Offset: 0x004 (R/W)  SysTick Reload Value Register   
 399:../../lib/lpc11cx4-library/lpc_chip_11cxx_lib/inc/core_cm0.h ****   __IO uint32_t VAL;                     /*!< Offset: 0x008 (R/W)  SysTick Current Value Register  
 400:../../lib/lpc11cx4-library/lpc_chip_11cxx_lib/inc/core_cm0.h ****   __I  uint32_t CALIB;                   /*!< Offset: 0x00C (R/ )  SysTick Calibration Register    
 401:../../lib/lpc11cx4-library/lpc_chip_11cxx_lib/inc/core_cm0.h **** } SysTick_Type;
 402:../../lib/lpc11cx4-library/lpc_chip_11cxx_lib/inc/core_cm0.h **** 
 403:../../lib/lpc11cx4-library/lpc_chip_11cxx_lib/inc/core_cm0.h **** /* SysTick Control / Status Register Definitions */
 404:../../lib/lpc11cx4-library/lpc_chip_11cxx_lib/inc/core_cm0.h **** #define SysTick_CTRL_COUNTFLAG_Pos         16                                             /*!< SysT
 405:../../lib/lpc11cx4-library/lpc_chip_11cxx_lib/inc/core_cm0.h **** #define SysTick_CTRL_COUNTFLAG_Msk         (1UL << SysTick_CTRL_COUNTFLAG_Pos)            /*!< SysT
 406:../../lib/lpc11cx4-library/lpc_chip_11cxx_lib/inc/core_cm0.h **** 
 407:../../lib/lpc11cx4-library/lpc_chip_11cxx_lib/inc/core_cm0.h **** #define SysTick_CTRL_CLKSOURCE_Pos          2                                             /*!< SysT
 408:../../lib/lpc11cx4-library/lpc_chip_11cxx_lib/inc/core_cm0.h **** #define SysTick_CTRL_CLKSOURCE_Msk         (1UL << SysTick_CTRL_CLKSOURCE_Pos)            /*!< SysT
 409:../../lib/lpc11cx4-library/lpc_chip_11cxx_lib/inc/core_cm0.h **** 
 410:../../lib/lpc11cx4-library/lpc_chip_11cxx_lib/inc/core_cm0.h **** #define SysTick_CTRL_TICKINT_Pos            1                                             /*!< SysT
 411:../../lib/lpc11cx4-library/lpc_chip_11cxx_lib/inc/core_cm0.h **** #define SysTick_CTRL_TICKINT_Msk           (1UL << SysTick_CTRL_TICKINT_Pos)              /*!< SysT
 412:../../lib/lpc11cx4-library/lpc_chip_11cxx_lib/inc/core_cm0.h **** 
 413:../../lib/lpc11cx4-library/lpc_chip_11cxx_lib/inc/core_cm0.h **** #define SysTick_CTRL_ENABLE_Pos             0                                             /*!< SysT
 414:../../lib/lpc11cx4-library/lpc_chip_11cxx_lib/inc/core_cm0.h **** #define SysTick_CTRL_ENABLE_Msk            (1UL << SysTick_CTRL_ENABLE_Pos)               /*!< SysT
 415:../../lib/lpc11cx4-library/lpc_chip_11cxx_lib/inc/core_cm0.h **** 
 416:../../lib/lpc11cx4-library/lpc_chip_11cxx_lib/inc/core_cm0.h **** /* SysTick Reload Register Definitions */
 417:../../lib/lpc11cx4-library/lpc_chip_11cxx_lib/inc/core_cm0.h **** #define SysTick_LOAD_RELOAD_Pos             0                                             /*!< SysT
 418:../../lib/lpc11cx4-library/lpc_chip_11cxx_lib/inc/core_cm0.h **** #define SysTick_LOAD_RELOAD_Msk            (0xFFFFFFUL << SysTick_LOAD_RELOAD_Pos)        /*!< SysT
 419:../../lib/lpc11cx4-library/lpc_chip_11cxx_lib/inc/core_cm0.h **** 
 420:../../lib/lpc11cx4-library/lpc_chip_11cxx_lib/inc/core_cm0.h **** /* SysTick Current Register Definitions */
 421:../../lib/lpc11cx4-library/lpc_chip_11cxx_lib/inc/core_cm0.h **** #define SysTick_VAL_CURRENT_Pos             0                                             /*!< SysT
 422:../../lib/lpc11cx4-library/lpc_chip_11cxx_lib/inc/core_cm0.h **** #define SysTick_VAL_CURRENT_Msk            (0xFFFFFFUL << SysTick_VAL_CURRENT_Pos)        /*!< SysT
 423:../../lib/lpc11cx4-library/lpc_chip_11cxx_lib/inc/core_cm0.h **** 
 424:../../lib/lpc11cx4-library/lpc_chip_11cxx_lib/inc/core_cm0.h **** /* SysTick Calibration Register Definitions */
 425:../../lib/lpc11cx4-library/lpc_chip_11cxx_lib/inc/core_cm0.h **** #define SysTick_CALIB_NOREF_Pos            31                                             /*!< SysT
 426:../../lib/lpc11cx4-library/lpc_chip_11cxx_lib/inc/core_cm0.h **** #define SysTick_CALIB_NOREF_Msk            (1UL << SysTick_CALIB_NOREF_Pos)               /*!< SysT
 427:../../lib/lpc11cx4-library/lpc_chip_11cxx_lib/inc/core_cm0.h **** 
 428:../../lib/lpc11cx4-library/lpc_chip_11cxx_lib/inc/core_cm0.h **** #define SysTick_CALIB_SKEW_Pos             30                                             /*!< SysT
 429:../../lib/lpc11cx4-library/lpc_chip_11cxx_lib/inc/core_cm0.h **** #define SysTick_CALIB_SKEW_Msk             (1UL << SysTick_CALIB_SKEW_Pos)                /*!< SysT
 430:../../lib/lpc11cx4-library/lpc_chip_11cxx_lib/inc/core_cm0.h **** 
 431:../../lib/lpc11cx4-library/lpc_chip_11cxx_lib/inc/core_cm0.h **** #define SysTick_CALIB_TENMS_Pos             0                                             /*!< SysT
 432:../../lib/lpc11cx4-library/lpc_chip_11cxx_lib/inc/core_cm0.h **** #define SysTick_CALIB_TENMS_Msk            (0xFFFFFFUL << SysTick_VAL_CURRENT_Pos)        /*!< SysT
 433:../../lib/lpc11cx4-library/lpc_chip_11cxx_lib/inc/core_cm0.h **** 
 434:../../lib/lpc11cx4-library/lpc_chip_11cxx_lib/inc/core_cm0.h **** /*@} end of group CMSIS_SysTick */
 435:../../lib/lpc11cx4-library/lpc_chip_11cxx_lib/inc/core_cm0.h **** 
 436:../../lib/lpc11cx4-library/lpc_chip_11cxx_lib/inc/core_cm0.h **** 
 437:../../lib/lpc11cx4-library/lpc_chip_11cxx_lib/inc/core_cm0.h **** /** \ingroup  CMSIS_core_register
 438:../../lib/lpc11cx4-library/lpc_chip_11cxx_lib/inc/core_cm0.h ****     \defgroup CMSIS_CoreDebug       Core Debug Registers (CoreDebug)
 439:../../lib/lpc11cx4-library/lpc_chip_11cxx_lib/inc/core_cm0.h ****     \brief      Cortex-M0 Core Debug Registers (DCB registers, SHCSR, and DFSR)
ARM GAS  /var/folders/z0/6xlwn_996xz3mwq1cgzkbq4r0000gp/T//ccjakVr1.s 			page 41


 440:../../lib/lpc11cx4-library/lpc_chip_11cxx_lib/inc/core_cm0.h ****                 are only accessible over DAP and not via processor. Therefore
 441:../../lib/lpc11cx4-library/lpc_chip_11cxx_lib/inc/core_cm0.h ****                 they are not covered by the Cortex-M0 header file.
 442:../../lib/lpc11cx4-library/lpc_chip_11cxx_lib/inc/core_cm0.h ****   @{
 443:../../lib/lpc11cx4-library/lpc_chip_11cxx_lib/inc/core_cm0.h ****  */
 444:../../lib/lpc11cx4-library/lpc_chip_11cxx_lib/inc/core_cm0.h **** /*@} end of group CMSIS_CoreDebug */
 445:../../lib/lpc11cx4-library/lpc_chip_11cxx_lib/inc/core_cm0.h **** 
 446:../../lib/lpc11cx4-library/lpc_chip_11cxx_lib/inc/core_cm0.h **** 
 447:../../lib/lpc11cx4-library/lpc_chip_11cxx_lib/inc/core_cm0.h **** /** \ingroup    CMSIS_core_register
 448:../../lib/lpc11cx4-library/lpc_chip_11cxx_lib/inc/core_cm0.h ****     \defgroup   CMSIS_core_base     Core Definitions
 449:../../lib/lpc11cx4-library/lpc_chip_11cxx_lib/inc/core_cm0.h ****     \brief      Definitions for base addresses, unions, and structures.
 450:../../lib/lpc11cx4-library/lpc_chip_11cxx_lib/inc/core_cm0.h ****   @{
 451:../../lib/lpc11cx4-library/lpc_chip_11cxx_lib/inc/core_cm0.h ****  */
 452:../../lib/lpc11cx4-library/lpc_chip_11cxx_lib/inc/core_cm0.h **** 
 453:../../lib/lpc11cx4-library/lpc_chip_11cxx_lib/inc/core_cm0.h **** /* Memory mapping of Cortex-M0 Hardware */
 454:../../lib/lpc11cx4-library/lpc_chip_11cxx_lib/inc/core_cm0.h **** #define SCS_BASE            (0xE000E000UL)                            /*!< System Control Space Bas
 455:../../lib/lpc11cx4-library/lpc_chip_11cxx_lib/inc/core_cm0.h **** #define SysTick_BASE        (SCS_BASE +  0x0010UL)                    /*!< SysTick Base Address    
 456:../../lib/lpc11cx4-library/lpc_chip_11cxx_lib/inc/core_cm0.h **** #define NVIC_BASE           (SCS_BASE +  0x0100UL)                    /*!< NVIC Base Address       
 457:../../lib/lpc11cx4-library/lpc_chip_11cxx_lib/inc/core_cm0.h **** #define SCB_BASE            (SCS_BASE +  0x0D00UL)                    /*!< System Control Block Bas
 458:../../lib/lpc11cx4-library/lpc_chip_11cxx_lib/inc/core_cm0.h **** 
 459:../../lib/lpc11cx4-library/lpc_chip_11cxx_lib/inc/core_cm0.h **** #define SCB                 ((SCB_Type       *)     SCB_BASE      )   /*!< SCB configuration struct
 460:../../lib/lpc11cx4-library/lpc_chip_11cxx_lib/inc/core_cm0.h **** #define SysTick             ((SysTick_Type   *)     SysTick_BASE  )   /*!< SysTick configuration st
 461:../../lib/lpc11cx4-library/lpc_chip_11cxx_lib/inc/core_cm0.h **** #define NVIC                ((NVIC_Type      *)     NVIC_BASE     )   /*!< NVIC configuration struc
 462:../../lib/lpc11cx4-library/lpc_chip_11cxx_lib/inc/core_cm0.h **** 
 463:../../lib/lpc11cx4-library/lpc_chip_11cxx_lib/inc/core_cm0.h **** 
 464:../../lib/lpc11cx4-library/lpc_chip_11cxx_lib/inc/core_cm0.h **** /*@} */
 465:../../lib/lpc11cx4-library/lpc_chip_11cxx_lib/inc/core_cm0.h **** 
 466:../../lib/lpc11cx4-library/lpc_chip_11cxx_lib/inc/core_cm0.h **** 
 467:../../lib/lpc11cx4-library/lpc_chip_11cxx_lib/inc/core_cm0.h **** 
 468:../../lib/lpc11cx4-library/lpc_chip_11cxx_lib/inc/core_cm0.h **** /*******************************************************************************
 469:../../lib/lpc11cx4-library/lpc_chip_11cxx_lib/inc/core_cm0.h ****  *                Hardware Abstraction Layer
 470:../../lib/lpc11cx4-library/lpc_chip_11cxx_lib/inc/core_cm0.h ****   Core Function Interface contains:
 471:../../lib/lpc11cx4-library/lpc_chip_11cxx_lib/inc/core_cm0.h ****   - Core NVIC Functions
 472:../../lib/lpc11cx4-library/lpc_chip_11cxx_lib/inc/core_cm0.h ****   - Core SysTick Functions
 473:../../lib/lpc11cx4-library/lpc_chip_11cxx_lib/inc/core_cm0.h ****   - Core Register Access Functions
 474:../../lib/lpc11cx4-library/lpc_chip_11cxx_lib/inc/core_cm0.h ****  ******************************************************************************/
 475:../../lib/lpc11cx4-library/lpc_chip_11cxx_lib/inc/core_cm0.h **** /** \defgroup CMSIS_Core_FunctionInterface Functions and Instructions Reference
 476:../../lib/lpc11cx4-library/lpc_chip_11cxx_lib/inc/core_cm0.h **** */
 477:../../lib/lpc11cx4-library/lpc_chip_11cxx_lib/inc/core_cm0.h **** 
 478:../../lib/lpc11cx4-library/lpc_chip_11cxx_lib/inc/core_cm0.h **** 
 479:../../lib/lpc11cx4-library/lpc_chip_11cxx_lib/inc/core_cm0.h **** 
 480:../../lib/lpc11cx4-library/lpc_chip_11cxx_lib/inc/core_cm0.h **** /* ##########################   NVIC functions  #################################### */
 481:../../lib/lpc11cx4-library/lpc_chip_11cxx_lib/inc/core_cm0.h **** /** \ingroup  CMSIS_Core_FunctionInterface
 482:../../lib/lpc11cx4-library/lpc_chip_11cxx_lib/inc/core_cm0.h ****     \defgroup CMSIS_Core_NVICFunctions NVIC Functions
 483:../../lib/lpc11cx4-library/lpc_chip_11cxx_lib/inc/core_cm0.h ****     \brief      Functions that manage interrupts and exceptions via the NVIC.
 484:../../lib/lpc11cx4-library/lpc_chip_11cxx_lib/inc/core_cm0.h ****     @{
 485:../../lib/lpc11cx4-library/lpc_chip_11cxx_lib/inc/core_cm0.h ****  */
 486:../../lib/lpc11cx4-library/lpc_chip_11cxx_lib/inc/core_cm0.h **** 
 487:../../lib/lpc11cx4-library/lpc_chip_11cxx_lib/inc/core_cm0.h **** /* Interrupt Priorities are WORD accessible only under ARMv6M                   */
 488:../../lib/lpc11cx4-library/lpc_chip_11cxx_lib/inc/core_cm0.h **** /* The following MACROS handle generation of the register offset and byte masks */
 489:../../lib/lpc11cx4-library/lpc_chip_11cxx_lib/inc/core_cm0.h **** #define _BIT_SHIFT(IRQn)         (  (((uint32_t)(IRQn)       )    &  0x03) * 8 )
 490:../../lib/lpc11cx4-library/lpc_chip_11cxx_lib/inc/core_cm0.h **** #define _SHP_IDX(IRQn)           ( ((((uint32_t)(IRQn) & 0x0F)-8) >>    2)     )
 491:../../lib/lpc11cx4-library/lpc_chip_11cxx_lib/inc/core_cm0.h **** #define _IP_IDX(IRQn)            (   ((uint32_t)(IRQn)            >>    2)     )
 492:../../lib/lpc11cx4-library/lpc_chip_11cxx_lib/inc/core_cm0.h **** 
 493:../../lib/lpc11cx4-library/lpc_chip_11cxx_lib/inc/core_cm0.h **** 
 494:../../lib/lpc11cx4-library/lpc_chip_11cxx_lib/inc/core_cm0.h **** /** \brief  Enable External Interrupt
 495:../../lib/lpc11cx4-library/lpc_chip_11cxx_lib/inc/core_cm0.h **** 
 496:../../lib/lpc11cx4-library/lpc_chip_11cxx_lib/inc/core_cm0.h ****     The function enables a device-specific interrupt in the NVIC interrupt controller.
ARM GAS  /var/folders/z0/6xlwn_996xz3mwq1cgzkbq4r0000gp/T//ccjakVr1.s 			page 42


 497:../../lib/lpc11cx4-library/lpc_chip_11cxx_lib/inc/core_cm0.h **** 
 498:../../lib/lpc11cx4-library/lpc_chip_11cxx_lib/inc/core_cm0.h ****     \param [in]      IRQn  External interrupt number. Value cannot be negative.
 499:../../lib/lpc11cx4-library/lpc_chip_11cxx_lib/inc/core_cm0.h ****  */
 500:../../lib/lpc11cx4-library/lpc_chip_11cxx_lib/inc/core_cm0.h **** __STATIC_INLINE void NVIC_EnableIRQ(IRQn_Type IRQn)
 501:../../lib/lpc11cx4-library/lpc_chip_11cxx_lib/inc/core_cm0.h **** {
 502:../../lib/lpc11cx4-library/lpc_chip_11cxx_lib/inc/core_cm0.h ****   NVIC->ISER[0] = (1 << ((uint32_t)(IRQn) & 0x1F));
 970              		.loc 5 502 0
 971 005e 8022     		movs	r2, #128	@ tmp147,
 972 0060 0F4B     		ldr	r3, .L75+24	@ tmp146,
 973 0062 9201     		lsls	r2, r2, #6	@ tmp147, tmp147,
 974 0064 1A60     		str	r2, [r3]	@ tmp147, MEM[(struct NVIC_Type *)3758153984B].ISER
 975              	.LVL60:
 976              	.LBE54:
 977              	.LBE53:
 180:../../lib/lpc11cx4-library/evt_lib/src/can.c **** 	CAN_SetMask2(0, 0);
 978              		.loc 1 180 0
 979 0066 0021     		movs	r1, #0	@,
 980 0068 0020     		movs	r0, #0	@,
 981 006a FFF7FEFF 		bl	CAN_SetMask1	@
 982              	.LVL61:
 181:../../lib/lpc11cx4-library/evt_lib/src/can.c **** 
 983              		.loc 1 181 0
 984 006e 0021     		movs	r1, #0	@,
 985 0070 0020     		movs	r0, #0	@,
 986 0072 FFF7FEFF 		bl	CAN_SetMask2	@
 987              	.LVL62:
 183:../../lib/lpc11cx4-library/evt_lib/src/can.c **** 	can_error_info = 0;
 988              		.loc 1 183 0
 989 0076 0B4B     		ldr	r3, .L75+28	@ tmp148,
 990 0078 1C70     		strb	r4, [r3]	@ tmp122, can_error_flag
 184:../../lib/lpc11cx4-library/evt_lib/src/can.c **** 
 991              		.loc 1 184 0
 992 007a 0B4B     		ldr	r3, .L75+32	@ tmp151,
 993 007c 1C60     		str	r4, [r3]	@ tmp122, can_error_info
 186:../../lib/lpc11cx4-library/evt_lib/src/can.c **** }
 994              		.loc 1 186 0
 995 007e 0B4B     		ldr	r3, .L75+36	@ tmp153,
 996 0080 1C80     		strh	r4, [r3]	@ tmp122, MEM[(void *)&msg_obj_stat]
 187:../../lib/lpc11cx4-library/evt_lib/src/can.c **** 
 997              		.loc 1 187 0
 998 0082 0BB0     		add	sp, sp, #44	@,,
 999              		@ sp needed	@
 1000 0084 F0BD     		pop	{r4, r5, r6, r7, pc}
 1001              	.L76:
 1002 0086 C046     		.align	2
 1003              	.L75:
 1004 0088 00000000 		.word	.LANCHOR2
 1005 008c 00000000 		.word	_rx_buffer
 1006 0090 00000000 		.word	.LANCHOR4
 1007 0094 00000000 		.word	_tx_buffer
 1008 0098 00000000 		.word	.LANCHOR5
 1009 009c F81FFF1F 		.word	536813560
 1010 00a0 00E100E0 		.word	-536813312
 1011 00a4 00000000 		.word	.LANCHOR1
 1012 00a8 00000000 		.word	.LANCHOR0
 1013 00ac 00000000 		.word	.LANCHOR3
 1014              		.cfi_endproc
ARM GAS  /var/folders/z0/6xlwn_996xz3mwq1cgzkbq4r0000gp/T//ccjakVr1.s 			page 43


 1015              	.LFE208:
 1016              		.size	CAN_Init, .-CAN_Init
 1017              		.section	.text.CAN_Receive,"ax",%progbits
 1018              		.align	2
 1019              		.global	CAN_Receive
 1020              		.code	16
 1021              		.thumb_func
 1022              		.type	CAN_Receive, %function
 1023              	CAN_Receive:
 1024              	.LFB211:
 209:../../lib/lpc11cx4-library/evt_lib/src/can.c **** 
 210:../../lib/lpc11cx4-library/evt_lib/src/can.c **** CAN_ERROR_T CAN_Receive(CCAN_MSG_OBJ_T* user_buffer) {
 1025              		.loc 1 210 0
 1026              		.cfi_startproc
 1027              		@ args = 0, pretend = 0, frame = 0
 1028              		@ frame_needed = 0, uses_anonymous_args = 0
 1029              	.LVL63:
 211:../../lib/lpc11cx4-library/evt_lib/src/can.c **** 	if (can_error_flag) {
 1030              		.loc 1 211 0
 1031 0000 094B     		ldr	r3, .L80	@ tmp117,
 210:../../lib/lpc11cx4-library/evt_lib/src/can.c **** 	if (can_error_flag) {
 1032              		.loc 1 210 0
 1033 0002 10B5     		push	{r4, lr}	@
 1034              		.cfi_def_cfa_offset 8
 1035              		.cfi_offset 4, -8
 1036              		.cfi_offset 14, -4
 1037              		.loc 1 211 0
 1038 0004 1A78     		ldrb	r2, [r3]	@ can_error_flag, can_error_flag
 1039 0006 002A     		cmp	r2, #0	@ can_error_flag,
 1040 0008 06D0     		beq	.L78	@,
 212:../../lib/lpc11cx4-library/evt_lib/src/can.c **** 		can_error_flag = false;
 1041              		.loc 1 212 0
 1042 000a 0022     		movs	r2, #0	@ tmp120,
 1043 000c 1A70     		strb	r2, [r3]	@ tmp120, can_error_flag
 213:../../lib/lpc11cx4-library/evt_lib/src/can.c **** 		return Convert_To_CAN_Error(can_error_info);
 1044              		.loc 1 213 0
 1045 000e 074B     		ldr	r3, .L80+4	@ tmp122,
 1046 0010 1868     		ldr	r0, [r3]	@ can_error_info, can_error_info
 1047              	.LVL64:
 1048 0012 FFF7FEFF 		bl	Convert_To_CAN_Error	@
 1049              	.LVL65:
 1050              	.L79:
 214:../../lib/lpc11cx4-library/evt_lib/src/can.c **** 	} else if (RingBuffer_Pop(&rx_buffer, user_buffer)) {
 215:../../lib/lpc11cx4-library/evt_lib/src/can.c **** 	    return NO_CAN_ERROR;
 216:../../lib/lpc11cx4-library/evt_lib/src/can.c **** 	}
 217:../../lib/lpc11cx4-library/evt_lib/src/can.c **** 	return NO_RX_CAN_MESSAGE;
 218:../../lib/lpc11cx4-library/evt_lib/src/can.c **** }
 1051              		.loc 1 218 0
 1052              		@ sp needed	@
 1053 0016 10BD     		pop	{r4, pc}
 1054              	.LVL66:
 1055              	.L78:
 214:../../lib/lpc11cx4-library/evt_lib/src/can.c **** 	} else if (RingBuffer_Pop(&rx_buffer, user_buffer)) {
 1056              		.loc 1 214 0
 1057 0018 0100     		movs	r1, r0	@, user_buffer
 1058 001a 0548     		ldr	r0, .L80+8	@,
 1059              	.LVL67:
ARM GAS  /var/folders/z0/6xlwn_996xz3mwq1cgzkbq4r0000gp/T//ccjakVr1.s 			page 44


 1060 001c FFF7FEFF 		bl	RingBuffer_Pop	@
 1061              	.LVL68:
 213:../../lib/lpc11cx4-library/evt_lib/src/can.c **** 		return Convert_To_CAN_Error(can_error_info);
 1062              		.loc 1 213 0
 1063 0020 4342     		rsbs	r3, r0, #0	@ tmp129, D.7030
 1064 0022 5841     		adcs	r0, r0, r3	@ tmp128, D.7030, tmp129
 1065 0024 C0B2     		uxtb	r0, r0	@ D.7027, tmp128
 1066 0026 F6E7     		b	.L79	@
 1067              	.L81:
 1068              		.align	2
 1069              	.L80:
 1070 0028 00000000 		.word	.LANCHOR1
 1071 002c 00000000 		.word	.LANCHOR0
 1072 0030 00000000 		.word	.LANCHOR2
 1073              		.cfi_endproc
 1074              	.LFE211:
 1075              		.size	CAN_Receive, .-CAN_Receive
 1076              		.section	.text.CAN_TransmitMsgObj,"ax",%progbits
 1077              		.align	2
 1078              		.global	CAN_TransmitMsgObj
 1079              		.code	16
 1080              		.thumb_func
 1081              		.type	CAN_TransmitMsgObj, %function
 1082              	CAN_TransmitMsgObj:
 1083              	.LFB213:
 219:../../lib/lpc11cx4-library/evt_lib/src/can.c **** 
 220:../../lib/lpc11cx4-library/evt_lib/src/can.c **** CAN_ERROR_T CAN_Transmit(uint32_t msg_id, uint8_t* data, uint8_t data_len) {
 221:../../lib/lpc11cx4-library/evt_lib/src/can.c **** 	tmp_msg_obj.mode_id = msg_id;
 222:../../lib/lpc11cx4-library/evt_lib/src/can.c **** 	tmp_msg_obj.dlc = data_len;
 223:../../lib/lpc11cx4-library/evt_lib/src/can.c **** 	uint8_t i;
 224:../../lib/lpc11cx4-library/evt_lib/src/can.c **** 	for (i = 0; i < tmp_msg_obj.dlc; i++) {	
 225:../../lib/lpc11cx4-library/evt_lib/src/can.c **** 		tmp_msg_obj.data[i] = data[i];
 226:../../lib/lpc11cx4-library/evt_lib/src/can.c **** 	}
 227:../../lib/lpc11cx4-library/evt_lib/src/can.c **** 	return CAN_TransmitMsgObj(&tmp_msg_obj);
 228:../../lib/lpc11cx4-library/evt_lib/src/can.c **** }
 229:../../lib/lpc11cx4-library/evt_lib/src/can.c **** 
 230:../../lib/lpc11cx4-library/evt_lib/src/can.c **** CAN_ERROR_T CAN_TransmitMsgObj(CCAN_MSG_OBJ_T *msg_obj) {
 1084              		.loc 1 230 0
 1085              		.cfi_startproc
 1086              		@ args = 0, pretend = 0, frame = 0
 1087              		@ frame_needed = 0, uses_anonymous_args = 0
 1088              	.LVL69:
 231:../../lib/lpc11cx4-library/evt_lib/src/can.c **** 	if (can_error_flag) {
 1089              		.loc 1 231 0
 1090 0000 164B     		ldr	r3, .L91	@ tmp124,
 230:../../lib/lpc11cx4-library/evt_lib/src/can.c **** 	if (can_error_flag) {
 1091              		.loc 1 230 0
 1092 0002 70B5     		push	{r4, r5, r6, lr}	@
 1093              		.cfi_def_cfa_offset 16
 1094              		.cfi_offset 4, -16
 1095              		.cfi_offset 5, -12
 1096              		.cfi_offset 6, -8
 1097              		.cfi_offset 14, -4
 1098              		.loc 1 231 0
 1099 0004 1A78     		ldrb	r2, [r3]	@ can_error_flag, can_error_flag
 1100 0006 002A     		cmp	r2, #0	@ can_error_flag,
 1101 0008 11D1     		bne	.L83	@,
ARM GAS  /var/folders/z0/6xlwn_996xz3mwq1cgzkbq4r0000gp/T//ccjakVr1.s 			page 45


 1102              	.LVL70:
 1103              	.LBB59:
 232:../../lib/lpc11cx4-library/evt_lib/src/can.c **** 		can_error_flag = false;
 233:../../lib/lpc11cx4-library/evt_lib/src/can.c **** 		return Convert_To_CAN_Error(can_error_info);
 234:../../lib/lpc11cx4-library/evt_lib/src/can.c **** 	} else {
 235:../../lib/lpc11cx4-library/evt_lib/src/can.c **** 		uint8_t i;
 236:../../lib/lpc11cx4-library/evt_lib/src/can.c **** 		bool sent = false;
 237:../../lib/lpc11cx4-library/evt_lib/src/can.c **** 		for (i = 1; i <= NUM_MSG_OBJS; i++) {
 238:../../lib/lpc11cx4-library/evt_lib/src/can.c **** 			if (!msg_obj_stat[i]) { // Message Object is free, begin to send
 1104              		.loc 1 238 0 discriminator 1
 1105 000a 154C     		ldr	r4, .L91+4	@ tmp147,
 1106 000c 6378     		ldrb	r3, [r4, #1]	@ tmp127,
 1107 000e 002B     		cmp	r3, #0	@ tmp127,
 1108 0010 14D0     		beq	.L87	@,
 1109              	.LVL71:
 1110              		.loc 1 238 0 is_stmt 0
 1111 0012 A378     		ldrb	r3, [r4, #2]	@ tmp129,
 1112 0014 002B     		cmp	r3, #0	@ tmp129,
 1113 0016 1DD0     		beq	.L90	@,
 1114              	.LVL72:
 1115              	.LBE59:
 1116              	.LBB60:
 1117              	.LBB61:
 239:../../lib/lpc11cx4-library/evt_lib/src/can.c **** 				// Send with this message object
 240:../../lib/lpc11cx4-library/evt_lib/src/can.c **** 				msg_obj->msgobj = i;
 241:../../lib/lpc11cx4-library/evt_lib/src/can.c **** 				LPC_CCAN_API->can_transmit(msg_obj);
 242:../../lib/lpc11cx4-library/evt_lib/src/can.c **** 				msg_obj_stat[i] = true;
 243:../../lib/lpc11cx4-library/evt_lib/src/can.c **** 				sent = true;
 244:../../lib/lpc11cx4-library/evt_lib/src/can.c **** 				break;
 245:../../lib/lpc11cx4-library/evt_lib/src/can.c **** 			}
 246:../../lib/lpc11cx4-library/evt_lib/src/can.c **** 		}
 247:../../lib/lpc11cx4-library/evt_lib/src/can.c **** 
 248:../../lib/lpc11cx4-library/evt_lib/src/can.c **** 		if (!sent) { // Everything is busy, so put in ring buffer
 249:../../lib/lpc11cx4-library/evt_lib/src/can.c **** 			if (!RingBuffer_Insert(&tx_buffer, msg_obj)) {
 1118              		.loc 1 249 0 is_stmt 1
 1119 0018 0100     		movs	r1, r0	@, msg_obj
 1120 001a 1248     		ldr	r0, .L91+8	@,
 1121              	.LVL73:
 1122 001c FFF7FEFF 		bl	RingBuffer_Insert	@
 1123              	.LVL74:
 1124 0020 0300     		movs	r3, r0	@ D.7046,
 250:../../lib/lpc11cx4-library/evt_lib/src/can.c **** 				return TX_BUFFER_FULL_CAN_ERROR;
 251:../../lib/lpc11cx4-library/evt_lib/src/can.c **** 			}
 252:../../lib/lpc11cx4-library/evt_lib/src/can.c **** 		}
 253:../../lib/lpc11cx4-library/evt_lib/src/can.c **** 
 254:../../lib/lpc11cx4-library/evt_lib/src/can.c **** 	    return NO_CAN_ERROR;
 1125              		.loc 1 254 0
 1126 0022 5A42     		rsbs	r2, r3, #0	@ tmp150, D.7046
 1127 0024 5341     		adcs	r3, r3, r2	@ tmp149, D.7046, tmp150
 250:../../lib/lpc11cx4-library/evt_lib/src/can.c **** 				return TX_BUFFER_FULL_CAN_ERROR;
 1128              		.loc 1 250 0
 1129 0026 0E20     		movs	r0, #14	@ D.7040,
 1130              		.loc 1 254 0
 1131 0028 5B42     		rsbs	r3, r3, #0	@ tmp151, tmp149
 1132 002a 1840     		ands	r0, r3	@ D.7040, tmp151
 1133              	.LVL75:
 1134              	.L89:
ARM GAS  /var/folders/z0/6xlwn_996xz3mwq1cgzkbq4r0000gp/T//ccjakVr1.s 			page 46


 1135              	.LBE61:
 1136              	.LBE60:
 255:../../lib/lpc11cx4-library/evt_lib/src/can.c **** 	}
 256:../../lib/lpc11cx4-library/evt_lib/src/can.c **** }
 1137              		.loc 1 256 0
 1138              		@ sp needed	@
 1139 002c 70BD     		pop	{r4, r5, r6, pc}
 1140              	.LVL76:
 1141              	.L83:
 232:../../lib/lpc11cx4-library/evt_lib/src/can.c **** 		return Convert_To_CAN_Error(can_error_info);
 1142              		.loc 1 232 0
 1143 002e 0022     		movs	r2, #0	@ tmp131,
 1144 0030 1A70     		strb	r2, [r3]	@ tmp131, can_error_flag
 233:../../lib/lpc11cx4-library/evt_lib/src/can.c **** 	} else {
 1145              		.loc 1 233 0
 1146 0032 0D4B     		ldr	r3, .L91+12	@ tmp133,
 1147 0034 1868     		ldr	r0, [r3]	@ can_error_info, can_error_info
 1148              	.LVL77:
 1149 0036 FFF7FEFF 		bl	Convert_To_CAN_Error	@
 1150              	.LVL78:
 1151 003a F7E7     		b	.L89	@
 1152              	.LVL79:
 1153              	.L87:
 1154              	.LBB62:
 238:../../lib/lpc11cx4-library/evt_lib/src/can.c **** 				// Send with this message object
 1155              		.loc 1 238 0
 1156 003c 0125     		movs	r5, #1	@ D.7046,
 1157 003e 0123     		movs	r3, #1	@ i,
 1158              	.LVL80:
 1159              	.L84:
 240:../../lib/lpc11cx4-library/evt_lib/src/can.c **** 				LPC_CCAN_API->can_transmit(msg_obj);
 1160              		.loc 1 240 0
 1161 0040 4374     		strb	r3, [r0, #17]	@ i, msg_obj_15(D)->msgobj
 241:../../lib/lpc11cx4-library/evt_lib/src/can.c **** 				msg_obj_stat[i] = true;
 1162              		.loc 1 241 0
 1163 0042 0A4B     		ldr	r3, .L91+16	@ tmp138,
 1164 0044 1B68     		ldr	r3, [r3]	@ MEM[(struct LPC_ROM_API_T * *)536813560B], MEM[(struct LPC_ROM_API_T * *)536813560B
 1165 0046 9B68     		ldr	r3, [r3, #8]	@ _17->candApiBase, _17->candApiBase
 1166 0048 1B69     		ldr	r3, [r3, #16]	@ _19->can_transmit, _19->can_transmit
 1167 004a 9847     		blx	r3	@ _19->can_transmit
 1168              	.LVL81:
 242:../../lib/lpc11cx4-library/evt_lib/src/can.c **** 				sent = true;
 1169              		.loc 1 242 0
 1170 004c 0123     		movs	r3, #1	@ tmp143,
 254:../../lib/lpc11cx4-library/evt_lib/src/can.c **** 	}
 1171              		.loc 1 254 0
 1172 004e 0020     		movs	r0, #0	@ D.7040,
 242:../../lib/lpc11cx4-library/evt_lib/src/can.c **** 				sent = true;
 1173              		.loc 1 242 0
 1174 0050 6355     		strb	r3, [r4, r5]	@ tmp143, msg_obj_stat
 1175              	.LVL82:
 1176 0052 EBE7     		b	.L89	@
 1177              	.LVL83:
 1178              	.L90:
 238:../../lib/lpc11cx4-library/evt_lib/src/can.c **** 				// Send with this message object
 1179              		.loc 1 238 0
 1180 0054 0225     		movs	r5, #2	@ D.7046,
ARM GAS  /var/folders/z0/6xlwn_996xz3mwq1cgzkbq4r0000gp/T//ccjakVr1.s 			page 47


 237:../../lib/lpc11cx4-library/evt_lib/src/can.c **** 			if (!msg_obj_stat[i]) { // Message Object is free, begin to send
 1181              		.loc 1 237 0
 1182 0056 0233     		adds	r3, r3, #2	@ i,
 1183 0058 F2E7     		b	.L84	@
 1184              	.L92:
 1185 005a C046     		.align	2
 1186              	.L91:
 1187 005c 00000000 		.word	.LANCHOR1
 1188 0060 00000000 		.word	.LANCHOR3
 1189 0064 00000000 		.word	.LANCHOR4
 1190 0068 00000000 		.word	.LANCHOR0
 1191 006c F81FFF1F 		.word	536813560
 1192              	.LBE62:
 1193              		.cfi_endproc
 1194              	.LFE213:
 1195              		.size	CAN_TransmitMsgObj, .-CAN_TransmitMsgObj
 1196              		.section	.text.CAN_Transmit,"ax",%progbits
 1197              		.align	2
 1198              		.global	CAN_Transmit
 1199              		.code	16
 1200              		.thumb_func
 1201              		.type	CAN_Transmit, %function
 1202              	CAN_Transmit:
 1203              	.LFB212:
 220:../../lib/lpc11cx4-library/evt_lib/src/can.c **** 	tmp_msg_obj.mode_id = msg_id;
 1204              		.loc 1 220 0
 1205              		.cfi_startproc
 1206              		@ args = 0, pretend = 0, frame = 0
 1207              		@ frame_needed = 0, uses_anonymous_args = 0
 1208              	.LVL84:
 1209 0000 0300     		movs	r3, r0	@ msg_id, msg_id
 221:../../lib/lpc11cx4-library/evt_lib/src/can.c **** 	tmp_msg_obj.dlc = data_len;
 1210              		.loc 1 221 0
 1211 0002 0848     		ldr	r0, .L100	@ tmp165,
 1212              	.LVL85:
 220:../../lib/lpc11cx4-library/evt_lib/src/can.c **** 	tmp_msg_obj.mode_id = msg_id;
 1213              		.loc 1 220 0
 1214 0004 70B5     		push	{r4, r5, r6, lr}	@
 1215              		.cfi_def_cfa_offset 16
 1216              		.cfi_offset 4, -16
 1217              		.cfi_offset 5, -12
 1218              		.cfi_offset 6, -8
 1219              		.cfi_offset 14, -4
 221:../../lib/lpc11cx4-library/evt_lib/src/can.c **** 	tmp_msg_obj.dlc = data_len;
 1220              		.loc 1 221 0
 1221 0006 0360     		str	r3, [r0]	@ msg_id, tmp_msg_obj.mode_id
 222:../../lib/lpc11cx4-library/evt_lib/src/can.c **** 	uint8_t i;
 1222              		.loc 1 222 0
 1223 0008 0274     		strb	r2, [r0, #16]	@ data_len, tmp_msg_obj.dlc
 1224              	.LVL86:
 224:../../lib/lpc11cx4-library/evt_lib/src/can.c **** 		tmp_msg_obj.data[i] = data[i];
 1225              		.loc 1 224 0
 1226 000a 0023     		movs	r3, #0	@ ivtmp.91,
 1227              	.LVL87:
 1228 000c 002A     		cmp	r2, #0	@ data_len,
 1229 000e 06D0     		beq	.L96	@,
 1230              	.LVL88:
ARM GAS  /var/folders/z0/6xlwn_996xz3mwq1cgzkbq4r0000gp/T//ccjakVr1.s 			page 48


 1231              	.L97:
 225:../../lib/lpc11cx4-library/evt_lib/src/can.c **** 	}
 1232              		.loc 1 225 0 discriminator 3
 1233 0010 CD5C     		ldrb	r5, [r1, r3]	@ D.7061, MEM[base: data_10(D), index: ivtmp.91_2, offset: 0B]
 1234 0012 C418     		adds	r4, r0, r3	@ D.7063, tmp165, ivtmp.91
 1235 0014 0133     		adds	r3, r3, #1	@ ivtmp.91,
 1236              	.LVL89:
 1237 0016 2572     		strb	r5, [r4, #8]	@ D.7061, MEM[base: _23, offset: 8B]
 224:../../lib/lpc11cx4-library/evt_lib/src/can.c **** 		tmp_msg_obj.data[i] = data[i];
 1238              		.loc 1 224 0 discriminator 3
 1239 0018 DCB2     		uxtb	r4, r3	@ ivtmp.91, ivtmp.91
 1240 001a A242     		cmp	r2, r4	@ data_len, ivtmp.91
 1241 001c F8D8     		bhi	.L97	@,
 1242              	.L96:
 227:../../lib/lpc11cx4-library/evt_lib/src/can.c **** }
 1243              		.loc 1 227 0
 1244 001e FFF7FEFF 		bl	CAN_TransmitMsgObj	@
 1245              	.LVL90:
 228:../../lib/lpc11cx4-library/evt_lib/src/can.c **** 
 1246              		.loc 1 228 0
 1247              		@ sp needed	@
 1248 0022 70BD     		pop	{r4, r5, r6, pc}
 1249              	.L101:
 1250              		.align	2
 1251              	.L100:
 1252 0024 00000000 		.word	tmp_msg_obj
 1253              		.cfi_endproc
 1254              	.LFE212:
 1255              		.size	CAN_Transmit, .-CAN_Transmit
 1256              		.section	.text.CAN_GetErrorStatus,"ax",%progbits
 1257              		.align	2
 1258              		.global	CAN_GetErrorStatus
 1259              		.code	16
 1260              		.thumb_func
 1261              		.type	CAN_GetErrorStatus, %function
 1262              	CAN_GetErrorStatus:
 1263              	.LFB214:
 257:../../lib/lpc11cx4-library/evt_lib/src/can.c **** 
 258:../../lib/lpc11cx4-library/evt_lib/src/can.c **** CAN_ERROR_T CAN_GetErrorStatus(void) {
 1264              		.loc 1 258 0
 1265              		.cfi_startproc
 1266              		@ args = 0, pretend = 0, frame = 0
 1267              		@ frame_needed = 0, uses_anonymous_args = 0
 1268 0000 10B5     		push	{r4, lr}	@
 1269              		.cfi_def_cfa_offset 8
 1270              		.cfi_offset 4, -8
 1271              		.cfi_offset 14, -4
 259:../../lib/lpc11cx4-library/evt_lib/src/can.c **** 	return Convert_To_CAN_Error(can_error_info);
 1272              		.loc 1 259 0
 1273 0002 024B     		ldr	r3, .L103	@ tmp113,
 260:../../lib/lpc11cx4-library/evt_lib/src/can.c **** }
 1274              		.loc 1 260 0
 1275              		@ sp needed	@
 259:../../lib/lpc11cx4-library/evt_lib/src/can.c **** 	return Convert_To_CAN_Error(can_error_info);
 1276              		.loc 1 259 0
 1277 0004 1868     		ldr	r0, [r3]	@ can_error_info, can_error_info
 1278 0006 FFF7FEFF 		bl	Convert_To_CAN_Error	@
ARM GAS  /var/folders/z0/6xlwn_996xz3mwq1cgzkbq4r0000gp/T//ccjakVr1.s 			page 49


 1279              	.LVL91:
 1280              		.loc 1 260 0
 1281 000a 10BD     		pop	{r4, pc}
 1282              	.L104:
 1283              		.align	2
 1284              	.L103:
 1285 000c 00000000 		.word	.LANCHOR0
 1286              		.cfi_endproc
 1287              	.LFE214:
 1288              		.size	CAN_GetErrorStatus, .-CAN_GetErrorStatus
 1289              		.comm	tmp_msg_obj_2,24,8
 1290              		.comm	tmp_msg_obj,24,8
 1291              		.comm	_tx_buffer,384,8
 1292              		.comm	_rx_buffer,384,8
 1293              		.comm	msg_obj,24,8
 1294              		.section	.rodata
 1295              		.align	2
 1296              		.set	.LANCHOR5,. + 0
 1297              	.LC0:
 1298              	@ CAN_rx:
 1299 0000 00000000 		.word	CAN_rx
 1300              	@ CAN_tx:
 1301 0004 00000000 		.word	CAN_tx
 1302              	@ CAN_error:
 1303 0008 00000000 		.word	CAN_error
 1304              	@ CANOPEN_sdo_read:
 1305 000c 00000000 		.word	0
 1306              	@ CANOPEN_sdo_write:
 1307 0010 00000000 		.word	0
 1308              	@ CANOPEN_sdo_seg_read:
 1309 0014 00000000 		.word	0
 1310              	@ CANOPEN_sdo_seg_write:
 1311 0018 00000000 		.word	0
 1312              	@ CANOPEN_sdo_req:
 1313 001c 00000000 		.word	0
 1314              		.section	.bss.tx_buffer,"aw",%nobits
 1315              		.align	2
 1316              		.set	.LANCHOR4,. + 0
 1317              		.type	tx_buffer, %object
 1318              		.size	tx_buffer, 20
 1319              	tx_buffer:
 1320 0000 00000000 		.space	20
 1320      00000000 
 1320      00000000 
 1320      00000000 
 1320      00000000 
 1321              		.section	.bss.rx_buffer,"aw",%nobits
 1322              		.align	2
 1323              		.set	.LANCHOR2,. + 0
 1324              		.type	rx_buffer, %object
 1325              		.size	rx_buffer, 20
 1326              	rx_buffer:
 1327 0000 00000000 		.space	20
 1327      00000000 
 1327      00000000 
 1327      00000000 
 1327      00000000 
ARM GAS  /var/folders/z0/6xlwn_996xz3mwq1cgzkbq4r0000gp/T//ccjakVr1.s 			page 50


 1328              		.section	.bss.can_error_info,"aw",%nobits
 1329              		.align	2
 1330              		.set	.LANCHOR0,. + 0
 1331              		.type	can_error_info, %object
 1332              		.size	can_error_info, 4
 1333              	can_error_info:
 1334 0000 00000000 		.space	4
 1335              		.section	.bss.msg_obj_stat,"aw",%nobits
 1336              		.align	2
 1337              		.set	.LANCHOR3,. + 0
 1338              		.type	msg_obj_stat, %object
 1339              		.size	msg_obj_stat, 3
 1340              	msg_obj_stat:
 1341 0000 000000   		.space	3
 1342              		.section	.bss.can_error_flag,"aw",%nobits
 1343              		.set	.LANCHOR1,. + 0
 1344              		.type	can_error_flag, %object
 1345              		.size	can_error_flag, 1
 1346              	can_error_flag:
 1347 0000 00       		.space	1
 1348              		.text
 1349              	.Letext0:
 1350              		.file 6 "/usr/local/Cellar/gcc-arm-none-eabi/20160928/arm-none-eabi/include/machine/_default_types
 1351              		.file 7 "/usr/local/Cellar/gcc-arm-none-eabi/20160928/arm-none-eabi/include/sys/_stdint.h"
 1352              		.file 8 "../../lib/lpc11cx4-library/lpc_chip_11cxx_lib/inc/cmsis_11cxx.h"
 1353              		.file 9 "../../lib/lpc11cx4-library/lpc_chip_11cxx_lib/inc/cmsis.h"
 1354              		.file 10 "../../lib/lpc11cx4-library/lpc_chip_11cxx_lib/inc/lpc_types.h"
 1355              		.file 11 "../../lib/lpc11cx4-library/lpc_chip_11cxx_lib/inc/romapi_11xx.h"
 1356              		.file 12 "../../lib/lpc11cx4-library/lpc_chip_11cxx_lib/inc/ccand_11xx.h"
 1357              		.file 13 "../../lib/lpc11cx4-library/evt_lib/inc/can.h"
 1358              		.file 14 "../../lib/lpc11cx4-library/lpc_chip_11cxx_lib/inc/chip.h"