ARM GAS  /var/folders/z0/6xlwn_996xz3mwq1cgzkbq4r0000gp/T//ccI3nkYU.s 			page 1


   1              		.syntax unified
   2              		.cpu cortex-m0
   3              		.fpu softvfp
   4              		.eabi_attribute 20, 1	@ Tag_ABI_FP_denormal
   5              		.eabi_attribute 21, 1	@ Tag_ABI_FP_exceptions
   6              		.eabi_attribute 23, 3	@ Tag_ABI_FP_number_model
   7              		.eabi_attribute 24, 1	@ Tag_ABI_align8_needed
   8              		.eabi_attribute 25, 1	@ Tag_ABI_align8_preserved
   9              		.eabi_attribute 26, 1	@ Tag_ABI_enum_size
  10              		.eabi_attribute 30, 2	@ Tag_ABI_optimization_goals
  11              		.eabi_attribute 34, 0	@ Tag_CPU_unaligned_access
  12              		.eabi_attribute 18, 4	@ Tag_ABI_PCS_wchar_t
  13              		.file	"charge.c"
  14              	@ GNU C89 (GNU Tools for ARM Embedded Processors) version 5.4.1 20160919 (release) [ARM/embedded-5-
  15              	@	compiled by GNU C version 4.2.1 (Based on Apple Inc. build 5658) (LLVM build 2336.9.00), GMP vers
  16              	@ GGC heuristics: --param ggc-min-expand=100 --param ggc-min-heapsize=131072
  17              	@ options passed:  -I . -I inc/
  18              	@ -I ../../lib/lpc11cx4-library/lpc_chip_11cxx_lib/inc
  19              	@ -I ../../lib/lpc11cx4-library/evt_lib/inc/ -I ../../lib/CANlib/
  20              	@ -imultilib armv6-m
  21              	@ -iprefix /usr/local/Cellar/gcc-arm-none-eabi/20160928/bin/../lib/gcc/arm-none-eabi/5.4.1/
  22              	@ -isysroot /usr/local/Cellar/gcc-arm-none-eabi/20160928/bin/../arm-none-eabi
  23              	@ -MD bin/charge.d -MF bin/charge.d -MP -MQ bin/charge.o
  24              	@ -D__USES_INITFINI__ -D UART_BAUD=57600 -D CORE_M0 -D DEBUG_ENABLE
  25              	@ -D FSAE_DRIVERS -D CAN_ARCHITECTURE_ARM src/charge.c -mcpu=cortex-m0
  26              	@ -mthumb -auxbase-strip bin/charge.o -g -ggdb3 -O2 -Wall
  27              	@ -Wstrict-prototypes -Wextra -std=gnu90 -ffunction-sections
  28              	@ -fdata-sections -fdiagnostics-color=always -fverbose-asm
  29              	@ options enabled:  -faggressive-loop-optimizations -falign-functions
  30              	@ -falign-jumps -falign-labels -falign-loops -fauto-inc-dec
  31              	@ -fbranch-count-reg -fcaller-saves -fchkp-check-incomplete-type
  32              	@ -fchkp-check-read -fchkp-check-write -fchkp-instrument-calls
  33              	@ -fchkp-narrow-bounds -fchkp-optimize -fchkp-store-bounds
  34              	@ -fchkp-use-static-bounds -fchkp-use-static-const-bounds
  35              	@ -fchkp-use-wrappers -fcombine-stack-adjustments -fcommon -fcompare-elim
  36              	@ -fcprop-registers -fcrossjumping -fcse-follow-jumps -fdata-sections
  37              	@ -fdefer-pop -fdelete-null-pointer-checks -fdevirtualize
  38              	@ -fdevirtualize-speculatively -fdwarf2-cfi-asm -fearly-inlining
  39              	@ -feliminate-unused-debug-types -fexpensive-optimizations
  40              	@ -fforward-propagate -ffunction-cse -ffunction-sections -fgcse -fgcse-lm
  41              	@ -fgnu-runtime -fgnu-unique -fguess-branch-probability
  42              	@ -fhoist-adjacent-loads -fident -fif-conversion -fif-conversion2
  43              	@ -findirect-inlining -finline -finline-atomics
  44              	@ -finline-functions-called-once -finline-small-functions -fipa-cp
  45              	@ -fipa-cp-alignment -fipa-icf -fipa-icf-functions -fipa-icf-variables
  46              	@ -fipa-profile -fipa-pure-const -fipa-reference -fipa-sra
  47              	@ -fira-hoist-pressure -fira-share-save-slots -fira-share-spill-slots
  48              	@ -fisolate-erroneous-paths-dereference -fivopts -fkeep-static-consts
  49              	@ -fleading-underscore -flifetime-dse -flra-remat -flto-odr-type-merging
  50              	@ -fmath-errno -fmerge-constants -fmerge-debug-strings
  51              	@ -fmove-loop-invariants -fomit-frame-pointer -foptimize-sibling-calls
  52              	@ -foptimize-strlen -fpartial-inlining -fpeephole -fpeephole2
  53              	@ -fprefetch-loop-arrays -freg-struct-return -freorder-blocks
  54              	@ -freorder-functions -frerun-cse-after-loop
  55              	@ -fsched-critical-path-heuristic -fsched-dep-count-heuristic
  56              	@ -fsched-group-heuristic -fsched-interblock -fsched-last-insn-heuristic
  57              	@ -fsched-pressure -fsched-rank-heuristic -fsched-spec
ARM GAS  /var/folders/z0/6xlwn_996xz3mwq1cgzkbq4r0000gp/T//ccI3nkYU.s 			page 2


  58              	@ -fsched-spec-insn-heuristic -fsched-stalled-insns-dep -fschedule-insns2
  59              	@ -fsection-anchors -fsemantic-interposition -fshow-column -fshrink-wrap
  60              	@ -fsigned-zeros -fsplit-ivs-in-unroller -fsplit-wide-types -fssa-phiopt
  61              	@ -fstdarg-opt -fstrict-aliasing -fstrict-overflow
  62              	@ -fstrict-volatile-bitfields -fsync-libcalls -fthread-jumps
  63              	@ -ftoplevel-reorder -ftrapping-math -ftree-bit-ccp -ftree-builtin-call-dce
  64              	@ -ftree-ccp -ftree-ch -ftree-coalesce-vars -ftree-copy-prop
  65              	@ -ftree-copyrename -ftree-cselim -ftree-dce -ftree-dominator-opts
  66              	@ -ftree-dse -ftree-forwprop -ftree-fre -ftree-loop-if-convert
  67              	@ -ftree-loop-im -ftree-loop-ivcanon -ftree-loop-optimize
  68              	@ -ftree-parallelize-loops= -ftree-phiprop -ftree-pre -ftree-pta
  69              	@ -ftree-reassoc -ftree-scev-cprop -ftree-sink -ftree-slsr -ftree-sra
  70              	@ -ftree-switch-conversion -ftree-tail-merge -ftree-ter -ftree-vrp
  71              	@ -funit-at-a-time -fvar-tracking -fvar-tracking-assignments -fverbose-asm
  72              	@ -fzero-initialized-in-bss -mlittle-endian -mpic-data-is-text-relative
  73              	@ -msched-prolog -mthumb -mvectorize-with-neon-quad
  74              	
  75              		.text
  76              	.Ltext0:
  77              		.cfi_sections	.debug_frame
  78              		.section	.text.Charge_Init,"ax",%progbits
  79              		.align	2
  80              		.global	Charge_Init
  81              		.code	16
  82              		.thumb_func
  83              		.type	Charge_Init, %function
  84              	Charge_Init:
  85              	.LFB0:
  86              		.file 1 "src/charge.c"
   1:src/charge.c  **** #include "charge.h"
   2:src/charge.c  **** 
   3:src/charge.c  **** static uint16_t total_num_cells;
   4:src/charge.c  **** static uint32_t cc_charge_voltage_mV;
   5:src/charge.c  **** static uint32_t cc_charge_current_mA;
   6:src/charge.c  **** static uint32_t cv_charge_voltage_mV;
   7:src/charge.c  **** static uint32_t cv_charge_current_mA;
   8:src/charge.c  **** static uint32_t last_time_above_cv_min_curr;
   9:src/charge.c  **** 
  10:src/charge.c  **** void _set_output(bool close_contactors, bool charger_on, uint32_t charge_voltage_mV, uint32_t charg
  11:src/charge.c  **** 
  12:src/charge.c  **** void Charge_Init(CSB_STATE_T *state) {
  87              		.loc 1 12 0
  88              		.cfi_startproc
  89              		@ args = 0, pretend = 0, frame = 0
  90              		@ frame_needed = 0, uses_anonymous_args = 0
  91              		@ link register save eliminated.
  92              	.LVL0:
  13:src/charge.c  ****     state->charge_state = CSB_CHARGE_OFF;
  93              		.loc 1 13 0
  94 0000 0023     		movs	r3, #0	@ tmp111,
  14:src/charge.c  ****     last_time_above_cv_min_curr = 0;
  95              		.loc 1 14 0
  96 0002 024A     		ldr	r2, .L2	@ tmp113,
  13:src/charge.c  ****     state->charge_state = CSB_CHARGE_OFF;
  97              		.loc 1 13 0
  98 0004 8371     		strb	r3, [r0, #6]	@ tmp111, state_2(D)->charge_state
  99              		.loc 1 14 0
ARM GAS  /var/folders/z0/6xlwn_996xz3mwq1cgzkbq4r0000gp/T//ccI3nkYU.s 			page 3


 100 0006 1360     		str	r3, [r2]	@ tmp111, last_time_above_cv_min_curr
  15:src/charge.c  **** }
 101              		.loc 1 15 0
 102              		@ sp needed	@
 103 0008 7047     		bx	lr
 104              	.L3:
 105 000a C046     		.align	2
 106              	.L2:
 107 000c 00000000 		.word	.LANCHOR0
 108              		.cfi_endproc
 109              	.LFE0:
 110              		.size	Charge_Init, .-Charge_Init
 111              		.global	__aeabi_uidiv
 112              		.section	.text.Charge_Config,"ax",%progbits
 113              		.align	2
 114              		.global	Charge_Config
 115              		.code	16
 116              		.thumb_func
 117              		.type	Charge_Config, %function
 118              	Charge_Config:
 119              	.LFB1:
  16:src/charge.c  **** 
  17:src/charge.c  **** void Charge_Config(PACK_CONFIG_T *pack_config) {
 120              		.loc 1 17 0
 121              		.cfi_startproc
 122              		@ args = 0, pretend = 0, frame = 0
 123              		@ frame_needed = 0, uses_anonymous_args = 0
 124              	.LVL1:
  18:src/charge.c  ****     total_num_cells = pack_config->num_modules * pack_config->module_cell_count;
 125              		.loc 1 18 0
 126 0000 3823     		movs	r3, #56	@ tmp129,
  17:src/charge.c  ****     total_num_cells = pack_config->num_modules * pack_config->module_cell_count;
 127              		.loc 1 17 0
 128 0002 70B5     		push	{r4, r5, r6, lr}	@
 129              		.cfi_def_cfa_offset 16
 130              		.cfi_offset 4, -16
 131              		.cfi_offset 5, -12
 132              		.cfi_offset 6, -8
 133              		.cfi_offset 14, -4
  17:src/charge.c  ****     total_num_cells = pack_config->num_modules * pack_config->module_cell_count;
 134              		.loc 1 17 0
 135 0004 0500     		movs	r5, r0	@ pack_config, pack_config
 136              		.loc 1 18 0
 137 0006 C45C     		ldrb	r4, [r0, r3]	@ tmp131,
 138 0008 C368     		ldr	r3, [r0, #12]	@ tmp151, pack_config_2(D)->num_modules
  19:src/charge.c  **** 
  20:src/charge.c  ****     cc_charge_voltage_mV = pack_config->cc_cell_voltage_mV * total_num_cells;
 139              		.loc 1 20 0
 140 000a 0C4A     		ldr	r2, .L5	@ tmp135,
  18:src/charge.c  **** 
 141              		.loc 1 18 0
 142 000c 5C43     		muls	r4, r3	@ tmp132, tmp151
 143 000e 0C4B     		ldr	r3, .L5+4	@ tmp133,
 144 0010 A4B2     		uxth	r4, r4	@ D.4903, tmp132
 145 0012 1C80     		strh	r4, [r3]	@ D.4903, total_num_cells
 146              		.loc 1 20 0
 147 0014 836A     		ldr	r3, [r0, #40]	@ D.4902, pack_config_2(D)->cc_cell_voltage_mV
ARM GAS  /var/folders/z0/6xlwn_996xz3mwq1cgzkbq4r0000gp/T//ccI3nkYU.s 			page 4


  21:src/charge.c  ****     cc_charge_current_mA = pack_config->cell_capacity_cAh * pack_config->cell_charge_c_rating_cC * 
 148              		.loc 1 21 0
 149 0016 0069     		ldr	r0, [r0, #16]	@ D.4902, pack_config_2(D)->cell_charge_c_rating_cC
 150              	.LVL2:
  20:src/charge.c  ****     cc_charge_current_mA = pack_config->cell_capacity_cAh * pack_config->cell_charge_c_rating_cC * 
 151              		.loc 1 20 0
 152 0018 6343     		muls	r3, r4	@ D.4902, D.4903
 153 001a 1360     		str	r3, [r2]	@ D.4902, cc_charge_voltage_mV
 154              		.loc 1 21 0
 155 001c AB68     		ldr	r3, [r5, #8]	@ tmp154, pack_config_2(D)->cell_capacity_cAh
 156 001e 0A21     		movs	r1, #10	@,
 157 0020 5843     		muls	r0, r3	@ D.4902, tmp154
 158 0022 EB69     		ldr	r3, [r5, #28]	@ tmp155, pack_config_2(D)->pack_cells_p
  22:src/charge.c  **** 
  23:src/charge.c  ****     cv_charge_voltage_mV = pack_config->cell_max_mV * total_num_cells;
  24:src/charge.c  ****     cv_charge_current_mA = cc_charge_current_mA;
  25:src/charge.c  **** }
 159              		.loc 1 25 0
 160              		@ sp needed	@
  21:src/charge.c  **** 
 161              		.loc 1 21 0
 162 0024 5843     		muls	r0, r3	@ D.4902, tmp155
 163 0026 FFF7FEFF 		bl	__aeabi_uidiv	@
 164              	.LVL3:
 165 002a 064B     		ldr	r3, .L5+8	@ tmp146,
 166 002c 1860     		str	r0, [r3]	@ tmp145, cc_charge_current_mA
  23:src/charge.c  ****     cv_charge_current_mA = cc_charge_current_mA;
 167              		.loc 1 23 0
 168 002e 6B68     		ldr	r3, [r5, #4]	@ pack_config_2(D)->cell_max_mV, pack_config_2(D)->cell_max_mV
 169 0030 5C43     		muls	r4, r3	@ D.4902, pack_config_2(D)->cell_max_mV
 170 0032 054B     		ldr	r3, .L5+12	@ tmp147,
 171 0034 1C60     		str	r4, [r3]	@ D.4902, cv_charge_voltage_mV
  24:src/charge.c  **** }
 172              		.loc 1 24 0
 173 0036 054B     		ldr	r3, .L5+16	@ tmp150,
 174 0038 1860     		str	r0, [r3]	@ tmp145, cv_charge_current_mA
 175              	.LVL4:
 176              		.loc 1 25 0
 177 003a 70BD     		pop	{r4, r5, r6, pc}
 178              	.L6:
 179              		.align	2
 180              	.L5:
 181 003c 00000000 		.word	.LANCHOR2
 182 0040 00000000 		.word	.LANCHOR1
 183 0044 00000000 		.word	.LANCHOR3
 184 0048 00000000 		.word	.LANCHOR4
 185 004c 00000000 		.word	.LANCHOR5
 186              		.cfi_endproc
 187              	.LFE1:
 188              		.size	Charge_Config, .-Charge_Config
 189              		.section	.text.Charge_Step,"ax",%progbits
 190              		.align	2
 191              		.global	Charge_Step
 192              		.code	16
 193              		.thumb_func
 194              		.type	Charge_Step, %function
 195              	Charge_Step:
ARM GAS  /var/folders/z0/6xlwn_996xz3mwq1cgzkbq4r0000gp/T//ccI3nkYU.s 			page 5


 196              	.LFB2:
  26:src/charge.c  **** 
  27:src/charge.c  **** void Charge_Step(CSB_INPUT_T *input, CSB_STATE_T *state, CSB_OUTPUT_T *output) {
 197              		.loc 1 27 0
 198              		.cfi_startproc
 199              		@ args = 0, pretend = 0, frame = 0
 200              		@ frame_needed = 0, uses_anonymous_args = 0
 201              	.LVL5:
 202 0000 70B5     		push	{r4, r5, r6, lr}	@
 203              		.cfi_def_cfa_offset 16
 204              		.cfi_offset 4, -16
 205              		.cfi_offset 5, -12
 206              		.cfi_offset 6, -8
 207              		.cfi_offset 14, -4
  28:src/charge.c  **** 
  29:src/charge.c  ****     switch (input->mode_request) {
 208              		.loc 1 29 0
 209 0002 0379     		ldrb	r3, [r0, #4]	@ D.4934,
 210 0004 022B     		cmp	r3, #2	@ D.4934,
 211 0006 29D0     		beq	.L9	@,
 212 0008 032B     		cmp	r3, #3	@ D.4934,
 213 000a 11D1     		bne	.L57	@,
  30:src/charge.c  ****         case CSB_SSM_MODE_CHARGE:
  31:src/charge.c  ****             if (state->charge_state == CSB_CHARGE_OFF
  32:src/charge.c  ****                     || state->charge_state == CSB_CHARGE_BAL) {
  33:src/charge.c  ****                 state->charge_state = CSB_CHARGE_INIT;
  34:src/charge.c  ****             }
  35:src/charge.c  ****             break;
  36:src/charge.c  **** 
  37:src/charge.c  ****         case CSB_SSM_MODE_BALANCE:
  38:src/charge.c  ****             if (state->charge_state == CSB_CHARGE_OFF
 214              		.loc 1 38 0
 215 000c 8C79     		ldrb	r4, [r1, #6]	@ D.4932,
 216 000e 002C     		cmp	r4, #0	@ D.4932,
 217 0010 2FD1     		bne	.L58	@,
 218              	.L13:
  33:src/charge.c  ****             }
 219              		.loc 1 33 0
 220 0012 0124     		movs	r4, #1	@ tmp203,
 221 0014 8C71     		strb	r4, [r1, #6]	@ tmp203, state_13(D)->charge_state
 222              	.L12:
 223              	.LBB28:
  39:src/charge.c  ****                     || state->charge_state == CSB_CHARGE_CC
  40:src/charge.c  ****                     || state->charge_state == CSB_CHARGE_CV) {
  41:src/charge.c  ****                 state->charge_state = CSB_CHARGE_INIT;
  42:src/charge.c  ****             }
  43:src/charge.c  ****             break;
  44:src/charge.c  **** 
  45:src/charge.c  ****         // we want to switch states (either to STANDBY/DISCHARGE/ERROR)
  46:src/charge.c  ****         default:
  47:src/charge.c  ****             if(state->charge_state == CSB_CHARGE_OFF) {
  48:src/charge.c  ****                 state->charge_state = CSB_CHARGE_OFF;
  49:src/charge.c  ****             } else {
  50:src/charge.c  ****                 state->charge_state = CSB_CHARGE_DONE;
  51:src/charge.c  ****             }
  52:src/charge.c  ****             break;
  53:src/charge.c  ****     }
ARM GAS  /var/folders/z0/6xlwn_996xz3mwq1cgzkbq4r0000gp/T//ccI3nkYU.s 			page 6


  54:src/charge.c  **** 
  55:src/charge.c  ****     switch (state->charge_state) {
  56:src/charge.c  ****         case CSB_CHARGE_OFF:
  57:src/charge.c  ****             _set_output(false, false, 0, 0, output);
  58:src/charge.c  ****             break;
  59:src/charge.c  ****         case CSB_CHARGE_INIT:
  60:src/charge.c  ****             _set_output((input->mode_request == CSB_SSM_MODE_CHARGE), false, 0, 0, output);
 224              		.loc 1 60 0
 225 0016 9C1E     		subs	r4, r3, #2	@ tmp222, D.4934,
 226 0018 6642     		rsbs	r6, r4, #0	@ tmp221, tmp222
 227 001a 6641     		adcs	r6, r6, r4	@ tmp221, tmp222
 228              	.LBB29:
 229              	.LBB30:
  61:src/charge.c  **** 
  62:src/charge.c  ****             if (input->contactors_closed == output->close_contactors) {
  63:src/charge.c  ****                 if(input->mode_request == CSB_SSM_MODE_CHARGE) {
  64:src/charge.c  ****                     state->charge_state =
  65:src/charge.c  ****                         (input->pack_status->pack_cell_max_mV < state->pack_config->cell_max_mV) ? 
  66:src/charge.c  ****                 } else if (input->mode_request == CSB_SSM_MODE_BALANCE) {
  67:src/charge.c  ****                     state->charge_state = CSB_CHARGE_BAL;
  68:src/charge.c  ****                 }
  69:src/charge.c  ****             }
  70:src/charge.c  ****             break;
  71:src/charge.c  ****         case CSB_CHARGE_CC:
  72:src/charge.c  ****             if (input->pack_status->pack_cell_max_mV >= state->pack_config->cell_max_mV) {
  73:src/charge.c  ****                 state->charge_state = CSB_CHARGE_CV; // Need to go to CV Mode
  74:src/charge.c  ****                 _set_output(true, true, cv_charge_voltage_mV, cv_charge_current_mA, output);
  75:src/charge.c  ****             } else {
  76:src/charge.c  ****                 // Charge in CC Mode
  77:src/charge.c  ****                 _set_output(true, true, cc_charge_voltage_mV, cc_charge_current_mA, output);
  78:src/charge.c  ****             }
  79:src/charge.c  **** 
  80:src/charge.c  ****             // if(!input->contactors_closed || !input->charger_on) { // [TODO] Think about this
  81:src/charge.c  ****             if(!input->contactors_closed) {
  82:src/charge.c  ****                 _set_output(true, false, 0, 0, output);
  83:src/charge.c  ****                 state->charge_state = CSB_CHARGE_INIT;
  84:src/charge.c  ****             }
  85:src/charge.c  ****             break;
  86:src/charge.c  ****         case CSB_CHARGE_CV:
  87:src/charge.c  **** 
  88:src/charge.c  ****             if (input->pack_status->pack_cell_max_mV < state->pack_config->cell_max_mV) {
  89:src/charge.c  ****                 // Need to go back to CC Mode
  90:src/charge.c  ****                 state->charge_state = CSB_CHARGE_CC;
  91:src/charge.c  ****                 _set_output(true, true, cc_charge_voltage_mV, cc_charge_current_mA, output);
  92:src/charge.c  ****             } else {
  93:src/charge.c  ****                 _set_output(true, true, cv_charge_voltage_mV, cv_charge_current_mA, output);
  94:src/charge.c  **** 
  95:src/charge.c  ****                 if (input->pack_status->pack_current_mA < state->pack_config->cv_min_current_mA*sta
  96:src/charge.c  ****                     if ((input->msTicks - last_time_above_cv_min_curr) >= state->pack_config->cv_mi
  97:src/charge.c  ****                         _set_output(false, false, 0, 0, output);
  98:src/charge.c  ****                         state->charge_state = CSB_CHARGE_DONE;
  99:src/charge.c  ****                         break;
 100:src/charge.c  ****                     }
 101:src/charge.c  ****                 } else {
 102:src/charge.c  ****                     last_time_above_cv_min_curr = input->msTicks;
 103:src/charge.c  ****                 }
 104:src/charge.c  ****             }
ARM GAS  /var/folders/z0/6xlwn_996xz3mwq1cgzkbq4r0000gp/T//ccI3nkYU.s 			page 7


 105:src/charge.c  **** 
 106:src/charge.c  ****             if(!input->contactors_closed) {
 107:src/charge.c  ****                 _set_output(true, false, 0, 0, output);
 108:src/charge.c  ****                 state->charge_state = CSB_CHARGE_INIT;
 109:src/charge.c  ****             }
 110:src/charge.c  ****             break;
 111:src/charge.c  **** 
 112:src/charge.c  ****         case CSB_CHARGE_BAL:
 113:src/charge.c  ****             _set_output(false, false, 0, 0, output);
 114:src/charge.c  ****             bool balancing = input->balance_req;
 115:src/charge.c  **** 
 116:src/charge.c  ****             // Done balancing
 117:src/charge.c  ****             if (!balancing) {
 118:src/charge.c  ****                 state->charge_state = CSB_CHARGE_DONE;
 119:src/charge.c  ****             }
 120:src/charge.c  **** 
 121:src/charge.c  ****             if(input->contactors_closed) {
 122:src/charge.c  ****                 _set_output(false, false, 0, 0, output);
 123:src/charge.c  ****                 state->charge_state = CSB_CHARGE_INIT;
 124:src/charge.c  ****             }
 125:src/charge.c  **** 
 126:src/charge.c  ****             break;
 127:src/charge.c  ****         case CSB_CHARGE_DONE:
 128:src/charge.c  ****             _set_output(false, false, 0, 0, output);
 129:src/charge.c  **** 
 130:src/charge.c  ****             // if not in Charge or Balance, that means SSM is trying to switch to another mode so w
 131:src/charge.c  ****             // if in charge or balance, make sure we don't need to go back to charge or balance
 132:src/charge.c  ****             //    if we do, go back to init
 133:src/charge.c  ****             if (input->mode_request != CSB_SSM_MODE_CHARGE && input->mode_request != CSB_SSM_MODE_B
 134:src/charge.c  ****                 if (!input->contactors_closed && !input->charger_on) {
 135:src/charge.c  ****                     state->charge_state = CSB_CHARGE_OFF;
 136:src/charge.c  ****                 }
 137:src/charge.c  ****             } else {
 138:src/charge.c  ****                 if(input->mode_request == CSB_SSM_MODE_CHARGE) {
 139:src/charge.c  ****                     if (input->pack_status->pack_cell_max_mV < state->pack_config->cell_max_mV) {
 140:src/charge.c  ****                         state->charge_state = CSB_CHARGE_INIT;
 141:src/charge.c  ****                     }
 142:src/charge.c  ****                 } else if (input->mode_request == CSB_SSM_MODE_BALANCE) {
 143:src/charge.c  ****                     int i;
 144:src/charge.c  ****                     for (i = 0; i < total_num_cells; i++) {
 145:src/charge.c  ****                         if (input->pack_status->cell_voltages_mV[i] > input->balance_mV + state->pa
 146:src/charge.c  ****                             state->charge_state = CSB_CHARGE_INIT;
 147:src/charge.c  ****                         }
 148:src/charge.c  ****                     }
 149:src/charge.c  ****                 }
 150:src/charge.c  ****             }
 151:src/charge.c  ****     }
 152:src/charge.c  **** }
 153:src/charge.c  **** 
 154:src/charge.c  **** void _set_output(bool close_contactors, bool charger_on, uint32_t charge_voltage_mV, uint32_t charg
 155:src/charge.c  ****     output->close_contactors = close_contactors;
 156:src/charge.c  ****     output->charger_on = charger_on;
 230              		.loc 1 156 0
 231 001c 0025     		movs	r5, #0	@ tmp225,
 232              	.LBE30:
 233              	.LBE29:
  60:src/charge.c  **** 
ARM GAS  /var/folders/z0/6xlwn_996xz3mwq1cgzkbq4r0000gp/T//ccI3nkYU.s 			page 8


 234              		.loc 1 60 0
 235 001e F4B2     		uxtb	r4, r6	@ D.4936, tmp221
 236              	.LVL6:
 237              	.LBB32:
 238              	.LBB31:
 155:src/charge.c  ****     output->charger_on = charger_on;
 239              		.loc 1 155 0
 240 0020 5472     		strb	r4, [r2, #9]	@ D.4936, output_23(D)->close_contactors
 241              		.loc 1 156 0
 242 0022 9572     		strb	r5, [r2, #10]	@ tmp225, output_23(D)->charger_on
 157:src/charge.c  ****     output->voltage_req_mV = charge_voltage_mV;
 243              		.loc 1 157 0
 244 0024 1560     		str	r5, [r2]	@ tmp225, output_23(D)->voltage_req_mV
 158:src/charge.c  ****     output->current_req_mA = charge_current_mA;
 245              		.loc 1 158 0
 246 0026 5560     		str	r5, [r2, #4]	@ tmp225, output_23(D)->current_req_mA
 247              	.LVL7:
 248              	.LBE31:
 249              	.LBE32:
  62:src/charge.c  ****                 if(input->mode_request == CSB_SSM_MODE_CHARGE) {
 250              		.loc 1 62 0
 251 0028 827C     		ldrb	r2, [r0, #18]	@ tmp229,
 252              	.LVL8:
 253 002a A242     		cmp	r2, r4	@ tmp229, D.4936
 254 002c 2DD0     		beq	.L59	@,
 255              	.LVL9:
 256              	.L7:
 257              	.LBE28:
 152:src/charge.c  **** 
 258              		.loc 1 152 0
 259              		@ sp needed	@
 260 002e 70BD     		pop	{r4, r5, r6, pc}
 261              	.LVL10:
 262              	.L57:
  47:src/charge.c  ****                 state->charge_state = CSB_CHARGE_OFF;
 263              		.loc 1 47 0
 264 0030 8C79     		ldrb	r4, [r1, #6]	@ tmp207,
 265 0032 002C     		cmp	r4, #0	@ tmp207,
 266 0034 23D0     		beq	.L14	@,
  50:src/charge.c  ****             }
 267              		.loc 1 50 0
 268 0036 0624     		movs	r4, #6	@ tmp208,
 269 0038 8C71     		strb	r4, [r1, #6]	@ tmp208, state_13(D)->charge_state
 270              	.L15:
 271              	.LVL11:
 272              	.LBB50:
 273              	.LBB33:
 274              	.LBB34:
 155:src/charge.c  ****     output->charger_on = charger_on;
 275              		.loc 1 155 0
 276 003a 0024     		movs	r4, #0	@ tmp318,
 277 003c 5472     		strb	r4, [r2, #9]	@ tmp318, output_23(D)->close_contactors
 156:src/charge.c  ****     output->voltage_req_mV = charge_voltage_mV;
 278              		.loc 1 156 0
 279 003e 9472     		strb	r4, [r2, #10]	@ tmp318, output_23(D)->charger_on
 157:src/charge.c  ****     output->current_req_mA = charge_current_mA;
 280              		.loc 1 157 0
ARM GAS  /var/folders/z0/6xlwn_996xz3mwq1cgzkbq4r0000gp/T//ccI3nkYU.s 			page 9


 281 0040 1460     		str	r4, [r2]	@ tmp318, output_23(D)->voltage_req_mV
 282              		.loc 1 158 0
 283 0042 5460     		str	r4, [r2, #4]	@ tmp318, output_23(D)->current_req_mA
 284              	.LVL12:
 285              	.LBE34:
 286              	.LBE33:
 133:src/charge.c  ****                 if (!input->contactors_closed && !input->charger_on) {
 287              		.loc 1 133 0
 288 0044 9A1E     		subs	r2, r3, #2	@ tmp325, D.4934,
 289              	.LVL13:
 290 0046 012A     		cmp	r2, #1	@ tmp325,
 291 0048 00D8     		bhi	.LCB190	@
 292 004a 8CE0     		b	.L32	@long jump	@
 293              	.LCB190:
 134:src/charge.c  ****                     state->charge_state = CSB_CHARGE_OFF;
 294              		.loc 1 134 0
 295 004c 837C     		ldrb	r3, [r0, #18]	@ tmp326,
 296 004e 002B     		cmp	r3, #0	@ tmp326,
 297 0050 EDD1     		bne	.L7	@,
 134:src/charge.c  ****                     state->charge_state = CSB_CHARGE_OFF;
 298              		.loc 1 134 0 is_stmt 0 discriminator 1
 299 0052 C37C     		ldrb	r3, [r0, #19]	@ tmp327,
 300 0054 002B     		cmp	r3, #0	@ tmp327,
 301 0056 EAD1     		bne	.L7	@,
 140:src/charge.c  ****                     }
 302              		.loc 1 140 0 is_stmt 1
 303 0058 8B71     		strb	r3, [r1, #6]	@ tmp335, state_13(D)->charge_state
 304 005a E8E7     		b	.L7	@
 305              	.LVL14:
 306              	.L9:
 307              	.LBE50:
  31:src/charge.c  ****                     || state->charge_state == CSB_CHARGE_BAL) {
 308              		.loc 1 31 0
 309 005c 8C79     		ldrb	r4, [r1, #6]	@ D.4932,
 310 005e 0425     		movs	r5, #4	@ tmp200,
 311 0060 2600     		movs	r6, r4	@ tmp202, D.4932
 312 0062 AE43     		bics	r6, r5	@ tmp202, tmp200
 313 0064 D5D0     		beq	.L13	@,
  55:src/charge.c  ****         case CSB_CHARGE_OFF:
 314              		.loc 1 55 0
 315 0066 062C     		cmp	r4, #6	@ D.4932,
 316 0068 E1D8     		bhi	.L7	@,
 317              	.L60:
 318 006a 504D     		ldr	r5, .L62	@ tmp212,
 319 006c A400     		lsls	r4, r4, #2	@ tmp210, D.4932,
 320 006e 2C59     		ldr	r4, [r5, r4]	@ tmp213,
 321 0070 A746     		mov	pc, r4	@ tmp213
 322              		.section	.rodata.Charge_Step,"a",%progbits
 323              		.align	2
 324              	.L17:
 325 0000 7E000000 		.word	.L14
 326 0004 16000000 		.word	.L12
 327 0008 F6000000 		.word	.L18
 328 000c BE000000 		.word	.L19
 329 0010 94000000 		.word	.L20
 330 0014 2E000000 		.word	.L7
 331 0018 3A000000 		.word	.L15
ARM GAS  /var/folders/z0/6xlwn_996xz3mwq1cgzkbq4r0000gp/T//ccI3nkYU.s 			page 10


 332              		.section	.text.Charge_Step
 333              	.L58:
  39:src/charge.c  ****                     || state->charge_state == CSB_CHARGE_CV) {
 334              		.loc 1 39 0
 335 0072 A51E     		subs	r5, r4, #2	@ tmp206, D.4932,
 336 0074 012D     		cmp	r5, #1	@ tmp206,
 337 0076 CCD9     		bls	.L13	@,
  55:src/charge.c  ****         case CSB_CHARGE_OFF:
 338              		.loc 1 55 0
 339 0078 062C     		cmp	r4, #6	@ D.4932,
 340 007a F6D9     		bls	.L60	@,
 341 007c D7E7     		b	.L7	@
 342              	.L14:
 343              	.LVL15:
 344              	.LBB51:
 345              	.LBB35:
 346              	.LBB36:
 155:src/charge.c  ****     output->charger_on = charger_on;
 347              		.loc 1 155 0
 348 007e 0023     		movs	r3, #0	@ tmp214,
 349 0080 5372     		strb	r3, [r2, #9]	@ tmp214, output_23(D)->close_contactors
 156:src/charge.c  ****     output->voltage_req_mV = charge_voltage_mV;
 350              		.loc 1 156 0
 351 0082 9372     		strb	r3, [r2, #10]	@ tmp214, output_23(D)->charger_on
 157:src/charge.c  ****     output->current_req_mA = charge_current_mA;
 352              		.loc 1 157 0
 353 0084 1360     		str	r3, [r2]	@ tmp214, output_23(D)->voltage_req_mV
 354              		.loc 1 158 0
 355 0086 5360     		str	r3, [r2, #4]	@ tmp214, output_23(D)->current_req_mA
 356 0088 D1E7     		b	.L7	@
 357              	.LVL16:
 358              	.L59:
 359              	.LBE36:
 360              	.LBE35:
  63:src/charge.c  ****                     state->charge_state =
 361              		.loc 1 63 0
 362 008a 022B     		cmp	r3, #2	@ D.4934,
 363 008c 62D0     		beq	.L61	@,
  66:src/charge.c  ****                     state->charge_state = CSB_CHARGE_BAL;
 364              		.loc 1 66 0
 365 008e 032B     		cmp	r3, #3	@ D.4934,
 366 0090 CDD1     		bne	.L7	@,
 367 0092 11E0     		b	.L52	@
 368              	.LVL17:
 369              	.L20:
 370              	.LBB37:
 371              	.LBB38:
 155:src/charge.c  ****     output->charger_on = charger_on;
 372              		.loc 1 155 0
 373 0094 0023     		movs	r3, #0	@ tmp300,
 374 0096 5372     		strb	r3, [r2, #9]	@ tmp300, output_23(D)->close_contactors
 156:src/charge.c  ****     output->voltage_req_mV = charge_voltage_mV;
 375              		.loc 1 156 0
 376 0098 9372     		strb	r3, [r2, #10]	@ tmp300, output_23(D)->charger_on
 157:src/charge.c  ****     output->current_req_mA = charge_current_mA;
 377              		.loc 1 157 0
 378 009a 1360     		str	r3, [r2]	@ tmp300, output_23(D)->voltage_req_mV
ARM GAS  /var/folders/z0/6xlwn_996xz3mwq1cgzkbq4r0000gp/T//ccI3nkYU.s 			page 11


 379              		.loc 1 158 0
 380 009c 5360     		str	r3, [r2, #4]	@ tmp300, output_23(D)->current_req_mA
 381              	.LVL18:
 382              	.LBE38:
 383              	.LBE37:
 117:src/charge.c  ****                 state->charge_state = CSB_CHARGE_DONE;
 384              		.loc 1 117 0
 385 009e 437C     		ldrb	r3, [r0, #17]	@ tmp306,
 386 00a0 002B     		cmp	r3, #0	@ tmp306,
 387 00a2 01D1     		bne	.L31	@,
 118:src/charge.c  ****             }
 388              		.loc 1 118 0
 389 00a4 0633     		adds	r3, r3, #6	@ tmp307,
 390 00a6 8B71     		strb	r3, [r1, #6]	@ tmp307, state_13(D)->charge_state
 391              	.LVL19:
 392              	.L31:
 121:src/charge.c  ****                 _set_output(false, false, 0, 0, output);
 393              		.loc 1 121 0
 394 00a8 837C     		ldrb	r3, [r0, #18]	@ tmp309,
 395 00aa 002B     		cmp	r3, #0	@ tmp309,
 396 00ac BFD0     		beq	.L7	@,
 397              	.LVL20:
 398              	.LBB39:
 399              	.LBB40:
 155:src/charge.c  ****     output->charger_on = charger_on;
 400              		.loc 1 155 0
 401 00ae 0023     		movs	r3, #0	@ tmp310,
 402 00b0 5372     		strb	r3, [r2, #9]	@ tmp310, output_23(D)->close_contactors
 156:src/charge.c  ****     output->voltage_req_mV = charge_voltage_mV;
 403              		.loc 1 156 0
 404 00b2 9372     		strb	r3, [r2, #10]	@ tmp310, output_23(D)->charger_on
 157:src/charge.c  ****     output->current_req_mA = charge_current_mA;
 405              		.loc 1 157 0
 406 00b4 1360     		str	r3, [r2]	@ tmp310, output_23(D)->voltage_req_mV
 407              		.loc 1 158 0
 408 00b6 5360     		str	r3, [r2, #4]	@ tmp310, output_23(D)->current_req_mA
 409              	.LVL21:
 410              	.L52:
 411              	.LBE40:
 412              	.LBE39:
 123:src/charge.c  ****             }
 413              		.loc 1 123 0
 414 00b8 0133     		adds	r3, r3, #1	@ tmp316,
 415 00ba 8B71     		strb	r3, [r1, #6]	@ tmp316, state_13(D)->charge_state
 416 00bc B7E7     		b	.L7	@
 417              	.LVL22:
 418              	.L19:
  88:src/charge.c  ****                 // Need to go back to CC Mode
 419              		.loc 1 88 0
 420 00be 0468     		ldr	r4, [r0]	@ D.4937, input_11(D)->pack_status
 421 00c0 0B68     		ldr	r3, [r1]	@ D.4939, state_13(D)->pack_config
 422 00c2 A568     		ldr	r5, [r4, #8]	@ tmp357, _48->pack_cell_max_mV
 423 00c4 5E68     		ldr	r6, [r3, #4]	@ tmp358, _50->cell_max_mV
 424 00c6 B542     		cmp	r5, r6	@ tmp357, tmp358
 425 00c8 22D2     		bcs	.L27	@,
  90:src/charge.c  ****                 _set_output(true, true, cc_charge_voltage_mV, cc_charge_current_mA, output);
 426              		.loc 1 90 0
ARM GAS  /var/folders/z0/6xlwn_996xz3mwq1cgzkbq4r0000gp/T//ccI3nkYU.s 			page 12


 427 00ca 0223     		movs	r3, #2	@ tmp266,
 428 00cc 8B71     		strb	r3, [r1, #6]	@ tmp266, state_13(D)->charge_state
 429              	.L25:
  77:src/charge.c  ****             }
 430              		.loc 1 77 0
 431 00ce 384B     		ldr	r3, .L62+4	@ tmp249,
 432 00d0 1B68     		ldr	r3, [r3]	@ tmp355, cc_charge_voltage_mV
 433 00d2 1360     		str	r3, [r2]	@ tmp355, output_23(D)->voltage_req_mV
 434 00d4 374B     		ldr	r3, .L62+8	@ tmp250,
 435              	.L49:
 436 00d6 1B68     		ldr	r3, [r3]	@ tmp356,
 437 00d8 5360     		str	r3, [r2, #4]	@ tmp356, output_23(D)->current_req_mA
 438              	.LVL23:
 439              	.LBB41:
 440              	.LBB42:
 155:src/charge.c  ****     output->charger_on = charger_on;
 441              		.loc 1 155 0
 442 00da 0123     		movs	r3, #1	@ tmp251,
 443              	.LVL24:
 444 00dc 5372     		strb	r3, [r2, #9]	@ tmp251, output_23(D)->close_contactors
 156:src/charge.c  ****     output->voltage_req_mV = charge_voltage_mV;
 445              		.loc 1 156 0
 446 00de 9372     		strb	r3, [r2, #10]	@ tmp251, output_23(D)->charger_on
 447              	.LVL25:
 448              	.L51:
 449              	.LBE42:
 450              	.LBE41:
  81:src/charge.c  ****                 _set_output(true, false, 0, 0, output);
 451              		.loc 1 81 0
 452 00e0 837C     		ldrb	r3, [r0, #18]	@ tmp255,
 453 00e2 002B     		cmp	r3, #0	@ tmp255,
 454 00e4 A3D1     		bne	.L7	@,
 455              	.LVL26:
 456              	.LBB43:
 457              	.LBB44:
 156:src/charge.c  ****     output->voltage_req_mV = charge_voltage_mV;
 458              		.loc 1 156 0
 459 00e6 0023     		movs	r3, #0	@ tmp258,
 155:src/charge.c  ****     output->charger_on = charger_on;
 460              		.loc 1 155 0
 461 00e8 0120     		movs	r0, #1	@ tmp256,
 462              	.LVL27:
 156:src/charge.c  ****     output->voltage_req_mV = charge_voltage_mV;
 463              		.loc 1 156 0
 464 00ea 9372     		strb	r3, [r2, #10]	@ tmp258, output_23(D)->charger_on
 155:src/charge.c  ****     output->charger_on = charger_on;
 465              		.loc 1 155 0
 466 00ec 5072     		strb	r0, [r2, #9]	@ tmp256, output_23(D)->close_contactors
 157:src/charge.c  ****     output->current_req_mA = charge_current_mA;
 467              		.loc 1 157 0
 468 00ee 1360     		str	r3, [r2]	@ tmp258, output_23(D)->voltage_req_mV
 469              		.loc 1 158 0
 470 00f0 5360     		str	r3, [r2, #4]	@ tmp258, output_23(D)->current_req_mA
 471              	.LVL28:
 472              	.LBE44:
 473              	.LBE43:
  83:src/charge.c  ****             }
ARM GAS  /var/folders/z0/6xlwn_996xz3mwq1cgzkbq4r0000gp/T//ccI3nkYU.s 			page 13


 474              		.loc 1 83 0
 475 00f2 8871     		strb	r0, [r1, #6]	@ tmp256, state_13(D)->charge_state
 476 00f4 9BE7     		b	.L7	@
 477              	.LVL29:
 478              	.L18:
  72:src/charge.c  ****                 state->charge_state = CSB_CHARGE_CV; // Need to go to CV Mode
 479              		.loc 1 72 0
 480 00f6 0468     		ldr	r4, [r0]	@ input_11(D)->pack_status, input_11(D)->pack_status
 481 00f8 0B68     		ldr	r3, [r1]	@ state_13(D)->pack_config, state_13(D)->pack_config
 482 00fa A468     		ldr	r4, [r4, #8]	@ _34->pack_cell_max_mV, _34->pack_cell_max_mV
 483 00fc 5B68     		ldr	r3, [r3, #4]	@ _36->cell_max_mV, _36->cell_max_mV
 484 00fe 9C42     		cmp	r4, r3	@ _34->pack_cell_max_mV, _36->cell_max_mV
 485 0100 E5D3     		bcc	.L25	@,
  73:src/charge.c  ****                 _set_output(true, true, cv_charge_voltage_mV, cv_charge_current_mA, output);
 486              		.loc 1 73 0
 487 0102 0323     		movs	r3, #3	@ tmp241,
 488 0104 8B71     		strb	r3, [r1, #6]	@ tmp241, state_13(D)->charge_state
  74:src/charge.c  ****             } else {
 489              		.loc 1 74 0
 490 0106 2C4B     		ldr	r3, .L62+12	@ tmp243,
 491 0108 1B68     		ldr	r3, [r3]	@ tmp353, cv_charge_voltage_mV
 492 010a 1360     		str	r3, [r2]	@ tmp353, output_23(D)->voltage_req_mV
 493 010c 2B4B     		ldr	r3, .L62+16	@ tmp244,
 494 010e E2E7     		b	.L49	@
 495              	.L27:
  93:src/charge.c  **** 
 496              		.loc 1 93 0
 497 0110 294D     		ldr	r5, .L62+12	@ tmp274,
  95:src/charge.c  ****                     if ((input->msTicks - last_time_above_cv_min_curr) >= state->pack_config->cv_mi
 498              		.loc 1 95 0
 499 0112 1E6A     		ldr	r6, [r3, #32]	@ tmp366, _50->cv_min_current_mA
  93:src/charge.c  **** 
 500              		.loc 1 93 0
 501 0114 2D68     		ldr	r5, [r5]	@ tmp363, cv_charge_voltage_mV
  95:src/charge.c  ****                     if ((input->msTicks - last_time_above_cv_min_curr) >= state->pack_config->cv_mi
 502              		.loc 1 95 0
 503 0116 2469     		ldr	r4, [r4, #16]	@ _48->pack_current_mA, _48->pack_current_mA
  93:src/charge.c  **** 
 504              		.loc 1 93 0
 505 0118 1560     		str	r5, [r2]	@ tmp363, output_23(D)->voltage_req_mV
 506 011a 284D     		ldr	r5, .L62+16	@ tmp275,
 507 011c 2D68     		ldr	r5, [r5]	@ tmp364, cv_charge_current_mA
 508 011e 5560     		str	r5, [r2, #4]	@ tmp364, output_23(D)->current_req_mA
 509              	.LVL30:
 510              	.LBB45:
 511              	.LBB46:
 155:src/charge.c  ****     output->charger_on = charger_on;
 512              		.loc 1 155 0
 513 0120 0125     		movs	r5, #1	@ tmp276,
 514 0122 5572     		strb	r5, [r2, #9]	@ tmp276, output_23(D)->close_contactors
 156:src/charge.c  ****     output->voltage_req_mV = charge_voltage_mV;
 515              		.loc 1 156 0
 516 0124 9572     		strb	r5, [r2, #10]	@ tmp276, output_23(D)->charger_on
 517              	.LBE46:
 518              	.LBE45:
  95:src/charge.c  ****                     if ((input->msTicks - last_time_above_cv_min_curr) >= state->pack_config->cv_mi
 519              		.loc 1 95 0
ARM GAS  /var/folders/z0/6xlwn_996xz3mwq1cgzkbq4r0000gp/T//ccI3nkYU.s 			page 14


 520 0126 DD69     		ldr	r5, [r3, #28]	@ D.4938, _50->pack_cells_p
 521 0128 7543     		muls	r5, r6	@ D.4938, tmp366
 522 012a AC42     		cmp	r4, r5	@ _48->pack_current_mA, D.4938
 523 012c 0ED2     		bcs	.L29	@,
  96:src/charge.c  ****                         _set_output(false, false, 0, 0, output);
 524              		.loc 1 96 0
 525 012e 244C     		ldr	r4, .L62+20	@ tmp284,
 526 0130 C568     		ldr	r5, [r0, #12]	@ tmp367, input_11(D)->msTicks
 527 0132 2468     		ldr	r4, [r4]	@ last_time_above_cv_min_curr, last_time_above_cv_min_curr
 528 0134 5B6A     		ldr	r3, [r3, #36]	@ _50->cv_min_current_ms, _50->cv_min_current_ms
 529 0136 2C1B     		subs	r4, r5, r4	@ D.4938, tmp367, last_time_above_cv_min_curr
 530 0138 9C42     		cmp	r4, r3	@ D.4938, _50->cv_min_current_ms
 531 013a D1D3     		bcc	.L51	@,
 532              	.LVL31:
 533              	.LBB47:
 534              	.LBB48:
 155:src/charge.c  ****     output->charger_on = charger_on;
 535              		.loc 1 155 0
 536 013c 0023     		movs	r3, #0	@ tmp289,
 537 013e 5372     		strb	r3, [r2, #9]	@ tmp289, output_23(D)->close_contactors
 156:src/charge.c  ****     output->voltage_req_mV = charge_voltage_mV;
 538              		.loc 1 156 0
 539 0140 9372     		strb	r3, [r2, #10]	@ tmp289, output_23(D)->charger_on
 157:src/charge.c  ****     output->current_req_mA = charge_current_mA;
 540              		.loc 1 157 0
 541 0142 1360     		str	r3, [r2]	@ tmp289, output_23(D)->voltage_req_mV
 542              		.loc 1 158 0
 543 0144 5360     		str	r3, [r2, #4]	@ tmp289, output_23(D)->current_req_mA
 544              	.LVL32:
 545              	.LBE48:
 546              	.LBE47:
  98:src/charge.c  ****                         break;
 547              		.loc 1 98 0
 548 0146 0633     		adds	r3, r3, #6	@ tmp295,
 549 0148 8B71     		strb	r3, [r1, #6]	@ tmp295, state_13(D)->charge_state
  99:src/charge.c  ****                     }
 550              		.loc 1 99 0
 551 014a 70E7     		b	.L7	@
 552              	.L29:
 102:src/charge.c  ****                 }
 553              		.loc 1 102 0
 554 014c 1C4B     		ldr	r3, .L62+20	@ tmp297,
 555 014e C468     		ldr	r4, [r0, #12]	@ tmp368, input_11(D)->msTicks
 556 0150 1C60     		str	r4, [r3]	@ tmp368, last_time_above_cv_min_curr
 557 0152 C5E7     		b	.L51	@
 558              	.LVL33:
 559              	.L61:
  65:src/charge.c  ****                 } else if (input->mode_request == CSB_SSM_MODE_BALANCE) {
 560              		.loc 1 65 0
 561 0154 0268     		ldr	r2, [r0]	@ input_11(D)->pack_status, input_11(D)->pack_status
 562 0156 0B68     		ldr	r3, [r1]	@ state_13(D)->pack_config, state_13(D)->pack_config
  64:src/charge.c  ****                         (input->pack_status->pack_cell_max_mV < state->pack_config->cell_max_mV) ? 
 563              		.loc 1 64 0
 564 0158 9268     		ldr	r2, [r2, #8]	@ _28->pack_cell_max_mV, _28->pack_cell_max_mV
 565 015a 5B68     		ldr	r3, [r3, #4]	@ _30->cell_max_mV, _30->cell_max_mV
 566 015c 9A42     		cmp	r2, r3	@ _28->pack_cell_max_mV, _30->cell_max_mV
 567 015e 6D41     		adcs	r5, r5, r5	@ tmp345, tmp225, tmp225
ARM GAS  /var/folders/z0/6xlwn_996xz3mwq1cgzkbq4r0000gp/T//ccI3nkYU.s 			page 15


 568 0160 0235     		adds	r5, r5, #2	@ D.4931,
 569 0162 8D71     		strb	r5, [r1, #6]	@ D.4931, state_13(D)->charge_state
 570 0164 63E7     		b	.L7	@
 571              	.L32:
 138:src/charge.c  ****                     if (input->pack_status->pack_cell_max_mV < state->pack_config->cell_max_mV) {
 572              		.loc 1 138 0
 573 0166 022B     		cmp	r3, #2	@ D.4934,
 574 0168 15D0     		beq	.L33	@,
 575              	.LVL34:
 576              	.LBB49:
 144:src/charge.c  ****                         if (input->pack_status->cell_voltages_mV[i] > input->balance_mV + state->pa
 577              		.loc 1 144 0 discriminator 1
 578 016a 164B     		ldr	r3, .L62+24	@ tmp330,
 579 016c 1A88     		ldrh	r2, [r3]	@ D.4942, total_num_cells
 580 016e 002A     		cmp	r2, #0	@ D.4942,
 581 0170 00D1     		bne	.LCB536	@
 582 0172 5CE7     		b	.L7	@long jump	@
 583              	.LCB536:
 584 0174 0B68     		ldr	r3, [r1]	@ state_13(D)->pack_config, state_13(D)->pack_config
 585 0176 0468     		ldr	r4, [r0]	@ input_11(D)->pack_status, input_11(D)->pack_status
 586 0178 5D69     		ldr	r5, [r3, #20]	@ _90->bal_on_thresh_mV, _90->bal_on_thresh_mV
 587 017a 8368     		ldr	r3, [r0, #8]	@ input_11(D)->balance_mV, input_11(D)->balance_mV
 588 017c 9200     		lsls	r2, r2, #2	@ D.4941, D.4942,
 589 017e E818     		adds	r0, r5, r3	@ D.4938, _90->bal_on_thresh_mV, input_11(D)->balance_mV
 590              	.LVL35:
 591 0180 2368     		ldr	r3, [r4]	@ ivtmp.27, _159->cell_voltages_mV
 146:src/charge.c  ****                         }
 592              		.loc 1 146 0
 593 0182 0124     		movs	r4, #1	@ tmp349,
 594 0184 9A18     		adds	r2, r3, r2	@ D.4941, ivtmp.27, D.4941
 595              	.LVL36:
 596              	.L36:
 145:src/charge.c  ****                             state->charge_state = CSB_CHARGE_INIT;
 597              		.loc 1 145 0
 598 0186 1D68     		ldr	r5, [r3]	@ tmp369, MEM[base: _18, offset: 0B]
 599 0188 8542     		cmp	r5, r0	@ tmp369, D.4938
 600 018a 00D9     		bls	.L35	@,
 146:src/charge.c  ****                         }
 601              		.loc 1 146 0
 602 018c 8C71     		strb	r4, [r1, #6]	@ tmp349, state_13(D)->charge_state
 603              	.L35:
 604 018e 0433     		adds	r3, r3, #4	@ ivtmp.27,
 144:src/charge.c  ****                         if (input->pack_status->cell_voltages_mV[i] > input->balance_mV + state->pa
 605              		.loc 1 144 0 discriminator 2
 606 0190 9342     		cmp	r3, r2	@ ivtmp.27, D.4941
 607 0192 F8D1     		bne	.L36	@,
 608 0194 4BE7     		b	.L7	@
 609              	.LVL37:
 610              	.L33:
 611              	.LBE49:
 139:src/charge.c  ****                         state->charge_state = CSB_CHARGE_INIT;
 612              		.loc 1 139 0
 613 0196 0268     		ldr	r2, [r0]	@ input_11(D)->pack_status, input_11(D)->pack_status
 614 0198 0B68     		ldr	r3, [r1]	@ state_13(D)->pack_config, state_13(D)->pack_config
 615 019a 9268     		ldr	r2, [r2, #8]	@ _85->pack_cell_max_mV, _85->pack_cell_max_mV
 616 019c 5B68     		ldr	r3, [r3, #4]	@ _87->cell_max_mV, _87->cell_max_mV
 617 019e 9A42     		cmp	r2, r3	@ _85->pack_cell_max_mV, _87->cell_max_mV
ARM GAS  /var/folders/z0/6xlwn_996xz3mwq1cgzkbq4r0000gp/T//ccI3nkYU.s 			page 16


 618 01a0 00D3     		bcc	.LCB576	@
 619 01a2 44E7     		b	.L7	@long jump	@
 620              	.LCB576:
 140:src/charge.c  ****                     }
 621              		.loc 1 140 0
 622 01a4 0123     		movs	r3, #1	@ tmp335,
 623 01a6 8B71     		strb	r3, [r1, #6]	@ tmp335, state_13(D)->charge_state
 624 01a8 41E7     		b	.L7	@
 625              	.L63:
 626 01aa C046     		.align	2
 627              	.L62:
 628 01ac 00000000 		.word	.L17
 629 01b0 00000000 		.word	.LANCHOR2
 630 01b4 00000000 		.word	.LANCHOR3
 631 01b8 00000000 		.word	.LANCHOR4
 632 01bc 00000000 		.word	.LANCHOR5
 633 01c0 00000000 		.word	.LANCHOR0
 634 01c4 00000000 		.word	.LANCHOR1
 635              	.LBE51:
 636              		.cfi_endproc
 637              	.LFE2:
 638              		.size	Charge_Step, .-Charge_Step
 639              		.section	.text._set_output,"ax",%progbits
 640              		.align	2
 641              		.global	_set_output
 642              		.code	16
 643              		.thumb_func
 644              		.type	_set_output, %function
 645              	_set_output:
 646              	.LFB3:
 154:src/charge.c  ****     output->close_contactors = close_contactors;
 647              		.loc 1 154 0
 648              		.cfi_startproc
 649              		@ args = 4, pretend = 0, frame = 0
 650              		@ frame_needed = 0, uses_anonymous_args = 0
 651              	.LVL38:
 652 0000 10B5     		push	{r4, lr}	@
 653              		.cfi_def_cfa_offset 8
 654              		.cfi_offset 4, -8
 655              		.cfi_offset 14, -4
 154:src/charge.c  ****     output->close_contactors = close_contactors;
 656              		.loc 1 154 0
 657 0002 029C     		ldr	r4, [sp, #8]	@ output, output
 159:src/charge.c  **** }
 658              		.loc 1 159 0
 659              		@ sp needed	@
 155:src/charge.c  ****     output->charger_on = charger_on;
 660              		.loc 1 155 0
 661 0004 6072     		strb	r0, [r4, #9]	@ close_contactors, output_2(D)->close_contactors
 156:src/charge.c  ****     output->voltage_req_mV = charge_voltage_mV;
 662              		.loc 1 156 0
 663 0006 A172     		strb	r1, [r4, #10]	@ charger_on, output_2(D)->charger_on
 158:src/charge.c  **** }
 664              		.loc 1 158 0
 665 0008 0CC4     		stmia	r4!, {r2, r3}	@,,
 666              		.loc 1 159 0
 667 000a 10BD     		pop	{r4, pc}
ARM GAS  /var/folders/z0/6xlwn_996xz3mwq1cgzkbq4r0000gp/T//ccI3nkYU.s 			page 17


 668              		.cfi_endproc
 669              	.LFE3:
 670              		.size	_set_output, .-_set_output
 671              		.section	.bss.cc_charge_voltage_mV,"aw",%nobits
 672              		.align	2
 673              		.set	.LANCHOR2,. + 0
 674              		.type	cc_charge_voltage_mV, %object
 675              		.size	cc_charge_voltage_mV, 4
 676              	cc_charge_voltage_mV:
 677 0000 00000000 		.space	4
 678              		.section	.bss.cv_charge_voltage_mV,"aw",%nobits
 679              		.align	2
 680              		.set	.LANCHOR4,. + 0
 681              		.type	cv_charge_voltage_mV, %object
 682              		.size	cv_charge_voltage_mV, 4
 683              	cv_charge_voltage_mV:
 684 0000 00000000 		.space	4
 685              		.section	.bss.last_time_above_cv_min_curr,"aw",%nobits
 686              		.align	2
 687              		.set	.LANCHOR0,. + 0
 688              		.type	last_time_above_cv_min_curr, %object
 689              		.size	last_time_above_cv_min_curr, 4
 690              	last_time_above_cv_min_curr:
 691 0000 00000000 		.space	4
 692              		.section	.bss.cc_charge_current_mA,"aw",%nobits
 693              		.align	2
 694              		.set	.LANCHOR3,. + 0
 695              		.type	cc_charge_current_mA, %object
 696              		.size	cc_charge_current_mA, 4
 697              	cc_charge_current_mA:
 698 0000 00000000 		.space	4
 699              		.section	.bss.cv_charge_current_mA,"aw",%nobits
 700              		.align	2
 701              		.set	.LANCHOR5,. + 0
 702              		.type	cv_charge_current_mA, %object
 703              		.size	cv_charge_current_mA, 4
 704              	cv_charge_current_mA:
 705 0000 00000000 		.space	4
 706              		.section	.bss.total_num_cells,"aw",%nobits
 707              		.align	1
 708              		.set	.LANCHOR1,. + 0
 709              		.type	total_num_cells, %object
 710              		.size	total_num_cells, 2
 711              	total_num_cells:
 712 0000 0000     		.space	2
 713              		.text
 714              	.Letext0:
 715              		.file 2 "/usr/local/Cellar/gcc-arm-none-eabi/20160928/arm-none-eabi/include/machine/_default_types
 716              		.file 3 "/usr/local/Cellar/gcc-arm-none-eabi/20160928/arm-none-eabi/include/sys/_stdint.h"
 717              		.file 4 "inc/structs.h"