ARM GAS  /var/folders/z0/6xlwn_996xz3mwq1cgzkbq4r0000gp/T//cc3rPjEN.s 			page 1


   1              		.syntax unified
   2              		.cpu cortex-m0
   3              		.fpu softvfp
   4              		.eabi_attribute 20, 1	@ Tag_ABI_FP_denormal
   5              		.eabi_attribute 21, 1	@ Tag_ABI_FP_exceptions
   6              		.eabi_attribute 23, 3	@ Tag_ABI_FP_number_model
   7              		.eabi_attribute 24, 1	@ Tag_ABI_align8_needed
   8              		.eabi_attribute 25, 1	@ Tag_ABI_align8_preserved
   9              		.eabi_attribute 26, 1	@ Tag_ABI_enum_size
  10              		.eabi_attribute 30, 2	@ Tag_ABI_optimization_goals
  11              		.eabi_attribute 34, 0	@ Tag_CPU_unaligned_access
  12              		.eabi_attribute 18, 4	@ Tag_ABI_PCS_wchar_t
  13              		.file	"console.c"
  14              	@ GNU C89 (GNU Tools for ARM Embedded Processors) version 5.4.1 20160919 (release) [ARM/embedded-5-
  15              	@	compiled by GNU C version 4.2.1 (Based on Apple Inc. build 5658) (LLVM build 2336.9.00), GMP vers
  16              	@ GGC heuristics: --param ggc-min-expand=100 --param ggc-min-heapsize=131072
  17              	@ options passed:  -I . -I inc/
  18              	@ -I ../../lib/lpc11cx4-library/lpc_chip_11cxx_lib/inc
  19              	@ -I ../../lib/lpc11cx4-library/evt_lib/inc/ -I ../../lib/CANlib
  20              	@ -imultilib armv6-m
  21              	@ -iprefix /usr/local/Cellar/gcc-arm-none-eabi/20160928/bin/../lib/gcc/arm-none-eabi/5.4.1/
  22              	@ -isysroot /usr/local/Cellar/gcc-arm-none-eabi/20160928/bin/../arm-none-eabi
  23              	@ -MD bin/console.d -MF bin/console.d -MP -MQ bin/console.o
  24              	@ -D__USES_INITFINI__ -D UART_BAUD=57600 -D CORE_M0 -D DEBUG_ENABLE
  25              	@ -D FSAE_DRIVERS -D CAN_ARCHITECTURE_ARM src/console.c -mcpu=cortex-m0
  26              	@ -mthumb -auxbase-strip bin/console.o -g -ggdb3 -O2 -Wall
  27              	@ -Wstrict-prototypes -Wextra -std=gnu90 -ffunction-sections
  28              	@ -fdata-sections -fdiagnostics-color=always -fverbose-asm
  29              	@ options enabled:  -faggressive-loop-optimizations -falign-functions
  30              	@ -falign-jumps -falign-labels -falign-loops -fauto-inc-dec
  31              	@ -fbranch-count-reg -fcaller-saves -fchkp-check-incomplete-type
  32              	@ -fchkp-check-read -fchkp-check-write -fchkp-instrument-calls
  33              	@ -fchkp-narrow-bounds -fchkp-optimize -fchkp-store-bounds
  34              	@ -fchkp-use-static-bounds -fchkp-use-static-const-bounds
  35              	@ -fchkp-use-wrappers -fcombine-stack-adjustments -fcommon -fcompare-elim
  36              	@ -fcprop-registers -fcrossjumping -fcse-follow-jumps -fdata-sections
  37              	@ -fdefer-pop -fdelete-null-pointer-checks -fdevirtualize
  38              	@ -fdevirtualize-speculatively -fdwarf2-cfi-asm -fearly-inlining
  39              	@ -feliminate-unused-debug-types -fexpensive-optimizations
  40              	@ -fforward-propagate -ffunction-cse -ffunction-sections -fgcse -fgcse-lm
  41              	@ -fgnu-runtime -fgnu-unique -fguess-branch-probability
  42              	@ -fhoist-adjacent-loads -fident -fif-conversion -fif-conversion2
  43              	@ -findirect-inlining -finline -finline-atomics
  44              	@ -finline-functions-called-once -finline-small-functions -fipa-cp
  45              	@ -fipa-cp-alignment -fipa-icf -fipa-icf-functions -fipa-icf-variables
  46              	@ -fipa-profile -fipa-pure-const -fipa-reference -fipa-sra
  47              	@ -fira-hoist-pressure -fira-share-save-slots -fira-share-spill-slots
  48              	@ -fisolate-erroneous-paths-dereference -fivopts -fkeep-static-consts
  49              	@ -fleading-underscore -flifetime-dse -flra-remat -flto-odr-type-merging
  50              	@ -fmath-errno -fmerge-constants -fmerge-debug-strings
  51              	@ -fmove-loop-invariants -fomit-frame-pointer -foptimize-sibling-calls
  52              	@ -foptimize-strlen -fpartial-inlining -fpeephole -fpeephole2
  53              	@ -fprefetch-loop-arrays -freg-struct-return -freorder-blocks
  54              	@ -freorder-functions -frerun-cse-after-loop
  55              	@ -fsched-critical-path-heuristic -fsched-dep-count-heuristic
  56              	@ -fsched-group-heuristic -fsched-interblock -fsched-last-insn-heuristic
  57              	@ -fsched-pressure -fsched-rank-heuristic -fsched-spec
ARM GAS  /var/folders/z0/6xlwn_996xz3mwq1cgzkbq4r0000gp/T//cc3rPjEN.s 			page 2


  58              	@ -fsched-spec-insn-heuristic -fsched-stalled-insns-dep -fschedule-insns2
  59              	@ -fsection-anchors -fsemantic-interposition -fshow-column -fshrink-wrap
  60              	@ -fsigned-zeros -fsplit-ivs-in-unroller -fsplit-wide-types -fssa-phiopt
  61              	@ -fstdarg-opt -fstrict-aliasing -fstrict-overflow
  62              	@ -fstrict-volatile-bitfields -fsync-libcalls -fthread-jumps
  63              	@ -ftoplevel-reorder -ftrapping-math -ftree-bit-ccp -ftree-builtin-call-dce
  64              	@ -ftree-ccp -ftree-ch -ftree-coalesce-vars -ftree-copy-prop
  65              	@ -ftree-copyrename -ftree-cselim -ftree-dce -ftree-dominator-opts
  66              	@ -ftree-dse -ftree-forwprop -ftree-fre -ftree-loop-if-convert
  67              	@ -ftree-loop-im -ftree-loop-ivcanon -ftree-loop-optimize
  68              	@ -ftree-parallelize-loops= -ftree-phiprop -ftree-pre -ftree-pta
  69              	@ -ftree-reassoc -ftree-scev-cprop -ftree-sink -ftree-slsr -ftree-sra
  70              	@ -ftree-switch-conversion -ftree-tail-merge -ftree-ter -ftree-vrp
  71              	@ -funit-at-a-time -fvar-tracking -fvar-tracking-assignments -fverbose-asm
  72              	@ -fzero-initialized-in-bss -mlittle-endian -mpic-data-is-text-relative
  73              	@ -msched-prolog -mthumb -mvectorize-with-neon-quad
  74              	
  75              		.text
  76              	.Ltext0:
  77              		.cfi_sections	.debug_frame
  78              		.section	.text.measure,"ax",%progbits
  79              		.align	2
  80              		.code	16
  81              		.thumb_func
  82              		.type	measure, %function
  83              	measure:
  84              	.LFB203:
  85              		.file 1 "src/console.c"
   1:src/console.c **** #include <string.h>
   2:src/console.c **** #include <stdlib.h>
   3:src/console.c **** #include "console.h"
   4:src/console.c **** #include "microrl.h"
   5:src/console.c **** #include "board.h"
   6:src/console.c **** #include "console_types.h"
   7:src/console.c **** #include "config.h"
   8:src/console.c **** #include "pack_config.h"
   9:src/console.c **** 
  10:src/console.c **** static CSB_INPUT_T *csb_input;
  11:src/console.c **** static CSB_STATE_T *csb_state;
  12:src/console.c **** static CONSOLE_OUTPUT_T *console_output;
  13:src/console.c **** 
  14:src/console.c **** static uint32_t lastPackCurrentPrintTime = 0;
  15:src/console.c **** static uint32_t lastPackVoltagePrintTime = 0;
  16:src/console.c **** 
  17:src/console.c **** // [TODO] Fix to not parse strings falsely
  18:src/console.c **** uint32_t my_atou(const char *str) {
  19:src/console.c ****     uint32_t res = 0; // Initialize result
  20:src/console.c **** 
  21:src/console.c ****     // Iterate through all characters of input string and
  22:src/console.c ****     // update result
  23:src/console.c ****     uint32_t i;
  24:src/console.c ****     for ( i = 0; str[i] != '\0'; ++i)
  25:src/console.c ****         res = res*10 + str[i] - '0';
  26:src/console.c **** 
  27:src/console.c ****     // return result.
  28:src/console.c ****     return res;
  29:src/console.c **** }
ARM GAS  /var/folders/z0/6xlwn_996xz3mwq1cgzkbq4r0000gp/T//cc3rPjEN.s 			page 3


  30:src/console.c **** 
  31:src/console.c **** static void get(const char * const * argv) {
  32:src/console.c ****     rw_loc_label_t rwloc;
  33:src/console.c **** 
  34:src/console.c ****     //loop over r/w entries
  35:src/console.c ****     bool foundloc = false;
  36:src/console.c ****     for (rwloc = 0; rwloc < RWL_LENGTH; ++rwloc){
  37:src/console.c ****         if (strcmp(argv[1],locstring[rwloc]) == 0){
  38:src/console.c ****             foundloc = true;
  39:src/console.c ****             break;
  40:src/console.c ****         }
  41:src/console.c ****     }
  42:src/console.c **** 
  43:src/console.c ****     if (foundloc) {
  44:src/console.c ****         char tempstr[20];
  45:src/console.c ****         switch (rwloc) {
  46:src/console.c ****             case RWL_cell_min_mV:
  47:src/console.c ****                 utoa(csb_state->pack_config->cell_min_mV, tempstr,10);
  48:src/console.c ****                 Board_Println(tempstr);
  49:src/console.c ****                 break;
  50:src/console.c ****             case RWL_cell_max_mV:
  51:src/console.c ****                 utoa(csb_state->pack_config->cell_max_mV, tempstr,10);
  52:src/console.c ****                 Board_Println(tempstr);
  53:src/console.c ****                 break;
  54:src/console.c ****             case RWL_cell_capacity_cAh:
  55:src/console.c ****                 utoa(csb_state->pack_config->cell_capacity_cAh, tempstr,10);
  56:src/console.c ****                 Board_Println(tempstr);
  57:src/console.c ****                 break;
  58:src/console.c ****             case RWL_num_modules:
  59:src/console.c ****                 utoa(csb_state->pack_config->num_modules, tempstr,10);
  60:src/console.c ****                 Board_Println(tempstr);
  61:src/console.c ****                 break;
  62:src/console.c ****             case RWL_module_cell_count:
  63:src/console.c ****                 utoa(csb_state->pack_config->module_cell_count, tempstr,10);
  64:src/console.c ****                 Board_Println(tempstr);
  65:src/console.c ****                 break;
  66:src/console.c ****             case RWL_cell_charge_c_rating_cC:
  67:src/console.c ****               utoa(csb_state->pack_config->cell_charge_c_rating_cC, tempstr,10);
  68:src/console.c ****               Board_Println(tempstr);
  69:src/console.c ****               break;
  70:src/console.c ****             case RWL_bal_on_thresh_mV:
  71:src/console.c ****                 utoa(csb_state->pack_config->bal_on_thresh_mV, tempstr,10);
  72:src/console.c ****                 Board_Println(tempstr);
  73:src/console.c ****                 break;
  74:src/console.c ****             case RWL_bal_off_thresh_mV:
  75:src/console.c ****                 utoa(csb_state->pack_config->bal_off_thresh_mV, tempstr,10);
  76:src/console.c ****                 Board_Println(tempstr);
  77:src/console.c ****                 break;
  78:src/console.c ****             case RWL_pack_cells_p:
  79:src/console.c ****                 utoa(csb_state->pack_config->pack_cells_p, tempstr,10);
  80:src/console.c ****                 Board_Println(tempstr);
  81:src/console.c ****                 break;
  82:src/console.c ****             case RWL_cv_min_current_mA:
  83:src/console.c ****                 utoa(csb_state->pack_config->cv_min_current_mA, tempstr,10);
  84:src/console.c ****                 Board_Println(tempstr);
  85:src/console.c ****                 break;
  86:src/console.c ****             case RWL_cv_min_current_ms:
ARM GAS  /var/folders/z0/6xlwn_996xz3mwq1cgzkbq4r0000gp/T//cc3rPjEN.s 			page 4


  87:src/console.c ****                 utoa(csb_state->pack_config->cv_min_current_ms, tempstr,10);
  88:src/console.c ****                 Board_Println(tempstr);
  89:src/console.c ****                 break;
  90:src/console.c ****             case RWL_cc_cell_voltage_mV:
  91:src/console.c ****                 utoa(csb_state->pack_config->cc_cell_voltage_mV, tempstr,10);
  92:src/console.c ****                 Board_Println(tempstr);
  93:src/console.c ****                 break;
  94:src/console.c ****             case RWL_LENGTH:
  95:src/console.c ****                 break;
  96:src/console.c ****         }
  97:src/console.c **** 
  98:src/console.c ****     }
  99:src/console.c ****     else {
 100:src/console.c ****         //loop over r/o entries
 101:src/console.c ****         ro_loc_label_t roloc;
 102:src/console.c ****         for (roloc = (ro_loc_label_t)ROL_FIRST; roloc< ROL_LENGTH; ++roloc){
 103:src/console.c ****             if (strcmp(argv[1],locstring[roloc]) == 0){
 104:src/console.c ****                 foundloc = true;
 105:src/console.c ****                 break;
 106:src/console.c ****             }
 107:src/console.c ****         }
 108:src/console.c ****         if (foundloc) {
 109:src/console.c ****             char tempstr[20];
 110:src/console.c ****             switch (roloc) {
 111:src/console.c ****                 case ROL_state:
 112:src/console.c ****                     Board_Println(CSB_SSM_MODE_NAMES[csb_state->curr_mode]);
 113:src/console.c ****                     Board_Println(CSB_INIT_MODE_NAMES[csb_state->init_state]);
 114:src/console.c ****                     Board_Println(CSB_CHARGE_MODE_NAMES[csb_state->charge_state]);
 115:src/console.c ****                     break;
 116:src/console.c ****                 case ROL_pack_cell_max_mV:
 117:src/console.c ****                     utoa(csb_input->pack_status->pack_cell_max_mV, tempstr,10);
 118:src/console.c ****                     Board_Println(tempstr);
 119:src/console.c ****                     break;
 120:src/console.c ****                 case ROL_pack_current_mA:
 121:src/console.c ****                     utoa(csb_input->pack_status->pack_current_mA, tempstr,10);
 122:src/console.c ****                     Board_Println(tempstr);
 123:src/console.c ****                     break;
 124:src/console.c ****                 case ROL_pack_voltage_mV:
 125:src/console.c ****                     utoa(csb_input->pack_status->pack_voltage_mV, tempstr,10);
 126:src/console.c ****                     Board_Println(tempstr);
 127:src/console.c ****                     break;
 128:src/console.c ****                 case ROL_fault:
 129:src/console.c ****                     //change this to say what fault
 130:src/console.c ****                     utoa(csb_input->low_side_cntr_fault, tempstr,10);
 131:src/console.c ****                     Board_Println(tempstr);
 132:src/console.c ****                     break;
 133:src/console.c ****                 case ROL_LENGTH:
 134:src/console.c ****                     break; //how the hell?
 135:src/console.c ****             }
 136:src/console.c ****         }
 137:src/console.c ****         else{
 138:src/console.c ****             Board_Println("invalid get location");
 139:src/console.c ****         }
 140:src/console.c ****     }
 141:src/console.c **** }
 142:src/console.c **** 
 143:src/console.c **** static void set(const char * const * argv) {
ARM GAS  /var/folders/z0/6xlwn_996xz3mwq1cgzkbq4r0000gp/T//cc3rPjEN.s 			page 5


 144:src/console.c ****     if (csb_state->curr_mode != CSB_SSM_MODE_IDLE)
 145:src/console.c ****     {
 146:src/console.c ****         Board_Println("Set failed (not in standby mode)!");
 147:src/console.c ****         return;
 148:src/console.c ****     }
 149:src/console.c ****     rw_loc_label_t rwloc;
 150:src/console.c ****     //loop over r/w entries
 151:src/console.c ****     bool foundloc = false;
 152:src/console.c ****     for (rwloc = 0; rwloc < RWL_LENGTH; ++rwloc){
 153:src/console.c ****         if (strcmp(argv[1],locstring[rwloc]) == 0){
 154:src/console.c ****             foundloc = true;
 155:src/console.c ****             break;
 156:src/console.c ****         }
 157:src/console.c ****     }
 158:src/console.c ****     if(foundloc){
 159:src/console.c ****         switch (rwloc) {
 160:src/console.c ****             case RWL_cell_min_mV:
 161:src/console.c ****                 csb_state->pack_config->cell_min_mV = my_atou(argv[2]);
 162:src/console.c ****                 Board_Println("Done!");
 163:src/console.c ****                 break;
 164:src/console.c ****             case RWL_cell_max_mV:
 165:src/console.c ****                 csb_state->pack_config->cell_max_mV = my_atou(argv[2]);
 166:src/console.c ****                 Board_Println("Done!");
 167:src/console.c ****                 break;
 168:src/console.c ****             case RWL_cell_capacity_cAh:
 169:src/console.c ****                 csb_state->pack_config->cell_capacity_cAh = my_atou(argv[2]);
 170:src/console.c ****                 Board_Println("Done!");
 171:src/console.c ****                 break;
 172:src/console.c ****             case RWL_num_modules:
 173:src/console.c ****                 csb_state->pack_config->num_modules = my_atou(argv[2]);
 174:src/console.c ****                 Board_Println("Done!");
 175:src/console.c ****                 break;
 176:src/console.c ****             case RWL_module_cell_count:
 177:src/console.c ****                 csb_state->pack_config->module_cell_count = my_atou(argv[2]);
 178:src/console.c ****                 Board_Println("Done!");
 179:src/console.c ****                 break;
 180:src/console.c ****             case RWL_cell_charge_c_rating_cC:
 181:src/console.c ****               csb_state->pack_config->cell_charge_c_rating_cC = my_atou(argv[2]);
 182:src/console.c ****               Board_Println("Done!");
 183:src/console.c ****               break;
 184:src/console.c ****             case RWL_bal_on_thresh_mV:
 185:src/console.c ****                 csb_state->pack_config->bal_on_thresh_mV = my_atou(argv[2]);
 186:src/console.c ****                 Board_Println("Done!");
 187:src/console.c ****                 break;
 188:src/console.c ****             case RWL_bal_off_thresh_mV:
 189:src/console.c ****                 csb_state->pack_config->bal_off_thresh_mV = my_atou(argv[2]);
 190:src/console.c ****                 Board_Println("Done!");
 191:src/console.c ****                 break;
 192:src/console.c ****             case RWL_pack_cells_p:
 193:src/console.c ****                 csb_state->pack_config->pack_cells_p = my_atou(argv[2]);
 194:src/console.c ****                 Board_Println("Done!");
 195:src/console.c ****                 break;
 196:src/console.c ****             case RWL_cv_min_current_mA:
 197:src/console.c ****                 csb_state->pack_config->cv_min_current_mA = my_atou(argv[2]);
 198:src/console.c ****                 Board_Println("Done!");
 199:src/console.c ****                 break;
 200:src/console.c ****             case RWL_cv_min_current_ms:
ARM GAS  /var/folders/z0/6xlwn_996xz3mwq1cgzkbq4r0000gp/T//cc3rPjEN.s 			page 6


 201:src/console.c ****                 csb_state->pack_config->cv_min_current_ms = my_atou(argv[2]);
 202:src/console.c ****                 Board_Println("Done!");
 203:src/console.c ****                 break;
 204:src/console.c ****             case RWL_cc_cell_voltage_mV:
 205:src/console.c ****                 csb_state->pack_config->cc_cell_voltage_mV = my_atou(argv[2]);
 206:src/console.c ****                 Board_Println("Done!");
 207:src/console.c ****                 break;
 208:src/console.c ****             case RWL_LENGTH:
 209:src/console.c ****                 break;
 210:src/console.c ****         }
 211:src/console.c ****     } else {
 212:src/console.c ****         //loop over r/o entries
 213:src/console.c ****         ro_loc_label_t roloc;
 214:src/console.c ****         for (roloc = (ro_loc_label_t)ROL_FIRST; roloc< ROL_LENGTH; ++roloc){
 215:src/console.c ****             if (strcmp(argv[1],locstring[roloc]) == 0){
 216:src/console.c ****                 foundloc = true;
 217:src/console.c ****                 Board_Println("this location is read only");
 218:src/console.c ****                 return;
 219:src/console.c ****             }
 220:src/console.c ****         }
 221:src/console.c ****         Board_Println("invalid location");
 222:src/console.c ****     }
 223:src/console.c **** }
 224:src/console.c **** 
 225:src/console.c **** static void help(const char * const * argv) {
 226:src/console.c ****     command_label_t command_i = 0;
 227:src/console.c ****     for (command_i = 0; command_i < NUMCOMMANDS; ++command_i)
 228:src/console.c ****     {
 229:src/console.c ****         if (strcmp(argv[1],commands[command_i]) == 0){
 230:src/console.c ****             Board_Println_BLOCKING(helpstring[command_i]); //blocking print
 231:src/console.c **** 
 232:src/console.c ****             break;
 233:src/console.c ****         }
 234:src/console.c ****     }
 235:src/console.c ****     Board_Print("");
 236:src/console.c **** 
 237:src/console.c ****     if (command_i == C_GET || command_i == C_SET)
 238:src/console.c ****     {
 239:src/console.c ****         rw_loc_label_t i;
 240:src/console.c ****         Board_Println_BLOCKING("------r/w entries------");
 241:src/console.c ****         for (i = 0; i < RWL_LENGTH; ++i){
 242:src/console.c ****             Board_Println_BLOCKING(locstring[i]); //blocking print.
 243:src/console.c ****         }
 244:src/console.c **** 
 245:src/console.c ****         Board_Println_BLOCKING("------r/o entries------");
 246:src/console.c ****         for (i = ROL_FIRST; i < (rw_loc_label_t)(ROL_LENGTH); ++i){
 247:src/console.c ****             Board_Println_BLOCKING(locstring[i]); //blocking print.
 248:src/console.c ****         }
 249:src/console.c ****     }
 250:src/console.c **** }
 251:src/console.c **** 
 252:src/console.c **** static void config_def(const char * const * argv) {
 253:src/console.c ****   bool foundloc = false;
 254:src/console.c ****   config_loc_label_t configloc;
 255:src/console.c ****   for (configloc = 0; configloc< CONL_LENGTH; ++configloc){
 256:src/console.c ****       if (strcmp(argv[1],config_locstring[configloc]) == 0){
 257:src/console.c ****           foundloc = true;
ARM GAS  /var/folders/z0/6xlwn_996xz3mwq1cgzkbq4r0000gp/T//cc3rPjEN.s 			page 7


 258:src/console.c ****           break;
 259:src/console.c ****       }
 260:src/console.c ****   }
 261:src/console.c ****   if (foundloc) {
 262:src/console.c ****       switch (configloc) {
 263:src/console.c ****           case CONL_MY18:
 264:src/console.c ****               MY18_Pack_Config(csb_state);
 265:src/console.c ****               Board_Println("Done!");
 266:src/console.c ****               break;
 267:src/console.c ****           case CONL_MY16:
 268:src/console.c ****               MY16_Pack_Config(csb_state);
 269:src/console.c ****               Board_Println("Done!");
 270:src/console.c ****               break;
 271:src/console.c ****           case CONL_LENGTH:
 272:src/console.c ****               break;
 273:src/console.c ****       }
 274:src/console.c ****   } else {
 275:src/console.c ****       Board_Println("invalid location");
 276:src/console.c ****   }
 277:src/console.c **** }
 278:src/console.c **** 
 279:src/console.c **** static void measure(const char * const * argv) {
  86              		.loc 1 279 0
  87              		.cfi_startproc
  88              		@ args = 0, pretend = 0, frame = 0
  89              		@ frame_needed = 0, uses_anonymous_args = 0
  90              	.LVL0:
  91 0000 10B5     		push	{r4, lr}	@
  92              		.cfi_def_cfa_offset 8
  93              		.cfi_offset 4, -8
  94              		.cfi_offset 14, -4
 280:src/console.c ****     if (strcmp(argv[1],"on") == 0) {
  95              		.loc 1 280 0
  96 0002 4468     		ldr	r4, [r0, #4]	@ D.7656, MEM[(const char * const *)argv_3(D) + 4B]
  97 0004 2C49     		ldr	r1, .L17	@,
  98 0006 2000     		movs	r0, r4	@, D.7656
  99              	.LVL1:
 100 0008 FFF7FEFF 		bl	strcmp	@
 101              	.LVL2:
 102 000c 0028     		cmp	r0, #0	@ tmp130,
 103 000e 2ED0     		beq	.L12	@,
 281:src/console.c ****         console_output->measure_on = true;
 282:src/console.c ****         Board_Println("Measure On!");
 283:src/console.c **** 
 284:src/console.c ****     } else if (strcmp(argv[1],"off") == 0) {
 104              		.loc 1 284 0
 105 0010 2A49     		ldr	r1, .L17+4	@,
 106 0012 2000     		movs	r0, r4	@, D.7656
 107 0014 FFF7FEFF 		bl	strcmp	@
 108              	.LVL3:
 109 0018 0028     		cmp	r0, #0	@ tmp138,
 110 001a 42D0     		beq	.L13	@,
 285:src/console.c ****         console_output->measure_on = false;
 286:src/console.c ****         Board_Println("Measure Off!");
 287:src/console.c **** 
 288:src/console.c ****     } else if (strcmp(argv[1],"print_flags") == 0) {
 111              		.loc 1 288 0
ARM GAS  /var/folders/z0/6xlwn_996xz3mwq1cgzkbq4r0000gp/T//cc3rPjEN.s 			page 8


 112 001c 2849     		ldr	r1, .L17+8	@,
 113 001e 2000     		movs	r0, r4	@, D.7656
 114 0020 FFF7FEFF 		bl	strcmp	@
 115              	.LVL4:
 116 0024 0028     		cmp	r0, #0	@ tmp146,
 117 0026 0FD1     		bne	.L5	@,
 289:src/console.c **** 
 290:src/console.c ****         if(console_output->measure_packcurrent) {
 118              		.loc 1 290 0
 119 0028 264C     		ldr	r4, .L17+12	@ tmp179,
 120 002a 2368     		ldr	r3, [r4]	@ tmp180, console_output
 121 002c 5B7A     		ldrb	r3, [r3, #9]	@ tmp150,
 122 002e 002B     		cmp	r3, #0	@ tmp150,
 123 0030 25D1     		bne	.L14	@,
 291:src/console.c ****             Board_Println("Pack Current: On");
 292:src/console.c ****         } else {
 293:src/console.c ****             Board_Println("Pack Current: Off");
 124              		.loc 1 293 0
 125 0032 2548     		ldr	r0, .L17+16	@,
 126 0034 FFF7FEFF 		bl	Board_Println	@
 127              	.LVL5:
 294:src/console.c ****         }
 295:src/console.c **** 
 296:src/console.c ****         if(console_output->measure_packvoltage) {
 128              		.loc 1 296 0
 129 0038 2368     		ldr	r3, [r4]	@ console_output, console_output
 130 003a 9B7A     		ldrb	r3, [r3, #10]	@ tmp155,
 131 003c 002B     		cmp	r3, #0	@ tmp155,
 132 003e 25D0     		beq	.L8	@,
 133              	.L16:
 297:src/console.c ****             Board_Println("Pack Current: On");
 134              		.loc 1 297 0
 135 0040 2248     		ldr	r0, .L17+20	@,
 136 0042 FFF7FEFF 		bl	Board_Println	@
 137              	.LVL6:
 138 0046 19E0     		b	.L1	@
 139              	.L5:
 298:src/console.c ****         } else {
 299:src/console.c ****             Board_Println("Pack Current: Off");
 300:src/console.c ****         }
 301:src/console.c **** 
 302:src/console.c ****     } else if (strcmp(argv[1],"packcurrent") == 0) {
 140              		.loc 1 302 0
 141 0048 2149     		ldr	r1, .L17+24	@,
 142 004a 2000     		movs	r0, r4	@, D.7656
 143 004c FFF7FEFF 		bl	strcmp	@
 144              	.LVL7:
 145 0050 0028     		cmp	r0, #0	@ tmp159,
 146 0052 1FD0     		beq	.L15	@,
 303:src/console.c ****         console_output->measure_packcurrent = !console_output->measure_packcurrent;
 304:src/console.c **** 
 305:src/console.c ****     } else if (strcmp(argv[1],"packvoltage") == 0) {
 147              		.loc 1 305 0
 148 0054 1F49     		ldr	r1, .L17+28	@,
 149 0056 2000     		movs	r0, r4	@, D.7656
 150 0058 FFF7FEFF 		bl	strcmp	@
 151              	.LVL8:
ARM GAS  /var/folders/z0/6xlwn_996xz3mwq1cgzkbq4r0000gp/T//cc3rPjEN.s 			page 9


 152 005c 0028     		cmp	r0, #0	@ tmp169,
 153 005e 27D1     		bne	.L10	@,
 306:src/console.c ****         console_output->measure_packvoltage = !console_output->measure_packvoltage;
 154              		.loc 1 306 0
 155 0060 184B     		ldr	r3, .L17+12	@ tmp171,
 156 0062 1A68     		ldr	r2, [r3]	@ D.7658, console_output
 157 0064 0123     		movs	r3, #1	@ tmp172,
 158 0066 917A     		ldrb	r1, [r2, #10]	@ tmp175,
 159 0068 4B40     		eors	r3, r1	@ tmp176, tmp175
 160 006a 9372     		strb	r3, [r2, #10]	@ tmp176, _29->measure_packvoltage
 161 006c 06E0     		b	.L1	@
 162              	.L12:
 281:src/console.c ****         Board_Println("Measure On!");
 163              		.loc 1 281 0
 164 006e 0122     		movs	r2, #1	@ tmp134,
 165 0070 144B     		ldr	r3, .L17+12	@ tmp132,
 282:src/console.c **** 
 166              		.loc 1 282 0
 167 0072 1948     		ldr	r0, .L17+32	@,
 281:src/console.c ****         Board_Println("Measure On!");
 168              		.loc 1 281 0
 169 0074 1B68     		ldr	r3, [r3]	@ console_output, console_output
 170 0076 1A72     		strb	r2, [r3, #8]	@ tmp134, _7->measure_on
 282:src/console.c **** 
 171              		.loc 1 282 0
 172 0078 FFF7FEFF 		bl	Board_Println	@
 173              	.LVL9:
 174              	.L1:
 307:src/console.c **** 
 308:src/console.c ****     } else {
 309:src/console.c ****         Board_Println("Unrecognized command!");
 310:src/console.c ****     }
 311:src/console.c **** }
 175              		.loc 1 311 0
 176              		@ sp needed	@
 177 007c 10BD     		pop	{r4, pc}
 178              	.L14:
 291:src/console.c ****         } else {
 179              		.loc 1 291 0
 180 007e 1348     		ldr	r0, .L17+20	@,
 181 0080 FFF7FEFF 		bl	Board_Println	@
 182              	.LVL10:
 296:src/console.c ****             Board_Println("Pack Current: On");
 183              		.loc 1 296 0
 184 0084 2368     		ldr	r3, [r4]	@ console_output, console_output
 185 0086 9B7A     		ldrb	r3, [r3, #10]	@ tmp155,
 186 0088 002B     		cmp	r3, #0	@ tmp155,
 187 008a D9D1     		bne	.L16	@,
 188              	.L8:
 299:src/console.c ****         }
 189              		.loc 1 299 0
 190 008c 0E48     		ldr	r0, .L17+16	@,
 191 008e FFF7FEFF 		bl	Board_Println	@
 192              	.LVL11:
 193 0092 F3E7     		b	.L1	@
 194              	.L15:
 303:src/console.c **** 
ARM GAS  /var/folders/z0/6xlwn_996xz3mwq1cgzkbq4r0000gp/T//cc3rPjEN.s 			page 10


 195              		.loc 1 303 0
 196 0094 0B4B     		ldr	r3, .L17+12	@ tmp161,
 197 0096 1A68     		ldr	r2, [r3]	@ D.7658, console_output
 198 0098 0123     		movs	r3, #1	@ tmp162,
 199 009a 517A     		ldrb	r1, [r2, #9]	@ tmp165,
 200 009c 4B40     		eors	r3, r1	@ tmp166, tmp165
 201 009e 5372     		strb	r3, [r2, #9]	@ tmp166, _24->measure_packcurrent
 202 00a0 ECE7     		b	.L1	@
 203              	.L13:
 285:src/console.c ****         Board_Println("Measure Off!");
 204              		.loc 1 285 0
 205 00a2 084B     		ldr	r3, .L17+12	@ tmp140,
 206 00a4 1B68     		ldr	r3, [r3]	@ console_output, console_output
 207 00a6 1872     		strb	r0, [r3, #8]	@ tmp138, _11->measure_on
 286:src/console.c **** 
 208              		.loc 1 286 0
 209 00a8 0C48     		ldr	r0, .L17+36	@,
 210 00aa FFF7FEFF 		bl	Board_Println	@
 211              	.LVL12:
 212 00ae E5E7     		b	.L1	@
 213              	.L10:
 309:src/console.c ****     }
 214              		.loc 1 309 0
 215 00b0 0B48     		ldr	r0, .L17+40	@,
 216 00b2 FFF7FEFF 		bl	Board_Println	@
 217              	.LVL13:
 218              		.loc 1 311 0
 219 00b6 E1E7     		b	.L1	@
 220              	.L18:
 221              		.align	2
 222              	.L17:
 223 00b8 00000000 		.word	.LC0
 224 00bc 10000000 		.word	.LC5
 225 00c0 24000000 		.word	.LC9
 226 00c4 00000000 		.word	.LANCHOR0
 227 00c8 44000000 		.word	.LC13
 228 00cc 30000000 		.word	.LC11
 229 00d0 58000000 		.word	.LC15
 230 00d4 64000000 		.word	.LC17
 231 00d8 04000000 		.word	.LC3
 232 00dc 14000000 		.word	.LC7
 233 00e0 70000000 		.word	.LC19
 234              		.cfi_endproc
 235              	.LFE203:
 236              		.size	measure, .-measure
 237              		.section	.text.set,"ax",%progbits
 238              		.align	2
 239              		.code	16
 240              		.thumb_func
 241              		.type	set, %function
 242              	set:
 243              	.LFB200:
 143:src/console.c ****     if (csb_state->curr_mode != CSB_SSM_MODE_IDLE)
 244              		.loc 1 143 0
 245              		.cfi_startproc
 246              		@ args = 0, pretend = 0, frame = 0
 247              		@ frame_needed = 0, uses_anonymous_args = 0
ARM GAS  /var/folders/z0/6xlwn_996xz3mwq1cgzkbq4r0000gp/T//cc3rPjEN.s 			page 11


 248              	.LVL14:
 249 0000 F8B5     		push	{r3, r4, r5, r6, r7, lr}	@
 250              		.cfi_def_cfa_offset 24
 251              		.cfi_offset 3, -24
 252              		.cfi_offset 4, -20
 253              		.cfi_offset 5, -16
 254              		.cfi_offset 6, -12
 255              		.cfi_offset 7, -8
 256              		.cfi_offset 14, -4
 257 0002 4F46     		mov	r7, r9	@,
 258 0004 4646     		mov	r6, r8	@,
 259 0006 C0B4     		push	{r6, r7}	@
 260              		.cfi_def_cfa_offset 32
 261              		.cfi_offset 8, -32
 262              		.cfi_offset 9, -28
 144:src/console.c ****     {
 263              		.loc 1 144 0
 264 0008 B64B     		ldr	r3, .L92	@ tmp328,
 143:src/console.c ****     if (csb_state->curr_mode != CSB_SSM_MODE_IDLE)
 265              		.loc 1 143 0
 266 000a 8046     		mov	r8, r0	@ argv, argv
 144:src/console.c ****     {
 267              		.loc 1 144 0
 268 000c 1F68     		ldr	r7, [r3]	@ D.7765, csb_state
 269 000e 3B79     		ldrb	r3, [r7, #4]	@ tmp329,
 270 0010 012B     		cmp	r3, #1	@ tmp329,
 271 0012 22D1     		bne	.L89	@,
 272 0014 B44B     		ldr	r3, .L92+4	@ ivtmp.94,
 273 0016 4668     		ldr	r6, [r0, #4]	@ D.7774, MEM[(const char * const *)argv_9(D) + 4B]
 274 0018 9946     		mov	r9, r3	@ ivtmp.94, ivtmp.94
 275 001a 1D1D     		adds	r5, r3, #4	@ ivtmp.109, ivtmp.94,
 276 001c B349     		ldr	r1, .L92+8	@ D.7774,
 277 001e 0024     		movs	r4, #0	@ rwloc,
 278 0020 00E0     		b	.L25	@
 279              	.LVL15:
 280              	.L23:
 281 0022 02CD     		ldmia	r5!, {r1}	@ MEM[base: _78, offset: 0B], D.7774
 282              	.LVL16:
 283              	.L25:
 153:src/console.c ****             foundloc = true;
 284              		.loc 1 153 0
 285 0024 3000     		movs	r0, r6	@, D.7774
 286 0026 FFF7FEFF 		bl	strcmp	@
 287              	.LVL17:
 288 002a 0028     		cmp	r0, #0	@ tmp332,
 289 002c 1CD0     		beq	.L22	@,
 152:src/console.c ****         if (strcmp(argv[1],locstring[rwloc]) == 0){
 290              		.loc 1 152 0 discriminator 2
 291 002e 0134     		adds	r4, r4, #1	@ tmp334,
 292              	.LVL18:
 293 0030 E4B2     		uxtb	r4, r4	@ rwloc, tmp334
 294              	.LVL19:
 295 0032 0C2C     		cmp	r4, #12	@ rwloc,
 296 0034 F5D1     		bne	.L23	@,
 297 0036 4D46     		mov	r5, r9	@ D.7773, ivtmp.94
 298 0038 4C46     		mov	r4, r9	@ ivtmp.94, ivtmp.94
 299              	.LVL20:
ARM GAS  /var/folders/z0/6xlwn_996xz3mwq1cgzkbq4r0000gp/T//cc3rPjEN.s 			page 12


 300 003a 1435     		adds	r5, r5, #20	@ D.7773,
 152:src/console.c ****         if (strcmp(argv[1],locstring[rwloc]) == 0){
 301              		.loc 1 152 0 is_stmt 0
 302 003c AC49     		ldr	r1, .L92+12	@ D.7774,
 303 003e 00E0     		b	.L24	@
 304              	.LVL21:
 305              	.L91:
 306 0040 216B     		ldr	r1, [r4, #48]	@ D.7774, MEM[base: _105, offset: 48B]
 307              	.L24:
 308              	.LBB32:
 215:src/console.c ****                 foundloc = true;
 309              		.loc 1 215 0 is_stmt 1
 310 0042 3000     		movs	r0, r6	@, D.7774
 311 0044 FFF7FEFF 		bl	strcmp	@
 312              	.LVL22:
 313 0048 0028     		cmp	r0, #0	@ tmp409,
 314 004a 13D0     		beq	.L90	@,
 315 004c 0434     		adds	r4, r4, #4	@ ivtmp.94,
 214:src/console.c ****             if (strcmp(argv[1],locstring[roloc]) == 0){
 316              		.loc 1 214 0 discriminator 2
 317 004e A542     		cmp	r5, r4	@ D.7773, ivtmp.94
 318 0050 F6D1     		bne	.L91	@,
 221:src/console.c ****     }
 319              		.loc 1 221 0
 320 0052 A848     		ldr	r0, .L92+16	@,
 321 0054 FFF7FEFF 		bl	Board_Println	@
 322              	.LVL23:
 323 0058 02E0     		b	.L19	@
 324              	.LVL24:
 325              	.L89:
 326              	.LBE32:
 146:src/console.c ****         return;
 327              		.loc 1 146 0
 328 005a A748     		ldr	r0, .L92+20	@,
 329              	.LVL25:
 330 005c FFF7FEFF 		bl	Board_Println	@
 331              	.LVL26:
 332              	.L19:
 223:src/console.c **** 
 333              		.loc 1 223 0
 334              		@ sp needed	@
 335              	.LVL27:
 336 0060 0CBC     		pop	{r2, r3}
 337 0062 9046     		mov	r8, r2
 338 0064 9946     		mov	r9, r3
 339 0066 F8BD     		pop	{r3, r4, r5, r6, r7, pc}
 340              	.LVL28:
 341              	.L22:
 159:src/console.c ****             case RWL_cell_min_mV:
 342              		.loc 1 159 0
 343 0068 0B2C     		cmp	r4, #11	@ rwloc,
 344 006a 1FD8     		bhi	.L26	@,
 345 006c A34B     		ldr	r3, .L92+24	@ tmp415,
 346 006e A400     		lsls	r4, r4, #2	@ tmp413, rwloc,
 347              	.LVL29:
 348 0070 1B59     		ldr	r3, [r3, r4]	@ tmp416,
 349 0072 9F46     		mov	pc, r3	@ tmp416
ARM GAS  /var/folders/z0/6xlwn_996xz3mwq1cgzkbq4r0000gp/T//cc3rPjEN.s 			page 13


 350              		.section	.rodata.set,"a",%progbits
 351              		.align	2
 352              	.L64:
 353 0000 AC000000 		.word	.L26
 354 0004 DC000000 		.word	.L29
 355 0008 0C010000 		.word	.L32
 356 000c 3C010000 		.word	.L35
 357 0010 CC010000 		.word	.L38
 358 0014 FA010000 		.word	.L41
 359 0018 6C010000 		.word	.L44
 360 001c 9C010000 		.word	.L47
 361 0020 28020000 		.word	.L50
 362 0024 56020000 		.word	.L53
 363 0028 7C000000 		.word	.L56
 364 002c 84020000 		.word	.L59
 365              		.section	.text.set
 366              	.LVL30:
 367              	.L90:
 368              	.LBB33:
 217:src/console.c ****                 return;
 369              		.loc 1 217 0
 370 0074 A248     		ldr	r0, .L92+28	@,
 371 0076 FFF7FEFF 		bl	Board_Println	@
 372              	.LVL31:
 218:src/console.c ****             }
 373              		.loc 1 218 0
 374 007a F1E7     		b	.L19	@
 375              	.L56:
 376              	.LBE33:
 201:src/console.c ****                 Board_Println("Done!");
 377              		.loc 1 201 0
 378 007c 4346     		mov	r3, r8	@ argv, argv
 379 007e 9968     		ldr	r1, [r3, #8]	@ D.7769, MEM[(const char * const *)argv_9(D) + 8B]
 380 0080 3C68     		ldr	r4, [r7]	@ D.7768, _6->pack_config
 381              	.LVL32:
 382              	.LBB34:
 383              	.LBB35:
  24:src/console.c ****         res = res*10 + str[i] - '0';
 384              		.loc 1 24 0
 385 0082 0A78     		ldrb	r2, [r1]	@ D.7770,* D.7769
 386 0084 002A     		cmp	r2, #0	@ D.7770,
 387 0086 00D1     		bne	.LCB293	@
 388 0088 27E1     		b	.L75	@long jump	@
 389              	.LCB293:
 390              	.LVL33:
 391 008a 0023     		movs	r3, #0	@ res,
 392              	.LVL34:
 393 008c 0131     		adds	r1, r1, #1	@ ivtmp.70,
 394              	.LVL35:
 395              	.L58:
  25:src/console.c **** 
 396              		.loc 1 25 0
 397 008e 9800     		lsls	r0, r3, #2	@ tmp398, res,
 398 0090 C318     		adds	r3, r0, r3	@ D.7771, tmp398, res
 399              	.LVL36:
 400 0092 5B00     		lsls	r3, r3, #1	@ tmp400, D.7771,
 401 0094 0131     		adds	r1, r1, #1	@ ivtmp.70,
ARM GAS  /var/folders/z0/6xlwn_996xz3mwq1cgzkbq4r0000gp/T//cc3rPjEN.s 			page 14


 402              	.LVL37:
 403 0096 9B18     		adds	r3, r3, r2	@ D.7771, tmp400, D.7770
  24:src/console.c ****         res = res*10 + str[i] - '0';
 404              		.loc 1 24 0
 405 0098 4A1E     		subs	r2, r1, #1	@ D.7772, ivtmp.70,
 406 009a 1278     		ldrb	r2, [r2]	@ D.7770, MEM[base: _224, offset: 0B]
  25:src/console.c **** 
 407              		.loc 1 25 0
 408 009c 303B     		subs	r3, r3, #48	@ res,
 409              	.LVL38:
  24:src/console.c ****         res = res*10 + str[i] - '0';
 410              		.loc 1 24 0
 411 009e 002A     		cmp	r2, #0	@ D.7770,
 412 00a0 F5D1     		bne	.L58	@,
 413              	.LVL39:
 414              	.L57:
 415              	.LBE35:
 416              	.LBE34:
 201:src/console.c ****                 Board_Println("Done!");
 417              		.loc 1 201 0
 418 00a2 6362     		str	r3, [r4, #36]	@ res, _27->cv_min_current_ms
 202:src/console.c ****                 break;
 419              		.loc 1 202 0
 420 00a4 9748     		ldr	r0, .L92+32	@,
 421 00a6 FFF7FEFF 		bl	Board_Println	@
 422              	.LVL40:
 203:src/console.c ****             case RWL_cc_cell_voltage_mV:
 423              		.loc 1 203 0
 424 00aa D9E7     		b	.L19	@
 425              	.L26:
 161:src/console.c ****                 Board_Println("Done!");
 426              		.loc 1 161 0
 427 00ac 4346     		mov	r3, r8	@ argv, argv
 428 00ae 9968     		ldr	r1, [r3, #8]	@ D.7769, MEM[(const char * const *)argv_9(D) + 8B]
 429 00b0 3C68     		ldr	r4, [r7]	@ D.7768, _6->pack_config
 430              	.LVL41:
 431              	.LBB37:
 432              	.LBB38:
  24:src/console.c ****         res = res*10 + str[i] - '0';
 433              		.loc 1 24 0
 434 00b2 0A78     		ldrb	r2, [r1]	@ D.7770,* D.7769
 435 00b4 002A     		cmp	r2, #0	@ D.7770,
 436 00b6 00D1     		bne	.LCB345	@
 437 00b8 11E1     		b	.L65	@long jump	@
 438              	.LCB345:
 439              	.LVL42:
 440 00ba 0023     		movs	r3, #0	@ res,
 441              	.LVL43:
 442 00bc 0131     		adds	r1, r1, #1	@ ivtmp.29,
 443              	.LVL44:
 444              	.L28:
  25:src/console.c **** 
 445              		.loc 1 25 0
 446 00be 9800     		lsls	r0, r3, #2	@ tmp338, res,
 447 00c0 C318     		adds	r3, r0, r3	@ D.7771, tmp338, res
 448              	.LVL45:
 449 00c2 5B00     		lsls	r3, r3, #1	@ tmp340, D.7771,
ARM GAS  /var/folders/z0/6xlwn_996xz3mwq1cgzkbq4r0000gp/T//cc3rPjEN.s 			page 15


 450 00c4 0131     		adds	r1, r1, #1	@ ivtmp.29,
 451              	.LVL46:
 452 00c6 9B18     		adds	r3, r3, r2	@ D.7771, tmp340, D.7770
  24:src/console.c ****         res = res*10 + str[i] - '0';
 453              		.loc 1 24 0
 454 00c8 4A1E     		subs	r2, r1, #1	@ D.7772, ivtmp.29,
 455 00ca 1278     		ldrb	r2, [r2]	@ D.7770, MEM[base: _184, offset: 0B]
  25:src/console.c **** 
 456              		.loc 1 25 0
 457 00cc 303B     		subs	r3, r3, #48	@ res,
 458              	.LVL47:
  24:src/console.c ****         res = res*10 + str[i] - '0';
 459              		.loc 1 24 0
 460 00ce 002A     		cmp	r2, #0	@ D.7770,
 461 00d0 F5D1     		bne	.L28	@,
 462              	.LVL48:
 463              	.L27:
 464              	.LBE38:
 465              	.LBE37:
 161:src/console.c ****                 Board_Println("Done!");
 466              		.loc 1 161 0
 467 00d2 2360     		str	r3, [r4]	@ res, _16->cell_min_mV
 162:src/console.c ****                 break;
 468              		.loc 1 162 0
 469 00d4 8B48     		ldr	r0, .L92+32	@,
 470 00d6 FFF7FEFF 		bl	Board_Println	@
 471              	.LVL49:
 163:src/console.c ****             case RWL_cell_max_mV:
 472              		.loc 1 163 0
 473 00da C1E7     		b	.L19	@
 474              	.L29:
 165:src/console.c ****                 Board_Println("Done!");
 475              		.loc 1 165 0
 476 00dc 4346     		mov	r3, r8	@ argv, argv
 477 00de 9968     		ldr	r1, [r3, #8]	@ D.7769, MEM[(const char * const *)argv_9(D) + 8B]
 478 00e0 3C68     		ldr	r4, [r7]	@ D.7768, _6->pack_config
 479              	.LVL50:
 480              	.LBB40:
 481              	.LBB41:
  24:src/console.c ****         res = res*10 + str[i] - '0';
 482              		.loc 1 24 0
 483 00e2 0A78     		ldrb	r2, [r1]	@ D.7770,* D.7769
 484 00e4 002A     		cmp	r2, #0	@ D.7770,
 485 00e6 00D1     		bne	.LCB396	@
 486 00e8 EFE0     		b	.L66	@long jump	@
 487              	.LCB396:
 488              	.LVL51:
 489 00ea 0023     		movs	r3, #0	@ res,
 490              	.LVL52:
 491 00ec 0131     		adds	r1, r1, #1	@ ivtmp.34,
 492              	.LVL53:
 493              	.L31:
  25:src/console.c **** 
 494              		.loc 1 25 0
 495 00ee 9800     		lsls	r0, r3, #2	@ tmp344, res,
 496 00f0 C318     		adds	r3, r0, r3	@ D.7771, tmp344, res
 497              	.LVL54:
ARM GAS  /var/folders/z0/6xlwn_996xz3mwq1cgzkbq4r0000gp/T//cc3rPjEN.s 			page 16


 498 00f2 5B00     		lsls	r3, r3, #1	@ tmp346, D.7771,
 499 00f4 0131     		adds	r1, r1, #1	@ ivtmp.34,
 500              	.LVL55:
 501 00f6 9B18     		adds	r3, r3, r2	@ D.7771, tmp346, D.7770
  24:src/console.c ****         res = res*10 + str[i] - '0';
 502              		.loc 1 24 0
 503 00f8 4A1E     		subs	r2, r1, #1	@ D.7772, ivtmp.34,
 504 00fa 1278     		ldrb	r2, [r2]	@ D.7770, MEM[base: _188, offset: 0B]
  25:src/console.c **** 
 505              		.loc 1 25 0
 506 00fc 303B     		subs	r3, r3, #48	@ res,
 507              	.LVL56:
  24:src/console.c ****         res = res*10 + str[i] - '0';
 508              		.loc 1 24 0
 509 00fe 002A     		cmp	r2, #0	@ D.7770,
 510 0100 F5D1     		bne	.L31	@,
 511              	.LVL57:
 512              	.L30:
 513              	.LBE41:
 514              	.LBE40:
 165:src/console.c ****                 Board_Println("Done!");
 515              		.loc 1 165 0
 516 0102 6360     		str	r3, [r4, #4]	@ res, _72->cell_max_mV
 166:src/console.c ****                 break;
 517              		.loc 1 166 0
 518 0104 7F48     		ldr	r0, .L92+32	@,
 519 0106 FFF7FEFF 		bl	Board_Println	@
 520              	.LVL58:
 167:src/console.c ****             case RWL_cell_capacity_cAh:
 521              		.loc 1 167 0
 522 010a A9E7     		b	.L19	@
 523              	.L32:
 169:src/console.c ****                 Board_Println("Done!");
 524              		.loc 1 169 0
 525 010c 4346     		mov	r3, r8	@ argv, argv
 526 010e 9968     		ldr	r1, [r3, #8]	@ D.7769, MEM[(const char * const *)argv_9(D) + 8B]
 527 0110 3C68     		ldr	r4, [r7]	@ D.7768, _6->pack_config
 528              	.LVL59:
 529              	.LBB43:
 530              	.LBB44:
  24:src/console.c ****         res = res*10 + str[i] - '0';
 531              		.loc 1 24 0
 532 0112 0A78     		ldrb	r2, [r1]	@ D.7770,* D.7769
 533 0114 002A     		cmp	r2, #0	@ D.7770,
 534 0116 00D1     		bne	.LCB447	@
 535 0118 DBE0     		b	.L67	@long jump	@
 536              	.LCB447:
 537              	.LVL60:
 538 011a 0023     		movs	r3, #0	@ res,
 539              	.LVL61:
 540 011c 0131     		adds	r1, r1, #1	@ ivtmp.38,
 541              	.LVL62:
 542              	.L34:
  25:src/console.c **** 
 543              		.loc 1 25 0
 544 011e 9800     		lsls	r0, r3, #2	@ tmp350, res,
 545 0120 C318     		adds	r3, r0, r3	@ D.7771, tmp350, res
ARM GAS  /var/folders/z0/6xlwn_996xz3mwq1cgzkbq4r0000gp/T//cc3rPjEN.s 			page 17


 546              	.LVL63:
 547 0122 5B00     		lsls	r3, r3, #1	@ tmp352, D.7771,
 548 0124 0131     		adds	r1, r1, #1	@ ivtmp.38,
 549              	.LVL64:
 550 0126 9B18     		adds	r3, r3, r2	@ D.7771, tmp352, D.7770
  24:src/console.c ****         res = res*10 + str[i] - '0';
 551              		.loc 1 24 0
 552 0128 4A1E     		subs	r2, r1, #1	@ D.7772, ivtmp.38,
 553 012a 1278     		ldrb	r2, [r2]	@ D.7770, MEM[base: _192, offset: 0B]
  25:src/console.c **** 
 554              		.loc 1 25 0
 555 012c 303B     		subs	r3, r3, #48	@ res,
 556              	.LVL65:
  24:src/console.c ****         res = res*10 + str[i] - '0';
 557              		.loc 1 24 0
 558 012e 002A     		cmp	r2, #0	@ D.7770,
 559 0130 F5D1     		bne	.L34	@,
 560              	.LVL66:
 561              	.L33:
 562              	.LBE44:
 563              	.LBE43:
 169:src/console.c ****                 Board_Println("Done!");
 564              		.loc 1 169 0
 565 0132 A360     		str	r3, [r4, #8]	@ res, _67->cell_capacity_cAh
 170:src/console.c ****                 break;
 566              		.loc 1 170 0
 567 0134 7348     		ldr	r0, .L92+32	@,
 568 0136 FFF7FEFF 		bl	Board_Println	@
 569              	.LVL67:
 171:src/console.c ****             case RWL_num_modules:
 570              		.loc 1 171 0
 571 013a 91E7     		b	.L19	@
 572              	.L35:
 173:src/console.c ****                 Board_Println("Done!");
 573              		.loc 1 173 0
 574 013c 4346     		mov	r3, r8	@ argv, argv
 575 013e 9968     		ldr	r1, [r3, #8]	@ D.7769, MEM[(const char * const *)argv_9(D) + 8B]
 576 0140 3C68     		ldr	r4, [r7]	@ D.7768, _6->pack_config
 577              	.LVL68:
 578              	.LBB46:
 579              	.LBB47:
  24:src/console.c ****         res = res*10 + str[i] - '0';
 580              		.loc 1 24 0
 581 0142 0A78     		ldrb	r2, [r1]	@ D.7770,* D.7769
 582 0144 002A     		cmp	r2, #0	@ D.7770,
 583 0146 00D1     		bne	.LCB498	@
 584 0148 BBE0     		b	.L68	@long jump	@
 585              	.LCB498:
 586              	.LVL69:
 587 014a 0023     		movs	r3, #0	@ res,
 588              	.LVL70:
 589 014c 0131     		adds	r1, r1, #1	@ ivtmp.42,
 590              	.LVL71:
 591              	.L37:
  25:src/console.c **** 
 592              		.loc 1 25 0
 593 014e 9800     		lsls	r0, r3, #2	@ tmp356, res,
ARM GAS  /var/folders/z0/6xlwn_996xz3mwq1cgzkbq4r0000gp/T//cc3rPjEN.s 			page 18


 594 0150 C318     		adds	r3, r0, r3	@ D.7771, tmp356, res
 595              	.LVL72:
 596 0152 5B00     		lsls	r3, r3, #1	@ tmp358, D.7771,
 597 0154 0131     		adds	r1, r1, #1	@ ivtmp.42,
 598              	.LVL73:
 599 0156 9B18     		adds	r3, r3, r2	@ D.7771, tmp358, D.7770
  24:src/console.c ****         res = res*10 + str[i] - '0';
 600              		.loc 1 24 0
 601 0158 4A1E     		subs	r2, r1, #1	@ D.7772, ivtmp.42,
 602 015a 1278     		ldrb	r2, [r2]	@ D.7770, MEM[base: _196, offset: 0B]
  25:src/console.c **** 
 603              		.loc 1 25 0
 604 015c 303B     		subs	r3, r3, #48	@ res,
 605              	.LVL74:
  24:src/console.c ****         res = res*10 + str[i] - '0';
 606              		.loc 1 24 0
 607 015e 002A     		cmp	r2, #0	@ D.7770,
 608 0160 F5D1     		bne	.L37	@,
 609              	.LVL75:
 610              	.L36:
 611              	.LBE47:
 612              	.LBE46:
 173:src/console.c ****                 Board_Println("Done!");
 613              		.loc 1 173 0
 614 0162 E360     		str	r3, [r4, #12]	@ res, _62->num_modules
 174:src/console.c ****                 break;
 615              		.loc 1 174 0
 616 0164 6748     		ldr	r0, .L92+32	@,
 617 0166 FFF7FEFF 		bl	Board_Println	@
 618              	.LVL76:
 175:src/console.c ****             case RWL_module_cell_count:
 619              		.loc 1 175 0
 620 016a 79E7     		b	.L19	@
 621              	.L44:
 185:src/console.c ****                 Board_Println("Done!");
 622              		.loc 1 185 0
 623 016c 4346     		mov	r3, r8	@ argv, argv
 624 016e 9968     		ldr	r1, [r3, #8]	@ D.7769, MEM[(const char * const *)argv_9(D) + 8B]
 625 0170 3C68     		ldr	r4, [r7]	@ D.7768, _6->pack_config
 626              	.LVL77:
 627              	.LBB49:
 628              	.LBB50:
  24:src/console.c ****         res = res*10 + str[i] - '0';
 629              		.loc 1 24 0
 630 0172 0A78     		ldrb	r2, [r1]	@ D.7770,* D.7769
 631 0174 002A     		cmp	r2, #0	@ D.7770,
 632 0176 00D1     		bne	.LCB549	@
 633 0178 ADE0     		b	.L71	@long jump	@
 634              	.LCB549:
 635              	.LVL78:
 636 017a 0023     		movs	r3, #0	@ res,
 637              	.LVL79:
 638 017c 0131     		adds	r1, r1, #1	@ ivtmp.54,
 639              	.LVL80:
 640              	.L46:
  25:src/console.c **** 
 641              		.loc 1 25 0
ARM GAS  /var/folders/z0/6xlwn_996xz3mwq1cgzkbq4r0000gp/T//cc3rPjEN.s 			page 19


 642 017e 9800     		lsls	r0, r3, #2	@ tmp374, res,
 643 0180 C318     		adds	r3, r0, r3	@ D.7771, tmp374, res
 644              	.LVL81:
 645 0182 5B00     		lsls	r3, r3, #1	@ tmp376, D.7771,
 646 0184 0131     		adds	r1, r1, #1	@ ivtmp.54,
 647              	.LVL82:
 648 0186 9B18     		adds	r3, r3, r2	@ D.7771, tmp376, D.7770
  24:src/console.c ****         res = res*10 + str[i] - '0';
 649              		.loc 1 24 0
 650 0188 4A1E     		subs	r2, r1, #1	@ D.7772, ivtmp.54,
 651 018a 1278     		ldrb	r2, [r2]	@ D.7770, MEM[base: _208, offset: 0B]
  25:src/console.c **** 
 652              		.loc 1 25 0
 653 018c 303B     		subs	r3, r3, #48	@ res,
 654              	.LVL83:
  24:src/console.c ****         res = res*10 + str[i] - '0';
 655              		.loc 1 24 0
 656 018e 002A     		cmp	r2, #0	@ D.7770,
 657 0190 F5D1     		bne	.L46	@,
 658              	.LVL84:
 659              	.L45:
 660              	.LBE50:
 661              	.LBE49:
 185:src/console.c ****                 Board_Println("Done!");
 662              		.loc 1 185 0
 663 0192 6361     		str	r3, [r4, #20]	@ res, _47->bal_on_thresh_mV
 186:src/console.c ****                 break;
 664              		.loc 1 186 0
 665 0194 5B48     		ldr	r0, .L92+32	@,
 666 0196 FFF7FEFF 		bl	Board_Println	@
 667              	.LVL85:
 187:src/console.c ****             case RWL_bal_off_thresh_mV:
 668              		.loc 1 187 0
 669 019a 61E7     		b	.L19	@
 670              	.L47:
 189:src/console.c ****                 Board_Println("Done!");
 671              		.loc 1 189 0
 672 019c 4346     		mov	r3, r8	@ argv, argv
 673 019e 9968     		ldr	r1, [r3, #8]	@ D.7769, MEM[(const char * const *)argv_9(D) + 8B]
 674 01a0 3C68     		ldr	r4, [r7]	@ D.7768, _6->pack_config
 675              	.LVL86:
 676              	.LBB52:
 677              	.LBB53:
  24:src/console.c ****         res = res*10 + str[i] - '0';
 678              		.loc 1 24 0
 679 01a2 0A78     		ldrb	r2, [r1]	@ D.7770,* D.7769
 680 01a4 002A     		cmp	r2, #0	@ D.7770,
 681 01a6 00D1     		bne	.LCB600	@
 682 01a8 91E0     		b	.L72	@long jump	@
 683              	.LCB600:
 684              	.LVL87:
 685 01aa 0023     		movs	r3, #0	@ res,
 686              	.LVL88:
 687 01ac 0131     		adds	r1, r1, #1	@ ivtmp.58,
 688              	.LVL89:
 689              	.L49:
  25:src/console.c **** 
ARM GAS  /var/folders/z0/6xlwn_996xz3mwq1cgzkbq4r0000gp/T//cc3rPjEN.s 			page 20


 690              		.loc 1 25 0
 691 01ae 9800     		lsls	r0, r3, #2	@ tmp380, res,
 692 01b0 C318     		adds	r3, r0, r3	@ D.7771, tmp380, res
 693              	.LVL90:
 694 01b2 5B00     		lsls	r3, r3, #1	@ tmp382, D.7771,
 695 01b4 0131     		adds	r1, r1, #1	@ ivtmp.58,
 696              	.LVL91:
 697 01b6 9B18     		adds	r3, r3, r2	@ D.7771, tmp382, D.7770
  24:src/console.c ****         res = res*10 + str[i] - '0';
 698              		.loc 1 24 0
 699 01b8 4A1E     		subs	r2, r1, #1	@ D.7772, ivtmp.58,
 700 01ba 1278     		ldrb	r2, [r2]	@ D.7770, MEM[base: _212, offset: 0B]
  25:src/console.c **** 
 701              		.loc 1 25 0
 702 01bc 303B     		subs	r3, r3, #48	@ res,
 703              	.LVL92:
  24:src/console.c ****         res = res*10 + str[i] - '0';
 704              		.loc 1 24 0
 705 01be 002A     		cmp	r2, #0	@ D.7770,
 706 01c0 F5D1     		bne	.L49	@,
 707              	.LVL93:
 708              	.L48:
 709              	.LBE53:
 710              	.LBE52:
 189:src/console.c ****                 Board_Println("Done!");
 711              		.loc 1 189 0
 712 01c2 A361     		str	r3, [r4, #24]	@ res, _42->bal_off_thresh_mV
 190:src/console.c ****                 break;
 713              		.loc 1 190 0
 714 01c4 4F48     		ldr	r0, .L92+32	@,
 715 01c6 FFF7FEFF 		bl	Board_Println	@
 716              	.LVL94:
 191:src/console.c ****             case RWL_pack_cells_p:
 717              		.loc 1 191 0
 718 01ca 49E7     		b	.L19	@
 719              	.L38:
 177:src/console.c ****                 Board_Println("Done!");
 720              		.loc 1 177 0
 721 01cc 4346     		mov	r3, r8	@ argv, argv
 722 01ce 9968     		ldr	r1, [r3, #8]	@ D.7769, MEM[(const char * const *)argv_9(D) + 8B]
 723 01d0 3C68     		ldr	r4, [r7]	@ D.7768, _6->pack_config
 724              	.LVL95:
 725              	.LBB55:
 726              	.LBB56:
  24:src/console.c ****         res = res*10 + str[i] - '0';
 727              		.loc 1 24 0
 728 01d2 0A78     		ldrb	r2, [r1]	@ D.7770,* D.7769
 729 01d4 002A     		cmp	r2, #0	@ D.7770,
 730 01d6 70D0     		beq	.L69	@,
 731              	.LVL96:
 732 01d8 0023     		movs	r3, #0	@ res,
 733              	.LVL97:
 734 01da 0131     		adds	r1, r1, #1	@ ivtmp.46,
 735              	.LVL98:
 736              	.L40:
  25:src/console.c **** 
 737              		.loc 1 25 0
ARM GAS  /var/folders/z0/6xlwn_996xz3mwq1cgzkbq4r0000gp/T//cc3rPjEN.s 			page 21


 738 01dc 9800     		lsls	r0, r3, #2	@ tmp362, res,
 739 01de C318     		adds	r3, r0, r3	@ D.7771, tmp362, res
 740              	.LVL99:
 741 01e0 5B00     		lsls	r3, r3, #1	@ tmp364, D.7771,
 742 01e2 0131     		adds	r1, r1, #1	@ ivtmp.46,
 743              	.LVL100:
 744 01e4 9B18     		adds	r3, r3, r2	@ D.7771, tmp364, D.7770
  24:src/console.c ****         res = res*10 + str[i] - '0';
 745              		.loc 1 24 0
 746 01e6 4A1E     		subs	r2, r1, #1	@ D.7772, ivtmp.46,
 747 01e8 1278     		ldrb	r2, [r2]	@ D.7770, MEM[base: _199, offset: 0B]
  25:src/console.c **** 
 748              		.loc 1 25 0
 749 01ea 303B     		subs	r3, r3, #48	@ res,
 750              	.LVL101:
  24:src/console.c ****         res = res*10 + str[i] - '0';
 751              		.loc 1 24 0
 752 01ec 002A     		cmp	r2, #0	@ D.7770,
 753 01ee F5D1     		bne	.L40	@,
 754              	.LVL102:
 755              	.L39:
 756              	.LBE56:
 757              	.LBE55:
 177:src/console.c ****                 Board_Println("Done!");
 758              		.loc 1 177 0
 759 01f0 E362     		str	r3, [r4, #44]	@ res, _57->module_cell_count
 178:src/console.c ****                 break;
 760              		.loc 1 178 0
 761 01f2 4448     		ldr	r0, .L92+32	@,
 762 01f4 FFF7FEFF 		bl	Board_Println	@
 763              	.LVL103:
 179:src/console.c ****             case RWL_cell_charge_c_rating_cC:
 764              		.loc 1 179 0
 765 01f8 32E7     		b	.L19	@
 766              	.L41:
 181:src/console.c ****               Board_Println("Done!");
 767              		.loc 1 181 0
 768 01fa 4346     		mov	r3, r8	@ argv, argv
 769 01fc 9968     		ldr	r1, [r3, #8]	@ D.7769, MEM[(const char * const *)argv_9(D) + 8B]
 770 01fe 3C68     		ldr	r4, [r7]	@ D.7768, _6->pack_config
 771              	.LVL104:
 772              	.LBB58:
 773              	.LBB59:
  24:src/console.c ****         res = res*10 + str[i] - '0';
 774              		.loc 1 24 0
 775 0200 0A78     		ldrb	r2, [r1]	@ D.7770,* D.7769
 776 0202 002A     		cmp	r2, #0	@ D.7770,
 777 0204 5FD0     		beq	.L70	@,
 778              	.LVL105:
 779 0206 0023     		movs	r3, #0	@ res,
 780              	.LVL106:
 781 0208 0131     		adds	r1, r1, #1	@ ivtmp.50,
 782              	.LVL107:
 783              	.L43:
  25:src/console.c **** 
 784              		.loc 1 25 0
 785 020a 9800     		lsls	r0, r3, #2	@ tmp368, res,
ARM GAS  /var/folders/z0/6xlwn_996xz3mwq1cgzkbq4r0000gp/T//cc3rPjEN.s 			page 22


 786 020c C318     		adds	r3, r0, r3	@ D.7771, tmp368, res
 787              	.LVL108:
 788 020e 5B00     		lsls	r3, r3, #1	@ tmp370, D.7771,
 789 0210 0131     		adds	r1, r1, #1	@ ivtmp.50,
 790              	.LVL109:
 791 0212 9B18     		adds	r3, r3, r2	@ D.7771, tmp370, D.7770
  24:src/console.c ****         res = res*10 + str[i] - '0';
 792              		.loc 1 24 0
 793 0214 4A1E     		subs	r2, r1, #1	@ D.7772, ivtmp.50,
 794 0216 1278     		ldrb	r2, [r2]	@ D.7770, MEM[base: _203, offset: 0B]
  25:src/console.c **** 
 795              		.loc 1 25 0
 796 0218 303B     		subs	r3, r3, #48	@ res,
 797              	.LVL110:
  24:src/console.c ****         res = res*10 + str[i] - '0';
 798              		.loc 1 24 0
 799 021a 002A     		cmp	r2, #0	@ D.7770,
 800 021c F5D1     		bne	.L43	@,
 801              	.LVL111:
 802              	.L42:
 803              	.LBE59:
 804              	.LBE58:
 181:src/console.c ****               Board_Println("Done!");
 805              		.loc 1 181 0
 806 021e 2361     		str	r3, [r4, #16]	@ res, _52->cell_charge_c_rating_cC
 182:src/console.c ****               break;
 807              		.loc 1 182 0
 808 0220 3848     		ldr	r0, .L92+32	@,
 809 0222 FFF7FEFF 		bl	Board_Println	@
 810              	.LVL112:
 183:src/console.c ****             case RWL_bal_on_thresh_mV:
 811              		.loc 1 183 0
 812 0226 1BE7     		b	.L19	@
 813              	.L50:
 193:src/console.c ****                 Board_Println("Done!");
 814              		.loc 1 193 0
 815 0228 4346     		mov	r3, r8	@ argv, argv
 816 022a 9968     		ldr	r1, [r3, #8]	@ D.7769, MEM[(const char * const *)argv_9(D) + 8B]
 817 022c 3C68     		ldr	r4, [r7]	@ D.7768, _6->pack_config
 818              	.LVL113:
 819              	.LBB61:
 820              	.LBB62:
  24:src/console.c ****         res = res*10 + str[i] - '0';
 821              		.loc 1 24 0
 822 022e 0A78     		ldrb	r2, [r1]	@ D.7770,* D.7769
 823 0230 002A     		cmp	r2, #0	@ D.7770,
 824 0232 44D0     		beq	.L73	@,
 825              	.LVL114:
 826 0234 0023     		movs	r3, #0	@ res,
 827              	.LVL115:
 828 0236 0131     		adds	r1, r1, #1	@ ivtmp.62,
 829              	.LVL116:
 830              	.L52:
  25:src/console.c **** 
 831              		.loc 1 25 0
 832 0238 9800     		lsls	r0, r3, #2	@ tmp386, res,
 833 023a C318     		adds	r3, r0, r3	@ D.7771, tmp386, res
ARM GAS  /var/folders/z0/6xlwn_996xz3mwq1cgzkbq4r0000gp/T//cc3rPjEN.s 			page 23


 834              	.LVL117:
 835 023c 5B00     		lsls	r3, r3, #1	@ tmp388, D.7771,
 836 023e 0131     		adds	r1, r1, #1	@ ivtmp.62,
 837              	.LVL118:
 838 0240 9B18     		adds	r3, r3, r2	@ D.7771, tmp388, D.7770
  24:src/console.c ****         res = res*10 + str[i] - '0';
 839              		.loc 1 24 0
 840 0242 4A1E     		subs	r2, r1, #1	@ D.7772, ivtmp.62,
 841 0244 1278     		ldrb	r2, [r2]	@ D.7770, MEM[base: _216, offset: 0B]
  25:src/console.c **** 
 842              		.loc 1 25 0
 843 0246 303B     		subs	r3, r3, #48	@ res,
 844              	.LVL119:
  24:src/console.c ****         res = res*10 + str[i] - '0';
 845              		.loc 1 24 0
 846 0248 002A     		cmp	r2, #0	@ D.7770,
 847 024a F5D1     		bne	.L52	@,
 848              	.LVL120:
 849              	.L51:
 850              	.LBE62:
 851              	.LBE61:
 193:src/console.c ****                 Board_Println("Done!");
 852              		.loc 1 193 0
 853 024c E361     		str	r3, [r4, #28]	@ res, _37->pack_cells_p
 194:src/console.c ****                 break;
 854              		.loc 1 194 0
 855 024e 2D48     		ldr	r0, .L92+32	@,
 856 0250 FFF7FEFF 		bl	Board_Println	@
 857              	.LVL121:
 195:src/console.c ****             case RWL_cv_min_current_mA:
 858              		.loc 1 195 0
 859 0254 04E7     		b	.L19	@
 860              	.L53:
 197:src/console.c ****                 Board_Println("Done!");
 861              		.loc 1 197 0
 862 0256 4346     		mov	r3, r8	@ argv, argv
 863 0258 9968     		ldr	r1, [r3, #8]	@ D.7769, MEM[(const char * const *)argv_9(D) + 8B]
 864 025a 3C68     		ldr	r4, [r7]	@ D.7768, _6->pack_config
 865              	.LVL122:
 866              	.LBB64:
 867              	.LBB65:
  24:src/console.c ****         res = res*10 + str[i] - '0';
 868              		.loc 1 24 0
 869 025c 0A78     		ldrb	r2, [r1]	@ D.7770,* D.7769
 870 025e 002A     		cmp	r2, #0	@ D.7770,
 871 0260 29D0     		beq	.L74	@,
 872              	.LVL123:
 873 0262 0023     		movs	r3, #0	@ res,
 874              	.LVL124:
 875 0264 0131     		adds	r1, r1, #1	@ ivtmp.66,
 876              	.LVL125:
 877              	.L55:
  25:src/console.c **** 
 878              		.loc 1 25 0
 879 0266 9800     		lsls	r0, r3, #2	@ tmp392, res,
 880 0268 C318     		adds	r3, r0, r3	@ D.7771, tmp392, res
 881              	.LVL126:
ARM GAS  /var/folders/z0/6xlwn_996xz3mwq1cgzkbq4r0000gp/T//cc3rPjEN.s 			page 24


 882 026a 5B00     		lsls	r3, r3, #1	@ tmp394, D.7771,
 883 026c 0131     		adds	r1, r1, #1	@ ivtmp.66,
 884              	.LVL127:
 885 026e 9B18     		adds	r3, r3, r2	@ D.7771, tmp394, D.7770
  24:src/console.c ****         res = res*10 + str[i] - '0';
 886              		.loc 1 24 0
 887 0270 4A1E     		subs	r2, r1, #1	@ D.7772, ivtmp.66,
 888 0272 1278     		ldrb	r2, [r2]	@ D.7770, MEM[base: _220, offset: 0B]
  25:src/console.c **** 
 889              		.loc 1 25 0
 890 0274 303B     		subs	r3, r3, #48	@ res,
 891              	.LVL128:
  24:src/console.c ****         res = res*10 + str[i] - '0';
 892              		.loc 1 24 0
 893 0276 002A     		cmp	r2, #0	@ D.7770,
 894 0278 F5D1     		bne	.L55	@,
 895              	.LVL129:
 896              	.L54:
 897              	.LBE65:
 898              	.LBE64:
 197:src/console.c ****                 Board_Println("Done!");
 899              		.loc 1 197 0
 900 027a 2362     		str	r3, [r4, #32]	@ res, _32->cv_min_current_mA
 198:src/console.c ****                 break;
 901              		.loc 1 198 0
 902 027c 2148     		ldr	r0, .L92+32	@,
 903 027e FFF7FEFF 		bl	Board_Println	@
 904              	.LVL130:
 199:src/console.c ****             case RWL_cv_min_current_ms:
 905              		.loc 1 199 0
 906 0282 EDE6     		b	.L19	@
 907              	.L59:
 205:src/console.c ****                 Board_Println("Done!");
 908              		.loc 1 205 0
 909 0284 4346     		mov	r3, r8	@ argv, argv
 910 0286 9968     		ldr	r1, [r3, #8]	@ D.7769, MEM[(const char * const *)argv_9(D) + 8B]
 911 0288 3C68     		ldr	r4, [r7]	@ D.7768, _6->pack_config
 912              	.LVL131:
 913              	.LBB67:
 914              	.LBB68:
  24:src/console.c ****         res = res*10 + str[i] - '0';
 915              		.loc 1 24 0
 916 028a 0A78     		ldrb	r2, [r1]	@ D.7770,* D.7769
 917 028c 002A     		cmp	r2, #0	@ D.7770,
 918 028e 10D0     		beq	.L76	@,
 919              	.LVL132:
 920 0290 0023     		movs	r3, #0	@ res,
 921              	.LVL133:
 922 0292 0131     		adds	r1, r1, #1	@ ivtmp.74,
 923              	.LVL134:
 924              	.L61:
  25:src/console.c **** 
 925              		.loc 1 25 0
 926 0294 9800     		lsls	r0, r3, #2	@ tmp404, res,
 927 0296 C318     		adds	r3, r0, r3	@ D.7771, tmp404, res
 928              	.LVL135:
 929 0298 5B00     		lsls	r3, r3, #1	@ tmp406, D.7771,
ARM GAS  /var/folders/z0/6xlwn_996xz3mwq1cgzkbq4r0000gp/T//cc3rPjEN.s 			page 25


 930 029a 0131     		adds	r1, r1, #1	@ ivtmp.74,
 931              	.LVL136:
 932 029c 9B18     		adds	r3, r3, r2	@ D.7771, tmp406, D.7770
  24:src/console.c ****         res = res*10 + str[i] - '0';
 933              		.loc 1 24 0
 934 029e 4A1E     		subs	r2, r1, #1	@ D.7772, ivtmp.74,
 935 02a0 1278     		ldrb	r2, [r2]	@ D.7770, MEM[base: _108, offset: 0B]
  25:src/console.c **** 
 936              		.loc 1 25 0
 937 02a2 303B     		subs	r3, r3, #48	@ res,
 938              	.LVL137:
  24:src/console.c ****         res = res*10 + str[i] - '0';
 939              		.loc 1 24 0
 940 02a4 002A     		cmp	r2, #0	@ D.7770,
 941 02a6 F5D1     		bne	.L61	@,
 942              	.LVL138:
 943              	.L60:
 944              	.LBE68:
 945              	.LBE67:
 205:src/console.c ****                 Board_Println("Done!");
 946              		.loc 1 205 0
 947 02a8 A362     		str	r3, [r4, #40]	@ res, _22->cc_cell_voltage_mV
 206:src/console.c ****                 break;
 948              		.loc 1 206 0
 949 02aa 1648     		ldr	r0, .L92+32	@,
 950 02ac FFF7FEFF 		bl	Board_Println	@
 951              	.LVL139:
 207:src/console.c ****             case RWL_LENGTH:
 952              		.loc 1 207 0
 953 02b0 D6E6     		b	.L19	@
 954              	.LVL140:
 955              	.L76:
 956              	.LBB70:
 957              	.LBB69:
  19:src/console.c **** 
 958              		.loc 1 19 0
 959 02b2 0023     		movs	r3, #0	@ res,
 960              	.LVL141:
 961 02b4 F8E7     		b	.L60	@
 962              	.LVL142:
 963              	.L74:
 964              	.LBE69:
 965              	.LBE70:
 966              	.LBB71:
 967              	.LBB66:
 968 02b6 0023     		movs	r3, #0	@ res,
 969              	.LVL143:
 970 02b8 DFE7     		b	.L54	@
 971              	.LVL144:
 972              	.L69:
 973              	.LBE66:
 974              	.LBE71:
 975              	.LBB72:
 976              	.LBB57:
 977 02ba 0023     		movs	r3, #0	@ res,
 978              	.LVL145:
 979 02bc 98E7     		b	.L39	@
ARM GAS  /var/folders/z0/6xlwn_996xz3mwq1cgzkbq4r0000gp/T//cc3rPjEN.s 			page 26


 980              	.LVL146:
 981              	.L73:
 982              	.LBE57:
 983              	.LBE72:
 984              	.LBB73:
 985              	.LBB63:
 986 02be 0023     		movs	r3, #0	@ res,
 987              	.LVL147:
 988 02c0 C4E7     		b	.L51	@
 989              	.LVL148:
 990              	.L68:
 991              	.LBE63:
 992              	.LBE73:
 993              	.LBB74:
 994              	.LBB48:
 995 02c2 0023     		movs	r3, #0	@ res,
 996              	.LVL149:
 997 02c4 4DE7     		b	.L36	@
 998              	.LVL150:
 999              	.L70:
 1000              	.LBE48:
 1001              	.LBE74:
 1002              	.LBB75:
 1003              	.LBB60:
 1004 02c6 0023     		movs	r3, #0	@ res,
 1005              	.LVL151:
 1006 02c8 A9E7     		b	.L42	@
 1007              	.LVL152:
 1008              	.L66:
 1009              	.LBE60:
 1010              	.LBE75:
 1011              	.LBB76:
 1012              	.LBB42:
 1013 02ca 0023     		movs	r3, #0	@ res,
 1014              	.LVL153:
 1015 02cc 19E7     		b	.L30	@
 1016              	.LVL154:
 1017              	.L72:
 1018              	.LBE42:
 1019              	.LBE76:
 1020              	.LBB77:
 1021              	.LBB54:
 1022 02ce 0023     		movs	r3, #0	@ res,
 1023              	.LVL155:
 1024 02d0 77E7     		b	.L48	@
 1025              	.LVL156:
 1026              	.L67:
 1027              	.LBE54:
 1028              	.LBE77:
 1029              	.LBB78:
 1030              	.LBB45:
 1031 02d2 0023     		movs	r3, #0	@ res,
 1032              	.LVL157:
 1033 02d4 2DE7     		b	.L33	@
 1034              	.LVL158:
 1035              	.L71:
 1036              	.LBE45:
ARM GAS  /var/folders/z0/6xlwn_996xz3mwq1cgzkbq4r0000gp/T//cc3rPjEN.s 			page 27


 1037              	.LBE78:
 1038              	.LBB79:
 1039              	.LBB51:
 1040 02d6 0023     		movs	r3, #0	@ res,
 1041              	.LVL159:
 1042 02d8 5BE7     		b	.L45	@
 1043              	.LVL160:
 1044              	.L75:
 1045              	.LBE51:
 1046              	.LBE79:
 1047              	.LBB80:
 1048              	.LBB36:
 1049 02da 0023     		movs	r3, #0	@ res,
 1050              	.LVL161:
 1051 02dc E1E6     		b	.L57	@
 1052              	.LVL162:
 1053              	.L65:
 1054              	.LBE36:
 1055              	.LBE80:
 1056              	.LBB81:
 1057              	.LBB39:
 1058 02de 0023     		movs	r3, #0	@ res,
 1059              	.LVL163:
 1060 02e0 F7E6     		b	.L27	@
 1061              	.L93:
 1062 02e2 C046     		.align	2
 1063              	.L92:
 1064 02e4 00000000 		.word	.LANCHOR1
 1065 02e8 00000000 		.word	.LANCHOR2
 1066 02ec 88000000 		.word	.LC24
 1067 02f0 94000000 		.word	.LC26
 1068 02f4 E4000000 		.word	.LC36
 1069 02f8 9C000000 		.word	.LC29
 1070 02fc 00000000 		.word	.L64
 1071 0300 C8000000 		.word	.LC34
 1072 0304 C0000000 		.word	.LC32
 1073              	.LBE39:
 1074              	.LBE81:
 1075              		.cfi_endproc
 1076              	.LFE200:
 1077              		.size	set, .-set
 1078              		.section	.text.get,"ax",%progbits
 1079              		.align	2
 1080              		.code	16
 1081              		.thumb_func
 1082              		.type	get, %function
 1083              	get:
 1084              	.LFB199:
  31:src/console.c ****     rw_loc_label_t rwloc;
 1085              		.loc 1 31 0
 1086              		.cfi_startproc
 1087              		@ args = 0, pretend = 0, frame = 24
 1088              		@ frame_needed = 0, uses_anonymous_args = 0
 1089              	.LVL164:
 1090 0000 F0B5     		push	{r4, r5, r6, r7, lr}	@
 1091              		.cfi_def_cfa_offset 20
 1092              		.cfi_offset 4, -20
ARM GAS  /var/folders/z0/6xlwn_996xz3mwq1cgzkbq4r0000gp/T//cc3rPjEN.s 			page 28


 1093              		.cfi_offset 5, -16
 1094              		.cfi_offset 6, -12
 1095              		.cfi_offset 7, -8
 1096              		.cfi_offset 14, -4
 1097 0002 504D     		ldr	r5, .L126	@ ivtmp.134,
 1098 0004 87B0     		sub	sp, sp, #28	@,,
 1099              		.cfi_def_cfa_offset 48
 1100 0006 4668     		ldr	r6, [r0, #4]	@ D.7829, MEM[(const char * const *)argv_8(D) + 4B]
 1101 0008 2F1D     		adds	r7, r5, #4	@ ivtmp.149, ivtmp.134,
  31:src/console.c ****     rw_loc_label_t rwloc;
 1102              		.loc 1 31 0
 1103 000a 4F49     		ldr	r1, .L126+4	@ D.7829,
  36:src/console.c ****         if (strcmp(argv[1],locstring[rwloc]) == 0){
 1104              		.loc 1 36 0
 1105 000c 0024     		movs	r4, #0	@ rwloc,
 1106 000e 00E0     		b	.L98	@
 1107              	.LVL165:
 1108              	.L96:
 1109 0010 02CF     		ldmia	r7!, {r1}	@ MEM[base: _120, offset: 0B], D.7829
 1110              	.LVL166:
 1111              	.L98:
  37:src/console.c ****             foundloc = true;
 1112              		.loc 1 37 0
 1113 0012 3000     		movs	r0, r6	@, D.7829
 1114 0014 FFF7FEFF 		bl	strcmp	@
 1115              	.LVL167:
 1116 0018 0028     		cmp	r0, #0	@ tmp239,
 1117 001a 15D0     		beq	.L95	@,
  36:src/console.c ****         if (strcmp(argv[1],locstring[rwloc]) == 0){
 1118              		.loc 1 36 0 discriminator 2
 1119 001c 0134     		adds	r4, r4, #1	@ tmp241,
 1120              	.LVL168:
 1121 001e E4B2     		uxtb	r4, r4	@ rwloc, tmp241
 1122              	.LVL169:
 1123 0020 0C2C     		cmp	r4, #12	@ rwloc,
 1124 0022 F5D1     		bne	.L96	@,
  36:src/console.c ****         if (strcmp(argv[1],locstring[rwloc]) == 0){
 1125              		.loc 1 36 0 is_stmt 0
 1126 0024 4949     		ldr	r1, .L126+8	@ D.7829,
 1127 0026 00E0     		b	.L97	@
 1128              	.LVL170:
 1129              	.L124:
 1130 0028 296B     		ldr	r1, [r5, #48]	@ D.7829, MEM[base: _79, offset: 48B]
 1131              	.LVL171:
 1132              	.L97:
 1133              	.LBB82:
 103:src/console.c ****                 foundloc = true;
 1134              		.loc 1 103 0 is_stmt 1
 1135 002a 3000     		movs	r0, r6	@, D.7829
 1136 002c FFF7FEFF 		bl	strcmp	@
 1137              	.LVL172:
 1138 0030 0028     		cmp	r0, #0	@ tmp315,
 1139 0032 0FD0     		beq	.L113	@,
 102:src/console.c ****             if (strcmp(argv[1],locstring[roloc]) == 0){
 1140              		.loc 1 102 0 discriminator 2
 1141 0034 0134     		adds	r4, r4, #1	@ tmp317,
 1142              	.LVL173:
ARM GAS  /var/folders/z0/6xlwn_996xz3mwq1cgzkbq4r0000gp/T//cc3rPjEN.s 			page 29


 1143 0036 E4B2     		uxtb	r4, r4	@ roloc, tmp317
 1144              	.LVL174:
 1145 0038 0435     		adds	r5, r5, #4	@ ivtmp.134,
 1146 003a 112C     		cmp	r4, #17	@ roloc,
 1147 003c F4D1     		bne	.L124	@,
 138:src/console.c ****         }
 1148              		.loc 1 138 0
 1149 003e 4448     		ldr	r0, .L126+12	@,
 1150 0040 FFF7FEFF 		bl	Board_Println	@
 1151              	.LVL175:
 1152              	.L94:
 1153              	.LBE82:
 141:src/console.c **** 
 1154              		.loc 1 141 0
 1155 0044 07B0     		add	sp, sp, #28	@,,
 1156              		@ sp needed	@
 1157 0046 F0BD     		pop	{r4, r5, r6, r7, pc}
 1158              	.LVL176:
 1159              	.L95:
 1160              	.LBB85:
  45:src/console.c ****             case RWL_cell_min_mV:
 1161              		.loc 1 45 0
 1162 0048 0B2C     		cmp	r4, #11	@ rwloc,
 1163 004a 3ED8     		bhi	.L99	@,
 1164 004c 414B     		ldr	r3, .L126+16	@ tmp362,
 1165 004e A400     		lsls	r4, r4, #2	@ tmp360, rwloc,
 1166              	.LVL177:
 1167 0050 1B59     		ldr	r3, [r3, r4]	@ tmp363,
 1168 0052 9F46     		mov	pc, r3	@ tmp363
 1169              		.section	.rodata.get,"a",%progbits
 1170              		.align	2
 1171              	.L121:
 1172 0000 CA000000 		.word	.L99
 1173 0004 D4000000 		.word	.L101
 1174 0008 DE000000 		.word	.L102
 1175 000c E8000000 		.word	.L103
 1176 0010 F2000000 		.word	.L104
 1177 0014 FC000000 		.word	.L105
 1178 0018 06010000 		.word	.L106
 1179 001c 10010000 		.word	.L107
 1180 0020 1A010000 		.word	.L108
 1181 0024 24010000 		.word	.L109
 1182 0028 2E010000 		.word	.L110
 1183 002c 38010000 		.word	.L111
 1184              		.section	.text.get
 1185              	.LVL178:
 1186              	.L113:
 1187              	.LBE85:
 1188              	.LBB86:
 1189              	.LBB83:
 110:src/console.c ****                 case ROL_state:
 1190              		.loc 1 110 0
 1191 0054 0E2C     		cmp	r4, #14	@ roloc,
 1192 0056 17D0     		beq	.L118	@,
 1193 0058 0FD9     		bls	.L125	@,
 1194 005a 0F2C     		cmp	r4, #15	@ roloc,
 1195 005c 30D0     		beq	.L119	@,
ARM GAS  /var/folders/z0/6xlwn_996xz3mwq1cgzkbq4r0000gp/T//cc3rPjEN.s 			page 30


 1196 005e 102C     		cmp	r4, #16	@ roloc,
 1197 0060 17D1     		bne	.L115	@,
 130:src/console.c ****                     Board_Println(tempstr);
 1198              		.loc 1 130 0
 1199 0062 3D4B     		ldr	r3, .L126+20	@ tmp355,
 1200 0064 1A68     		ldr	r2, [r3]	@ csb_input, csb_input
 1201 0066 2023     		movs	r3, #32	@ tmp357,
 1202 0068 D05C     		ldrb	r0, [r2, r3]	@ D.7842,
 1203              	.LVL179:
 1204              	.L123:
 1205 006a 0A22     		movs	r2, #10	@,
 1206 006c 01A9     		add	r1, sp, #4	@ tmp398,,
 1207 006e FFF7FEFF 		bl	utoa	@
 1208              	.LVL180:
 131:src/console.c ****                     break;
 1209              		.loc 1 131 0
 1210 0072 01A8     		add	r0, sp, #4	@ tmp399,,
 1211 0074 FFF7FEFF 		bl	Board_Println	@
 1212              	.LVL181:
 1213              	.LBE83:
 1214              	.LBE86:
 141:src/console.c **** 
 1215              		.loc 1 141 0
 1216 0078 E4E7     		b	.L94	@
 1217              	.LVL182:
 1218              	.L125:
 1219              	.LBB87:
 1220              	.LBB84:
 110:src/console.c ****                 case ROL_state:
 1221              		.loc 1 110 0
 1222 007a 0D2C     		cmp	r4, #13	@ roloc,
 1223 007c 09D1     		bne	.L115	@,
 117:src/console.c ****                     Board_Println(tempstr);
 1224              		.loc 1 117 0
 1225 007e 364B     		ldr	r3, .L126+20	@ tmp337,
 1226 0080 1B68     		ldr	r3, [r3]	@ csb_input,
 1227 0082 1B68     		ldr	r3, [r3]	@ _97->pack_status,* csb_input
 1228 0084 1868     		ldr	r0, [r3]	@ _98->pack_cell_max_mV,* _97->pack_status
 1229 0086 F0E7     		b	.L123	@
 1230              	.L118:
 121:src/console.c ****                     Board_Println(tempstr);
 1231              		.loc 1 121 0
 1232 0088 334B     		ldr	r3, .L126+20	@ tmp343,
 1233 008a 1B68     		ldr	r3, [r3]	@ csb_input,
 1234 008c 1B68     		ldr	r3, [r3]	@ _102->pack_status,* csb_input
 1235 008e 5868     		ldr	r0, [r3, #4]	@ _103->pack_current_mA,
 1236 0090 EBE7     		b	.L123	@
 1237              	.L115:
 112:src/console.c ****                     Board_Println(CSB_INIT_MODE_NAMES[csb_state->init_state]);
 1238              		.loc 1 112 0
 1239 0092 324C     		ldr	r4, .L126+24	@ tmp319,
 1240              	.LVL183:
 1241 0094 324A     		ldr	r2, .L126+28	@ tmp318,
 1242 0096 2368     		ldr	r3, [r4]	@ tmp390, csb_state
 1243 0098 1B79     		ldrb	r3, [r3, #4]	@ D.7830,
 1244 009a 9B00     		lsls	r3, r3, #2	@ tmp322, D.7830,
 1245 009c 9858     		ldr	r0, [r3, r2]	@ tmp323, CSB_SSM_MODE_NAMES
ARM GAS  /var/folders/z0/6xlwn_996xz3mwq1cgzkbq4r0000gp/T//cc3rPjEN.s 			page 31


 1246 009e FFF7FEFF 		bl	Board_Println	@
 1247              	.LVL184:
 113:src/console.c ****                     Board_Println(CSB_CHARGE_MODE_NAMES[csb_state->charge_state]);
 1248              		.loc 1 113 0
 1249 00a2 2368     		ldr	r3, [r4]	@ tmp391, csb_state
 1250 00a4 2F4A     		ldr	r2, .L126+32	@ tmp324,
 1251 00a6 5B79     		ldrb	r3, [r3, #5]	@ D.7830,
 1252 00a8 9B00     		lsls	r3, r3, #2	@ tmp328, D.7830,
 1253 00aa 9858     		ldr	r0, [r3, r2]	@ tmp329, CSB_INIT_MODE_NAMES
 1254 00ac FFF7FEFF 		bl	Board_Println	@
 1255              	.LVL185:
 114:src/console.c ****                     break;
 1256              		.loc 1 114 0
 1257 00b0 2368     		ldr	r3, [r4]	@ csb_state, csb_state
 1258 00b2 2D4A     		ldr	r2, .L126+36	@ tmp330,
 1259 00b4 9B79     		ldrb	r3, [r3, #6]	@ D.7830,
 1260 00b6 9B00     		lsls	r3, r3, #2	@ tmp334, D.7830,
 1261 00b8 9858     		ldr	r0, [r3, r2]	@ tmp335, CSB_CHARGE_MODE_NAMES
 1262 00ba FFF7FEFF 		bl	Board_Println	@
 1263              	.LVL186:
 115:src/console.c ****                 case ROL_pack_cell_max_mV:
 1264              		.loc 1 115 0
 1265 00be C1E7     		b	.L94	@
 1266              	.LVL187:
 1267              	.L119:
 125:src/console.c ****                     Board_Println(tempstr);
 1268              		.loc 1 125 0
 1269 00c0 254B     		ldr	r3, .L126+20	@ tmp349,
 1270 00c2 1B68     		ldr	r3, [r3]	@ csb_input,
 1271 00c4 1B68     		ldr	r3, [r3]	@ _107->pack_status,* csb_input
 1272 00c6 9868     		ldr	r0, [r3, #8]	@ _108->pack_voltage_mV,
 1273 00c8 CFE7     		b	.L123	@
 1274              	.LVL188:
 1275              	.L99:
 1276              	.LBE84:
 1277              	.LBE87:
 1278              	.LBB88:
  47:src/console.c ****                 Board_Println(tempstr);
 1279              		.loc 1 47 0
 1280 00ca 244B     		ldr	r3, .L126+24	@ tmp244,
 1281 00cc 1B68     		ldr	r3, [r3]	@ csb_state,
 1282 00ce 1B68     		ldr	r3, [r3]	@ _15->pack_config,* csb_state
 1283 00d0 1868     		ldr	r0, [r3]	@ _16->cell_min_mV,* _15->pack_config
 1284 00d2 CAE7     		b	.L123	@
 1285              	.L101:
  51:src/console.c ****                 Board_Println(tempstr);
 1286              		.loc 1 51 0
 1287 00d4 214B     		ldr	r3, .L126+24	@ tmp250,
 1288 00d6 1B68     		ldr	r3, [r3]	@ csb_state,
 1289 00d8 1B68     		ldr	r3, [r3]	@ _20->pack_config,* csb_state
 1290 00da 5868     		ldr	r0, [r3, #4]	@ _21->cell_max_mV,
 1291 00dc C5E7     		b	.L123	@
 1292              	.L102:
  55:src/console.c ****                 Board_Println(tempstr);
 1293              		.loc 1 55 0
 1294 00de 1F4B     		ldr	r3, .L126+24	@ tmp256,
 1295 00e0 1B68     		ldr	r3, [r3]	@ csb_state,
ARM GAS  /var/folders/z0/6xlwn_996xz3mwq1cgzkbq4r0000gp/T//cc3rPjEN.s 			page 32


 1296 00e2 1B68     		ldr	r3, [r3]	@ _25->pack_config,* csb_state
 1297 00e4 9868     		ldr	r0, [r3, #8]	@ _26->cell_capacity_cAh,
 1298 00e6 C0E7     		b	.L123	@
 1299              	.L103:
  59:src/console.c ****                 Board_Println(tempstr);
 1300              		.loc 1 59 0
 1301 00e8 1C4B     		ldr	r3, .L126+24	@ tmp262,
 1302 00ea 1B68     		ldr	r3, [r3]	@ csb_state,
 1303 00ec 1B68     		ldr	r3, [r3]	@ _30->pack_config,* csb_state
 1304 00ee D868     		ldr	r0, [r3, #12]	@ _31->num_modules, _31->num_modules
 1305 00f0 BBE7     		b	.L123	@
 1306              	.L104:
  63:src/console.c ****                 Board_Println(tempstr);
 1307              		.loc 1 63 0
 1308 00f2 1A4B     		ldr	r3, .L126+24	@ tmp268,
 1309 00f4 1B68     		ldr	r3, [r3]	@ csb_state,
 1310 00f6 1B68     		ldr	r3, [r3]	@ _35->pack_config,* csb_state
 1311 00f8 D86A     		ldr	r0, [r3, #44]	@ _36->module_cell_count, _36->module_cell_count
 1312 00fa B6E7     		b	.L123	@
 1313              	.L105:
  67:src/console.c ****               Board_Println(tempstr);
 1314              		.loc 1 67 0
 1315 00fc 174B     		ldr	r3, .L126+24	@ tmp274,
 1316 00fe 1B68     		ldr	r3, [r3]	@ csb_state,
 1317 0100 1B68     		ldr	r3, [r3]	@ _40->pack_config,* csb_state
 1318 0102 1869     		ldr	r0, [r3, #16]	@ _41->cell_charge_c_rating_cC, _41->cell_charge_c_rating_cC
 1319 0104 B1E7     		b	.L123	@
 1320              	.L106:
  71:src/console.c ****                 Board_Println(tempstr);
 1321              		.loc 1 71 0
 1322 0106 154B     		ldr	r3, .L126+24	@ tmp280,
 1323 0108 1B68     		ldr	r3, [r3]	@ csb_state,
 1324 010a 1B68     		ldr	r3, [r3]	@ _45->pack_config,* csb_state
 1325 010c 5869     		ldr	r0, [r3, #20]	@ _46->bal_on_thresh_mV, _46->bal_on_thresh_mV
 1326 010e ACE7     		b	.L123	@
 1327              	.L107:
  75:src/console.c ****                 Board_Println(tempstr);
 1328              		.loc 1 75 0
 1329 0110 124B     		ldr	r3, .L126+24	@ tmp286,
 1330 0112 1B68     		ldr	r3, [r3]	@ csb_state,
 1331 0114 1B68     		ldr	r3, [r3]	@ _50->pack_config,* csb_state
 1332 0116 9869     		ldr	r0, [r3, #24]	@ _51->bal_off_thresh_mV, _51->bal_off_thresh_mV
 1333 0118 A7E7     		b	.L123	@
 1334              	.L108:
  79:src/console.c ****                 Board_Println(tempstr);
 1335              		.loc 1 79 0
 1336 011a 104B     		ldr	r3, .L126+24	@ tmp292,
 1337 011c 1B68     		ldr	r3, [r3]	@ csb_state,
 1338 011e 1B68     		ldr	r3, [r3]	@ _55->pack_config,* csb_state
 1339 0120 D869     		ldr	r0, [r3, #28]	@ _56->pack_cells_p, _56->pack_cells_p
 1340 0122 A2E7     		b	.L123	@
 1341              	.L109:
  83:src/console.c ****                 Board_Println(tempstr);
 1342              		.loc 1 83 0
 1343 0124 0D4B     		ldr	r3, .L126+24	@ tmp298,
 1344 0126 1B68     		ldr	r3, [r3]	@ csb_state,
 1345 0128 1B68     		ldr	r3, [r3]	@ _60->pack_config,* csb_state
ARM GAS  /var/folders/z0/6xlwn_996xz3mwq1cgzkbq4r0000gp/T//cc3rPjEN.s 			page 33


 1346 012a 186A     		ldr	r0, [r3, #32]	@ _61->cv_min_current_mA, _61->cv_min_current_mA
 1347 012c 9DE7     		b	.L123	@
 1348              	.L110:
  87:src/console.c ****                 Board_Println(tempstr);
 1349              		.loc 1 87 0
 1350 012e 0B4B     		ldr	r3, .L126+24	@ tmp304,
 1351 0130 1B68     		ldr	r3, [r3]	@ csb_state,
 1352 0132 1B68     		ldr	r3, [r3]	@ _65->pack_config,* csb_state
 1353 0134 586A     		ldr	r0, [r3, #36]	@ _66->cv_min_current_ms, _66->cv_min_current_ms
 1354 0136 98E7     		b	.L123	@
 1355              	.L111:
  91:src/console.c ****                 Board_Println(tempstr);
 1356              		.loc 1 91 0
 1357 0138 084B     		ldr	r3, .L126+24	@ tmp310,
 1358 013a 1B68     		ldr	r3, [r3]	@ csb_state,
 1359 013c 1B68     		ldr	r3, [r3]	@ _70->pack_config,* csb_state
 1360 013e 986A     		ldr	r0, [r3, #40]	@ _71->cc_cell_voltage_mV, _71->cc_cell_voltage_mV
 1361 0140 93E7     		b	.L123	@
 1362              	.L127:
 1363 0142 C046     		.align	2
 1364              	.L126:
 1365 0144 00000000 		.word	.LANCHOR2
 1366 0148 88000000 		.word	.LC24
 1367 014c 94000000 		.word	.LC26
 1368 0150 F8000000 		.word	.LC49
 1369 0154 00000000 		.word	.L121
 1370 0158 00000000 		.word	.LANCHOR6
 1371 015c 00000000 		.word	.LANCHOR1
 1372 0160 00000000 		.word	.LANCHOR3
 1373 0164 00000000 		.word	.LANCHOR4
 1374 0168 00000000 		.word	.LANCHOR5
 1375              	.LBE88:
 1376              		.cfi_endproc
 1377              	.LFE199:
 1378              		.size	get, .-get
 1379              		.section	.text.chrg,"ax",%progbits
 1380              		.align	2
 1381              		.code	16
 1382              		.thumb_func
 1383              		.type	chrg, %function
 1384              	chrg:
 1385              	.LFB205:
 312:src/console.c **** 
 313:src/console.c **** 
 314:src/console.c **** static void bal(const char * const * argv) {
 315:src/console.c ****     UNUSED(argv);
 316:src/console.c ****     if (csb_state->curr_mode == CSB_SSM_MODE_IDLE ||
 317:src/console.c ****             csb_state->curr_mode == CSB_SSM_MODE_BALANCE) {
 318:src/console.c **** 
 319:src/console.c ****         if (strcmp(argv[1],"off") == 0) {
 320:src/console.c ****             console_output->valid_mode_request = false;
 321:src/console.c ****             console_output->balance_mV = UINT32_MAX;
 322:src/console.c ****             Board_Println("bal off");
 323:src/console.c ****         } else {
 324:src/console.c ****             console_output->valid_mode_request = true;
 325:src/console.c ****             console_output->mode_request = CSB_SSM_MODE_BALANCE;
 326:src/console.c ****             console_output->balance_mV = my_atou(argv[1]);
ARM GAS  /var/folders/z0/6xlwn_996xz3mwq1cgzkbq4r0000gp/T//cc3rPjEN.s 			page 34


 327:src/console.c ****             Board_Println("bal on");
 328:src/console.c ****         }
 329:src/console.c ****     } else {
 330:src/console.c ****         Board_Println("Must be in standby");
 331:src/console.c ****     }
 332:src/console.c **** }
 333:src/console.c **** 
 334:src/console.c **** static void chrg(const char * const * argv) {
 1386              		.loc 1 334 0
 1387              		.cfi_startproc
 1388              		@ args = 0, pretend = 0, frame = 0
 1389              		@ frame_needed = 0, uses_anonymous_args = 0
 1390              	.LVL189:
 1391 0000 10B5     		push	{r4, lr}	@
 1392              		.cfi_def_cfa_offset 8
 1393              		.cfi_offset 4, -8
 1394              		.cfi_offset 14, -4
 335:src/console.c ****     UNUSED(argv);
 336:src/console.c ****     if (csb_state->curr_mode == CSB_SSM_MODE_IDLE ||
 1395              		.loc 1 336 0
 1396 0002 0E4B     		ldr	r3, .L133	@ tmp116,
 1397 0004 1B68     		ldr	r3, [r3]	@ csb_state, csb_state
 1398 0006 1B79     		ldrb	r3, [r3, #4]	@ tmp119,
 1399 0008 013B     		subs	r3, r3, #1	@ tmp121,
 1400 000a 012B     		cmp	r3, #1	@ tmp121,
 1401 000c 03D9     		bls	.L132	@,
 337:src/console.c ****             csb_state->curr_mode == CSB_SSM_MODE_CHARGE) {
 338:src/console.c ****         if (console_output->valid_mode_request) {
 339:src/console.c ****             console_output->valid_mode_request = false;
 340:src/console.c ****             Board_Println("chrg off");
 341:src/console.c ****         } else {
 342:src/console.c ****             console_output->valid_mode_request = true;
 343:src/console.c ****             console_output->mode_request = CSB_SSM_MODE_CHARGE;
 344:src/console.c ****             Board_Println("chrg on");
 345:src/console.c ****         }
 346:src/console.c ****     } else {
 347:src/console.c ****         Board_Println("Must be in standby");
 1402              		.loc 1 347 0
 1403 000e 0C48     		ldr	r0, .L133+4	@,
 1404              	.LVL190:
 1405 0010 FFF7FEFF 		bl	Board_Println	@
 1406              	.LVL191:
 1407              	.L128:
 348:src/console.c ****     }
 349:src/console.c **** }
 1408              		.loc 1 349 0
 1409              		@ sp needed	@
 1410 0014 10BD     		pop	{r4, pc}
 1411              	.LVL192:
 1412              	.L132:
 1413              	.LBB91:
 1414              	.LBB92:
 338:src/console.c ****             console_output->valid_mode_request = false;
 1415              		.loc 1 338 0
 1416 0016 0B4B     		ldr	r3, .L133+8	@ tmp122,
 1417 0018 1B68     		ldr	r3, [r3]	@ D.7859, console_output
 1418 001a 1A78     		ldrb	r2, [r3]	@ *_9, *_9
ARM GAS  /var/folders/z0/6xlwn_996xz3mwq1cgzkbq4r0000gp/T//cc3rPjEN.s 			page 35


 1419 001c 002A     		cmp	r2, #0	@ *_9,
 1420 001e 05D0     		beq	.L130	@,
 339:src/console.c ****             Board_Println("chrg off");
 1421              		.loc 1 339 0
 1422 0020 0022     		movs	r2, #0	@ tmp124,
 340:src/console.c ****         } else {
 1423              		.loc 1 340 0
 1424 0022 0948     		ldr	r0, .L133+12	@,
 1425              	.LVL193:
 339:src/console.c ****             Board_Println("chrg off");
 1426              		.loc 1 339 0
 1427 0024 1A70     		strb	r2, [r3]	@ tmp124, _9->valid_mode_request
 340:src/console.c ****         } else {
 1428              		.loc 1 340 0
 1429 0026 FFF7FEFF 		bl	Board_Println	@
 1430              	.LVL194:
 1431 002a F3E7     		b	.L128	@
 1432              	.LVL195:
 1433              	.L130:
 342:src/console.c ****             console_output->mode_request = CSB_SSM_MODE_CHARGE;
 1434              		.loc 1 342 0
 1435 002c 0122     		movs	r2, #1	@ tmp127,
 1436 002e 1A70     		strb	r2, [r3]	@ tmp127, _9->valid_mode_request
 343:src/console.c ****             Board_Println("chrg on");
 1437              		.loc 1 343 0
 1438 0030 0132     		adds	r2, r2, #1	@ tmp129,
 1439 0032 9A70     		strb	r2, [r3, #2]	@ tmp129, _9->mode_request
 344:src/console.c ****         }
 1440              		.loc 1 344 0
 1441 0034 0548     		ldr	r0, .L133+16	@,
 1442              	.LVL196:
 1443 0036 FFF7FEFF 		bl	Board_Println	@
 1444              	.LVL197:
 1445 003a EBE7     		b	.L128	@
 1446              	.L134:
 1447              		.align	2
 1448              	.L133:
 1449 003c 00000000 		.word	.LANCHOR1
 1450 0040 24010000 		.word	.LC57
 1451 0044 00000000 		.word	.LANCHOR0
 1452 0048 10010000 		.word	.LC53
 1453 004c 1C010000 		.word	.LC55
 1454              	.LBE92:
 1455              	.LBE91:
 1456              		.cfi_endproc
 1457              	.LFE205:
 1458              		.size	chrg, .-chrg
 1459              		.section	.text.config_def,"ax",%progbits
 1460              		.align	2
 1461              		.code	16
 1462              		.thumb_func
 1463              		.type	config_def, %function
 1464              	config_def:
 1465              	.LFB202:
 252:src/console.c ****   bool foundloc = false;
 1466              		.loc 1 252 0
 1467              		.cfi_startproc
ARM GAS  /var/folders/z0/6xlwn_996xz3mwq1cgzkbq4r0000gp/T//cc3rPjEN.s 			page 36


 1468              		@ args = 0, pretend = 0, frame = 0
 1469              		@ frame_needed = 0, uses_anonymous_args = 0
 1470              	.LVL198:
 1471 0000 10B5     		push	{r4, lr}	@
 1472              		.cfi_def_cfa_offset 8
 1473              		.cfi_offset 4, -8
 1474              		.cfi_offset 14, -4
 1475 0002 4468     		ldr	r4, [r0, #4]	@ D.7878, MEM[(const char * const *)argv_3(D) + 4B]
 256:src/console.c ****           foundloc = true;
 1476              		.loc 1 256 0
 1477 0004 0F49     		ldr	r1, .L139	@,
 1478 0006 2000     		movs	r0, r4	@, D.7878
 1479              	.LVL199:
 1480 0008 FFF7FEFF 		bl	strcmp	@
 1481              	.LVL200:
 1482 000c 0028     		cmp	r0, #0	@ tmp117,
 1483 000e 09D0     		beq	.L136	@,
 1484              	.LVL201:
 1485 0010 0D49     		ldr	r1, .L139+4	@,
 1486 0012 2000     		movs	r0, r4	@, D.7878
 1487 0014 FFF7FEFF 		bl	strcmp	@
 1488              	.LVL202:
 1489 0018 0028     		cmp	r0, #0	@ tmp120,
 1490 001a 0BD0     		beq	.L137	@,
 1491              	.LVL203:
 275:src/console.c ****   }
 1492              		.loc 1 275 0 discriminator 2
 1493 001c 0B48     		ldr	r0, .L139+8	@,
 1494 001e FFF7FEFF 		bl	Board_Println	@
 1495              	.LVL204:
 1496              	.L135:
 277:src/console.c **** 
 1497              		.loc 1 277 0
 1498              		@ sp needed	@
 1499 0022 10BD     		pop	{r4, pc}
 1500              	.LVL205:
 1501              	.L136:
 1502              	.LBB95:
 1503              	.LBB96:
 264:src/console.c ****               Board_Println("Done!");
 1504              		.loc 1 264 0
 1505 0024 0A4B     		ldr	r3, .L139+12	@ tmp123,
 1506 0026 1868     		ldr	r0, [r3]	@ csb_state, csb_state
 1507 0028 FFF7FEFF 		bl	MY18_Pack_Config	@
 1508              	.LVL206:
 265:src/console.c ****               break;
 1509              		.loc 1 265 0
 1510 002c 0948     		ldr	r0, .L139+16	@,
 1511 002e FFF7FEFF 		bl	Board_Println	@
 1512              	.LVL207:
 1513 0032 F6E7     		b	.L135	@
 1514              	.LVL208:
 1515              	.L137:
 1516              	.LBE96:
 1517              	.LBE95:
 268:src/console.c ****               Board_Println("Done!");
 1518              		.loc 1 268 0
ARM GAS  /var/folders/z0/6xlwn_996xz3mwq1cgzkbq4r0000gp/T//cc3rPjEN.s 			page 37


 1519 0034 064B     		ldr	r3, .L139+12	@ tmp126,
 1520 0036 1868     		ldr	r0, [r3]	@ csb_state, csb_state
 1521 0038 FFF7FEFF 		bl	MY16_Pack_Config	@
 1522              	.LVL209:
 269:src/console.c ****               break;
 1523              		.loc 1 269 0
 1524 003c 0548     		ldr	r0, .L139+16	@,
 1525 003e FFF7FEFF 		bl	Board_Println	@
 1526              	.LVL210:
 270:src/console.c ****           case CONL_LENGTH:
 1527              		.loc 1 270 0
 1528 0042 EEE7     		b	.L135	@
 1529              	.L140:
 1530              		.align	2
 1531              	.L139:
 1532 0044 38010000 		.word	.LC59
 1533 0048 40010000 		.word	.LC61
 1534 004c E4000000 		.word	.LC36
 1535 0050 00000000 		.word	.LANCHOR1
 1536 0054 C0000000 		.word	.LC32
 1537              		.cfi_endproc
 1538              	.LFE202:
 1539              		.size	config_def, .-config_def
 1540              		.section	.text.help,"ax",%progbits
 1541              		.align	2
 1542              		.code	16
 1543              		.thumb_func
 1544              		.type	help, %function
 1545              	help:
 1546              	.LFB201:
 225:src/console.c ****     command_label_t command_i = 0;
 1547              		.loc 1 225 0
 1548              		.cfi_startproc
 1549              		@ args = 0, pretend = 0, frame = 0
 1550              		@ frame_needed = 0, uses_anonymous_args = 0
 1551              	.LVL211:
 1552 0000 70B5     		push	{r4, r5, r6, lr}	@
 1553              		.cfi_def_cfa_offset 16
 1554              		.cfi_offset 4, -16
 1555              		.cfi_offset 5, -12
 1556              		.cfi_offset 6, -8
 1557              		.cfi_offset 14, -4
 225:src/console.c ****     command_label_t command_i = 0;
 1558              		.loc 1 225 0
 1559 0002 1F49     		ldr	r1, .L153	@ D.7925,
 1560 0004 4668     		ldr	r6, [r0, #4]	@ D.7925, MEM[(const char * const *)argv_4(D) + 4B]
 1561 0006 1F4D     		ldr	r5, .L153+4	@ ivtmp.194,
 227:src/console.c ****     {
 1562              		.loc 1 227 0
 1563 0008 0024     		movs	r4, #0	@ command_i,
 1564 000a 00E0     		b	.L146	@
 1565              	.LVL212:
 1566              	.L151:
 1567 000c 2968     		ldr	r1, [r5]	@ D.7925, MEM[base: _28, offset: 0B]
 1568              	.LVL213:
 1569              	.L146:
 229:src/console.c ****             Board_Println_BLOCKING(helpstring[command_i]); //blocking print
ARM GAS  /var/folders/z0/6xlwn_996xz3mwq1cgzkbq4r0000gp/T//cc3rPjEN.s 			page 38


 1570              		.loc 1 229 0
 1571 000e 3000     		movs	r0, r6	@, D.7925
 1572 0010 FFF7FEFF 		bl	strcmp	@
 1573              	.LVL214:
 1574 0014 0028     		cmp	r0, #0	@ tmp147,
 1575 0016 08D0     		beq	.L150	@,
 227:src/console.c ****     {
 1576              		.loc 1 227 0 discriminator 2
 1577 0018 0134     		adds	r4, r4, #1	@ tmp153,
 1578              	.LVL215:
 1579 001a E4B2     		uxtb	r4, r4	@ command_i, tmp153
 1580              	.LVL216:
 1581 001c 0435     		adds	r5, r5, #4	@ ivtmp.194,
 1582 001e 072C     		cmp	r4, #7	@ command_i,
 1583 0020 F4D1     		bne	.L151	@,
 235:src/console.c **** 
 1584              		.loc 1 235 0
 1585 0022 1948     		ldr	r0, .L153+8	@,
 1586 0024 FFF7FEFF 		bl	Board_Print	@
 1587              	.LVL217:
 1588              	.L141:
 250:src/console.c **** 
 1589              		.loc 1 250 0
 1590              		@ sp needed	@
 1591 0028 70BD     		pop	{r4, r5, r6, pc}
 1592              	.LVL218:
 1593              	.L150:
 230:src/console.c **** 
 1594              		.loc 1 230 0
 1595 002a 184B     		ldr	r3, .L153+12	@ tmp149,
 1596 002c A200     		lsls	r2, r4, #2	@ tmp150, command_i,
 1597 002e D058     		ldr	r0, [r2, r3]	@ tmp151, helpstring
 1598 0030 FFF7FEFF 		bl	Board_Println_BLOCKING	@
 1599              	.LVL219:
 235:src/console.c **** 
 1600              		.loc 1 235 0
 1601 0034 1448     		ldr	r0, .L153+8	@,
 1602 0036 FFF7FEFF 		bl	Board_Print	@
 1603              	.LVL220:
 237:src/console.c ****     {
 1604              		.loc 1 237 0
 1605 003a 012C     		cmp	r4, #1	@ command_i,
 1606 003c F4D8     		bhi	.L141	@,
 1607              	.LVL221:
 1608              	.LBB101:
 1609              	.LBB102:
 1610              	.LBB103:
 240:src/console.c ****         for (i = 0; i < RWL_LENGTH; ++i){
 1611              		.loc 1 240 0
 1612 003e 1448     		ldr	r0, .L153+16	@,
 1613 0040 FFF7FEFF 		bl	Board_Println_BLOCKING	@
 1614              	.LVL222:
 1615 0044 134D     		ldr	r5, .L153+20	@ tmp155,
 1616 0046 1448     		ldr	r0, .L153+24	@ D.7925,
 1617 0048 2C1D     		adds	r4, r5, #4	@ ivtmp.173, tmp155,
 1618              	.LVL223:
 1619 004a 3035     		adds	r5, r5, #48	@ D.7927,
ARM GAS  /var/folders/z0/6xlwn_996xz3mwq1cgzkbq4r0000gp/T//cc3rPjEN.s 			page 39


 1620 004c 00E0     		b	.L148	@
 1621              	.LVL224:
 1622              	.L152:
 1623 004e 01CC     		ldmia	r4!, {r0}	@ MEM[base: _68, offset: 0B], D.7925
 1624              	.L148:
 242:src/console.c ****         }
 1625              		.loc 1 242 0
 1626 0050 FFF7FEFF 		bl	Board_Println_BLOCKING	@
 1627              	.LVL225:
 241:src/console.c ****             Board_Println_BLOCKING(locstring[i]); //blocking print.
 1628              		.loc 1 241 0
 1629 0054 AC42     		cmp	r4, r5	@ ivtmp.173, D.7927
 1630 0056 FAD1     		bne	.L152	@,
 245:src/console.c ****         for (i = ROL_FIRST; i < (rw_loc_label_t)(ROL_LENGTH); ++i){
 1631              		.loc 1 245 0
 1632 0058 1048     		ldr	r0, .L153+28	@,
 1633 005a FFF7FEFF 		bl	Board_Println_BLOCKING	@
 1634              	.LVL226:
 247:src/console.c ****         }
 1635              		.loc 1 247 0
 1636 005e 1048     		ldr	r0, .L153+32	@,
 1637 0060 FFF7FEFF 		bl	Board_Println_BLOCKING	@
 1638              	.LVL227:
 1639 0064 0F48     		ldr	r0, .L153+36	@,
 1640 0066 FFF7FEFF 		bl	Board_Println_BLOCKING	@
 1641              	.LVL228:
 1642 006a 0F48     		ldr	r0, .L153+40	@,
 1643 006c FFF7FEFF 		bl	Board_Println_BLOCKING	@
 1644              	.LVL229:
 1645 0070 0E48     		ldr	r0, .L153+44	@,
 1646 0072 FFF7FEFF 		bl	Board_Println_BLOCKING	@
 1647              	.LVL230:
 1648 0076 0E48     		ldr	r0, .L153+48	@,
 1649 0078 FFF7FEFF 		bl	Board_Println_BLOCKING	@
 1650              	.LVL231:
 1651 007c D4E7     		b	.L141	@
 1652              	.L154:
 1653 007e C046     		.align	2
 1654              	.L153:
 1655 0080 48010000 		.word	.LC66
 1656 0084 00000000 		.word	commands
 1657 0088 4C010000 		.word	.LC71
 1658 008c 00000000 		.word	.LANCHOR7
 1659 0090 50010000 		.word	.LC73
 1660 0094 00000000 		.word	.LANCHOR2
 1661 0098 88000000 		.word	.LC24
 1662 009c 68010000 		.word	.LC76
 1663 00a0 94000000 		.word	.LC26
 1664 00a4 80010000 		.word	.LC79
 1665 00a8 94010000 		.word	.LC81
 1666 00ac A4010000 		.word	.LC83
 1667 00b0 B4010000 		.word	.LC85
 1668              	.LBE103:
 1669              	.LBE102:
 1670              	.LBE101:
 1671              		.cfi_endproc
 1672              	.LFE201:
ARM GAS  /var/folders/z0/6xlwn_996xz3mwq1cgzkbq4r0000gp/T//cc3rPjEN.s 			page 40


 1673              		.size	help, .-help
 1674              		.section	.text.bal,"ax",%progbits
 1675              		.align	2
 1676              		.code	16
 1677              		.thumb_func
 1678              		.type	bal, %function
 1679              	bal:
 1680              	.LFB204:
 314:src/console.c ****     UNUSED(argv);
 1681              		.loc 1 314 0
 1682              		.cfi_startproc
 1683              		@ args = 0, pretend = 0, frame = 0
 1684              		@ frame_needed = 0, uses_anonymous_args = 0
 1685              	.LVL232:
 1686 0000 70B5     		push	{r4, r5, r6, lr}	@
 1687              		.cfi_def_cfa_offset 16
 1688              		.cfi_offset 4, -16
 1689              		.cfi_offset 5, -12
 1690              		.cfi_offset 6, -8
 1691              		.cfi_offset 14, -4
 316:src/console.c ****             csb_state->curr_mode == CSB_SSM_MODE_BALANCE) {
 1692              		.loc 1 316 0
 1693 0002 1B4B     		ldr	r3, .L165	@ tmp127,
 1694 0004 1B68     		ldr	r3, [r3]	@ csb_state, csb_state
 1695 0006 1D79     		ldrb	r5, [r3, #4]	@ tmp130,
 1696 0008 0223     		movs	r3, #2	@ tmp132,
 1697 000a 9D43     		bics	r5, r3	@ tmp133, tmp132
 1698 000c 012D     		cmp	r5, #1	@ tmp133,
 1699 000e 03D0     		beq	.L163	@,
 330:src/console.c ****     }
 1700              		.loc 1 330 0
 1701 0010 1848     		ldr	r0, .L165+4	@,
 1702              	.LVL233:
 1703 0012 FFF7FEFF 		bl	Board_Println	@
 1704              	.LVL234:
 1705              	.L155:
 332:src/console.c **** 
 1706              		.loc 1 332 0
 1707              		@ sp needed	@
 1708 0016 70BD     		pop	{r4, r5, r6, pc}
 1709              	.LVL235:
 1710              	.L163:
 319:src/console.c ****             console_output->valid_mode_request = false;
 1711              		.loc 1 319 0
 1712 0018 4468     		ldr	r4, [r0, #4]	@ D.7952, MEM[(const char * const *)argv_5(D) + 4B]
 1713 001a 1749     		ldr	r1, .L165+8	@,
 1714 001c 2000     		movs	r0, r4	@, D.7952
 1715              	.LVL236:
 1716 001e FFF7FEFF 		bl	strcmp	@
 1717              	.LVL237:
 1718              	.LBB110:
 1719              	.LBB111:
 320:src/console.c ****             console_output->balance_mV = UINT32_MAX;
 1720              		.loc 1 320 0
 1721 0022 164B     		ldr	r3, .L165+12	@ tmp137,
 1722              	.LBE111:
 1723              	.LBE110:
ARM GAS  /var/folders/z0/6xlwn_996xz3mwq1cgzkbq4r0000gp/T//cc3rPjEN.s 			page 41


 319:src/console.c ****             console_output->valid_mode_request = false;
 1724              		.loc 1 319 0
 1725 0024 0028     		cmp	r0, #0	@ tmp135,
 1726 0026 17D0     		beq	.L164	@,
 324:src/console.c ****             console_output->mode_request = CSB_SSM_MODE_BALANCE;
 1727              		.loc 1 324 0
 1728 0028 1E68     		ldr	r6, [r3]	@ D.7954, console_output
 325:src/console.c ****             console_output->balance_mV = my_atou(argv[1]);
 1729              		.loc 1 325 0
 1730 002a 0323     		movs	r3, #3	@ tmp145,
 324:src/console.c ****             console_output->mode_request = CSB_SSM_MODE_BALANCE;
 1731              		.loc 1 324 0
 1732 002c 3570     		strb	r5, [r6]	@ tmp133, _8->valid_mode_request
 325:src/console.c ****             console_output->balance_mV = my_atou(argv[1]);
 1733              		.loc 1 325 0
 1734 002e B370     		strb	r3, [r6, #2]	@ tmp145, _8->mode_request
 1735              	.LVL238:
 1736              	.LBB113:
 1737              	.LBB114:
  24:src/console.c ****         res = res*10 + str[i] - '0';
 1738              		.loc 1 24 0
 1739 0030 2278     		ldrb	r2, [r4]	@ D.7956, *_6
 1740 0032 002A     		cmp	r2, #0	@ D.7956,
 1741 0034 19D0     		beq	.L161	@,
 1742 0036 0023     		movs	r3, #0	@ res,
 1743 0038 601C     		adds	r0, r4, #1	@ ivtmp.200, D.7952,
 1744              	.LVL239:
 1745              	.L160:
  25:src/console.c **** 
 1746              		.loc 1 25 0
 1747 003a 9900     		lsls	r1, r3, #2	@ tmp148, res,
 1748 003c CB18     		adds	r3, r1, r3	@ D.7955, tmp148, res
 1749              	.LVL240:
 1750 003e 5B00     		lsls	r3, r3, #1	@ tmp150, D.7955,
 1751 0040 0130     		adds	r0, r0, #1	@ ivtmp.200,
 1752              	.LVL241:
 1753 0042 9B18     		adds	r3, r3, r2	@ D.7955, tmp150, D.7956
  24:src/console.c ****         res = res*10 + str[i] - '0';
 1754              		.loc 1 24 0
 1755 0044 421E     		subs	r2, r0, #1	@ D.7957, ivtmp.200,
 1756 0046 1278     		ldrb	r2, [r2]	@ D.7956, MEM[base: _21, offset: 0B]
  25:src/console.c **** 
 1757              		.loc 1 25 0
 1758 0048 303B     		subs	r3, r3, #48	@ res,
 1759              	.LVL242:
  24:src/console.c ****         res = res*10 + str[i] - '0';
 1760              		.loc 1 24 0
 1761 004a 002A     		cmp	r2, #0	@ D.7956,
 1762 004c F5D1     		bne	.L160	@,
 1763              	.LVL243:
 1764              	.L159:
 1765              	.LBE114:
 1766              	.LBE113:
 326:src/console.c ****             Board_Println("bal on");
 1767              		.loc 1 326 0
 1768 004e 7360     		str	r3, [r6, #4]	@ res, _8->balance_mV
 327:src/console.c ****         }
ARM GAS  /var/folders/z0/6xlwn_996xz3mwq1cgzkbq4r0000gp/T//cc3rPjEN.s 			page 42


 1769              		.loc 1 327 0
 1770 0050 0B48     		ldr	r0, .L165+16	@,
 1771 0052 FFF7FEFF 		bl	Board_Println	@
 1772              	.LVL244:
 1773 0056 DEE7     		b	.L155	@
 1774              	.L164:
 1775              	.LVL245:
 1776              	.LBB116:
 1777              	.LBB112:
 321:src/console.c ****             Board_Println("bal off");
 1778              		.loc 1 321 0
 1779 0058 0122     		movs	r2, #1	@ tmp140,
 320:src/console.c ****             console_output->balance_mV = UINT32_MAX;
 1780              		.loc 1 320 0
 1781 005a 1B68     		ldr	r3, [r3]	@ D.7954, console_output
 321:src/console.c ****             Board_Println("bal off");
 1782              		.loc 1 321 0
 1783 005c 5242     		rsbs	r2, r2, #0	@ tmp140, tmp140
 320:src/console.c ****             console_output->balance_mV = UINT32_MAX;
 1784              		.loc 1 320 0
 1785 005e 1870     		strb	r0, [r3]	@ tmp135, _24->valid_mode_request
 321:src/console.c ****             Board_Println("bal off");
 1786              		.loc 1 321 0
 1787 0060 5A60     		str	r2, [r3, #4]	@ tmp140, _24->balance_mV
 322:src/console.c ****         } else {
 1788              		.loc 1 322 0
 1789 0062 0848     		ldr	r0, .L165+20	@,
 1790 0064 FFF7FEFF 		bl	Board_Println	@
 1791              	.LVL246:
 1792 0068 D5E7     		b	.L155	@
 1793              	.LVL247:
 1794              	.L161:
 1795              	.LBE112:
 1796              	.LBE116:
 1797              	.LBB117:
 1798              	.LBB115:
  19:src/console.c **** 
 1799              		.loc 1 19 0
 1800 006a 0023     		movs	r3, #0	@ res,
 1801 006c EFE7     		b	.L159	@
 1802              	.L166:
 1803 006e C046     		.align	2
 1804              	.L165:
 1805 0070 00000000 		.word	.LANCHOR1
 1806 0074 24010000 		.word	.LC57
 1807 0078 10000000 		.word	.LC5
 1808 007c 00000000 		.word	.LANCHOR0
 1809 0080 C4010000 		.word	.LC93
 1810 0084 BC010000 		.word	.LC91
 1811              	.LBE115:
 1812              	.LBE117:
 1813              		.cfi_endproc
 1814              	.LFE204:
 1815              		.size	bal, .-bal
 1816              		.section	.text.my_atou,"ax",%progbits
 1817              		.align	2
 1818              		.global	my_atou
ARM GAS  /var/folders/z0/6xlwn_996xz3mwq1cgzkbq4r0000gp/T//cc3rPjEN.s 			page 43


 1819              		.code	16
 1820              		.thumb_func
 1821              		.type	my_atou, %function
 1822              	my_atou:
 1823              	.LFB198:
  18:src/console.c ****     uint32_t res = 0; // Initialize result
 1824              		.loc 1 18 0
 1825              		.cfi_startproc
 1826              		@ args = 0, pretend = 0, frame = 0
 1827              		@ frame_needed = 0, uses_anonymous_args = 0
 1828              		@ link register save eliminated.
 1829              	.LVL248:
  24:src/console.c ****         res = res*10 + str[i] - '0';
 1830              		.loc 1 24 0
 1831 0000 0378     		ldrb	r3, [r0]	@ D.7969, *str_3(D)
 1832 0002 002B     		cmp	r3, #0	@ D.7969,
 1833 0004 0CD0     		beq	.L170	@,
 1834 0006 421C     		adds	r2, r0, #1	@ ivtmp.206, str,
 1835 0008 0020     		movs	r0, #0	@ res,
 1836              	.LVL249:
 1837              	.L169:
  25:src/console.c **** 
 1838              		.loc 1 25 0 discriminator 3
 1839 000a 8100     		lsls	r1, r0, #2	@ tmp122, res,
 1840 000c 0818     		adds	r0, r1, r0	@ D.7970, tmp122, res
 1841              	.LVL250:
 1842 000e 4000     		lsls	r0, r0, #1	@ tmp124, D.7970,
 1843 0010 0132     		adds	r2, r2, #1	@ ivtmp.206,
 1844              	.LVL251:
 1845 0012 C018     		adds	r0, r0, r3	@ D.7970, tmp124, D.7969
  24:src/console.c ****         res = res*10 + str[i] - '0';
 1846              		.loc 1 24 0 discriminator 3
 1847 0014 531E     		subs	r3, r2, #1	@ D.7968, ivtmp.206,
 1848 0016 1B78     		ldrb	r3, [r3]	@ D.7969, MEM[base: _2, offset: 0B]
  25:src/console.c **** 
 1849              		.loc 1 25 0 discriminator 3
 1850 0018 3038     		subs	r0, r0, #48	@ res,
 1851              	.LVL252:
  24:src/console.c ****         res = res*10 + str[i] - '0';
 1852              		.loc 1 24 0 discriminator 3
 1853 001a 002B     		cmp	r3, #0	@ D.7969,
 1854 001c F5D1     		bne	.L169	@,
 1855              	.LVL253:
 1856              	.L168:
  29:src/console.c **** 
 1857              		.loc 1 29 0
 1858              		@ sp needed	@
 1859 001e 7047     		bx	lr
 1860              	.LVL254:
 1861              	.L170:
  19:src/console.c **** 
 1862              		.loc 1 19 0
 1863 0020 0020     		movs	r0, #0	@ res,
 1864              	.LVL255:
 1865 0022 FCE7     		b	.L168	@
 1866              		.cfi_endproc
 1867              	.LFE198:
ARM GAS  /var/folders/z0/6xlwn_996xz3mwq1cgzkbq4r0000gp/T//cc3rPjEN.s 			page 44


 1868              		.size	my_atou, .-my_atou
 1869              		.section	.text.console_init,"ax",%progbits
 1870              		.align	2
 1871              		.global	console_init
 1872              		.code	16
 1873              		.thumb_func
 1874              		.type	console_init, %function
 1875              	console_init:
 1876              	.LFB206:
 350:src/console.c **** 
 351:src/console.c **** static const EXECUTE_HANDLER handlers[] = {get, set, help, config_def, bal, chrg, measure};
 352:src/console.c **** 
 353:src/console.c **** void console_init(CSB_INPUT_T * input, CSB_STATE_T * state, CONSOLE_OUTPUT_T *con_output){
 1877              		.loc 1 353 0
 1878              		.cfi_startproc
 1879              		@ args = 0, pretend = 0, frame = 0
 1880              		@ frame_needed = 0, uses_anonymous_args = 0
 1881              		@ link register save eliminated.
 1882              	.LVL256:
 354:src/console.c ****     csb_input = input;
 1883              		.loc 1 354 0
 1884 0000 074B     		ldr	r3, .L173	@ tmp113,
 355:src/console.c ****     csb_state = state;
 356:src/console.c ****     console_output = con_output;
 357:src/console.c ****     console_output->valid_mode_request = false;
 358:src/console.c ****     console_output->mode_request = CSB_SSM_MODE_IDLE;
 359:src/console.c ****     console_output->config_default = false;
 360:src/console.c **** 
 361:src/console.c ****     console_output->measure_on = false;
 362:src/console.c ****     console_output->measure_packcurrent = false;
 363:src/console.c ****     console_output->measure_packvoltage = false;
 364:src/console.c **** }
 1885              		.loc 1 364 0
 1886              		@ sp needed	@
 354:src/console.c ****     csb_input = input;
 1887              		.loc 1 354 0
 1888 0002 1860     		str	r0, [r3]	@ input, csb_input
 355:src/console.c ****     csb_state = state;
 1889              		.loc 1 355 0
 1890 0004 074B     		ldr	r3, .L173+4	@ tmp114,
 1891 0006 1960     		str	r1, [r3]	@ state, csb_state
 356:src/console.c ****     console_output->valid_mode_request = false;
 1892              		.loc 1 356 0
 1893 0008 074B     		ldr	r3, .L173+8	@ tmp115,
 358:src/console.c ****     console_output->config_default = false;
 1894              		.loc 1 358 0
 1895 000a 0121     		movs	r1, #1	@ tmp118,
 1896              	.LVL257:
 356:src/console.c ****     console_output->valid_mode_request = false;
 1897              		.loc 1 356 0
 1898 000c 1A60     		str	r2, [r3]	@ con_output, console_output
 357:src/console.c ****     console_output->mode_request = CSB_SSM_MODE_IDLE;
 1899              		.loc 1 357 0
 1900 000e 0023     		movs	r3, #0	@ tmp116,
 358:src/console.c ****     console_output->config_default = false;
 1901              		.loc 1 358 0
 1902 0010 9170     		strb	r1, [r2, #2]	@ tmp118, con_output_6(D)->mode_request
ARM GAS  /var/folders/z0/6xlwn_996xz3mwq1cgzkbq4r0000gp/T//cc3rPjEN.s 			page 45


 357:src/console.c ****     console_output->mode_request = CSB_SSM_MODE_IDLE;
 1903              		.loc 1 357 0
 1904 0012 1370     		strb	r3, [r2]	@ tmp116, con_output_6(D)->valid_mode_request
 359:src/console.c **** 
 1905              		.loc 1 359 0
 1906 0014 5370     		strb	r3, [r2, #1]	@ tmp116, con_output_6(D)->config_default
 361:src/console.c ****     console_output->measure_packcurrent = false;
 1907              		.loc 1 361 0
 1908 0016 1372     		strb	r3, [r2, #8]	@ tmp116, con_output_6(D)->measure_on
 362:src/console.c ****     console_output->measure_packvoltage = false;
 1909              		.loc 1 362 0
 1910 0018 5372     		strb	r3, [r2, #9]	@ tmp116, con_output_6(D)->measure_packcurrent
 363:src/console.c **** }
 1911              		.loc 1 363 0
 1912 001a 9372     		strb	r3, [r2, #10]	@ tmp116, con_output_6(D)->measure_packvoltage
 1913              		.loc 1 364 0
 1914 001c 7047     		bx	lr
 1915              	.L174:
 1916 001e C046     		.align	2
 1917              	.L173:
 1918 0020 00000000 		.word	.LANCHOR6
 1919 0024 00000000 		.word	.LANCHOR1
 1920 0028 00000000 		.word	.LANCHOR0
 1921              		.cfi_endproc
 1922              	.LFE206:
 1923              		.size	console_init, .-console_init
 1924              		.section	.text.executerl,"ax",%progbits
 1925              		.align	2
 1926              		.global	executerl
 1927              		.code	16
 1928              		.thumb_func
 1929              		.type	executerl, %function
 1930              	executerl:
 1931              	.LFB207:
 365:src/console.c **** 
 366:src/console.c **** void executerl(int32_t argc, const char * const * argv){
 1932              		.loc 1 366 0
 1933              		.cfi_startproc
 1934              		@ args = 0, pretend = 0, frame = 0
 1935              		@ frame_needed = 0, uses_anonymous_args = 0
 1936              	.LVL258:
 1937 0000 F0B5     		push	{r4, r5, r6, r7, lr}	@
 1938              		.cfi_def_cfa_offset 20
 1939              		.cfi_offset 4, -20
 1940              		.cfi_offset 5, -16
 1941              		.cfi_offset 6, -12
 1942              		.cfi_offset 7, -8
 1943              		.cfi_offset 14, -4
 1944 0002 4746     		mov	r7, r8	@,
 1945 0004 0E68     		ldr	r6, [r1]	@ D.8001, *argv_5(D)
 1946 0006 80B4     		push	{r7}	@
 1947              		.cfi_def_cfa_offset 24
 1948              		.cfi_offset 8, -24
 1949              		.loc 1 366 0
 1950 0008 8846     		mov	r8, r1	@ argv, argv
 1951 000a 0700     		movs	r7, r0	@ argc, argc
 1952 000c 114D     		ldr	r5, .L186	@ ivtmp.226,
ARM GAS  /var/folders/z0/6xlwn_996xz3mwq1cgzkbq4r0000gp/T//cc3rPjEN.s 			page 46


 1953 000e 1249     		ldr	r1, .L186+4	@ D.8001,
 1954              	.LVL259:
 367:src/console.c ****     uint32_t command_i = 0;
 368:src/console.c ****     bool found_command = false;
 369:src/console.c ****     for (command_i = 0; command_i < NUMCOMMANDS; ++command_i)
 1955              		.loc 1 369 0
 1956 0010 0024     		movs	r4, #0	@ command_i,
 1957 0012 00E0     		b	.L178	@
 1958              	.LVL260:
 1959              	.L184:
 1960 0014 2968     		ldr	r1, [r5]	@ D.8001, MEM[base: _2, offset: 0B]
 1961              	.LVL261:
 1962              	.L178:
 370:src/console.c ****     {
 371:src/console.c ****         if (strcmp(argv[0],commands[command_i]) == 0){
 1963              		.loc 1 371 0
 1964 0016 3000     		movs	r0, r6	@, D.8001
 1965 0018 FFF7FEFF 		bl	strcmp	@
 1966              	.LVL262:
 1967 001c 0028     		cmp	r0, #0	@ tmp123,
 1968 001e 09D0     		beq	.L176	@,
 369:src/console.c ****     {
 1969              		.loc 1 369 0 discriminator 2
 1970 0020 0134     		adds	r4, r4, #1	@ command_i,
 1971              	.LVL263:
 1972 0022 0435     		adds	r5, r5, #4	@ ivtmp.226,
 1973 0024 072C     		cmp	r4, #7	@ command_i,
 1974 0026 F5D1     		bne	.L184	@,
 372:src/console.c ****             found_command = true;
 373:src/console.c ****             break;
 374:src/console.c ****         }
 375:src/console.c ****     }
 376:src/console.c ****     if (found_command) {
 377:src/console.c ****         if (nargs[command_i] == (uint32_t)(argc-1))
 378:src/console.c ****         {
 379:src/console.c ****             handlers[command_i](argv);
 380:src/console.c ****         }
 381:src/console.c ****         else {
 382:src/console.c ****             Board_Println("incorrect number of args");
 383:src/console.c ****         }
 384:src/console.c ****     }
 385:src/console.c ****     else{
 386:src/console.c ****         Board_Println("Unrecognized command");
 1975              		.loc 1 386 0
 1976 0028 0C48     		ldr	r0, .L186+8	@,
 1977 002a FFF7FEFF 		bl	Board_Println	@
 1978              	.LVL264:
 1979              	.L175:
 387:src/console.c ****     }
 388:src/console.c **** }
 1980              		.loc 1 388 0
 1981              		@ sp needed	@
 1982              	.LVL265:
 1983 002e 04BC     		pop	{r2}
 1984 0030 9046     		mov	r8, r2
 1985 0032 F0BD     		pop	{r4, r5, r6, r7, pc}
 1986              	.LVL266:
ARM GAS  /var/folders/z0/6xlwn_996xz3mwq1cgzkbq4r0000gp/T//cc3rPjEN.s 			page 47


 1987              	.L176:
 377:src/console.c ****         {
 1988              		.loc 1 377 0
 1989 0034 0A4B     		ldr	r3, .L186+12	@ tmp129,
 1990 0036 013F     		subs	r7, r7, #1	@ D.7999,
 1991              	.LVL267:
 1992 0038 1B5D     		ldrb	r3, [r3, r4]	@ D.7998, nargs
 1993 003a BB42     		cmp	r3, r7	@ D.7998, D.7999
 1994 003c 03D0     		beq	.L185	@,
 382:src/console.c ****         }
 1995              		.loc 1 382 0
 1996 003e 0948     		ldr	r0, .L186+16	@,
 1997 0040 FFF7FEFF 		bl	Board_Println	@
 1998              	.LVL268:
 1999              		.loc 1 388 0
 2000 0044 F3E7     		b	.L175	@
 2001              	.L185:
 379:src/console.c ****         }
 2002              		.loc 1 379 0
 2003 0046 084B     		ldr	r3, .L186+20	@ tmp125,
 2004 0048 A400     		lsls	r4, r4, #2	@ tmp126, command_i,
 2005              	.LVL269:
 2006 004a E358     		ldr	r3, [r4, r3]	@ tmp127, handlers
 2007 004c 4046     		mov	r0, r8	@, argv
 2008 004e 9847     		blx	r3	@ tmp127
 2009              	.LVL270:
 2010 0050 EDE7     		b	.L175	@
 2011              	.L187:
 2012 0052 C046     		.align	2
 2013              	.L186:
 2014 0054 00000000 		.word	commands
 2015 0058 48010000 		.word	.LC66
 2016 005c E8010000 		.word	.LC105
 2017 0060 00000000 		.word	.LANCHOR9
 2018 0064 CC010000 		.word	.LC102
 2019 0068 00000000 		.word	.LANCHOR8
 2020              		.cfi_endproc
 2021              	.LFE207:
 2022              		.size	executerl, .-executerl
 2023              		.section	.text.Output_Measurements,"ax",%progbits
 2024              		.align	2
 2025              		.global	Output_Measurements
 2026              		.code	16
 2027              		.thumb_func
 2028              		.type	Output_Measurements, %function
 2029              	Output_Measurements:
 2030              	.LFB208:
 389:src/console.c **** 
 390:src/console.c **** void Output_Measurements(
 391:src/console.c ****         CONSOLE_OUTPUT_T *console_output,
 392:src/console.c ****         CSB_INPUT_T* csb_input,
 393:src/console.c ****         CSB_STATE_T* csb_state,
 394:src/console.c ****         uint32_t msTicks
 395:src/console.c **** ) {
 2031              		.loc 1 395 0
 2032              		.cfi_startproc
 2033              		@ args = 0, pretend = 0, frame = 24
ARM GAS  /var/folders/z0/6xlwn_996xz3mwq1cgzkbq4r0000gp/T//cc3rPjEN.s 			page 48


 2034              		@ frame_needed = 0, uses_anonymous_args = 0
 2035              	.LVL271:
 2036 0000 F0B5     		push	{r4, r5, r6, r7, lr}	@
 2037              		.cfi_def_cfa_offset 20
 2038              		.cfi_offset 4, -20
 2039              		.cfi_offset 5, -16
 2040              		.cfi_offset 6, -12
 2041              		.cfi_offset 7, -8
 2042              		.cfi_offset 14, -4
 2043 0002 1D00     		movs	r5, r3	@ msTicks, msTicks
 396:src/console.c **** 
 397:src/console.c ****     char tempstr[20];
 398:src/console.c **** 
 399:src/console.c ****     if(console_output->measure_on) {
 2044              		.loc 1 399 0
 2045 0004 037A     		ldrb	r3, [r0, #8]	@ tmp125,
 2046              	.LVL272:
 395:src/console.c **** 
 2047              		.loc 1 395 0
 2048 0006 87B0     		sub	sp, sp, #28	@,,
 2049              		.cfi_def_cfa_offset 48
 395:src/console.c **** 
 2050              		.loc 1 395 0
 2051 0008 0400     		movs	r4, r0	@ console_output, console_output
 2052 000a 0E00     		movs	r6, r1	@ csb_input, csb_input
 2053              		.loc 1 399 0
 2054 000c 002B     		cmp	r3, #0	@ tmp125,
 2055 000e 13D0     		beq	.L188	@,
 2056              	.LVL273:
 2057              	.LBB118:
 400:src/console.c **** 
 401:src/console.c ****         bool printPackCurrent = (msTicks - lastPackCurrentPrintTime) >
 402:src/console.c ****                 PACK_CURRENT_PRINT_PERIOD_ms;
 403:src/console.c ****         if(console_output->measure_packcurrent && printPackCurrent) {
 2058              		.loc 1 403 0
 2059 0010 437A     		ldrb	r3, [r0, #9]	@ tmp126,
 2060 0012 002B     		cmp	r3, #0	@ tmp126,
 2061 0014 06D0     		beq	.L191	@,
 2062              		.loc 1 403 0 is_stmt 0 discriminator 1
 2063 0016 FA22     		movs	r2, #250	@ tmp130,
 2064              	.LVL274:
 401:src/console.c ****                 PACK_CURRENT_PRINT_PERIOD_ms;
 2065              		.loc 1 401 0 is_stmt 1 discriminator 1
 2066 0018 214F     		ldr	r7, .L201	@ tmp127,
 2067              		.loc 1 403 0 discriminator 1
 2068 001a 9200     		lsls	r2, r2, #2	@ tmp130, tmp130,
 2069 001c 3B68     		ldr	r3, [r7]	@ tmp156, lastPackCurrentPrintTime
 2070 001e EB1A     		subs	r3, r5, r3	@ D.8009, msTicks, tmp156
 2071 0020 9342     		cmp	r3, r2	@ D.8009, tmp130
 2072 0022 24D8     		bhi	.L199	@,
 2073              	.LVL275:
 2074              	.L191:
 404:src/console.c ****             utoa(msTicks, tempstr, 10); // print msTicks
 405:src/console.c ****             Board_Print_BLOCKING(tempstr);
 406:src/console.c ****             Board_Print_BLOCKING(",pcurr,");
 407:src/console.c ****             utoa(csb_input->pack_status->pack_current_mA, tempstr, 10);
 408:src/console.c ****             Board_Println_BLOCKING(tempstr); // print pack current
ARM GAS  /var/folders/z0/6xlwn_996xz3mwq1cgzkbq4r0000gp/T//cc3rPjEN.s 			page 49


 409:src/console.c ****             Board_Print_BLOCKING("\n");
 410:src/console.c ****             lastPackCurrentPrintTime = msTicks;
 411:src/console.c ****         }
 412:src/console.c **** 
 413:src/console.c ****         bool printPackVoltage = (msTicks - lastPackVoltagePrintTime) >
 414:src/console.c ****                 PACK_VOLTAGE_PRINT_PERIOD_ms;
 415:src/console.c ****         if(console_output->measure_packvoltage && printPackVoltage) {
 2075              		.loc 1 415 0
 2076 0024 A37A     		ldrb	r3, [r4, #10]	@ tmp140,
 2077 0026 002B     		cmp	r3, #0	@ tmp140,
 2078 0028 06D0     		beq	.L188	@,
 2079              		.loc 1 415 0 is_stmt 0 discriminator 1
 2080 002a FA22     		movs	r2, #250	@ tmp144,
 413:src/console.c ****                 PACK_VOLTAGE_PRINT_PERIOD_ms;
 2081              		.loc 1 413 0 is_stmt 1 discriminator 1
 2082 002c 1D4C     		ldr	r4, .L201+4	@ tmp141,
 2083              	.LVL276:
 2084              		.loc 1 415 0 discriminator 1
 2085 002e 9200     		lsls	r2, r2, #2	@ tmp144, tmp144,
 2086 0030 2368     		ldr	r3, [r4]	@ tmp161, lastPackVoltagePrintTime
 2087 0032 EB1A     		subs	r3, r5, r3	@ D.8009, msTicks, tmp161
 2088 0034 9342     		cmp	r3, r2	@ D.8009, tmp144
 2089 0036 01D8     		bhi	.L200	@,
 2090              	.LVL277:
 2091              	.L188:
 2092              	.LBE118:
 416:src/console.c ****             utoa(msTicks, tempstr, 10); // print msTicks
 417:src/console.c ****             Board_Print_BLOCKING(tempstr);
 418:src/console.c ****             Board_Print_BLOCKING(",pvolt,");
 419:src/console.c ****             utoa(csb_input->pack_status->pack_voltage_mV, tempstr, 10);
 420:src/console.c ****             Board_Println_BLOCKING(tempstr); // print pack voltage
 421:src/console.c ****             Board_Print_BLOCKING("\n");
 422:src/console.c ****             lastPackVoltagePrintTime = msTicks;
 423:src/console.c ****         }
 424:src/console.c ****     }
 425:src/console.c **** }
 2093              		.loc 1 425 0
 2094 0038 07B0     		add	sp, sp, #28	@,,
 2095              		@ sp needed	@
 2096              	.LVL278:
 2097              	.LVL279:
 2098 003a F0BD     		pop	{r4, r5, r6, r7, pc}
 2099              	.LVL280:
 2100              	.L200:
 2101              	.LBB119:
 416:src/console.c ****             utoa(msTicks, tempstr, 10); // print msTicks
 2102              		.loc 1 416 0
 2103 003c 0A22     		movs	r2, #10	@,
 2104 003e 01A9     		add	r1, sp, #4	@ tmp162,,
 2105 0040 2800     		movs	r0, r5	@, msTicks
 2106 0042 FFF7FEFF 		bl	utoa	@
 2107              	.LVL281:
 417:src/console.c ****             Board_Print_BLOCKING(",pvolt,");
 2108              		.loc 1 417 0
 2109 0046 01A8     		add	r0, sp, #4	@ tmp163,,
 2110 0048 FFF7FEFF 		bl	Board_Print_BLOCKING	@
 2111              	.LVL282:
ARM GAS  /var/folders/z0/6xlwn_996xz3mwq1cgzkbq4r0000gp/T//cc3rPjEN.s 			page 50


 418:src/console.c ****             utoa(csb_input->pack_status->pack_voltage_mV, tempstr, 10);
 2112              		.loc 1 418 0
 2113 004c 1648     		ldr	r0, .L201+8	@,
 2114 004e FFF7FEFF 		bl	Board_Print_BLOCKING	@
 2115              	.LVL283:
 419:src/console.c ****             Board_Println_BLOCKING(tempstr); // print pack voltage
 2116              		.loc 1 419 0
 2117 0052 3368     		ldr	r3, [r6]	@ csb_input_13(D)->pack_status, csb_input_13(D)->pack_status
 2118 0054 0A22     		movs	r2, #10	@,
 2119 0056 9868     		ldr	r0, [r3, #8]	@ _26->pack_voltage_mV, _26->pack_voltage_mV
 2120 0058 01A9     		add	r1, sp, #4	@ tmp164,,
 2121 005a FFF7FEFF 		bl	utoa	@
 2122              	.LVL284:
 420:src/console.c ****             Board_Print_BLOCKING("\n");
 2123              		.loc 1 420 0
 2124 005e 01A8     		add	r0, sp, #4	@ tmp165,,
 2125 0060 FFF7FEFF 		bl	Board_Println_BLOCKING	@
 2126              	.LVL285:
 421:src/console.c ****             lastPackVoltagePrintTime = msTicks;
 2127              		.loc 1 421 0
 2128 0064 1148     		ldr	r0, .L201+12	@,
 2129 0066 FFF7FEFF 		bl	Board_Print_BLOCKING	@
 2130              	.LVL286:
 422:src/console.c ****         }
 2131              		.loc 1 422 0
 2132 006a 2560     		str	r5, [r4]	@ msTicks, lastPackVoltagePrintTime
 2133              	.LBE119:
 2134              		.loc 1 425 0
 2135 006c E4E7     		b	.L188	@
 2136              	.LVL287:
 2137              	.L199:
 2138              	.LBB120:
 404:src/console.c ****             Board_Print_BLOCKING(tempstr);
 2139              		.loc 1 404 0
 2140 006e 0A22     		movs	r2, #10	@,
 2141 0070 01A9     		add	r1, sp, #4	@ tmp157,,
 2142              	.LVL288:
 2143 0072 2800     		movs	r0, r5	@, msTicks
 2144              	.LVL289:
 2145 0074 FFF7FEFF 		bl	utoa	@
 2146              	.LVL290:
 405:src/console.c ****             Board_Print_BLOCKING(",pcurr,");
 2147              		.loc 1 405 0
 2148 0078 01A8     		add	r0, sp, #4	@ tmp158,,
 2149 007a FFF7FEFF 		bl	Board_Print_BLOCKING	@
 2150              	.LVL291:
 406:src/console.c ****             utoa(csb_input->pack_status->pack_current_mA, tempstr, 10);
 2151              		.loc 1 406 0
 2152 007e 0C48     		ldr	r0, .L201+16	@,
 2153 0080 FFF7FEFF 		bl	Board_Print_BLOCKING	@
 2154              	.LVL292:
 407:src/console.c ****             Board_Println_BLOCKING(tempstr); // print pack current
 2155              		.loc 1 407 0
 2156 0084 3368     		ldr	r3, [r6]	@ csb_input_13(D)->pack_status, csb_input_13(D)->pack_status
 2157 0086 0A22     		movs	r2, #10	@,
 2158 0088 5868     		ldr	r0, [r3, #4]	@ _14->pack_current_mA, _14->pack_current_mA
 2159 008a 01A9     		add	r1, sp, #4	@ tmp159,,
ARM GAS  /var/folders/z0/6xlwn_996xz3mwq1cgzkbq4r0000gp/T//cc3rPjEN.s 			page 51


 2160 008c FFF7FEFF 		bl	utoa	@
 2161              	.LVL293:
 408:src/console.c ****             Board_Print_BLOCKING("\n");
 2162              		.loc 1 408 0
 2163 0090 01A8     		add	r0, sp, #4	@ tmp160,,
 2164 0092 FFF7FEFF 		bl	Board_Println_BLOCKING	@
 2165              	.LVL294:
 409:src/console.c ****             lastPackCurrentPrintTime = msTicks;
 2166              		.loc 1 409 0
 2167 0096 0548     		ldr	r0, .L201+12	@,
 2168 0098 FFF7FEFF 		bl	Board_Print_BLOCKING	@
 2169              	.LVL295:
 410:src/console.c ****         }
 2170              		.loc 1 410 0
 2171 009c 3D60     		str	r5, [r7]	@ msTicks, lastPackCurrentPrintTime
 2172 009e C1E7     		b	.L191	@
 2173              	.L202:
 2174              		.align	2
 2175              	.L201:
 2176 00a0 00000000 		.word	.LANCHOR10
 2177 00a4 00000000 		.word	.LANCHOR11
 2178 00a8 0C020000 		.word	.LC113
 2179 00ac 08020000 		.word	.LC110
 2180 00b0 00020000 		.word	.LC108
 2181              	.LBE120:
 2182              		.cfi_endproc
 2183              	.LFE208:
 2184              		.size	Output_Measurements, .-Output_Measurements
 2185              		.set	commands,helpstring
 2186              		.section	.bss.console_output,"aw",%nobits
 2187              		.align	2
 2188              		.set	.LANCHOR0,. + 0
 2189              		.type	console_output, %object
 2190              		.size	console_output, 4
 2191              	console_output:
 2192 0000 00000000 		.space	4
 2193              		.section	.rodata.locstring,"a",%progbits
 2194              		.align	2
 2195              		.set	.LANCHOR2,. + 0
 2196              		.type	locstring, %object
 2197              		.size	locstring, 68
 2198              	locstring:
 2199 0000 88000000 		.word	.LC24
 2200 0004 14020000 		.word	.LC115
 2201 0008 20020000 		.word	.LC116
 2202 000c 34020000 		.word	.LC117
 2203 0010 40020000 		.word	.LC118
 2204 0014 54020000 		.word	.LC119
 2205 0018 6C020000 		.word	.LC120
 2206 001c 80020000 		.word	.LC121
 2207 0020 94020000 		.word	.LC122
 2208 0024 A4020000 		.word	.LC123
 2209 0028 B8020000 		.word	.LC124
 2210 002c CC020000 		.word	.LC125
 2211 0030 94000000 		.word	.LC26
 2212 0034 80010000 		.word	.LC79
 2213 0038 94010000 		.word	.LC81
ARM GAS  /var/folders/z0/6xlwn_996xz3mwq1cgzkbq4r0000gp/T//cc3rPjEN.s 			page 52


 2214 003c A4010000 		.word	.LC83
 2215 0040 B4010000 		.word	.LC85
 2216              		.section	.rodata.CSB_SSM_MODE_NAMES,"a",%progbits
 2217              		.align	2
 2218              		.set	.LANCHOR3,. + 0
 2219              		.type	CSB_SSM_MODE_NAMES, %object
 2220              		.size	CSB_SSM_MODE_NAMES, 16
 2221              	CSB_SSM_MODE_NAMES:
 2222 0000 F0030000 		.word	.LC145
 2223 0004 04040000 		.word	.LC146
 2224 0008 1C040000 		.word	.LC147
 2225 000c 30040000 		.word	.LC148
 2226              		.section	.rodata.handlers,"a",%progbits
 2227              		.align	2
 2228              		.set	.LANCHOR8,. + 0
 2229              		.type	handlers, %object
 2230              		.size	handlers, 28
 2231              	handlers:
 2232 0000 00000000 		.word	get
 2233 0004 00000000 		.word	set
 2234 0008 00000000 		.word	help
 2235 000c 00000000 		.word	config_def
 2236 0010 00000000 		.word	bal
 2237 0014 00000000 		.word	chrg
 2238 0018 00000000 		.word	measure
 2239              		.section	.bss.lastPackCurrentPrintTime,"aw",%nobits
 2240              		.align	2
 2241              		.set	.LANCHOR10,. + 0
 2242              		.type	lastPackCurrentPrintTime, %object
 2243              		.size	lastPackCurrentPrintTime, 4
 2244              	lastPackCurrentPrintTime:
 2245 0000 00000000 		.space	4
 2246              		.section	.rodata.str1.4,"aMS",%progbits,1
 2247              		.align	2
 2248              	.LC0:
 2249 0000 6F6E00   		.ascii	"on\000"
 2250 0003 00       		.space	1
 2251              	.LC3:
 2252 0004 4D656173 		.ascii	"Measure On!\000"
 2252      75726520 
 2252      4F6E2100 
 2253              	.LC5:
 2254 0010 6F666600 		.ascii	"off\000"
 2255              	.LC7:
 2256 0014 4D656173 		.ascii	"Measure Off!\000"
 2256      75726520 
 2256      4F666621 
 2256      00
 2257 0021 000000   		.space	3
 2258              	.LC9:
 2259 0024 7072696E 		.ascii	"print_flags\000"
 2259      745F666C 
 2259      61677300 
 2260              	.LC11:
 2261 0030 5061636B 		.ascii	"Pack Current: On\000"
 2261      20437572 
 2261      72656E74 
ARM GAS  /var/folders/z0/6xlwn_996xz3mwq1cgzkbq4r0000gp/T//cc3rPjEN.s 			page 53


 2261      3A204F6E 
 2261      00
 2262 0041 000000   		.space	3
 2263              	.LC13:
 2264 0044 5061636B 		.ascii	"Pack Current: Off\000"
 2264      20437572 
 2264      72656E74 
 2264      3A204F66 
 2264      6600
 2265 0056 0000     		.space	2
 2266              	.LC15:
 2267 0058 7061636B 		.ascii	"packcurrent\000"
 2267      63757272 
 2267      656E7400 
 2268              	.LC17:
 2269 0064 7061636B 		.ascii	"packvoltage\000"
 2269      766F6C74 
 2269      61676500 
 2270              	.LC19:
 2271 0070 556E7265 		.ascii	"Unrecognized command!\000"
 2271      636F676E 
 2271      697A6564 
 2271      20636F6D 
 2271      6D616E64 
 2272 0086 0000     		.space	2
 2273              	.LC24:
 2274 0088 63656C6C 		.ascii	"cell_min_mV\000"
 2274      5F6D696E 
 2274      5F6D5600 
 2275              	.LC26:
 2276 0094 73746174 		.ascii	"state\000"
 2276      6500
 2277 009a 0000     		.space	2
 2278              	.LC29:
 2279 009c 53657420 		.ascii	"Set failed (not in standby mode)!\000"
 2279      6661696C 
 2279      65642028 
 2279      6E6F7420 
 2279      696E2073 
 2280 00be 0000     		.space	2
 2281              	.LC32:
 2282 00c0 446F6E65 		.ascii	"Done!\000"
 2282      2100
 2283 00c6 0000     		.space	2
 2284              	.LC34:
 2285 00c8 74686973 		.ascii	"this location is read only\000"
 2285      206C6F63 
 2285      6174696F 
 2285      6E206973 
 2285      20726561 
 2286 00e3 00       		.space	1
 2287              	.LC36:
 2288 00e4 696E7661 		.ascii	"invalid location\000"
 2288      6C696420 
 2288      6C6F6361 
 2288      74696F6E 
 2288      00
ARM GAS  /var/folders/z0/6xlwn_996xz3mwq1cgzkbq4r0000gp/T//cc3rPjEN.s 			page 54


 2289 00f5 000000   		.space	3
 2290              	.LC49:
 2291 00f8 696E7661 		.ascii	"invalid get location\000"
 2291      6C696420 
 2291      67657420 
 2291      6C6F6361 
 2291      74696F6E 
 2292 010d 000000   		.space	3
 2293              	.LC53:
 2294 0110 63687267 		.ascii	"chrg off\000"
 2294      206F6666 
 2294      00
 2295 0119 000000   		.space	3
 2296              	.LC55:
 2297 011c 63687267 		.ascii	"chrg on\000"
 2297      206F6E00 
 2298              	.LC57:
 2299 0124 4D757374 		.ascii	"Must be in standby\000"
 2299      20626520 
 2299      696E2073 
 2299      74616E64 
 2299      627900
 2300 0137 00       		.space	1
 2301              	.LC59:
 2302 0138 4D593138 		.ascii	"MY18\000"
 2302      00
 2303 013d 000000   		.space	3
 2304              	.LC61:
 2305 0140 4D593136 		.ascii	"MY16\000"
 2305      00
 2306 0145 000000   		.space	3
 2307              	.LC66:
 2308 0148 67657400 		.ascii	"get\000"
 2309              	.LC71:
 2310 014c 00       		.ascii	"\000"
 2311 014d 000000   		.space	3
 2312              	.LC73:
 2313 0150 2D2D2D2D 		.ascii	"------r/w entries------\000"
 2313      2D2D722F 
 2313      7720656E 
 2313      74726965 
 2313      732D2D2D 
 2314              	.LC76:
 2315 0168 2D2D2D2D 		.ascii	"------r/o entries------\000"
 2315      2D2D722F 
 2315      6F20656E 
 2315      74726965 
 2315      732D2D2D 
 2316              	.LC79:
 2317 0180 7061636B 		.ascii	"pack_cell_max_mV\000"
 2317      5F63656C 
 2317      6C5F6D61 
 2317      785F6D56 
 2317      00
 2318 0191 000000   		.space	3
 2319              	.LC81:
 2320 0194 7061636B 		.ascii	"pack_current_mA\000"
ARM GAS  /var/folders/z0/6xlwn_996xz3mwq1cgzkbq4r0000gp/T//cc3rPjEN.s 			page 55


 2320      5F637572 
 2320      72656E74 
 2320      5F6D4100 
 2321              	.LC83:
 2322 01a4 7061636B 		.ascii	"pack_voltage_mV\000"
 2322      5F766F6C 
 2322      74616765 
 2322      5F6D5600 
 2323              	.LC85:
 2324 01b4 6661756C 		.ascii	"fault\000"
 2324      7400
 2325 01ba 0000     		.space	2
 2326              	.LC91:
 2327 01bc 62616C20 		.ascii	"bal off\000"
 2327      6F666600 
 2328              	.LC93:
 2329 01c4 62616C20 		.ascii	"bal on\000"
 2329      6F6E00
 2330 01cb 00       		.space	1
 2331              	.LC102:
 2332 01cc 696E636F 		.ascii	"incorrect number of args\000"
 2332      72726563 
 2332      74206E75 
 2332      6D626572 
 2332      206F6620 
 2333 01e5 000000   		.space	3
 2334              	.LC105:
 2335 01e8 556E7265 		.ascii	"Unrecognized command\000"
 2335      636F676E 
 2335      697A6564 
 2335      20636F6D 
 2335      6D616E64 
 2336 01fd 000000   		.space	3
 2337              	.LC108:
 2338 0200 2C706375 		.ascii	",pcurr,\000"
 2338      72722C00 
 2339              	.LC110:
 2340 0208 0A00     		.ascii	"\012\000"
 2341 020a 0000     		.space	2
 2342              	.LC113:
 2343 020c 2C70766F 		.ascii	",pvolt,\000"
 2343      6C742C00 
 2344              	.LC115:
 2345 0214 63656C6C 		.ascii	"cell_max_mV\000"
 2345      5F6D6178 
 2345      5F6D5600 
 2346              	.LC116:
 2347 0220 63656C6C 		.ascii	"cell_capacity_cAh\000"
 2347      5F636170 
 2347      61636974 
 2347      795F6341 
 2347      6800
 2348 0232 0000     		.space	2
 2349              	.LC117:
 2350 0234 6E756D5F 		.ascii	"num_modules\000"
 2350      6D6F6475 
 2350      6C657300 
ARM GAS  /var/folders/z0/6xlwn_996xz3mwq1cgzkbq4r0000gp/T//cc3rPjEN.s 			page 56


 2351              	.LC118:
 2352 0240 6D6F6475 		.ascii	"module_cell_count\000"
 2352      6C655F63 
 2352      656C6C5F 
 2352      636F756E 
 2352      7400
 2353 0252 0000     		.space	2
 2354              	.LC119:
 2355 0254 63656C6C 		.ascii	"cell_charge_c_rating_cC\000"
 2355      5F636861 
 2355      7267655F 
 2355      635F7261 
 2355      74696E67 
 2356              	.LC120:
 2357 026c 62616C5F 		.ascii	"bal_on_thresh_mV\000"
 2357      6F6E5F74 
 2357      68726573 
 2357      685F6D56 
 2357      00
 2358 027d 000000   		.space	3
 2359              	.LC121:
 2360 0280 62616C5F 		.ascii	"bal_off_thresh_mV\000"
 2360      6F66665F 
 2360      74687265 
 2360      73685F6D 
 2360      5600
 2361 0292 0000     		.space	2
 2362              	.LC122:
 2363 0294 7061636B 		.ascii	"pack_cells_p\000"
 2363      5F63656C 
 2363      6C735F70 
 2363      00
 2364 02a1 000000   		.space	3
 2365              	.LC123:
 2366 02a4 63765F6D 		.ascii	"cv_min_current_mA\000"
 2366      696E5F63 
 2366      75727265 
 2366      6E745F6D 
 2366      4100
 2367 02b6 0000     		.space	2
 2368              	.LC124:
 2369 02b8 63765F6D 		.ascii	"cv_min_current_ms\000"
 2369      696E5F63 
 2369      75727265 
 2369      6E745F6D 
 2369      7300
 2370 02ca 0000     		.space	2
 2371              	.LC125:
 2372 02cc 63635F63 		.ascii	"cc_cell_voltage_mV\000"
 2372      656C6C5F 
 2372      766F6C74 
 2372      6167655F 
 2372      6D5600
 2373 02df 00       		.space	1
 2374              	.LC126:
 2375 02e0 73657400 		.ascii	"set\000"
 2376              	.LC127:
ARM GAS  /var/folders/z0/6xlwn_996xz3mwq1cgzkbq4r0000gp/T//cc3rPjEN.s 			page 57


 2377 02e4 68656C70 		.ascii	"help\000"
 2377      00
 2378 02e9 000000   		.space	3
 2379              	.LC128:
 2380 02ec 636F6E66 		.ascii	"config_def\000"
 2380      69675F64 
 2380      656600
 2381 02f7 00       		.space	1
 2382              	.LC129:
 2383 02f8 62616C00 		.ascii	"bal\000"
 2384              	.LC130:
 2385 02fc 63687267 		.ascii	"chrg\000"
 2385      00
 2386 0301 000000   		.space	3
 2387              	.LC131:
 2388 0304 6D656173 		.ascii	"measure\000"
 2388      75726500 
 2389              	.LC132:
 2390 030c 4353425F 		.ascii	"CSB_INIT_OFF\000"
 2390      494E4954 
 2390      5F4F4646 
 2390      00
 2391 0319 000000   		.space	3
 2392              	.LC133:
 2393 031c 4353425F 		.ascii	"CSB_INIT_SWITCH_500\000"
 2393      494E4954 
 2393      5F535749 
 2393      5443485F 
 2393      35303000 
 2394              	.LC134:
 2395 0330 4353425F 		.ascii	"CSB_INIT_SEND_500\000"
 2395      494E4954 
 2395      5F53454E 
 2395      445F3530 
 2395      3000
 2396 0342 0000     		.space	2
 2397              	.LC135:
 2398 0344 4353425F 		.ascii	"CSB_INIT_SWITCH_250\000"
 2398      494E4954 
 2398      5F535749 
 2398      5443485F 
 2398      32353000 
 2399              	.LC136:
 2400 0358 4353425F 		.ascii	"CSB_INIT_WAIT_250\000"
 2400      494E4954 
 2400      5F574149 
 2400      545F3235 
 2400      3000
 2401 036a 0000     		.space	2
 2402              	.LC137:
 2403 036c 4353425F 		.ascii	"CSB_INIT_DONE\000"
 2403      494E4954 
 2403      5F444F4E 
 2403      4500
 2404 037a 0000     		.space	2
 2405              	.LC138:
 2406 037c 4353425F 		.ascii	"CSB_CHARGE_OFF\000"
ARM GAS  /var/folders/z0/6xlwn_996xz3mwq1cgzkbq4r0000gp/T//cc3rPjEN.s 			page 58


 2406      43484152 
 2406      47455F4F 
 2406      464600
 2407 038b 00       		.space	1
 2408              	.LC139:
 2409 038c 4353425F 		.ascii	"CSB_CHARGE_INIT\000"
 2409      43484152 
 2409      47455F49 
 2409      4E495400 
 2410              	.LC140:
 2411 039c 4353425F 		.ascii	"CSB_CHARGE_CC\000"
 2411      43484152 
 2411      47455F43 
 2411      4300
 2412 03aa 0000     		.space	2
 2413              	.LC141:
 2414 03ac 4353425F 		.ascii	"CSB_CHARGE_CV\000"
 2414      43484152 
 2414      47455F43 
 2414      5600
 2415 03ba 0000     		.space	2
 2416              	.LC142:
 2417 03bc 4353425F 		.ascii	"CSB_CHARGE_BAL\000"
 2417      43484152 
 2417      47455F42 
 2417      414C00
 2418 03cb 00       		.space	1
 2419              	.LC143:
 2420 03cc 4353425F 		.ascii	"CSB_CHARGE_FAULT\000"
 2420      43484152 
 2420      47455F46 
 2420      41554C54 
 2420      00
 2421 03dd 000000   		.space	3
 2422              	.LC144:
 2423 03e0 4353425F 		.ascii	"CSB_CHARGE_DONE\000"
 2423      43484152 
 2423      47455F44 
 2423      4F4E4500 
 2424              	.LC145:
 2425 03f0 4353425F 		.ascii	"CSB_SSM_MODE_INIT\000"
 2425      53534D5F 
 2425      4D4F4445 
 2425      5F494E49 
 2425      5400
 2426 0402 0000     		.space	2
 2427              	.LC146:
 2428 0404 4353425F 		.ascii	"CSB_SSM_MODE_STANDBY\000"
 2428      53534D5F 
 2428      4D4F4445 
 2428      5F535441 
 2428      4E444259 
 2429 0419 000000   		.space	3
 2430              	.LC147:
 2431 041c 4353425F 		.ascii	"CSB_SSM_MODE_CHARGE\000"
 2431      53534D5F 
 2431      4D4F4445 
ARM GAS  /var/folders/z0/6xlwn_996xz3mwq1cgzkbq4r0000gp/T//cc3rPjEN.s 			page 59


 2431      5F434841 
 2431      52474500 
 2432              	.LC148:
 2433 0430 4353425F 		.ascii	"CSB_SSM_MODE_BALANCE\000"
 2433      53534D5F 
 2433      4D4F4445 
 2433      5F42414C 
 2433      414E4345 
 2434              		.section	.bss.lastPackVoltagePrintTime,"aw",%nobits
 2435              		.align	2
 2436              		.set	.LANCHOR11,. + 0
 2437              		.type	lastPackVoltagePrintTime, %object
 2438              		.size	lastPackVoltagePrintTime, 4
 2439              	lastPackVoltagePrintTime:
 2440 0000 00000000 		.space	4
 2441              		.section	.bss.csb_input,"aw",%nobits
 2442              		.align	2
 2443              		.set	.LANCHOR6,. + 0
 2444              		.type	csb_input, %object
 2445              		.size	csb_input, 4
 2446              	csb_input:
 2447 0000 00000000 		.space	4
 2448              		.section	.rodata.helpstring,"a",%progbits
 2449              		.align	2
 2450              		.set	.LANCHOR7,. + 0
 2451              		.type	helpstring, %object
 2452              		.size	helpstring, 28
 2453              	helpstring:
 2454 0000 48010000 		.word	.LC66
 2455 0004 E0020000 		.word	.LC126
 2456 0008 E4020000 		.word	.LC127
 2457 000c EC020000 		.word	.LC128
 2458 0010 F8020000 		.word	.LC129
 2459 0014 FC020000 		.word	.LC130
 2460 0018 04030000 		.word	.LC131
 2461              		.section	.rodata.nargs,"a",%progbits
 2462              		.align	2
 2463              		.set	.LANCHOR9,. + 0
 2464              		.type	nargs, %object
 2465              		.size	nargs, 7
 2466              	nargs:
 2467 0000 01       		.byte	1
 2468 0001 02       		.byte	2
 2469 0002 01       		.byte	1
 2470 0003 01       		.byte	1
 2471 0004 01       		.byte	1
 2472 0005 00       		.byte	0
 2473 0006 01       		.byte	1
 2474              		.section	.rodata.CSB_INIT_MODE_NAMES,"a",%progbits
 2475              		.align	2
 2476              		.set	.LANCHOR4,. + 0
 2477              		.type	CSB_INIT_MODE_NAMES, %object
 2478              		.size	CSB_INIT_MODE_NAMES, 24
 2479              	CSB_INIT_MODE_NAMES:
 2480 0000 0C030000 		.word	.LC132
 2481 0004 1C030000 		.word	.LC133
 2482 0008 30030000 		.word	.LC134
ARM GAS  /var/folders/z0/6xlwn_996xz3mwq1cgzkbq4r0000gp/T//cc3rPjEN.s 			page 60


 2483 000c 44030000 		.word	.LC135
 2484 0010 58030000 		.word	.LC136
 2485 0014 6C030000 		.word	.LC137
 2486              		.section	.bss.csb_state,"aw",%nobits
 2487              		.align	2
 2488              		.set	.LANCHOR1,. + 0
 2489              		.type	csb_state, %object
 2490              		.size	csb_state, 4
 2491              	csb_state:
 2492 0000 00000000 		.space	4
 2493              		.section	.rodata.CSB_CHARGE_MODE_NAMES,"a",%progbits
 2494              		.align	2
 2495              		.set	.LANCHOR5,. + 0
 2496              		.type	CSB_CHARGE_MODE_NAMES, %object
 2497              		.size	CSB_CHARGE_MODE_NAMES, 28
 2498              	CSB_CHARGE_MODE_NAMES:
 2499 0000 7C030000 		.word	.LC138
 2500 0004 8C030000 		.word	.LC139
 2501 0008 9C030000 		.word	.LC140
 2502 000c AC030000 		.word	.LC141
 2503 0010 BC030000 		.word	.LC142
 2504 0014 CC030000 		.word	.LC143
 2505 0018 E0030000 		.word	.LC144
 2506              		.text
 2507              	.Letext0:
 2508              		.file 2 "/usr/local/Cellar/gcc-arm-none-eabi/20160928/arm-none-eabi/include/machine/_default_types
 2509              		.file 3 "/usr/local/Cellar/gcc-arm-none-eabi/20160928/arm-none-eabi/include/sys/_stdint.h"
 2510              		.file 4 "inc/structs.h"
 2511              		.file 5 "inc/console_types.h"
 2512              		.file 6 "inc/console.h"
 2513              		.file 7 "/usr/local/Cellar/gcc-arm-none-eabi/20160928/arm-none-eabi/include/string.h"
 2514              		.file 8 "inc/board.h"
 2515              		.file 9 "/usr/local/Cellar/gcc-arm-none-eabi/20160928/arm-none-eabi/include/stdlib.h"
 2516              		.file 10 "inc/pack_config.h"
 2517              		.file 11 "../../lib/lpc11cx4-library/lpc_chip_11cxx_lib/inc/chip.h"
 2518              		.section	.debug_info,"",%progbits
 2519              	.Ldebug_info0:
 2520 0000 80150000 		.4byte	0x1580
 2521 0004 0400     		.2byte	0x4
 2522 0006 00000000 		.4byte	.Ldebug_abbrev0
 2523 000a 04       		.byte	0x4
 2524 000b 01       		.uleb128 0x1
 2525 000c 57260000 		.4byte	.LASF1647
 2526 0010 01       		.byte	0x1
 2527 0011 4D880000 		.4byte	.LASF1648
 2528 0015 991F0000 		.4byte	.LASF1649
 2529 0019 C0010000 		.4byte	.Ldebug_ranges0+0x1c0
 2530 001d 00000000 		.4byte	0
 2531 0021 00000000 		.4byte	.Ldebug_line0
 2532 0025 00000000 		.4byte	.Ldebug_macro0
 2533 0029 02       		.uleb128 0x2
 2534 002a 04       		.byte	0x4
 2535 002b 05       		.byte	0x5
 2536 002c 696E7400 		.ascii	"int\000"
 2537 0030 03       		.uleb128 0x3
 2538 0031 04       		.byte	0x4
 2539 0032 07       		.byte	0x7
ARM GAS  /var/folders/z0/6xlwn_996xz3mwq1cgzkbq4r0000gp/T//cc3rPjEN.s 			page 61


 2540 0033 47AB0000 		.4byte	.LASF1472
 2541 0037 03       		.uleb128 0x3
 2542 0038 01       		.byte	0x1
 2543 0039 06       		.byte	0x6
 2544 003a 44610000 		.4byte	.LASF1473
 2545 003e 03       		.uleb128 0x3
 2546 003f 01       		.byte	0x1
 2547 0040 08       		.byte	0x8
 2548 0041 992B0000 		.4byte	.LASF1474
 2549 0045 03       		.uleb128 0x3
 2550 0046 02       		.byte	0x2
 2551 0047 05       		.byte	0x5
 2552 0048 1CAD0000 		.4byte	.LASF1475
 2553 004c 04       		.uleb128 0x4
 2554 004d F2250000 		.4byte	.LASF1477
 2555 0051 02       		.byte	0x2
 2556 0052 2B       		.byte	0x2b
 2557 0053 57000000 		.4byte	0x57
 2558 0057 03       		.uleb128 0x3
 2559 0058 02       		.byte	0x2
 2560 0059 07       		.byte	0x7
 2561 005a 04610000 		.4byte	.LASF1476
 2562 005e 04       		.uleb128 0x4
 2563 005f 0A8C0000 		.4byte	.LASF1478
 2564 0063 02       		.byte	0x2
 2565 0064 3F       		.byte	0x3f
 2566 0065 69000000 		.4byte	0x69
 2567 0069 03       		.uleb128 0x3
 2568 006a 04       		.byte	0x4
 2569 006b 05       		.byte	0x5
 2570 006c 436D0000 		.4byte	.LASF1479
 2571 0070 04       		.uleb128 0x4
 2572 0071 062D0000 		.4byte	.LASF1480
 2573 0075 02       		.byte	0x2
 2574 0076 41       		.byte	0x41
 2575 0077 7B000000 		.4byte	0x7b
 2576 007b 03       		.uleb128 0x3
 2577 007c 04       		.byte	0x4
 2578 007d 07       		.byte	0x7
 2579 007e 1C760000 		.4byte	.LASF1481
 2580 0082 03       		.uleb128 0x3
 2581 0083 08       		.byte	0x8
 2582 0084 05       		.byte	0x5
 2583 0085 85A00000 		.4byte	.LASF1482
 2584 0089 03       		.uleb128 0x3
 2585 008a 08       		.byte	0x8
 2586 008b 07       		.byte	0x7
 2587 008c D4950000 		.4byte	.LASF1483
 2588 0090 03       		.uleb128 0x3
 2589 0091 04       		.byte	0x4
 2590 0092 07       		.byte	0x7
 2591 0093 AD5F0000 		.4byte	.LASF1484
 2592 0097 03       		.uleb128 0x3
 2593 0098 01       		.byte	0x1
 2594 0099 08       		.byte	0x8
 2595 009a 98790000 		.4byte	.LASF714
 2596 009e 05       		.uleb128 0x5
ARM GAS  /var/folders/z0/6xlwn_996xz3mwq1cgzkbq4r0000gp/T//cc3rPjEN.s 			page 62


 2597 009f 04       		.byte	0x4
 2598 00a0 A4000000 		.4byte	0xa4
 2599 00a4 06       		.uleb128 0x6
 2600 00a5 97000000 		.4byte	0x97
 2601 00a9 04       		.uleb128 0x4
 2602 00aa 550B0000 		.4byte	.LASF1485
 2603 00ae 03       		.byte	0x3
 2604 00af 24       		.byte	0x24
 2605 00b0 4C000000 		.4byte	0x4c
 2606 00b4 04       		.uleb128 0x4
 2607 00b5 B7140000 		.4byte	.LASF1486
 2608 00b9 03       		.byte	0x3
 2609 00ba 2C       		.byte	0x2c
 2610 00bb 5E000000 		.4byte	0x5e
 2611 00bf 04       		.uleb128 0x4
 2612 00c0 DA710000 		.4byte	.LASF1487
 2613 00c4 03       		.byte	0x3
 2614 00c5 30       		.byte	0x30
 2615 00c6 70000000 		.4byte	0x70
 2616 00ca 05       		.uleb128 0x5
 2617 00cb 04       		.byte	0x4
 2618 00cc D0000000 		.4byte	0xd0
 2619 00d0 06       		.uleb128 0x6
 2620 00d1 9E000000 		.4byte	0x9e
 2621 00d5 07       		.uleb128 0x7
 2622 00d6 B8290000 		.4byte	.LASF1492
 2623 00da 0C       		.byte	0xc
 2624 00db 04       		.byte	0x4
 2625 00dc 09       		.byte	0x9
 2626 00dd 06010000 		.4byte	0x106
 2627 00e1 08       		.uleb128 0x8
 2628 00e2 044A0000 		.4byte	.LASF1488
 2629 00e6 04       		.byte	0x4
 2630 00e7 0A       		.byte	0xa
 2631 00e8 BF000000 		.4byte	0xbf
 2632 00ec 00       		.byte	0
 2633 00ed 08       		.uleb128 0x8
 2634 00ee 274B0000 		.4byte	.LASF1489
 2635 00f2 04       		.byte	0x4
 2636 00f3 0B       		.byte	0xb
 2637 00f4 BF000000 		.4byte	0xbf
 2638 00f8 04       		.byte	0x4
 2639 00f9 08       		.uleb128 0x8
 2640 00fa 486F0000 		.4byte	.LASF1490
 2641 00fe 04       		.byte	0x4
 2642 00ff 0C       		.byte	0xc
 2643 0100 BF000000 		.4byte	0xbf
 2644 0104 08       		.byte	0x8
 2645 0105 00       		.byte	0
 2646 0106 04       		.uleb128 0x4
 2647 0107 97350000 		.4byte	.LASF1491
 2648 010b 04       		.byte	0x4
 2649 010c 0D       		.byte	0xd
 2650 010d D5000000 		.4byte	0xd5
 2651 0111 07       		.uleb128 0x7
 2652 0112 E8540000 		.4byte	.LASF1493
 2653 0116 30       		.byte	0x30
ARM GAS  /var/folders/z0/6xlwn_996xz3mwq1cgzkbq4r0000gp/T//cc3rPjEN.s 			page 63


 2654 0117 04       		.byte	0x4
 2655 0118 0F       		.byte	0xf
 2656 0119 AE010000 		.4byte	0x1ae
 2657 011d 08       		.uleb128 0x8
 2658 011e 7BA40000 		.4byte	.LASF1494
 2659 0122 04       		.byte	0x4
 2660 0123 10       		.byte	0x10
 2661 0124 BF000000 		.4byte	0xbf
 2662 0128 00       		.byte	0
 2663 0129 08       		.uleb128 0x8
 2664 012a 0E2C0000 		.4byte	.LASF1495
 2665 012e 04       		.byte	0x4
 2666 012f 11       		.byte	0x11
 2667 0130 BF000000 		.4byte	0xbf
 2668 0134 04       		.byte	0x4
 2669 0135 08       		.uleb128 0x8
 2670 0136 901B0000 		.4byte	.LASF1496
 2671 013a 04       		.byte	0x4
 2672 013b 12       		.byte	0x12
 2673 013c BF000000 		.4byte	0xbf
 2674 0140 08       		.byte	0x8
 2675 0141 08       		.uleb128 0x8
 2676 0142 2E1A0000 		.4byte	.LASF1497
 2677 0146 04       		.byte	0x4
 2678 0147 13       		.byte	0x13
 2679 0148 BF000000 		.4byte	0xbf
 2680 014c 0C       		.byte	0xc
 2681 014d 08       		.uleb128 0x8
 2682 014e 638A0000 		.4byte	.LASF1498
 2683 0152 04       		.byte	0x4
 2684 0153 14       		.byte	0x14
 2685 0154 BF000000 		.4byte	0xbf
 2686 0158 10       		.byte	0x10
 2687 0159 08       		.uleb128 0x8
 2688 015a 391F0000 		.4byte	.LASF1499
 2689 015e 04       		.byte	0x4
 2690 015f 15       		.byte	0x15
 2691 0160 BF000000 		.4byte	0xbf
 2692 0164 14       		.byte	0x14
 2693 0165 08       		.uleb128 0x8
 2694 0166 6C2D0000 		.4byte	.LASF1500
 2695 016a 04       		.byte	0x4
 2696 016b 16       		.byte	0x16
 2697 016c BF000000 		.4byte	0xbf
 2698 0170 18       		.byte	0x18
 2699 0171 08       		.uleb128 0x8
 2700 0172 755E0000 		.4byte	.LASF1501
 2701 0176 04       		.byte	0x4
 2702 0177 17       		.byte	0x17
 2703 0178 BF000000 		.4byte	0xbf
 2704 017c 1C       		.byte	0x1c
 2705 017d 08       		.uleb128 0x8
 2706 017e D40F0000 		.4byte	.LASF1502
 2707 0182 04       		.byte	0x4
 2708 0183 18       		.byte	0x18
 2709 0184 BF000000 		.4byte	0xbf
 2710 0188 20       		.byte	0x20
ARM GAS  /var/folders/z0/6xlwn_996xz3mwq1cgzkbq4r0000gp/T//cc3rPjEN.s 			page 64


 2711 0189 08       		.uleb128 0x8
 2712 018a 85120000 		.4byte	.LASF1503
 2713 018e 04       		.byte	0x4
 2714 018f 19       		.byte	0x19
 2715 0190 BF000000 		.4byte	0xbf
 2716 0194 24       		.byte	0x24
 2717 0195 08       		.uleb128 0x8
 2718 0196 5C4F0000 		.4byte	.LASF1504
 2719 019a 04       		.byte	0x4
 2720 019b 1A       		.byte	0x1a
 2721 019c BF000000 		.4byte	0xbf
 2722 01a0 28       		.byte	0x28
 2723 01a1 08       		.uleb128 0x8
 2724 01a2 B64C0000 		.4byte	.LASF1505
 2725 01a6 04       		.byte	0x4
 2726 01a7 1B       		.byte	0x1b
 2727 01a8 BF000000 		.4byte	0xbf
 2728 01ac 2C       		.byte	0x2c
 2729 01ad 00       		.byte	0
 2730 01ae 04       		.uleb128 0x4
 2731 01af 8F7E0000 		.4byte	.LASF1506
 2732 01b3 04       		.byte	0x4
 2733 01b4 1D       		.byte	0x1d
 2734 01b5 11010000 		.4byte	0x111
 2735 01b9 09       		.uleb128 0x9
 2736 01ba BE3B0000 		.4byte	.LASF1650
 2737 01be 01       		.byte	0x1
 2738 01bf 3E000000 		.4byte	0x3e
 2739 01c3 04       		.byte	0x4
 2740 01c4 1F       		.byte	0x1f
 2741 01c5 E2010000 		.4byte	0x1e2
 2742 01c9 0A       		.uleb128 0xa
 2743 01ca 97530000 		.4byte	.LASF1507
 2744 01ce 00       		.byte	0
 2745 01cf 0A       		.uleb128 0xa
 2746 01d0 A6610000 		.4byte	.LASF1508
 2747 01d4 01       		.byte	0x1
 2748 01d5 0A       		.uleb128 0xa
 2749 01d6 EE680000 		.4byte	.LASF1509
 2750 01da 02       		.byte	0x2
 2751 01db 0A       		.uleb128 0xa
 2752 01dc BA240000 		.4byte	.LASF1510
 2753 01e0 03       		.byte	0x3
 2754 01e1 00       		.byte	0
 2755 01e2 04       		.uleb128 0x4
 2756 01e3 815F0000 		.4byte	.LASF1511
 2757 01e7 04       		.byte	0x4
 2758 01e8 24       		.byte	0x24
 2759 01e9 B9010000 		.4byte	0x1b9
 2760 01ed 0B       		.uleb128 0xb
 2761 01ee 01       		.byte	0x1
 2762 01ef 3E000000 		.4byte	0x3e
 2763 01f3 04       		.byte	0x4
 2764 01f4 2D       		.byte	0x2d
 2765 01f5 24020000 		.4byte	0x224
 2766 01f9 0A       		.uleb128 0xa
 2767 01fa 8F8E0000 		.4byte	.LASF1512
ARM GAS  /var/folders/z0/6xlwn_996xz3mwq1cgzkbq4r0000gp/T//cc3rPjEN.s 			page 65


 2768 01fe 00       		.byte	0
 2769 01ff 0A       		.uleb128 0xa
 2770 0200 18A50000 		.4byte	.LASF1513
 2771 0204 01       		.byte	0x1
 2772 0205 0A       		.uleb128 0xa
 2773 0206 D94D0000 		.4byte	.LASF1514
 2774 020a 02       		.byte	0x2
 2775 020b 0A       		.uleb128 0xa
 2776 020c 554E0000 		.4byte	.LASF1515
 2777 0210 03       		.byte	0x3
 2778 0211 0A       		.uleb128 0xa
 2779 0212 33520000 		.4byte	.LASF1516
 2780 0216 04       		.byte	0x4
 2781 0217 0A       		.uleb128 0xa
 2782 0218 65530000 		.4byte	.LASF1517
 2783 021c 05       		.byte	0x5
 2784 021d 0A       		.uleb128 0xa
 2785 021e FB7B0000 		.4byte	.LASF1518
 2786 0222 06       		.byte	0x6
 2787 0223 00       		.byte	0
 2788 0224 04       		.uleb128 0x4
 2789 0225 43960000 		.4byte	.LASF1519
 2790 0229 04       		.byte	0x4
 2791 022a 35       		.byte	0x35
 2792 022b ED010000 		.4byte	0x1ed
 2793 022f 0B       		.uleb128 0xb
 2794 0230 01       		.byte	0x1
 2795 0231 3E000000 		.4byte	0x3e
 2796 0235 04       		.byte	0x4
 2797 0236 41       		.byte	0x41
 2798 0237 60020000 		.4byte	0x260
 2799 023b 0A       		.uleb128 0xa
 2800 023c 9F0A0000 		.4byte	.LASF1520
 2801 0240 00       		.byte	0
 2802 0241 0A       		.uleb128 0xa
 2803 0242 52180000 		.4byte	.LASF1521
 2804 0246 01       		.byte	0x1
 2805 0247 0A       		.uleb128 0xa
 2806 0248 E55A0000 		.4byte	.LASF1522
 2807 024c 02       		.byte	0x2
 2808 024d 0A       		.uleb128 0xa
 2809 024e 1AA40000 		.4byte	.LASF1523
 2810 0252 03       		.byte	0x3
 2811 0253 0A       		.uleb128 0xa
 2812 0254 031F0000 		.4byte	.LASF1524
 2813 0258 04       		.byte	0x4
 2814 0259 0A       		.uleb128 0xa
 2815 025a 688F0000 		.4byte	.LASF1525
 2816 025e 05       		.byte	0x5
 2817 025f 00       		.byte	0
 2818 0260 04       		.uleb128 0x4
 2819 0261 B9AC0000 		.4byte	.LASF1526
 2820 0265 04       		.byte	0x4
 2821 0266 48       		.byte	0x48
 2822 0267 2F020000 		.4byte	0x22f
 2823 026b 0B       		.uleb128 0xb
 2824 026c 01       		.byte	0x1
ARM GAS  /var/folders/z0/6xlwn_996xz3mwq1cgzkbq4r0000gp/T//cc3rPjEN.s 			page 66


 2825 026d 3E000000 		.4byte	0x3e
 2826 0271 04       		.byte	0x4
 2827 0272 53       		.byte	0x53
 2828 0273 84020000 		.4byte	0x284
 2829 0277 0A       		.uleb128 0xa
 2830 0278 11210000 		.4byte	.LASF1527
 2831 027c 00       		.byte	0
 2832 027d 0A       		.uleb128 0xa
 2833 027e 83250000 		.4byte	.LASF1528
 2834 0282 01       		.byte	0x1
 2835 0283 00       		.byte	0
 2836 0284 04       		.uleb128 0x4
 2837 0285 5A490000 		.4byte	.LASF1529
 2838 0289 04       		.byte	0x4
 2839 028a 56       		.byte	0x56
 2840 028b 6B020000 		.4byte	0x26b
 2841 028f 03       		.uleb128 0x3
 2842 0290 01       		.byte	0x1
 2843 0291 02       		.byte	0x2
 2844 0292 16060000 		.4byte	.LASF1530
 2845 0296 07       		.uleb128 0x7
 2846 0297 127D0000 		.4byte	.LASF1531
 2847 029b 24       		.byte	0x24
 2848 029c 04       		.byte	0x4
 2849 029d 65       		.byte	0x65
 2850 029e 87030000 		.4byte	0x387
 2851 02a2 08       		.uleb128 0x8
 2852 02a3 B88B0000 		.4byte	.LASF1532
 2853 02a7 04       		.byte	0x4
 2854 02a8 66       		.byte	0x66
 2855 02a9 87030000 		.4byte	0x387
 2856 02ad 00       		.byte	0
 2857 02ae 08       		.uleb128 0x8
 2858 02af BA2B0000 		.4byte	.LASF1533
 2859 02b3 04       		.byte	0x4
 2860 02b4 67       		.byte	0x67
 2861 02b5 E2010000 		.4byte	0x1e2
 2862 02b9 04       		.byte	0x4
 2863 02ba 08       		.uleb128 0x8
 2864 02bb 3CA30000 		.4byte	.LASF1534
 2865 02bf 04       		.byte	0x4
 2866 02c0 68       		.byte	0x68
 2867 02c1 BF000000 		.4byte	0xbf
 2868 02c5 08       		.byte	0x8
 2869 02c6 08       		.uleb128 0x8
 2870 02c7 DB810000 		.4byte	.LASF1535
 2871 02cb 04       		.byte	0x4
 2872 02cc 69       		.byte	0x69
 2873 02cd BF000000 		.4byte	0xbf
 2874 02d1 0C       		.byte	0xc
 2875 02d2 08       		.uleb128 0x8
 2876 02d3 8D9C0000 		.4byte	.LASF1536
 2877 02d7 04       		.byte	0x4
 2878 02d8 6A       		.byte	0x6a
 2879 02d9 A9000000 		.4byte	0xa9
 2880 02dd 10       		.byte	0x10
 2881 02de 08       		.uleb128 0x8
ARM GAS  /var/folders/z0/6xlwn_996xz3mwq1cgzkbq4r0000gp/T//cc3rPjEN.s 			page 67


 2882 02df 276B0000 		.4byte	.LASF1537
 2883 02e3 04       		.byte	0x4
 2884 02e4 6B       		.byte	0x6b
 2885 02e5 A9000000 		.4byte	0xa9
 2886 02e9 12       		.byte	0x12
 2887 02ea 08       		.uleb128 0x8
 2888 02eb 78570000 		.4byte	.LASF1538
 2889 02ef 04       		.byte	0x4
 2890 02f0 6C       		.byte	0x6c
 2891 02f1 8F020000 		.4byte	0x28f
 2892 02f5 14       		.byte	0x14
 2893 02f6 08       		.uleb128 0x8
 2894 02f7 B7010000 		.4byte	.LASF1539
 2895 02fb 04       		.byte	0x4
 2896 02fc 6D       		.byte	0x6d
 2897 02fd 8F020000 		.4byte	0x28f
 2898 0301 15       		.byte	0x15
 2899 0302 08       		.uleb128 0x8
 2900 0303 00000000 		.4byte	.LASF1540
 2901 0307 04       		.byte	0x4
 2902 0308 6E       		.byte	0x6e
 2903 0309 8F020000 		.4byte	0x28f
 2904 030d 16       		.byte	0x16
 2905 030e 08       		.uleb128 0x8
 2906 030f EF240000 		.4byte	.LASF1541
 2907 0313 04       		.byte	0x4
 2908 0314 6F       		.byte	0x6f
 2909 0315 8F020000 		.4byte	0x28f
 2910 0319 17       		.byte	0x17
 2911 031a 08       		.uleb128 0x8
 2912 031b E29F0000 		.4byte	.LASF1542
 2913 031f 04       		.byte	0x4
 2914 0320 70       		.byte	0x70
 2915 0321 8F020000 		.4byte	0x28f
 2916 0325 18       		.byte	0x18
 2917 0326 08       		.uleb128 0x8
 2918 0327 3E420000 		.4byte	.LASF1543
 2919 032b 04       		.byte	0x4
 2920 032c 71       		.byte	0x71
 2921 032d 8F020000 		.4byte	0x28f
 2922 0331 19       		.byte	0x19
 2923 0332 08       		.uleb128 0x8
 2924 0333 E1890000 		.4byte	.LASF1544
 2925 0337 04       		.byte	0x4
 2926 0338 72       		.byte	0x72
 2927 0339 8F020000 		.4byte	0x28f
 2928 033d 1A       		.byte	0x1a
 2929 033e 08       		.uleb128 0x8
 2930 033f F99B0000 		.4byte	.LASF1545
 2931 0343 04       		.byte	0x4
 2932 0344 73       		.byte	0x73
 2933 0345 8F020000 		.4byte	0x28f
 2934 0349 1B       		.byte	0x1b
 2935 034a 08       		.uleb128 0x8
 2936 034b 37740000 		.4byte	.LASF1546
 2937 034f 04       		.byte	0x4
 2938 0350 74       		.byte	0x74
ARM GAS  /var/folders/z0/6xlwn_996xz3mwq1cgzkbq4r0000gp/T//cc3rPjEN.s 			page 68


 2939 0351 8F020000 		.4byte	0x28f
 2940 0355 1C       		.byte	0x1c
 2941 0356 08       		.uleb128 0x8
 2942 0357 29530000 		.4byte	.LASF1547
 2943 035b 04       		.byte	0x4
 2944 035c 75       		.byte	0x75
 2945 035d 8F020000 		.4byte	0x28f
 2946 0361 1D       		.byte	0x1d
 2947 0362 08       		.uleb128 0x8
 2948 0363 603B0000 		.4byte	.LASF1548
 2949 0367 04       		.byte	0x4
 2950 0368 76       		.byte	0x76
 2951 0369 8F020000 		.4byte	0x28f
 2952 036d 1E       		.byte	0x1e
 2953 036e 08       		.uleb128 0x8
 2954 036f FF440000 		.4byte	.LASF1549
 2955 0373 04       		.byte	0x4
 2956 0374 77       		.byte	0x77
 2957 0375 8F020000 		.4byte	0x28f
 2958 0379 1F       		.byte	0x1f
 2959 037a 08       		.uleb128 0x8
 2960 037b 40030000 		.4byte	.LASF1550
 2961 037f 04       		.byte	0x4
 2962 0380 78       		.byte	0x78
 2963 0381 8F020000 		.4byte	0x28f
 2964 0385 20       		.byte	0x20
 2965 0386 00       		.byte	0
 2966 0387 05       		.uleb128 0x5
 2967 0388 04       		.byte	0x4
 2968 0389 06010000 		.4byte	0x106
 2969 038d 04       		.uleb128 0x4
 2970 038e 2DAC0000 		.4byte	.LASF1551
 2971 0392 04       		.byte	0x4
 2972 0393 79       		.byte	0x79
 2973 0394 96020000 		.4byte	0x296
 2974 0398 07       		.uleb128 0x7
 2975 0399 C82D0000 		.4byte	.LASF1552
 2976 039d 14       		.byte	0x14
 2977 039e 04       		.byte	0x4
 2978 039f 7B       		.byte	0x7b
 2979 03a0 05040000 		.4byte	0x405
 2980 03a4 08       		.uleb128 0x8
 2981 03a5 26AD0000 		.4byte	.LASF1553
 2982 03a9 04       		.byte	0x4
 2983 03aa 7C       		.byte	0x7c
 2984 03ab 05040000 		.4byte	0x405
 2985 03af 00       		.byte	0
 2986 03b0 08       		.uleb128 0x8
 2987 03b1 3B310000 		.4byte	.LASF1554
 2988 03b5 04       		.byte	0x4
 2989 03b6 7D       		.byte	0x7d
 2990 03b7 E2010000 		.4byte	0x1e2
 2991 03bb 04       		.byte	0x4
 2992 03bc 08       		.uleb128 0x8
 2993 03bd FC270000 		.4byte	.LASF1555
 2994 03c1 04       		.byte	0x4
 2995 03c2 80       		.byte	0x80
ARM GAS  /var/folders/z0/6xlwn_996xz3mwq1cgzkbq4r0000gp/T//cc3rPjEN.s 			page 69


 2996 03c3 60020000 		.4byte	0x260
 2997 03c7 05       		.byte	0x5
 2998 03c8 08       		.uleb128 0x8
 2999 03c9 73330000 		.4byte	.LASF1556
 3000 03cd 04       		.byte	0x4
 3001 03ce 81       		.byte	0x81
 3002 03cf 24020000 		.4byte	0x224
 3003 03d3 06       		.byte	0x6
 3004 03d4 08       		.uleb128 0x8
 3005 03d5 C56F0000 		.4byte	.LASF1557
 3006 03d9 04       		.byte	0x4
 3007 03da 82       		.byte	0x82
 3008 03db 84020000 		.4byte	0x284
 3009 03df 07       		.byte	0x7
 3010 03e0 08       		.uleb128 0x8
 3011 03e1 C4800000 		.4byte	.LASF1558
 3012 03e5 04       		.byte	0x4
 3013 03e6 84       		.byte	0x84
 3014 03e7 BF000000 		.4byte	0xbf
 3015 03eb 08       		.byte	0x8
 3016 03ec 08       		.uleb128 0x8
 3017 03ed 5D170000 		.4byte	.LASF1559
 3018 03f1 04       		.byte	0x4
 3019 03f2 85       		.byte	0x85
 3020 03f3 0B040000 		.4byte	0x40b
 3021 03f7 0C       		.byte	0xc
 3022 03f8 08       		.uleb128 0x8
 3023 03f9 D06F0000 		.4byte	.LASF1560
 3024 03fd 04       		.byte	0x4
 3025 03fe 86       		.byte	0x86
 3026 03ff 11040000 		.4byte	0x411
 3027 0403 10       		.byte	0x10
 3028 0404 00       		.byte	0
 3029 0405 05       		.uleb128 0x5
 3030 0406 04       		.byte	0x4
 3031 0407 AE010000 		.4byte	0x1ae
 3032 040b 05       		.uleb128 0x5
 3033 040c 04       		.byte	0x4
 3034 040d BF000000 		.4byte	0xbf
 3035 0411 05       		.uleb128 0x5
 3036 0412 04       		.byte	0x4
 3037 0413 8F020000 		.4byte	0x28f
 3038 0417 04       		.uleb128 0x4
 3039 0418 8A940000 		.4byte	.LASF1561
 3040 041c 04       		.byte	0x4
 3041 041d 87       		.byte	0x87
 3042 041e 98030000 		.4byte	0x398
 3043 0422 0B       		.uleb128 0xb
 3044 0423 01       		.byte	0x1
 3045 0424 3E000000 		.4byte	0x3e
 3046 0428 05       		.byte	0x5
 3047 0429 04       		.byte	0x4
 3048 042a 5F040000 		.4byte	0x45f
 3049 042e 0A       		.uleb128 0xa
 3050 042f FB790000 		.4byte	.LASF1562
 3051 0433 00       		.byte	0
 3052 0434 0A       		.uleb128 0xa
ARM GAS  /var/folders/z0/6xlwn_996xz3mwq1cgzkbq4r0000gp/T//cc3rPjEN.s 			page 70


 3053 0435 68960000 		.4byte	.LASF1563
 3054 0439 01       		.byte	0x1
 3055 043a 0A       		.uleb128 0xa
 3056 043b 93850000 		.4byte	.LASF1564
 3057 043f 02       		.byte	0x2
 3058 0440 0A       		.uleb128 0xa
 3059 0441 D85A0000 		.4byte	.LASF1565
 3060 0445 03       		.byte	0x3
 3061 0446 0A       		.uleb128 0xa
 3062 0447 4C180000 		.4byte	.LASF1566
 3063 044b 04       		.byte	0x4
 3064 044c 0A       		.uleb128 0xa
 3065 044d AF8E0000 		.4byte	.LASF1567
 3066 0451 05       		.byte	0x5
 3067 0452 0A       		.uleb128 0xa
 3068 0453 94480000 		.4byte	.LASF1568
 3069 0457 06       		.byte	0x6
 3070 0458 0A       		.uleb128 0xa
 3071 0459 31970000 		.4byte	.LASF1569
 3072 045d 07       		.byte	0x7
 3073 045e 00       		.byte	0
 3074 045f 04       		.uleb128 0x4
 3075 0460 0B020000 		.4byte	.LASF1570
 3076 0464 05       		.byte	0x5
 3077 0465 0D       		.byte	0xd
 3078 0466 22040000 		.4byte	0x422
 3079 046a 0B       		.uleb128 0xb
 3080 046b 01       		.byte	0x1
 3081 046c 3E000000 		.4byte	0x3e
 3082 0470 05       		.byte	0x5
 3083 0471 0F       		.byte	0xf
 3084 0472 C5040000 		.4byte	0x4c5
 3085 0476 0A       		.uleb128 0xa
 3086 0477 9A870000 		.4byte	.LASF1571
 3087 047b 00       		.byte	0
 3088 047c 0A       		.uleb128 0xa
 3089 047d 7B0E0000 		.4byte	.LASF1572
 3090 0481 01       		.byte	0x1
 3091 0482 0A       		.uleb128 0xa
 3092 0483 9FA70000 		.4byte	.LASF1573
 3093 0487 02       		.byte	0x2
 3094 0488 0A       		.uleb128 0xa
 3095 0489 17610000 		.4byte	.LASF1574
 3096 048d 03       		.byte	0x3
 3097 048e 0A       		.uleb128 0xa
 3098 048f 9B760000 		.4byte	.LASF1575
 3099 0493 04       		.byte	0x4
 3100 0494 0A       		.uleb128 0xa
 3101 0495 C70D0000 		.4byte	.LASF1576
 3102 0499 05       		.byte	0x5
 3103 049a 0A       		.uleb128 0xa
 3104 049b 76A60000 		.4byte	.LASF1577
 3105 049f 06       		.byte	0x6
 3106 04a0 0A       		.uleb128 0xa
 3107 04a1 43A40000 		.4byte	.LASF1578
 3108 04a5 07       		.byte	0x7
 3109 04a6 0A       		.uleb128 0xa
ARM GAS  /var/folders/z0/6xlwn_996xz3mwq1cgzkbq4r0000gp/T//cc3rPjEN.s 			page 71


 3110 04a7 9E8E0000 		.4byte	.LASF1579
 3111 04ab 08       		.byte	0x8
 3112 04ac 0A       		.uleb128 0xa
 3113 04ad 19880000 		.4byte	.LASF1580
 3114 04b1 09       		.byte	0x9
 3115 04b2 0A       		.uleb128 0xa
 3116 04b3 75460000 		.4byte	.LASF1581
 3117 04b7 0A       		.byte	0xa
 3118 04b8 0A       		.uleb128 0xa
 3119 04b9 56A00000 		.4byte	.LASF1582
 3120 04bd 0B       		.byte	0xb
 3121 04be 0A       		.uleb128 0xa
 3122 04bf 70500000 		.4byte	.LASF1583
 3123 04c3 0C       		.byte	0xc
 3124 04c4 00       		.byte	0
 3125 04c5 04       		.uleb128 0x4
 3126 04c6 99280000 		.4byte	.LASF1584
 3127 04ca 05       		.byte	0x5
 3128 04cb 1D       		.byte	0x1d
 3129 04cc 6A040000 		.4byte	0x46a
 3130 04d0 0B       		.uleb128 0xb
 3131 04d1 01       		.byte	0x1
 3132 04d2 3E000000 		.4byte	0x3e
 3133 04d6 05       		.byte	0x5
 3134 04d7 21       		.byte	0x21
 3135 04d8 01050000 		.4byte	0x501
 3136 04dc 0A       		.uleb128 0xa
 3137 04dd 8F980000 		.4byte	.LASF1585
 3138 04e1 0C       		.byte	0xc
 3139 04e2 0A       		.uleb128 0xa
 3140 04e3 D1310000 		.4byte	.LASF1586
 3141 04e7 0D       		.byte	0xd
 3142 04e8 0A       		.uleb128 0xa
 3143 04e9 3A100000 		.4byte	.LASF1587
 3144 04ed 0E       		.byte	0xe
 3145 04ee 0A       		.uleb128 0xa
 3146 04ef 16140000 		.4byte	.LASF1588
 3147 04f3 0F       		.byte	0xf
 3148 04f4 0A       		.uleb128 0xa
 3149 04f5 DFAE0000 		.4byte	.LASF1589
 3150 04f9 10       		.byte	0x10
 3151 04fa 0A       		.uleb128 0xa
 3152 04fb AB4C0000 		.4byte	.LASF1590
 3153 04ff 11       		.byte	0x11
 3154 0500 00       		.byte	0
 3155 0501 04       		.uleb128 0x4
 3156 0502 9C6C0000 		.4byte	.LASF1591
 3157 0506 05       		.byte	0x5
 3158 0507 28       		.byte	0x28
 3159 0508 D0040000 		.4byte	0x4d0
 3160 050c 0B       		.uleb128 0xb
 3161 050d 01       		.byte	0x1
 3162 050e 3E000000 		.4byte	0x3e
 3163 0512 05       		.byte	0x5
 3164 0513 2A       		.byte	0x2a
 3165 0514 2B050000 		.4byte	0x52b
 3166 0518 0A       		.uleb128 0xa
ARM GAS  /var/folders/z0/6xlwn_996xz3mwq1cgzkbq4r0000gp/T//cc3rPjEN.s 			page 72


 3167 0519 53A60000 		.4byte	.LASF1592
 3168 051d 00       		.byte	0
 3169 051e 0A       		.uleb128 0xa
 3170 051f 49A60000 		.4byte	.LASF1593
 3171 0523 01       		.byte	0x1
 3172 0524 0A       		.uleb128 0xa
 3173 0525 CA4F0000 		.4byte	.LASF1594
 3174 0529 02       		.byte	0x2
 3175 052a 00       		.byte	0
 3176 052b 04       		.uleb128 0x4
 3177 052c 13A30000 		.4byte	.LASF1595
 3178 0530 05       		.byte	0x5
 3179 0531 2E       		.byte	0x2e
 3180 0532 0C050000 		.4byte	0x50c
 3181 0536 04       		.uleb128 0x4
 3182 0537 792E0000 		.4byte	.LASF1596
 3183 053b 06       		.byte	0x6
 3184 053c 3B       		.byte	0x3b
 3185 053d 52050000 		.4byte	0x552
 3186 0541 05       		.uleb128 0x5
 3187 0542 04       		.byte	0x4
 3188 0543 47050000 		.4byte	0x547
 3189 0547 0C       		.uleb128 0xc
 3190 0548 52050000 		.4byte	0x552
 3191 054c 0D       		.uleb128 0xd
 3192 054d CA000000 		.4byte	0xca
 3193 0551 00       		.byte	0
 3194 0552 06       		.uleb128 0x6
 3195 0553 41050000 		.4byte	0x541
 3196 0557 0E       		.uleb128 0xe
 3197 0558 0C       		.byte	0xc
 3198 0559 06       		.byte	0x6
 3199 055a 3D       		.byte	0x3d
 3200 055b B4050000 		.4byte	0x5b4
 3201 055f 08       		.uleb128 0x8
 3202 0560 00790000 		.4byte	.LASF1597
 3203 0564 06       		.byte	0x6
 3204 0565 3E       		.byte	0x3e
 3205 0566 8F020000 		.4byte	0x28f
 3206 056a 00       		.byte	0
 3207 056b 08       		.uleb128 0x8
 3208 056c A77A0000 		.4byte	.LASF1598
 3209 0570 06       		.byte	0x6
 3210 0571 3F       		.byte	0x3f
 3211 0572 8F020000 		.4byte	0x28f
 3212 0576 01       		.byte	0x1
 3213 0577 08       		.uleb128 0x8
 3214 0578 BA2B0000 		.4byte	.LASF1533
 3215 057c 06       		.byte	0x6
 3216 057d 40       		.byte	0x40
 3217 057e E2010000 		.4byte	0x1e2
 3218 0582 02       		.byte	0x2
 3219 0583 08       		.uleb128 0x8
 3220 0584 3CA30000 		.4byte	.LASF1534
 3221 0588 06       		.byte	0x6
 3222 0589 41       		.byte	0x41
 3223 058a BF000000 		.4byte	0xbf
ARM GAS  /var/folders/z0/6xlwn_996xz3mwq1cgzkbq4r0000gp/T//cc3rPjEN.s 			page 73


 3224 058e 04       		.byte	0x4
 3225 058f 08       		.uleb128 0x8
 3226 0590 DC650000 		.4byte	.LASF1599
 3227 0594 06       		.byte	0x6
 3228 0595 42       		.byte	0x42
 3229 0596 8F020000 		.4byte	0x28f
 3230 059a 08       		.byte	0x8
 3231 059b 08       		.uleb128 0x8
 3232 059c CF330000 		.4byte	.LASF1600
 3233 05a0 06       		.byte	0x6
 3234 05a1 43       		.byte	0x43
 3235 05a2 8F020000 		.4byte	0x28f
 3236 05a6 09       		.byte	0x9
 3237 05a7 08       		.uleb128 0x8
 3238 05a8 5C650000 		.4byte	.LASF1601
 3239 05ac 06       		.byte	0x6
 3240 05ad 44       		.byte	0x44
 3241 05ae 8F020000 		.4byte	0x28f
 3242 05b2 0A       		.byte	0xa
 3243 05b3 00       		.byte	0
 3244 05b4 04       		.uleb128 0x4
 3245 05b5 BAAE0000 		.4byte	.LASF1602
 3246 05b9 06       		.byte	0x6
 3247 05ba 45       		.byte	0x45
 3248 05bb 57050000 		.4byte	0x557
 3249 05bf 06       		.uleb128 0x6
 3250 05c0 BF000000 		.4byte	0xbf
 3251 05c4 0F       		.uleb128 0xf
 3252 05c5 91A80000 		.4byte	.LASF1603
 3253 05c9 01       		.byte	0x1
 3254 05ca 4E01     		.2byte	0x14e
 3255 05cc 01       		.byte	0x1
 3256 05cd DE050000 		.4byte	0x5de
 3257 05d1 10       		.uleb128 0x10
 3258 05d2 7F8B0000 		.4byte	.LASF1605
 3259 05d6 01       		.byte	0x1
 3260 05d7 4E01     		.2byte	0x14e
 3261 05d9 CA000000 		.4byte	0xca
 3262 05dd 00       		.byte	0
 3263 05de 11       		.uleb128 0x11
 3264 05df C86A0000 		.4byte	.LASF1604
 3265 05e3 01       		.byte	0x1
 3266 05e4 FC       		.byte	0xfc
 3267 05e5 01       		.byte	0x1
 3268 05e6 0C060000 		.4byte	0x60c
 3269 05ea 12       		.uleb128 0x12
 3270 05eb 7F8B0000 		.4byte	.LASF1605
 3271 05ef 01       		.byte	0x1
 3272 05f0 FC       		.byte	0xfc
 3273 05f1 CA000000 		.4byte	0xca
 3274 05f5 13       		.uleb128 0x13
 3275 05f6 6B130000 		.4byte	.LASF1606
 3276 05fa 01       		.byte	0x1
 3277 05fb FD       		.byte	0xfd
 3278 05fc 8F020000 		.4byte	0x28f
 3279 0600 13       		.uleb128 0x13
 3280 0601 FE950000 		.4byte	.LASF1607
ARM GAS  /var/folders/z0/6xlwn_996xz3mwq1cgzkbq4r0000gp/T//cc3rPjEN.s 			page 74


 3281 0605 01       		.byte	0x1
 3282 0606 FE       		.byte	0xfe
 3283 0607 2B050000 		.4byte	0x52b
 3284 060b 00       		.byte	0
 3285 060c 11       		.uleb128 0x11
 3286 060d 52AD0000 		.4byte	.LASF1608
 3287 0611 01       		.byte	0x1
 3288 0612 E1       		.byte	0xe1
 3289 0613 01       		.byte	0x1
 3290 0614 3A060000 		.4byte	0x63a
 3291 0618 12       		.uleb128 0x12
 3292 0619 7F8B0000 		.4byte	.LASF1605
 3293 061d 01       		.byte	0x1
 3294 061e E1       		.byte	0xe1
 3295 061f CA000000 		.4byte	0xca
 3296 0623 13       		.uleb128 0x13
 3297 0624 982A0000 		.4byte	.LASF1609
 3298 0628 01       		.byte	0x1
 3299 0629 E2       		.byte	0xe2
 3300 062a 5F040000 		.4byte	0x45f
 3301 062e 14       		.uleb128 0x14
 3302 062f 15       		.uleb128 0x15
 3303 0630 6900     		.ascii	"i\000"
 3304 0632 01       		.byte	0x1
 3305 0633 EF       		.byte	0xef
 3306 0634 C5040000 		.4byte	0x4c5
 3307 0638 00       		.byte	0
 3308 0639 00       		.byte	0
 3309 063a 16       		.uleb128 0x16
 3310 063b 4F740000 		.4byte	.LASF1651
 3311 063f 01       		.byte	0x1
 3312 0640 12       		.byte	0x12
 3313 0641 BF000000 		.4byte	0xbf
 3314 0645 01       		.byte	0x1
 3315 0646 6A060000 		.4byte	0x66a
 3316 064a 17       		.uleb128 0x17
 3317 064b 73747200 		.ascii	"str\000"
 3318 064f 01       		.byte	0x1
 3319 0650 12       		.byte	0x12
 3320 0651 9E000000 		.4byte	0x9e
 3321 0655 15       		.uleb128 0x15
 3322 0656 72657300 		.ascii	"res\000"
 3323 065a 01       		.byte	0x1
 3324 065b 13       		.byte	0x13
 3325 065c BF000000 		.4byte	0xbf
 3326 0660 15       		.uleb128 0x15
 3327 0661 6900     		.ascii	"i\000"
 3328 0663 01       		.byte	0x1
 3329 0664 17       		.byte	0x17
 3330 0665 BF000000 		.4byte	0xbf
 3331 0669 00       		.byte	0
 3332 066a 18       		.uleb128 0x18
 3333 066b 62616C00 		.ascii	"bal\000"
 3334 066f 01       		.byte	0x1
 3335 0670 3A01     		.2byte	0x13a
 3336 0672 01       		.byte	0x1
 3337 0673 84060000 		.4byte	0x684
ARM GAS  /var/folders/z0/6xlwn_996xz3mwq1cgzkbq4r0000gp/T//cc3rPjEN.s 			page 75


 3338 0677 10       		.uleb128 0x10
 3339 0678 7F8B0000 		.4byte	.LASF1605
 3340 067c 01       		.byte	0x1
 3341 067d 3A01     		.2byte	0x13a
 3342 067f CA000000 		.4byte	0xca
 3343 0683 00       		.byte	0
 3344 0684 19       		.uleb128 0x19
 3345 0685 E7570000 		.4byte	.LASF1610
 3346 0689 01       		.byte	0x1
 3347 068a 1701     		.2byte	0x117
 3348 068c 00000000 		.4byte	.LFB203
 3349 0690 E4000000 		.4byte	.LFE203-.LFB203
 3350 0694 01       		.uleb128 0x1
 3351 0695 9C       		.byte	0x9c
 3352 0696 D9070000 		.4byte	0x7d9
 3353 069a 1A       		.uleb128 0x1a
 3354 069b 7F8B0000 		.4byte	.LASF1605
 3355 069f 01       		.byte	0x1
 3356 06a0 1701     		.2byte	0x117
 3357 06a2 CA000000 		.4byte	0xca
 3358 06a6 00000000 		.4byte	.LLST0
 3359 06aa 1B       		.uleb128 0x1b
 3360 06ab 0C000000 		.4byte	.LVL2
 3361 06af 2B150000 		.4byte	0x152b
 3362 06b3 C7060000 		.4byte	0x6c7
 3363 06b7 1C       		.uleb128 0x1c
 3364 06b8 01       		.uleb128 0x1
 3365 06b9 50       		.byte	0x50
 3366 06ba 02       		.uleb128 0x2
 3367 06bb 74       		.byte	0x74
 3368 06bc 00       		.sleb128 0
 3369 06bd 1C       		.uleb128 0x1c
 3370 06be 01       		.uleb128 0x1
 3371 06bf 51       		.byte	0x51
 3372 06c0 05       		.uleb128 0x5
 3373 06c1 03       		.byte	0x3
 3374 06c2 00000000 		.4byte	.LC0
 3375 06c6 00       		.byte	0
 3376 06c7 1B       		.uleb128 0x1b
 3377 06c8 18000000 		.4byte	.LVL3
 3378 06cc 2B150000 		.4byte	0x152b
 3379 06d0 E4060000 		.4byte	0x6e4
 3380 06d4 1C       		.uleb128 0x1c
 3381 06d5 01       		.uleb128 0x1
 3382 06d6 50       		.byte	0x50
 3383 06d7 02       		.uleb128 0x2
 3384 06d8 74       		.byte	0x74
 3385 06d9 00       		.sleb128 0
 3386 06da 1C       		.uleb128 0x1c
 3387 06db 01       		.uleb128 0x1
 3388 06dc 51       		.byte	0x51
 3389 06dd 05       		.uleb128 0x5
 3390 06de 03       		.byte	0x3
 3391 06df 10000000 		.4byte	.LC5
 3392 06e3 00       		.byte	0
 3393 06e4 1B       		.uleb128 0x1b
 3394 06e5 24000000 		.4byte	.LVL4
ARM GAS  /var/folders/z0/6xlwn_996xz3mwq1cgzkbq4r0000gp/T//cc3rPjEN.s 			page 76


 3395 06e9 2B150000 		.4byte	0x152b
 3396 06ed 01070000 		.4byte	0x701
 3397 06f1 1C       		.uleb128 0x1c
 3398 06f2 01       		.uleb128 0x1
 3399 06f3 50       		.byte	0x50
 3400 06f4 02       		.uleb128 0x2
 3401 06f5 74       		.byte	0x74
 3402 06f6 00       		.sleb128 0
 3403 06f7 1C       		.uleb128 0x1c
 3404 06f8 01       		.uleb128 0x1
 3405 06f9 51       		.byte	0x51
 3406 06fa 05       		.uleb128 0x5
 3407 06fb 03       		.byte	0x3
 3408 06fc 24000000 		.4byte	.LC9
 3409 0700 00       		.byte	0
 3410 0701 1B       		.uleb128 0x1b
 3411 0702 38000000 		.4byte	.LVL5
 3412 0706 36150000 		.4byte	0x1536
 3413 070a 18070000 		.4byte	0x718
 3414 070e 1C       		.uleb128 0x1c
 3415 070f 01       		.uleb128 0x1
 3416 0710 50       		.byte	0x50
 3417 0711 05       		.uleb128 0x5
 3418 0712 03       		.byte	0x3
 3419 0713 44000000 		.4byte	.LC13
 3420 0717 00       		.byte	0
 3421 0718 1B       		.uleb128 0x1b
 3422 0719 46000000 		.4byte	.LVL6
 3423 071d 36150000 		.4byte	0x1536
 3424 0721 2F070000 		.4byte	0x72f
 3425 0725 1C       		.uleb128 0x1c
 3426 0726 01       		.uleb128 0x1
 3427 0727 50       		.byte	0x50
 3428 0728 05       		.uleb128 0x5
 3429 0729 03       		.byte	0x3
 3430 072a 30000000 		.4byte	.LC11
 3431 072e 00       		.byte	0
 3432 072f 1B       		.uleb128 0x1b
 3433 0730 50000000 		.4byte	.LVL7
 3434 0734 2B150000 		.4byte	0x152b
 3435 0738 4C070000 		.4byte	0x74c
 3436 073c 1C       		.uleb128 0x1c
 3437 073d 01       		.uleb128 0x1
 3438 073e 50       		.byte	0x50
 3439 073f 02       		.uleb128 0x2
 3440 0740 74       		.byte	0x74
 3441 0741 00       		.sleb128 0
 3442 0742 1C       		.uleb128 0x1c
 3443 0743 01       		.uleb128 0x1
 3444 0744 51       		.byte	0x51
 3445 0745 05       		.uleb128 0x5
 3446 0746 03       		.byte	0x3
 3447 0747 58000000 		.4byte	.LC15
 3448 074b 00       		.byte	0
 3449 074c 1B       		.uleb128 0x1b
 3450 074d 5C000000 		.4byte	.LVL8
 3451 0751 2B150000 		.4byte	0x152b
ARM GAS  /var/folders/z0/6xlwn_996xz3mwq1cgzkbq4r0000gp/T//cc3rPjEN.s 			page 77


 3452 0755 69070000 		.4byte	0x769
 3453 0759 1C       		.uleb128 0x1c
 3454 075a 01       		.uleb128 0x1
 3455 075b 50       		.byte	0x50
 3456 075c 02       		.uleb128 0x2
 3457 075d 74       		.byte	0x74
 3458 075e 00       		.sleb128 0
 3459 075f 1C       		.uleb128 0x1c
 3460 0760 01       		.uleb128 0x1
 3461 0761 51       		.byte	0x51
 3462 0762 05       		.uleb128 0x5
 3463 0763 03       		.byte	0x3
 3464 0764 64000000 		.4byte	.LC17
 3465 0768 00       		.byte	0
 3466 0769 1B       		.uleb128 0x1b
 3467 076a 7C000000 		.4byte	.LVL9
 3468 076e 36150000 		.4byte	0x1536
 3469 0772 80070000 		.4byte	0x780
 3470 0776 1C       		.uleb128 0x1c
 3471 0777 01       		.uleb128 0x1
 3472 0778 50       		.byte	0x50
 3473 0779 05       		.uleb128 0x5
 3474 077a 03       		.byte	0x3
 3475 077b 04000000 		.4byte	.LC3
 3476 077f 00       		.byte	0
 3477 0780 1B       		.uleb128 0x1b
 3478 0781 84000000 		.4byte	.LVL10
 3479 0785 36150000 		.4byte	0x1536
 3480 0789 97070000 		.4byte	0x797
 3481 078d 1C       		.uleb128 0x1c
 3482 078e 01       		.uleb128 0x1
 3483 078f 50       		.byte	0x50
 3484 0790 05       		.uleb128 0x5
 3485 0791 03       		.byte	0x3
 3486 0792 30000000 		.4byte	.LC11
 3487 0796 00       		.byte	0
 3488 0797 1B       		.uleb128 0x1b
 3489 0798 92000000 		.4byte	.LVL11
 3490 079c 36150000 		.4byte	0x1536
 3491 07a0 AE070000 		.4byte	0x7ae
 3492 07a4 1C       		.uleb128 0x1c
 3493 07a5 01       		.uleb128 0x1
 3494 07a6 50       		.byte	0x50
 3495 07a7 05       		.uleb128 0x5
 3496 07a8 03       		.byte	0x3
 3497 07a9 44000000 		.4byte	.LC13
 3498 07ad 00       		.byte	0
 3499 07ae 1B       		.uleb128 0x1b
 3500 07af AE000000 		.4byte	.LVL12
 3501 07b3 36150000 		.4byte	0x1536
 3502 07b7 C5070000 		.4byte	0x7c5
 3503 07bb 1C       		.uleb128 0x1c
 3504 07bc 01       		.uleb128 0x1
 3505 07bd 50       		.byte	0x50
 3506 07be 05       		.uleb128 0x5
 3507 07bf 03       		.byte	0x3
 3508 07c0 14000000 		.4byte	.LC7
ARM GAS  /var/folders/z0/6xlwn_996xz3mwq1cgzkbq4r0000gp/T//cc3rPjEN.s 			page 78


 3509 07c4 00       		.byte	0
 3510 07c5 1D       		.uleb128 0x1d
 3511 07c6 B6000000 		.4byte	.LVL13
 3512 07ca 36150000 		.4byte	0x1536
 3513 07ce 1C       		.uleb128 0x1c
 3514 07cf 01       		.uleb128 0x1
 3515 07d0 50       		.byte	0x50
 3516 07d1 05       		.uleb128 0x5
 3517 07d2 03       		.byte	0x3
 3518 07d3 70000000 		.4byte	.LC19
 3519 07d7 00       		.byte	0
 3520 07d8 00       		.byte	0
 3521 07d9 1E       		.uleb128 0x1e
 3522 07da 73657400 		.ascii	"set\000"
 3523 07de 01       		.byte	0x1
 3524 07df 8F       		.byte	0x8f
 3525 07e0 00000000 		.4byte	.LFB200
 3526 07e4 08030000 		.4byte	.LFE200-.LFB200
 3527 07e8 01       		.uleb128 0x1
 3528 07e9 9C       		.byte	0x9c
 3529 07ea 230C0000 		.4byte	0xc23
 3530 07ee 1F       		.uleb128 0x1f
 3531 07ef 7F8B0000 		.4byte	.LASF1605
 3532 07f3 01       		.byte	0x1
 3533 07f4 8F       		.byte	0x8f
 3534 07f5 CA000000 		.4byte	0xca
 3535 07f9 21000000 		.4byte	.LLST1
 3536 07fd 20       		.uleb128 0x20
 3537 07fe 81AF0000 		.4byte	.LASF1611
 3538 0802 01       		.byte	0x1
 3539 0803 95       		.byte	0x95
 3540 0804 C5040000 		.4byte	0x4c5
 3541 0808 7E020000 		.4byte	.LLST2
 3542 080c 21       		.uleb128 0x21
 3543 080d 6B130000 		.4byte	.LASF1606
 3544 0811 01       		.byte	0x1
 3545 0812 97       		.byte	0x97
 3546 0813 8F020000 		.4byte	0x28f
 3547 0817 01       		.byte	0x1
 3548 0818 22       		.uleb128 0x22
 3549 0819 00000000 		.4byte	.Ldebug_ranges0+0
 3550 081d 6B080000 		.4byte	0x86b
 3551 0821 13       		.uleb128 0x13
 3552 0822 6B940000 		.4byte	.LASF1612
 3553 0826 01       		.byte	0x1
 3554 0827 D5       		.byte	0xd5
 3555 0828 01050000 		.4byte	0x501
 3556 082c 1B       		.uleb128 0x1b
 3557 082d 48000000 		.4byte	.LVL22
 3558 0831 2B150000 		.4byte	0x152b
 3559 0835 40080000 		.4byte	0x840
 3560 0839 1C       		.uleb128 0x1c
 3561 083a 01       		.uleb128 0x1
 3562 083b 50       		.byte	0x50
 3563 083c 02       		.uleb128 0x2
 3564 083d 76       		.byte	0x76
 3565 083e 00       		.sleb128 0
ARM GAS  /var/folders/z0/6xlwn_996xz3mwq1cgzkbq4r0000gp/T//cc3rPjEN.s 			page 79


 3566 083f 00       		.byte	0
 3567 0840 1B       		.uleb128 0x1b
 3568 0841 58000000 		.4byte	.LVL23
 3569 0845 36150000 		.4byte	0x1536
 3570 0849 57080000 		.4byte	0x857
 3571 084d 1C       		.uleb128 0x1c
 3572 084e 01       		.uleb128 0x1
 3573 084f 50       		.byte	0x50
 3574 0850 05       		.uleb128 0x5
 3575 0851 03       		.byte	0x3
 3576 0852 E4000000 		.4byte	.LC36
 3577 0856 00       		.byte	0
 3578 0857 1D       		.uleb128 0x1d
 3579 0858 7A000000 		.4byte	.LVL31
 3580 085c 36150000 		.4byte	0x1536
 3581 0860 1C       		.uleb128 0x1c
 3582 0861 01       		.uleb128 0x1
 3583 0862 50       		.byte	0x50
 3584 0863 05       		.uleb128 0x5
 3585 0864 03       		.byte	0x3
 3586 0865 C8000000 		.4byte	.LC34
 3587 0869 00       		.byte	0
 3588 086a 00       		.byte	0
 3589 086b 23       		.uleb128 0x23
 3590 086c 3A060000 		.4byte	0x63a
 3591 0870 82000000 		.4byte	.LBB34
 3592 0874 18000000 		.4byte	.Ldebug_ranges0+0x18
 3593 0878 01       		.byte	0x1
 3594 0879 C9       		.byte	0xc9
 3595 087a A0080000 		.4byte	0x8a0
 3596 087e 24       		.uleb128 0x24
 3597 087f 4A060000 		.4byte	0x64a
 3598 0883 A7020000 		.4byte	.LLST3
 3599 0887 25       		.uleb128 0x25
 3600 0888 18000000 		.4byte	.Ldebug_ranges0+0x18
 3601 088c 26       		.uleb128 0x26
 3602 088d 55060000 		.4byte	0x655
 3603 0891 D1020000 		.4byte	.LLST4
 3604 0895 26       		.uleb128 0x26
 3605 0896 60060000 		.4byte	0x660
 3606 089a 07030000 		.4byte	.LLST5
 3607 089e 00       		.byte	0
 3608 089f 00       		.byte	0
 3609 08a0 23       		.uleb128 0x23
 3610 08a1 3A060000 		.4byte	0x63a
 3611 08a5 B2000000 		.4byte	.LBB37
 3612 08a9 30000000 		.4byte	.Ldebug_ranges0+0x30
 3613 08ad 01       		.byte	0x1
 3614 08ae A1       		.byte	0xa1
 3615 08af D5080000 		.4byte	0x8d5
 3616 08b3 24       		.uleb128 0x24
 3617 08b4 4A060000 		.4byte	0x64a
 3618 08b8 4C030000 		.4byte	.LLST6
 3619 08bc 25       		.uleb128 0x25
 3620 08bd 30000000 		.4byte	.Ldebug_ranges0+0x30
 3621 08c1 26       		.uleb128 0x26
 3622 08c2 55060000 		.4byte	0x655
ARM GAS  /var/folders/z0/6xlwn_996xz3mwq1cgzkbq4r0000gp/T//cc3rPjEN.s 			page 80


 3623 08c6 76030000 		.4byte	.LLST7
 3624 08ca 26       		.uleb128 0x26
 3625 08cb 60060000 		.4byte	0x660
 3626 08cf AC030000 		.4byte	.LLST8
 3627 08d3 00       		.byte	0
 3628 08d4 00       		.byte	0
 3629 08d5 23       		.uleb128 0x23
 3630 08d6 3A060000 		.4byte	0x63a
 3631 08da E2000000 		.4byte	.LBB40
 3632 08de 48000000 		.4byte	.Ldebug_ranges0+0x48
 3633 08e2 01       		.byte	0x1
 3634 08e3 A5       		.byte	0xa5
 3635 08e4 0A090000 		.4byte	0x90a
 3636 08e8 24       		.uleb128 0x24
 3637 08e9 4A060000 		.4byte	0x64a
 3638 08ed F1030000 		.4byte	.LLST9
 3639 08f1 25       		.uleb128 0x25
 3640 08f2 48000000 		.4byte	.Ldebug_ranges0+0x48
 3641 08f6 26       		.uleb128 0x26
 3642 08f7 55060000 		.4byte	0x655
 3643 08fb 1B040000 		.4byte	.LLST10
 3644 08ff 26       		.uleb128 0x26
 3645 0900 60060000 		.4byte	0x660
 3646 0904 51040000 		.4byte	.LLST11
 3647 0908 00       		.byte	0
 3648 0909 00       		.byte	0
 3649 090a 23       		.uleb128 0x23
 3650 090b 3A060000 		.4byte	0x63a
 3651 090f 12010000 		.4byte	.LBB43
 3652 0913 60000000 		.4byte	.Ldebug_ranges0+0x60
 3653 0917 01       		.byte	0x1
 3654 0918 A9       		.byte	0xa9
 3655 0919 3F090000 		.4byte	0x93f
 3656 091d 24       		.uleb128 0x24
 3657 091e 4A060000 		.4byte	0x64a
 3658 0922 96040000 		.4byte	.LLST12
 3659 0926 25       		.uleb128 0x25
 3660 0927 60000000 		.4byte	.Ldebug_ranges0+0x60
 3661 092b 26       		.uleb128 0x26
 3662 092c 55060000 		.4byte	0x655
 3663 0930 C0040000 		.4byte	.LLST13
 3664 0934 26       		.uleb128 0x26
 3665 0935 60060000 		.4byte	0x660
 3666 0939 F6040000 		.4byte	.LLST14
 3667 093d 00       		.byte	0
 3668 093e 00       		.byte	0
 3669 093f 23       		.uleb128 0x23
 3670 0940 3A060000 		.4byte	0x63a
 3671 0944 42010000 		.4byte	.LBB46
 3672 0948 78000000 		.4byte	.Ldebug_ranges0+0x78
 3673 094c 01       		.byte	0x1
 3674 094d AD       		.byte	0xad
 3675 094e 74090000 		.4byte	0x974
 3676 0952 24       		.uleb128 0x24
 3677 0953 4A060000 		.4byte	0x64a
 3678 0957 3B050000 		.4byte	.LLST15
 3679 095b 25       		.uleb128 0x25
ARM GAS  /var/folders/z0/6xlwn_996xz3mwq1cgzkbq4r0000gp/T//cc3rPjEN.s 			page 81


 3680 095c 78000000 		.4byte	.Ldebug_ranges0+0x78
 3681 0960 26       		.uleb128 0x26
 3682 0961 55060000 		.4byte	0x655
 3683 0965 65050000 		.4byte	.LLST16
 3684 0969 26       		.uleb128 0x26
 3685 096a 60060000 		.4byte	0x660
 3686 096e 9B050000 		.4byte	.LLST17
 3687 0972 00       		.byte	0
 3688 0973 00       		.byte	0
 3689 0974 23       		.uleb128 0x23
 3690 0975 3A060000 		.4byte	0x63a
 3691 0979 72010000 		.4byte	.LBB49
 3692 097d 90000000 		.4byte	.Ldebug_ranges0+0x90
 3693 0981 01       		.byte	0x1
 3694 0982 B9       		.byte	0xb9
 3695 0983 A9090000 		.4byte	0x9a9
 3696 0987 24       		.uleb128 0x24
 3697 0988 4A060000 		.4byte	0x64a
 3698 098c E0050000 		.4byte	.LLST18
 3699 0990 25       		.uleb128 0x25
 3700 0991 90000000 		.4byte	.Ldebug_ranges0+0x90
 3701 0995 26       		.uleb128 0x26
 3702 0996 55060000 		.4byte	0x655
 3703 099a 0A060000 		.4byte	.LLST19
 3704 099e 26       		.uleb128 0x26
 3705 099f 60060000 		.4byte	0x660
 3706 09a3 40060000 		.4byte	.LLST20
 3707 09a7 00       		.byte	0
 3708 09a8 00       		.byte	0
 3709 09a9 23       		.uleb128 0x23
 3710 09aa 3A060000 		.4byte	0x63a
 3711 09ae A2010000 		.4byte	.LBB52
 3712 09b2 A8000000 		.4byte	.Ldebug_ranges0+0xa8
 3713 09b6 01       		.byte	0x1
 3714 09b7 BD       		.byte	0xbd
 3715 09b8 DE090000 		.4byte	0x9de
 3716 09bc 24       		.uleb128 0x24
 3717 09bd 4A060000 		.4byte	0x64a
 3718 09c1 85060000 		.4byte	.LLST21
 3719 09c5 25       		.uleb128 0x25
 3720 09c6 A8000000 		.4byte	.Ldebug_ranges0+0xa8
 3721 09ca 26       		.uleb128 0x26
 3722 09cb 55060000 		.4byte	0x655
 3723 09cf AF060000 		.4byte	.LLST22
 3724 09d3 26       		.uleb128 0x26
 3725 09d4 60060000 		.4byte	0x660
 3726 09d8 E5060000 		.4byte	.LLST23
 3727 09dc 00       		.byte	0
 3728 09dd 00       		.byte	0
 3729 09de 23       		.uleb128 0x23
 3730 09df 3A060000 		.4byte	0x63a
 3731 09e3 D2010000 		.4byte	.LBB55
 3732 09e7 C0000000 		.4byte	.Ldebug_ranges0+0xc0
 3733 09eb 01       		.byte	0x1
 3734 09ec B1       		.byte	0xb1
 3735 09ed 130A0000 		.4byte	0xa13
 3736 09f1 24       		.uleb128 0x24
ARM GAS  /var/folders/z0/6xlwn_996xz3mwq1cgzkbq4r0000gp/T//cc3rPjEN.s 			page 82


 3737 09f2 4A060000 		.4byte	0x64a
 3738 09f6 2A070000 		.4byte	.LLST24
 3739 09fa 25       		.uleb128 0x25
 3740 09fb C0000000 		.4byte	.Ldebug_ranges0+0xc0
 3741 09ff 26       		.uleb128 0x26
 3742 0a00 55060000 		.4byte	0x655
 3743 0a04 54070000 		.4byte	.LLST25
 3744 0a08 26       		.uleb128 0x26
 3745 0a09 60060000 		.4byte	0x660
 3746 0a0d 8A070000 		.4byte	.LLST26
 3747 0a11 00       		.byte	0
 3748 0a12 00       		.byte	0
 3749 0a13 23       		.uleb128 0x23
 3750 0a14 3A060000 		.4byte	0x63a
 3751 0a18 00020000 		.4byte	.LBB58
 3752 0a1c D8000000 		.4byte	.Ldebug_ranges0+0xd8
 3753 0a20 01       		.byte	0x1
 3754 0a21 B5       		.byte	0xb5
 3755 0a22 480A0000 		.4byte	0xa48
 3756 0a26 24       		.uleb128 0x24
 3757 0a27 4A060000 		.4byte	0x64a
 3758 0a2b CF070000 		.4byte	.LLST27
 3759 0a2f 25       		.uleb128 0x25
 3760 0a30 D8000000 		.4byte	.Ldebug_ranges0+0xd8
 3761 0a34 26       		.uleb128 0x26
 3762 0a35 55060000 		.4byte	0x655
 3763 0a39 F9070000 		.4byte	.LLST28
 3764 0a3d 26       		.uleb128 0x26
 3765 0a3e 60060000 		.4byte	0x660
 3766 0a42 2F080000 		.4byte	.LLST29
 3767 0a46 00       		.byte	0
 3768 0a47 00       		.byte	0
 3769 0a48 23       		.uleb128 0x23
 3770 0a49 3A060000 		.4byte	0x63a
 3771 0a4d 2E020000 		.4byte	.LBB61
 3772 0a51 F0000000 		.4byte	.Ldebug_ranges0+0xf0
 3773 0a55 01       		.byte	0x1
 3774 0a56 C1       		.byte	0xc1
 3775 0a57 7D0A0000 		.4byte	0xa7d
 3776 0a5b 24       		.uleb128 0x24
 3777 0a5c 4A060000 		.4byte	0x64a
 3778 0a60 74080000 		.4byte	.LLST30
 3779 0a64 25       		.uleb128 0x25
 3780 0a65 F0000000 		.4byte	.Ldebug_ranges0+0xf0
 3781 0a69 26       		.uleb128 0x26
 3782 0a6a 55060000 		.4byte	0x655
 3783 0a6e 9E080000 		.4byte	.LLST31
 3784 0a72 26       		.uleb128 0x26
 3785 0a73 60060000 		.4byte	0x660
 3786 0a77 D4080000 		.4byte	.LLST32
 3787 0a7b 00       		.byte	0
 3788 0a7c 00       		.byte	0
 3789 0a7d 23       		.uleb128 0x23
 3790 0a7e 3A060000 		.4byte	0x63a
 3791 0a82 5C020000 		.4byte	.LBB64
 3792 0a86 08010000 		.4byte	.Ldebug_ranges0+0x108
 3793 0a8a 01       		.byte	0x1
ARM GAS  /var/folders/z0/6xlwn_996xz3mwq1cgzkbq4r0000gp/T//cc3rPjEN.s 			page 83


 3794 0a8b C5       		.byte	0xc5
 3795 0a8c B20A0000 		.4byte	0xab2
 3796 0a90 24       		.uleb128 0x24
 3797 0a91 4A060000 		.4byte	0x64a
 3798 0a95 19090000 		.4byte	.LLST33
 3799 0a99 25       		.uleb128 0x25
 3800 0a9a 08010000 		.4byte	.Ldebug_ranges0+0x108
 3801 0a9e 26       		.uleb128 0x26
 3802 0a9f 55060000 		.4byte	0x655
 3803 0aa3 43090000 		.4byte	.LLST34
 3804 0aa7 26       		.uleb128 0x26
 3805 0aa8 60060000 		.4byte	0x660
 3806 0aac 79090000 		.4byte	.LLST35
 3807 0ab0 00       		.byte	0
 3808 0ab1 00       		.byte	0
 3809 0ab2 23       		.uleb128 0x23
 3810 0ab3 3A060000 		.4byte	0x63a
 3811 0ab7 8A020000 		.4byte	.LBB67
 3812 0abb 20010000 		.4byte	.Ldebug_ranges0+0x120
 3813 0abf 01       		.byte	0x1
 3814 0ac0 CD       		.byte	0xcd
 3815 0ac1 E70A0000 		.4byte	0xae7
 3816 0ac5 24       		.uleb128 0x24
 3817 0ac6 4A060000 		.4byte	0x64a
 3818 0aca BE090000 		.4byte	.LLST36
 3819 0ace 25       		.uleb128 0x25
 3820 0acf 20010000 		.4byte	.Ldebug_ranges0+0x120
 3821 0ad3 26       		.uleb128 0x26
 3822 0ad4 55060000 		.4byte	0x655
 3823 0ad8 E8090000 		.4byte	.LLST37
 3824 0adc 26       		.uleb128 0x26
 3825 0add 60060000 		.4byte	0x660
 3826 0ae1 1E0A0000 		.4byte	.LLST38
 3827 0ae5 00       		.byte	0
 3828 0ae6 00       		.byte	0
 3829 0ae7 1B       		.uleb128 0x1b
 3830 0ae8 2A000000 		.4byte	.LVL17
 3831 0aec 2B150000 		.4byte	0x152b
 3832 0af0 FB0A0000 		.4byte	0xafb
 3833 0af4 1C       		.uleb128 0x1c
 3834 0af5 01       		.uleb128 0x1
 3835 0af6 50       		.byte	0x50
 3836 0af7 02       		.uleb128 0x2
 3837 0af8 76       		.byte	0x76
 3838 0af9 00       		.sleb128 0
 3839 0afa 00       		.byte	0
 3840 0afb 1B       		.uleb128 0x1b
 3841 0afc 60000000 		.4byte	.LVL26
 3842 0b00 36150000 		.4byte	0x1536
 3843 0b04 120B0000 		.4byte	0xb12
 3844 0b08 1C       		.uleb128 0x1c
 3845 0b09 01       		.uleb128 0x1
 3846 0b0a 50       		.byte	0x50
 3847 0b0b 05       		.uleb128 0x5
 3848 0b0c 03       		.byte	0x3
 3849 0b0d 9C000000 		.4byte	.LC29
 3850 0b11 00       		.byte	0
ARM GAS  /var/folders/z0/6xlwn_996xz3mwq1cgzkbq4r0000gp/T//cc3rPjEN.s 			page 84


 3851 0b12 1B       		.uleb128 0x1b
 3852 0b13 AA000000 		.4byte	.LVL40
 3853 0b17 36150000 		.4byte	0x1536
 3854 0b1b 290B0000 		.4byte	0xb29
 3855 0b1f 1C       		.uleb128 0x1c
 3856 0b20 01       		.uleb128 0x1
 3857 0b21 50       		.byte	0x50
 3858 0b22 05       		.uleb128 0x5
 3859 0b23 03       		.byte	0x3
 3860 0b24 C0000000 		.4byte	.LC32
 3861 0b28 00       		.byte	0
 3862 0b29 1B       		.uleb128 0x1b
 3863 0b2a DA000000 		.4byte	.LVL49
 3864 0b2e 36150000 		.4byte	0x1536
 3865 0b32 400B0000 		.4byte	0xb40
 3866 0b36 1C       		.uleb128 0x1c
 3867 0b37 01       		.uleb128 0x1
 3868 0b38 50       		.byte	0x50
 3869 0b39 05       		.uleb128 0x5
 3870 0b3a 03       		.byte	0x3
 3871 0b3b C0000000 		.4byte	.LC32
 3872 0b3f 00       		.byte	0
 3873 0b40 1B       		.uleb128 0x1b
 3874 0b41 0A010000 		.4byte	.LVL58
 3875 0b45 36150000 		.4byte	0x1536
 3876 0b49 570B0000 		.4byte	0xb57
 3877 0b4d 1C       		.uleb128 0x1c
 3878 0b4e 01       		.uleb128 0x1
 3879 0b4f 50       		.byte	0x50
 3880 0b50 05       		.uleb128 0x5
 3881 0b51 03       		.byte	0x3
 3882 0b52 C0000000 		.4byte	.LC32
 3883 0b56 00       		.byte	0
 3884 0b57 1B       		.uleb128 0x1b
 3885 0b58 3A010000 		.4byte	.LVL67
 3886 0b5c 36150000 		.4byte	0x1536
 3887 0b60 6E0B0000 		.4byte	0xb6e
 3888 0b64 1C       		.uleb128 0x1c
 3889 0b65 01       		.uleb128 0x1
 3890 0b66 50       		.byte	0x50
 3891 0b67 05       		.uleb128 0x5
 3892 0b68 03       		.byte	0x3
 3893 0b69 C0000000 		.4byte	.LC32
 3894 0b6d 00       		.byte	0
 3895 0b6e 1B       		.uleb128 0x1b
 3896 0b6f 6A010000 		.4byte	.LVL76
 3897 0b73 36150000 		.4byte	0x1536
 3898 0b77 850B0000 		.4byte	0xb85
 3899 0b7b 1C       		.uleb128 0x1c
 3900 0b7c 01       		.uleb128 0x1
 3901 0b7d 50       		.byte	0x50
 3902 0b7e 05       		.uleb128 0x5
 3903 0b7f 03       		.byte	0x3
 3904 0b80 C0000000 		.4byte	.LC32
 3905 0b84 00       		.byte	0
 3906 0b85 1B       		.uleb128 0x1b
 3907 0b86 9A010000 		.4byte	.LVL85
ARM GAS  /var/folders/z0/6xlwn_996xz3mwq1cgzkbq4r0000gp/T//cc3rPjEN.s 			page 85


 3908 0b8a 36150000 		.4byte	0x1536
 3909 0b8e 9C0B0000 		.4byte	0xb9c
 3910 0b92 1C       		.uleb128 0x1c
 3911 0b93 01       		.uleb128 0x1
 3912 0b94 50       		.byte	0x50
 3913 0b95 05       		.uleb128 0x5
 3914 0b96 03       		.byte	0x3
 3915 0b97 C0000000 		.4byte	.LC32
 3916 0b9b 00       		.byte	0
 3917 0b9c 1B       		.uleb128 0x1b
 3918 0b9d CA010000 		.4byte	.LVL94
 3919 0ba1 36150000 		.4byte	0x1536
 3920 0ba5 B30B0000 		.4byte	0xbb3
 3921 0ba9 1C       		.uleb128 0x1c
 3922 0baa 01       		.uleb128 0x1
 3923 0bab 50       		.byte	0x50
 3924 0bac 05       		.uleb128 0x5
 3925 0bad 03       		.byte	0x3
 3926 0bae C0000000 		.4byte	.LC32
 3927 0bb2 00       		.byte	0
 3928 0bb3 1B       		.uleb128 0x1b
 3929 0bb4 F8010000 		.4byte	.LVL103
 3930 0bb8 36150000 		.4byte	0x1536
 3931 0bbc CA0B0000 		.4byte	0xbca
 3932 0bc0 1C       		.uleb128 0x1c
 3933 0bc1 01       		.uleb128 0x1
 3934 0bc2 50       		.byte	0x50
 3935 0bc3 05       		.uleb128 0x5
 3936 0bc4 03       		.byte	0x3
 3937 0bc5 C0000000 		.4byte	.LC32
 3938 0bc9 00       		.byte	0
 3939 0bca 1B       		.uleb128 0x1b
 3940 0bcb 26020000 		.4byte	.LVL112
 3941 0bcf 36150000 		.4byte	0x1536
 3942 0bd3 E10B0000 		.4byte	0xbe1
 3943 0bd7 1C       		.uleb128 0x1c
 3944 0bd8 01       		.uleb128 0x1
 3945 0bd9 50       		.byte	0x50
 3946 0bda 05       		.uleb128 0x5
 3947 0bdb 03       		.byte	0x3
 3948 0bdc C0000000 		.4byte	.LC32
 3949 0be0 00       		.byte	0
 3950 0be1 1B       		.uleb128 0x1b
 3951 0be2 54020000 		.4byte	.LVL121
 3952 0be6 36150000 		.4byte	0x1536
 3953 0bea F80B0000 		.4byte	0xbf8
 3954 0bee 1C       		.uleb128 0x1c
 3955 0bef 01       		.uleb128 0x1
 3956 0bf0 50       		.byte	0x50
 3957 0bf1 05       		.uleb128 0x5
 3958 0bf2 03       		.byte	0x3
 3959 0bf3 C0000000 		.4byte	.LC32
 3960 0bf7 00       		.byte	0
 3961 0bf8 1B       		.uleb128 0x1b
 3962 0bf9 82020000 		.4byte	.LVL130
 3963 0bfd 36150000 		.4byte	0x1536
 3964 0c01 0F0C0000 		.4byte	0xc0f
ARM GAS  /var/folders/z0/6xlwn_996xz3mwq1cgzkbq4r0000gp/T//cc3rPjEN.s 			page 86


 3965 0c05 1C       		.uleb128 0x1c
 3966 0c06 01       		.uleb128 0x1
 3967 0c07 50       		.byte	0x50
 3968 0c08 05       		.uleb128 0x5
 3969 0c09 03       		.byte	0x3
 3970 0c0a C0000000 		.4byte	.LC32
 3971 0c0e 00       		.byte	0
 3972 0c0f 1D       		.uleb128 0x1d
 3973 0c10 B0020000 		.4byte	.LVL139
 3974 0c14 36150000 		.4byte	0x1536
 3975 0c18 1C       		.uleb128 0x1c
 3976 0c19 01       		.uleb128 0x1
 3977 0c1a 50       		.byte	0x50
 3978 0c1b 05       		.uleb128 0x5
 3979 0c1c 03       		.byte	0x3
 3980 0c1d C0000000 		.4byte	.LC32
 3981 0c21 00       		.byte	0
 3982 0c22 00       		.byte	0
 3983 0c23 1E       		.uleb128 0x1e
 3984 0c24 67657400 		.ascii	"get\000"
 3985 0c28 01       		.byte	0x1
 3986 0c29 1F       		.byte	0x1f
 3987 0c2a 00000000 		.4byte	.LFB199
 3988 0c2e 6C010000 		.4byte	.LFE199-.LFB199
 3989 0c32 01       		.uleb128 0x1
 3990 0c33 9C       		.byte	0x9c
 3991 0c34 2E0D0000 		.4byte	0xd2e
 3992 0c38 1F       		.uleb128 0x1f
 3993 0c39 7F8B0000 		.4byte	.LASF1605
 3994 0c3d 01       		.byte	0x1
 3995 0c3e 1F       		.byte	0x1f
 3996 0c3f CA000000 		.4byte	0xca
 3997 0c43 630A0000 		.4byte	.LLST39
 3998 0c47 20       		.uleb128 0x20
 3999 0c48 81AF0000 		.4byte	.LASF1611
 4000 0c4c 01       		.byte	0x1
 4001 0c4d 20       		.byte	0x20
 4002 0c4e C5040000 		.4byte	0x4c5
 4003 0c52 840A0000 		.4byte	.LLST40
 4004 0c56 20       		.uleb128 0x20
 4005 0c57 6B130000 		.4byte	.LASF1606
 4006 0c5b 01       		.byte	0x1
 4007 0c5c 23       		.byte	0x23
 4008 0c5d 8F020000 		.4byte	0x28f
 4009 0c61 B90A0000 		.4byte	.LLST41
 4010 0c65 22       		.uleb128 0x22
 4011 0c66 38010000 		.4byte	.Ldebug_ranges0+0x138
 4012 0c6a 050D0000 		.4byte	0xd05
 4013 0c6e 20       		.uleb128 0x20
 4014 0c6f 6B940000 		.4byte	.LASF1612
 4015 0c73 01       		.byte	0x1
 4016 0c74 65       		.byte	0x65
 4017 0c75 01050000 		.4byte	0x501
 4018 0c79 D90A0000 		.4byte	.LLST42
 4019 0c7d 22       		.uleb128 0x22
 4020 0c7e 40010000 		.4byte	.Ldebug_ranges0+0x140
 4021 0c82 DD0C0000 		.4byte	0xcdd
ARM GAS  /var/folders/z0/6xlwn_996xz3mwq1cgzkbq4r0000gp/T//cc3rPjEN.s 			page 87


 4022 0c86 27       		.uleb128 0x27
 4023 0c87 C8AA0000 		.4byte	.LASF1613
 4024 0c8b 01       		.byte	0x1
 4025 0c8c 6D       		.byte	0x6d
 4026 0c8d 2E0D0000 		.4byte	0xd2e
 4027 0c91 02       		.uleb128 0x2
 4028 0c92 91       		.byte	0x91
 4029 0c93 54       		.sleb128 -44
 4030 0c94 1B       		.uleb128 0x1b
 4031 0c95 72000000 		.4byte	.LVL180
 4032 0c99 41150000 		.4byte	0x1541
 4033 0c9d AD0C0000 		.4byte	0xcad
 4034 0ca1 1C       		.uleb128 0x1c
 4035 0ca2 01       		.uleb128 0x1
 4036 0ca3 51       		.byte	0x51
 4037 0ca4 02       		.uleb128 0x2
 4038 0ca5 91       		.byte	0x91
 4039 0ca6 54       		.sleb128 -44
 4040 0ca7 1C       		.uleb128 0x1c
 4041 0ca8 01       		.uleb128 0x1
 4042 0ca9 52       		.byte	0x52
 4043 0caa 01       		.uleb128 0x1
 4044 0cab 3A       		.byte	0x3a
 4045 0cac 00       		.byte	0
 4046 0cad 1B       		.uleb128 0x1b
 4047 0cae 78000000 		.4byte	.LVL181
 4048 0cb2 36150000 		.4byte	0x1536
 4049 0cb6 C10C0000 		.4byte	0xcc1
 4050 0cba 1C       		.uleb128 0x1c
 4051 0cbb 01       		.uleb128 0x1
 4052 0cbc 50       		.byte	0x50
 4053 0cbd 02       		.uleb128 0x2
 4054 0cbe 91       		.byte	0x91
 4055 0cbf 54       		.sleb128 -44
 4056 0cc0 00       		.byte	0
 4057 0cc1 28       		.uleb128 0x28
 4058 0cc2 A2000000 		.4byte	.LVL184
 4059 0cc6 36150000 		.4byte	0x1536
 4060 0cca 28       		.uleb128 0x28
 4061 0ccb B0000000 		.4byte	.LVL185
 4062 0ccf 36150000 		.4byte	0x1536
 4063 0cd3 28       		.uleb128 0x28
 4064 0cd4 BE000000 		.4byte	.LVL186
 4065 0cd8 36150000 		.4byte	0x1536
 4066 0cdc 00       		.byte	0
 4067 0cdd 1B       		.uleb128 0x1b
 4068 0cde 30000000 		.4byte	.LVL172
 4069 0ce2 2B150000 		.4byte	0x152b
 4070 0ce6 F10C0000 		.4byte	0xcf1
 4071 0cea 1C       		.uleb128 0x1c
 4072 0ceb 01       		.uleb128 0x1
 4073 0cec 50       		.byte	0x50
 4074 0ced 02       		.uleb128 0x2
 4075 0cee 76       		.byte	0x76
 4076 0cef 00       		.sleb128 0
 4077 0cf0 00       		.byte	0
 4078 0cf1 1D       		.uleb128 0x1d
ARM GAS  /var/folders/z0/6xlwn_996xz3mwq1cgzkbq4r0000gp/T//cc3rPjEN.s 			page 88


 4079 0cf2 44000000 		.4byte	.LVL175
 4080 0cf6 36150000 		.4byte	0x1536
 4081 0cfa 1C       		.uleb128 0x1c
 4082 0cfb 01       		.uleb128 0x1
 4083 0cfc 50       		.byte	0x50
 4084 0cfd 05       		.uleb128 0x5
 4085 0cfe 03       		.byte	0x3
 4086 0cff F8000000 		.4byte	.LC49
 4087 0d03 00       		.byte	0
 4088 0d04 00       		.byte	0
 4089 0d05 22       		.uleb128 0x22
 4090 0d06 58010000 		.4byte	.Ldebug_ranges0+0x158
 4091 0d0a 1D0D0000 		.4byte	0xd1d
 4092 0d0e 27       		.uleb128 0x27
 4093 0d0f C8AA0000 		.4byte	.LASF1613
 4094 0d13 01       		.byte	0x1
 4095 0d14 2C       		.byte	0x2c
 4096 0d15 2E0D0000 		.4byte	0xd2e
 4097 0d19 02       		.uleb128 0x2
 4098 0d1a 91       		.byte	0x91
 4099 0d1b 54       		.sleb128 -44
 4100 0d1c 00       		.byte	0
 4101 0d1d 1D       		.uleb128 0x1d
 4102 0d1e 18000000 		.4byte	.LVL167
 4103 0d22 2B150000 		.4byte	0x152b
 4104 0d26 1C       		.uleb128 0x1c
 4105 0d27 01       		.uleb128 0x1
 4106 0d28 50       		.byte	0x50
 4107 0d29 02       		.uleb128 0x2
 4108 0d2a 76       		.byte	0x76
 4109 0d2b 00       		.sleb128 0
 4110 0d2c 00       		.byte	0
 4111 0d2d 00       		.byte	0
 4112 0d2e 29       		.uleb128 0x29
 4113 0d2f 97000000 		.4byte	0x97
 4114 0d33 3E0D0000 		.4byte	0xd3e
 4115 0d37 2A       		.uleb128 0x2a
 4116 0d38 90000000 		.4byte	0x90
 4117 0d3c 13       		.byte	0x13
 4118 0d3d 00       		.byte	0
 4119 0d3e 2B       		.uleb128 0x2b
 4120 0d3f C4050000 		.4byte	0x5c4
 4121 0d43 00000000 		.4byte	.LFB205
 4122 0d47 50000000 		.4byte	.LFE205-.LFB205
 4123 0d4b 01       		.uleb128 0x1
 4124 0d4c 9C       		.byte	0x9c
 4125 0d4d AF0D0000 		.4byte	0xdaf
 4126 0d51 24       		.uleb128 0x24
 4127 0d52 D1050000 		.4byte	0x5d1
 4128 0d56 180B0000 		.4byte	.LLST43
 4129 0d5a 2C       		.uleb128 0x2c
 4130 0d5b 16000000 		.4byte	.LBB91
 4131 0d5f 3A000000 		.4byte	.LBE91-.LBB91
 4132 0d63 9B0D0000 		.4byte	0xd9b
 4133 0d67 24       		.uleb128 0x24
 4134 0d68 D1050000 		.4byte	0x5d1
 4135 0d6c 6B0B0000 		.4byte	.LLST44
ARM GAS  /var/folders/z0/6xlwn_996xz3mwq1cgzkbq4r0000gp/T//cc3rPjEN.s 			page 89


 4136 0d70 1B       		.uleb128 0x1b
 4137 0d71 2A000000 		.4byte	.LVL194
 4138 0d75 36150000 		.4byte	0x1536
 4139 0d79 870D0000 		.4byte	0xd87
 4140 0d7d 1C       		.uleb128 0x1c
 4141 0d7e 01       		.uleb128 0x1
 4142 0d7f 50       		.byte	0x50
 4143 0d80 05       		.uleb128 0x5
 4144 0d81 03       		.byte	0x3
 4145 0d82 10010000 		.4byte	.LC53
 4146 0d86 00       		.byte	0
 4147 0d87 1D       		.uleb128 0x1d
 4148 0d88 3A000000 		.4byte	.LVL197
 4149 0d8c 36150000 		.4byte	0x1536
 4150 0d90 1C       		.uleb128 0x1c
 4151 0d91 01       		.uleb128 0x1
 4152 0d92 50       		.byte	0x50
 4153 0d93 05       		.uleb128 0x5
 4154 0d94 03       		.byte	0x3
 4155 0d95 1C010000 		.4byte	.LC55
 4156 0d99 00       		.byte	0
 4157 0d9a 00       		.byte	0
 4158 0d9b 1D       		.uleb128 0x1d
 4159 0d9c 14000000 		.4byte	.LVL191
 4160 0da0 36150000 		.4byte	0x1536
 4161 0da4 1C       		.uleb128 0x1c
 4162 0da5 01       		.uleb128 0x1
 4163 0da6 50       		.byte	0x50
 4164 0da7 05       		.uleb128 0x5
 4165 0da8 03       		.byte	0x3
 4166 0da9 24010000 		.4byte	.LC57
 4167 0dad 00       		.byte	0
 4168 0dae 00       		.byte	0
 4169 0daf 2B       		.uleb128 0x2b
 4170 0db0 DE050000 		.4byte	0x5de
 4171 0db4 00000000 		.4byte	.LFB202
 4172 0db8 58000000 		.4byte	.LFE202-.LFB202
 4173 0dbc 01       		.uleb128 0x1
 4174 0dbd 9C       		.byte	0x9c
 4175 0dbe 920E0000 		.4byte	0xe92
 4176 0dc2 24       		.uleb128 0x24
 4177 0dc3 EA050000 		.4byte	0x5ea
 4178 0dc7 A50B0000 		.4byte	.LLST45
 4179 0dcb 26       		.uleb128 0x26
 4180 0dcc F5050000 		.4byte	0x5f5
 4181 0dd0 C60B0000 		.4byte	.LLST46
 4182 0dd4 26       		.uleb128 0x26
 4183 0dd5 00060000 		.4byte	0x600
 4184 0dd9 E60B0000 		.4byte	.LLST47
 4185 0ddd 2C       		.uleb128 0x2c
 4186 0dde 24000000 		.4byte	.LBB95
 4187 0de2 10000000 		.4byte	.LBE95-.LBB95
 4188 0de6 240E0000 		.4byte	0xe24
 4189 0dea 24       		.uleb128 0x24
 4190 0deb EA050000 		.4byte	0x5ea
 4191 0def 2A0C0000 		.4byte	.LLST48
 4192 0df3 2D       		.uleb128 0x2d
ARM GAS  /var/folders/z0/6xlwn_996xz3mwq1cgzkbq4r0000gp/T//cc3rPjEN.s 			page 90


 4193 0df4 24000000 		.4byte	.LBB96
 4194 0df8 10000000 		.4byte	.LBE96-.LBB96
 4195 0dfc 2E       		.uleb128 0x2e
 4196 0dfd F5050000 		.4byte	0x5f5
 4197 0e01 2E       		.uleb128 0x2e
 4198 0e02 00060000 		.4byte	0x600
 4199 0e06 28       		.uleb128 0x28
 4200 0e07 2C000000 		.4byte	.LVL206
 4201 0e0b 4C150000 		.4byte	0x154c
 4202 0e0f 1D       		.uleb128 0x1d
 4203 0e10 32000000 		.4byte	.LVL207
 4204 0e14 36150000 		.4byte	0x1536
 4205 0e18 1C       		.uleb128 0x1c
 4206 0e19 01       		.uleb128 0x1
 4207 0e1a 50       		.byte	0x50
 4208 0e1b 05       		.uleb128 0x5
 4209 0e1c 03       		.byte	0x3
 4210 0e1d C0000000 		.4byte	.LC32
 4211 0e21 00       		.byte	0
 4212 0e22 00       		.byte	0
 4213 0e23 00       		.byte	0
 4214 0e24 1B       		.uleb128 0x1b
 4215 0e25 0C000000 		.4byte	.LVL200
 4216 0e29 2B150000 		.4byte	0x152b
 4217 0e2d 410E0000 		.4byte	0xe41
 4218 0e31 1C       		.uleb128 0x1c
 4219 0e32 01       		.uleb128 0x1
 4220 0e33 50       		.byte	0x50
 4221 0e34 02       		.uleb128 0x2
 4222 0e35 74       		.byte	0x74
 4223 0e36 00       		.sleb128 0
 4224 0e37 1C       		.uleb128 0x1c
 4225 0e38 01       		.uleb128 0x1
 4226 0e39 51       		.byte	0x51
 4227 0e3a 05       		.uleb128 0x5
 4228 0e3b 03       		.byte	0x3
 4229 0e3c 38010000 		.4byte	.LC59
 4230 0e40 00       		.byte	0
 4231 0e41 1B       		.uleb128 0x1b
 4232 0e42 18000000 		.4byte	.LVL202
 4233 0e46 2B150000 		.4byte	0x152b
 4234 0e4a 5E0E0000 		.4byte	0xe5e
 4235 0e4e 1C       		.uleb128 0x1c
 4236 0e4f 01       		.uleb128 0x1
 4237 0e50 50       		.byte	0x50
 4238 0e51 02       		.uleb128 0x2
 4239 0e52 74       		.byte	0x74
 4240 0e53 00       		.sleb128 0
 4241 0e54 1C       		.uleb128 0x1c
 4242 0e55 01       		.uleb128 0x1
 4243 0e56 51       		.byte	0x51
 4244 0e57 05       		.uleb128 0x5
 4245 0e58 03       		.byte	0x3
 4246 0e59 40010000 		.4byte	.LC61
 4247 0e5d 00       		.byte	0
 4248 0e5e 1B       		.uleb128 0x1b
 4249 0e5f 22000000 		.4byte	.LVL204
ARM GAS  /var/folders/z0/6xlwn_996xz3mwq1cgzkbq4r0000gp/T//cc3rPjEN.s 			page 91


 4250 0e63 36150000 		.4byte	0x1536
 4251 0e67 750E0000 		.4byte	0xe75
 4252 0e6b 1C       		.uleb128 0x1c
 4253 0e6c 01       		.uleb128 0x1
 4254 0e6d 50       		.byte	0x50
 4255 0e6e 05       		.uleb128 0x5
 4256 0e6f 03       		.byte	0x3
 4257 0e70 E4000000 		.4byte	.LC36
 4258 0e74 00       		.byte	0
 4259 0e75 28       		.uleb128 0x28
 4260 0e76 3C000000 		.4byte	.LVL209
 4261 0e7a 57150000 		.4byte	0x1557
 4262 0e7e 1D       		.uleb128 0x1d
 4263 0e7f 42000000 		.4byte	.LVL210
 4264 0e83 36150000 		.4byte	0x1536
 4265 0e87 1C       		.uleb128 0x1c
 4266 0e88 01       		.uleb128 0x1
 4267 0e89 50       		.byte	0x50
 4268 0e8a 05       		.uleb128 0x5
 4269 0e8b 03       		.byte	0x3
 4270 0e8c C0000000 		.4byte	.LC32
 4271 0e90 00       		.byte	0
 4272 0e91 00       		.byte	0
 4273 0e92 2B       		.uleb128 0x2b
 4274 0e93 0C060000 		.4byte	0x60c
 4275 0e97 00000000 		.4byte	.LFB201
 4276 0e9b B4000000 		.4byte	.LFE201-.LFB201
 4277 0e9f 01       		.uleb128 0x1
 4278 0ea0 9C       		.byte	0x9c
 4279 0ea1 F30F0000 		.4byte	0xff3
 4280 0ea5 24       		.uleb128 0x24
 4281 0ea6 18060000 		.4byte	0x618
 4282 0eaa 400C0000 		.4byte	.LLST49
 4283 0eae 26       		.uleb128 0x26
 4284 0eaf 23060000 		.4byte	0x623
 4285 0eb3 610C0000 		.4byte	.LLST50
 4286 0eb7 2C       		.uleb128 0x2c
 4287 0eb8 3E000000 		.4byte	.LBB101
 4288 0ebc 76000000 		.4byte	.LBE101-.LBB101
 4289 0ec0 970F0000 		.4byte	0xf97
 4290 0ec4 2F       		.uleb128 0x2f
 4291 0ec5 18060000 		.4byte	0x618
 4292 0ec9 04       		.uleb128 0x4
 4293 0eca F3       		.byte	0xf3
 4294 0ecb 01       		.uleb128 0x1
 4295 0ecc 50       		.byte	0x50
 4296 0ecd 9F       		.byte	0x9f
 4297 0ece 2D       		.uleb128 0x2d
 4298 0ecf 3E000000 		.4byte	.LBB102
 4299 0ed3 76000000 		.4byte	.LBE102-.LBB102
 4300 0ed7 2E       		.uleb128 0x2e
 4301 0ed8 23060000 		.4byte	0x623
 4302 0edc 2D       		.uleb128 0x2d
 4303 0edd 3E000000 		.4byte	.LBB103
 4304 0ee1 76000000 		.4byte	.LBE103-.LBB103
 4305 0ee5 26       		.uleb128 0x26
 4306 0ee6 2F060000 		.4byte	0x62f
ARM GAS  /var/folders/z0/6xlwn_996xz3mwq1cgzkbq4r0000gp/T//cc3rPjEN.s 			page 92


 4307 0eea 960C0000 		.4byte	.LLST51
 4308 0eee 1B       		.uleb128 0x1b
 4309 0eef 44000000 		.4byte	.LVL222
 4310 0ef3 62150000 		.4byte	0x1562
 4311 0ef7 050F0000 		.4byte	0xf05
 4312 0efb 1C       		.uleb128 0x1c
 4313 0efc 01       		.uleb128 0x1
 4314 0efd 50       		.byte	0x50
 4315 0efe 05       		.uleb128 0x5
 4316 0eff 03       		.byte	0x3
 4317 0f00 50010000 		.4byte	.LC73
 4318 0f04 00       		.byte	0
 4319 0f05 28       		.uleb128 0x28
 4320 0f06 54000000 		.4byte	.LVL225
 4321 0f0a 62150000 		.4byte	0x1562
 4322 0f0e 1B       		.uleb128 0x1b
 4323 0f0f 5E000000 		.4byte	.LVL226
 4324 0f13 62150000 		.4byte	0x1562
 4325 0f17 250F0000 		.4byte	0xf25
 4326 0f1b 1C       		.uleb128 0x1c
 4327 0f1c 01       		.uleb128 0x1
 4328 0f1d 50       		.byte	0x50
 4329 0f1e 05       		.uleb128 0x5
 4330 0f1f 03       		.byte	0x3
 4331 0f20 68010000 		.4byte	.LC76
 4332 0f24 00       		.byte	0
 4333 0f25 1B       		.uleb128 0x1b
 4334 0f26 64000000 		.4byte	.LVL227
 4335 0f2a 62150000 		.4byte	0x1562
 4336 0f2e 3C0F0000 		.4byte	0xf3c
 4337 0f32 1C       		.uleb128 0x1c
 4338 0f33 01       		.uleb128 0x1
 4339 0f34 50       		.byte	0x50
 4340 0f35 05       		.uleb128 0x5
 4341 0f36 03       		.byte	0x3
 4342 0f37 94000000 		.4byte	.LC26
 4343 0f3b 00       		.byte	0
 4344 0f3c 1B       		.uleb128 0x1b
 4345 0f3d 6A000000 		.4byte	.LVL228
 4346 0f41 62150000 		.4byte	0x1562
 4347 0f45 530F0000 		.4byte	0xf53
 4348 0f49 1C       		.uleb128 0x1c
 4349 0f4a 01       		.uleb128 0x1
 4350 0f4b 50       		.byte	0x50
 4351 0f4c 05       		.uleb128 0x5
 4352 0f4d 03       		.byte	0x3
 4353 0f4e 80010000 		.4byte	.LC79
 4354 0f52 00       		.byte	0
 4355 0f53 1B       		.uleb128 0x1b
 4356 0f54 70000000 		.4byte	.LVL229
 4357 0f58 62150000 		.4byte	0x1562
 4358 0f5c 6A0F0000 		.4byte	0xf6a
 4359 0f60 1C       		.uleb128 0x1c
 4360 0f61 01       		.uleb128 0x1
 4361 0f62 50       		.byte	0x50
 4362 0f63 05       		.uleb128 0x5
 4363 0f64 03       		.byte	0x3
ARM GAS  /var/folders/z0/6xlwn_996xz3mwq1cgzkbq4r0000gp/T//cc3rPjEN.s 			page 93


 4364 0f65 94010000 		.4byte	.LC81
 4365 0f69 00       		.byte	0
 4366 0f6a 1B       		.uleb128 0x1b
 4367 0f6b 76000000 		.4byte	.LVL230
 4368 0f6f 62150000 		.4byte	0x1562
 4369 0f73 810F0000 		.4byte	0xf81
 4370 0f77 1C       		.uleb128 0x1c
 4371 0f78 01       		.uleb128 0x1
 4372 0f79 50       		.byte	0x50
 4373 0f7a 05       		.uleb128 0x5
 4374 0f7b 03       		.byte	0x3
 4375 0f7c A4010000 		.4byte	.LC83
 4376 0f80 00       		.byte	0
 4377 0f81 1D       		.uleb128 0x1d
 4378 0f82 7C000000 		.4byte	.LVL231
 4379 0f86 62150000 		.4byte	0x1562
 4380 0f8a 1C       		.uleb128 0x1c
 4381 0f8b 01       		.uleb128 0x1
 4382 0f8c 50       		.byte	0x50
 4383 0f8d 05       		.uleb128 0x5
 4384 0f8e 03       		.byte	0x3
 4385 0f8f B4010000 		.4byte	.LC85
 4386 0f93 00       		.byte	0
 4387 0f94 00       		.byte	0
 4388 0f95 00       		.byte	0
 4389 0f96 00       		.byte	0
 4390 0f97 1B       		.uleb128 0x1b
 4391 0f98 14000000 		.4byte	.LVL214
 4392 0f9c 2B150000 		.4byte	0x152b
 4393 0fa0 AB0F0000 		.4byte	0xfab
 4394 0fa4 1C       		.uleb128 0x1c
 4395 0fa5 01       		.uleb128 0x1
 4396 0fa6 50       		.byte	0x50
 4397 0fa7 02       		.uleb128 0x2
 4398 0fa8 76       		.byte	0x76
 4399 0fa9 00       		.sleb128 0
 4400 0faa 00       		.byte	0
 4401 0fab 1B       		.uleb128 0x1b
 4402 0fac 28000000 		.4byte	.LVL217
 4403 0fb0 6D150000 		.4byte	0x156d
 4404 0fb4 C20F0000 		.4byte	0xfc2
 4405 0fb8 1C       		.uleb128 0x1c
 4406 0fb9 01       		.uleb128 0x1
 4407 0fba 50       		.byte	0x50
 4408 0fbb 05       		.uleb128 0x5
 4409 0fbc 03       		.byte	0x3
 4410 0fbd 4C010000 		.4byte	.LC71
 4411 0fc1 00       		.byte	0
 4412 0fc2 1B       		.uleb128 0x1b
 4413 0fc3 34000000 		.4byte	.LVL219
 4414 0fc7 62150000 		.4byte	0x1562
 4415 0fcb DF0F0000 		.4byte	0xfdf
 4416 0fcf 1C       		.uleb128 0x1c
 4417 0fd0 01       		.uleb128 0x1
 4418 0fd1 50       		.byte	0x50
 4419 0fd2 0B       		.uleb128 0xb
 4420 0fd3 74       		.byte	0x74
ARM GAS  /var/folders/z0/6xlwn_996xz3mwq1cgzkbq4r0000gp/T//cc3rPjEN.s 			page 94


 4421 0fd4 00       		.sleb128 0
 4422 0fd5 32       		.byte	0x32
 4423 0fd6 24       		.byte	0x24
 4424 0fd7 03       		.byte	0x3
 4425 0fd8 00000000 		.4byte	.LANCHOR7
 4426 0fdc 22       		.byte	0x22
 4427 0fdd 06       		.byte	0x6
 4428 0fde 00       		.byte	0
 4429 0fdf 1D       		.uleb128 0x1d
 4430 0fe0 3A000000 		.4byte	.LVL220
 4431 0fe4 6D150000 		.4byte	0x156d
 4432 0fe8 1C       		.uleb128 0x1c
 4433 0fe9 01       		.uleb128 0x1
 4434 0fea 50       		.byte	0x50
 4435 0feb 05       		.uleb128 0x5
 4436 0fec 03       		.byte	0x3
 4437 0fed 4C010000 		.4byte	.LC71
 4438 0ff1 00       		.byte	0
 4439 0ff2 00       		.byte	0
 4440 0ff3 2B       		.uleb128 0x2b
 4441 0ff4 6A060000 		.4byte	0x66a
 4442 0ff8 00000000 		.4byte	.LFB204
 4443 0ffc 88000000 		.4byte	.LFE204-.LFB204
 4444 1000 01       		.uleb128 0x1
 4445 1001 9C       		.byte	0x9c
 4446 1002 B3100000 		.4byte	0x10b3
 4447 1006 24       		.uleb128 0x24
 4448 1007 77060000 		.4byte	0x677
 4449 100b F20C0000 		.4byte	.LLST52
 4450 100f 22       		.uleb128 0x22
 4451 1010 70010000 		.4byte	.Ldebug_ranges0+0x170
 4452 1014 35100000 		.4byte	0x1035
 4453 1018 24       		.uleb128 0x24
 4454 1019 77060000 		.4byte	0x677
 4455 101d 2C0D0000 		.4byte	.LLST53
 4456 1021 1D       		.uleb128 0x1d
 4457 1022 68000000 		.4byte	.LVL246
 4458 1026 36150000 		.4byte	0x1536
 4459 102a 1C       		.uleb128 0x1c
 4460 102b 01       		.uleb128 0x1
 4461 102c 50       		.byte	0x50
 4462 102d 05       		.uleb128 0x5
 4463 102e 03       		.byte	0x3
 4464 102f BC010000 		.4byte	.LC91
 4465 1033 00       		.byte	0
 4466 1034 00       		.byte	0
 4467 1035 30       		.uleb128 0x30
 4468 1036 3A060000 		.4byte	0x63a
 4469 103a 30000000 		.4byte	.LBB113
 4470 103e 88010000 		.4byte	.Ldebug_ranges0+0x188
 4471 1042 01       		.byte	0x1
 4472 1043 4601     		.2byte	0x146
 4473 1045 6B100000 		.4byte	0x106b
 4474 1049 24       		.uleb128 0x24
 4475 104a 4A060000 		.4byte	0x64a
 4476 104e 420D0000 		.4byte	.LLST54
 4477 1052 25       		.uleb128 0x25
ARM GAS  /var/folders/z0/6xlwn_996xz3mwq1cgzkbq4r0000gp/T//cc3rPjEN.s 			page 95


 4478 1053 88010000 		.4byte	.Ldebug_ranges0+0x188
 4479 1057 26       		.uleb128 0x26
 4480 1058 55060000 		.4byte	0x655
 4481 105c 600D0000 		.4byte	.LLST55
 4482 1060 26       		.uleb128 0x26
 4483 1061 60060000 		.4byte	0x660
 4484 1065 960D0000 		.4byte	.LLST56
 4485 1069 00       		.byte	0
 4486 106a 00       		.byte	0
 4487 106b 1B       		.uleb128 0x1b
 4488 106c 16000000 		.4byte	.LVL234
 4489 1070 36150000 		.4byte	0x1536
 4490 1074 82100000 		.4byte	0x1082
 4491 1078 1C       		.uleb128 0x1c
 4492 1079 01       		.uleb128 0x1
 4493 107a 50       		.byte	0x50
 4494 107b 05       		.uleb128 0x5
 4495 107c 03       		.byte	0x3
 4496 107d 24010000 		.4byte	.LC57
 4497 1081 00       		.byte	0
 4498 1082 1B       		.uleb128 0x1b
 4499 1083 22000000 		.4byte	.LVL237
 4500 1087 2B150000 		.4byte	0x152b
 4501 108b 9F100000 		.4byte	0x109f
 4502 108f 1C       		.uleb128 0x1c
 4503 1090 01       		.uleb128 0x1
 4504 1091 50       		.byte	0x50
 4505 1092 02       		.uleb128 0x2
 4506 1093 74       		.byte	0x74
 4507 1094 00       		.sleb128 0
 4508 1095 1C       		.uleb128 0x1c
 4509 1096 01       		.uleb128 0x1
 4510 1097 51       		.byte	0x51
 4511 1098 05       		.uleb128 0x5
 4512 1099 03       		.byte	0x3
 4513 109a 10000000 		.4byte	.LC5
 4514 109e 00       		.byte	0
 4515 109f 1D       		.uleb128 0x1d
 4516 10a0 56000000 		.4byte	.LVL244
 4517 10a4 36150000 		.4byte	0x1536
 4518 10a8 1C       		.uleb128 0x1c
 4519 10a9 01       		.uleb128 0x1
 4520 10aa 50       		.byte	0x50
 4521 10ab 05       		.uleb128 0x5
 4522 10ac 03       		.byte	0x3
 4523 10ad C4010000 		.4byte	.LC93
 4524 10b1 00       		.byte	0
 4525 10b2 00       		.byte	0
 4526 10b3 2B       		.uleb128 0x2b
 4527 10b4 3A060000 		.4byte	0x63a
 4528 10b8 00000000 		.4byte	.LFB198
 4529 10bc 24000000 		.4byte	.LFE198-.LFB198
 4530 10c0 01       		.uleb128 0x1
 4531 10c1 9C       		.byte	0x9c
 4532 10c2 E2100000 		.4byte	0x10e2
 4533 10c6 24       		.uleb128 0x24
 4534 10c7 4A060000 		.4byte	0x64a
ARM GAS  /var/folders/z0/6xlwn_996xz3mwq1cgzkbq4r0000gp/T//cc3rPjEN.s 			page 96


 4535 10cb D90D0000 		.4byte	.LLST57
 4536 10cf 26       		.uleb128 0x26
 4537 10d0 55060000 		.4byte	0x655
 4538 10d4 130E0000 		.4byte	.LLST58
 4539 10d8 26       		.uleb128 0x26
 4540 10d9 60060000 		.4byte	0x660
 4541 10dd 490E0000 		.4byte	.LLST59
 4542 10e1 00       		.byte	0
 4543 10e2 31       		.uleb128 0x31
 4544 10e3 39010000 		.4byte	.LASF1617
 4545 10e7 01       		.byte	0x1
 4546 10e8 6101     		.2byte	0x161
 4547 10ea 00000000 		.4byte	.LFB206
 4548 10ee 2C000000 		.4byte	.LFE206-.LFB206
 4549 10f2 01       		.uleb128 0x1
 4550 10f3 9C       		.byte	0x9c
 4551 10f4 25110000 		.4byte	0x1125
 4552 10f8 32       		.uleb128 0x32
 4553 10f9 4A670000 		.4byte	.LASF1614
 4554 10fd 01       		.byte	0x1
 4555 10fe 6101     		.2byte	0x161
 4556 1100 25110000 		.4byte	0x1125
 4557 1104 01       		.uleb128 0x1
 4558 1105 50       		.byte	0x50
 4559 1106 1A       		.uleb128 0x1a
 4560 1107 29660000 		.4byte	.LASF1615
 4561 110b 01       		.byte	0x1
 4562 110c 6101     		.2byte	0x161
 4563 110e 2B110000 		.4byte	0x112b
 4564 1112 8E0E0000 		.4byte	.LLST60
 4565 1116 32       		.uleb128 0x32
 4566 1117 C8940000 		.4byte	.LASF1616
 4567 111b 01       		.byte	0x1
 4568 111c 6101     		.2byte	0x161
 4569 111e 31110000 		.4byte	0x1131
 4570 1122 01       		.uleb128 0x1
 4571 1123 52       		.byte	0x52
 4572 1124 00       		.byte	0
 4573 1125 05       		.uleb128 0x5
 4574 1126 04       		.byte	0x4
 4575 1127 8D030000 		.4byte	0x38d
 4576 112b 05       		.uleb128 0x5
 4577 112c 04       		.byte	0x4
 4578 112d 17040000 		.4byte	0x417
 4579 1131 05       		.uleb128 0x5
 4580 1132 04       		.byte	0x4
 4581 1133 B4050000 		.4byte	0x5b4
 4582 1137 31       		.uleb128 0x31
 4583 1138 3E190000 		.4byte	.LASF1618
 4584 113c 01       		.byte	0x1
 4585 113d 6E01     		.2byte	0x16e
 4586 113f 00000000 		.4byte	.LFB207
 4587 1143 6C000000 		.4byte	.LFE207-.LFB207
 4588 1147 01       		.uleb128 0x1
 4589 1148 9C       		.byte	0x9c
 4590 1149 E6110000 		.4byte	0x11e6
 4591 114d 1A       		.uleb128 0x1a
ARM GAS  /var/folders/z0/6xlwn_996xz3mwq1cgzkbq4r0000gp/T//cc3rPjEN.s 			page 97


 4592 114e FA8A0000 		.4byte	.LASF1619
 4593 1152 01       		.byte	0x1
 4594 1153 6E01     		.2byte	0x16e
 4595 1155 B4000000 		.4byte	0xb4
 4596 1159 B00E0000 		.4byte	.LLST61
 4597 115d 1A       		.uleb128 0x1a
 4598 115e 7F8B0000 		.4byte	.LASF1605
 4599 1162 01       		.byte	0x1
 4600 1163 6E01     		.2byte	0x16e
 4601 1165 CA000000 		.4byte	0xca
 4602 1169 F40E0000 		.4byte	.LLST62
 4603 116d 33       		.uleb128 0x33
 4604 116e 982A0000 		.4byte	.LASF1609
 4605 1172 01       		.byte	0x1
 4606 1173 6F01     		.2byte	0x16f
 4607 1175 BF000000 		.4byte	0xbf
 4608 1179 2B0F0000 		.4byte	.LLST63
 4609 117d 33       		.uleb128 0x33
 4610 117e 8F250000 		.4byte	.LASF1620
 4611 1182 01       		.byte	0x1
 4612 1183 7001     		.2byte	0x170
 4613 1185 8F020000 		.4byte	0x28f
 4614 1189 550F0000 		.4byte	.LLST64
 4615 118d 1B       		.uleb128 0x1b
 4616 118e 1C000000 		.4byte	.LVL262
 4617 1192 2B150000 		.4byte	0x152b
 4618 1196 A1110000 		.4byte	0x11a1
 4619 119a 1C       		.uleb128 0x1c
 4620 119b 01       		.uleb128 0x1
 4621 119c 50       		.byte	0x50
 4622 119d 02       		.uleb128 0x2
 4623 119e 76       		.byte	0x76
 4624 119f 00       		.sleb128 0
 4625 11a0 00       		.byte	0
 4626 11a1 1B       		.uleb128 0x1b
 4627 11a2 2E000000 		.4byte	.LVL264
 4628 11a6 36150000 		.4byte	0x1536
 4629 11aa B8110000 		.4byte	0x11b8
 4630 11ae 1C       		.uleb128 0x1c
 4631 11af 01       		.uleb128 0x1
 4632 11b0 50       		.byte	0x50
 4633 11b1 05       		.uleb128 0x5
 4634 11b2 03       		.byte	0x3
 4635 11b3 E8010000 		.4byte	.LC105
 4636 11b7 00       		.byte	0
 4637 11b8 1B       		.uleb128 0x1b
 4638 11b9 44000000 		.4byte	.LVL268
 4639 11bd 36150000 		.4byte	0x1536
 4640 11c1 CF110000 		.4byte	0x11cf
 4641 11c5 1C       		.uleb128 0x1c
 4642 11c6 01       		.uleb128 0x1
 4643 11c7 50       		.byte	0x50
 4644 11c8 05       		.uleb128 0x5
 4645 11c9 03       		.byte	0x3
 4646 11ca CC010000 		.4byte	.LC102
 4647 11ce 00       		.byte	0
 4648 11cf 34       		.uleb128 0x34
ARM GAS  /var/folders/z0/6xlwn_996xz3mwq1cgzkbq4r0000gp/T//cc3rPjEN.s 			page 98


 4649 11d0 50000000 		.4byte	.LVL270
 4650 11d4 09       		.uleb128 0x9
 4651 11d5 74       		.byte	0x74
 4652 11d6 00       		.sleb128 0
 4653 11d7 03       		.byte	0x3
 4654 11d8 00000000 		.4byte	.LANCHOR8
 4655 11dc 22       		.byte	0x22
 4656 11dd 06       		.byte	0x6
 4657 11de 1C       		.uleb128 0x1c
 4658 11df 01       		.uleb128 0x1
 4659 11e0 50       		.byte	0x50
 4660 11e1 02       		.uleb128 0x2
 4661 11e2 78       		.byte	0x78
 4662 11e3 00       		.sleb128 0
 4663 11e4 00       		.byte	0
 4664 11e5 00       		.byte	0
 4665 11e6 31       		.uleb128 0x31
 4666 11e7 3D970000 		.4byte	.LASF1621
 4667 11eb 01       		.byte	0x1
 4668 11ec 8601     		.2byte	0x186
 4669 11ee 00000000 		.4byte	.LFB208
 4670 11f2 B4000000 		.4byte	.LFE208-.LFB208
 4671 11f6 01       		.uleb128 0x1
 4672 11f7 9C       		.byte	0x9c
 4673 11f8 8A130000 		.4byte	0x138a
 4674 11fc 1A       		.uleb128 0x1a
 4675 11fd 4D060000 		.4byte	.LASF1622
 4676 1201 01       		.byte	0x1
 4677 1202 8701     		.2byte	0x187
 4678 1204 31110000 		.4byte	0x1131
 4679 1208 750F0000 		.4byte	.LLST65
 4680 120c 1A       		.uleb128 0x1a
 4681 120d 77050000 		.4byte	.LASF1623
 4682 1211 01       		.byte	0x1
 4683 1212 8801     		.2byte	0x188
 4684 1214 25110000 		.4byte	0x1125
 4685 1218 B70F0000 		.4byte	.LLST66
 4686 121c 1A       		.uleb128 0x1a
 4687 121d 33680000 		.4byte	.LASF1624
 4688 1221 01       		.byte	0x1
 4689 1222 8901     		.2byte	0x189
 4690 1224 2B110000 		.4byte	0x112b
 4691 1228 04100000 		.4byte	.LLST67
 4692 122c 1A       		.uleb128 0x1a
 4693 122d DB810000 		.4byte	.LASF1535
 4694 1231 01       		.byte	0x1
 4695 1232 8A01     		.2byte	0x18a
 4696 1234 BF000000 		.4byte	0xbf
 4697 1238 25100000 		.4byte	.LLST68
 4698 123c 35       		.uleb128 0x35
 4699 123d C8AA0000 		.4byte	.LASF1613
 4700 1241 01       		.byte	0x1
 4701 1242 8D01     		.2byte	0x18d
 4702 1244 2E0D0000 		.4byte	0xd2e
 4703 1248 02       		.uleb128 0x2
 4704 1249 91       		.byte	0x91
 4705 124a 54       		.sleb128 -44
ARM GAS  /var/folders/z0/6xlwn_996xz3mwq1cgzkbq4r0000gp/T//cc3rPjEN.s 			page 99


 4706 124b 25       		.uleb128 0x25
 4707 124c A0010000 		.4byte	.Ldebug_ranges0+0x1a0
 4708 1250 33       		.uleb128 0x33
 4709 1251 745C0000 		.4byte	.LASF1625
 4710 1255 01       		.byte	0x1
 4711 1256 9101     		.2byte	0x191
 4712 1258 8F020000 		.4byte	0x28f
 4713 125c 5C100000 		.4byte	.LLST69
 4714 1260 33       		.uleb128 0x33
 4715 1261 C3280000 		.4byte	.LASF1626
 4716 1265 01       		.byte	0x1
 4717 1266 9D01     		.2byte	0x19d
 4718 1268 8F020000 		.4byte	0x28f
 4719 126c A0100000 		.4byte	.LLST70
 4720 1270 1B       		.uleb128 0x1b
 4721 1271 46000000 		.4byte	.LVL281
 4722 1275 41150000 		.4byte	0x1541
 4723 1279 8F120000 		.4byte	0x128f
 4724 127d 1C       		.uleb128 0x1c
 4725 127e 01       		.uleb128 0x1
 4726 127f 50       		.byte	0x50
 4727 1280 02       		.uleb128 0x2
 4728 1281 75       		.byte	0x75
 4729 1282 00       		.sleb128 0
 4730 1283 1C       		.uleb128 0x1c
 4731 1284 01       		.uleb128 0x1
 4732 1285 51       		.byte	0x51
 4733 1286 02       		.uleb128 0x2
 4734 1287 91       		.byte	0x91
 4735 1288 54       		.sleb128 -44
 4736 1289 1C       		.uleb128 0x1c
 4737 128a 01       		.uleb128 0x1
 4738 128b 52       		.byte	0x52
 4739 128c 01       		.uleb128 0x1
 4740 128d 3A       		.byte	0x3a
 4741 128e 00       		.byte	0
 4742 128f 1B       		.uleb128 0x1b
 4743 1290 4C000000 		.4byte	.LVL282
 4744 1294 78150000 		.4byte	0x1578
 4745 1298 A3120000 		.4byte	0x12a3
 4746 129c 1C       		.uleb128 0x1c
 4747 129d 01       		.uleb128 0x1
 4748 129e 50       		.byte	0x50
 4749 129f 02       		.uleb128 0x2
 4750 12a0 91       		.byte	0x91
 4751 12a1 54       		.sleb128 -44
 4752 12a2 00       		.byte	0
 4753 12a3 1B       		.uleb128 0x1b
 4754 12a4 52000000 		.4byte	.LVL283
 4755 12a8 78150000 		.4byte	0x1578
 4756 12ac BA120000 		.4byte	0x12ba
 4757 12b0 1C       		.uleb128 0x1c
 4758 12b1 01       		.uleb128 0x1
 4759 12b2 50       		.byte	0x50
 4760 12b3 05       		.uleb128 0x5
 4761 12b4 03       		.byte	0x3
 4762 12b5 0C020000 		.4byte	.LC113
ARM GAS  /var/folders/z0/6xlwn_996xz3mwq1cgzkbq4r0000gp/T//cc3rPjEN.s 			page 100


 4763 12b9 00       		.byte	0
 4764 12ba 1B       		.uleb128 0x1b
 4765 12bb 5E000000 		.4byte	.LVL284
 4766 12bf 41150000 		.4byte	0x1541
 4767 12c3 D3120000 		.4byte	0x12d3
 4768 12c7 1C       		.uleb128 0x1c
 4769 12c8 01       		.uleb128 0x1
 4770 12c9 51       		.byte	0x51
 4771 12ca 02       		.uleb128 0x2
 4772 12cb 91       		.byte	0x91
 4773 12cc 54       		.sleb128 -44
 4774 12cd 1C       		.uleb128 0x1c
 4775 12ce 01       		.uleb128 0x1
 4776 12cf 52       		.byte	0x52
 4777 12d0 01       		.uleb128 0x1
 4778 12d1 3A       		.byte	0x3a
 4779 12d2 00       		.byte	0
 4780 12d3 1B       		.uleb128 0x1b
 4781 12d4 64000000 		.4byte	.LVL285
 4782 12d8 62150000 		.4byte	0x1562
 4783 12dc E7120000 		.4byte	0x12e7
 4784 12e0 1C       		.uleb128 0x1c
 4785 12e1 01       		.uleb128 0x1
 4786 12e2 50       		.byte	0x50
 4787 12e3 02       		.uleb128 0x2
 4788 12e4 91       		.byte	0x91
 4789 12e5 54       		.sleb128 -44
 4790 12e6 00       		.byte	0
 4791 12e7 1B       		.uleb128 0x1b
 4792 12e8 6A000000 		.4byte	.LVL286
 4793 12ec 78150000 		.4byte	0x1578
 4794 12f0 FE120000 		.4byte	0x12fe
 4795 12f4 1C       		.uleb128 0x1c
 4796 12f5 01       		.uleb128 0x1
 4797 12f6 50       		.byte	0x50
 4798 12f7 05       		.uleb128 0x5
 4799 12f8 03       		.byte	0x3
 4800 12f9 08020000 		.4byte	.LC110
 4801 12fd 00       		.byte	0
 4802 12fe 1B       		.uleb128 0x1b
 4803 12ff 78000000 		.4byte	.LVL290
 4804 1303 41150000 		.4byte	0x1541
 4805 1307 1D130000 		.4byte	0x131d
 4806 130b 1C       		.uleb128 0x1c
 4807 130c 01       		.uleb128 0x1
 4808 130d 50       		.byte	0x50
 4809 130e 02       		.uleb128 0x2
 4810 130f 75       		.byte	0x75
 4811 1310 00       		.sleb128 0
 4812 1311 1C       		.uleb128 0x1c
 4813 1312 01       		.uleb128 0x1
 4814 1313 51       		.byte	0x51
 4815 1314 02       		.uleb128 0x2
 4816 1315 91       		.byte	0x91
 4817 1316 54       		.sleb128 -44
 4818 1317 1C       		.uleb128 0x1c
 4819 1318 01       		.uleb128 0x1
ARM GAS  /var/folders/z0/6xlwn_996xz3mwq1cgzkbq4r0000gp/T//cc3rPjEN.s 			page 101


 4820 1319 52       		.byte	0x52
 4821 131a 01       		.uleb128 0x1
 4822 131b 3A       		.byte	0x3a
 4823 131c 00       		.byte	0
 4824 131d 1B       		.uleb128 0x1b
 4825 131e 7E000000 		.4byte	.LVL291
 4826 1322 78150000 		.4byte	0x1578
 4827 1326 31130000 		.4byte	0x1331
 4828 132a 1C       		.uleb128 0x1c
 4829 132b 01       		.uleb128 0x1
 4830 132c 50       		.byte	0x50
 4831 132d 02       		.uleb128 0x2
 4832 132e 91       		.byte	0x91
 4833 132f 54       		.sleb128 -44
 4834 1330 00       		.byte	0
 4835 1331 1B       		.uleb128 0x1b
 4836 1332 84000000 		.4byte	.LVL292
 4837 1336 78150000 		.4byte	0x1578
 4838 133a 48130000 		.4byte	0x1348
 4839 133e 1C       		.uleb128 0x1c
 4840 133f 01       		.uleb128 0x1
 4841 1340 50       		.byte	0x50
 4842 1341 05       		.uleb128 0x5
 4843 1342 03       		.byte	0x3
 4844 1343 00020000 		.4byte	.LC108
 4845 1347 00       		.byte	0
 4846 1348 1B       		.uleb128 0x1b
 4847 1349 90000000 		.4byte	.LVL293
 4848 134d 41150000 		.4byte	0x1541
 4849 1351 61130000 		.4byte	0x1361
 4850 1355 1C       		.uleb128 0x1c
 4851 1356 01       		.uleb128 0x1
 4852 1357 51       		.byte	0x51
 4853 1358 02       		.uleb128 0x2
 4854 1359 91       		.byte	0x91
 4855 135a 54       		.sleb128 -44
 4856 135b 1C       		.uleb128 0x1c
 4857 135c 01       		.uleb128 0x1
 4858 135d 52       		.byte	0x52
 4859 135e 01       		.uleb128 0x1
 4860 135f 3A       		.byte	0x3a
 4861 1360 00       		.byte	0
 4862 1361 1B       		.uleb128 0x1b
 4863 1362 96000000 		.4byte	.LVL294
 4864 1366 62150000 		.4byte	0x1562
 4865 136a 75130000 		.4byte	0x1375
 4866 136e 1C       		.uleb128 0x1c
 4867 136f 01       		.uleb128 0x1
 4868 1370 50       		.byte	0x50
 4869 1371 02       		.uleb128 0x2
 4870 1372 91       		.byte	0x91
 4871 1373 54       		.sleb128 -44
 4872 1374 00       		.byte	0
 4873 1375 1D       		.uleb128 0x1d
 4874 1376 9C000000 		.4byte	.LVL295
 4875 137a 78150000 		.4byte	0x1578
 4876 137e 1C       		.uleb128 0x1c
ARM GAS  /var/folders/z0/6xlwn_996xz3mwq1cgzkbq4r0000gp/T//cc3rPjEN.s 			page 102


 4877 137f 01       		.uleb128 0x1
 4878 1380 50       		.byte	0x50
 4879 1381 05       		.uleb128 0x5
 4880 1382 03       		.byte	0x3
 4881 1383 08020000 		.4byte	.LC110
 4882 1387 00       		.byte	0
 4883 1388 00       		.byte	0
 4884 1389 00       		.byte	0
 4885 138a 29       		.uleb128 0x29
 4886 138b D0000000 		.4byte	0xd0
 4887 138f 9A130000 		.4byte	0x139a
 4888 1393 2A       		.uleb128 0x2a
 4889 1394 90000000 		.4byte	0x90
 4890 1398 03       		.byte	0x3
 4891 1399 00       		.byte	0
 4892 139a 27       		.uleb128 0x27
 4893 139b A9530000 		.4byte	.LASF1627
 4894 139f 04       		.byte	0x4
 4895 13a0 26       		.byte	0x26
 4896 13a1 AB130000 		.4byte	0x13ab
 4897 13a5 05       		.uleb128 0x5
 4898 13a6 03       		.byte	0x3
 4899 13a7 00000000 		.4byte	CSB_SSM_MODE_NAMES
 4900 13ab 06       		.uleb128 0x6
 4901 13ac 8A130000 		.4byte	0x138a
 4902 13b0 29       		.uleb128 0x29
 4903 13b1 D0000000 		.4byte	0xd0
 4904 13b5 C0130000 		.4byte	0x13c0
 4905 13b9 2A       		.uleb128 0x2a
 4906 13ba 90000000 		.4byte	0x90
 4907 13be 06       		.byte	0x6
 4908 13bf 00       		.byte	0
 4909 13c0 27       		.uleb128 0x27
 4910 13c1 A0440000 		.4byte	.LASF1628
 4911 13c5 04       		.byte	0x4
 4912 13c6 37       		.byte	0x37
 4913 13c7 D1130000 		.4byte	0x13d1
 4914 13cb 05       		.uleb128 0x5
 4915 13cc 03       		.byte	0x3
 4916 13cd 00000000 		.4byte	CSB_CHARGE_MODE_NAMES
 4917 13d1 06       		.uleb128 0x6
 4918 13d2 B0130000 		.4byte	0x13b0
 4919 13d6 29       		.uleb128 0x29
 4920 13d7 D0000000 		.4byte	0xd0
 4921 13db E6130000 		.4byte	0x13e6
 4922 13df 2A       		.uleb128 0x2a
 4923 13e0 90000000 		.4byte	0x90
 4924 13e4 05       		.byte	0x5
 4925 13e5 00       		.byte	0
 4926 13e6 27       		.uleb128 0x27
 4927 13e7 9B080000 		.4byte	.LASF1629
 4928 13eb 04       		.byte	0x4
 4929 13ec 4A       		.byte	0x4a
 4930 13ed F7130000 		.4byte	0x13f7
 4931 13f1 05       		.uleb128 0x5
 4932 13f2 03       		.byte	0x3
 4933 13f3 00000000 		.4byte	CSB_INIT_MODE_NAMES
ARM GAS  /var/folders/z0/6xlwn_996xz3mwq1cgzkbq4r0000gp/T//cc3rPjEN.s 			page 103


 4934 13f7 06       		.uleb128 0x6
 4935 13f8 D6130000 		.4byte	0x13d6
 4936 13fc 29       		.uleb128 0x29
 4937 13fd D0000000 		.4byte	0xd0
 4938 1401 0C140000 		.4byte	0x140c
 4939 1405 2A       		.uleb128 0x2a
 4940 1406 90000000 		.4byte	0x90
 4941 140a 01       		.byte	0x1
 4942 140b 00       		.byte	0
 4943 140c 13       		.uleb128 0x13
 4944 140d 30330000 		.4byte	.LASF1630
 4945 1411 04       		.byte	0x4
 4946 1412 58       		.byte	0x58
 4947 1413 17140000 		.4byte	0x1417
 4948 1417 06       		.uleb128 0x6
 4949 1418 FC130000 		.4byte	0x13fc
 4950 141c 27       		.uleb128 0x27
 4951 141d C14F0000 		.4byte	.LASF1631
 4952 1421 06       		.byte	0x6
 4953 1422 08       		.byte	0x8
 4954 1423 2D140000 		.4byte	0x142d
 4955 1427 05       		.uleb128 0x5
 4956 1428 03       		.byte	0x3
 4957 1429 00000000 		.4byte	commands
 4958 142d 06       		.uleb128 0x6
 4959 142e B0130000 		.4byte	0x13b0
 4960 1432 29       		.uleb128 0x29
 4961 1433 A4000000 		.4byte	0xa4
 4962 1437 42140000 		.4byte	0x1442
 4963 143b 2A       		.uleb128 0x2a
 4964 143c 90000000 		.4byte	0x90
 4965 1440 06       		.byte	0x6
 4966 1441 00       		.byte	0
 4967 1442 27       		.uleb128 0x27
 4968 1443 08960000 		.4byte	.LASF1632
 4969 1447 06       		.byte	0x6
 4970 1448 11       		.byte	0x11
 4971 1449 53140000 		.4byte	0x1453
 4972 144d 05       		.uleb128 0x5
 4973 144e 03       		.byte	0x3
 4974 144f 00000000 		.4byte	nargs
 4975 1453 06       		.uleb128 0x6
 4976 1454 32140000 		.4byte	0x1432
 4977 1458 27       		.uleb128 0x27
 4978 1459 82690000 		.4byte	.LASF1633
 4979 145d 06       		.byte	0x6
 4980 145e 19       		.byte	0x19
 4981 145f 69140000 		.4byte	0x1469
 4982 1463 05       		.uleb128 0x5
 4983 1464 03       		.byte	0x3
 4984 1465 00000000 		.4byte	helpstring
 4985 1469 06       		.uleb128 0x6
 4986 146a B0130000 		.4byte	0x13b0
 4987 146e 29       		.uleb128 0x29
 4988 146f D0000000 		.4byte	0xd0
 4989 1473 7E140000 		.4byte	0x147e
 4990 1477 2A       		.uleb128 0x2a
ARM GAS  /var/folders/z0/6xlwn_996xz3mwq1cgzkbq4r0000gp/T//cc3rPjEN.s 			page 104


 4991 1478 90000000 		.4byte	0x90
 4992 147c 10       		.byte	0x10
 4993 147d 00       		.byte	0
 4994 147e 27       		.uleb128 0x27
 4995 147f AB100000 		.4byte	.LASF1634
 4996 1483 06       		.byte	0x6
 4997 1484 22       		.byte	0x22
 4998 1485 8F140000 		.4byte	0x148f
 4999 1489 05       		.uleb128 0x5
 5000 148a 03       		.byte	0x3
 5001 148b 00000000 		.4byte	locstring
 5002 148f 06       		.uleb128 0x6
 5003 1490 6E140000 		.4byte	0x146e
 5004 1494 13       		.uleb128 0x13
 5005 1495 71920000 		.4byte	.LASF1635
 5006 1499 06       		.byte	0x6
 5007 149a 36       		.byte	0x36
 5008 149b 9F140000 		.4byte	0x149f
 5009 149f 06       		.uleb128 0x6
 5010 14a0 FC130000 		.4byte	0x13fc
 5011 14a4 27       		.uleb128 0x27
 5012 14a5 77050000 		.4byte	.LASF1623
 5013 14a9 01       		.byte	0x1
 5014 14aa 0A       		.byte	0xa
 5015 14ab 25110000 		.4byte	0x1125
 5016 14af 05       		.uleb128 0x5
 5017 14b0 03       		.byte	0x3
 5018 14b1 00000000 		.4byte	csb_input
 5019 14b5 27       		.uleb128 0x27
 5020 14b6 33680000 		.4byte	.LASF1624
 5021 14ba 01       		.byte	0x1
 5022 14bb 0B       		.byte	0xb
 5023 14bc 2B110000 		.4byte	0x112b
 5024 14c0 05       		.uleb128 0x5
 5025 14c1 03       		.byte	0x3
 5026 14c2 00000000 		.4byte	csb_state
 5027 14c6 27       		.uleb128 0x27
 5028 14c7 4D060000 		.4byte	.LASF1622
 5029 14cb 01       		.byte	0x1
 5030 14cc 0C       		.byte	0xc
 5031 14cd 31110000 		.4byte	0x1131
 5032 14d1 05       		.uleb128 0x5
 5033 14d2 03       		.byte	0x3
 5034 14d3 00000000 		.4byte	console_output
 5035 14d7 27       		.uleb128 0x27
 5036 14d8 D88C0000 		.4byte	.LASF1636
 5037 14dc 01       		.byte	0x1
 5038 14dd 0E       		.byte	0xe
 5039 14de BF000000 		.4byte	0xbf
 5040 14e2 05       		.uleb128 0x5
 5041 14e3 03       		.byte	0x3
 5042 14e4 00000000 		.4byte	lastPackCurrentPrintTime
 5043 14e8 27       		.uleb128 0x27
 5044 14e9 BCA20000 		.4byte	.LASF1637
 5045 14ed 01       		.byte	0x1
 5046 14ee 0F       		.byte	0xf
 5047 14ef BF000000 		.4byte	0xbf
ARM GAS  /var/folders/z0/6xlwn_996xz3mwq1cgzkbq4r0000gp/T//cc3rPjEN.s 			page 105


 5048 14f3 05       		.uleb128 0x5
 5049 14f4 03       		.byte	0x3
 5050 14f5 00000000 		.4byte	lastPackVoltagePrintTime
 5051 14f9 29       		.uleb128 0x29
 5052 14fa 36050000 		.4byte	0x536
 5053 14fe 09150000 		.4byte	0x1509
 5054 1502 2A       		.uleb128 0x2a
 5055 1503 90000000 		.4byte	0x90
 5056 1507 06       		.byte	0x6
 5057 1508 00       		.byte	0
 5058 1509 35       		.uleb128 0x35
 5059 150a 6F0A0000 		.4byte	.LASF1638
 5060 150e 01       		.byte	0x1
 5061 150f 5F01     		.2byte	0x15f
 5062 1511 1B150000 		.4byte	0x151b
 5063 1515 05       		.uleb128 0x5
 5064 1516 03       		.byte	0x3
 5065 1517 00000000 		.4byte	handlers
 5066 151b 06       		.uleb128 0x6
 5067 151c F9140000 		.4byte	0x14f9
 5068 1520 36       		.uleb128 0x36
 5069 1521 16290000 		.4byte	.LASF1652
 5070 1525 0B       		.byte	0xb
 5071 1526 D4       		.byte	0xd4
 5072 1527 BF050000 		.4byte	0x5bf
 5073 152b 37       		.uleb128 0x37
 5074 152c EF800000 		.4byte	.LASF1639
 5075 1530 EF800000 		.4byte	.LASF1639
 5076 1534 07       		.byte	0x7
 5077 1535 20       		.byte	0x20
 5078 1536 37       		.uleb128 0x37
 5079 1537 99980000 		.4byte	.LASF1640
 5080 153b 99980000 		.4byte	.LASF1640
 5081 153f 08       		.byte	0x8
 5082 1540 18       		.byte	0x18
 5083 1541 37       		.uleb128 0x37
 5084 1542 7C200000 		.4byte	.LASF1641
 5085 1546 7C200000 		.4byte	.LASF1641
 5086 154a 09       		.byte	0x9
 5087 154b DF       		.byte	0xdf
 5088 154c 37       		.uleb128 0x37
 5089 154d B0480000 		.4byte	.LASF1642
 5090 1551 B0480000 		.4byte	.LASF1642
 5091 1555 0A       		.byte	0xa
 5092 1556 06       		.byte	0x6
 5093 1557 37       		.uleb128 0x37
 5094 1558 3E940000 		.4byte	.LASF1643
 5095 155c 3E940000 		.4byte	.LASF1643
 5096 1560 0A       		.byte	0xa
 5097 1561 07       		.byte	0x7
 5098 1562 37       		.uleb128 0x37
 5099 1563 2DA80000 		.4byte	.LASF1644
 5100 1567 2DA80000 		.4byte	.LASF1644
 5101 156b 08       		.byte	0x8
 5102 156c 22       		.byte	0x22
 5103 156d 37       		.uleb128 0x37
 5104 156e 06820000 		.4byte	.LASF1645
ARM GAS  /var/folders/z0/6xlwn_996xz3mwq1cgzkbq4r0000gp/T//cc3rPjEN.s 			page 106


 5105 1572 06820000 		.4byte	.LASF1645
 5106 1576 08       		.byte	0x8
 5107 1577 16       		.byte	0x16
 5108 1578 37       		.uleb128 0x37
 5109 1579 2E760000 		.4byte	.LASF1646
 5110 157d 2E760000 		.4byte	.LASF1646
 5111 1581 08       		.byte	0x8
 5112 1582 20       		.byte	0x20
 5113 1583 00       		.byte	0
 5114              		.section	.debug_abbrev,"",%progbits
 5115              	.Ldebug_abbrev0:
 5116 0000 01       		.uleb128 0x1
 5117 0001 11       		.uleb128 0x11
 5118 0002 01       		.byte	0x1
 5119 0003 25       		.uleb128 0x25
 5120 0004 0E       		.uleb128 0xe
 5121 0005 13       		.uleb128 0x13
 5122 0006 0B       		.uleb128 0xb
 5123 0007 03       		.uleb128 0x3
 5124 0008 0E       		.uleb128 0xe
 5125 0009 1B       		.uleb128 0x1b
 5126 000a 0E       		.uleb128 0xe
 5127 000b 55       		.uleb128 0x55
 5128 000c 17       		.uleb128 0x17
 5129 000d 11       		.uleb128 0x11
 5130 000e 01       		.uleb128 0x1
 5131 000f 10       		.uleb128 0x10
 5132 0010 17       		.uleb128 0x17
 5133 0011 9942     		.uleb128 0x2119
 5134 0013 17       		.uleb128 0x17
 5135 0014 00       		.byte	0
 5136 0015 00       		.byte	0
 5137 0016 02       		.uleb128 0x2
 5138 0017 24       		.uleb128 0x24
 5139 0018 00       		.byte	0
 5140 0019 0B       		.uleb128 0xb
 5141 001a 0B       		.uleb128 0xb
 5142 001b 3E       		.uleb128 0x3e
 5143 001c 0B       		.uleb128 0xb
 5144 001d 03       		.uleb128 0x3
 5145 001e 08       		.uleb128 0x8
 5146 001f 00       		.byte	0
 5147 0020 00       		.byte	0
 5148 0021 03       		.uleb128 0x3
 5149 0022 24       		.uleb128 0x24
 5150 0023 00       		.byte	0
 5151 0024 0B       		.uleb128 0xb
 5152 0025 0B       		.uleb128 0xb
 5153 0026 3E       		.uleb128 0x3e
 5154 0027 0B       		.uleb128 0xb
 5155 0028 03       		.uleb128 0x3
 5156 0029 0E       		.uleb128 0xe
 5157 002a 00       		.byte	0
 5158 002b 00       		.byte	0
 5159 002c 04       		.uleb128 0x4
 5160 002d 16       		.uleb128 0x16
 5161 002e 00       		.byte	0
ARM GAS  /var/folders/z0/6xlwn_996xz3mwq1cgzkbq4r0000gp/T//cc3rPjEN.s 			page 107


 5162 002f 03       		.uleb128 0x3
 5163 0030 0E       		.uleb128 0xe
 5164 0031 3A       		.uleb128 0x3a
 5165 0032 0B       		.uleb128 0xb
 5166 0033 3B       		.uleb128 0x3b
 5167 0034 0B       		.uleb128 0xb
 5168 0035 49       		.uleb128 0x49
 5169 0036 13       		.uleb128 0x13
 5170 0037 00       		.byte	0
 5171 0038 00       		.byte	0
 5172 0039 05       		.uleb128 0x5
 5173 003a 0F       		.uleb128 0xf
 5174 003b 00       		.byte	0
 5175 003c 0B       		.uleb128 0xb
 5176 003d 0B       		.uleb128 0xb
 5177 003e 49       		.uleb128 0x49
 5178 003f 13       		.uleb128 0x13
 5179 0040 00       		.byte	0
 5180 0041 00       		.byte	0
 5181 0042 06       		.uleb128 0x6
 5182 0043 26       		.uleb128 0x26
 5183 0044 00       		.byte	0
 5184 0045 49       		.uleb128 0x49
 5185 0046 13       		.uleb128 0x13
 5186 0047 00       		.byte	0
 5187 0048 00       		.byte	0
 5188 0049 07       		.uleb128 0x7
 5189 004a 13       		.uleb128 0x13
 5190 004b 01       		.byte	0x1
 5191 004c 03       		.uleb128 0x3
 5192 004d 0E       		.uleb128 0xe
 5193 004e 0B       		.uleb128 0xb
 5194 004f 0B       		.uleb128 0xb
 5195 0050 3A       		.uleb128 0x3a
 5196 0051 0B       		.uleb128 0xb
 5197 0052 3B       		.uleb128 0x3b
 5198 0053 0B       		.uleb128 0xb
 5199 0054 01       		.uleb128 0x1
 5200 0055 13       		.uleb128 0x13
 5201 0056 00       		.byte	0
 5202 0057 00       		.byte	0
 5203 0058 08       		.uleb128 0x8
 5204 0059 0D       		.uleb128 0xd
 5205 005a 00       		.byte	0
 5206 005b 03       		.uleb128 0x3
 5207 005c 0E       		.uleb128 0xe
 5208 005d 3A       		.uleb128 0x3a
 5209 005e 0B       		.uleb128 0xb
 5210 005f 3B       		.uleb128 0x3b
 5211 0060 0B       		.uleb128 0xb
 5212 0061 49       		.uleb128 0x49
 5213 0062 13       		.uleb128 0x13
 5214 0063 38       		.uleb128 0x38
 5215 0064 0B       		.uleb128 0xb
 5216 0065 00       		.byte	0
 5217 0066 00       		.byte	0
 5218 0067 09       		.uleb128 0x9
ARM GAS  /var/folders/z0/6xlwn_996xz3mwq1cgzkbq4r0000gp/T//cc3rPjEN.s 			page 108


 5219 0068 04       		.uleb128 0x4
 5220 0069 01       		.byte	0x1
 5221 006a 03       		.uleb128 0x3
 5222 006b 0E       		.uleb128 0xe
 5223 006c 0B       		.uleb128 0xb
 5224 006d 0B       		.uleb128 0xb
 5225 006e 49       		.uleb128 0x49
 5226 006f 13       		.uleb128 0x13
 5227 0070 3A       		.uleb128 0x3a
 5228 0071 0B       		.uleb128 0xb
 5229 0072 3B       		.uleb128 0x3b
 5230 0073 0B       		.uleb128 0xb
 5231 0074 01       		.uleb128 0x1
 5232 0075 13       		.uleb128 0x13
 5233 0076 00       		.byte	0
 5234 0077 00       		.byte	0
 5235 0078 0A       		.uleb128 0xa
 5236 0079 28       		.uleb128 0x28
 5237 007a 00       		.byte	0
 5238 007b 03       		.uleb128 0x3
 5239 007c 0E       		.uleb128 0xe
 5240 007d 1C       		.uleb128 0x1c
 5241 007e 0B       		.uleb128 0xb
 5242 007f 00       		.byte	0
 5243 0080 00       		.byte	0
 5244 0081 0B       		.uleb128 0xb
 5245 0082 04       		.uleb128 0x4
 5246 0083 01       		.byte	0x1
 5247 0084 0B       		.uleb128 0xb
 5248 0085 0B       		.uleb128 0xb
 5249 0086 49       		.uleb128 0x49
 5250 0087 13       		.uleb128 0x13
 5251 0088 3A       		.uleb128 0x3a
 5252 0089 0B       		.uleb128 0xb
 5253 008a 3B       		.uleb128 0x3b
 5254 008b 0B       		.uleb128 0xb
 5255 008c 01       		.uleb128 0x1
 5256 008d 13       		.uleb128 0x13
 5257 008e 00       		.byte	0
 5258 008f 00       		.byte	0
 5259 0090 0C       		.uleb128 0xc
 5260 0091 15       		.uleb128 0x15
 5261 0092 01       		.byte	0x1
 5262 0093 27       		.uleb128 0x27
 5263 0094 19       		.uleb128 0x19
 5264 0095 01       		.uleb128 0x1
 5265 0096 13       		.uleb128 0x13
 5266 0097 00       		.byte	0
 5267 0098 00       		.byte	0
 5268 0099 0D       		.uleb128 0xd
 5269 009a 05       		.uleb128 0x5
 5270 009b 00       		.byte	0
 5271 009c 49       		.uleb128 0x49
 5272 009d 13       		.uleb128 0x13
 5273 009e 00       		.byte	0
 5274 009f 00       		.byte	0
 5275 00a0 0E       		.uleb128 0xe
ARM GAS  /var/folders/z0/6xlwn_996xz3mwq1cgzkbq4r0000gp/T//cc3rPjEN.s 			page 109


 5276 00a1 13       		.uleb128 0x13
 5277 00a2 01       		.byte	0x1
 5278 00a3 0B       		.uleb128 0xb
 5279 00a4 0B       		.uleb128 0xb
 5280 00a5 3A       		.uleb128 0x3a
 5281 00a6 0B       		.uleb128 0xb
 5282 00a7 3B       		.uleb128 0x3b
 5283 00a8 0B       		.uleb128 0xb
 5284 00a9 01       		.uleb128 0x1
 5285 00aa 13       		.uleb128 0x13
 5286 00ab 00       		.byte	0
 5287 00ac 00       		.byte	0
 5288 00ad 0F       		.uleb128 0xf
 5289 00ae 2E       		.uleb128 0x2e
 5290 00af 01       		.byte	0x1
 5291 00b0 03       		.uleb128 0x3
 5292 00b1 0E       		.uleb128 0xe
 5293 00b2 3A       		.uleb128 0x3a
 5294 00b3 0B       		.uleb128 0xb
 5295 00b4 3B       		.uleb128 0x3b
 5296 00b5 05       		.uleb128 0x5
 5297 00b6 27       		.uleb128 0x27
 5298 00b7 19       		.uleb128 0x19
 5299 00b8 20       		.uleb128 0x20
 5300 00b9 0B       		.uleb128 0xb
 5301 00ba 01       		.uleb128 0x1
 5302 00bb 13       		.uleb128 0x13
 5303 00bc 00       		.byte	0
 5304 00bd 00       		.byte	0
 5305 00be 10       		.uleb128 0x10
 5306 00bf 05       		.uleb128 0x5
 5307 00c0 00       		.byte	0
 5308 00c1 03       		.uleb128 0x3
 5309 00c2 0E       		.uleb128 0xe
 5310 00c3 3A       		.uleb128 0x3a
 5311 00c4 0B       		.uleb128 0xb
 5312 00c5 3B       		.uleb128 0x3b
 5313 00c6 05       		.uleb128 0x5
 5314 00c7 49       		.uleb128 0x49
 5315 00c8 13       		.uleb128 0x13
 5316 00c9 00       		.byte	0
 5317 00ca 00       		.byte	0
 5318 00cb 11       		.uleb128 0x11
 5319 00cc 2E       		.uleb128 0x2e
 5320 00cd 01       		.byte	0x1
 5321 00ce 03       		.uleb128 0x3
 5322 00cf 0E       		.uleb128 0xe
 5323 00d0 3A       		.uleb128 0x3a
 5324 00d1 0B       		.uleb128 0xb
 5325 00d2 3B       		.uleb128 0x3b
 5326 00d3 0B       		.uleb128 0xb
 5327 00d4 27       		.uleb128 0x27
 5328 00d5 19       		.uleb128 0x19
 5329 00d6 20       		.uleb128 0x20
 5330 00d7 0B       		.uleb128 0xb
 5331 00d8 01       		.uleb128 0x1
 5332 00d9 13       		.uleb128 0x13
ARM GAS  /var/folders/z0/6xlwn_996xz3mwq1cgzkbq4r0000gp/T//cc3rPjEN.s 			page 110


 5333 00da 00       		.byte	0
 5334 00db 00       		.byte	0
 5335 00dc 12       		.uleb128 0x12
 5336 00dd 05       		.uleb128 0x5
 5337 00de 00       		.byte	0
 5338 00df 03       		.uleb128 0x3
 5339 00e0 0E       		.uleb128 0xe
 5340 00e1 3A       		.uleb128 0x3a
 5341 00e2 0B       		.uleb128 0xb
 5342 00e3 3B       		.uleb128 0x3b
 5343 00e4 0B       		.uleb128 0xb
 5344 00e5 49       		.uleb128 0x49
 5345 00e6 13       		.uleb128 0x13
 5346 00e7 00       		.byte	0
 5347 00e8 00       		.byte	0
 5348 00e9 13       		.uleb128 0x13
 5349 00ea 34       		.uleb128 0x34
 5350 00eb 00       		.byte	0
 5351 00ec 03       		.uleb128 0x3
 5352 00ed 0E       		.uleb128 0xe
 5353 00ee 3A       		.uleb128 0x3a
 5354 00ef 0B       		.uleb128 0xb
 5355 00f0 3B       		.uleb128 0x3b
 5356 00f1 0B       		.uleb128 0xb
 5357 00f2 49       		.uleb128 0x49
 5358 00f3 13       		.uleb128 0x13
 5359 00f4 00       		.byte	0
 5360 00f5 00       		.byte	0
 5361 00f6 14       		.uleb128 0x14
 5362 00f7 0B       		.uleb128 0xb
 5363 00f8 01       		.byte	0x1
 5364 00f9 00       		.byte	0
 5365 00fa 00       		.byte	0
 5366 00fb 15       		.uleb128 0x15
 5367 00fc 34       		.uleb128 0x34
 5368 00fd 00       		.byte	0
 5369 00fe 03       		.uleb128 0x3
 5370 00ff 08       		.uleb128 0x8
 5371 0100 3A       		.uleb128 0x3a
 5372 0101 0B       		.uleb128 0xb
 5373 0102 3B       		.uleb128 0x3b
 5374 0103 0B       		.uleb128 0xb
 5375 0104 49       		.uleb128 0x49
 5376 0105 13       		.uleb128 0x13
 5377 0106 00       		.byte	0
 5378 0107 00       		.byte	0
 5379 0108 16       		.uleb128 0x16
 5380 0109 2E       		.uleb128 0x2e
 5381 010a 01       		.byte	0x1
 5382 010b 3F       		.uleb128 0x3f
 5383 010c 19       		.uleb128 0x19
 5384 010d 03       		.uleb128 0x3
 5385 010e 0E       		.uleb128 0xe
 5386 010f 3A       		.uleb128 0x3a
 5387 0110 0B       		.uleb128 0xb
 5388 0111 3B       		.uleb128 0x3b
 5389 0112 0B       		.uleb128 0xb
ARM GAS  /var/folders/z0/6xlwn_996xz3mwq1cgzkbq4r0000gp/T//cc3rPjEN.s 			page 111


 5390 0113 27       		.uleb128 0x27
 5391 0114 19       		.uleb128 0x19
 5392 0115 49       		.uleb128 0x49
 5393 0116 13       		.uleb128 0x13
 5394 0117 20       		.uleb128 0x20
 5395 0118 0B       		.uleb128 0xb
 5396 0119 01       		.uleb128 0x1
 5397 011a 13       		.uleb128 0x13
 5398 011b 00       		.byte	0
 5399 011c 00       		.byte	0
 5400 011d 17       		.uleb128 0x17
 5401 011e 05       		.uleb128 0x5
 5402 011f 00       		.byte	0
 5403 0120 03       		.uleb128 0x3
 5404 0121 08       		.uleb128 0x8
 5405 0122 3A       		.uleb128 0x3a
 5406 0123 0B       		.uleb128 0xb
 5407 0124 3B       		.uleb128 0x3b
 5408 0125 0B       		.uleb128 0xb
 5409 0126 49       		.uleb128 0x49
 5410 0127 13       		.uleb128 0x13
 5411 0128 00       		.byte	0
 5412 0129 00       		.byte	0
 5413 012a 18       		.uleb128 0x18
 5414 012b 2E       		.uleb128 0x2e
 5415 012c 01       		.byte	0x1
 5416 012d 03       		.uleb128 0x3
 5417 012e 08       		.uleb128 0x8
 5418 012f 3A       		.uleb128 0x3a
 5419 0130 0B       		.uleb128 0xb
 5420 0131 3B       		.uleb128 0x3b
 5421 0132 05       		.uleb128 0x5
 5422 0133 27       		.uleb128 0x27
 5423 0134 19       		.uleb128 0x19
 5424 0135 20       		.uleb128 0x20
 5425 0136 0B       		.uleb128 0xb
 5426 0137 01       		.uleb128 0x1
 5427 0138 13       		.uleb128 0x13
 5428 0139 00       		.byte	0
 5429 013a 00       		.byte	0
 5430 013b 19       		.uleb128 0x19
 5431 013c 2E       		.uleb128 0x2e
 5432 013d 01       		.byte	0x1
 5433 013e 03       		.uleb128 0x3
 5434 013f 0E       		.uleb128 0xe
 5435 0140 3A       		.uleb128 0x3a
 5436 0141 0B       		.uleb128 0xb
 5437 0142 3B       		.uleb128 0x3b
 5438 0143 05       		.uleb128 0x5
 5439 0144 27       		.uleb128 0x27
 5440 0145 19       		.uleb128 0x19
 5441 0146 11       		.uleb128 0x11
 5442 0147 01       		.uleb128 0x1
 5443 0148 12       		.uleb128 0x12
 5444 0149 06       		.uleb128 0x6
 5445 014a 40       		.uleb128 0x40
 5446 014b 18       		.uleb128 0x18
ARM GAS  /var/folders/z0/6xlwn_996xz3mwq1cgzkbq4r0000gp/T//cc3rPjEN.s 			page 112


 5447 014c 9742     		.uleb128 0x2117
 5448 014e 19       		.uleb128 0x19
 5449 014f 01       		.uleb128 0x1
 5450 0150 13       		.uleb128 0x13
 5451 0151 00       		.byte	0
 5452 0152 00       		.byte	0
 5453 0153 1A       		.uleb128 0x1a
 5454 0154 05       		.uleb128 0x5
 5455 0155 00       		.byte	0
 5456 0156 03       		.uleb128 0x3
 5457 0157 0E       		.uleb128 0xe
 5458 0158 3A       		.uleb128 0x3a
 5459 0159 0B       		.uleb128 0xb
 5460 015a 3B       		.uleb128 0x3b
 5461 015b 05       		.uleb128 0x5
 5462 015c 49       		.uleb128 0x49
 5463 015d 13       		.uleb128 0x13
 5464 015e 02       		.uleb128 0x2
 5465 015f 17       		.uleb128 0x17
 5466 0160 00       		.byte	0
 5467 0161 00       		.byte	0
 5468 0162 1B       		.uleb128 0x1b
 5469 0163 898201   		.uleb128 0x4109
 5470 0166 01       		.byte	0x1
 5471 0167 11       		.uleb128 0x11
 5472 0168 01       		.uleb128 0x1
 5473 0169 31       		.uleb128 0x31
 5474 016a 13       		.uleb128 0x13
 5475 016b 01       		.uleb128 0x1
 5476 016c 13       		.uleb128 0x13
 5477 016d 00       		.byte	0
 5478 016e 00       		.byte	0
 5479 016f 1C       		.uleb128 0x1c
 5480 0170 8A8201   		.uleb128 0x410a
 5481 0173 00       		.byte	0
 5482 0174 02       		.uleb128 0x2
 5483 0175 18       		.uleb128 0x18
 5484 0176 9142     		.uleb128 0x2111
 5485 0178 18       		.uleb128 0x18
 5486 0179 00       		.byte	0
 5487 017a 00       		.byte	0
 5488 017b 1D       		.uleb128 0x1d
 5489 017c 898201   		.uleb128 0x4109
 5490 017f 01       		.byte	0x1
 5491 0180 11       		.uleb128 0x11
 5492 0181 01       		.uleb128 0x1
 5493 0182 31       		.uleb128 0x31
 5494 0183 13       		.uleb128 0x13
 5495 0184 00       		.byte	0
 5496 0185 00       		.byte	0
 5497 0186 1E       		.uleb128 0x1e
 5498 0187 2E       		.uleb128 0x2e
 5499 0188 01       		.byte	0x1
 5500 0189 03       		.uleb128 0x3
 5501 018a 08       		.uleb128 0x8
 5502 018b 3A       		.uleb128 0x3a
 5503 018c 0B       		.uleb128 0xb
ARM GAS  /var/folders/z0/6xlwn_996xz3mwq1cgzkbq4r0000gp/T//cc3rPjEN.s 			page 113


 5504 018d 3B       		.uleb128 0x3b
 5505 018e 0B       		.uleb128 0xb
 5506 018f 27       		.uleb128 0x27
 5507 0190 19       		.uleb128 0x19
 5508 0191 11       		.uleb128 0x11
 5509 0192 01       		.uleb128 0x1
 5510 0193 12       		.uleb128 0x12
 5511 0194 06       		.uleb128 0x6
 5512 0195 40       		.uleb128 0x40
 5513 0196 18       		.uleb128 0x18
 5514 0197 9742     		.uleb128 0x2117
 5515 0199 19       		.uleb128 0x19
 5516 019a 01       		.uleb128 0x1
 5517 019b 13       		.uleb128 0x13
 5518 019c 00       		.byte	0
 5519 019d 00       		.byte	0
 5520 019e 1F       		.uleb128 0x1f
 5521 019f 05       		.uleb128 0x5
 5522 01a0 00       		.byte	0
 5523 01a1 03       		.uleb128 0x3
 5524 01a2 0E       		.uleb128 0xe
 5525 01a3 3A       		.uleb128 0x3a
 5526 01a4 0B       		.uleb128 0xb
 5527 01a5 3B       		.uleb128 0x3b
 5528 01a6 0B       		.uleb128 0xb
 5529 01a7 49       		.uleb128 0x49
 5530 01a8 13       		.uleb128 0x13
 5531 01a9 02       		.uleb128 0x2
 5532 01aa 17       		.uleb128 0x17
 5533 01ab 00       		.byte	0
 5534 01ac 00       		.byte	0
 5535 01ad 20       		.uleb128 0x20
 5536 01ae 34       		.uleb128 0x34
 5537 01af 00       		.byte	0
 5538 01b0 03       		.uleb128 0x3
 5539 01b1 0E       		.uleb128 0xe
 5540 01b2 3A       		.uleb128 0x3a
 5541 01b3 0B       		.uleb128 0xb
 5542 01b4 3B       		.uleb128 0x3b
 5543 01b5 0B       		.uleb128 0xb
 5544 01b6 49       		.uleb128 0x49
 5545 01b7 13       		.uleb128 0x13
 5546 01b8 02       		.uleb128 0x2
 5547 01b9 17       		.uleb128 0x17
 5548 01ba 00       		.byte	0
 5549 01bb 00       		.byte	0
 5550 01bc 21       		.uleb128 0x21
 5551 01bd 34       		.uleb128 0x34
 5552 01be 00       		.byte	0
 5553 01bf 03       		.uleb128 0x3
 5554 01c0 0E       		.uleb128 0xe
 5555 01c1 3A       		.uleb128 0x3a
 5556 01c2 0B       		.uleb128 0xb
 5557 01c3 3B       		.uleb128 0x3b
 5558 01c4 0B       		.uleb128 0xb
 5559 01c5 49       		.uleb128 0x49
 5560 01c6 13       		.uleb128 0x13
ARM GAS  /var/folders/z0/6xlwn_996xz3mwq1cgzkbq4r0000gp/T//cc3rPjEN.s 			page 114


 5561 01c7 1C       		.uleb128 0x1c
 5562 01c8 0B       		.uleb128 0xb
 5563 01c9 00       		.byte	0
 5564 01ca 00       		.byte	0
 5565 01cb 22       		.uleb128 0x22
 5566 01cc 0B       		.uleb128 0xb
 5567 01cd 01       		.byte	0x1
 5568 01ce 55       		.uleb128 0x55
 5569 01cf 17       		.uleb128 0x17
 5570 01d0 01       		.uleb128 0x1
 5571 01d1 13       		.uleb128 0x13
 5572 01d2 00       		.byte	0
 5573 01d3 00       		.byte	0
 5574 01d4 23       		.uleb128 0x23
 5575 01d5 1D       		.uleb128 0x1d
 5576 01d6 01       		.byte	0x1
 5577 01d7 31       		.uleb128 0x31
 5578 01d8 13       		.uleb128 0x13
 5579 01d9 52       		.uleb128 0x52
 5580 01da 01       		.uleb128 0x1
 5581 01db 55       		.uleb128 0x55
 5582 01dc 17       		.uleb128 0x17
 5583 01dd 58       		.uleb128 0x58
 5584 01de 0B       		.uleb128 0xb
 5585 01df 59       		.uleb128 0x59
 5586 01e0 0B       		.uleb128 0xb
 5587 01e1 01       		.uleb128 0x1
 5588 01e2 13       		.uleb128 0x13
 5589 01e3 00       		.byte	0
 5590 01e4 00       		.byte	0
 5591 01e5 24       		.uleb128 0x24
 5592 01e6 05       		.uleb128 0x5
 5593 01e7 00       		.byte	0
 5594 01e8 31       		.uleb128 0x31
 5595 01e9 13       		.uleb128 0x13
 5596 01ea 02       		.uleb128 0x2
 5597 01eb 17       		.uleb128 0x17
 5598 01ec 00       		.byte	0
 5599 01ed 00       		.byte	0
 5600 01ee 25       		.uleb128 0x25
 5601 01ef 0B       		.uleb128 0xb
 5602 01f0 01       		.byte	0x1
 5603 01f1 55       		.uleb128 0x55
 5604 01f2 17       		.uleb128 0x17
 5605 01f3 00       		.byte	0
 5606 01f4 00       		.byte	0
 5607 01f5 26       		.uleb128 0x26
 5608 01f6 34       		.uleb128 0x34
 5609 01f7 00       		.byte	0
 5610 01f8 31       		.uleb128 0x31
 5611 01f9 13       		.uleb128 0x13
 5612 01fa 02       		.uleb128 0x2
 5613 01fb 17       		.uleb128 0x17
 5614 01fc 00       		.byte	0
 5615 01fd 00       		.byte	0
 5616 01fe 27       		.uleb128 0x27
 5617 01ff 34       		.uleb128 0x34
ARM GAS  /var/folders/z0/6xlwn_996xz3mwq1cgzkbq4r0000gp/T//cc3rPjEN.s 			page 115


 5618 0200 00       		.byte	0
 5619 0201 03       		.uleb128 0x3
 5620 0202 0E       		.uleb128 0xe
 5621 0203 3A       		.uleb128 0x3a
 5622 0204 0B       		.uleb128 0xb
 5623 0205 3B       		.uleb128 0x3b
 5624 0206 0B       		.uleb128 0xb
 5625 0207 49       		.uleb128 0x49
 5626 0208 13       		.uleb128 0x13
 5627 0209 02       		.uleb128 0x2
 5628 020a 18       		.uleb128 0x18
 5629 020b 00       		.byte	0
 5630 020c 00       		.byte	0
 5631 020d 28       		.uleb128 0x28
 5632 020e 898201   		.uleb128 0x4109
 5633 0211 00       		.byte	0
 5634 0212 11       		.uleb128 0x11
 5635 0213 01       		.uleb128 0x1
 5636 0214 31       		.uleb128 0x31
 5637 0215 13       		.uleb128 0x13
 5638 0216 00       		.byte	0
 5639 0217 00       		.byte	0
 5640 0218 29       		.uleb128 0x29
 5641 0219 01       		.uleb128 0x1
 5642 021a 01       		.byte	0x1
 5643 021b 49       		.uleb128 0x49
 5644 021c 13       		.uleb128 0x13
 5645 021d 01       		.uleb128 0x1
 5646 021e 13       		.uleb128 0x13
 5647 021f 00       		.byte	0
 5648 0220 00       		.byte	0
 5649 0221 2A       		.uleb128 0x2a
 5650 0222 21       		.uleb128 0x21
 5651 0223 00       		.byte	0
 5652 0224 49       		.uleb128 0x49
 5653 0225 13       		.uleb128 0x13
 5654 0226 2F       		.uleb128 0x2f
 5655 0227 0B       		.uleb128 0xb
 5656 0228 00       		.byte	0
 5657 0229 00       		.byte	0
 5658 022a 2B       		.uleb128 0x2b
 5659 022b 2E       		.uleb128 0x2e
 5660 022c 01       		.byte	0x1
 5661 022d 31       		.uleb128 0x31
 5662 022e 13       		.uleb128 0x13
 5663 022f 11       		.uleb128 0x11
 5664 0230 01       		.uleb128 0x1
 5665 0231 12       		.uleb128 0x12
 5666 0232 06       		.uleb128 0x6
 5667 0233 40       		.uleb128 0x40
 5668 0234 18       		.uleb128 0x18
 5669 0235 9742     		.uleb128 0x2117
 5670 0237 19       		.uleb128 0x19
 5671 0238 01       		.uleb128 0x1
 5672 0239 13       		.uleb128 0x13
 5673 023a 00       		.byte	0
 5674 023b 00       		.byte	0
ARM GAS  /var/folders/z0/6xlwn_996xz3mwq1cgzkbq4r0000gp/T//cc3rPjEN.s 			page 116


 5675 023c 2C       		.uleb128 0x2c
 5676 023d 0B       		.uleb128 0xb
 5677 023e 01       		.byte	0x1
 5678 023f 11       		.uleb128 0x11
 5679 0240 01       		.uleb128 0x1
 5680 0241 12       		.uleb128 0x12
 5681 0242 06       		.uleb128 0x6
 5682 0243 01       		.uleb128 0x1
 5683 0244 13       		.uleb128 0x13
 5684 0245 00       		.byte	0
 5685 0246 00       		.byte	0
 5686 0247 2D       		.uleb128 0x2d
 5687 0248 0B       		.uleb128 0xb
 5688 0249 01       		.byte	0x1
 5689 024a 11       		.uleb128 0x11
 5690 024b 01       		.uleb128 0x1
 5691 024c 12       		.uleb128 0x12
 5692 024d 06       		.uleb128 0x6
 5693 024e 00       		.byte	0
 5694 024f 00       		.byte	0
 5695 0250 2E       		.uleb128 0x2e
 5696 0251 34       		.uleb128 0x34
 5697 0252 00       		.byte	0
 5698 0253 31       		.uleb128 0x31
 5699 0254 13       		.uleb128 0x13
 5700 0255 00       		.byte	0
 5701 0256 00       		.byte	0
 5702 0257 2F       		.uleb128 0x2f
 5703 0258 05       		.uleb128 0x5
 5704 0259 00       		.byte	0
 5705 025a 31       		.uleb128 0x31
 5706 025b 13       		.uleb128 0x13
 5707 025c 02       		.uleb128 0x2
 5708 025d 18       		.uleb128 0x18
 5709 025e 00       		.byte	0
 5710 025f 00       		.byte	0
 5711 0260 30       		.uleb128 0x30
 5712 0261 1D       		.uleb128 0x1d
 5713 0262 01       		.byte	0x1
 5714 0263 31       		.uleb128 0x31
 5715 0264 13       		.uleb128 0x13
 5716 0265 52       		.uleb128 0x52
 5717 0266 01       		.uleb128 0x1
 5718 0267 55       		.uleb128 0x55
 5719 0268 17       		.uleb128 0x17
 5720 0269 58       		.uleb128 0x58
 5721 026a 0B       		.uleb128 0xb
 5722 026b 59       		.uleb128 0x59
 5723 026c 05       		.uleb128 0x5
 5724 026d 01       		.uleb128 0x1
 5725 026e 13       		.uleb128 0x13
 5726 026f 00       		.byte	0
 5727 0270 00       		.byte	0
 5728 0271 31       		.uleb128 0x31
 5729 0272 2E       		.uleb128 0x2e
 5730 0273 01       		.byte	0x1
 5731 0274 3F       		.uleb128 0x3f
ARM GAS  /var/folders/z0/6xlwn_996xz3mwq1cgzkbq4r0000gp/T//cc3rPjEN.s 			page 117


 5732 0275 19       		.uleb128 0x19
 5733 0276 03       		.uleb128 0x3
 5734 0277 0E       		.uleb128 0xe
 5735 0278 3A       		.uleb128 0x3a
 5736 0279 0B       		.uleb128 0xb
 5737 027a 3B       		.uleb128 0x3b
 5738 027b 05       		.uleb128 0x5
 5739 027c 27       		.uleb128 0x27
 5740 027d 19       		.uleb128 0x19
 5741 027e 11       		.uleb128 0x11
 5742 027f 01       		.uleb128 0x1
 5743 0280 12       		.uleb128 0x12
 5744 0281 06       		.uleb128 0x6
 5745 0282 40       		.uleb128 0x40
 5746 0283 18       		.uleb128 0x18
 5747 0284 9742     		.uleb128 0x2117
 5748 0286 19       		.uleb128 0x19
 5749 0287 01       		.uleb128 0x1
 5750 0288 13       		.uleb128 0x13
 5751 0289 00       		.byte	0
 5752 028a 00       		.byte	0
 5753 028b 32       		.uleb128 0x32
 5754 028c 05       		.uleb128 0x5
 5755 028d 00       		.byte	0
 5756 028e 03       		.uleb128 0x3
 5757 028f 0E       		.uleb128 0xe
 5758 0290 3A       		.uleb128 0x3a
 5759 0291 0B       		.uleb128 0xb
 5760 0292 3B       		.uleb128 0x3b
 5761 0293 05       		.uleb128 0x5
 5762 0294 49       		.uleb128 0x49
 5763 0295 13       		.uleb128 0x13
 5764 0296 02       		.uleb128 0x2
 5765 0297 18       		.uleb128 0x18
 5766 0298 00       		.byte	0
 5767 0299 00       		.byte	0
 5768 029a 33       		.uleb128 0x33
 5769 029b 34       		.uleb128 0x34
 5770 029c 00       		.byte	0
 5771 029d 03       		.uleb128 0x3
 5772 029e 0E       		.uleb128 0xe
 5773 029f 3A       		.uleb128 0x3a
 5774 02a0 0B       		.uleb128 0xb
 5775 02a1 3B       		.uleb128 0x3b
 5776 02a2 05       		.uleb128 0x5
 5777 02a3 49       		.uleb128 0x49
 5778 02a4 13       		.uleb128 0x13
 5779 02a5 02       		.uleb128 0x2
 5780 02a6 17       		.uleb128 0x17
 5781 02a7 00       		.byte	0
 5782 02a8 00       		.byte	0
 5783 02a9 34       		.uleb128 0x34
 5784 02aa 898201   		.uleb128 0x4109
 5785 02ad 01       		.byte	0x1
 5786 02ae 11       		.uleb128 0x11
 5787 02af 01       		.uleb128 0x1
 5788 02b0 9342     		.uleb128 0x2113
ARM GAS  /var/folders/z0/6xlwn_996xz3mwq1cgzkbq4r0000gp/T//cc3rPjEN.s 			page 118


 5789 02b2 18       		.uleb128 0x18
 5790 02b3 00       		.byte	0
 5791 02b4 00       		.byte	0
 5792 02b5 35       		.uleb128 0x35
 5793 02b6 34       		.uleb128 0x34
 5794 02b7 00       		.byte	0
 5795 02b8 03       		.uleb128 0x3
 5796 02b9 0E       		.uleb128 0xe
 5797 02ba 3A       		.uleb128 0x3a
 5798 02bb 0B       		.uleb128 0xb
 5799 02bc 3B       		.uleb128 0x3b
 5800 02bd 05       		.uleb128 0x5
 5801 02be 49       		.uleb128 0x49
 5802 02bf 13       		.uleb128 0x13
 5803 02c0 02       		.uleb128 0x2
 5804 02c1 18       		.uleb128 0x18
 5805 02c2 00       		.byte	0
 5806 02c3 00       		.byte	0
 5807 02c4 36       		.uleb128 0x36
 5808 02c5 34       		.uleb128 0x34
 5809 02c6 00       		.byte	0
 5810 02c7 03       		.uleb128 0x3
 5811 02c8 0E       		.uleb128 0xe
 5812 02c9 3A       		.uleb128 0x3a
 5813 02ca 0B       		.uleb128 0xb
 5814 02cb 3B       		.uleb128 0x3b
 5815 02cc 0B       		.uleb128 0xb
 5816 02cd 49       		.uleb128 0x49
 5817 02ce 13       		.uleb128 0x13
 5818 02cf 3F       		.uleb128 0x3f
 5819 02d0 19       		.uleb128 0x19
 5820 02d1 3C       		.uleb128 0x3c
 5821 02d2 19       		.uleb128 0x19
 5822 02d3 00       		.byte	0
 5823 02d4 00       		.byte	0
 5824 02d5 37       		.uleb128 0x37
 5825 02d6 2E       		.uleb128 0x2e
 5826 02d7 00       		.byte	0
 5827 02d8 3F       		.uleb128 0x3f
 5828 02d9 19       		.uleb128 0x19
 5829 02da 3C       		.uleb128 0x3c
 5830 02db 19       		.uleb128 0x19
 5831 02dc 6E       		.uleb128 0x6e
 5832 02dd 0E       		.uleb128 0xe
 5833 02de 03       		.uleb128 0x3
 5834 02df 0E       		.uleb128 0xe
 5835 02e0 3A       		.uleb128 0x3a
 5836 02e1 0B       		.uleb128 0xb
 5837 02e2 3B       		.uleb128 0x3b
 5838 02e3 0B       		.uleb128 0xb
 5839 02e4 00       		.byte	0
 5840 02e5 00       		.byte	0
 5841 02e6 00       		.byte	0
 5842              		.section	.debug_loc,"",%progbits
 5843              	.Ldebug_loc0:
 5844              	.LLST0:
 5845 0000 00000000 		.4byte	.LVL0
ARM GAS  /var/folders/z0/6xlwn_996xz3mwq1cgzkbq4r0000gp/T//cc3rPjEN.s 			page 119


 5846 0004 08000000 		.4byte	.LVL1
 5847 0008 0100     		.2byte	0x1
 5848 000a 50       		.byte	0x50
 5849 000b 08000000 		.4byte	.LVL1
 5850 000f E4000000 		.4byte	.LFE203
 5851 0013 0400     		.2byte	0x4
 5852 0015 F3       		.byte	0xf3
 5853 0016 01       		.uleb128 0x1
 5854 0017 50       		.byte	0x50
 5855 0018 9F       		.byte	0x9f
 5856 0019 00000000 		.4byte	0
 5857 001d 00000000 		.4byte	0
 5858              	.LLST1:
 5859 0021 00000000 		.4byte	.LVL14
 5860 0025 22000000 		.4byte	.LVL15
 5861 0029 0100     		.2byte	0x1
 5862 002b 50       		.byte	0x50
 5863 002c 22000000 		.4byte	.LVL15
 5864 0030 5A000000 		.4byte	.LVL24
 5865 0034 0100     		.2byte	0x1
 5866 0036 58       		.byte	0x58
 5867 0037 5A000000 		.4byte	.LVL24
 5868 003b 5C000000 		.4byte	.LVL25
 5869 003f 0100     		.2byte	0x1
 5870 0041 50       		.byte	0x50
 5871 0042 5C000000 		.4byte	.LVL25
 5872 0046 60000000 		.4byte	.LVL27
 5873 004a 0100     		.2byte	0x1
 5874 004c 58       		.byte	0x58
 5875 004d 60000000 		.4byte	.LVL27
 5876 0051 68000000 		.4byte	.LVL28
 5877 0055 0400     		.2byte	0x4
 5878 0057 F3       		.byte	0xf3
 5879 0058 01       		.uleb128 0x1
 5880 0059 50       		.byte	0x50
 5881 005a 9F       		.byte	0x9f
 5882 005b 68000000 		.4byte	.LVL28
 5883 005f 8A000000 		.4byte	.LVL33
 5884 0063 0100     		.2byte	0x1
 5885 0065 58       		.byte	0x58
 5886 0066 8A000000 		.4byte	.LVL33
 5887 006a 8C000000 		.4byte	.LVL34
 5888 006e 0100     		.2byte	0x1
 5889 0070 53       		.byte	0x53
 5890 0071 8C000000 		.4byte	.LVL34
 5891 0075 BA000000 		.4byte	.LVL42
 5892 0079 0100     		.2byte	0x1
 5893 007b 58       		.byte	0x58
 5894 007c BA000000 		.4byte	.LVL42
 5895 0080 BC000000 		.4byte	.LVL43
 5896 0084 0100     		.2byte	0x1
 5897 0086 53       		.byte	0x53
 5898 0087 BC000000 		.4byte	.LVL43
 5899 008b EA000000 		.4byte	.LVL51
 5900 008f 0100     		.2byte	0x1
 5901 0091 58       		.byte	0x58
 5902 0092 EA000000 		.4byte	.LVL51
ARM GAS  /var/folders/z0/6xlwn_996xz3mwq1cgzkbq4r0000gp/T//cc3rPjEN.s 			page 120


 5903 0096 EC000000 		.4byte	.LVL52
 5904 009a 0100     		.2byte	0x1
 5905 009c 53       		.byte	0x53
 5906 009d EC000000 		.4byte	.LVL52
 5907 00a1 1A010000 		.4byte	.LVL60
 5908 00a5 0100     		.2byte	0x1
 5909 00a7 58       		.byte	0x58
 5910 00a8 1A010000 		.4byte	.LVL60
 5911 00ac 1C010000 		.4byte	.LVL61
 5912 00b0 0100     		.2byte	0x1
 5913 00b2 53       		.byte	0x53
 5914 00b3 1C010000 		.4byte	.LVL61
 5915 00b7 4A010000 		.4byte	.LVL69
 5916 00bb 0100     		.2byte	0x1
 5917 00bd 58       		.byte	0x58
 5918 00be 4A010000 		.4byte	.LVL69
 5919 00c2 4C010000 		.4byte	.LVL70
 5920 00c6 0100     		.2byte	0x1
 5921 00c8 53       		.byte	0x53
 5922 00c9 4C010000 		.4byte	.LVL70
 5923 00cd 7A010000 		.4byte	.LVL78
 5924 00d1 0100     		.2byte	0x1
 5925 00d3 58       		.byte	0x58
 5926 00d4 7A010000 		.4byte	.LVL78
 5927 00d8 7C010000 		.4byte	.LVL79
 5928 00dc 0100     		.2byte	0x1
 5929 00de 53       		.byte	0x53
 5930 00df 7C010000 		.4byte	.LVL79
 5931 00e3 AA010000 		.4byte	.LVL87
 5932 00e7 0100     		.2byte	0x1
 5933 00e9 58       		.byte	0x58
 5934 00ea AA010000 		.4byte	.LVL87
 5935 00ee AC010000 		.4byte	.LVL88
 5936 00f2 0100     		.2byte	0x1
 5937 00f4 53       		.byte	0x53
 5938 00f5 AC010000 		.4byte	.LVL88
 5939 00f9 D8010000 		.4byte	.LVL96
 5940 00fd 0100     		.2byte	0x1
 5941 00ff 58       		.byte	0x58
 5942 0100 D8010000 		.4byte	.LVL96
 5943 0104 DA010000 		.4byte	.LVL97
 5944 0108 0100     		.2byte	0x1
 5945 010a 53       		.byte	0x53
 5946 010b DA010000 		.4byte	.LVL97
 5947 010f 06020000 		.4byte	.LVL105
 5948 0113 0100     		.2byte	0x1
 5949 0115 58       		.byte	0x58
 5950 0116 06020000 		.4byte	.LVL105
 5951 011a 08020000 		.4byte	.LVL106
 5952 011e 0100     		.2byte	0x1
 5953 0120 53       		.byte	0x53
 5954 0121 08020000 		.4byte	.LVL106
 5955 0125 34020000 		.4byte	.LVL114
 5956 0129 0100     		.2byte	0x1
 5957 012b 58       		.byte	0x58
 5958 012c 34020000 		.4byte	.LVL114
 5959 0130 36020000 		.4byte	.LVL115
ARM GAS  /var/folders/z0/6xlwn_996xz3mwq1cgzkbq4r0000gp/T//cc3rPjEN.s 			page 121


 5960 0134 0100     		.2byte	0x1
 5961 0136 53       		.byte	0x53
 5962 0137 36020000 		.4byte	.LVL115
 5963 013b 62020000 		.4byte	.LVL123
 5964 013f 0100     		.2byte	0x1
 5965 0141 58       		.byte	0x58
 5966 0142 62020000 		.4byte	.LVL123
 5967 0146 64020000 		.4byte	.LVL124
 5968 014a 0100     		.2byte	0x1
 5969 014c 53       		.byte	0x53
 5970 014d 64020000 		.4byte	.LVL124
 5971 0151 90020000 		.4byte	.LVL132
 5972 0155 0100     		.2byte	0x1
 5973 0157 58       		.byte	0x58
 5974 0158 90020000 		.4byte	.LVL132
 5975 015c 92020000 		.4byte	.LVL133
 5976 0160 0100     		.2byte	0x1
 5977 0162 53       		.byte	0x53
 5978 0163 92020000 		.4byte	.LVL133
 5979 0167 B2020000 		.4byte	.LVL140
 5980 016b 0100     		.2byte	0x1
 5981 016d 58       		.byte	0x58
 5982 016e B2020000 		.4byte	.LVL140
 5983 0172 B4020000 		.4byte	.LVL141
 5984 0176 0100     		.2byte	0x1
 5985 0178 53       		.byte	0x53
 5986 0179 B4020000 		.4byte	.LVL141
 5987 017d B6020000 		.4byte	.LVL142
 5988 0181 0100     		.2byte	0x1
 5989 0183 58       		.byte	0x58
 5990 0184 B6020000 		.4byte	.LVL142
 5991 0188 B8020000 		.4byte	.LVL143
 5992 018c 0100     		.2byte	0x1
 5993 018e 53       		.byte	0x53
 5994 018f B8020000 		.4byte	.LVL143
 5995 0193 BA020000 		.4byte	.LVL144
 5996 0197 0100     		.2byte	0x1
 5997 0199 58       		.byte	0x58
 5998 019a BA020000 		.4byte	.LVL144
 5999 019e BC020000 		.4byte	.LVL145
 6000 01a2 0100     		.2byte	0x1
 6001 01a4 53       		.byte	0x53
 6002 01a5 BC020000 		.4byte	.LVL145
 6003 01a9 BE020000 		.4byte	.LVL146
 6004 01ad 0100     		.2byte	0x1
 6005 01af 58       		.byte	0x58
 6006 01b0 BE020000 		.4byte	.LVL146
 6007 01b4 C0020000 		.4byte	.LVL147
 6008 01b8 0100     		.2byte	0x1
 6009 01ba 53       		.byte	0x53
 6010 01bb C0020000 		.4byte	.LVL147
 6011 01bf C2020000 		.4byte	.LVL148
 6012 01c3 0100     		.2byte	0x1
 6013 01c5 58       		.byte	0x58
 6014 01c6 C2020000 		.4byte	.LVL148
 6015 01ca C4020000 		.4byte	.LVL149
 6016 01ce 0100     		.2byte	0x1
ARM GAS  /var/folders/z0/6xlwn_996xz3mwq1cgzkbq4r0000gp/T//cc3rPjEN.s 			page 122


 6017 01d0 53       		.byte	0x53
 6018 01d1 C4020000 		.4byte	.LVL149
 6019 01d5 C6020000 		.4byte	.LVL150
 6020 01d9 0100     		.2byte	0x1
 6021 01db 58       		.byte	0x58
 6022 01dc C6020000 		.4byte	.LVL150
 6023 01e0 C8020000 		.4byte	.LVL151
 6024 01e4 0100     		.2byte	0x1
 6025 01e6 53       		.byte	0x53
 6026 01e7 C8020000 		.4byte	.LVL151
 6027 01eb CA020000 		.4byte	.LVL152
 6028 01ef 0100     		.2byte	0x1
 6029 01f1 58       		.byte	0x58
 6030 01f2 CA020000 		.4byte	.LVL152
 6031 01f6 CC020000 		.4byte	.LVL153
 6032 01fa 0100     		.2byte	0x1
 6033 01fc 53       		.byte	0x53
 6034 01fd CC020000 		.4byte	.LVL153
 6035 0201 CE020000 		.4byte	.LVL154
 6036 0205 0100     		.2byte	0x1
 6037 0207 58       		.byte	0x58
 6038 0208 CE020000 		.4byte	.LVL154
 6039 020c D0020000 		.4byte	.LVL155
 6040 0210 0100     		.2byte	0x1
 6041 0212 53       		.byte	0x53
 6042 0213 D0020000 		.4byte	.LVL155
 6043 0217 D2020000 		.4byte	.LVL156
 6044 021b 0100     		.2byte	0x1
 6045 021d 58       		.byte	0x58
 6046 021e D2020000 		.4byte	.LVL156
 6047 0222 D4020000 		.4byte	.LVL157
 6048 0226 0100     		.2byte	0x1
 6049 0228 53       		.byte	0x53
 6050 0229 D4020000 		.4byte	.LVL157
 6051 022d D6020000 		.4byte	.LVL158
 6052 0231 0100     		.2byte	0x1
 6053 0233 58       		.byte	0x58
 6054 0234 D6020000 		.4byte	.LVL158
 6055 0238 D8020000 		.4byte	.LVL159
 6056 023c 0100     		.2byte	0x1
 6057 023e 53       		.byte	0x53
 6058 023f D8020000 		.4byte	.LVL159
 6059 0243 DA020000 		.4byte	.LVL160
 6060 0247 0100     		.2byte	0x1
 6061 0249 58       		.byte	0x58
 6062 024a DA020000 		.4byte	.LVL160
 6063 024e DC020000 		.4byte	.LVL161
 6064 0252 0100     		.2byte	0x1
 6065 0254 53       		.byte	0x53
 6066 0255 DC020000 		.4byte	.LVL161
 6067 0259 DE020000 		.4byte	.LVL162
 6068 025d 0100     		.2byte	0x1
 6069 025f 58       		.byte	0x58
 6070 0260 DE020000 		.4byte	.LVL162
 6071 0264 E0020000 		.4byte	.LVL163
 6072 0268 0100     		.2byte	0x1
 6073 026a 53       		.byte	0x53
ARM GAS  /var/folders/z0/6xlwn_996xz3mwq1cgzkbq4r0000gp/T//cc3rPjEN.s 			page 123


 6074 026b E0020000 		.4byte	.LVL163
 6075 026f 08030000 		.4byte	.LFE200
 6076 0273 0100     		.2byte	0x1
 6077 0275 58       		.byte	0x58
 6078 0276 00000000 		.4byte	0
 6079 027a 00000000 		.4byte	0
 6080              	.LLST2:
 6081 027e 22000000 		.4byte	.LVL15
 6082 0282 30000000 		.4byte	.LVL18
 6083 0286 0100     		.2byte	0x1
 6084 0288 54       		.byte	0x54
 6085 0289 32000000 		.4byte	.LVL19
 6086 028d 3A000000 		.4byte	.LVL20
 6087 0291 0100     		.2byte	0x1
 6088 0293 54       		.byte	0x54
 6089 0294 68000000 		.4byte	.LVL28
 6090 0298 70000000 		.4byte	.LVL29
 6091 029c 0100     		.2byte	0x1
 6092 029e 54       		.byte	0x54
 6093 029f 00000000 		.4byte	0
 6094 02a3 00000000 		.4byte	0
 6095              	.LLST3:
 6096 02a7 82000000 		.4byte	.LVL32
 6097 02ab 8E000000 		.4byte	.LVL35
 6098 02af 0100     		.2byte	0x1
 6099 02b1 51       		.byte	0x51
 6100 02b2 8E000000 		.4byte	.LVL35
 6101 02b6 A2000000 		.4byte	.LVL39
 6102 02ba 0200     		.2byte	0x2
 6103 02bc 78       		.byte	0x78
 6104 02bd 08       		.sleb128 8
 6105 02be DA020000 		.4byte	.LVL160
 6106 02c2 DE020000 		.4byte	.LVL162
 6107 02c6 0100     		.2byte	0x1
 6108 02c8 51       		.byte	0x51
 6109 02c9 00000000 		.4byte	0
 6110 02cd 00000000 		.4byte	0
 6111              	.LLST4:
 6112 02d1 82000000 		.4byte	.LVL32
 6113 02d5 8E000000 		.4byte	.LVL35
 6114 02d9 0200     		.2byte	0x2
 6115 02db 30       		.byte	0x30
 6116 02dc 9F       		.byte	0x9f
 6117 02dd 8E000000 		.4byte	.LVL35
 6118 02e1 92000000 		.4byte	.LVL36
 6119 02e5 0100     		.2byte	0x1
 6120 02e7 53       		.byte	0x53
 6121 02e8 9E000000 		.4byte	.LVL38
 6122 02ec A2000000 		.4byte	.LVL39
 6123 02f0 0100     		.2byte	0x1
 6124 02f2 53       		.byte	0x53
 6125 02f3 DA020000 		.4byte	.LVL160
 6126 02f7 DE020000 		.4byte	.LVL162
 6127 02fb 0200     		.2byte	0x2
 6128 02fd 30       		.byte	0x30
 6129 02fe 9F       		.byte	0x9f
 6130 02ff 00000000 		.4byte	0
ARM GAS  /var/folders/z0/6xlwn_996xz3mwq1cgzkbq4r0000gp/T//cc3rPjEN.s 			page 124


 6131 0303 00000000 		.4byte	0
 6132              	.LLST5:
 6133 0307 82000000 		.4byte	.LVL32
 6134 030b 8E000000 		.4byte	.LVL35
 6135 030f 0200     		.2byte	0x2
 6136 0311 30       		.byte	0x30
 6137 0312 9F       		.byte	0x9f
 6138 0313 8E000000 		.4byte	.LVL35
 6139 0317 96000000 		.4byte	.LVL37
 6140 031b 0800     		.2byte	0x8
 6141 031d 78       		.byte	0x78
 6142 031e 08       		.sleb128 8
 6143 031f 06       		.byte	0x6
 6144 0320 20       		.byte	0x20
 6145 0321 71       		.byte	0x71
 6146 0322 00       		.sleb128 0
 6147 0323 22       		.byte	0x22
 6148 0324 9F       		.byte	0x9f
 6149 0325 96000000 		.4byte	.LVL37
 6150 0329 9E000000 		.4byte	.LVL38
 6151 032d 0900     		.2byte	0x9
 6152 032f 71       		.byte	0x71
 6153 0330 00       		.sleb128 0
 6154 0331 78       		.byte	0x78
 6155 0332 08       		.sleb128 8
 6156 0333 06       		.byte	0x6
 6157 0334 1C       		.byte	0x1c
 6158 0335 32       		.byte	0x32
 6159 0336 1C       		.byte	0x1c
 6160 0337 9F       		.byte	0x9f
 6161 0338 DA020000 		.4byte	.LVL160
 6162 033c DE020000 		.4byte	.LVL162
 6163 0340 0200     		.2byte	0x2
 6164 0342 30       		.byte	0x30
 6165 0343 9F       		.byte	0x9f
 6166 0344 00000000 		.4byte	0
 6167 0348 00000000 		.4byte	0
 6168              	.LLST6:
 6169 034c B2000000 		.4byte	.LVL41
 6170 0350 BE000000 		.4byte	.LVL44
 6171 0354 0100     		.2byte	0x1
 6172 0356 51       		.byte	0x51
 6173 0357 BE000000 		.4byte	.LVL44
 6174 035b D2000000 		.4byte	.LVL48
 6175 035f 0200     		.2byte	0x2
 6176 0361 78       		.byte	0x78
 6177 0362 08       		.sleb128 8
 6178 0363 DE020000 		.4byte	.LVL162
 6179 0367 08030000 		.4byte	.LFE200
 6180 036b 0100     		.2byte	0x1
 6181 036d 51       		.byte	0x51
 6182 036e 00000000 		.4byte	0
 6183 0372 00000000 		.4byte	0
 6184              	.LLST7:
 6185 0376 B2000000 		.4byte	.LVL41
 6186 037a BE000000 		.4byte	.LVL44
 6187 037e 0200     		.2byte	0x2
ARM GAS  /var/folders/z0/6xlwn_996xz3mwq1cgzkbq4r0000gp/T//cc3rPjEN.s 			page 125


 6188 0380 30       		.byte	0x30
 6189 0381 9F       		.byte	0x9f
 6190 0382 BE000000 		.4byte	.LVL44
 6191 0386 C2000000 		.4byte	.LVL45
 6192 038a 0100     		.2byte	0x1
 6193 038c 53       		.byte	0x53
 6194 038d CE000000 		.4byte	.LVL47
 6195 0391 D2000000 		.4byte	.LVL48
 6196 0395 0100     		.2byte	0x1
 6197 0397 53       		.byte	0x53
 6198 0398 DE020000 		.4byte	.LVL162
 6199 039c 08030000 		.4byte	.LFE200
 6200 03a0 0200     		.2byte	0x2
 6201 03a2 30       		.byte	0x30
 6202 03a3 9F       		.byte	0x9f
 6203 03a4 00000000 		.4byte	0
 6204 03a8 00000000 		.4byte	0
 6205              	.LLST8:
 6206 03ac B2000000 		.4byte	.LVL41
 6207 03b0 BE000000 		.4byte	.LVL44
 6208 03b4 0200     		.2byte	0x2
 6209 03b6 30       		.byte	0x30
 6210 03b7 9F       		.byte	0x9f
 6211 03b8 BE000000 		.4byte	.LVL44
 6212 03bc C6000000 		.4byte	.LVL46
 6213 03c0 0800     		.2byte	0x8
 6214 03c2 78       		.byte	0x78
 6215 03c3 08       		.sleb128 8
 6216 03c4 06       		.byte	0x6
 6217 03c5 20       		.byte	0x20
 6218 03c6 71       		.byte	0x71
 6219 03c7 00       		.sleb128 0
 6220 03c8 22       		.byte	0x22
 6221 03c9 9F       		.byte	0x9f
 6222 03ca C6000000 		.4byte	.LVL46
 6223 03ce CE000000 		.4byte	.LVL47
 6224 03d2 0900     		.2byte	0x9
 6225 03d4 71       		.byte	0x71
 6226 03d5 00       		.sleb128 0
 6227 03d6 78       		.byte	0x78
 6228 03d7 08       		.sleb128 8
 6229 03d8 06       		.byte	0x6
 6230 03d9 1C       		.byte	0x1c
 6231 03da 32       		.byte	0x32
 6232 03db 1C       		.byte	0x1c
 6233 03dc 9F       		.byte	0x9f
 6234 03dd DE020000 		.4byte	.LVL162
 6235 03e1 08030000 		.4byte	.LFE200
 6236 03e5 0200     		.2byte	0x2
 6237 03e7 30       		.byte	0x30
 6238 03e8 9F       		.byte	0x9f
 6239 03e9 00000000 		.4byte	0
 6240 03ed 00000000 		.4byte	0
 6241              	.LLST9:
 6242 03f1 E2000000 		.4byte	.LVL50
 6243 03f5 EE000000 		.4byte	.LVL53
 6244 03f9 0100     		.2byte	0x1
ARM GAS  /var/folders/z0/6xlwn_996xz3mwq1cgzkbq4r0000gp/T//cc3rPjEN.s 			page 126


 6245 03fb 51       		.byte	0x51
 6246 03fc EE000000 		.4byte	.LVL53
 6247 0400 02010000 		.4byte	.LVL57
 6248 0404 0200     		.2byte	0x2
 6249 0406 78       		.byte	0x78
 6250 0407 08       		.sleb128 8
 6251 0408 CA020000 		.4byte	.LVL152
 6252 040c CE020000 		.4byte	.LVL154
 6253 0410 0100     		.2byte	0x1
 6254 0412 51       		.byte	0x51
 6255 0413 00000000 		.4byte	0
 6256 0417 00000000 		.4byte	0
 6257              	.LLST10:
 6258 041b E2000000 		.4byte	.LVL50
 6259 041f EE000000 		.4byte	.LVL53
 6260 0423 0200     		.2byte	0x2
 6261 0425 30       		.byte	0x30
 6262 0426 9F       		.byte	0x9f
 6263 0427 EE000000 		.4byte	.LVL53
 6264 042b F2000000 		.4byte	.LVL54
 6265 042f 0100     		.2byte	0x1
 6266 0431 53       		.byte	0x53
 6267 0432 FE000000 		.4byte	.LVL56
 6268 0436 02010000 		.4byte	.LVL57
 6269 043a 0100     		.2byte	0x1
 6270 043c 53       		.byte	0x53
 6271 043d CA020000 		.4byte	.LVL152
 6272 0441 CE020000 		.4byte	.LVL154
 6273 0445 0200     		.2byte	0x2
 6274 0447 30       		.byte	0x30
 6275 0448 9F       		.byte	0x9f
 6276 0449 00000000 		.4byte	0
 6277 044d 00000000 		.4byte	0
 6278              	.LLST11:
 6279 0451 E2000000 		.4byte	.LVL50
 6280 0455 EE000000 		.4byte	.LVL53
 6281 0459 0200     		.2byte	0x2
 6282 045b 30       		.byte	0x30
 6283 045c 9F       		.byte	0x9f
 6284 045d EE000000 		.4byte	.LVL53
 6285 0461 F6000000 		.4byte	.LVL55
 6286 0465 0800     		.2byte	0x8
 6287 0467 78       		.byte	0x78
 6288 0468 08       		.sleb128 8
 6289 0469 06       		.byte	0x6
 6290 046a 20       		.byte	0x20
 6291 046b 71       		.byte	0x71
 6292 046c 00       		.sleb128 0
 6293 046d 22       		.byte	0x22
 6294 046e 9F       		.byte	0x9f
 6295 046f F6000000 		.4byte	.LVL55
 6296 0473 FE000000 		.4byte	.LVL56
 6297 0477 0900     		.2byte	0x9
 6298 0479 71       		.byte	0x71
 6299 047a 00       		.sleb128 0
 6300 047b 78       		.byte	0x78
 6301 047c 08       		.sleb128 8
ARM GAS  /var/folders/z0/6xlwn_996xz3mwq1cgzkbq4r0000gp/T//cc3rPjEN.s 			page 127


 6302 047d 06       		.byte	0x6
 6303 047e 1C       		.byte	0x1c
 6304 047f 32       		.byte	0x32
 6305 0480 1C       		.byte	0x1c
 6306 0481 9F       		.byte	0x9f
 6307 0482 CA020000 		.4byte	.LVL152
 6308 0486 CE020000 		.4byte	.LVL154
 6309 048a 0200     		.2byte	0x2
 6310 048c 30       		.byte	0x30
 6311 048d 9F       		.byte	0x9f
 6312 048e 00000000 		.4byte	0
 6313 0492 00000000 		.4byte	0
 6314              	.LLST12:
 6315 0496 12010000 		.4byte	.LVL59
 6316 049a 1E010000 		.4byte	.LVL62
 6317 049e 0100     		.2byte	0x1
 6318 04a0 51       		.byte	0x51
 6319 04a1 1E010000 		.4byte	.LVL62
 6320 04a5 32010000 		.4byte	.LVL66
 6321 04a9 0200     		.2byte	0x2
 6322 04ab 78       		.byte	0x78
 6323 04ac 08       		.sleb128 8
 6324 04ad D2020000 		.4byte	.LVL156
 6325 04b1 D6020000 		.4byte	.LVL158
 6326 04b5 0100     		.2byte	0x1
 6327 04b7 51       		.byte	0x51
 6328 04b8 00000000 		.4byte	0
 6329 04bc 00000000 		.4byte	0
 6330              	.LLST13:
 6331 04c0 12010000 		.4byte	.LVL59
 6332 04c4 1E010000 		.4byte	.LVL62
 6333 04c8 0200     		.2byte	0x2
 6334 04ca 30       		.byte	0x30
 6335 04cb 9F       		.byte	0x9f
 6336 04cc 1E010000 		.4byte	.LVL62
 6337 04d0 22010000 		.4byte	.LVL63
 6338 04d4 0100     		.2byte	0x1
 6339 04d6 53       		.byte	0x53
 6340 04d7 2E010000 		.4byte	.LVL65
 6341 04db 32010000 		.4byte	.LVL66
 6342 04df 0100     		.2byte	0x1
 6343 04e1 53       		.byte	0x53
 6344 04e2 D2020000 		.4byte	.LVL156
 6345 04e6 D6020000 		.4byte	.LVL158
 6346 04ea 0200     		.2byte	0x2
 6347 04ec 30       		.byte	0x30
 6348 04ed 9F       		.byte	0x9f
 6349 04ee 00000000 		.4byte	0
 6350 04f2 00000000 		.4byte	0
 6351              	.LLST14:
 6352 04f6 12010000 		.4byte	.LVL59
 6353 04fa 1E010000 		.4byte	.LVL62
 6354 04fe 0200     		.2byte	0x2
 6355 0500 30       		.byte	0x30
 6356 0501 9F       		.byte	0x9f
 6357 0502 1E010000 		.4byte	.LVL62
 6358 0506 26010000 		.4byte	.LVL64
ARM GAS  /var/folders/z0/6xlwn_996xz3mwq1cgzkbq4r0000gp/T//cc3rPjEN.s 			page 128


 6359 050a 0800     		.2byte	0x8
 6360 050c 78       		.byte	0x78
 6361 050d 08       		.sleb128 8
 6362 050e 06       		.byte	0x6
 6363 050f 20       		.byte	0x20
 6364 0510 71       		.byte	0x71
 6365 0511 00       		.sleb128 0
 6366 0512 22       		.byte	0x22
 6367 0513 9F       		.byte	0x9f
 6368 0514 26010000 		.4byte	.LVL64
 6369 0518 2E010000 		.4byte	.LVL65
 6370 051c 0900     		.2byte	0x9
 6371 051e 71       		.byte	0x71
 6372 051f 00       		.sleb128 0
 6373 0520 78       		.byte	0x78
 6374 0521 08       		.sleb128 8
 6375 0522 06       		.byte	0x6
 6376 0523 1C       		.byte	0x1c
 6377 0524 32       		.byte	0x32
 6378 0525 1C       		.byte	0x1c
 6379 0526 9F       		.byte	0x9f
 6380 0527 D2020000 		.4byte	.LVL156
 6381 052b D6020000 		.4byte	.LVL158
 6382 052f 0200     		.2byte	0x2
 6383 0531 30       		.byte	0x30
 6384 0532 9F       		.byte	0x9f
 6385 0533 00000000 		.4byte	0
 6386 0537 00000000 		.4byte	0
 6387              	.LLST15:
 6388 053b 42010000 		.4byte	.LVL68
 6389 053f 4E010000 		.4byte	.LVL71
 6390 0543 0100     		.2byte	0x1
 6391 0545 51       		.byte	0x51
 6392 0546 4E010000 		.4byte	.LVL71
 6393 054a 62010000 		.4byte	.LVL75
 6394 054e 0200     		.2byte	0x2
 6395 0550 78       		.byte	0x78
 6396 0551 08       		.sleb128 8
 6397 0552 C2020000 		.4byte	.LVL148
 6398 0556 C6020000 		.4byte	.LVL150
 6399 055a 0100     		.2byte	0x1
 6400 055c 51       		.byte	0x51
 6401 055d 00000000 		.4byte	0
 6402 0561 00000000 		.4byte	0
 6403              	.LLST16:
 6404 0565 42010000 		.4byte	.LVL68
 6405 0569 4E010000 		.4byte	.LVL71
 6406 056d 0200     		.2byte	0x2
 6407 056f 30       		.byte	0x30
 6408 0570 9F       		.byte	0x9f
 6409 0571 4E010000 		.4byte	.LVL71
 6410 0575 52010000 		.4byte	.LVL72
 6411 0579 0100     		.2byte	0x1
 6412 057b 53       		.byte	0x53
 6413 057c 5E010000 		.4byte	.LVL74
 6414 0580 62010000 		.4byte	.LVL75
 6415 0584 0100     		.2byte	0x1
ARM GAS  /var/folders/z0/6xlwn_996xz3mwq1cgzkbq4r0000gp/T//cc3rPjEN.s 			page 129


 6416 0586 53       		.byte	0x53
 6417 0587 C2020000 		.4byte	.LVL148
 6418 058b C6020000 		.4byte	.LVL150
 6419 058f 0200     		.2byte	0x2
 6420 0591 30       		.byte	0x30
 6421 0592 9F       		.byte	0x9f
 6422 0593 00000000 		.4byte	0
 6423 0597 00000000 		.4byte	0
 6424              	.LLST17:
 6425 059b 42010000 		.4byte	.LVL68
 6426 059f 4E010000 		.4byte	.LVL71
 6427 05a3 0200     		.2byte	0x2
 6428 05a5 30       		.byte	0x30
 6429 05a6 9F       		.byte	0x9f
 6430 05a7 4E010000 		.4byte	.LVL71
 6431 05ab 56010000 		.4byte	.LVL73
 6432 05af 0800     		.2byte	0x8
 6433 05b1 78       		.byte	0x78
 6434 05b2 08       		.sleb128 8
 6435 05b3 06       		.byte	0x6
 6436 05b4 20       		.byte	0x20
 6437 05b5 71       		.byte	0x71
 6438 05b6 00       		.sleb128 0
 6439 05b7 22       		.byte	0x22
 6440 05b8 9F       		.byte	0x9f
 6441 05b9 56010000 		.4byte	.LVL73
 6442 05bd 5E010000 		.4byte	.LVL74
 6443 05c1 0900     		.2byte	0x9
 6444 05c3 71       		.byte	0x71
 6445 05c4 00       		.sleb128 0
 6446 05c5 78       		.byte	0x78
 6447 05c6 08       		.sleb128 8
 6448 05c7 06       		.byte	0x6
 6449 05c8 1C       		.byte	0x1c
 6450 05c9 32       		.byte	0x32
 6451 05ca 1C       		.byte	0x1c
 6452 05cb 9F       		.byte	0x9f
 6453 05cc C2020000 		.4byte	.LVL148
 6454 05d0 C6020000 		.4byte	.LVL150
 6455 05d4 0200     		.2byte	0x2
 6456 05d6 30       		.byte	0x30
 6457 05d7 9F       		.byte	0x9f
 6458 05d8 00000000 		.4byte	0
 6459 05dc 00000000 		.4byte	0
 6460              	.LLST18:
 6461 05e0 72010000 		.4byte	.LVL77
 6462 05e4 7E010000 		.4byte	.LVL80
 6463 05e8 0100     		.2byte	0x1
 6464 05ea 51       		.byte	0x51
 6465 05eb 7E010000 		.4byte	.LVL80
 6466 05ef 92010000 		.4byte	.LVL84
 6467 05f3 0200     		.2byte	0x2
 6468 05f5 78       		.byte	0x78
 6469 05f6 08       		.sleb128 8
 6470 05f7 D6020000 		.4byte	.LVL158
 6471 05fb DA020000 		.4byte	.LVL160
 6472 05ff 0100     		.2byte	0x1
ARM GAS  /var/folders/z0/6xlwn_996xz3mwq1cgzkbq4r0000gp/T//cc3rPjEN.s 			page 130


 6473 0601 51       		.byte	0x51
 6474 0602 00000000 		.4byte	0
 6475 0606 00000000 		.4byte	0
 6476              	.LLST19:
 6477 060a 72010000 		.4byte	.LVL77
 6478 060e 7E010000 		.4byte	.LVL80
 6479 0612 0200     		.2byte	0x2
 6480 0614 30       		.byte	0x30
 6481 0615 9F       		.byte	0x9f
 6482 0616 7E010000 		.4byte	.LVL80
 6483 061a 82010000 		.4byte	.LVL81
 6484 061e 0100     		.2byte	0x1
 6485 0620 53       		.byte	0x53
 6486 0621 8E010000 		.4byte	.LVL83
 6487 0625 92010000 		.4byte	.LVL84
 6488 0629 0100     		.2byte	0x1
 6489 062b 53       		.byte	0x53
 6490 062c D6020000 		.4byte	.LVL158
 6491 0630 DA020000 		.4byte	.LVL160
 6492 0634 0200     		.2byte	0x2
 6493 0636 30       		.byte	0x30
 6494 0637 9F       		.byte	0x9f
 6495 0638 00000000 		.4byte	0
 6496 063c 00000000 		.4byte	0
 6497              	.LLST20:
 6498 0640 72010000 		.4byte	.LVL77
 6499 0644 7E010000 		.4byte	.LVL80
 6500 0648 0200     		.2byte	0x2
 6501 064a 30       		.byte	0x30
 6502 064b 9F       		.byte	0x9f
 6503 064c 7E010000 		.4byte	.LVL80
 6504 0650 86010000 		.4byte	.LVL82
 6505 0654 0800     		.2byte	0x8
 6506 0656 78       		.byte	0x78
 6507 0657 08       		.sleb128 8
 6508 0658 06       		.byte	0x6
 6509 0659 20       		.byte	0x20
 6510 065a 71       		.byte	0x71
 6511 065b 00       		.sleb128 0
 6512 065c 22       		.byte	0x22
 6513 065d 9F       		.byte	0x9f
 6514 065e 86010000 		.4byte	.LVL82
 6515 0662 8E010000 		.4byte	.LVL83
 6516 0666 0900     		.2byte	0x9
 6517 0668 71       		.byte	0x71
 6518 0669 00       		.sleb128 0
 6519 066a 78       		.byte	0x78
 6520 066b 08       		.sleb128 8
 6521 066c 06       		.byte	0x6
 6522 066d 1C       		.byte	0x1c
 6523 066e 32       		.byte	0x32
 6524 066f 1C       		.byte	0x1c
 6525 0670 9F       		.byte	0x9f
 6526 0671 D6020000 		.4byte	.LVL158
 6527 0675 DA020000 		.4byte	.LVL160
 6528 0679 0200     		.2byte	0x2
 6529 067b 30       		.byte	0x30
ARM GAS  /var/folders/z0/6xlwn_996xz3mwq1cgzkbq4r0000gp/T//cc3rPjEN.s 			page 131


 6530 067c 9F       		.byte	0x9f
 6531 067d 00000000 		.4byte	0
 6532 0681 00000000 		.4byte	0
 6533              	.LLST21:
 6534 0685 A2010000 		.4byte	.LVL86
 6535 0689 AE010000 		.4byte	.LVL89
 6536 068d 0100     		.2byte	0x1
 6537 068f 51       		.byte	0x51
 6538 0690 AE010000 		.4byte	.LVL89
 6539 0694 C2010000 		.4byte	.LVL93
 6540 0698 0200     		.2byte	0x2
 6541 069a 78       		.byte	0x78
 6542 069b 08       		.sleb128 8
 6543 069c CE020000 		.4byte	.LVL154
 6544 06a0 D2020000 		.4byte	.LVL156
 6545 06a4 0100     		.2byte	0x1
 6546 06a6 51       		.byte	0x51
 6547 06a7 00000000 		.4byte	0
 6548 06ab 00000000 		.4byte	0
 6549              	.LLST22:
 6550 06af A2010000 		.4byte	.LVL86
 6551 06b3 AE010000 		.4byte	.LVL89
 6552 06b7 0200     		.2byte	0x2
 6553 06b9 30       		.byte	0x30
 6554 06ba 9F       		.byte	0x9f
 6555 06bb AE010000 		.4byte	.LVL89
 6556 06bf B2010000 		.4byte	.LVL90
 6557 06c3 0100     		.2byte	0x1
 6558 06c5 53       		.byte	0x53
 6559 06c6 BE010000 		.4byte	.LVL92
 6560 06ca C2010000 		.4byte	.LVL93
 6561 06ce 0100     		.2byte	0x1
 6562 06d0 53       		.byte	0x53
 6563 06d1 CE020000 		.4byte	.LVL154
 6564 06d5 D2020000 		.4byte	.LVL156
 6565 06d9 0200     		.2byte	0x2
 6566 06db 30       		.byte	0x30
 6567 06dc 9F       		.byte	0x9f
 6568 06dd 00000000 		.4byte	0
 6569 06e1 00000000 		.4byte	0
 6570              	.LLST23:
 6571 06e5 A2010000 		.4byte	.LVL86
 6572 06e9 AE010000 		.4byte	.LVL89
 6573 06ed 0200     		.2byte	0x2
 6574 06ef 30       		.byte	0x30
 6575 06f0 9F       		.byte	0x9f
 6576 06f1 AE010000 		.4byte	.LVL89
 6577 06f5 B6010000 		.4byte	.LVL91
 6578 06f9 0800     		.2byte	0x8
 6579 06fb 78       		.byte	0x78
 6580 06fc 08       		.sleb128 8
 6581 06fd 06       		.byte	0x6
 6582 06fe 20       		.byte	0x20
 6583 06ff 71       		.byte	0x71
 6584 0700 00       		.sleb128 0
 6585 0701 22       		.byte	0x22
 6586 0702 9F       		.byte	0x9f
ARM GAS  /var/folders/z0/6xlwn_996xz3mwq1cgzkbq4r0000gp/T//cc3rPjEN.s 			page 132


 6587 0703 B6010000 		.4byte	.LVL91
 6588 0707 BE010000 		.4byte	.LVL92
 6589 070b 0900     		.2byte	0x9
 6590 070d 71       		.byte	0x71
 6591 070e 00       		.sleb128 0
 6592 070f 78       		.byte	0x78
 6593 0710 08       		.sleb128 8
 6594 0711 06       		.byte	0x6
 6595 0712 1C       		.byte	0x1c
 6596 0713 32       		.byte	0x32
 6597 0714 1C       		.byte	0x1c
 6598 0715 9F       		.byte	0x9f
 6599 0716 CE020000 		.4byte	.LVL154
 6600 071a D2020000 		.4byte	.LVL156
 6601 071e 0200     		.2byte	0x2
 6602 0720 30       		.byte	0x30
 6603 0721 9F       		.byte	0x9f
 6604 0722 00000000 		.4byte	0
 6605 0726 00000000 		.4byte	0
 6606              	.LLST24:
 6607 072a D2010000 		.4byte	.LVL95
 6608 072e DC010000 		.4byte	.LVL98
 6609 0732 0100     		.2byte	0x1
 6610 0734 51       		.byte	0x51
 6611 0735 DC010000 		.4byte	.LVL98
 6612 0739 F0010000 		.4byte	.LVL102
 6613 073d 0200     		.2byte	0x2
 6614 073f 78       		.byte	0x78
 6615 0740 08       		.sleb128 8
 6616 0741 BA020000 		.4byte	.LVL144
 6617 0745 BE020000 		.4byte	.LVL146
 6618 0749 0100     		.2byte	0x1
 6619 074b 51       		.byte	0x51
 6620 074c 00000000 		.4byte	0
 6621 0750 00000000 		.4byte	0
 6622              	.LLST25:
 6623 0754 D2010000 		.4byte	.LVL95
 6624 0758 DC010000 		.4byte	.LVL98
 6625 075c 0200     		.2byte	0x2
 6626 075e 30       		.byte	0x30
 6627 075f 9F       		.byte	0x9f
 6628 0760 DC010000 		.4byte	.LVL98
 6629 0764 E0010000 		.4byte	.LVL99
 6630 0768 0100     		.2byte	0x1
 6631 076a 53       		.byte	0x53
 6632 076b EC010000 		.4byte	.LVL101
 6633 076f F0010000 		.4byte	.LVL102
 6634 0773 0100     		.2byte	0x1
 6635 0775 53       		.byte	0x53
 6636 0776 BA020000 		.4byte	.LVL144
 6637 077a BE020000 		.4byte	.LVL146
 6638 077e 0200     		.2byte	0x2
 6639 0780 30       		.byte	0x30
 6640 0781 9F       		.byte	0x9f
 6641 0782 00000000 		.4byte	0
 6642 0786 00000000 		.4byte	0
 6643              	.LLST26:
ARM GAS  /var/folders/z0/6xlwn_996xz3mwq1cgzkbq4r0000gp/T//cc3rPjEN.s 			page 133


 6644 078a D2010000 		.4byte	.LVL95
 6645 078e DC010000 		.4byte	.LVL98
 6646 0792 0200     		.2byte	0x2
 6647 0794 30       		.byte	0x30
 6648 0795 9F       		.byte	0x9f
 6649 0796 DC010000 		.4byte	.LVL98
 6650 079a E4010000 		.4byte	.LVL100
 6651 079e 0800     		.2byte	0x8
 6652 07a0 78       		.byte	0x78
 6653 07a1 08       		.sleb128 8
 6654 07a2 06       		.byte	0x6
 6655 07a3 20       		.byte	0x20
 6656 07a4 71       		.byte	0x71
 6657 07a5 00       		.sleb128 0
 6658 07a6 22       		.byte	0x22
 6659 07a7 9F       		.byte	0x9f
 6660 07a8 E4010000 		.4byte	.LVL100
 6661 07ac EC010000 		.4byte	.LVL101
 6662 07b0 0900     		.2byte	0x9
 6663 07b2 71       		.byte	0x71
 6664 07b3 00       		.sleb128 0
 6665 07b4 78       		.byte	0x78
 6666 07b5 08       		.sleb128 8
 6667 07b6 06       		.byte	0x6
 6668 07b7 1C       		.byte	0x1c
 6669 07b8 32       		.byte	0x32
 6670 07b9 1C       		.byte	0x1c
 6671 07ba 9F       		.byte	0x9f
 6672 07bb BA020000 		.4byte	.LVL144
 6673 07bf BE020000 		.4byte	.LVL146
 6674 07c3 0200     		.2byte	0x2
 6675 07c5 30       		.byte	0x30
 6676 07c6 9F       		.byte	0x9f
 6677 07c7 00000000 		.4byte	0
 6678 07cb 00000000 		.4byte	0
 6679              	.LLST27:
 6680 07cf 00020000 		.4byte	.LVL104
 6681 07d3 0A020000 		.4byte	.LVL107
 6682 07d7 0100     		.2byte	0x1
 6683 07d9 51       		.byte	0x51
 6684 07da 0A020000 		.4byte	.LVL107
 6685 07de 1E020000 		.4byte	.LVL111
 6686 07e2 0200     		.2byte	0x2
 6687 07e4 78       		.byte	0x78
 6688 07e5 08       		.sleb128 8
 6689 07e6 C6020000 		.4byte	.LVL150
 6690 07ea CA020000 		.4byte	.LVL152
 6691 07ee 0100     		.2byte	0x1
 6692 07f0 51       		.byte	0x51
 6693 07f1 00000000 		.4byte	0
 6694 07f5 00000000 		.4byte	0
 6695              	.LLST28:
 6696 07f9 00020000 		.4byte	.LVL104
 6697 07fd 0A020000 		.4byte	.LVL107
 6698 0801 0200     		.2byte	0x2
 6699 0803 30       		.byte	0x30
 6700 0804 9F       		.byte	0x9f
ARM GAS  /var/folders/z0/6xlwn_996xz3mwq1cgzkbq4r0000gp/T//cc3rPjEN.s 			page 134


 6701 0805 0A020000 		.4byte	.LVL107
 6702 0809 0E020000 		.4byte	.LVL108
 6703 080d 0100     		.2byte	0x1
 6704 080f 53       		.byte	0x53
 6705 0810 1A020000 		.4byte	.LVL110
 6706 0814 1E020000 		.4byte	.LVL111
 6707 0818 0100     		.2byte	0x1
 6708 081a 53       		.byte	0x53
 6709 081b C6020000 		.4byte	.LVL150
 6710 081f CA020000 		.4byte	.LVL152
 6711 0823 0200     		.2byte	0x2
 6712 0825 30       		.byte	0x30
 6713 0826 9F       		.byte	0x9f
 6714 0827 00000000 		.4byte	0
 6715 082b 00000000 		.4byte	0
 6716              	.LLST29:
 6717 082f 00020000 		.4byte	.LVL104
 6718 0833 0A020000 		.4byte	.LVL107
 6719 0837 0200     		.2byte	0x2
 6720 0839 30       		.byte	0x30
 6721 083a 9F       		.byte	0x9f
 6722 083b 0A020000 		.4byte	.LVL107
 6723 083f 12020000 		.4byte	.LVL109
 6724 0843 0800     		.2byte	0x8
 6725 0845 78       		.byte	0x78
 6726 0846 08       		.sleb128 8
 6727 0847 06       		.byte	0x6
 6728 0848 20       		.byte	0x20
 6729 0849 71       		.byte	0x71
 6730 084a 00       		.sleb128 0
 6731 084b 22       		.byte	0x22
 6732 084c 9F       		.byte	0x9f
 6733 084d 12020000 		.4byte	.LVL109
 6734 0851 1A020000 		.4byte	.LVL110
 6735 0855 0900     		.2byte	0x9
 6736 0857 71       		.byte	0x71
 6737 0858 00       		.sleb128 0
 6738 0859 78       		.byte	0x78
 6739 085a 08       		.sleb128 8
 6740 085b 06       		.byte	0x6
 6741 085c 1C       		.byte	0x1c
 6742 085d 32       		.byte	0x32
 6743 085e 1C       		.byte	0x1c
 6744 085f 9F       		.byte	0x9f
 6745 0860 C6020000 		.4byte	.LVL150
 6746 0864 CA020000 		.4byte	.LVL152
 6747 0868 0200     		.2byte	0x2
 6748 086a 30       		.byte	0x30
 6749 086b 9F       		.byte	0x9f
 6750 086c 00000000 		.4byte	0
 6751 0870 00000000 		.4byte	0
 6752              	.LLST30:
 6753 0874 2E020000 		.4byte	.LVL113
 6754 0878 38020000 		.4byte	.LVL116
 6755 087c 0100     		.2byte	0x1
 6756 087e 51       		.byte	0x51
 6757 087f 38020000 		.4byte	.LVL116
ARM GAS  /var/folders/z0/6xlwn_996xz3mwq1cgzkbq4r0000gp/T//cc3rPjEN.s 			page 135


 6758 0883 4C020000 		.4byte	.LVL120
 6759 0887 0200     		.2byte	0x2
 6760 0889 78       		.byte	0x78
 6761 088a 08       		.sleb128 8
 6762 088b BE020000 		.4byte	.LVL146
 6763 088f C2020000 		.4byte	.LVL148
 6764 0893 0100     		.2byte	0x1
 6765 0895 51       		.byte	0x51
 6766 0896 00000000 		.4byte	0
 6767 089a 00000000 		.4byte	0
 6768              	.LLST31:
 6769 089e 2E020000 		.4byte	.LVL113
 6770 08a2 38020000 		.4byte	.LVL116
 6771 08a6 0200     		.2byte	0x2
 6772 08a8 30       		.byte	0x30
 6773 08a9 9F       		.byte	0x9f
 6774 08aa 38020000 		.4byte	.LVL116
 6775 08ae 3C020000 		.4byte	.LVL117
 6776 08b2 0100     		.2byte	0x1
 6777 08b4 53       		.byte	0x53
 6778 08b5 48020000 		.4byte	.LVL119
 6779 08b9 4C020000 		.4byte	.LVL120
 6780 08bd 0100     		.2byte	0x1
 6781 08bf 53       		.byte	0x53
 6782 08c0 BE020000 		.4byte	.LVL146
 6783 08c4 C2020000 		.4byte	.LVL148
 6784 08c8 0200     		.2byte	0x2
 6785 08ca 30       		.byte	0x30
 6786 08cb 9F       		.byte	0x9f
 6787 08cc 00000000 		.4byte	0
 6788 08d0 00000000 		.4byte	0
 6789              	.LLST32:
 6790 08d4 2E020000 		.4byte	.LVL113
 6791 08d8 38020000 		.4byte	.LVL116
 6792 08dc 0200     		.2byte	0x2
 6793 08de 30       		.byte	0x30
 6794 08df 9F       		.byte	0x9f
 6795 08e0 38020000 		.4byte	.LVL116
 6796 08e4 40020000 		.4byte	.LVL118
 6797 08e8 0800     		.2byte	0x8
 6798 08ea 78       		.byte	0x78
 6799 08eb 08       		.sleb128 8
 6800 08ec 06       		.byte	0x6
 6801 08ed 20       		.byte	0x20
 6802 08ee 71       		.byte	0x71
 6803 08ef 00       		.sleb128 0
 6804 08f0 22       		.byte	0x22
 6805 08f1 9F       		.byte	0x9f
 6806 08f2 40020000 		.4byte	.LVL118
 6807 08f6 48020000 		.4byte	.LVL119
 6808 08fa 0900     		.2byte	0x9
 6809 08fc 71       		.byte	0x71
 6810 08fd 00       		.sleb128 0
 6811 08fe 78       		.byte	0x78
 6812 08ff 08       		.sleb128 8
 6813 0900 06       		.byte	0x6
 6814 0901 1C       		.byte	0x1c
ARM GAS  /var/folders/z0/6xlwn_996xz3mwq1cgzkbq4r0000gp/T//cc3rPjEN.s 			page 136


 6815 0902 32       		.byte	0x32
 6816 0903 1C       		.byte	0x1c
 6817 0904 9F       		.byte	0x9f
 6818 0905 BE020000 		.4byte	.LVL146
 6819 0909 C2020000 		.4byte	.LVL148
 6820 090d 0200     		.2byte	0x2
 6821 090f 30       		.byte	0x30
 6822 0910 9F       		.byte	0x9f
 6823 0911 00000000 		.4byte	0
 6824 0915 00000000 		.4byte	0
 6825              	.LLST33:
 6826 0919 5C020000 		.4byte	.LVL122
 6827 091d 66020000 		.4byte	.LVL125
 6828 0921 0100     		.2byte	0x1
 6829 0923 51       		.byte	0x51
 6830 0924 66020000 		.4byte	.LVL125
 6831 0928 7A020000 		.4byte	.LVL129
 6832 092c 0200     		.2byte	0x2
 6833 092e 78       		.byte	0x78
 6834 092f 08       		.sleb128 8
 6835 0930 B6020000 		.4byte	.LVL142
 6836 0934 BA020000 		.4byte	.LVL144
 6837 0938 0100     		.2byte	0x1
 6838 093a 51       		.byte	0x51
 6839 093b 00000000 		.4byte	0
 6840 093f 00000000 		.4byte	0
 6841              	.LLST34:
 6842 0943 5C020000 		.4byte	.LVL122
 6843 0947 66020000 		.4byte	.LVL125
 6844 094b 0200     		.2byte	0x2
 6845 094d 30       		.byte	0x30
 6846 094e 9F       		.byte	0x9f
 6847 094f 66020000 		.4byte	.LVL125
 6848 0953 6A020000 		.4byte	.LVL126
 6849 0957 0100     		.2byte	0x1
 6850 0959 53       		.byte	0x53
 6851 095a 76020000 		.4byte	.LVL128
 6852 095e 7A020000 		.4byte	.LVL129
 6853 0962 0100     		.2byte	0x1
 6854 0964 53       		.byte	0x53
 6855 0965 B6020000 		.4byte	.LVL142
 6856 0969 BA020000 		.4byte	.LVL144
 6857 096d 0200     		.2byte	0x2
 6858 096f 30       		.byte	0x30
 6859 0970 9F       		.byte	0x9f
 6860 0971 00000000 		.4byte	0
 6861 0975 00000000 		.4byte	0
 6862              	.LLST35:
 6863 0979 5C020000 		.4byte	.LVL122
 6864 097d 66020000 		.4byte	.LVL125
 6865 0981 0200     		.2byte	0x2
 6866 0983 30       		.byte	0x30
 6867 0984 9F       		.byte	0x9f
 6868 0985 66020000 		.4byte	.LVL125
 6869 0989 6E020000 		.4byte	.LVL127
 6870 098d 0800     		.2byte	0x8
 6871 098f 78       		.byte	0x78
ARM GAS  /var/folders/z0/6xlwn_996xz3mwq1cgzkbq4r0000gp/T//cc3rPjEN.s 			page 137


 6872 0990 08       		.sleb128 8
 6873 0991 06       		.byte	0x6
 6874 0992 20       		.byte	0x20
 6875 0993 71       		.byte	0x71
 6876 0994 00       		.sleb128 0
 6877 0995 22       		.byte	0x22
 6878 0996 9F       		.byte	0x9f
 6879 0997 6E020000 		.4byte	.LVL127
 6880 099b 76020000 		.4byte	.LVL128
 6881 099f 0900     		.2byte	0x9
 6882 09a1 71       		.byte	0x71
 6883 09a2 00       		.sleb128 0
 6884 09a3 78       		.byte	0x78
 6885 09a4 08       		.sleb128 8
 6886 09a5 06       		.byte	0x6
 6887 09a6 1C       		.byte	0x1c
 6888 09a7 32       		.byte	0x32
 6889 09a8 1C       		.byte	0x1c
 6890 09a9 9F       		.byte	0x9f
 6891 09aa B6020000 		.4byte	.LVL142
 6892 09ae BA020000 		.4byte	.LVL144
 6893 09b2 0200     		.2byte	0x2
 6894 09b4 30       		.byte	0x30
 6895 09b5 9F       		.byte	0x9f
 6896 09b6 00000000 		.4byte	0
 6897 09ba 00000000 		.4byte	0
 6898              	.LLST36:
 6899 09be 8A020000 		.4byte	.LVL131
 6900 09c2 94020000 		.4byte	.LVL134
 6901 09c6 0100     		.2byte	0x1
 6902 09c8 51       		.byte	0x51
 6903 09c9 94020000 		.4byte	.LVL134
 6904 09cd A8020000 		.4byte	.LVL138
 6905 09d1 0200     		.2byte	0x2
 6906 09d3 78       		.byte	0x78
 6907 09d4 08       		.sleb128 8
 6908 09d5 B2020000 		.4byte	.LVL140
 6909 09d9 B6020000 		.4byte	.LVL142
 6910 09dd 0100     		.2byte	0x1
 6911 09df 51       		.byte	0x51
 6912 09e0 00000000 		.4byte	0
 6913 09e4 00000000 		.4byte	0
 6914              	.LLST37:
 6915 09e8 8A020000 		.4byte	.LVL131
 6916 09ec 94020000 		.4byte	.LVL134
 6917 09f0 0200     		.2byte	0x2
 6918 09f2 30       		.byte	0x30
 6919 09f3 9F       		.byte	0x9f
 6920 09f4 94020000 		.4byte	.LVL134
 6921 09f8 98020000 		.4byte	.LVL135
 6922 09fc 0100     		.2byte	0x1
 6923 09fe 53       		.byte	0x53
 6924 09ff A4020000 		.4byte	.LVL137
 6925 0a03 A8020000 		.4byte	.LVL138
 6926 0a07 0100     		.2byte	0x1
 6927 0a09 53       		.byte	0x53
 6928 0a0a B2020000 		.4byte	.LVL140
ARM GAS  /var/folders/z0/6xlwn_996xz3mwq1cgzkbq4r0000gp/T//cc3rPjEN.s 			page 138


 6929 0a0e B6020000 		.4byte	.LVL142
 6930 0a12 0200     		.2byte	0x2
 6931 0a14 30       		.byte	0x30
 6932 0a15 9F       		.byte	0x9f
 6933 0a16 00000000 		.4byte	0
 6934 0a1a 00000000 		.4byte	0
 6935              	.LLST38:
 6936 0a1e 8A020000 		.4byte	.LVL131
 6937 0a22 94020000 		.4byte	.LVL134
 6938 0a26 0200     		.2byte	0x2
 6939 0a28 30       		.byte	0x30
 6940 0a29 9F       		.byte	0x9f
 6941 0a2a 94020000 		.4byte	.LVL134
 6942 0a2e 9C020000 		.4byte	.LVL136
 6943 0a32 0800     		.2byte	0x8
 6944 0a34 78       		.byte	0x78
 6945 0a35 08       		.sleb128 8
 6946 0a36 06       		.byte	0x6
 6947 0a37 20       		.byte	0x20
 6948 0a38 71       		.byte	0x71
 6949 0a39 00       		.sleb128 0
 6950 0a3a 22       		.byte	0x22
 6951 0a3b 9F       		.byte	0x9f
 6952 0a3c 9C020000 		.4byte	.LVL136
 6953 0a40 A4020000 		.4byte	.LVL137
 6954 0a44 0900     		.2byte	0x9
 6955 0a46 71       		.byte	0x71
 6956 0a47 00       		.sleb128 0
 6957 0a48 78       		.byte	0x78
 6958 0a49 08       		.sleb128 8
 6959 0a4a 06       		.byte	0x6
 6960 0a4b 1C       		.byte	0x1c
 6961 0a4c 32       		.byte	0x32
 6962 0a4d 1C       		.byte	0x1c
 6963 0a4e 9F       		.byte	0x9f
 6964 0a4f B2020000 		.4byte	.LVL140
 6965 0a53 B6020000 		.4byte	.LVL142
 6966 0a57 0200     		.2byte	0x2
 6967 0a59 30       		.byte	0x30
 6968 0a5a 9F       		.byte	0x9f
 6969 0a5b 00000000 		.4byte	0
 6970 0a5f 00000000 		.4byte	0
 6971              	.LLST39:
 6972 0a63 00000000 		.4byte	.LVL164
 6973 0a67 10000000 		.4byte	.LVL165
 6974 0a6b 0100     		.2byte	0x1
 6975 0a6d 50       		.byte	0x50
 6976 0a6e 10000000 		.4byte	.LVL165
 6977 0a72 6C010000 		.4byte	.LFE199
 6978 0a76 0400     		.2byte	0x4
 6979 0a78 F3       		.byte	0xf3
 6980 0a79 01       		.uleb128 0x1
 6981 0a7a 50       		.byte	0x50
 6982 0a7b 9F       		.byte	0x9f
 6983 0a7c 00000000 		.4byte	0
 6984 0a80 00000000 		.4byte	0
 6985              	.LLST40:
ARM GAS  /var/folders/z0/6xlwn_996xz3mwq1cgzkbq4r0000gp/T//cc3rPjEN.s 			page 139


 6986 0a84 00000000 		.4byte	.LVL164
 6987 0a88 10000000 		.4byte	.LVL165
 6988 0a8c 0200     		.2byte	0x2
 6989 0a8e 30       		.byte	0x30
 6990 0a8f 9F       		.byte	0x9f
 6991 0a90 10000000 		.4byte	.LVL165
 6992 0a94 1E000000 		.4byte	.LVL168
 6993 0a98 0100     		.2byte	0x1
 6994 0a9a 54       		.byte	0x54
 6995 0a9b 20000000 		.4byte	.LVL169
 6996 0a9f 28000000 		.4byte	.LVL170
 6997 0aa3 0100     		.2byte	0x1
 6998 0aa5 54       		.byte	0x54
 6999 0aa6 48000000 		.4byte	.LVL176
 7000 0aaa 50000000 		.4byte	.LVL177
 7001 0aae 0100     		.2byte	0x1
 7002 0ab0 54       		.byte	0x54
 7003 0ab1 00000000 		.4byte	0
 7004 0ab5 00000000 		.4byte	0
 7005              	.LLST41:
 7006 0ab9 00000000 		.4byte	.LVL164
 7007 0abd 44000000 		.4byte	.LVL175
 7008 0ac1 0200     		.2byte	0x2
 7009 0ac3 30       		.byte	0x30
 7010 0ac4 9F       		.byte	0x9f
 7011 0ac5 48000000 		.4byte	.LVL176
 7012 0ac9 6C010000 		.4byte	.LFE199
 7013 0acd 0200     		.2byte	0x2
 7014 0acf 31       		.byte	0x31
 7015 0ad0 9F       		.byte	0x9f
 7016 0ad1 00000000 		.4byte	0
 7017 0ad5 00000000 		.4byte	0
 7018              	.LLST42:
 7019 0ad9 28000000 		.4byte	.LVL170
 7020 0add 36000000 		.4byte	.LVL173
 7021 0ae1 0100     		.2byte	0x1
 7022 0ae3 54       		.byte	0x54
 7023 0ae4 38000000 		.4byte	.LVL174
 7024 0ae8 44000000 		.4byte	.LVL175
 7025 0aec 0100     		.2byte	0x1
 7026 0aee 54       		.byte	0x54
 7027 0aef 54000000 		.4byte	.LVL178
 7028 0af3 6A000000 		.4byte	.LVL179
 7029 0af7 0100     		.2byte	0x1
 7030 0af9 54       		.byte	0x54
 7031 0afa 7A000000 		.4byte	.LVL182
 7032 0afe 94000000 		.4byte	.LVL183
 7033 0b02 0100     		.2byte	0x1
 7034 0b04 54       		.byte	0x54
 7035 0b05 C0000000 		.4byte	.LVL187
 7036 0b09 CA000000 		.4byte	.LVL188
 7037 0b0d 0100     		.2byte	0x1
 7038 0b0f 54       		.byte	0x54
 7039 0b10 00000000 		.4byte	0
 7040 0b14 00000000 		.4byte	0
 7041              	.LLST43:
 7042 0b18 00000000 		.4byte	.LVL189
ARM GAS  /var/folders/z0/6xlwn_996xz3mwq1cgzkbq4r0000gp/T//cc3rPjEN.s 			page 140


 7043 0b1c 10000000 		.4byte	.LVL190
 7044 0b20 0100     		.2byte	0x1
 7045 0b22 50       		.byte	0x50
 7046 0b23 10000000 		.4byte	.LVL190
 7047 0b27 16000000 		.4byte	.LVL192
 7048 0b2b 0400     		.2byte	0x4
 7049 0b2d F3       		.byte	0xf3
 7050 0b2e 01       		.uleb128 0x1
 7051 0b2f 50       		.byte	0x50
 7052 0b30 9F       		.byte	0x9f
 7053 0b31 16000000 		.4byte	.LVL192
 7054 0b35 24000000 		.4byte	.LVL193
 7055 0b39 0100     		.2byte	0x1
 7056 0b3b 50       		.byte	0x50
 7057 0b3c 24000000 		.4byte	.LVL193
 7058 0b40 2C000000 		.4byte	.LVL195
 7059 0b44 0400     		.2byte	0x4
 7060 0b46 F3       		.byte	0xf3
 7061 0b47 01       		.uleb128 0x1
 7062 0b48 50       		.byte	0x50
 7063 0b49 9F       		.byte	0x9f
 7064 0b4a 2C000000 		.4byte	.LVL195
 7065 0b4e 36000000 		.4byte	.LVL196
 7066 0b52 0100     		.2byte	0x1
 7067 0b54 50       		.byte	0x50
 7068 0b55 36000000 		.4byte	.LVL196
 7069 0b59 50000000 		.4byte	.LFE205
 7070 0b5d 0400     		.2byte	0x4
 7071 0b5f F3       		.byte	0xf3
 7072 0b60 01       		.uleb128 0x1
 7073 0b61 50       		.byte	0x50
 7074 0b62 9F       		.byte	0x9f
 7075 0b63 00000000 		.4byte	0
 7076 0b67 00000000 		.4byte	0
 7077              	.LLST44:
 7078 0b6b 16000000 		.4byte	.LVL192
 7079 0b6f 24000000 		.4byte	.LVL193
 7080 0b73 0100     		.2byte	0x1
 7081 0b75 50       		.byte	0x50
 7082 0b76 24000000 		.4byte	.LVL193
 7083 0b7a 2C000000 		.4byte	.LVL195
 7084 0b7e 0400     		.2byte	0x4
 7085 0b80 F3       		.byte	0xf3
 7086 0b81 01       		.uleb128 0x1
 7087 0b82 50       		.byte	0x50
 7088 0b83 9F       		.byte	0x9f
 7089 0b84 2C000000 		.4byte	.LVL195
 7090 0b88 36000000 		.4byte	.LVL196
 7091 0b8c 0100     		.2byte	0x1
 7092 0b8e 50       		.byte	0x50
 7093 0b8f 36000000 		.4byte	.LVL196
 7094 0b93 50000000 		.4byte	.LFE205
 7095 0b97 0400     		.2byte	0x4
 7096 0b99 F3       		.byte	0xf3
 7097 0b9a 01       		.uleb128 0x1
 7098 0b9b 50       		.byte	0x50
 7099 0b9c 9F       		.byte	0x9f
ARM GAS  /var/folders/z0/6xlwn_996xz3mwq1cgzkbq4r0000gp/T//cc3rPjEN.s 			page 141


 7100 0b9d 00000000 		.4byte	0
 7101 0ba1 00000000 		.4byte	0
 7102              	.LLST45:
 7103 0ba5 00000000 		.4byte	.LVL198
 7104 0ba9 08000000 		.4byte	.LVL199
 7105 0bad 0100     		.2byte	0x1
 7106 0baf 50       		.byte	0x50
 7107 0bb0 08000000 		.4byte	.LVL199
 7108 0bb4 58000000 		.4byte	.LFE202
 7109 0bb8 0400     		.2byte	0x4
 7110 0bba F3       		.byte	0xf3
 7111 0bbb 01       		.uleb128 0x1
 7112 0bbc 50       		.byte	0x50
 7113 0bbd 9F       		.byte	0x9f
 7114 0bbe 00000000 		.4byte	0
 7115 0bc2 00000000 		.4byte	0
 7116              	.LLST46:
 7117 0bc6 00000000 		.4byte	.LVL198
 7118 0bca 22000000 		.4byte	.LVL204
 7119 0bce 0200     		.2byte	0x2
 7120 0bd0 30       		.byte	0x30
 7121 0bd1 9F       		.byte	0x9f
 7122 0bd2 24000000 		.4byte	.LVL205
 7123 0bd6 58000000 		.4byte	.LFE202
 7124 0bda 0200     		.2byte	0x2
 7125 0bdc 31       		.byte	0x31
 7126 0bdd 9F       		.byte	0x9f
 7127 0bde 00000000 		.4byte	0
 7128 0be2 00000000 		.4byte	0
 7129              	.LLST47:
 7130 0be6 00000000 		.4byte	.LVL198
 7131 0bea 10000000 		.4byte	.LVL201
 7132 0bee 0200     		.2byte	0x2
 7133 0bf0 30       		.byte	0x30
 7134 0bf1 9F       		.byte	0x9f
 7135 0bf2 10000000 		.4byte	.LVL201
 7136 0bf6 1C000000 		.4byte	.LVL203
 7137 0bfa 0200     		.2byte	0x2
 7138 0bfc 31       		.byte	0x31
 7139 0bfd 9F       		.byte	0x9f
 7140 0bfe 1C000000 		.4byte	.LVL203
 7141 0c02 22000000 		.4byte	.LVL204
 7142 0c06 0200     		.2byte	0x2
 7143 0c08 32       		.byte	0x32
 7144 0c09 9F       		.byte	0x9f
 7145 0c0a 24000000 		.4byte	.LVL205
 7146 0c0e 34000000 		.4byte	.LVL208
 7147 0c12 0200     		.2byte	0x2
 7148 0c14 30       		.byte	0x30
 7149 0c15 9F       		.byte	0x9f
 7150 0c16 34000000 		.4byte	.LVL208
 7151 0c1a 58000000 		.4byte	.LFE202
 7152 0c1e 0200     		.2byte	0x2
 7153 0c20 31       		.byte	0x31
 7154 0c21 9F       		.byte	0x9f
 7155 0c22 00000000 		.4byte	0
 7156 0c26 00000000 		.4byte	0
ARM GAS  /var/folders/z0/6xlwn_996xz3mwq1cgzkbq4r0000gp/T//cc3rPjEN.s 			page 142


 7157              	.LLST48:
 7158 0c2a 24000000 		.4byte	.LVL205
 7159 0c2e 34000000 		.4byte	.LVL208
 7160 0c32 0400     		.2byte	0x4
 7161 0c34 F3       		.byte	0xf3
 7162 0c35 01       		.uleb128 0x1
 7163 0c36 50       		.byte	0x50
 7164 0c37 9F       		.byte	0x9f
 7165 0c38 00000000 		.4byte	0
 7166 0c3c 00000000 		.4byte	0
 7167              	.LLST49:
 7168 0c40 00000000 		.4byte	.LVL211
 7169 0c44 0C000000 		.4byte	.LVL212
 7170 0c48 0100     		.2byte	0x1
 7171 0c4a 50       		.byte	0x50
 7172 0c4b 0C000000 		.4byte	.LVL212
 7173 0c4f B4000000 		.4byte	.LFE201
 7174 0c53 0400     		.2byte	0x4
 7175 0c55 F3       		.byte	0xf3
 7176 0c56 01       		.uleb128 0x1
 7177 0c57 50       		.byte	0x50
 7178 0c58 9F       		.byte	0x9f
 7179 0c59 00000000 		.4byte	0
 7180 0c5d 00000000 		.4byte	0
 7181              	.LLST50:
 7182 0c61 00000000 		.4byte	.LVL211
 7183 0c65 0C000000 		.4byte	.LVL212
 7184 0c69 0200     		.2byte	0x2
 7185 0c6b 30       		.byte	0x30
 7186 0c6c 9F       		.byte	0x9f
 7187 0c6d 0C000000 		.4byte	.LVL212
 7188 0c71 1A000000 		.4byte	.LVL215
 7189 0c75 0100     		.2byte	0x1
 7190 0c77 54       		.byte	0x54
 7191 0c78 1C000000 		.4byte	.LVL216
 7192 0c7c 28000000 		.4byte	.LVL217
 7193 0c80 0100     		.2byte	0x1
 7194 0c82 54       		.byte	0x54
 7195 0c83 2A000000 		.4byte	.LVL218
 7196 0c87 4A000000 		.4byte	.LVL223
 7197 0c8b 0100     		.2byte	0x1
 7198 0c8d 54       		.byte	0x54
 7199 0c8e 00000000 		.4byte	0
 7200 0c92 00000000 		.4byte	0
 7201              	.LLST51:
 7202 0c96 44000000 		.4byte	.LVL222
 7203 0c9a 4E000000 		.4byte	.LVL224
 7204 0c9e 0200     		.2byte	0x2
 7205 0ca0 30       		.byte	0x30
 7206 0ca1 9F       		.byte	0x9f
 7207 0ca2 5E000000 		.4byte	.LVL226
 7208 0ca6 64000000 		.4byte	.LVL227
 7209 0caa 0200     		.2byte	0x2
 7210 0cac 3C       		.byte	0x3c
 7211 0cad 9F       		.byte	0x9f
 7212 0cae 64000000 		.4byte	.LVL227
 7213 0cb2 6A000000 		.4byte	.LVL228
ARM GAS  /var/folders/z0/6xlwn_996xz3mwq1cgzkbq4r0000gp/T//cc3rPjEN.s 			page 143


 7214 0cb6 0200     		.2byte	0x2
 7215 0cb8 3D       		.byte	0x3d
 7216 0cb9 9F       		.byte	0x9f
 7217 0cba 6A000000 		.4byte	.LVL228
 7218 0cbe 70000000 		.4byte	.LVL229
 7219 0cc2 0200     		.2byte	0x2
 7220 0cc4 3E       		.byte	0x3e
 7221 0cc5 9F       		.byte	0x9f
 7222 0cc6 70000000 		.4byte	.LVL229
 7223 0cca 76000000 		.4byte	.LVL230
 7224 0cce 0200     		.2byte	0x2
 7225 0cd0 3F       		.byte	0x3f
 7226 0cd1 9F       		.byte	0x9f
 7227 0cd2 76000000 		.4byte	.LVL230
 7228 0cd6 7C000000 		.4byte	.LVL231
 7229 0cda 0200     		.2byte	0x2
 7230 0cdc 40       		.byte	0x40
 7231 0cdd 9F       		.byte	0x9f
 7232 0cde 7C000000 		.4byte	.LVL231
 7233 0ce2 B4000000 		.4byte	.LFE201
 7234 0ce6 0200     		.2byte	0x2
 7235 0ce8 41       		.byte	0x41
 7236 0ce9 9F       		.byte	0x9f
 7237 0cea 00000000 		.4byte	0
 7238 0cee 00000000 		.4byte	0
 7239              	.LLST52:
 7240 0cf2 00000000 		.4byte	.LVL232
 7241 0cf6 12000000 		.4byte	.LVL233
 7242 0cfa 0100     		.2byte	0x1
 7243 0cfc 50       		.byte	0x50
 7244 0cfd 12000000 		.4byte	.LVL233
 7245 0d01 18000000 		.4byte	.LVL235
 7246 0d05 0400     		.2byte	0x4
 7247 0d07 F3       		.byte	0xf3
 7248 0d08 01       		.uleb128 0x1
 7249 0d09 50       		.byte	0x50
 7250 0d0a 9F       		.byte	0x9f
 7251 0d0b 18000000 		.4byte	.LVL235
 7252 0d0f 1E000000 		.4byte	.LVL236
 7253 0d13 0100     		.2byte	0x1
 7254 0d15 50       		.byte	0x50
 7255 0d16 1E000000 		.4byte	.LVL236
 7256 0d1a 88000000 		.4byte	.LFE204
 7257 0d1e 0400     		.2byte	0x4
 7258 0d20 F3       		.byte	0xf3
 7259 0d21 01       		.uleb128 0x1
 7260 0d22 50       		.byte	0x50
 7261 0d23 9F       		.byte	0x9f
 7262 0d24 00000000 		.4byte	0
 7263 0d28 00000000 		.4byte	0
 7264              	.LLST53:
 7265 0d2c 58000000 		.4byte	.LVL245
 7266 0d30 6A000000 		.4byte	.LVL247
 7267 0d34 0400     		.2byte	0x4
 7268 0d36 F3       		.byte	0xf3
 7269 0d37 01       		.uleb128 0x1
 7270 0d38 50       		.byte	0x50
ARM GAS  /var/folders/z0/6xlwn_996xz3mwq1cgzkbq4r0000gp/T//cc3rPjEN.s 			page 144


 7271 0d39 9F       		.byte	0x9f
 7272 0d3a 00000000 		.4byte	0
 7273 0d3e 00000000 		.4byte	0
 7274              	.LLST54:
 7275 0d42 30000000 		.4byte	.LVL238
 7276 0d46 4E000000 		.4byte	.LVL243
 7277 0d4a 0100     		.2byte	0x1
 7278 0d4c 54       		.byte	0x54
 7279 0d4d 6A000000 		.4byte	.LVL247
 7280 0d51 88000000 		.4byte	.LFE204
 7281 0d55 0100     		.2byte	0x1
 7282 0d57 54       		.byte	0x54
 7283 0d58 00000000 		.4byte	0
 7284 0d5c 00000000 		.4byte	0
 7285              	.LLST55:
 7286 0d60 30000000 		.4byte	.LVL238
 7287 0d64 3A000000 		.4byte	.LVL239
 7288 0d68 0200     		.2byte	0x2
 7289 0d6a 30       		.byte	0x30
 7290 0d6b 9F       		.byte	0x9f
 7291 0d6c 3A000000 		.4byte	.LVL239
 7292 0d70 3E000000 		.4byte	.LVL240
 7293 0d74 0100     		.2byte	0x1
 7294 0d76 53       		.byte	0x53
 7295 0d77 4A000000 		.4byte	.LVL242
 7296 0d7b 4E000000 		.4byte	.LVL243
 7297 0d7f 0100     		.2byte	0x1
 7298 0d81 53       		.byte	0x53
 7299 0d82 6A000000 		.4byte	.LVL247
 7300 0d86 88000000 		.4byte	.LFE204
 7301 0d8a 0200     		.2byte	0x2
 7302 0d8c 30       		.byte	0x30
 7303 0d8d 9F       		.byte	0x9f
 7304 0d8e 00000000 		.4byte	0
 7305 0d92 00000000 		.4byte	0
 7306              	.LLST56:
 7307 0d96 30000000 		.4byte	.LVL238
 7308 0d9a 3A000000 		.4byte	.LVL239
 7309 0d9e 0200     		.2byte	0x2
 7310 0da0 30       		.byte	0x30
 7311 0da1 9F       		.byte	0x9f
 7312 0da2 3A000000 		.4byte	.LVL239
 7313 0da6 42000000 		.4byte	.LVL241
 7314 0daa 0700     		.2byte	0x7
 7315 0dac 74       		.byte	0x74
 7316 0dad 00       		.sleb128 0
 7317 0dae 20       		.byte	0x20
 7318 0daf 70       		.byte	0x70
 7319 0db0 00       		.sleb128 0
 7320 0db1 22       		.byte	0x22
 7321 0db2 9F       		.byte	0x9f
 7322 0db3 42000000 		.4byte	.LVL241
 7323 0db7 4A000000 		.4byte	.LVL242
 7324 0dbb 0800     		.2byte	0x8
 7325 0dbd 70       		.byte	0x70
 7326 0dbe 00       		.sleb128 0
 7327 0dbf 74       		.byte	0x74
ARM GAS  /var/folders/z0/6xlwn_996xz3mwq1cgzkbq4r0000gp/T//cc3rPjEN.s 			page 145


 7328 0dc0 00       		.sleb128 0
 7329 0dc1 1C       		.byte	0x1c
 7330 0dc2 32       		.byte	0x32
 7331 0dc3 1C       		.byte	0x1c
 7332 0dc4 9F       		.byte	0x9f
 7333 0dc5 6A000000 		.4byte	.LVL247
 7334 0dc9 88000000 		.4byte	.LFE204
 7335 0dcd 0200     		.2byte	0x2
 7336 0dcf 30       		.byte	0x30
 7337 0dd0 9F       		.byte	0x9f
 7338 0dd1 00000000 		.4byte	0
 7339 0dd5 00000000 		.4byte	0
 7340              	.LLST57:
 7341 0dd9 00000000 		.4byte	.LVL248
 7342 0ddd 0A000000 		.4byte	.LVL249
 7343 0de1 0100     		.2byte	0x1
 7344 0de3 50       		.byte	0x50
 7345 0de4 0A000000 		.4byte	.LVL249
 7346 0de8 20000000 		.4byte	.LVL254
 7347 0dec 0400     		.2byte	0x4
 7348 0dee F3       		.byte	0xf3
 7349 0def 01       		.uleb128 0x1
 7350 0df0 50       		.byte	0x50
 7351 0df1 9F       		.byte	0x9f
 7352 0df2 20000000 		.4byte	.LVL254
 7353 0df6 22000000 		.4byte	.LVL255
 7354 0dfa 0100     		.2byte	0x1
 7355 0dfc 50       		.byte	0x50
 7356 0dfd 22000000 		.4byte	.LVL255
 7357 0e01 24000000 		.4byte	.LFE198
 7358 0e05 0400     		.2byte	0x4
 7359 0e07 F3       		.byte	0xf3
 7360 0e08 01       		.uleb128 0x1
 7361 0e09 50       		.byte	0x50
 7362 0e0a 9F       		.byte	0x9f
 7363 0e0b 00000000 		.4byte	0
 7364 0e0f 00000000 		.4byte	0
 7365              	.LLST58:
 7366 0e13 00000000 		.4byte	.LVL248
 7367 0e17 0A000000 		.4byte	.LVL249
 7368 0e1b 0200     		.2byte	0x2
 7369 0e1d 30       		.byte	0x30
 7370 0e1e 9F       		.byte	0x9f
 7371 0e1f 0A000000 		.4byte	.LVL249
 7372 0e23 0E000000 		.4byte	.LVL250
 7373 0e27 0100     		.2byte	0x1
 7374 0e29 50       		.byte	0x50
 7375 0e2a 1A000000 		.4byte	.LVL252
 7376 0e2e 1E000000 		.4byte	.LVL253
 7377 0e32 0100     		.2byte	0x1
 7378 0e34 50       		.byte	0x50
 7379 0e35 20000000 		.4byte	.LVL254
 7380 0e39 24000000 		.4byte	.LFE198
 7381 0e3d 0200     		.2byte	0x2
 7382 0e3f 30       		.byte	0x30
 7383 0e40 9F       		.byte	0x9f
 7384 0e41 00000000 		.4byte	0
ARM GAS  /var/folders/z0/6xlwn_996xz3mwq1cgzkbq4r0000gp/T//cc3rPjEN.s 			page 146


 7385 0e45 00000000 		.4byte	0
 7386              	.LLST59:
 7387 0e49 00000000 		.4byte	.LVL248
 7388 0e4d 0A000000 		.4byte	.LVL249
 7389 0e51 0200     		.2byte	0x2
 7390 0e53 30       		.byte	0x30
 7391 0e54 9F       		.byte	0x9f
 7392 0e55 0A000000 		.4byte	.LVL249
 7393 0e59 12000000 		.4byte	.LVL251
 7394 0e5d 0800     		.2byte	0x8
 7395 0e5f F3       		.byte	0xf3
 7396 0e60 01       		.uleb128 0x1
 7397 0e61 50       		.byte	0x50
 7398 0e62 20       		.byte	0x20
 7399 0e63 72       		.byte	0x72
 7400 0e64 00       		.sleb128 0
 7401 0e65 22       		.byte	0x22
 7402 0e66 9F       		.byte	0x9f
 7403 0e67 12000000 		.4byte	.LVL251
 7404 0e6b 1A000000 		.4byte	.LVL252
 7405 0e6f 0900     		.2byte	0x9
 7406 0e71 72       		.byte	0x72
 7407 0e72 00       		.sleb128 0
 7408 0e73 F3       		.byte	0xf3
 7409 0e74 01       		.uleb128 0x1
 7410 0e75 50       		.byte	0x50
 7411 0e76 1C       		.byte	0x1c
 7412 0e77 32       		.byte	0x32
 7413 0e78 1C       		.byte	0x1c
 7414 0e79 9F       		.byte	0x9f
 7415 0e7a 20000000 		.4byte	.LVL254
 7416 0e7e 24000000 		.4byte	.LFE198
 7417 0e82 0200     		.2byte	0x2
 7418 0e84 30       		.byte	0x30
 7419 0e85 9F       		.byte	0x9f
 7420 0e86 00000000 		.4byte	0
 7421 0e8a 00000000 		.4byte	0
 7422              	.LLST60:
 7423 0e8e 00000000 		.4byte	.LVL256
 7424 0e92 0C000000 		.4byte	.LVL257
 7425 0e96 0100     		.2byte	0x1
 7426 0e98 51       		.byte	0x51
 7427 0e99 0C000000 		.4byte	.LVL257
 7428 0e9d 2C000000 		.4byte	.LFE206
 7429 0ea1 0500     		.2byte	0x5
 7430 0ea3 03       		.byte	0x3
 7431 0ea4 00000000 		.4byte	csb_state
 7432 0ea8 00000000 		.4byte	0
 7433 0eac 00000000 		.4byte	0
 7434              	.LLST61:
 7435 0eb0 00000000 		.4byte	.LVL258
 7436 0eb4 14000000 		.4byte	.LVL260
 7437 0eb8 0100     		.2byte	0x1
 7438 0eba 50       		.byte	0x50
 7439 0ebb 14000000 		.4byte	.LVL260
 7440 0ebf 2E000000 		.4byte	.LVL264
 7441 0ec3 0100     		.2byte	0x1
ARM GAS  /var/folders/z0/6xlwn_996xz3mwq1cgzkbq4r0000gp/T//cc3rPjEN.s 			page 147


 7442 0ec5 57       		.byte	0x57
 7443 0ec6 2E000000 		.4byte	.LVL264
 7444 0eca 34000000 		.4byte	.LVL266
 7445 0ece 0400     		.2byte	0x4
 7446 0ed0 F3       		.byte	0xf3
 7447 0ed1 01       		.uleb128 0x1
 7448 0ed2 50       		.byte	0x50
 7449 0ed3 9F       		.byte	0x9f
 7450 0ed4 34000000 		.4byte	.LVL266
 7451 0ed8 38000000 		.4byte	.LVL267
 7452 0edc 0100     		.2byte	0x1
 7453 0ede 57       		.byte	0x57
 7454 0edf 38000000 		.4byte	.LVL267
 7455 0ee3 6C000000 		.4byte	.LFE207
 7456 0ee7 0300     		.2byte	0x3
 7457 0ee9 77       		.byte	0x77
 7458 0eea 01       		.sleb128 1
 7459 0eeb 9F       		.byte	0x9f
 7460 0eec 00000000 		.4byte	0
 7461 0ef0 00000000 		.4byte	0
 7462              	.LLST62:
 7463 0ef4 00000000 		.4byte	.LVL258
 7464 0ef8 10000000 		.4byte	.LVL259
 7465 0efc 0100     		.2byte	0x1
 7466 0efe 51       		.byte	0x51
 7467 0eff 10000000 		.4byte	.LVL259
 7468 0f03 2E000000 		.4byte	.LVL265
 7469 0f07 0100     		.2byte	0x1
 7470 0f09 58       		.byte	0x58
 7471 0f0a 2E000000 		.4byte	.LVL265
 7472 0f0e 34000000 		.4byte	.LVL266
 7473 0f12 0400     		.2byte	0x4
 7474 0f14 F3       		.byte	0xf3
 7475 0f15 01       		.uleb128 0x1
 7476 0f16 51       		.byte	0x51
 7477 0f17 9F       		.byte	0x9f
 7478 0f18 34000000 		.4byte	.LVL266
 7479 0f1c 6C000000 		.4byte	.LFE207
 7480 0f20 0100     		.2byte	0x1
 7481 0f22 58       		.byte	0x58
 7482 0f23 00000000 		.4byte	0
 7483 0f27 00000000 		.4byte	0
 7484              	.LLST63:
 7485 0f2b 00000000 		.4byte	.LVL258
 7486 0f2f 14000000 		.4byte	.LVL260
 7487 0f33 0200     		.2byte	0x2
 7488 0f35 30       		.byte	0x30
 7489 0f36 9F       		.byte	0x9f
 7490 0f37 14000000 		.4byte	.LVL260
 7491 0f3b 2E000000 		.4byte	.LVL264
 7492 0f3f 0100     		.2byte	0x1
 7493 0f41 54       		.byte	0x54
 7494 0f42 34000000 		.4byte	.LVL266
 7495 0f46 4A000000 		.4byte	.LVL269
 7496 0f4a 0100     		.2byte	0x1
 7497 0f4c 54       		.byte	0x54
 7498 0f4d 00000000 		.4byte	0
ARM GAS  /var/folders/z0/6xlwn_996xz3mwq1cgzkbq4r0000gp/T//cc3rPjEN.s 			page 148


 7499 0f51 00000000 		.4byte	0
 7500              	.LLST64:
 7501 0f55 00000000 		.4byte	.LVL258
 7502 0f59 2E000000 		.4byte	.LVL264
 7503 0f5d 0200     		.2byte	0x2
 7504 0f5f 30       		.byte	0x30
 7505 0f60 9F       		.byte	0x9f
 7506 0f61 34000000 		.4byte	.LVL266
 7507 0f65 6C000000 		.4byte	.LFE207
 7508 0f69 0200     		.2byte	0x2
 7509 0f6b 31       		.byte	0x31
 7510 0f6c 9F       		.byte	0x9f
 7511 0f6d 00000000 		.4byte	0
 7512 0f71 00000000 		.4byte	0
 7513              	.LLST65:
 7514 0f75 00000000 		.4byte	.LVL271
 7515 0f79 24000000 		.4byte	.LVL275
 7516 0f7d 0100     		.2byte	0x1
 7517 0f7f 50       		.byte	0x50
 7518 0f80 24000000 		.4byte	.LVL275
 7519 0f84 2E000000 		.4byte	.LVL276
 7520 0f88 0100     		.2byte	0x1
 7521 0f8a 54       		.byte	0x54
 7522 0f8b 2E000000 		.4byte	.LVL276
 7523 0f8f 6E000000 		.4byte	.LVL287
 7524 0f93 0400     		.2byte	0x4
 7525 0f95 F3       		.byte	0xf3
 7526 0f96 01       		.uleb128 0x1
 7527 0f97 50       		.byte	0x50
 7528 0f98 9F       		.byte	0x9f
 7529 0f99 6E000000 		.4byte	.LVL287
 7530 0f9d 74000000 		.4byte	.LVL289
 7531 0fa1 0100     		.2byte	0x1
 7532 0fa3 50       		.byte	0x50
 7533 0fa4 74000000 		.4byte	.LVL289
 7534 0fa8 B4000000 		.4byte	.LFE208
 7535 0fac 0100     		.2byte	0x1
 7536 0fae 54       		.byte	0x54
 7537 0faf 00000000 		.4byte	0
 7538 0fb3 00000000 		.4byte	0
 7539              	.LLST66:
 7540 0fb7 00000000 		.4byte	.LVL271
 7541 0fbb 24000000 		.4byte	.LVL275
 7542 0fbf 0100     		.2byte	0x1
 7543 0fc1 51       		.byte	0x51
 7544 0fc2 24000000 		.4byte	.LVL275
 7545 0fc6 3A000000 		.4byte	.LVL279
 7546 0fca 0100     		.2byte	0x1
 7547 0fcc 56       		.byte	0x56
 7548 0fcd 3A000000 		.4byte	.LVL279
 7549 0fd1 3C000000 		.4byte	.LVL280
 7550 0fd5 0400     		.2byte	0x4
 7551 0fd7 F3       		.byte	0xf3
 7552 0fd8 01       		.uleb128 0x1
 7553 0fd9 51       		.byte	0x51
 7554 0fda 9F       		.byte	0x9f
 7555 0fdb 3C000000 		.4byte	.LVL280
ARM GAS  /var/folders/z0/6xlwn_996xz3mwq1cgzkbq4r0000gp/T//cc3rPjEN.s 			page 149


 7556 0fdf 6E000000 		.4byte	.LVL287
 7557 0fe3 0100     		.2byte	0x1
 7558 0fe5 56       		.byte	0x56
 7559 0fe6 6E000000 		.4byte	.LVL287
 7560 0fea 72000000 		.4byte	.LVL288
 7561 0fee 0100     		.2byte	0x1
 7562 0ff0 51       		.byte	0x51
 7563 0ff1 72000000 		.4byte	.LVL288
 7564 0ff5 B4000000 		.4byte	.LFE208
 7565 0ff9 0100     		.2byte	0x1
 7566 0ffb 56       		.byte	0x56
 7567 0ffc 00000000 		.4byte	0
 7568 1000 00000000 		.4byte	0
 7569              	.LLST67:
 7570 1004 00000000 		.4byte	.LVL271
 7571 1008 18000000 		.4byte	.LVL274
 7572 100c 0100     		.2byte	0x1
 7573 100e 52       		.byte	0x52
 7574 100f 18000000 		.4byte	.LVL274
 7575 1013 B4000000 		.4byte	.LFE208
 7576 1017 0400     		.2byte	0x4
 7577 1019 F3       		.byte	0xf3
 7578 101a 01       		.uleb128 0x1
 7579 101b 52       		.byte	0x52
 7580 101c 9F       		.byte	0x9f
 7581 101d 00000000 		.4byte	0
 7582 1021 00000000 		.4byte	0
 7583              	.LLST68:
 7584 1025 00000000 		.4byte	.LVL271
 7585 1029 06000000 		.4byte	.LVL272
 7586 102d 0100     		.2byte	0x1
 7587 102f 53       		.byte	0x53
 7588 1030 06000000 		.4byte	.LVL272
 7589 1034 3A000000 		.4byte	.LVL278
 7590 1038 0100     		.2byte	0x1
 7591 103a 55       		.byte	0x55
 7592 103b 3A000000 		.4byte	.LVL278
 7593 103f 3C000000 		.4byte	.LVL280
 7594 1043 0400     		.2byte	0x4
 7595 1045 F3       		.byte	0xf3
 7596 1046 01       		.uleb128 0x1
 7597 1047 53       		.byte	0x53
 7598 1048 9F       		.byte	0x9f
 7599 1049 3C000000 		.4byte	.LVL280
 7600 104d B4000000 		.4byte	.LFE208
 7601 1051 0100     		.2byte	0x1
 7602 1053 55       		.byte	0x55
 7603 1054 00000000 		.4byte	0
 7604 1058 00000000 		.4byte	0
 7605              	.LLST69:
 7606 105c 10000000 		.4byte	.LVL273
 7607 1060 24000000 		.4byte	.LVL275
 7608 1064 1400     		.2byte	0x14
 7609 1066 75       		.byte	0x75
 7610 1067 00       		.sleb128 0
 7611 1068 03       		.byte	0x3
 7612 1069 00000000 		.4byte	lastPackCurrentPrintTime
ARM GAS  /var/folders/z0/6xlwn_996xz3mwq1cgzkbq4r0000gp/T//cc3rPjEN.s 			page 150


 7613 106d 06       		.byte	0x6
 7614 106e 1C       		.byte	0x1c
 7615 106f 40       		.byte	0x40
 7616 1070 4B       		.byte	0x4b
 7617 1071 24       		.byte	0x24
 7618 1072 22       		.byte	0x22
 7619 1073 0C       		.byte	0xc
 7620 1074 E8030080 		.4byte	0x800003e8
 7621 1078 2B       		.byte	0x2b
 7622 1079 9F       		.byte	0x9f
 7623 107a 6E000000 		.4byte	.LVL287
 7624 107e 77000000 		.4byte	.LVL290-1
 7625 1082 1400     		.2byte	0x14
 7626 1084 75       		.byte	0x75
 7627 1085 00       		.sleb128 0
 7628 1086 03       		.byte	0x3
 7629 1087 00000000 		.4byte	lastPackCurrentPrintTime
 7630 108b 06       		.byte	0x6
 7631 108c 1C       		.byte	0x1c
 7632 108d 40       		.byte	0x40
 7633 108e 4B       		.byte	0x4b
 7634 108f 24       		.byte	0x24
 7635 1090 22       		.byte	0x22
 7636 1091 0C       		.byte	0xc
 7637 1092 E8030080 		.4byte	0x800003e8
 7638 1096 2B       		.byte	0x2b
 7639 1097 9F       		.byte	0x9f
 7640 1098 00000000 		.4byte	0
 7641 109c 00000000 		.4byte	0
 7642              	.LLST70:
 7643 10a0 24000000 		.4byte	.LVL275
 7644 10a4 38000000 		.4byte	.LVL277
 7645 10a8 1400     		.2byte	0x14
 7646 10aa 75       		.byte	0x75
 7647 10ab 00       		.sleb128 0
 7648 10ac 03       		.byte	0x3
 7649 10ad 00000000 		.4byte	lastPackVoltagePrintTime
 7650 10b1 06       		.byte	0x6
 7651 10b2 1C       		.byte	0x1c
 7652 10b3 40       		.byte	0x40
 7653 10b4 4B       		.byte	0x4b
 7654 10b5 24       		.byte	0x24
 7655 10b6 22       		.byte	0x22
 7656 10b7 0C       		.byte	0xc
 7657 10b8 E8030080 		.4byte	0x800003e8
 7658 10bc 2B       		.byte	0x2b
 7659 10bd 9F       		.byte	0x9f
 7660 10be 3C000000 		.4byte	.LVL280
 7661 10c2 45000000 		.4byte	.LVL281-1
 7662 10c6 1400     		.2byte	0x14
 7663 10c8 75       		.byte	0x75
 7664 10c9 00       		.sleb128 0
 7665 10ca 03       		.byte	0x3
 7666 10cb 00000000 		.4byte	lastPackVoltagePrintTime
 7667 10cf 06       		.byte	0x6
 7668 10d0 1C       		.byte	0x1c
 7669 10d1 40       		.byte	0x40
ARM GAS  /var/folders/z0/6xlwn_996xz3mwq1cgzkbq4r0000gp/T//cc3rPjEN.s 			page 151


 7670 10d2 4B       		.byte	0x4b
 7671 10d3 24       		.byte	0x24
 7672 10d4 22       		.byte	0x22
 7673 10d5 0C       		.byte	0xc
 7674 10d6 E8030080 		.4byte	0x800003e8
 7675 10da 2B       		.byte	0x2b
 7676 10db 9F       		.byte	0x9f
 7677 10dc 00000000 		.4byte	0
 7678 10e0 00000000 		.4byte	0
 7679              		.section	.debug_aranges,"",%progbits
 7680 0000 6C000000 		.4byte	0x6c
 7681 0004 0200     		.2byte	0x2
 7682 0006 00000000 		.4byte	.Ldebug_info0
 7683 000a 04       		.byte	0x4
 7684 000b 00       		.byte	0
 7685 000c 0000     		.2byte	0
 7686 000e 0000     		.2byte	0
 7687 0010 00000000 		.4byte	.LFB203
 7688 0014 E4000000 		.4byte	.LFE203-.LFB203
 7689 0018 00000000 		.4byte	.LFB200
 7690 001c 08030000 		.4byte	.LFE200-.LFB200
 7691 0020 00000000 		.4byte	.LFB199
 7692 0024 6C010000 		.4byte	.LFE199-.LFB199
 7693 0028 00000000 		.4byte	.LFB205
 7694 002c 50000000 		.4byte	.LFE205-.LFB205
 7695 0030 00000000 		.4byte	.LFB202
 7696 0034 58000000 		.4byte	.LFE202-.LFB202
 7697 0038 00000000 		.4byte	.LFB201
 7698 003c B4000000 		.4byte	.LFE201-.LFB201
 7699 0040 00000000 		.4byte	.LFB204
 7700 0044 88000000 		.4byte	.LFE204-.LFB204
 7701 0048 00000000 		.4byte	.LFB198
 7702 004c 24000000 		.4byte	.LFE198-.LFB198
 7703 0050 00000000 		.4byte	.LFB206
 7704 0054 2C000000 		.4byte	.LFE206-.LFB206
 7705 0058 00000000 		.4byte	.LFB207
 7706 005c 6C000000 		.4byte	.LFE207-.LFB207
 7707 0060 00000000 		.4byte	.LFB208
 7708 0064 B4000000 		.4byte	.LFE208-.LFB208
 7709 0068 00000000 		.4byte	0
 7710 006c 00000000 		.4byte	0
 7711              		.section	.debug_ranges,"",%progbits
 7712              	.Ldebug_ranges0:
 7713 0000 42000000 		.4byte	.LBB32
 7714 0004 5A000000 		.4byte	.LBE32
 7715 0008 74000000 		.4byte	.LBB33
 7716 000c 7C000000 		.4byte	.LBE33
 7717 0010 00000000 		.4byte	0
 7718 0014 00000000 		.4byte	0
 7719 0018 82000000 		.4byte	.LBB34
 7720 001c A2000000 		.4byte	.LBE34
 7721 0020 DA020000 		.4byte	.LBB80
 7722 0024 DE020000 		.4byte	.LBE80
 7723 0028 00000000 		.4byte	0
 7724 002c 00000000 		.4byte	0
 7725 0030 B2000000 		.4byte	.LBB37
 7726 0034 D2000000 		.4byte	.LBE37
ARM GAS  /var/folders/z0/6xlwn_996xz3mwq1cgzkbq4r0000gp/T//cc3rPjEN.s 			page 152


 7727 0038 DE020000 		.4byte	.LBB81
 7728 003c 08030000 		.4byte	.LBE81
 7729 0040 00000000 		.4byte	0
 7730 0044 00000000 		.4byte	0
 7731 0048 E2000000 		.4byte	.LBB40
 7732 004c 02010000 		.4byte	.LBE40
 7733 0050 CA020000 		.4byte	.LBB76
 7734 0054 CE020000 		.4byte	.LBE76
 7735 0058 00000000 		.4byte	0
 7736 005c 00000000 		.4byte	0
 7737 0060 12010000 		.4byte	.LBB43
 7738 0064 32010000 		.4byte	.LBE43
 7739 0068 D2020000 		.4byte	.LBB78
 7740 006c D6020000 		.4byte	.LBE78
 7741 0070 00000000 		.4byte	0
 7742 0074 00000000 		.4byte	0
 7743 0078 42010000 		.4byte	.LBB46
 7744 007c 62010000 		.4byte	.LBE46
 7745 0080 C2020000 		.4byte	.LBB74
 7746 0084 C6020000 		.4byte	.LBE74
 7747 0088 00000000 		.4byte	0
 7748 008c 00000000 		.4byte	0
 7749 0090 72010000 		.4byte	.LBB49
 7750 0094 92010000 		.4byte	.LBE49
 7751 0098 D6020000 		.4byte	.LBB79
 7752 009c DA020000 		.4byte	.LBE79
 7753 00a0 00000000 		.4byte	0
 7754 00a4 00000000 		.4byte	0
 7755 00a8 A2010000 		.4byte	.LBB52
 7756 00ac C2010000 		.4byte	.LBE52
 7757 00b0 CE020000 		.4byte	.LBB77
 7758 00b4 D2020000 		.4byte	.LBE77
 7759 00b8 00000000 		.4byte	0
 7760 00bc 00000000 		.4byte	0
 7761 00c0 D2010000 		.4byte	.LBB55
 7762 00c4 F0010000 		.4byte	.LBE55
 7763 00c8 BA020000 		.4byte	.LBB72
 7764 00cc BE020000 		.4byte	.LBE72
 7765 00d0 00000000 		.4byte	0
 7766 00d4 00000000 		.4byte	0
 7767 00d8 00020000 		.4byte	.LBB58
 7768 00dc 1E020000 		.4byte	.LBE58
 7769 00e0 C6020000 		.4byte	.LBB75
 7770 00e4 CA020000 		.4byte	.LBE75
 7771 00e8 00000000 		.4byte	0
 7772 00ec 00000000 		.4byte	0
 7773 00f0 2E020000 		.4byte	.LBB61
 7774 00f4 4C020000 		.4byte	.LBE61
 7775 00f8 BE020000 		.4byte	.LBB73
 7776 00fc C2020000 		.4byte	.LBE73
 7777 0100 00000000 		.4byte	0
 7778 0104 00000000 		.4byte	0
 7779 0108 5C020000 		.4byte	.LBB64
 7780 010c 7A020000 		.4byte	.LBE64
 7781 0110 B6020000 		.4byte	.LBB71
 7782 0114 BA020000 		.4byte	.LBE71
 7783 0118 00000000 		.4byte	0
ARM GAS  /var/folders/z0/6xlwn_996xz3mwq1cgzkbq4r0000gp/T//cc3rPjEN.s 			page 153


 7784 011c 00000000 		.4byte	0
 7785 0120 8A020000 		.4byte	.LBB67
 7786 0124 A8020000 		.4byte	.LBE67
 7787 0128 B2020000 		.4byte	.LBB70
 7788 012c B6020000 		.4byte	.LBE70
 7789 0130 00000000 		.4byte	0
 7790 0134 00000000 		.4byte	0
 7791 0138 2A000000 		.4byte	.LBB82
 7792 013c 44000000 		.4byte	.LBE82
 7793 0140 54000000 		.4byte	.LBB86
 7794 0144 78000000 		.4byte	.LBE86
 7795 0148 7A000000 		.4byte	.LBB87
 7796 014c CA000000 		.4byte	.LBE87
 7797 0150 00000000 		.4byte	0
 7798 0154 00000000 		.4byte	0
 7799 0158 48000000 		.4byte	.LBB85
 7800 015c 54000000 		.4byte	.LBE85
 7801 0160 CA000000 		.4byte	.LBB88
 7802 0164 6C010000 		.4byte	.LBE88
 7803 0168 00000000 		.4byte	0
 7804 016c 00000000 		.4byte	0
 7805 0170 22000000 		.4byte	.LBB110
 7806 0174 24000000 		.4byte	.LBE110
 7807 0178 58000000 		.4byte	.LBB116
 7808 017c 6A000000 		.4byte	.LBE116
 7809 0180 00000000 		.4byte	0
 7810 0184 00000000 		.4byte	0
 7811 0188 30000000 		.4byte	.LBB113
 7812 018c 4E000000 		.4byte	.LBE113
 7813 0190 6A000000 		.4byte	.LBB117
 7814 0194 88000000 		.4byte	.LBE117
 7815 0198 00000000 		.4byte	0
 7816 019c 00000000 		.4byte	0
 7817 01a0 10000000 		.4byte	.LBB118
 7818 01a4 38000000 		.4byte	.LBE118
 7819 01a8 3C000000 		.4byte	.LBB119
 7820 01ac 6C000000 		.4byte	.LBE119
 7821 01b0 6E000000 		.4byte	.LBB120
 7822 01b4 B4000000 		.4byte	.LBE120
 7823 01b8 00000000 		.4byte	0
 7824 01bc 00000000 		.4byte	0
 7825 01c0 00000000 		.4byte	.LFB203
 7826 01c4 E4000000 		.4byte	.LFE203
 7827 01c8 00000000 		.4byte	.LFB200
 7828 01cc 08030000 		.4byte	.LFE200
 7829 01d0 00000000 		.4byte	.LFB199
 7830 01d4 6C010000 		.4byte	.LFE199
 7831 01d8 00000000 		.4byte	.LFB205
 7832 01dc 50000000 		.4byte	.LFE205
 7833 01e0 00000000 		.4byte	.LFB202
 7834 01e4 58000000 		.4byte	.LFE202
 7835 01e8 00000000 		.4byte	.LFB201
 7836 01ec B4000000 		.4byte	.LFE201
 7837 01f0 00000000 		.4byte	.LFB204
 7838 01f4 88000000 		.4byte	.LFE204
 7839 01f8 00000000 		.4byte	.LFB198
 7840 01fc 24000000 		.4byte	.LFE198
ARM GAS  /var/folders/z0/6xlwn_996xz3mwq1cgzkbq4r0000gp/T//cc3rPjEN.s 			page 154


 7841 0200 00000000 		.4byte	.LFB206
 7842 0204 2C000000 		.4byte	.LFE206
 7843 0208 00000000 		.4byte	.LFB207
 7844 020c 6C000000 		.4byte	.LFE207
 7845 0210 00000000 		.4byte	.LFB208
 7846 0214 B4000000 		.4byte	.LFE208
 7847 0218 00000000 		.4byte	0
 7848 021c 00000000 		.4byte	0
 7849              		.section	.debug_macro,"",%progbits
 7850              	.Ldebug_macro0:
 7851 0000 0400     		.2byte	0x4
 7852 0002 02       		.byte	0x2
 7853 0003 00000000 		.4byte	.Ldebug_line0
 7854 0007 07       		.byte	0x7
 7855 0008 00000000 		.4byte	.Ldebug_macro1
 7856 000c 03       		.byte	0x3
 7857 000d 00       		.uleb128 0
 7858 000e 01       		.uleb128 0x1
 7859 000f 03       		.byte	0x3
 7860 0010 01       		.uleb128 0x1
 7861 0011 07       		.uleb128 0x7
 7862 0012 05       		.byte	0x5
 7863 0013 08       		.uleb128 0x8
 7864 0014 8D690000 		.4byte	.LASF347
 7865              		.file 12 "/usr/local/Cellar/gcc-arm-none-eabi/20160928/arm-none-eabi/include/_ansi.h"
 7866 0018 03       		.byte	0x3
 7867 0019 0A       		.uleb128 0xa
 7868 001a 0C       		.uleb128 0xc
 7869 001b 05       		.byte	0x5
 7870 001c 0D       		.uleb128 0xd
 7871 001d C9190000 		.4byte	.LASF348
 7872              		.file 13 "/usr/local/Cellar/gcc-arm-none-eabi/20160928/arm-none-eabi/include/newlib.h"
 7873 0021 03       		.byte	0x3
 7874 0022 0F       		.uleb128 0xf
 7875 0023 0D       		.uleb128 0xd
 7876 0024 05       		.byte	0x5
 7877 0025 08       		.uleb128 0x8
 7878 0026 C6790000 		.4byte	.LASF349
 7879              		.file 14 "/usr/local/Cellar/gcc-arm-none-eabi/20160928/arm-none-eabi/include/_newlib_version.h"
 7880 002a 03       		.byte	0x3
 7881 002b 0E       		.uleb128 0xe
 7882 002c 0E       		.uleb128 0xe
 7883 002d 07       		.byte	0x7
 7884 002e 00000000 		.4byte	.Ldebug_macro2
 7885 0032 04       		.byte	0x4
 7886 0033 07       		.byte	0x7
 7887 0034 00000000 		.4byte	.Ldebug_macro3
 7888 0038 04       		.byte	0x4
 7889              		.file 15 "/usr/local/Cellar/gcc-arm-none-eabi/20160928/arm-none-eabi/include/sys/config.h"
 7890 0039 03       		.byte	0x3
 7891 003a 10       		.uleb128 0x10
 7892 003b 0F       		.uleb128 0xf
 7893 003c 05       		.byte	0x5
 7894 003d 02       		.uleb128 0x2
 7895 003e 9D920000 		.4byte	.LASF367
 7896              		.file 16 "/usr/local/Cellar/gcc-arm-none-eabi/20160928/arm-none-eabi/include/machine/ieeefp.h"
 7897 0042 03       		.byte	0x3
ARM GAS  /var/folders/z0/6xlwn_996xz3mwq1cgzkbq4r0000gp/T//cc3rPjEN.s 			page 155


 7898 0043 04       		.uleb128 0x4
 7899 0044 10       		.uleb128 0x10
 7900 0045 05       		.byte	0x5
 7901 0046 3C       		.uleb128 0x3c
 7902 0047 C9600000 		.4byte	.LASF368
 7903 004b 04       		.byte	0x4
 7904              		.file 17 "/usr/local/Cellar/gcc-arm-none-eabi/20160928/arm-none-eabi/include/sys/features.h"
 7905 004c 03       		.byte	0x3
 7906 004d 05       		.uleb128 0x5
 7907 004e 11       		.uleb128 0x11
 7908 004f 07       		.byte	0x7
 7909 0050 00000000 		.4byte	.Ldebug_macro4
 7910 0054 04       		.byte	0x4
 7911 0055 07       		.byte	0x7
 7912 0056 00000000 		.4byte	.Ldebug_macro5
 7913 005a 04       		.byte	0x4
 7914 005b 07       		.byte	0x7
 7915 005c 00000000 		.4byte	.Ldebug_macro6
 7916 0060 04       		.byte	0x4
 7917              		.file 18 "/usr/local/Cellar/gcc-arm-none-eabi/20160928/arm-none-eabi/include/sys/reent.h"
 7918 0061 03       		.byte	0x3
 7919 0062 0B       		.uleb128 0xb
 7920 0063 12       		.uleb128 0x12
 7921 0064 05       		.byte	0x5
 7922 0065 0B       		.uleb128 0xb
 7923 0066 1A2C0000 		.4byte	.LASF421
 7924 006a 03       		.byte	0x3
 7925 006b 0D       		.uleb128 0xd
 7926 006c 0C       		.uleb128 0xc
 7927 006d 04       		.byte	0x4
 7928              		.file 19 "/usr/local/Cellar/gcc-arm-none-eabi/20160928/lib/gcc/arm-none-eabi/5.4.1/include/stddef.
 7929 006e 03       		.byte	0x3
 7930 006f 0E       		.uleb128 0xe
 7931 0070 13       		.uleb128 0x13
 7932 0071 07       		.byte	0x7
 7933 0072 00000000 		.4byte	.Ldebug_macro7
 7934 0076 04       		.byte	0x4
 7935              		.file 20 "/usr/local/Cellar/gcc-arm-none-eabi/20160928/arm-none-eabi/include/sys/_types.h"
 7936 0077 03       		.byte	0x3
 7937 0078 0F       		.uleb128 0xf
 7938 0079 14       		.uleb128 0x14
 7939 007a 05       		.byte	0x5
 7940 007b 14       		.uleb128 0x14
 7941 007c AC5E0000 		.4byte	.LASF474
 7942              		.file 21 "/usr/local/Cellar/gcc-arm-none-eabi/20160928/arm-none-eabi/include/machine/_types.h"
 7943 0080 03       		.byte	0x3
 7944 0081 18       		.uleb128 0x18
 7945 0082 15       		.uleb128 0x15
 7946 0083 05       		.byte	0x5
 7947 0084 06       		.uleb128 0x6
 7948 0085 32AD0000 		.4byte	.LASF475
 7949 0089 03       		.byte	0x3
 7950 008a 07       		.uleb128 0x7
 7951 008b 02       		.uleb128 0x2
 7952 008c 07       		.byte	0x7
 7953 008d 00000000 		.4byte	.Ldebug_macro8
 7954 0091 04       		.byte	0x4
ARM GAS  /var/folders/z0/6xlwn_996xz3mwq1cgzkbq4r0000gp/T//cc3rPjEN.s 			page 156


 7955 0092 04       		.byte	0x4
 7956              		.file 22 "/usr/local/Cellar/gcc-arm-none-eabi/20160928/arm-none-eabi/include/sys/lock.h"
 7957 0093 03       		.byte	0x3
 7958 0094 19       		.uleb128 0x19
 7959 0095 16       		.uleb128 0x16
 7960 0096 07       		.byte	0x7
 7961 0097 00000000 		.4byte	.Ldebug_macro9
 7962 009b 04       		.byte	0x4
 7963 009c 07       		.byte	0x7
 7964 009d 00000000 		.4byte	.Ldebug_macro10
 7965 00a1 03       		.byte	0x3
 7966 00a2 9F01     		.uleb128 0x9f
 7967 00a4 13       		.uleb128 0x13
 7968 00a5 07       		.byte	0x7
 7969 00a6 00000000 		.4byte	.Ldebug_macro11
 7970 00aa 04       		.byte	0x4
 7971 00ab 07       		.byte	0x7
 7972 00ac 00000000 		.4byte	.Ldebug_macro12
 7973 00b0 04       		.byte	0x4
 7974 00b1 07       		.byte	0x7
 7975 00b2 00000000 		.4byte	.Ldebug_macro13
 7976 00b6 04       		.byte	0x4
 7977              		.file 23 "/usr/local/Cellar/gcc-arm-none-eabi/20160928/arm-none-eabi/include/sys/cdefs.h"
 7978 00b7 03       		.byte	0x3
 7979 00b8 0C       		.uleb128 0xc
 7980 00b9 17       		.uleb128 0x17
 7981 00ba 05       		.byte	0x5
 7982 00bb 29       		.uleb128 0x29
 7983 00bc AB780000 		.4byte	.LASF566
 7984 00c0 03       		.byte	0x3
 7985 00c1 2D       		.uleb128 0x2d
 7986 00c2 13       		.uleb128 0x13
 7987 00c3 04       		.byte	0x4
 7988 00c4 07       		.byte	0x7
 7989 00c5 00000000 		.4byte	.Ldebug_macro14
 7990 00c9 04       		.byte	0x4
 7991 00ca 07       		.byte	0x7
 7992 00cb 00000000 		.4byte	.Ldebug_macro15
 7993 00cf 03       		.byte	0x3
 7994 00d0 11       		.uleb128 0x11
 7995 00d1 13       		.uleb128 0x13
 7996 00d2 07       		.byte	0x7
 7997 00d3 00000000 		.4byte	.Ldebug_macro16
 7998 00d7 04       		.byte	0x4
 7999              		.file 24 "/usr/local/Cellar/gcc-arm-none-eabi/20160928/arm-none-eabi/include/sys/_locale.h"
 8000 00d8 03       		.byte	0x3
 8001 00d9 14       		.uleb128 0x14
 8002 00da 18       		.uleb128 0x18
 8003 00db 05       		.byte	0x5
 8004 00dc 04       		.uleb128 0x4
 8005 00dd 77410000 		.4byte	.LASF689
 8006 00e1 04       		.byte	0x4
 8007              		.file 25 "/usr/local/Cellar/gcc-arm-none-eabi/20160928/arm-none-eabi/include/sys/string.h"
 8008 00e2 03       		.byte	0x3
 8009 00e3 C001     		.uleb128 0xc0
 8010 00e5 19       		.uleb128 0x19
 8011 00e6 04       		.byte	0x4
ARM GAS  /var/folders/z0/6xlwn_996xz3mwq1cgzkbq4r0000gp/T//cc3rPjEN.s 			page 157


 8012 00e7 04       		.byte	0x4
 8013 00e8 03       		.byte	0x3
 8014 00e9 02       		.uleb128 0x2
 8015 00ea 09       		.uleb128 0x9
 8016 00eb 05       		.byte	0x5
 8017 00ec 08       		.uleb128 0x8
 8018 00ed 42580000 		.4byte	.LASF690
 8019 00f1 03       		.byte	0x3
 8020 00f2 0A       		.uleb128 0xa
 8021 00f3 10       		.uleb128 0x10
 8022 00f4 04       		.byte	0x4
 8023 00f5 07       		.byte	0x7
 8024 00f6 00000000 		.4byte	.Ldebug_macro17
 8025 00fa 03       		.byte	0x3
 8026 00fb 10       		.uleb128 0x10
 8027 00fc 13       		.uleb128 0x13
 8028 00fd 07       		.byte	0x7
 8029 00fe 00000000 		.4byte	.Ldebug_macro16
 8030 0102 04       		.byte	0x4
 8031              		.file 26 "/usr/local/Cellar/gcc-arm-none-eabi/20160928/arm-none-eabi/include/machine/stdlib.h"
 8032 0103 03       		.byte	0x3
 8033 0104 14       		.uleb128 0x14
 8034 0105 1A       		.uleb128 0x1a
 8035 0106 05       		.byte	0x5
 8036 0107 02       		.uleb128 0x2
 8037 0108 2E190000 		.4byte	.LASF692
 8038 010c 04       		.byte	0x4
 8039              		.file 27 "/usr/local/Cellar/gcc-arm-none-eabi/20160928/arm-none-eabi/include/alloca.h"
 8040 010d 03       		.byte	0x3
 8041 010e 16       		.uleb128 0x16
 8042 010f 1B       		.uleb128 0x1b
 8043 0110 07       		.byte	0x7
 8044 0111 00000000 		.4byte	.Ldebug_macro18
 8045 0115 04       		.byte	0x4
 8046 0116 07       		.byte	0x7
 8047 0117 00000000 		.4byte	.Ldebug_macro19
 8048 011b 04       		.byte	0x4
 8049 011c 03       		.byte	0x3
 8050 011d 03       		.uleb128 0x3
 8051 011e 06       		.uleb128 0x6
 8052              		.file 28 "inc/microrl.h"
 8053 011f 03       		.byte	0x3
 8054 0120 01       		.uleb128 0x1
 8055 0121 1C       		.uleb128 0x1c
 8056 0122 05       		.byte	0x5
 8057 0123 02       		.uleb128 0x2
 8058 0124 6C070000 		.4byte	.LASF702
 8059              		.file 29 "/usr/local/Cellar/gcc-arm-none-eabi/20160928/lib/gcc/arm-none-eabi/5.4.1/include/stdbool
 8060 0128 03       		.byte	0x3
 8061 0129 04       		.uleb128 0x4
 8062 012a 1D       		.uleb128 0x1d
 8063 012b 07       		.byte	0x7
 8064 012c 00000000 		.4byte	.Ldebug_macro20
 8065 0130 04       		.byte	0x4
 8066              		.file 30 "/usr/local/Cellar/gcc-arm-none-eabi/20160928/lib/gcc/arm-none-eabi/5.4.1/include/stdint.
 8067 0131 03       		.byte	0x3
 8068 0132 05       		.uleb128 0x5
ARM GAS  /var/folders/z0/6xlwn_996xz3mwq1cgzkbq4r0000gp/T//cc3rPjEN.s 			page 158


 8069 0133 1E       		.uleb128 0x1e
 8070              		.file 31 "/usr/local/Cellar/gcc-arm-none-eabi/20160928/arm-none-eabi/include/stdint.h"
 8071 0134 03       		.byte	0x3
 8072 0135 09       		.uleb128 0x9
 8073 0136 1F       		.uleb128 0x1f
 8074 0137 05       		.byte	0x5
 8075 0138 0A       		.uleb128 0xa
 8076 0139 53890000 		.4byte	.LASF708
 8077              		.file 32 "/usr/local/Cellar/gcc-arm-none-eabi/20160928/arm-none-eabi/include/sys/_intsup.h"
 8078 013d 03       		.byte	0x3
 8079 013e 0D       		.uleb128 0xd
 8080 013f 20       		.uleb128 0x20
 8081 0140 07       		.byte	0x7
 8082 0141 00000000 		.4byte	.Ldebug_macro21
 8083 0145 04       		.byte	0x4
 8084 0146 03       		.byte	0x3
 8085 0147 0E       		.uleb128 0xe
 8086 0148 03       		.uleb128 0x3
 8087 0149 07       		.byte	0x7
 8088 014a 00000000 		.4byte	.Ldebug_macro22
 8089 014e 04       		.byte	0x4
 8090 014f 07       		.byte	0x7
 8091 0150 00000000 		.4byte	.Ldebug_macro23
 8092 0154 04       		.byte	0x4
 8093 0155 05       		.byte	0x5
 8094 0156 0D       		.uleb128 0xd
 8095 0157 AA870000 		.4byte	.LASF823
 8096 015b 04       		.byte	0x4
 8097              		.file 33 "inc/microrl_config.h"
 8098 015c 03       		.byte	0x3
 8099 015d 06       		.uleb128 0x6
 8100 015e 21       		.uleb128 0x21
 8101 015f 07       		.byte	0x7
 8102 0160 00000000 		.4byte	.Ldebug_macro24
 8103 0164 04       		.byte	0x4
 8104 0165 07       		.byte	0x7
 8105 0166 00000000 		.4byte	.Ldebug_macro25
 8106 016a 04       		.byte	0x4
 8107 016b 03       		.byte	0x3
 8108 016c 02       		.uleb128 0x2
 8109 016d 04       		.uleb128 0x4
 8110 016e 05       		.byte	0x5
 8111 016f 02       		.uleb128 0x2
 8112 0170 15780000 		.4byte	.LASF875
 8113 0174 04       		.byte	0x4
 8114 0175 03       		.byte	0x3
 8115 0176 03       		.uleb128 0x3
 8116 0177 05       		.uleb128 0x5
 8117 0178 07       		.byte	0x7
 8118 0179 00000000 		.4byte	.Ldebug_macro26
 8119 017d 04       		.byte	0x4
 8120 017e 05       		.byte	0x5
 8121 017f 06       		.uleb128 0x6
 8122 0180 0C4D0000 		.4byte	.LASF878
 8123 0184 04       		.byte	0x4
 8124 0185 03       		.byte	0x3
 8125 0186 04       		.uleb128 0x4
ARM GAS  /var/folders/z0/6xlwn_996xz3mwq1cgzkbq4r0000gp/T//cc3rPjEN.s 			page 159


 8126 0187 1C       		.uleb128 0x1c
 8127 0188 04       		.byte	0x4
 8128 0189 03       		.byte	0x3
 8129 018a 05       		.uleb128 0x5
 8130 018b 08       		.uleb128 0x8
 8131 018c 05       		.byte	0x5
 8132 018d 02       		.uleb128 0x2
 8133 018e 11070000 		.4byte	.LASF879
 8134 0192 03       		.byte	0x3
 8135 0193 05       		.uleb128 0x5
 8136 0194 0B       		.uleb128 0xb
 8137 0195 05       		.byte	0x5
 8138 0196 1E       		.uleb128 0x1e
 8139 0197 7F550000 		.4byte	.LASF880
 8140              		.file 34 "../../lib/lpc11cx4-library/lpc_chip_11cxx_lib/inc/lpc_types.h"
 8141 019b 03       		.byte	0x3
 8142 019c 20       		.uleb128 0x20
 8143 019d 22       		.uleb128 0x22
 8144 019e 07       		.byte	0x7
 8145 019f 00000000 		.4byte	.Ldebug_macro27
 8146 01a3 04       		.byte	0x4
 8147              		.file 35 "../../lib/lpc11cx4-library/lpc_chip_11cxx_lib/inc/sys_config.h"
 8148 01a4 03       		.byte	0x3
 8149 01a5 21       		.uleb128 0x21
 8150 01a6 23       		.uleb128 0x23
 8151 01a7 07       		.byte	0x7
 8152 01a8 00000000 		.4byte	.Ldebug_macro28
 8153 01ac 04       		.byte	0x4
 8154              		.file 36 "../../lib/lpc11cx4-library/lpc_chip_11cxx_lib/inc/cmsis.h"
 8155 01ad 03       		.byte	0x3
 8156 01ae 22       		.uleb128 0x22
 8157 01af 24       		.uleb128 0x24
 8158 01b0 05       		.byte	0x5
 8159 01b1 1E       		.uleb128 0x1e
 8160 01b2 26930000 		.4byte	.LASF899
 8161              		.file 37 "../../lib/lpc11cx4-library/lpc_chip_11cxx_lib/inc/cmsis_11cxx.h"
 8162 01b6 03       		.byte	0x3
 8163 01b7 2E       		.uleb128 0x2e
 8164 01b8 25       		.uleb128 0x25
 8165 01b9 07       		.byte	0x7
 8166 01ba 00000000 		.4byte	.Ldebug_macro29
 8167 01be 04       		.byte	0x4
 8168              		.file 38 "../../lib/lpc11cx4-library/lpc_chip_11cxx_lib/inc/core_cm0.h"
 8169 01bf 03       		.byte	0x3
 8170 01c0 3E       		.uleb128 0x3e
 8171 01c1 26       		.uleb128 0x26
 8172 01c2 07       		.byte	0x7
 8173 01c3 00000000 		.4byte	.Ldebug_macro30
 8174              		.file 39 "../../lib/lpc11cx4-library/lpc_chip_11cxx_lib/inc/core_cmInstr.h"
 8175 01c7 03       		.byte	0x3
 8176 01c8 70       		.uleb128 0x70
 8177 01c9 27       		.uleb128 0x27
 8178 01ca 05       		.byte	0x5
 8179 01cb 19       		.uleb128 0x19
 8180 01cc 9EAF0000 		.4byte	.LASF913
 8181 01d0 04       		.byte	0x4
 8182              		.file 40 "../../lib/lpc11cx4-library/lpc_chip_11cxx_lib/inc/core_cmFunc.h"
ARM GAS  /var/folders/z0/6xlwn_996xz3mwq1cgzkbq4r0000gp/T//cc3rPjEN.s 			page 160


 8183 01d1 03       		.byte	0x3
 8184 01d2 71       		.uleb128 0x71
 8185 01d3 28       		.uleb128 0x28
 8186 01d4 05       		.byte	0x5
 8187 01d5 19       		.uleb128 0x19
 8188 01d6 ED080000 		.4byte	.LASF914
 8189 01da 04       		.byte	0x4
 8190 01db 07       		.byte	0x7
 8191 01dc 00000000 		.4byte	.Ldebug_macro31
 8192 01e0 04       		.byte	0x4
 8193 01e1 04       		.byte	0x4
 8194 01e2 07       		.byte	0x7
 8195 01e3 00000000 		.4byte	.Ldebug_macro32
 8196              		.file 41 "../../lib/lpc11cx4-library/lpc_chip_11cxx_lib/inc/pmu_11xx.h"
 8197 01e7 03       		.byte	0x3
 8198 01e8 E901     		.uleb128 0xe9
 8199 01ea 29       		.uleb128 0x29
 8200 01eb 07       		.byte	0x7
 8201 01ec 00000000 		.4byte	.Ldebug_macro33
 8202 01f0 04       		.byte	0x4
 8203              		.file 42 "../../lib/lpc11cx4-library/lpc_chip_11cxx_lib/inc/fmc_11xx.h"
 8204 01f1 03       		.byte	0x3
 8205 01f2 EA01     		.uleb128 0xea
 8206 01f4 2A       		.uleb128 0x2a
 8207 01f5 05       		.byte	0x5
 8208 01f6 21       		.uleb128 0x21
 8209 01f7 07280000 		.4byte	.LASF1044
 8210 01fb 04       		.byte	0x4
 8211              		.file 43 "../../lib/lpc11cx4-library/lpc_chip_11cxx_lib/inc/sysctl_11xx.h"
 8212 01fc 03       		.byte	0x3
 8213 01fd EB01     		.uleb128 0xeb
 8214 01ff 2B       		.uleb128 0x2b
 8215 0200 07       		.byte	0x7
 8216 0201 00000000 		.4byte	.Ldebug_macro34
 8217 0205 04       		.byte	0x4
 8218              		.file 44 "../../lib/lpc11cx4-library/lpc_chip_11cxx_lib/inc/clock_11xx.h"
 8219 0206 03       		.byte	0x3
 8220 0207 EC01     		.uleb128 0xec
 8221 0209 2C       		.uleb128 0x2c
 8222 020a 07       		.byte	0x7
 8223 020b 00000000 		.4byte	.Ldebug_macro35
 8224 020f 04       		.byte	0x4
 8225              		.file 45 "../../lib/lpc11cx4-library/lpc_chip_11cxx_lib/inc/iocon_11xx.h"
 8226 0210 03       		.byte	0x3
 8227 0211 ED01     		.uleb128 0xed
 8228 0213 2D       		.uleb128 0x2d
 8229 0214 07       		.byte	0x7
 8230 0215 00000000 		.4byte	.Ldebug_macro36
 8231 0219 04       		.byte	0x4
 8232              		.file 46 "../../lib/lpc11cx4-library/lpc_chip_11cxx_lib/inc/timer_11xx.h"
 8233 021a 03       		.byte	0x3
 8234 021b EE01     		.uleb128 0xee
 8235 021d 2E       		.uleb128 0x2e
 8236 021e 07       		.byte	0x7
 8237 021f 00000000 		.4byte	.Ldebug_macro37
 8238 0223 04       		.byte	0x4
 8239              		.file 47 "../../lib/lpc11cx4-library/lpc_chip_11cxx_lib/inc/uart_11xx.h"
ARM GAS  /var/folders/z0/6xlwn_996xz3mwq1cgzkbq4r0000gp/T//cc3rPjEN.s 			page 161


 8240 0224 03       		.byte	0x3
 8241 0225 EF01     		.uleb128 0xef
 8242 0227 2F       		.uleb128 0x2f
 8243 0228 05       		.byte	0x5
 8244 0229 21       		.uleb128 0x21
 8245 022a 8C3B0000 		.4byte	.LASF1128
 8246              		.file 48 "../../lib/lpc11cx4-library/lpc_chip_11cxx_lib/inc/ring_buffer.h"
 8247 022e 03       		.byte	0x3
 8248 022f 23       		.uleb128 0x23
 8249 0230 30       		.uleb128 0x30
 8250 0231 07       		.byte	0x7
 8251 0232 00000000 		.4byte	.Ldebug_macro38
 8252 0236 04       		.byte	0x4
 8253 0237 07       		.byte	0x7
 8254 0238 00000000 		.4byte	.Ldebug_macro39
 8255 023c 04       		.byte	0x4
 8256              		.file 49 "../../lib/lpc11cx4-library/lpc_chip_11cxx_lib/inc/wwdt_11xx.h"
 8257 023d 03       		.byte	0x3
 8258 023e F001     		.uleb128 0xf0
 8259 0240 31       		.uleb128 0x31
 8260 0241 07       		.byte	0x7
 8261 0242 00000000 		.4byte	.Ldebug_macro40
 8262 0246 04       		.byte	0x4
 8263              		.file 50 "../../lib/lpc11cx4-library/lpc_chip_11cxx_lib/inc/ssp_11xx.h"
 8264 0247 03       		.byte	0x3
 8265 0248 F101     		.uleb128 0xf1
 8266 024a 32       		.uleb128 0x32
 8267 024b 07       		.byte	0x7
 8268 024c 00000000 		.4byte	.Ldebug_macro41
 8269 0250 04       		.byte	0x4
 8270              		.file 51 "../../lib/lpc11cx4-library/lpc_chip_11cxx_lib/inc/romapi_11xx.h"
 8271 0251 03       		.byte	0x3
 8272 0252 F201     		.uleb128 0xf2
 8273 0254 33       		.uleb128 0x33
 8274 0255 05       		.byte	0x5
 8275 0256 21       		.uleb128 0x21
 8276 0257 A7630000 		.4byte	.LASF1281
 8277              		.file 52 "../../lib/lpc11cx4-library/lpc_chip_11cxx_lib/inc/error.h"
 8278 025b 03       		.byte	0x3
 8279 025c 23       		.uleb128 0x23
 8280 025d 34       		.uleb128 0x34
 8281 025e 07       		.byte	0x7
 8282 025f 00000000 		.4byte	.Ldebug_macro42
 8283 0263 04       		.byte	0x4
 8284 0264 04       		.byte	0x4
 8285              		.file 53 "../../lib/lpc11cx4-library/lpc_chip_11cxx_lib/inc/adc_11xx.h"
 8286 0265 03       		.byte	0x3
 8287 0266 F601     		.uleb128 0xf6
 8288 0268 35       		.uleb128 0x35
 8289 0269 07       		.byte	0x7
 8290 026a 00000000 		.4byte	.Ldebug_macro43
 8291 026e 04       		.byte	0x4
 8292              		.file 54 "../../lib/lpc11cx4-library/lpc_chip_11cxx_lib/inc/gpio_11xx_2.h"
 8293 026f 03       		.byte	0x3
 8294 0270 FF01     		.uleb128 0xff
 8295 0272 36       		.uleb128 0x36
 8296 0273 05       		.byte	0x5
ARM GAS  /var/folders/z0/6xlwn_996xz3mwq1cgzkbq4r0000gp/T//cc3rPjEN.s 			page 162


 8297 0274 22       		.uleb128 0x22
 8298 0275 DC8B0000 		.4byte	.LASF1304
 8299 0279 04       		.byte	0x4
 8300              		.file 55 "../../lib/lpc11cx4-library/lpc_chip_11cxx_lib/inc/i2c_11xx.h"
 8301 027a 03       		.byte	0x3
 8302 027b 8C02     		.uleb128 0x10c
 8303 027d 37       		.uleb128 0x37
 8304 027e 07       		.byte	0x7
 8305 027f 00000000 		.4byte	.Ldebug_macro44
 8306 0283 04       		.byte	0x4
 8307              		.file 56 "../../lib/lpc11cx4-library/lpc_chip_11cxx_lib/inc/ccand_11xx.h"
 8308 0284 03       		.byte	0x3
 8309 0285 8F02     		.uleb128 0x10f
 8310 0287 38       		.uleb128 0x38
 8311 0288 07       		.byte	0x7
 8312 0289 00000000 		.4byte	.Ldebug_macro45
 8313 028d 04       		.byte	0x4
 8314 028e 04       		.byte	0x4
 8315              		.file 57 "../../lib/lpc11cx4-library/evt_lib/inc/can.h"
 8316 028f 03       		.byte	0x3
 8317 0290 06       		.uleb128 0x6
 8318 0291 39       		.uleb128 0x39
 8319 0292 05       		.byte	0x5
 8320 0293 03       		.uleb128 0x3
 8321 0294 C8020000 		.4byte	.LASF1429
 8322 0298 04       		.byte	0x4
 8323 0299 05       		.byte	0x5
 8324 029a 08       		.uleb128 0x8
 8325 029b BC3C0000 		.4byte	.LASF1430
 8326 029f 04       		.byte	0x4
 8327 02a0 03       		.byte	0x3
 8328 02a1 06       		.uleb128 0x6
 8329 02a2 05       		.uleb128 0x5
 8330 02a3 04       		.byte	0x4
 8331              		.file 58 "inc/config.h"
 8332 02a4 03       		.byte	0x3
 8333 02a5 07       		.uleb128 0x7
 8334 02a6 3A       		.uleb128 0x3a
 8335 02a7 07       		.byte	0x7
 8336 02a8 00000000 		.4byte	.Ldebug_macro46
 8337 02ac 04       		.byte	0x4
 8338 02ad 03       		.byte	0x3
 8339 02ae 08       		.uleb128 0x8
 8340 02af 0A       		.uleb128 0xa
 8341 02b0 05       		.byte	0x5
 8342 02b1 04       		.uleb128 0x4
 8343 02b2 72930000 		.4byte	.LASF1471
 8344 02b6 04       		.byte	0x4
 8345 02b7 04       		.byte	0x4
 8346 02b8 00       		.byte	0
 8347              		.section	.debug_macro,"G",%progbits,wm4.0.875846967d3f9b39cda0d496d1540481,comdat
 8348              	.Ldebug_macro1:
 8349 0000 0400     		.2byte	0x4
 8350 0002 00       		.byte	0
 8351 0003 05       		.byte	0x5
 8352 0004 00       		.uleb128 0
 8353 0005 01060000 		.4byte	.LASF0
ARM GAS  /var/folders/z0/6xlwn_996xz3mwq1cgzkbq4r0000gp/T//cc3rPjEN.s 			page 163


 8354 0009 05       		.byte	0x5
 8355 000a 00       		.uleb128 0
 8356 000b 9E480000 		.4byte	.LASF1
 8357 000f 05       		.byte	0x5
 8358 0010 00       		.uleb128 0
 8359 0011 6CAE0000 		.4byte	.LASF2
 8360 0015 05       		.byte	0x5
 8361 0016 00       		.uleb128 0
 8362 0017 F01C0000 		.4byte	.LASF3
 8363 001b 05       		.byte	0x5
 8364 001c 00       		.uleb128 0
 8365 001d DE220000 		.4byte	.LASF4
 8366 0021 05       		.byte	0x5
 8367 0022 00       		.uleb128 0
 8368 0023 80330000 		.4byte	.LASF5
 8369 0027 05       		.byte	0x5
 8370 0028 00       		.uleb128 0
 8371 0029 554D0000 		.4byte	.LASF6
 8372 002d 05       		.byte	0x5
 8373 002e 00       		.uleb128 0
 8374 002f 171C0000 		.4byte	.LASF7
 8375 0033 05       		.byte	0x5
 8376 0034 00       		.uleb128 0
 8377 0035 A9490000 		.4byte	.LASF8
 8378 0039 05       		.byte	0x5
 8379 003a 00       		.uleb128 0
 8380 003b 35A00000 		.4byte	.LASF9
 8381 003f 05       		.byte	0x5
 8382 0040 00       		.uleb128 0
 8383 0041 D6100000 		.4byte	.LASF10
 8384 0045 05       		.byte	0x5
 8385 0046 00       		.uleb128 0
 8386 0047 F7980000 		.4byte	.LASF11
 8387 004b 05       		.byte	0x5
 8388 004c 00       		.uleb128 0
 8389 004d 758D0000 		.4byte	.LASF12
 8390 0051 05       		.byte	0x5
 8391 0052 00       		.uleb128 0
 8392 0053 5D760000 		.4byte	.LASF13
 8393 0057 05       		.byte	0x5
 8394 0058 00       		.uleb128 0
 8395 0059 74130000 		.4byte	.LASF14
 8396 005d 05       		.byte	0x5
 8397 005e 00       		.uleb128 0
 8398 005f 44080000 		.4byte	.LASF15
 8399 0063 05       		.byte	0x5
 8400 0064 00       		.uleb128 0
 8401 0065 F04E0000 		.4byte	.LASF16
 8402 0069 05       		.byte	0x5
 8403 006a 00       		.uleb128 0
 8404 006b EB950000 		.4byte	.LASF17
 8405 006f 05       		.byte	0x5
 8406 0070 00       		.uleb128 0
 8407 0071 66A80000 		.4byte	.LASF18
 8408 0075 05       		.byte	0x5
 8409 0076 00       		.uleb128 0
 8410 0077 FF8A0000 		.4byte	.LASF19
ARM GAS  /var/folders/z0/6xlwn_996xz3mwq1cgzkbq4r0000gp/T//cc3rPjEN.s 			page 164


 8411 007b 05       		.byte	0x5
 8412 007c 00       		.uleb128 0
 8413 007d 5DA60000 		.4byte	.LASF20
 8414 0081 05       		.byte	0x5
 8415 0082 00       		.uleb128 0
 8416 0083 892E0000 		.4byte	.LASF21
 8417 0087 05       		.byte	0x5
 8418 0088 00       		.uleb128 0
 8419 0089 6D620000 		.4byte	.LASF22
 8420 008d 05       		.byte	0x5
 8421 008e 00       		.uleb128 0
 8422 008f 13170000 		.4byte	.LASF23
 8423 0093 05       		.byte	0x5
 8424 0094 00       		.uleb128 0
 8425 0095 732C0000 		.4byte	.LASF24
 8426 0099 05       		.byte	0x5
 8427 009a 00       		.uleb128 0
 8428 009b AA800000 		.4byte	.LASF25
 8429 009f 05       		.byte	0x5
 8430 00a0 00       		.uleb128 0
 8431 00a1 6A490000 		.4byte	.LASF26
 8432 00a5 05       		.byte	0x5
 8433 00a6 00       		.uleb128 0
 8434 00a7 0E370000 		.4byte	.LASF27
 8435 00ab 05       		.byte	0x5
 8436 00ac 00       		.uleb128 0
 8437 00ad EA000000 		.4byte	.LASF28
 8438 00b1 05       		.byte	0x5
 8439 00b2 00       		.uleb128 0
 8440 00b3 8B730000 		.4byte	.LASF29
 8441 00b7 05       		.byte	0x5
 8442 00b8 00       		.uleb128 0
 8443 00b9 BDA80000 		.4byte	.LASF30
 8444 00bd 05       		.byte	0x5
 8445 00be 00       		.uleb128 0
 8446 00bf 856E0000 		.4byte	.LASF31
 8447 00c3 05       		.byte	0x5
 8448 00c4 00       		.uleb128 0
 8449 00c5 79070000 		.4byte	.LASF32
 8450 00c9 05       		.byte	0x5
 8451 00ca 00       		.uleb128 0
 8452 00cb E2320000 		.4byte	.LASF33
 8453 00cf 05       		.byte	0x5
 8454 00d0 00       		.uleb128 0
 8455 00d1 7C620000 		.4byte	.LASF34
 8456 00d5 05       		.byte	0x5
 8457 00d6 00       		.uleb128 0
 8458 00d7 06740000 		.4byte	.LASF35
 8459 00db 05       		.byte	0x5
 8460 00dc 00       		.uleb128 0
 8461 00dd FB630000 		.4byte	.LASF36
 8462 00e1 05       		.byte	0x5
 8463 00e2 00       		.uleb128 0
 8464 00e3 8D720000 		.4byte	.LASF37
 8465 00e7 05       		.byte	0x5
 8466 00e8 00       		.uleb128 0
 8467 00e9 C5130000 		.4byte	.LASF38
ARM GAS  /var/folders/z0/6xlwn_996xz3mwq1cgzkbq4r0000gp/T//cc3rPjEN.s 			page 165


 8468 00ed 05       		.byte	0x5
 8469 00ee 00       		.uleb128 0
 8470 00ef 26900000 		.4byte	.LASF39
 8471 00f3 05       		.byte	0x5
 8472 00f4 00       		.uleb128 0
 8473 00f5 603D0000 		.4byte	.LASF40
 8474 00f9 05       		.byte	0x5
 8475 00fa 00       		.uleb128 0
 8476 00fb 4F820000 		.4byte	.LASF41
 8477 00ff 05       		.byte	0x5
 8478 0100 00       		.uleb128 0
 8479 0101 809E0000 		.4byte	.LASF42
 8480 0105 05       		.byte	0x5
 8481 0106 00       		.uleb128 0
 8482 0107 6C170000 		.4byte	.LASF43
 8483 010b 05       		.byte	0x5
 8484 010c 00       		.uleb128 0
 8485 010d D7190000 		.4byte	.LASF44
 8486 0111 05       		.byte	0x5
 8487 0112 00       		.uleb128 0
 8488 0113 CFA70000 		.4byte	.LASF45
 8489 0117 05       		.byte	0x5
 8490 0118 00       		.uleb128 0
 8491 0119 C5060000 		.4byte	.LASF46
 8492 011d 05       		.byte	0x5
 8493 011e 00       		.uleb128 0
 8494 011f 32550000 		.4byte	.LASF47
 8495 0123 05       		.byte	0x5
 8496 0124 00       		.uleb128 0
 8497 0125 53990000 		.4byte	.LASF48
 8498 0129 05       		.byte	0x5
 8499 012a 00       		.uleb128 0
 8500 012b 240F0000 		.4byte	.LASF49
 8501 012f 05       		.byte	0x5
 8502 0130 00       		.uleb128 0
 8503 0131 94140000 		.4byte	.LASF50
 8504 0135 05       		.byte	0x5
 8505 0136 00       		.uleb128 0
 8506 0137 6BA90000 		.4byte	.LASF51
 8507 013b 05       		.byte	0x5
 8508 013c 00       		.uleb128 0
 8509 013d 13AE0000 		.4byte	.LASF52
 8510 0141 05       		.byte	0x5
 8511 0142 00       		.uleb128 0
 8512 0143 059F0000 		.4byte	.LASF53
 8513 0147 05       		.byte	0x5
 8514 0148 00       		.uleb128 0
 8515 0149 72990000 		.4byte	.LASF54
 8516 014d 05       		.byte	0x5
 8517 014e 00       		.uleb128 0
 8518 014f F46A0000 		.4byte	.LASF55
 8519 0153 05       		.byte	0x5
 8520 0154 00       		.uleb128 0
 8521 0155 F7520000 		.4byte	.LASF56
 8522 0159 05       		.byte	0x5
 8523 015a 00       		.uleb128 0
 8524 015b A8910000 		.4byte	.LASF57
ARM GAS  /var/folders/z0/6xlwn_996xz3mwq1cgzkbq4r0000gp/T//cc3rPjEN.s 			page 166


 8525 015f 05       		.byte	0x5
 8526 0160 00       		.uleb128 0
 8527 0161 154A0000 		.4byte	.LASF58
 8528 0165 05       		.byte	0x5
 8529 0166 00       		.uleb128 0
 8530 0167 011D0000 		.4byte	.LASF59
 8531 016b 05       		.byte	0x5
 8532 016c 00       		.uleb128 0
 8533 016d D9120000 		.4byte	.LASF60
 8534 0171 05       		.byte	0x5
 8535 0172 00       		.uleb128 0
 8536 0173 39810000 		.4byte	.LASF61
 8537 0177 05       		.byte	0x5
 8538 0178 00       		.uleb128 0
 8539 0179 4B590000 		.4byte	.LASF62
 8540 017d 05       		.byte	0x5
 8541 017e 00       		.uleb128 0
 8542 017f 8B0A0000 		.4byte	.LASF63
 8543 0183 05       		.byte	0x5
 8544 0184 00       		.uleb128 0
 8545 0185 FF830000 		.4byte	.LASF64
 8546 0189 05       		.byte	0x5
 8547 018a 00       		.uleb128 0
 8548 018b B8850000 		.4byte	.LASF65
 8549 018f 05       		.byte	0x5
 8550 0190 00       		.uleb128 0
 8551 0191 B9630000 		.4byte	.LASF66
 8552 0195 05       		.byte	0x5
 8553 0196 00       		.uleb128 0
 8554 0197 69520000 		.4byte	.LASF67
 8555 019b 05       		.byte	0x5
 8556 019c 00       		.uleb128 0
 8557 019d B0450000 		.4byte	.LASF68
 8558 01a1 05       		.byte	0x5
 8559 01a2 00       		.uleb128 0
 8560 01a3 26100000 		.4byte	.LASF69
 8561 01a7 05       		.byte	0x5
 8562 01a8 00       		.uleb128 0
 8563 01a9 D1540000 		.4byte	.LASF70
 8564 01ad 05       		.byte	0x5
 8565 01ae 00       		.uleb128 0
 8566 01af 0B5F0000 		.4byte	.LASF71
 8567 01b3 05       		.byte	0x5
 8568 01b4 00       		.uleb128 0
 8569 01b5 74760000 		.4byte	.LASF72
 8570 01b9 05       		.byte	0x5
 8571 01ba 00       		.uleb128 0
 8572 01bb 5F7B0000 		.4byte	.LASF73
 8573 01bf 05       		.byte	0x5
 8574 01c0 00       		.uleb128 0
 8575 01c1 51420000 		.4byte	.LASF74
 8576 01c5 05       		.byte	0x5
 8577 01c6 00       		.uleb128 0
 8578 01c7 80280000 		.4byte	.LASF75
 8579 01cb 05       		.byte	0x5
 8580 01cc 00       		.uleb128 0
 8581 01cd 5B6D0000 		.4byte	.LASF76
ARM GAS  /var/folders/z0/6xlwn_996xz3mwq1cgzkbq4r0000gp/T//cc3rPjEN.s 			page 167


 8582 01d1 05       		.byte	0x5
 8583 01d2 00       		.uleb128 0
 8584 01d3 C1040000 		.4byte	.LASF77
 8585 01d7 05       		.byte	0x5
 8586 01d8 00       		.uleb128 0
 8587 01d9 11620000 		.4byte	.LASF78
 8588 01dd 05       		.byte	0x5
 8589 01de 00       		.uleb128 0
 8590 01df 698C0000 		.4byte	.LASF79
 8591 01e3 05       		.byte	0x5
 8592 01e4 00       		.uleb128 0
 8593 01e5 CE580000 		.4byte	.LASF80
 8594 01e9 05       		.byte	0x5
 8595 01ea 00       		.uleb128 0
 8596 01eb 4E390000 		.4byte	.LASF81
 8597 01ef 05       		.byte	0x5
 8598 01f0 00       		.uleb128 0
 8599 01f1 236C0000 		.4byte	.LASF82
 8600 01f5 05       		.byte	0x5
 8601 01f6 00       		.uleb128 0
 8602 01f7 978A0000 		.4byte	.LASF83
 8603 01fb 05       		.byte	0x5
 8604 01fc 00       		.uleb128 0
 8605 01fd 5B810000 		.4byte	.LASF84
 8606 0201 05       		.byte	0x5
 8607 0202 00       		.uleb128 0
 8608 0203 CA560000 		.4byte	.LASF85
 8609 0207 05       		.byte	0x5
 8610 0208 00       		.uleb128 0
 8611 0209 0C340000 		.4byte	.LASF86
 8612 020d 05       		.byte	0x5
 8613 020e 00       		.uleb128 0
 8614 020f E5440000 		.4byte	.LASF87
 8615 0213 05       		.byte	0x5
 8616 0214 00       		.uleb128 0
 8617 0215 DB1B0000 		.4byte	.LASF88
 8618 0219 05       		.byte	0x5
 8619 021a 00       		.uleb128 0
 8620 021b 55960000 		.4byte	.LASF89
 8621 021f 05       		.byte	0x5
 8622 0220 00       		.uleb128 0
 8623 0221 26A30000 		.4byte	.LASF90
 8624 0225 05       		.byte	0x5
 8625 0226 00       		.uleb128 0
 8626 0227 B0AF0000 		.4byte	.LASF91
 8627 022b 05       		.byte	0x5
 8628 022c 00       		.uleb128 0
 8629 022d 2B130000 		.4byte	.LASF92
 8630 0231 05       		.byte	0x5
 8631 0232 00       		.uleb128 0
 8632 0233 CCAF0000 		.4byte	.LASF93
 8633 0237 05       		.byte	0x5
 8634 0238 00       		.uleb128 0
 8635 0239 AE1A0000 		.4byte	.LASF94
 8636 023d 05       		.byte	0x5
 8637 023e 00       		.uleb128 0
 8638 023f C4180000 		.4byte	.LASF95
ARM GAS  /var/folders/z0/6xlwn_996xz3mwq1cgzkbq4r0000gp/T//cc3rPjEN.s 			page 168


 8639 0243 05       		.byte	0x5
 8640 0244 00       		.uleb128 0
 8641 0245 13950000 		.4byte	.LASF96
 8642 0249 05       		.byte	0x5
 8643 024a 00       		.uleb128 0
 8644 024b 21570000 		.4byte	.LASF97
 8645 024f 05       		.byte	0x5
 8646 0250 00       		.uleb128 0
 8647 0251 595F0000 		.4byte	.LASF98
 8648 0255 05       		.byte	0x5
 8649 0256 00       		.uleb128 0
 8650 0257 964A0000 		.4byte	.LASF99
 8651 025b 05       		.byte	0x5
 8652 025c 00       		.uleb128 0
 8653 025d CB860000 		.4byte	.LASF100
 8654 0261 05       		.byte	0x5
 8655 0262 00       		.uleb128 0
 8656 0263 10AF0000 		.4byte	.LASF101
 8657 0267 05       		.byte	0x5
 8658 0268 00       		.uleb128 0
 8659 0269 EB290000 		.4byte	.LASF102
 8660 026d 05       		.byte	0x5
 8661 026e 00       		.uleb128 0
 8662 026f E82D0000 		.4byte	.LASF103
 8663 0273 05       		.byte	0x5
 8664 0274 00       		.uleb128 0
 8665 0275 A6770000 		.4byte	.LASF104
 8666 0279 05       		.byte	0x5
 8667 027a 00       		.uleb128 0
 8668 027b 0B800000 		.4byte	.LASF105
 8669 027f 05       		.byte	0x5
 8670 0280 00       		.uleb128 0
 8671 0281 F24A0000 		.4byte	.LASF106
 8672 0285 05       		.byte	0x5
 8673 0286 00       		.uleb128 0
 8674 0287 6B2F0000 		.4byte	.LASF107
 8675 028b 05       		.byte	0x5
 8676 028c 00       		.uleb128 0
 8677 028d 78370000 		.4byte	.LASF108
 8678 0291 05       		.byte	0x5
 8679 0292 00       		.uleb128 0
 8680 0293 08230000 		.4byte	.LASF109
 8681 0297 05       		.byte	0x5
 8682 0298 00       		.uleb128 0
 8683 0299 9C020000 		.4byte	.LASF110
 8684 029d 05       		.byte	0x5
 8685 029e 00       		.uleb128 0
 8686 029f 81880000 		.4byte	.LASF111
 8687 02a3 05       		.byte	0x5
 8688 02a4 00       		.uleb128 0
 8689 02a5 27120000 		.4byte	.LASF112
 8690 02a9 05       		.byte	0x5
 8691 02aa 00       		.uleb128 0
 8692 02ab 5E5B0000 		.4byte	.LASF113
 8693 02af 05       		.byte	0x5
 8694 02b0 00       		.uleb128 0
 8695 02b1 2B590000 		.4byte	.LASF114
ARM GAS  /var/folders/z0/6xlwn_996xz3mwq1cgzkbq4r0000gp/T//cc3rPjEN.s 			page 169


 8696 02b5 05       		.byte	0x5
 8697 02b6 00       		.uleb128 0
 8698 02b7 138B0000 		.4byte	.LASF115
 8699 02bb 05       		.byte	0x5
 8700 02bc 00       		.uleb128 0
 8701 02bd 42070000 		.4byte	.LASF116
 8702 02c1 05       		.byte	0x5
 8703 02c2 00       		.uleb128 0
 8704 02c3 3B640000 		.4byte	.LASF117
 8705 02c7 05       		.byte	0x5
 8706 02c8 00       		.uleb128 0
 8707 02c9 39980000 		.4byte	.LASF118
 8708 02cd 05       		.byte	0x5
 8709 02ce 00       		.uleb128 0
 8710 02cf 2E4F0000 		.4byte	.LASF119
 8711 02d3 05       		.byte	0x5
 8712 02d4 00       		.uleb128 0
 8713 02d5 211F0000 		.4byte	.LASF120
 8714 02d9 05       		.byte	0x5
 8715 02da 00       		.uleb128 0
 8716 02db B5A00000 		.4byte	.LASF121
 8717 02df 05       		.byte	0x5
 8718 02e0 00       		.uleb128 0
 8719 02e1 3FA50000 		.4byte	.LASF122
 8720 02e5 05       		.byte	0x5
 8721 02e6 00       		.uleb128 0
 8722 02e7 B8370000 		.4byte	.LASF123
 8723 02eb 05       		.byte	0x5
 8724 02ec 00       		.uleb128 0
 8725 02ed 432D0000 		.4byte	.LASF124
 8726 02f1 05       		.byte	0x5
 8727 02f2 00       		.uleb128 0
 8728 02f3 112D0000 		.4byte	.LASF125
 8729 02f7 05       		.byte	0x5
 8730 02f8 00       		.uleb128 0
 8731 02f9 F7360000 		.4byte	.LASF126
 8732 02fd 05       		.byte	0x5
 8733 02fe 00       		.uleb128 0
 8734 02ff 6A250000 		.4byte	.LASF127
 8735 0303 05       		.byte	0x5
 8736 0304 00       		.uleb128 0
 8737 0305 C71B0000 		.4byte	.LASF128
 8738 0309 05       		.byte	0x5
 8739 030a 00       		.uleb128 0
 8740 030b 9F880000 		.4byte	.LASF129
 8741 030f 05       		.byte	0x5
 8742 0310 00       		.uleb128 0
 8743 0311 21820000 		.4byte	.LASF130
 8744 0315 05       		.byte	0x5
 8745 0316 00       		.uleb128 0
 8746 0317 0E550000 		.4byte	.LASF131
 8747 031b 05       		.byte	0x5
 8748 031c 00       		.uleb128 0
 8749 031d 2F990000 		.4byte	.LASF132
 8750 0321 05       		.byte	0x5
 8751 0322 00       		.uleb128 0
 8752 0323 6F290000 		.4byte	.LASF133
ARM GAS  /var/folders/z0/6xlwn_996xz3mwq1cgzkbq4r0000gp/T//cc3rPjEN.s 			page 170


 8753 0327 05       		.byte	0x5
 8754 0328 00       		.uleb128 0
 8755 0329 8FAE0000 		.4byte	.LASF134
 8756 032d 05       		.byte	0x5
 8757 032e 00       		.uleb128 0
 8758 032f 14A70000 		.4byte	.LASF135
 8759 0333 05       		.byte	0x5
 8760 0334 00       		.uleb128 0
 8761 0335 230B0000 		.4byte	.LASF136
 8762 0339 05       		.byte	0x5
 8763 033a 00       		.uleb128 0
 8764 033b 23480000 		.4byte	.LASF137
 8765 033f 05       		.byte	0x5
 8766 0340 00       		.uleb128 0
 8767 0341 21260000 		.4byte	.LASF138
 8768 0345 05       		.byte	0x5
 8769 0346 00       		.uleb128 0
 8770 0347 7C1D0000 		.4byte	.LASF139
 8771 034b 05       		.byte	0x5
 8772 034c 00       		.uleb128 0
 8773 034d E6A50000 		.4byte	.LASF140
 8774 0351 05       		.byte	0x5
 8775 0352 00       		.uleb128 0
 8776 0353 D5690000 		.4byte	.LASF141
 8777 0357 05       		.byte	0x5
 8778 0358 00       		.uleb128 0
 8779 0359 572D0000 		.4byte	.LASF142
 8780 035d 05       		.byte	0x5
 8781 035e 00       		.uleb128 0
 8782 035f EC060000 		.4byte	.LASF143
 8783 0363 05       		.byte	0x5
 8784 0364 00       		.uleb128 0
 8785 0365 5E310000 		.4byte	.LASF144
 8786 0369 05       		.byte	0x5
 8787 036a 00       		.uleb128 0
 8788 036b AC640000 		.4byte	.LASF145
 8789 036f 05       		.byte	0x5
 8790 0370 00       		.uleb128 0
 8791 0371 74220000 		.4byte	.LASF146
 8792 0375 05       		.byte	0x5
 8793 0376 00       		.uleb128 0
 8794 0377 85010000 		.4byte	.LASF147
 8795 037b 05       		.byte	0x5
 8796 037c 00       		.uleb128 0
 8797 037d DEA60000 		.4byte	.LASF148
 8798 0381 05       		.byte	0x5
 8799 0382 00       		.uleb128 0
 8800 0383 FD250000 		.4byte	.LASF149
 8801 0387 05       		.byte	0x5
 8802 0388 00       		.uleb128 0
 8803 0389 710F0000 		.4byte	.LASF150
 8804 038d 05       		.byte	0x5
 8805 038e 00       		.uleb128 0
 8806 038f E7A30000 		.4byte	.LASF151
 8807 0393 05       		.byte	0x5
 8808 0394 00       		.uleb128 0
 8809 0395 6E7C0000 		.4byte	.LASF152
ARM GAS  /var/folders/z0/6xlwn_996xz3mwq1cgzkbq4r0000gp/T//cc3rPjEN.s 			page 171


 8810 0399 05       		.byte	0x5
 8811 039a 00       		.uleb128 0
 8812 039b 7D720000 		.4byte	.LASF153
 8813 039f 05       		.byte	0x5
 8814 03a0 00       		.uleb128 0
 8815 03a1 78240000 		.4byte	.LASF154
 8816 03a5 05       		.byte	0x5
 8817 03a6 00       		.uleb128 0
 8818 03a7 FFA30000 		.4byte	.LASF155
 8819 03ab 05       		.byte	0x5
 8820 03ac 00       		.uleb128 0
 8821 03ad 338B0000 		.4byte	.LASF156
 8822 03b1 05       		.byte	0x5
 8823 03b2 00       		.uleb128 0
 8824 03b3 BA9D0000 		.4byte	.LASF157
 8825 03b7 05       		.byte	0x5
 8826 03b8 00       		.uleb128 0
 8827 03b9 C41D0000 		.4byte	.LASF158
 8828 03bd 05       		.byte	0x5
 8829 03be 00       		.uleb128 0
 8830 03bf CF230000 		.4byte	.LASF159
 8831 03c3 05       		.byte	0x5
 8832 03c4 00       		.uleb128 0
 8833 03c5 744D0000 		.4byte	.LASF160
 8834 03c9 05       		.byte	0x5
 8835 03ca 00       		.uleb128 0
 8836 03cb 59380000 		.4byte	.LASF161
 8837 03cf 05       		.byte	0x5
 8838 03d0 00       		.uleb128 0
 8839 03d1 A1580000 		.4byte	.LASF162
 8840 03d5 05       		.byte	0x5
 8841 03d6 00       		.uleb128 0
 8842 03d7 92390000 		.4byte	.LASF163
 8843 03db 05       		.byte	0x5
 8844 03dc 00       		.uleb128 0
 8845 03dd 55A50000 		.4byte	.LASF164
 8846 03e1 05       		.byte	0x5
 8847 03e2 00       		.uleb128 0
 8848 03e3 B67A0000 		.4byte	.LASF165
 8849 03e7 05       		.byte	0x5
 8850 03e8 00       		.uleb128 0
 8851 03e9 2EA40000 		.4byte	.LASF166
 8852 03ed 05       		.byte	0x5
 8853 03ee 00       		.uleb128 0
 8854 03ef 6E5D0000 		.4byte	.LASF167
 8855 03f3 05       		.byte	0x5
 8856 03f4 00       		.uleb128 0
 8857 03f5 B4600000 		.4byte	.LASF168
 8858 03f9 05       		.byte	0x5
 8859 03fa 00       		.uleb128 0
 8860 03fb E1360000 		.4byte	.LASF169
 8861 03ff 05       		.byte	0x5
 8862 0400 00       		.uleb128 0
 8863 0401 AC9E0000 		.4byte	.LASF170
 8864 0405 05       		.byte	0x5
 8865 0406 00       		.uleb128 0
 8866 0407 D6270000 		.4byte	.LASF171
ARM GAS  /var/folders/z0/6xlwn_996xz3mwq1cgzkbq4r0000gp/T//cc3rPjEN.s 			page 172


 8867 040b 05       		.byte	0x5
 8868 040c 00       		.uleb128 0
 8869 040d 773A0000 		.4byte	.LASF172
 8870 0411 05       		.byte	0x5
 8871 0412 00       		.uleb128 0
 8872 0413 0D480000 		.4byte	.LASF173
 8873 0417 05       		.byte	0x5
 8874 0418 00       		.uleb128 0
 8875 0419 240D0000 		.4byte	.LASF174
 8876 041d 05       		.byte	0x5
 8877 041e 00       		.uleb128 0
 8878 041f 13660000 		.4byte	.LASF175
 8879 0423 05       		.byte	0x5
 8880 0424 00       		.uleb128 0
 8881 0425 FC940000 		.4byte	.LASF176
 8882 0429 05       		.byte	0x5
 8883 042a 00       		.uleb128 0
 8884 042b 5B880000 		.4byte	.LASF177
 8885 042f 05       		.byte	0x5
 8886 0430 00       		.uleb128 0
 8887 0431 D15F0000 		.4byte	.LASF178
 8888 0435 05       		.byte	0x5
 8889 0436 00       		.uleb128 0
 8890 0437 3B6C0000 		.4byte	.LASF179
 8891 043b 05       		.byte	0x5
 8892 043c 00       		.uleb128 0
 8893 043d E60F0000 		.4byte	.LASF180
 8894 0441 05       		.byte	0x5
 8895 0442 00       		.uleb128 0
 8896 0443 5C060000 		.4byte	.LASF181
 8897 0447 05       		.byte	0x5
 8898 0448 00       		.uleb128 0
 8899 0449 033A0000 		.4byte	.LASF182
 8900 044d 05       		.byte	0x5
 8901 044e 00       		.uleb128 0
 8902 044f BC970000 		.4byte	.LASF183
 8903 0453 05       		.byte	0x5
 8904 0454 00       		.uleb128 0
 8905 0455 9D2E0000 		.4byte	.LASF184
 8906 0459 05       		.byte	0x5
 8907 045a 00       		.uleb128 0
 8908 045b 96A80000 		.4byte	.LASF185
 8909 045f 05       		.byte	0x5
 8910 0460 00       		.uleb128 0
 8911 0461 5D030000 		.4byte	.LASF186
 8912 0465 05       		.byte	0x5
 8913 0466 00       		.uleb128 0
 8914 0467 F2300000 		.4byte	.LASF187
 8915 046b 05       		.byte	0x5
 8916 046c 00       		.uleb128 0
 8917 046d 2B3C0000 		.4byte	.LASF188
 8918 0471 05       		.byte	0x5
 8919 0472 00       		.uleb128 0
 8920 0473 D95D0000 		.4byte	.LASF189
 8921 0477 05       		.byte	0x5
 8922 0478 00       		.uleb128 0
 8923 0479 0F380000 		.4byte	.LASF190
ARM GAS  /var/folders/z0/6xlwn_996xz3mwq1cgzkbq4r0000gp/T//cc3rPjEN.s 			page 173


 8924 047d 05       		.byte	0x5
 8925 047e 00       		.uleb128 0
 8926 047f DB980000 		.4byte	.LASF191
 8927 0483 05       		.byte	0x5
 8928 0484 00       		.uleb128 0
 8929 0485 EC990000 		.4byte	.LASF192
 8930 0489 05       		.byte	0x5
 8931 048a 00       		.uleb128 0
 8932 048b CFA40000 		.4byte	.LASF193
 8933 048f 05       		.byte	0x5
 8934 0490 00       		.uleb128 0
 8935 0491 DF0E0000 		.4byte	.LASF194
 8936 0495 05       		.byte	0x5
 8937 0496 00       		.uleb128 0
 8938 0497 3F690000 		.4byte	.LASF195
 8939 049b 05       		.byte	0x5
 8940 049c 00       		.uleb128 0
 8941 049d 5E800000 		.4byte	.LASF196
 8942 04a1 05       		.byte	0x5
 8943 04a2 00       		.uleb128 0
 8944 04a3 20440000 		.4byte	.LASF197
 8945 04a7 05       		.byte	0x5
 8946 04a8 00       		.uleb128 0
 8947 04a9 A7370000 		.4byte	.LASF198
 8948 04ad 05       		.byte	0x5
 8949 04ae 00       		.uleb128 0
 8950 04af DA3F0000 		.4byte	.LASF199
 8951 04b3 05       		.byte	0x5
 8952 04b4 00       		.uleb128 0
 8953 04b5 634E0000 		.4byte	.LASF200
 8954 04b9 05       		.byte	0x5
 8955 04ba 00       		.uleb128 0
 8956 04bb DB3A0000 		.4byte	.LASF201
 8957 04bf 05       		.byte	0x5
 8958 04c0 00       		.uleb128 0
 8959 04c1 0CAB0000 		.4byte	.LASF202
 8960 04c5 05       		.byte	0x5
 8961 04c6 00       		.uleb128 0
 8962 04c7 54A30000 		.4byte	.LASF203
 8963 04cb 05       		.byte	0x5
 8964 04cc 00       		.uleb128 0
 8965 04cd CF240000 		.4byte	.LASF204
 8966 04d1 05       		.byte	0x5
 8967 04d2 00       		.uleb128 0
 8968 04d3 D3800000 		.4byte	.LASF205
 8969 04d7 05       		.byte	0x5
 8970 04d8 00       		.uleb128 0
 8971 04d9 A25A0000 		.4byte	.LASF206
 8972 04dd 05       		.byte	0x5
 8973 04de 00       		.uleb128 0
 8974 04df 8A550000 		.4byte	.LASF207
 8975 04e3 05       		.byte	0x5
 8976 04e4 00       		.uleb128 0
 8977 04e5 5B200000 		.4byte	.LASF208
 8978 04e9 05       		.byte	0x5
 8979 04ea 00       		.uleb128 0
 8980 04eb 2C770000 		.4byte	.LASF209
ARM GAS  /var/folders/z0/6xlwn_996xz3mwq1cgzkbq4r0000gp/T//cc3rPjEN.s 			page 174


 8981 04ef 05       		.byte	0x5
 8982 04f0 00       		.uleb128 0
 8983 04f1 4BB00000 		.4byte	.LASF210
 8984 04f5 05       		.byte	0x5
 8985 04f6 00       		.uleb128 0
 8986 04f7 CD000000 		.4byte	.LASF211
 8987 04fb 05       		.byte	0x5
 8988 04fc 00       		.uleb128 0
 8989 04fd F53F0000 		.4byte	.LASF212
 8990 0501 05       		.byte	0x5
 8991 0502 00       		.uleb128 0
 8992 0503 55280000 		.4byte	.LASF213
 8993 0507 05       		.byte	0x5
 8994 0508 00       		.uleb128 0
 8995 0509 57830000 		.4byte	.LASF214
 8996 050d 05       		.byte	0x5
 8997 050e 00       		.uleb128 0
 8998 050f A22A0000 		.4byte	.LASF215
 8999 0513 05       		.byte	0x5
 9000 0514 00       		.uleb128 0
 9001 0515 BF780000 		.4byte	.LASF216
 9002 0519 05       		.byte	0x5
 9003 051a 00       		.uleb128 0
 9004 051b B49A0000 		.4byte	.LASF217
 9005 051f 05       		.byte	0x5
 9006 0520 00       		.uleb128 0
 9007 0521 6F4F0000 		.4byte	.LASF218
 9008 0525 05       		.byte	0x5
 9009 0526 00       		.uleb128 0
 9010 0527 1A830000 		.4byte	.LASF219
 9011 052b 05       		.byte	0x5
 9012 052c 00       		.uleb128 0
 9013 052d D7150000 		.4byte	.LASF220
 9014 0531 05       		.byte	0x5
 9015 0532 00       		.uleb128 0
 9016 0533 E0860000 		.4byte	.LASF221
 9017 0537 05       		.byte	0x5
 9018 0538 00       		.uleb128 0
 9019 0539 837C0000 		.4byte	.LASF222
 9020 053d 05       		.byte	0x5
 9021 053e 00       		.uleb128 0
 9022 053f 1C060000 		.4byte	.LASF223
 9023 0543 05       		.byte	0x5
 9024 0544 00       		.uleb128 0
 9025 0545 432B0000 		.4byte	.LASF224
 9026 0549 05       		.byte	0x5
 9027 054a 00       		.uleb128 0
 9028 054b 49460000 		.4byte	.LASF225
 9029 054f 05       		.byte	0x5
 9030 0550 00       		.uleb128 0
 9031 0551 5FA10000 		.4byte	.LASF226
 9032 0555 05       		.byte	0x5
 9033 0556 00       		.uleb128 0
 9034 0557 47710000 		.4byte	.LASF227
 9035 055b 05       		.byte	0x5
 9036 055c 00       		.uleb128 0
 9037 055d B7190000 		.4byte	.LASF228
ARM GAS  /var/folders/z0/6xlwn_996xz3mwq1cgzkbq4r0000gp/T//cc3rPjEN.s 			page 175


 9038 0561 05       		.byte	0x5
 9039 0562 00       		.uleb128 0
 9040 0563 35260000 		.4byte	.LASF229
 9041 0567 05       		.byte	0x5
 9042 0568 00       		.uleb128 0
 9043 0569 9A4D0000 		.4byte	.LASF230
 9044 056d 05       		.byte	0x5
 9045 056e 00       		.uleb128 0
 9046 056f 1F460000 		.4byte	.LASF231
 9047 0573 05       		.byte	0x5
 9048 0574 00       		.uleb128 0
 9049 0575 D4280000 		.4byte	.LASF232
 9050 0579 05       		.byte	0x5
 9051 057a 00       		.uleb128 0
 9052 057b D2820000 		.4byte	.LASF233
 9053 057f 05       		.byte	0x5
 9054 0580 00       		.uleb128 0
 9055 0581 9D9A0000 		.4byte	.LASF234
 9056 0585 05       		.byte	0x5
 9057 0586 00       		.uleb128 0
 9058 0587 11560000 		.4byte	.LASF235
 9059 058b 05       		.byte	0x5
 9060 058c 00       		.uleb128 0
 9061 058d EF570000 		.4byte	.LASF236
 9062 0591 05       		.byte	0x5
 9063 0592 00       		.uleb128 0
 9064 0593 5C4A0000 		.4byte	.LASF237
 9065 0597 05       		.byte	0x5
 9066 0598 00       		.uleb128 0
 9067 0599 0A4C0000 		.4byte	.LASF238
 9068 059d 05       		.byte	0x5
 9069 059e 00       		.uleb128 0
 9070 059f 3D800000 		.4byte	.LASF239
 9071 05a3 05       		.byte	0x5
 9072 05a4 00       		.uleb128 0
 9073 05a5 7E910000 		.4byte	.LASF240
 9074 05a9 05       		.byte	0x5
 9075 05aa 00       		.uleb128 0
 9076 05ab B8390000 		.4byte	.LASF241
 9077 05af 05       		.byte	0x5
 9078 05b0 00       		.uleb128 0
 9079 05b1 8E000000 		.4byte	.LASF242
 9080 05b5 05       		.byte	0x5
 9081 05b6 00       		.uleb128 0
 9082 05b7 D5010000 		.4byte	.LASF243
 9083 05bb 05       		.byte	0x5
 9084 05bc 00       		.uleb128 0
 9085 05bd F9460000 		.4byte	.LASF244
 9086 05c1 05       		.byte	0x5
 9087 05c2 00       		.uleb128 0
 9088 05c3 498B0000 		.4byte	.LASF245
 9089 05c7 05       		.byte	0x5
 9090 05c8 00       		.uleb128 0
 9091 05c9 EB0A0000 		.4byte	.LASF246
 9092 05cd 05       		.byte	0x5
 9093 05ce 00       		.uleb128 0
 9094 05cf 095E0000 		.4byte	.LASF247
ARM GAS  /var/folders/z0/6xlwn_996xz3mwq1cgzkbq4r0000gp/T//cc3rPjEN.s 			page 176


 9095 05d3 05       		.byte	0x5
 9096 05d4 00       		.uleb128 0
 9097 05d5 92180000 		.4byte	.LASF248
 9098 05d9 05       		.byte	0x5
 9099 05da 00       		.uleb128 0
 9100 05db E4580000 		.4byte	.LASF249
 9101 05df 05       		.byte	0x5
 9102 05e0 00       		.uleb128 0
 9103 05e1 1B3A0000 		.4byte	.LASF250
 9104 05e5 05       		.byte	0x5
 9105 05e6 00       		.uleb128 0
 9106 05e7 65000000 		.4byte	.LASF251
 9107 05eb 05       		.byte	0x5
 9108 05ec 00       		.uleb128 0
 9109 05ed 01430000 		.4byte	.LASF252
 9110 05f1 05       		.byte	0x5
 9111 05f2 00       		.uleb128 0
 9112 05f3 7E360000 		.4byte	.LASF253
 9113 05f7 05       		.byte	0x5
 9114 05f8 00       		.uleb128 0
 9115 05f9 5E5E0000 		.4byte	.LASF254
 9116 05fd 05       		.byte	0x5
 9117 05fe 00       		.uleb128 0
 9118 05ff 47920000 		.4byte	.LASF255
 9119 0603 05       		.byte	0x5
 9120 0604 00       		.uleb128 0
 9121 0605 21340000 		.4byte	.LASF256
 9122 0609 05       		.byte	0x5
 9123 060a 00       		.uleb128 0
 9124 060b 52700000 		.4byte	.LASF257
 9125 060f 05       		.byte	0x5
 9126 0610 00       		.uleb128 0
 9127 0611 87710000 		.4byte	.LASF258
 9128 0615 05       		.byte	0x5
 9129 0616 00       		.uleb128 0
 9130 0617 97120000 		.4byte	.LASF259
 9131 061b 05       		.byte	0x5
 9132 061c 00       		.uleb128 0
 9133 061d 13240000 		.4byte	.LASF260
 9134 0621 05       		.byte	0x5
 9135 0622 00       		.uleb128 0
 9136 0623 04310000 		.4byte	.LASF261
 9137 0627 05       		.byte	0x5
 9138 0628 00       		.uleb128 0
 9139 0629 437A0000 		.4byte	.LASF262
 9140 062d 05       		.byte	0x5
 9141 062e 00       		.uleb128 0
 9142 062f 0B7C0000 		.4byte	.LASF263
 9143 0633 05       		.byte	0x5
 9144 0634 00       		.uleb128 0
 9145 0635 57270000 		.4byte	.LASF264
 9146 0639 05       		.byte	0x5
 9147 063a 00       		.uleb128 0
 9148 063b 66180000 		.4byte	.LASF265
 9149 063f 05       		.byte	0x5
 9150 0640 00       		.uleb128 0
 9151 0641 4C620000 		.4byte	.LASF266
ARM GAS  /var/folders/z0/6xlwn_996xz3mwq1cgzkbq4r0000gp/T//cc3rPjEN.s 			page 177


 9152 0645 05       		.byte	0x5
 9153 0646 00       		.uleb128 0
 9154 0647 54160000 		.4byte	.LASF267
 9155 064b 05       		.byte	0x5
 9156 064c 00       		.uleb128 0
 9157 064d A5210000 		.4byte	.LASF268
 9158 0651 05       		.byte	0x5
 9159 0652 00       		.uleb128 0
 9160 0653 59710000 		.4byte	.LASF269
 9161 0657 05       		.byte	0x5
 9162 0658 00       		.uleb128 0
 9163 0659 48A00000 		.4byte	.LASF270
 9164 065d 05       		.byte	0x5
 9165 065e 00       		.uleb128 0
 9166 065f 3F390000 		.4byte	.LASF271
 9167 0663 05       		.byte	0x5
 9168 0664 00       		.uleb128 0
 9169 0665 1D5C0000 		.4byte	.LASF272
 9170 0669 05       		.byte	0x5
 9171 066a 00       		.uleb128 0
 9172 066b A4420000 		.4byte	.LASF273
 9173 066f 05       		.byte	0x5
 9174 0670 00       		.uleb128 0
 9175 0671 AC460000 		.4byte	.LASF274
 9176 0675 05       		.byte	0x5
 9177 0676 00       		.uleb128 0
 9178 0677 24890000 		.4byte	.LASF275
 9179 067b 05       		.byte	0x5
 9180 067c 00       		.uleb128 0
 9181 067d 1FA80000 		.4byte	.LASF276
 9182 0681 05       		.byte	0x5
 9183 0682 00       		.uleb128 0
 9184 0683 38710000 		.4byte	.LASF277
 9185 0687 05       		.byte	0x5
 9186 0688 00       		.uleb128 0
 9187 0689 8C7D0000 		.4byte	.LASF278
 9188 068d 05       		.byte	0x5
 9189 068e 00       		.uleb128 0
 9190 068f 57410000 		.4byte	.LASF279
 9191 0693 05       		.byte	0x5
 9192 0694 00       		.uleb128 0
 9193 0695 BF4A0000 		.4byte	.LASF280
 9194 0699 05       		.byte	0x5
 9195 069a 00       		.uleb128 0
 9196 069b D36A0000 		.4byte	.LASF281
 9197 069f 05       		.byte	0x5
 9198 06a0 00       		.uleb128 0
 9199 06a1 4F310000 		.4byte	.LASF282
 9200 06a5 05       		.byte	0x5
 9201 06a6 00       		.uleb128 0
 9202 06a7 033C0000 		.4byte	.LASF283
 9203 06ab 05       		.byte	0x5
 9204 06ac 00       		.uleb128 0
 9205 06ad 12260000 		.4byte	.LASF284
 9206 06b1 05       		.byte	0x5
 9207 06b2 00       		.uleb128 0
 9208 06b3 C10E0000 		.4byte	.LASF285
ARM GAS  /var/folders/z0/6xlwn_996xz3mwq1cgzkbq4r0000gp/T//cc3rPjEN.s 			page 178


 9209 06b7 05       		.byte	0x5
 9210 06b8 00       		.uleb128 0
 9211 06b9 8B460000 		.4byte	.LASF286
 9212 06bd 05       		.byte	0x5
 9213 06be 00       		.uleb128 0
 9214 06bf BA460000 		.4byte	.LASF287
 9215 06c3 05       		.byte	0x5
 9216 06c4 00       		.uleb128 0
 9217 06c5 C59F0000 		.4byte	.LASF288
 9218 06c9 05       		.byte	0x5
 9219 06ca 00       		.uleb128 0
 9220 06cb A9950000 		.4byte	.LASF289
 9221 06cf 05       		.byte	0x5
 9222 06d0 00       		.uleb128 0
 9223 06d1 AB070000 		.4byte	.LASF290
 9224 06d5 05       		.byte	0x5
 9225 06d6 00       		.uleb128 0
 9226 06d7 65870000 		.4byte	.LASF291
 9227 06db 05       		.byte	0x5
 9228 06dc 00       		.uleb128 0
 9229 06dd E7650000 		.4byte	.LASF292
 9230 06e1 05       		.byte	0x5
 9231 06e2 00       		.uleb128 0
 9232 06e3 9D9E0000 		.4byte	.LASF293
 9233 06e7 05       		.byte	0x5
 9234 06e8 00       		.uleb128 0
 9235 06e9 D39F0000 		.4byte	.LASF294
 9236 06ed 05       		.byte	0x5
 9237 06ee 00       		.uleb128 0
 9238 06ef 50A10000 		.4byte	.LASF295
 9239 06f3 05       		.byte	0x5
 9240 06f4 00       		.uleb128 0
 9241 06f5 9EAC0000 		.4byte	.LASF296
 9242 06f9 05       		.byte	0x5
 9243 06fa 00       		.uleb128 0
 9244 06fb FF370000 		.4byte	.LASF297
 9245 06ff 05       		.byte	0x5
 9246 0700 00       		.uleb128 0
 9247 0701 A8390000 		.4byte	.LASF298
 9248 0705 05       		.byte	0x5
 9249 0706 00       		.uleb128 0
 9250 0707 77060000 		.4byte	.LASF299
 9251 070b 05       		.byte	0x5
 9252 070c 00       		.uleb128 0
 9253 070d 848D0000 		.4byte	.LASF300
 9254 0711 05       		.byte	0x5
 9255 0712 00       		.uleb128 0
 9256 0713 5C1D0000 		.4byte	.LASF301
 9257 0717 05       		.byte	0x5
 9258 0718 00       		.uleb128 0
 9259 0719 45540000 		.4byte	.LASF302
 9260 071d 05       		.byte	0x5
 9261 071e 00       		.uleb128 0
 9262 071f BB680000 		.4byte	.LASF303
 9263 0723 05       		.byte	0x5
 9264 0724 00       		.uleb128 0
 9265 0725 81200000 		.4byte	.LASF304
ARM GAS  /var/folders/z0/6xlwn_996xz3mwq1cgzkbq4r0000gp/T//cc3rPjEN.s 			page 179


 9266 0729 05       		.byte	0x5
 9267 072a 00       		.uleb128 0
 9268 072b 28940000 		.4byte	.LASF305
 9269 072f 05       		.byte	0x5
 9270 0730 00       		.uleb128 0
 9271 0731 D3390000 		.4byte	.LASF306
 9272 0735 05       		.byte	0x5
 9273 0736 00       		.uleb128 0
 9274 0737 2F880000 		.4byte	.LASF307
 9275 073b 05       		.byte	0x5
 9276 073c 00       		.uleb128 0
 9277 073d E79E0000 		.4byte	.LASF308
 9278 0741 05       		.byte	0x5
 9279 0742 00       		.uleb128 0
 9280 0743 9A6E0000 		.4byte	.LASF309
 9281 0747 05       		.byte	0x5
 9282 0748 00       		.uleb128 0
 9283 0749 343D0000 		.4byte	.LASF310
 9284 074d 05       		.byte	0x5
 9285 074e 00       		.uleb128 0
 9286 074f 7C9A0000 		.4byte	.LASF311
 9287 0753 05       		.byte	0x5
 9288 0754 00       		.uleb128 0
 9289 0755 D5720000 		.4byte	.LASF312
 9290 0759 05       		.byte	0x5
 9291 075a 00       		.uleb128 0
 9292 075b DF670000 		.4byte	.LASF313
 9293 075f 05       		.byte	0x5
 9294 0760 00       		.uleb128 0
 9295 0761 A5400000 		.4byte	.LASF314
 9296 0765 05       		.byte	0x5
 9297 0766 00       		.uleb128 0
 9298 0767 8C780000 		.4byte	.LASF315
 9299 076b 05       		.byte	0x5
 9300 076c 00       		.uleb128 0
 9301 076d 20290000 		.4byte	.LASF316
 9302 0771 05       		.byte	0x5
 9303 0772 00       		.uleb128 0
 9304 0773 55640000 		.4byte	.LASF317
 9305 0777 05       		.byte	0x5
 9306 0778 00       		.uleb128 0
 9307 0779 C3450000 		.4byte	.LASF318
 9308 077d 05       		.byte	0x5
 9309 077e 00       		.uleb128 0
 9310 077f 78140000 		.4byte	.LASF319
 9311 0783 05       		.byte	0x5
 9312 0784 00       		.uleb128 0
 9313 0785 DA550000 		.4byte	.LASF320
 9314 0789 05       		.byte	0x5
 9315 078a 00       		.uleb128 0
 9316 078b 55540000 		.4byte	.LASF321
 9317 078f 05       		.byte	0x5
 9318 0790 00       		.uleb128 0
 9319 0791 E09A0000 		.4byte	.LASF322
 9320 0795 05       		.byte	0x5
 9321 0796 00       		.uleb128 0
 9322 0797 AF860000 		.4byte	.LASF323
ARM GAS  /var/folders/z0/6xlwn_996xz3mwq1cgzkbq4r0000gp/T//cc3rPjEN.s 			page 180


 9323 079b 05       		.byte	0x5
 9324 079c 00       		.uleb128 0
 9325 079d B58A0000 		.4byte	.LASF324
 9326 07a1 05       		.byte	0x5
 9327 07a2 00       		.uleb128 0
 9328 07a3 CF350000 		.4byte	.LASF325
 9329 07a7 05       		.byte	0x5
 9330 07a8 00       		.uleb128 0
 9331 07a9 428E0000 		.4byte	.LASF326
 9332 07ad 05       		.byte	0x5
 9333 07ae 00       		.uleb128 0
 9334 07af 47A30000 		.4byte	.LASF327
 9335 07b3 05       		.byte	0x5
 9336 07b4 00       		.uleb128 0
 9337 07b5 A1000000 		.4byte	.LASF328
 9338 07b9 05       		.byte	0x5
 9339 07ba 00       		.uleb128 0
 9340 07bb 82000000 		.4byte	.LASF329
 9341 07bf 05       		.byte	0x5
 9342 07c0 00       		.uleb128 0
 9343 07c1 87AF0000 		.4byte	.LASF330
 9344 07c5 05       		.byte	0x5
 9345 07c6 00       		.uleb128 0
 9346 07c7 85130000 		.4byte	.LASF331
 9347 07cb 05       		.byte	0x5
 9348 07cc 00       		.uleb128 0
 9349 07cd 91A70000 		.4byte	.LASF332
 9350 07d1 05       		.byte	0x5
 9351 07d2 00       		.uleb128 0
 9352 07d3 DF400000 		.4byte	.LASF333
 9353 07d7 05       		.byte	0x5
 9354 07d8 00       		.uleb128 0
 9355 07d9 34890000 		.4byte	.LASF334
 9356 07dd 05       		.byte	0x5
 9357 07de 00       		.uleb128 0
 9358 07df FF4D0000 		.4byte	.LASF335
 9359 07e3 05       		.byte	0x5
 9360 07e4 00       		.uleb128 0
 9361 07e5 04570000 		.4byte	.LASF336
 9362 07e9 05       		.byte	0x5
 9363 07ea 00       		.uleb128 0
 9364 07eb 9C910000 		.4byte	.LASF337
 9365 07ef 05       		.byte	0x5
 9366 07f0 00       		.uleb128 0
 9367 07f1 DC1A0000 		.4byte	.LASF338
 9368 07f5 05       		.byte	0x5
 9369 07f6 00       		.uleb128 0
 9370 07f7 05410000 		.4byte	.LASF339
 9371 07fb 05       		.byte	0x5
 9372 07fc 00       		.uleb128 0
 9373 07fd 3A080000 		.4byte	.LASF340
 9374 0801 05       		.byte	0x5
 9375 0802 00       		.uleb128 0
 9376 0803 CB670000 		.4byte	.LASF341
 9377 0807 05       		.byte	0x5
 9378 0808 00       		.uleb128 0
 9379 0809 67410000 		.4byte	.LASF342
ARM GAS  /var/folders/z0/6xlwn_996xz3mwq1cgzkbq4r0000gp/T//cc3rPjEN.s 			page 181


 9380 080d 05       		.byte	0x5
 9381 080e 00       		.uleb128 0
 9382 080f C1890000 		.4byte	.LASF343
 9383 0813 05       		.byte	0x5
 9384 0814 00       		.uleb128 0
 9385 0815 B7790000 		.4byte	.LASF344
 9386 0819 05       		.byte	0x5
 9387 081a 00       		.uleb128 0
 9388 081b D1020000 		.4byte	.LASF345
 9389 081f 05       		.byte	0x5
 9390 0820 00       		.uleb128 0
 9391 0821 714C0000 		.4byte	.LASF346
 9392 0825 00       		.byte	0
 9393              		.section	.debug_macro,"G",%progbits,wm4._newlib_version.h.4.ad342815780c8db09778091a421b5b5b,comda
 9394              	.Ldebug_macro2:
 9395 0000 0400     		.2byte	0x4
 9396 0002 00       		.byte	0
 9397 0003 05       		.byte	0x5
 9398 0004 04       		.uleb128 0x4
 9399 0005 C3930000 		.4byte	.LASF350
 9400 0009 05       		.byte	0x5
 9401 000a 06       		.uleb128 0x6
 9402 000b 1C5E0000 		.4byte	.LASF351
 9403 000f 05       		.byte	0x5
 9404 0010 07       		.uleb128 0x7
 9405 0011 484E0000 		.4byte	.LASF352
 9406 0015 05       		.byte	0x5
 9407 0016 08       		.uleb128 0x8
 9408 0017 32320000 		.4byte	.LASF353
 9409 001b 05       		.byte	0x5
 9410 001c 09       		.uleb128 0x9
 9411 001d F63A0000 		.4byte	.LASF354
 9412 0021 00       		.byte	0
 9413              		.section	.debug_macro,"G",%progbits,wm4.newlib.h.21.0b9fc973bddc8b940a18de2b6ea6adc7,comdat
 9414              	.Ldebug_macro3:
 9415 0000 0400     		.2byte	0x4
 9416 0002 00       		.byte	0
 9417 0003 05       		.byte	0x5
 9418 0004 15       		.uleb128 0x15
 9419 0005 76890000 		.4byte	.LASF355
 9420 0009 05       		.byte	0x5
 9421 000a 18       		.uleb128 0x18
 9422 000b 0E0F0000 		.4byte	.LASF356
 9423 000f 05       		.byte	0x5
 9424 0010 28       		.uleb128 0x28
 9425 0011 880F0000 		.4byte	.LASF357
 9426 0015 05       		.byte	0x5
 9427 0016 32       		.uleb128 0x32
 9428 0017 767D0000 		.4byte	.LASF358
 9429 001b 05       		.byte	0x5
 9430 001c 36       		.uleb128 0x36
 9431 001d E3330000 		.4byte	.LASF359
 9432 0021 05       		.byte	0x5
 9433 0022 39       		.uleb128 0x39
 9434 0023 824A0000 		.4byte	.LASF360
 9435 0027 05       		.byte	0x5
 9436 0028 3C       		.uleb128 0x3c
ARM GAS  /var/folders/z0/6xlwn_996xz3mwq1cgzkbq4r0000gp/T//cc3rPjEN.s 			page 182


 9437 0029 4A770000 		.4byte	.LASF361
 9438 002d 05       		.byte	0x5
 9439 002e 3F       		.uleb128 0x3f
 9440 002f 4AAE0000 		.4byte	.LASF362
 9441 0033 05       		.byte	0x5
 9442 0034 42       		.uleb128 0x42
 9443 0035 06900000 		.4byte	.LASF363
 9444 0039 05       		.byte	0x5
 9445 003a 45       		.uleb128 0x45
 9446 003b 6DA50000 		.4byte	.LASF364
 9447 003f 05       		.byte	0x5
 9448 0040 48       		.uleb128 0x48
 9449 0041 2DA10000 		.4byte	.LASF365
 9450 0045 05       		.byte	0x5
 9451 0046 4B       		.uleb128 0x4b
 9452 0047 1F520000 		.4byte	.LASF366
 9453 004b 00       		.byte	0
 9454              		.section	.debug_macro,"G",%progbits,wm4.features.h.22.692cd1f2e947ca7b8fea300222f5f1f2,comdat
 9455              	.Ldebug_macro4:
 9456 0000 0400     		.2byte	0x4
 9457 0002 00       		.byte	0
 9458 0003 05       		.byte	0x5
 9459 0004 16       		.uleb128 0x16
 9460 0005 FE8D0000 		.4byte	.LASF369
 9461 0009 05       		.byte	0x5
 9462 000a 21       		.uleb128 0x21
 9463 000b 9E750000 		.4byte	.LASF370
 9464 000f 05       		.byte	0x5
 9465 0010 28       		.uleb128 0x28
 9466 0011 51910000 		.4byte	.LASF371
 9467 0015 06       		.byte	0x6
 9468 0016 8001     		.uleb128 0x80
 9469 0018 8B300000 		.4byte	.LASF372
 9470 001c 05       		.byte	0x5
 9471 001d 8101     		.uleb128 0x81
 9472 001f 7A320000 		.4byte	.LASF373
 9473 0023 06       		.byte	0x6
 9474 0024 8501     		.uleb128 0x85
 9475 0026 68280000 		.4byte	.LASF374
 9476 002a 05       		.byte	0x5
 9477 002b 8601     		.uleb128 0x86
 9478 002d 119E0000 		.4byte	.LASF375
 9479 0031 06       		.byte	0x6
 9480 0032 8701     		.uleb128 0x87
 9481 0034 96940000 		.4byte	.LASF376
 9482 0038 05       		.byte	0x5
 9483 0039 8801     		.uleb128 0x88
 9484 003b BF7B0000 		.4byte	.LASF377
 9485 003f 06       		.byte	0x6
 9486 0040 9B01     		.uleb128 0x9b
 9487 0042 EA9B0000 		.4byte	.LASF378
 9488 0046 05       		.byte	0x5
 9489 0047 9C01     		.uleb128 0x9c
 9490 0049 35910000 		.4byte	.LASF379
 9491 004d 05       		.byte	0x5
 9492 004e F201     		.uleb128 0xf2
 9493 0050 E16D0000 		.4byte	.LASF380
ARM GAS  /var/folders/z0/6xlwn_996xz3mwq1cgzkbq4r0000gp/T//cc3rPjEN.s 			page 183


 9494 0054 05       		.byte	0x5
 9495 0055 F801     		.uleb128 0xf8
 9496 0057 DA7E0000 		.4byte	.LASF381
 9497 005b 05       		.byte	0x5
 9498 005c 8002     		.uleb128 0x100
 9499 005e 938B0000 		.4byte	.LASF382
 9500 0062 05       		.byte	0x5
 9501 0063 8802     		.uleb128 0x108
 9502 0065 49780000 		.4byte	.LASF383
 9503 0069 05       		.byte	0x5
 9504 006a 9002     		.uleb128 0x110
 9505 006c F66B0000 		.4byte	.LASF384
 9506 0070 05       		.byte	0x5
 9507 0071 9402     		.uleb128 0x114
 9508 0073 7C9C0000 		.4byte	.LASF385
 9509 0077 05       		.byte	0x5
 9510 0078 9A02     		.uleb128 0x11a
 9511 007a 314E0000 		.4byte	.LASF386
 9512 007e 05       		.byte	0x5
 9513 007f AA02     		.uleb128 0x12a
 9514 0081 2D420000 		.4byte	.LASF387
 9515 0085 05       		.byte	0x5
 9516 0086 BA02     		.uleb128 0x13a
 9517 0088 9D790000 		.4byte	.LASF388
 9518 008c 00       		.byte	0
 9519              		.section	.debug_macro,"G",%progbits,wm4.config.h.219.65a553ab5bef5482f0d7880b0d33015e,comdat
 9520              	.Ldebug_macro5:
 9521 0000 0400     		.2byte	0x4
 9522 0002 00       		.byte	0
 9523 0003 05       		.byte	0x5
 9524 0004 DB01     		.uleb128 0xdb
 9525 0006 C4620000 		.4byte	.LASF389
 9526 000a 06       		.byte	0x6
 9527 000b E101     		.uleb128 0xe1
 9528 000d 46910000 		.4byte	.LASF390
 9529 0011 05       		.byte	0x5
 9530 0012 E501     		.uleb128 0xe5
 9531 0014 43380000 		.4byte	.LASF391
 9532 0018 05       		.byte	0x5
 9533 0019 F401     		.uleb128 0xf4
 9534 001b 2D6F0000 		.4byte	.LASF392
 9535 001f 05       		.byte	0x5
 9536 0020 F801     		.uleb128 0xf8
 9537 0022 079E0000 		.4byte	.LASF393
 9538 0026 05       		.byte	0x5
 9539 0027 FF01     		.uleb128 0xff
 9540 0029 3B830000 		.4byte	.LASF394
 9541 002d 05       		.byte	0x5
 9542 002e 8502     		.uleb128 0x105
 9543 0030 30060000 		.4byte	.LASF395
 9544 0034 00       		.byte	0
 9545              		.section	.debug_macro,"G",%progbits,wm4._ansi.h.23.84af8eb8cd468d25cc5f45f5eb13ec51,comdat
 9546              	.Ldebug_macro6:
 9547 0000 0400     		.2byte	0x4
 9548 0002 00       		.byte	0
 9549 0003 05       		.byte	0x5
 9550 0004 17       		.uleb128 0x17
ARM GAS  /var/folders/z0/6xlwn_996xz3mwq1cgzkbq4r0000gp/T//cc3rPjEN.s 			page 184


 9551 0005 3A1A0000 		.4byte	.LASF396
 9552 0009 05       		.byte	0x5
 9553 000a 2C       		.uleb128 0x2c
 9554 000b 97210000 		.4byte	.LASF397
 9555 000f 05       		.byte	0x5
 9556 0010 2D       		.uleb128 0x2d
 9557 0011 8F500000 		.4byte	.LASF398
 9558 0015 05       		.byte	0x5
 9559 0016 2E       		.uleb128 0x2e
 9560 0017 AF920000 		.4byte	.LASF399
 9561 001b 05       		.byte	0x5
 9562 001c 32       		.uleb128 0x32
 9563 001d 40620000 		.4byte	.LASF400
 9564 0021 05       		.byte	0x5
 9565 0022 33       		.uleb128 0x33
 9566 0023 6D5F0000 		.4byte	.LASF401
 9567 0027 05       		.byte	0x5
 9568 0028 34       		.uleb128 0x34
 9569 0029 EF270000 		.4byte	.LASF402
 9570 002d 05       		.byte	0x5
 9571 002e 35       		.uleb128 0x35
 9572 002f 4E200000 		.4byte	.LASF403
 9573 0033 05       		.byte	0x5
 9574 0034 36       		.uleb128 0x36
 9575 0035 292C0000 		.4byte	.LASF404
 9576 0039 05       		.byte	0x5
 9577 003a 37       		.uleb128 0x37
 9578 003b 4C6D0000 		.4byte	.LASF405
 9579 003f 05       		.byte	0x5
 9580 0040 38       		.uleb128 0x38
 9581 0041 0D320000 		.4byte	.LASF406
 9582 0045 05       		.byte	0x5
 9583 0046 39       		.uleb128 0x39
 9584 0047 22040000 		.4byte	.LASF407
 9585 004b 05       		.byte	0x5
 9586 004c 40       		.uleb128 0x40
 9587 004d 59090000 		.4byte	.LASF408
 9588 0051 05       		.byte	0x5
 9589 0052 41       		.uleb128 0x41
 9590 0053 59050000 		.4byte	.LASF409
 9591 0057 05       		.byte	0x5
 9592 0058 42       		.uleb128 0x42
 9593 0059 69860000 		.4byte	.LASF410
 9594 005d 05       		.byte	0x5
 9595 005e 43       		.uleb128 0x43
 9596 005f AD7C0000 		.4byte	.LASF411
 9597 0063 05       		.byte	0x5
 9598 0064 45       		.uleb128 0x45
 9599 0065 7D4E0000 		.4byte	.LASF412
 9600 0069 05       		.byte	0x5
 9601 006a 46       		.uleb128 0x46
 9602 006b BF140000 		.4byte	.LASF413
 9603 006f 05       		.byte	0x5
 9604 0070 47       		.uleb128 0x47
 9605 0071 E3710000 		.4byte	.LASF414
 9606 0075 05       		.byte	0x5
 9607 0076 49       		.uleb128 0x49
ARM GAS  /var/folders/z0/6xlwn_996xz3mwq1cgzkbq4r0000gp/T//cc3rPjEN.s 			page 185


 9608 0077 5F9F0000 		.4byte	.LASF415
 9609 007b 05       		.byte	0x5
 9610 007c 4C       		.uleb128 0x4c
 9611 007d 0C6D0000 		.4byte	.LASF416
 9612 0081 05       		.byte	0x5
 9613 0082 65       		.uleb128 0x65
 9614 0083 6E9B0000 		.4byte	.LASF417
 9615 0087 05       		.byte	0x5
 9616 0088 7B       		.uleb128 0x7b
 9617 0089 BA110000 		.4byte	.LASF418
 9618 008d 05       		.byte	0x5
 9619 008e 8301     		.uleb128 0x83
 9620 0090 FE110000 		.4byte	.LASF419
 9621 0094 05       		.byte	0x5
 9622 0095 8401     		.uleb128 0x84
 9623 0097 2D9F0000 		.4byte	.LASF420
 9624 009b 00       		.byte	0
 9625              		.section	.debug_macro,"G",%progbits,wm4.stddef.h.39.99b5021e28f91cdb161c889e07266673,comdat
 9626              	.Ldebug_macro7:
 9627 0000 0400     		.2byte	0x4
 9628 0002 00       		.byte	0
 9629 0003 05       		.byte	0x5
 9630 0004 27       		.uleb128 0x27
 9631 0005 9A470000 		.4byte	.LASF422
 9632 0009 05       		.byte	0x5
 9633 000a 28       		.uleb128 0x28
 9634 000b 29910000 		.4byte	.LASF423
 9635 000f 05       		.byte	0x5
 9636 0010 2A       		.uleb128 0x2a
 9637 0011 C2660000 		.4byte	.LASF424
 9638 0015 05       		.byte	0x5
 9639 0016 8901     		.uleb128 0x89
 9640 0018 432F0000 		.4byte	.LASF425
 9641 001c 05       		.byte	0x5
 9642 001d 8A01     		.uleb128 0x8a
 9643 001f 990E0000 		.4byte	.LASF426
 9644 0023 05       		.byte	0x5
 9645 0024 8B01     		.uleb128 0x8b
 9646 0026 67820000 		.4byte	.LASF427
 9647 002a 05       		.byte	0x5
 9648 002b 8C01     		.uleb128 0x8c
 9649 002d 06700000 		.4byte	.LASF428
 9650 0031 05       		.byte	0x5
 9651 0032 8D01     		.uleb128 0x8d
 9652 0034 756F0000 		.4byte	.LASF429
 9653 0038 05       		.byte	0x5
 9654 0039 8E01     		.uleb128 0x8e
 9655 003b 4F940000 		.4byte	.LASF430
 9656 003f 05       		.byte	0x5
 9657 0040 8F01     		.uleb128 0x8f
 9658 0042 D39E0000 		.4byte	.LASF431
 9659 0046 05       		.byte	0x5
 9660 0047 9001     		.uleb128 0x90
 9661 0049 8A830000 		.4byte	.LASF432
 9662 004d 05       		.byte	0x5
 9663 004e 9101     		.uleb128 0x91
 9664 0050 902C0000 		.4byte	.LASF433
ARM GAS  /var/folders/z0/6xlwn_996xz3mwq1cgzkbq4r0000gp/T//cc3rPjEN.s 			page 186


 9665 0054 06       		.byte	0x6
 9666 0055 A101     		.uleb128 0xa1
 9667 0057 8B6C0000 		.4byte	.LASF434
 9668 005b 05       		.byte	0x5
 9669 005c BB01     		.uleb128 0xbb
 9670 005e 9A610000 		.4byte	.LASF435
 9671 0062 05       		.byte	0x5
 9672 0063 BC01     		.uleb128 0xbc
 9673 0065 B1A80000 		.4byte	.LASF436
 9674 0069 05       		.byte	0x5
 9675 006a BD01     		.uleb128 0xbd
 9676 006c 59AE0000 		.4byte	.LASF437
 9677 0070 05       		.byte	0x5
 9678 0071 BE01     		.uleb128 0xbe
 9679 0073 92580000 		.4byte	.LASF438
 9680 0077 05       		.byte	0x5
 9681 0078 BF01     		.uleb128 0xbf
 9682 007a 241A0000 		.4byte	.LASF439
 9683 007e 05       		.byte	0x5
 9684 007f C001     		.uleb128 0xc0
 9685 0081 2E740000 		.4byte	.LASF440
 9686 0085 05       		.byte	0x5
 9687 0086 C101     		.uleb128 0xc1
 9688 0088 F5710000 		.4byte	.LASF441
 9689 008c 05       		.byte	0x5
 9690 008d C201     		.uleb128 0xc2
 9691 008f 15460000 		.4byte	.LASF442
 9692 0093 05       		.byte	0x5
 9693 0094 C301     		.uleb128 0xc3
 9694 0096 99630000 		.4byte	.LASF443
 9695 009a 05       		.byte	0x5
 9696 009b C401     		.uleb128 0xc4
 9697 009d 93400000 		.4byte	.LASF444
 9698 00a1 05       		.byte	0x5
 9699 00a2 C501     		.uleb128 0xc5
 9700 00a4 447D0000 		.4byte	.LASF445
 9701 00a8 05       		.byte	0x5
 9702 00a9 C601     		.uleb128 0xc6
 9703 00ab DD130000 		.4byte	.LASF446
 9704 00af 05       		.byte	0x5
 9705 00b0 C701     		.uleb128 0xc7
 9706 00b2 EA200000 		.4byte	.LASF447
 9707 00b6 05       		.byte	0x5
 9708 00b7 C801     		.uleb128 0xc8
 9709 00b9 25400000 		.4byte	.LASF448
 9710 00bd 05       		.byte	0x5
 9711 00be C901     		.uleb128 0xc9
 9712 00c0 451C0000 		.4byte	.LASF449
 9713 00c4 05       		.byte	0x5
 9714 00c5 CA01     		.uleb128 0xca
 9715 00c7 1D900000 		.4byte	.LASF450
 9716 00cb 05       		.byte	0x5
 9717 00cc D201     		.uleb128 0xd2
 9718 00ce 76280000 		.4byte	.LASF451
 9719 00d2 06       		.byte	0x6
 9720 00d3 EE01     		.uleb128 0xee
 9721 00d5 3B460000 		.4byte	.LASF452
ARM GAS  /var/folders/z0/6xlwn_996xz3mwq1cgzkbq4r0000gp/T//cc3rPjEN.s 			page 187


 9722 00d9 05       		.byte	0x5
 9723 00da 8B02     		.uleb128 0x10b
 9724 00dc 1F510000 		.4byte	.LASF453
 9725 00e0 05       		.byte	0x5
 9726 00e1 8C02     		.uleb128 0x10c
 9727 00e3 FE080000 		.4byte	.LASF454
 9728 00e7 05       		.byte	0x5
 9729 00e8 8D02     		.uleb128 0x10d
 9730 00ea 25230000 		.4byte	.LASF455
 9731 00ee 05       		.byte	0x5
 9732 00ef 8E02     		.uleb128 0x10e
 9733 00f1 DF760000 		.4byte	.LASF456
 9734 00f5 05       		.byte	0x5
 9735 00f6 8F02     		.uleb128 0x10f
 9736 00f8 52550000 		.4byte	.LASF457
 9737 00fc 05       		.byte	0x5
 9738 00fd 9002     		.uleb128 0x110
 9739 00ff 60940000 		.4byte	.LASF458
 9740 0103 05       		.byte	0x5
 9741 0104 9102     		.uleb128 0x111
 9742 0106 16570000 		.4byte	.LASF459
 9743 010a 05       		.byte	0x5
 9744 010b 9202     		.uleb128 0x112
 9745 010d 848B0000 		.4byte	.LASF460
 9746 0111 05       		.byte	0x5
 9747 0112 9302     		.uleb128 0x113
 9748 0114 8C320000 		.4byte	.LASF461
 9749 0118 05       		.byte	0x5
 9750 0119 9402     		.uleb128 0x114
 9751 011b 3B6E0000 		.4byte	.LASF462
 9752 011f 05       		.byte	0x5
 9753 0120 9502     		.uleb128 0x115
 9754 0122 D5360000 		.4byte	.LASF463
 9755 0126 05       		.byte	0x5
 9756 0127 9602     		.uleb128 0x116
 9757 0129 E07A0000 		.4byte	.LASF464
 9758 012d 05       		.byte	0x5
 9759 012e 9702     		.uleb128 0x117
 9760 0130 9F320000 		.4byte	.LASF465
 9761 0134 05       		.byte	0x5
 9762 0135 9802     		.uleb128 0x118
 9763 0137 67430000 		.4byte	.LASF466
 9764 013b 05       		.byte	0x5
 9765 013c 9902     		.uleb128 0x119
 9766 013e D4510000 		.4byte	.LASF467
 9767 0142 06       		.byte	0x6
 9768 0143 A602     		.uleb128 0x126
 9769 0145 A2450000 		.4byte	.LASF468
 9770 0149 06       		.byte	0x6
 9771 014a DB02     		.uleb128 0x15b
 9772 014c 12820000 		.4byte	.LASF469
 9773 0150 06       		.byte	0x6
 9774 0151 9103     		.uleb128 0x191
 9775 0153 D9410000 		.4byte	.LASF470
 9776 0157 05       		.byte	0x5
 9777 0158 9603     		.uleb128 0x196
 9778 015a 91450000 		.4byte	.LASF471
ARM GAS  /var/folders/z0/6xlwn_996xz3mwq1cgzkbq4r0000gp/T//cc3rPjEN.s 			page 188


 9779 015e 06       		.byte	0x6
 9780 015f 9C03     		.uleb128 0x19c
 9781 0161 5E5C0000 		.4byte	.LASF472
 9782 0165 05       		.byte	0x5
 9783 0166 A103     		.uleb128 0x1a1
 9784 0168 53730000 		.4byte	.LASF473
 9785 016c 00       		.byte	0
 9786              		.section	.debug_macro,"G",%progbits,wm4._default_types.h.6.35ee9e747940367bf2a634907d1c2382,comdat
 9787              	.Ldebug_macro8:
 9788 0000 0400     		.2byte	0x4
 9789 0002 00       		.byte	0
 9790 0003 05       		.byte	0x5
 9791 0004 06       		.uleb128 0x6
 9792 0005 1E810000 		.4byte	.LASF476
 9793 0009 05       		.byte	0x5
 9794 000a 0F       		.uleb128 0xf
 9795 000b 8B1D0000 		.4byte	.LASF477
 9796 000f 05       		.byte	0x5
 9797 0010 21       		.uleb128 0x21
 9798 0011 9B7D0000 		.4byte	.LASF478
 9799 0015 05       		.byte	0x5
 9800 0016 2F       		.uleb128 0x2f
 9801 0017 FC200000 		.4byte	.LASF479
 9802 001b 05       		.byte	0x5
 9803 001c 45       		.uleb128 0x45
 9804 001d 599B0000 		.4byte	.LASF480
 9805 0021 05       		.byte	0x5
 9806 0022 5F       		.uleb128 0x5f
 9807 0023 E53C0000 		.4byte	.LASF481
 9808 0027 05       		.byte	0x5
 9809 0028 7E       		.uleb128 0x7e
 9810 0029 59330000 		.4byte	.LASF482
 9811 002d 05       		.byte	0x5
 9812 002e 9801     		.uleb128 0x98
 9813 0030 0D580000 		.4byte	.LASF483
 9814 0034 05       		.byte	0x5
 9815 0035 AE01     		.uleb128 0xae
 9816 0037 3C410000 		.4byte	.LASF484
 9817 003b 05       		.byte	0x5
 9818 003c C001     		.uleb128 0xc0
 9819 003e B65F0000 		.4byte	.LASF485
 9820 0042 06       		.byte	0x6
 9821 0043 D601     		.uleb128 0xd6
 9822 0045 131A0000 		.4byte	.LASF486
 9823 0049 00       		.byte	0
 9824              		.section	.debug_macro,"G",%progbits,wm4.lock.h.2.9bc98482741e5e2a9450b12934a684ea,comdat
 9825              	.Ldebug_macro9:
 9826 0000 0400     		.2byte	0x4
 9827 0002 00       		.byte	0
 9828 0003 05       		.byte	0x5
 9829 0004 02       		.uleb128 0x2
 9830 0005 01160000 		.4byte	.LASF487
 9831 0009 05       		.byte	0x5
 9832 000a 0B       		.uleb128 0xb
 9833 000b BB430000 		.4byte	.LASF488
 9834 000f 05       		.byte	0x5
 9835 0010 0C       		.uleb128 0xc
ARM GAS  /var/folders/z0/6xlwn_996xz3mwq1cgzkbq4r0000gp/T//cc3rPjEN.s 			page 189


 9836 0011 F7180000 		.4byte	.LASF489
 9837 0015 05       		.byte	0x5
 9838 0016 0D       		.uleb128 0xd
 9839 0017 87410000 		.4byte	.LASF490
 9840 001b 05       		.byte	0x5
 9841 001c 0E       		.uleb128 0xe
 9842 001d C0910000 		.4byte	.LASF491
 9843 0021 05       		.byte	0x5
 9844 0022 0F       		.uleb128 0xf
 9845 0023 EB470000 		.4byte	.LASF492
 9846 0027 05       		.byte	0x5
 9847 0028 10       		.uleb128 0x10
 9848 0029 51720000 		.4byte	.LASF493
 9849 002d 05       		.byte	0x5
 9850 002e 11       		.uleb128 0x11
 9851 002f 100E0000 		.4byte	.LASF494
 9852 0033 05       		.byte	0x5
 9853 0034 12       		.uleb128 0x12
 9854 0035 50610000 		.4byte	.LASF495
 9855 0039 05       		.byte	0x5
 9856 003a 13       		.uleb128 0x13
 9857 003b DC560000 		.4byte	.LASF496
 9858 003f 05       		.byte	0x5
 9859 0040 14       		.uleb128 0x14
 9860 0041 2B170000 		.4byte	.LASF497
 9861 0045 05       		.byte	0x5
 9862 0046 15       		.uleb128 0x15
 9863 0047 293B0000 		.4byte	.LASF498
 9864 004b 05       		.byte	0x5
 9865 004c 16       		.uleb128 0x16
 9866 004d BEA10000 		.4byte	.LASF499
 9867 0051 00       		.byte	0
 9868              		.section	.debug_macro,"G",%progbits,wm4._types.h.125.5cf8a495f1f7ef36777ad868a1e32068,comdat
 9869              	.Ldebug_macro10:
 9870 0000 0400     		.2byte	0x4
 9871 0002 00       		.byte	0
 9872 0003 06       		.byte	0x6
 9873 0004 7D       		.uleb128 0x7d
 9874 0005 DC8E0000 		.4byte	.LASF500
 9875 0009 05       		.byte	0x5
 9876 000a 9001     		.uleb128 0x90
 9877 000c EB630000 		.4byte	.LASF501
 9878 0010 06       		.byte	0x6
 9879 0011 9201     		.uleb128 0x92
 9880 0013 CF6B0000 		.4byte	.LASF502
 9881 0017 05       		.byte	0x5
 9882 0018 9E01     		.uleb128 0x9e
 9883 001a 63080000 		.4byte	.LASF503
 9884 001e 00       		.byte	0
 9885              		.section	.debug_macro,"G",%progbits,wm4.stddef.h.161.5349cb105733e8777bfb0cf53c4e3f34,comdat
 9886              	.Ldebug_macro11:
 9887 0000 0400     		.2byte	0x4
 9888 0002 00       		.byte	0
 9889 0003 06       		.byte	0x6
 9890 0004 A101     		.uleb128 0xa1
 9891 0006 8B6C0000 		.4byte	.LASF434
 9892 000a 06       		.byte	0x6
ARM GAS  /var/folders/z0/6xlwn_996xz3mwq1cgzkbq4r0000gp/T//cc3rPjEN.s 			page 190


 9893 000b EE01     		.uleb128 0xee
 9894 000d 3B460000 		.4byte	.LASF452
 9895 0011 06       		.byte	0x6
 9896 0012 DB02     		.uleb128 0x15b
 9897 0014 12820000 		.4byte	.LASF469
 9898 0018 05       		.byte	0x5
 9899 0019 E002     		.uleb128 0x160
 9900 001b 54030000 		.4byte	.LASF504
 9901 001f 06       		.byte	0x6
 9902 0020 E702     		.uleb128 0x167
 9903 0022 474D0000 		.4byte	.LASF505
 9904 0026 06       		.byte	0x6
 9905 0027 9103     		.uleb128 0x191
 9906 0029 D9410000 		.4byte	.LASF470
 9907 002d 05       		.byte	0x5
 9908 002e 9603     		.uleb128 0x196
 9909 0030 91450000 		.4byte	.LASF471
 9910 0034 06       		.byte	0x6
 9911 0035 9C03     		.uleb128 0x19c
 9912 0037 5E5C0000 		.4byte	.LASF472
 9913 003b 05       		.byte	0x5
 9914 003c A103     		.uleb128 0x1a1
 9915 003e 53730000 		.4byte	.LASF473
 9916 0042 00       		.byte	0
 9917              		.section	.debug_macro,"G",%progbits,wm4._types.h.183.c226d164ceca1f2ecb9ae9360c54a098,comdat
 9918              	.Ldebug_macro12:
 9919 0000 0400     		.2byte	0x4
 9920 0002 00       		.byte	0
 9921 0003 05       		.byte	0x5
 9922 0004 B701     		.uleb128 0xb7
 9923 0006 95040000 		.4byte	.LASF506
 9924 000a 05       		.byte	0x5
 9925 000b BA01     		.uleb128 0xba
 9926 000d 3CAE0000 		.4byte	.LASF507
 9927 0011 05       		.byte	0x5
 9928 0012 BD01     		.uleb128 0xbd
 9929 0014 95670000 		.4byte	.LASF508
 9930 0018 05       		.byte	0x5
 9931 0019 C001     		.uleb128 0xc0
 9932 001b 433A0000 		.4byte	.LASF509
 9933 001f 00       		.byte	0
 9934              		.section	.debug_macro,"G",%progbits,wm4.reent.h.17.23b059516345f8f5abfa01ddc379570f,comdat
 9935              	.Ldebug_macro13:
 9936 0000 0400     		.2byte	0x4
 9937 0002 00       		.byte	0
 9938 0003 05       		.byte	0x5
 9939 0004 11       		.uleb128 0x11
 9940 0005 C0500000 		.4byte	.LASF510
 9941 0009 05       		.byte	0x5
 9942 000a 15       		.uleb128 0x15
 9943 000b C9720000 		.4byte	.LASF511
 9944 000f 05       		.byte	0x5
 9945 0010 48       		.uleb128 0x48
 9946 0011 461A0000 		.4byte	.LASF512
 9947 0015 05       		.byte	0x5
 9948 0016 64       		.uleb128 0x64
 9949 0017 F3090000 		.4byte	.LASF513
ARM GAS  /var/folders/z0/6xlwn_996xz3mwq1cgzkbq4r0000gp/T//cc3rPjEN.s 			page 191


 9950 001b 05       		.byte	0x5
 9951 001c 6A       		.uleb128 0x6a
 9952 001d EA930000 		.4byte	.LASF514
 9953 0021 05       		.byte	0x5
 9954 0022 B201     		.uleb128 0xb2
 9955 0024 1B980000 		.4byte	.LASF515
 9956 0028 05       		.byte	0x5
 9957 0029 B802     		.uleb128 0x138
 9958 002b C48B0000 		.4byte	.LASF516
 9959 002f 05       		.byte	0x5
 9960 0030 B902     		.uleb128 0x139
 9961 0032 42520000 		.4byte	.LASF517
 9962 0036 05       		.byte	0x5
 9963 0037 BA02     		.uleb128 0x13a
 9964 0039 D65E0000 		.4byte	.LASF518
 9965 003d 05       		.byte	0x5
 9966 003e BB02     		.uleb128 0x13b
 9967 0040 F75A0000 		.4byte	.LASF519
 9968 0044 05       		.byte	0x5
 9969 0045 BC02     		.uleb128 0x13c
 9970 0047 5A690000 		.4byte	.LASF520
 9971 004b 05       		.byte	0x5
 9972 004c BD02     		.uleb128 0x13d
 9973 004e 6A670000 		.4byte	.LASF521
 9974 0052 05       		.byte	0x5
 9975 0053 BE02     		.uleb128 0x13e
 9976 0055 A38B0000 		.4byte	.LASF522
 9977 0059 05       		.byte	0x5
 9978 005a CA02     		.uleb128 0x14a
 9979 005c EA1E0000 		.4byte	.LASF523
 9980 0060 05       		.byte	0x5
 9981 0061 CB02     		.uleb128 0x14b
 9982 0063 28A50000 		.4byte	.LASF524
 9983 0067 05       		.byte	0x5
 9984 0068 CC02     		.uleb128 0x14c
 9985 006a 12940000 		.4byte	.LASF525
 9986 006e 05       		.byte	0x5
 9987 006f F404     		.uleb128 0x274
 9988 0071 4D6E0000 		.4byte	.LASF526
 9989 0075 05       		.byte	0x5
 9990 0076 8A05     		.uleb128 0x28a
 9991 0078 5E0B0000 		.4byte	.LASF527
 9992 007c 05       		.byte	0x5
 9993 007d BA05     		.uleb128 0x2ba
 9994 007f D43D0000 		.4byte	.LASF528
 9995 0083 05       		.byte	0x5
 9996 0084 C805     		.uleb128 0x2c8
 9997 0086 E0020000 		.4byte	.LASF529
 9998 008a 05       		.byte	0x5
 9999 008b C905     		.uleb128 0x2c9
 10000 008d CC420000 		.4byte	.LASF530
 10001 0091 05       		.byte	0x5
 10002 0092 CA05     		.uleb128 0x2ca
 10003 0094 AF130000 		.4byte	.LASF531
 10004 0098 05       		.byte	0x5
 10005 0099 CB05     		.uleb128 0x2cb
 10006 009b 2D040000 		.4byte	.LASF532
ARM GAS  /var/folders/z0/6xlwn_996xz3mwq1cgzkbq4r0000gp/T//cc3rPjEN.s 			page 192


 10007 009f 05       		.byte	0x5
 10008 00a0 CC05     		.uleb128 0x2cc
 10009 00a2 02520000 		.4byte	.LASF533
 10010 00a6 05       		.byte	0x5
 10011 00a7 CD05     		.uleb128 0x2cd
 10012 00a9 5E890000 		.4byte	.LASF534
 10013 00ad 05       		.byte	0x5
 10014 00ae CE05     		.uleb128 0x2ce
 10015 00b0 521C0000 		.4byte	.LASF535
 10016 00b4 05       		.byte	0x5
 10017 00b5 D005     		.uleb128 0x2d0
 10018 00b7 A52C0000 		.4byte	.LASF536
 10019 00bb 05       		.byte	0x5
 10020 00bc D105     		.uleb128 0x2d1
 10021 00be BB590000 		.4byte	.LASF537
 10022 00c2 05       		.byte	0x5
 10023 00c3 D205     		.uleb128 0x2d2
 10024 00c5 9C3D0000 		.4byte	.LASF538
 10025 00c9 05       		.byte	0x5
 10026 00ca D305     		.uleb128 0x2d3
 10027 00cc A4650000 		.4byte	.LASF539
 10028 00d0 05       		.byte	0x5
 10029 00d1 D405     		.uleb128 0x2d4
 10030 00d3 0D2B0000 		.4byte	.LASF540
 10031 00d7 05       		.byte	0x5
 10032 00d8 D505     		.uleb128 0x2d5
 10033 00da 074F0000 		.4byte	.LASF541
 10034 00de 05       		.byte	0x5
 10035 00df D605     		.uleb128 0x2d6
 10036 00e1 EA480000 		.4byte	.LASF542
 10037 00e5 05       		.byte	0x5
 10038 00e6 D705     		.uleb128 0x2d7
 10039 00e8 65950000 		.4byte	.LASF543
 10040 00ec 05       		.byte	0x5
 10041 00ed D805     		.uleb128 0x2d8
 10042 00ef 4A8D0000 		.4byte	.LASF544
 10043 00f3 05       		.byte	0x5
 10044 00f4 D905     		.uleb128 0x2d9
 10045 00f6 666A0000 		.4byte	.LASF545
 10046 00fa 05       		.byte	0x5
 10047 00fb DA05     		.uleb128 0x2da
 10048 00fd 259B0000 		.4byte	.LASF546
 10049 0101 05       		.byte	0x5
 10050 0102 DB05     		.uleb128 0x2db
 10051 0104 345B0000 		.4byte	.LASF547
 10052 0108 05       		.byte	0x5
 10053 0109 DC05     		.uleb128 0x2dc
 10054 010b C2740000 		.4byte	.LASF548
 10055 010f 05       		.byte	0x5
 10056 0110 DD05     		.uleb128 0x2dd
 10057 0112 12180000 		.4byte	.LASF549
 10058 0116 05       		.byte	0x5
 10059 0117 DE05     		.uleb128 0x2de
 10060 0119 D0AA0000 		.4byte	.LASF550
 10061 011d 05       		.byte	0x5
 10062 011e DF05     		.uleb128 0x2df
 10063 0120 C75B0000 		.4byte	.LASF551
ARM GAS  /var/folders/z0/6xlwn_996xz3mwq1cgzkbq4r0000gp/T//cc3rPjEN.s 			page 193


 10064 0124 05       		.byte	0x5
 10065 0125 E005     		.uleb128 0x2e0
 10066 0127 FE070000 		.4byte	.LASF552
 10067 012b 05       		.byte	0x5
 10068 012c E105     		.uleb128 0x2e1
 10069 012e 4A660000 		.4byte	.LASF553
 10070 0132 05       		.byte	0x5
 10071 0133 E205     		.uleb128 0x2e2
 10072 0135 62420000 		.4byte	.LASF554
 10073 0139 05       		.byte	0x5
 10074 013a E305     		.uleb128 0x2e3
 10075 013c 7E970000 		.4byte	.LASF555
 10076 0140 05       		.byte	0x5
 10077 0141 E405     		.uleb128 0x2e4
 10078 0143 0A110000 		.4byte	.LASF556
 10079 0147 05       		.byte	0x5
 10080 0148 E505     		.uleb128 0x2e5
 10081 014a 51010000 		.4byte	.LASF557
 10082 014e 05       		.byte	0x5
 10083 014f E605     		.uleb128 0x2e6
 10084 0151 8BA30000 		.4byte	.LASF558
 10085 0155 05       		.byte	0x5
 10086 0156 E705     		.uleb128 0x2e7
 10087 0158 31500000 		.4byte	.LASF559
 10088 015c 05       		.byte	0x5
 10089 015d EB05     		.uleb128 0x2eb
 10090 015f 29AF0000 		.4byte	.LASF560
 10091 0163 05       		.byte	0x5
 10092 0164 F305     		.uleb128 0x2f3
 10093 0166 975B0000 		.4byte	.LASF561
 10094 016a 05       		.byte	0x5
 10095 016b FB05     		.uleb128 0x2fb
 10096 016d EC880000 		.4byte	.LASF562
 10097 0171 05       		.byte	0x5
 10098 0172 8B06     		.uleb128 0x30b
 10099 0174 B45B0000 		.4byte	.LASF563
 10100 0178 05       		.byte	0x5
 10101 0179 8E06     		.uleb128 0x30e
 10102 017b F46D0000 		.4byte	.LASF564
 10103 017f 05       		.byte	0x5
 10104 0180 9406     		.uleb128 0x314
 10105 0182 33630000 		.4byte	.LASF565
 10106 0186 00       		.byte	0
 10107              		.section	.debug_macro,"G",%progbits,wm4.cdefs.h.47.d0af77d4010113800282e6476aca9724,comdat
 10108              	.Ldebug_macro14:
 10109 0000 0400     		.2byte	0x4
 10110 0002 00       		.byte	0
 10111 0003 05       		.byte	0x5
 10112 0004 2F       		.uleb128 0x2f
 10113 0005 376F0000 		.4byte	.LASF567
 10114 0009 05       		.byte	0x5
 10115 000a 30       		.uleb128 0x30
 10116 000b A0730000 		.4byte	.LASF568
 10117 000f 05       		.byte	0x5
 10118 0010 31       		.uleb128 0x31
 10119 0011 BDAB0000 		.4byte	.LASF569
 10120 0015 05       		.byte	0x5
ARM GAS  /var/folders/z0/6xlwn_996xz3mwq1cgzkbq4r0000gp/T//cc3rPjEN.s 			page 194


 10121 0016 34       		.uleb128 0x34
 10122 0017 93570000 		.4byte	.LASF570
 10123 001b 05       		.byte	0x5
 10124 001c 37       		.uleb128 0x37
 10125 001d 526B0000 		.4byte	.LASF571
 10126 0021 05       		.byte	0x5
 10127 0022 38       		.uleb128 0x38
 10128 0023 F31D0000 		.4byte	.LASF572
 10129 0027 05       		.byte	0x5
 10130 0028 3A       		.uleb128 0x3a
 10131 0029 98200000 		.4byte	.LASF573
 10132 002d 05       		.byte	0x5
 10133 002e 3B       		.uleb128 0x3b
 10134 002f 6E4A0000 		.4byte	.LASF574
 10135 0033 05       		.byte	0x5
 10136 0034 3C       		.uleb128 0x3c
 10137 0035 86950000 		.4byte	.LASF575
 10138 0039 05       		.byte	0x5
 10139 003a 3D       		.uleb128 0x3d
 10140 003b EC2A0000 		.4byte	.LASF576
 10141 003f 05       		.byte	0x5
 10142 0040 40       		.uleb128 0x40
 10143 0041 D7320000 		.4byte	.LASF577
 10144 0045 05       		.byte	0x5
 10145 0046 41       		.uleb128 0x41
 10146 0047 D20E0000 		.4byte	.LASF578
 10147 004b 05       		.byte	0x5
 10148 004c 42       		.uleb128 0x42
 10149 004d FE4B0000 		.4byte	.LASF579
 10150 0051 05       		.byte	0x5
 10151 0052 4C       		.uleb128 0x4c
 10152 0053 9D680000 		.4byte	.LASF580
 10153 0057 05       		.byte	0x5
 10154 0058 4F       		.uleb128 0x4f
 10155 0059 BA1E0000 		.4byte	.LASF581
 10156 005d 05       		.byte	0x5
 10157 005e 55       		.uleb128 0x55
 10158 005f 20630000 		.4byte	.LASF582
 10159 0063 05       		.byte	0x5
 10160 0064 5C       		.uleb128 0x5c
 10161 0065 D5970000 		.4byte	.LASF583
 10162 0069 05       		.byte	0x5
 10163 006a 5D       		.uleb128 0x5d
 10164 006b 745F0000 		.4byte	.LASF584
 10165 006f 05       		.byte	0x5
 10166 0070 69       		.uleb128 0x69
 10167 0071 DA470000 		.4byte	.LASF585
 10168 0075 05       		.byte	0x5
 10169 0076 6A       		.uleb128 0x6a
 10170 0077 29A70000 		.4byte	.LASF586
 10171 007b 05       		.byte	0x5
 10172 007c 6E       		.uleb128 0x6e
 10173 007d 95070000 		.4byte	.LASF587
 10174 0081 05       		.byte	0x5
 10175 0082 6F       		.uleb128 0x6f
 10176 0083 96290000 		.4byte	.LASF588
 10177 0087 05       		.byte	0x5
ARM GAS  /var/folders/z0/6xlwn_996xz3mwq1cgzkbq4r0000gp/T//cc3rPjEN.s 			page 195


 10178 0088 70       		.uleb128 0x70
 10179 0089 622E0000 		.4byte	.LASF589
 10180 008d 05       		.byte	0x5
 10181 008e 73       		.uleb128 0x73
 10182 008f F3130000 		.4byte	.LASF590
 10183 0093 05       		.byte	0x5
 10184 0094 76       		.uleb128 0x76
 10185 0095 39050000 		.4byte	.LASF591
 10186 0099 05       		.byte	0x5
 10187 009a 7D       		.uleb128 0x7d
 10188 009b 41570000 		.4byte	.LASF592
 10189 009f 05       		.byte	0x5
 10190 00a0 7E       		.uleb128 0x7e
 10191 00a1 45600000 		.4byte	.LASF593
 10192 00a5 05       		.byte	0x5
 10193 00a6 7F       		.uleb128 0x7f
 10194 00a7 168D0000 		.4byte	.LASF594
 10195 00ab 05       		.byte	0x5
 10196 00ac 8301     		.uleb128 0x83
 10197 00ae 3E350000 		.4byte	.LASF595
 10198 00b2 05       		.byte	0x5
 10199 00b3 8A01     		.uleb128 0x8a
 10200 00b5 F4410000 		.4byte	.LASF596
 10201 00b9 05       		.byte	0x5
 10202 00ba 8E01     		.uleb128 0x8e
 10203 00bc FA3C0000 		.4byte	.LASF597
 10204 00c0 05       		.byte	0x5
 10205 00c1 8F01     		.uleb128 0x8f
 10206 00c3 E5350000 		.4byte	.LASF598
 10207 00c7 05       		.byte	0x5
 10208 00c8 9201     		.uleb128 0x92
 10209 00ca 09400000 		.4byte	.LASF599
 10210 00ce 05       		.byte	0x5
 10211 00cf 9501     		.uleb128 0x95
 10212 00d1 4A2A0000 		.4byte	.LASF600
 10213 00d5 05       		.byte	0x5
 10214 00d6 9601     		.uleb128 0x96
 10215 00d8 FE1B0000 		.4byte	.LASF601
 10216 00dc 05       		.byte	0x5
 10217 00dd 9701     		.uleb128 0x97
 10218 00df B9920000 		.4byte	.LASF602
 10219 00e3 05       		.byte	0x5
 10220 00e4 9901     		.uleb128 0x99
 10221 00e6 71940000 		.4byte	.LASF603
 10222 00ea 05       		.byte	0x5
 10223 00eb 9A01     		.uleb128 0x9a
 10224 00ed D81C0000 		.4byte	.LASF604
 10225 00f1 05       		.byte	0x5
 10226 00f2 9C01     		.uleb128 0x9c
 10227 00f4 AF670000 		.4byte	.LASF605
 10228 00f8 05       		.byte	0x5
 10229 00f9 9E01     		.uleb128 0x9e
 10230 00fb 729D0000 		.4byte	.LASF606
 10231 00ff 05       		.byte	0x5
 10232 0100 AF01     		.uleb128 0xaf
 10233 0102 780A0000 		.4byte	.LASF607
 10234 0106 05       		.byte	0x5
ARM GAS  /var/folders/z0/6xlwn_996xz3mwq1cgzkbq4r0000gp/T//cc3rPjEN.s 			page 196


 10235 0107 B001     		.uleb128 0xb0
 10236 0109 917B0000 		.4byte	.LASF608
 10237 010d 05       		.byte	0x5
 10238 010e B101     		.uleb128 0xb1
 10239 0110 F6650000 		.4byte	.LASF609
 10240 0114 05       		.byte	0x5
 10241 0115 B201     		.uleb128 0xb2
 10242 0117 41AA0000 		.4byte	.LASF610
 10243 011b 05       		.byte	0x5
 10244 011c B301     		.uleb128 0xb3
 10245 011e CE870000 		.4byte	.LASF611
 10246 0122 05       		.byte	0x5
 10247 0123 B501     		.uleb128 0xb5
 10248 0125 03070000 		.4byte	.LASF612
 10249 0129 05       		.byte	0x5
 10250 012a B601     		.uleb128 0xb6
 10251 012c 948D0000 		.4byte	.LASF613
 10252 0130 05       		.byte	0x5
 10253 0131 B701     		.uleb128 0xb7
 10254 0133 CBAE0000 		.4byte	.LASF614
 10255 0137 05       		.byte	0x5
 10256 0138 EF01     		.uleb128 0xef
 10257 013a C42A0000 		.4byte	.LASF615
 10258 013e 05       		.byte	0x5
 10259 013f FC01     		.uleb128 0xfc
 10260 0141 7A440000 		.4byte	.LASF616
 10261 0145 05       		.byte	0x5
 10262 0146 FD01     		.uleb128 0xfd
 10263 0148 E3810000 		.4byte	.LASF617
 10264 014c 05       		.byte	0x5
 10265 014d FE01     		.uleb128 0xfe
 10266 014f 0A990000 		.4byte	.LASF618
 10267 0153 05       		.byte	0x5
 10268 0154 FF01     		.uleb128 0xff
 10269 0156 789F0000 		.4byte	.LASF619
 10270 015a 05       		.byte	0x5
 10271 015b 8002     		.uleb128 0x100
 10272 015d 495D0000 		.4byte	.LASF620
 10273 0161 05       		.byte	0x5
 10274 0162 8102     		.uleb128 0x101
 10275 0164 E30D0000 		.4byte	.LASF621
 10276 0168 05       		.byte	0x5
 10277 0169 8202     		.uleb128 0x102
 10278 016b 514B0000 		.4byte	.LASF622
 10279 016f 05       		.byte	0x5
 10280 0170 8502     		.uleb128 0x105
 10281 0172 358F0000 		.4byte	.LASF623
 10282 0176 05       		.byte	0x5
 10283 0177 8A02     		.uleb128 0x10a
 10284 0179 768F0000 		.4byte	.LASF624
 10285 017d 05       		.byte	0x5
 10286 017e A002     		.uleb128 0x120
 10287 0180 2E0A0000 		.4byte	.LASF625
 10288 0184 05       		.byte	0x5
 10289 0185 A702     		.uleb128 0x127
 10290 0187 13A90000 		.4byte	.LASF626
 10291 018b 05       		.byte	0x5
ARM GAS  /var/folders/z0/6xlwn_996xz3mwq1cgzkbq4r0000gp/T//cc3rPjEN.s 			page 197


 10292 018c AF02     		.uleb128 0x12f
 10293 018e 87AD0000 		.4byte	.LASF627
 10294 0192 05       		.byte	0x5
 10295 0193 B502     		.uleb128 0x135
 10296 0195 EF7D0000 		.4byte	.LASF628
 10297 0199 05       		.byte	0x5
 10298 019a D202     		.uleb128 0x152
 10299 019c DC040000 		.4byte	.LASF629
 10300 01a0 05       		.byte	0x5
 10301 01a1 E602     		.uleb128 0x166
 10302 01a3 6E960000 		.4byte	.LASF630
 10303 01a7 05       		.byte	0x5
 10304 01a8 EC02     		.uleb128 0x16c
 10305 01aa 54AB0000 		.4byte	.LASF631
 10306 01ae 05       		.byte	0x5
 10307 01af ED02     		.uleb128 0x16d
 10308 01b1 C3730000 		.4byte	.LASF632
 10309 01b5 05       		.byte	0x5
 10310 01b6 F402     		.uleb128 0x174
 10311 01b8 BD5C0000 		.4byte	.LASF633
 10312 01bc 05       		.byte	0x5
 10313 01bd FA02     		.uleb128 0x17a
 10314 01bf 55980000 		.4byte	.LASF634
 10315 01c3 05       		.byte	0x5
 10316 01c4 8003     		.uleb128 0x180
 10317 01c6 87230000 		.4byte	.LASF635
 10318 01ca 05       		.byte	0x5
 10319 01cb 8103     		.uleb128 0x181
 10320 01cd B3A60000 		.4byte	.LASF636
 10321 01d1 05       		.byte	0x5
 10322 01d2 8803     		.uleb128 0x188
 10323 01d4 4C110000 		.4byte	.LASF637
 10324 01d8 05       		.byte	0x5
 10325 01d9 8903     		.uleb128 0x189
 10326 01db 2C750000 		.4byte	.LASF638
 10327 01df 05       		.byte	0x5
 10328 01e0 9003     		.uleb128 0x190
 10329 01e2 BD4E0000 		.4byte	.LASF639
 10330 01e6 05       		.byte	0x5
 10331 01e7 9603     		.uleb128 0x196
 10332 01e9 A5A90000 		.4byte	.LASF640
 10333 01ed 05       		.byte	0x5
 10334 01ee A803     		.uleb128 0x1a8
 10335 01f0 019B0000 		.4byte	.LASF641
 10336 01f4 05       		.byte	0x5
 10337 01f5 CB03     		.uleb128 0x1cb
 10338 01f7 980D0000 		.4byte	.LASF642
 10339 01fb 05       		.byte	0x5
 10340 01fc CC03     		.uleb128 0x1cc
 10341 01fe E1610000 		.4byte	.LASF643
 10342 0202 05       		.byte	0x5
 10343 0203 D303     		.uleb128 0x1d3
 10344 0205 FC340000 		.4byte	.LASF644
 10345 0209 05       		.byte	0x5
 10346 020a D403     		.uleb128 0x1d4
 10347 020c 469C0000 		.4byte	.LASF645
 10348 0210 05       		.byte	0x5
ARM GAS  /var/folders/z0/6xlwn_996xz3mwq1cgzkbq4r0000gp/T//cc3rPjEN.s 			page 198


 10349 0211 D503     		.uleb128 0x1d5
 10350 0213 BE900000 		.4byte	.LASF646
 10351 0217 05       		.byte	0x5
 10352 0218 DC03     		.uleb128 0x1dc
 10353 021a 2CA90000 		.4byte	.LASF647
 10354 021e 05       		.byte	0x5
 10355 021f DD03     		.uleb128 0x1dd
 10356 0221 F27A0000 		.4byte	.LASF648
 10357 0225 05       		.byte	0x5
 10358 0226 E703     		.uleb128 0x1e7
 10359 0228 0E470000 		.4byte	.LASF649
 10360 022c 05       		.byte	0x5
 10361 022d FD03     		.uleb128 0x1fd
 10362 022f 81050000 		.4byte	.LASF650
 10363 0233 05       		.byte	0x5
 10364 0234 FF03     		.uleb128 0x1ff
 10365 0236 068A0000 		.4byte	.LASF651
 10366 023a 05       		.byte	0x5
 10367 023b 8104     		.uleb128 0x201
 10368 023d DC2F0000 		.4byte	.LASF652
 10369 0241 05       		.byte	0x5
 10370 0242 8204     		.uleb128 0x202
 10371 0244 AD700000 		.4byte	.LASF653
 10372 0248 05       		.byte	0x5
 10373 0249 8404     		.uleb128 0x204
 10374 024b 616B0000 		.4byte	.LASF654
 10375 024f 05       		.byte	0x5
 10376 0250 9004     		.uleb128 0x210
 10377 0252 5A210000 		.4byte	.LASF655
 10378 0256 05       		.byte	0x5
 10379 0257 9E04     		.uleb128 0x21e
 10380 0259 151B0000 		.4byte	.LASF656
 10381 025d 05       		.byte	0x5
 10382 025e A304     		.uleb128 0x223
 10383 0260 4C560000 		.4byte	.LASF657
 10384 0264 05       		.byte	0x5
 10385 0265 A804     		.uleb128 0x228
 10386 0267 3D3C0000 		.4byte	.LASF658
 10387 026b 05       		.byte	0x5
 10388 026c AB04     		.uleb128 0x22b
 10389 026e EF690000 		.4byte	.LASF659
 10390 0272 05       		.byte	0x5
 10391 0273 AF04     		.uleb128 0x22f
 10392 0275 26150000 		.4byte	.LASF660
 10393 0279 05       		.byte	0x5
 10394 027a B104     		.uleb128 0x231
 10395 027c 36400000 		.4byte	.LASF661
 10396 0280 05       		.byte	0x5
 10397 0281 D404     		.uleb128 0x254
 10398 0283 FC260000 		.4byte	.LASF662
 10399 0287 05       		.byte	0x5
 10400 0288 D804     		.uleb128 0x258
 10401 028a 405F0000 		.4byte	.LASF663
 10402 028e 05       		.byte	0x5
 10403 028f DC04     		.uleb128 0x25c
 10404 0291 D9770000 		.4byte	.LASF664
 10405 0295 05       		.byte	0x5
ARM GAS  /var/folders/z0/6xlwn_996xz3mwq1cgzkbq4r0000gp/T//cc3rPjEN.s 			page 199


 10406 0296 E004     		.uleb128 0x260
 10407 0298 FF870000 		.4byte	.LASF665
 10408 029c 05       		.byte	0x5
 10409 029d E404     		.uleb128 0x264
 10410 029f 10A10000 		.4byte	.LASF666
 10411 02a3 05       		.byte	0x5
 10412 02a4 E804     		.uleb128 0x268
 10413 02a6 1A220000 		.4byte	.LASF667
 10414 02aa 05       		.byte	0x5
 10415 02ab EC04     		.uleb128 0x26c
 10416 02ad 10730000 		.4byte	.LASF668
 10417 02b1 05       		.byte	0x5
 10418 02b2 F004     		.uleb128 0x270
 10419 02b4 721E0000 		.4byte	.LASF669
 10420 02b8 05       		.byte	0x5
 10421 02b9 8105     		.uleb128 0x281
 10422 02bb 73820000 		.4byte	.LASF670
 10423 02bf 05       		.byte	0x5
 10424 02c0 8205     		.uleb128 0x282
 10425 02c2 5A320000 		.4byte	.LASF671
 10426 02c6 05       		.byte	0x5
 10427 02c7 9405     		.uleb128 0x294
 10428 02c9 F4220000 		.4byte	.LASF672
 10429 02cd 05       		.byte	0x5
 10430 02ce 9805     		.uleb128 0x298
 10431 02d0 58680000 		.4byte	.LASF673
 10432 02d4 05       		.byte	0x5
 10433 02d5 9B05     		.uleb128 0x29b
 10434 02d7 9F990000 		.4byte	.LASF674
 10435 02db 05       		.byte	0x5
 10436 02dc 9D05     		.uleb128 0x29d
 10437 02de 3D5A0000 		.4byte	.LASF675
 10438 02e2 05       		.byte	0x5
 10439 02e3 A105     		.uleb128 0x2a1
 10440 02e5 C9AC0000 		.4byte	.LASF676
 10441 02e9 05       		.byte	0x5
 10442 02ea A305     		.uleb128 0x2a3
 10443 02ec 75740000 		.4byte	.LASF677
 10444 02f0 05       		.byte	0x5
 10445 02f1 A705     		.uleb128 0x2a7
 10446 02f3 02690000 		.4byte	.LASF678
 10447 02f7 05       		.byte	0x5
 10448 02f8 AA05     		.uleb128 0x2aa
 10449 02fa 9B340000 		.4byte	.LASF679
 10450 02fe 05       		.byte	0x5
 10451 02ff AC05     		.uleb128 0x2ac
 10452 0301 AB300000 		.4byte	.LASF680
 10453 0305 05       		.byte	0x5
 10454 0306 B005     		.uleb128 0x2b0
 10455 0308 211E0000 		.4byte	.LASF681
 10456 030c 05       		.byte	0x5
 10457 030d B205     		.uleb128 0x2b2
 10458 030f 8D8C0000 		.4byte	.LASF682
 10459 0313 05       		.byte	0x5
 10460 0314 B405     		.uleb128 0x2b4
 10461 0316 72150000 		.4byte	.LASF683
 10462 031a 05       		.byte	0x5
ARM GAS  /var/folders/z0/6xlwn_996xz3mwq1cgzkbq4r0000gp/T//cc3rPjEN.s 			page 200


 10463 031b B805     		.uleb128 0x2b8
 10464 031d 960F0000 		.4byte	.LASF684
 10465 0321 05       		.byte	0x5
 10466 0322 BB05     		.uleb128 0x2bb
 10467 0324 DA6E0000 		.4byte	.LASF685
 10468 0328 05       		.byte	0x5
 10469 0329 BC05     		.uleb128 0x2bc
 10470 032b 9F510000 		.4byte	.LASF686
 10471 032f 00       		.byte	0
 10472              		.section	.debug_macro,"G",%progbits,wm4.string.h.15.dab3980bf35408a4c507182805e2de3a,comdat
 10473              	.Ldebug_macro15:
 10474 0000 0400     		.2byte	0x4
 10475 0002 00       		.byte	0
 10476 0003 05       		.byte	0x5
 10477 0004 0F       		.uleb128 0xf
 10478 0005 B6440000 		.4byte	.LASF687
 10479 0009 05       		.byte	0x5
 10480 000a 10       		.uleb128 0x10
 10481 000b EA7E0000 		.4byte	.LASF688
 10482 000f 00       		.byte	0
 10483              		.section	.debug_macro,"G",%progbits,wm4.stddef.h.161.19e15733342b50ead2919490b095303e,comdat
 10484              	.Ldebug_macro16:
 10485 0000 0400     		.2byte	0x4
 10486 0002 00       		.byte	0
 10487 0003 06       		.byte	0x6
 10488 0004 A101     		.uleb128 0xa1
 10489 0006 8B6C0000 		.4byte	.LASF434
 10490 000a 06       		.byte	0x6
 10491 000b EE01     		.uleb128 0xee
 10492 000d 3B460000 		.4byte	.LASF452
 10493 0011 06       		.byte	0x6
 10494 0012 DB02     		.uleb128 0x15b
 10495 0014 12820000 		.4byte	.LASF469
 10496 0018 06       		.byte	0x6
 10497 0019 9103     		.uleb128 0x191
 10498 001b D9410000 		.4byte	.LASF470
 10499 001f 05       		.byte	0x5
 10500 0020 9603     		.uleb128 0x196
 10501 0022 91450000 		.4byte	.LASF471
 10502 0026 06       		.byte	0x6
 10503 0027 9C03     		.uleb128 0x19c
 10504 0029 5E5C0000 		.4byte	.LASF472
 10505 002d 05       		.byte	0x5
 10506 002e A103     		.uleb128 0x1a1
 10507 0030 53730000 		.4byte	.LASF473
 10508 0034 00       		.byte	0
 10509              		.section	.debug_macro,"G",%progbits,wm4.stdlib.h.13.4ed386f5c1a80d71e72172885d946ef2,comdat
 10510              	.Ldebug_macro17:
 10511 0000 0400     		.2byte	0x4
 10512 0002 00       		.byte	0
 10513 0003 05       		.byte	0x5
 10514 0004 0D       		.uleb128 0xd
 10515 0005 B6440000 		.4byte	.LASF687
 10516 0009 05       		.byte	0x5
 10517 000a 0E       		.uleb128 0xe
 10518 000b CC8E0000 		.4byte	.LASF691
 10519 000f 05       		.byte	0x5
ARM GAS  /var/folders/z0/6xlwn_996xz3mwq1cgzkbq4r0000gp/T//cc3rPjEN.s 			page 201


 10520 0010 0F       		.uleb128 0xf
 10521 0011 EA7E0000 		.4byte	.LASF688
 10522 0015 00       		.byte	0
 10523              		.section	.debug_macro,"G",%progbits,wm4.alloca.h.8.dfc0c703c47ec3e69746825b17d9e66d,comdat
 10524              	.Ldebug_macro18:
 10525 0000 0400     		.2byte	0x4
 10526 0002 00       		.byte	0
 10527 0003 05       		.byte	0x5
 10528 0004 08       		.uleb128 0x8
 10529 0005 F75D0000 		.4byte	.LASF693
 10530 0009 06       		.byte	0x6
 10531 000a 0D       		.uleb128 0xd
 10532 000b 20010000 		.4byte	.LASF694
 10533 000f 05       		.byte	0x5
 10534 0010 10       		.uleb128 0x10
 10535 0011 CE4A0000 		.4byte	.LASF695
 10536 0015 00       		.byte	0
 10537              		.section	.debug_macro,"G",%progbits,wm4.stdlib.h.56.f7bb76d8eb43fb7e79a949819dbf4bda,comdat
 10538              	.Ldebug_macro19:
 10539 0000 0400     		.2byte	0x4
 10540 0002 00       		.byte	0
 10541 0003 05       		.byte	0x5
 10542 0004 38       		.uleb128 0x38
 10543 0005 156E0000 		.4byte	.LASF696
 10544 0009 05       		.byte	0x5
 10545 000a 3C       		.uleb128 0x3c
 10546 000b 3CA10000 		.4byte	.LASF697
 10547 000f 05       		.byte	0x5
 10548 0010 3D       		.uleb128 0x3d
 10549 0011 1E700000 		.4byte	.LASF698
 10550 0015 05       		.byte	0x5
 10551 0016 3F       		.uleb128 0x3f
 10552 0017 2F7A0000 		.4byte	.LASF699
 10553 001b 05       		.byte	0x5
 10554 001c 43       		.uleb128 0x43
 10555 001d 76530000 		.4byte	.LASF700
 10556 0021 05       		.byte	0x5
 10557 0022 A301     		.uleb128 0xa3
 10558 0024 34960000 		.4byte	.LASF701
 10559 0028 00       		.byte	0
 10560              		.section	.debug_macro,"G",%progbits,wm4.stdbool.h.29.07dce69c3b78884144b7f7bd19483461,comdat
 10561              	.Ldebug_macro20:
 10562 0000 0400     		.2byte	0x4
 10563 0002 00       		.byte	0
 10564 0003 05       		.byte	0x5
 10565 0004 1D       		.uleb128 0x1d
 10566 0005 E7090000 		.4byte	.LASF703
 10567 0009 05       		.byte	0x5
 10568 000a 21       		.uleb128 0x21
 10569 000b C89E0000 		.4byte	.LASF704
 10570 000f 05       		.byte	0x5
 10571 0010 22       		.uleb128 0x22
 10572 0011 9D810000 		.4byte	.LASF705
 10573 0015 05       		.byte	0x5
 10574 0016 23       		.uleb128 0x23
 10575 0017 BF1B0000 		.4byte	.LASF706
 10576 001b 05       		.byte	0x5
ARM GAS  /var/folders/z0/6xlwn_996xz3mwq1cgzkbq4r0000gp/T//cc3rPjEN.s 			page 202


 10577 001c 34       		.uleb128 0x34
 10578 001d 577E0000 		.4byte	.LASF707
 10579 0021 00       		.byte	0
 10580              		.section	.debug_macro,"G",%progbits,wm4._intsup.h.10.b82bf99f69d6a5c085fc866de0d3eb9b,comdat
 10581              	.Ldebug_macro21:
 10582 0000 0400     		.2byte	0x4
 10583 0002 00       		.byte	0
 10584 0003 05       		.byte	0x5
 10585 0004 0A       		.uleb128 0xa
 10586 0005 FA020000 		.4byte	.LASF709
 10587 0009 05       		.byte	0x5
 10588 000a 10       		.uleb128 0x10
 10589 000b 28870000 		.4byte	.LASF710
 10590 000f 05       		.byte	0x5
 10591 0010 1A       		.uleb128 0x1a
 10592 0011 AD040000 		.4byte	.LASF711
 10593 0015 05       		.byte	0x5
 10594 0016 21       		.uleb128 0x21
 10595 0017 0E960000 		.4byte	.LASF712
 10596 001b 06       		.byte	0x6
 10597 001c 38       		.uleb128 0x38
 10598 001d F5260000 		.4byte	.LASF713
 10599 0021 06       		.byte	0x6
 10600 0022 39       		.uleb128 0x39
 10601 0023 CF6B0000 		.4byte	.LASF502
 10602 0027 06       		.byte	0x6
 10603 0028 3A       		.uleb128 0x3a
 10604 0029 98790000 		.4byte	.LASF714
 10605 002d 06       		.byte	0x6
 10606 002e 3B       		.uleb128 0x3b
 10607 002f 49140000 		.4byte	.LASF715
 10608 0033 02       		.byte	0x2
 10609 0034 3C       		.uleb128 0x3c
 10610 0035 696E7400 		.ascii	"int\000"
 10611 0039 06       		.byte	0x6
 10612 003a 3D       		.uleb128 0x3d
 10613 003b 2C3D0000 		.4byte	.LASF716
 10614 003f 06       		.byte	0x6
 10615 0040 3E       		.uleb128 0x3e
 10616 0041 4BA10000 		.4byte	.LASF717
 10617 0045 05       		.byte	0x5
 10618 0046 3F       		.uleb128 0x3f
 10619 0047 71480000 		.4byte	.LASF718
 10620 004b 05       		.byte	0x5
 10621 004c 40       		.uleb128 0x40
 10622 004d 180D0000 		.4byte	.LASF719
 10623 0051 05       		.byte	0x5
 10624 0052 41       		.uleb128 0x41
 10625 0053 B69B0000 		.4byte	.LASF720
 10626 0057 05       		.byte	0x5
 10627 0058 42       		.uleb128 0x42
 10628 0059 D2660000 		.4byte	.LASF721
 10629 005d 05       		.byte	0x5
 10630 005e 43       		.uleb128 0x43
 10631 005f E4240000 		.4byte	.LASF722
 10632 0063 05       		.byte	0x5
 10633 0064 44       		.uleb128 0x44
ARM GAS  /var/folders/z0/6xlwn_996xz3mwq1cgzkbq4r0000gp/T//cc3rPjEN.s 			page 203


 10634 0065 28380000 		.4byte	.LASF723
 10635 0069 05       		.byte	0x5
 10636 006a 45       		.uleb128 0x45
 10637 006b 4B890000 		.4byte	.LASF724
 10638 006f 05       		.byte	0x5
 10639 0070 4E       		.uleb128 0x4e
 10640 0071 7C800000 		.4byte	.LASF725
 10641 0075 05       		.byte	0x5
 10642 0076 55       		.uleb128 0x55
 10643 0077 2D800000 		.4byte	.LASF726
 10644 007b 05       		.byte	0x5
 10645 007c 5D       		.uleb128 0x5d
 10646 007d E8430000 		.4byte	.LASF727
 10647 0081 05       		.byte	0x5
 10648 0082 68       		.uleb128 0x68
 10649 0083 FF860000 		.4byte	.LASF728
 10650 0087 05       		.byte	0x5
 10651 0088 73       		.uleb128 0x73
 10652 0089 92AC0000 		.4byte	.LASF729
 10653 008d 05       		.byte	0x5
 10654 008e 7C       		.uleb128 0x7c
 10655 008f 56080000 		.4byte	.LASF730
 10656 0093 05       		.byte	0x5
 10657 0094 8301     		.uleb128 0x83
 10658 0096 3A2D0000 		.4byte	.LASF731
 10659 009a 05       		.byte	0x5
 10660 009b 8C01     		.uleb128 0x8c
 10661 009d BF9C0000 		.4byte	.LASF732
 10662 00a1 05       		.byte	0x5
 10663 00a2 9301     		.uleb128 0x93
 10664 00a4 07540000 		.4byte	.LASF733
 10665 00a8 05       		.byte	0x5
 10666 00a9 9E01     		.uleb128 0x9e
 10667 00ab D67D0000 		.4byte	.LASF734
 10668 00af 05       		.byte	0x5
 10669 00b0 A201     		.uleb128 0xa2
 10670 00b2 9F700000 		.4byte	.LASF735
 10671 00b6 05       		.byte	0x5
 10672 00b7 AD01     		.uleb128 0xad
 10673 00b9 BA020000 		.4byte	.LASF736
 10674 00bd 05       		.byte	0x5
 10675 00be B801     		.uleb128 0xb8
 10676 00c0 802A0000 		.4byte	.LASF737
 10677 00c4 05       		.byte	0x5
 10678 00c5 C101     		.uleb128 0xc1
 10679 00c7 ECA10000 		.4byte	.LASF738
 10680 00cb 06       		.byte	0x6
 10681 00cc C301     		.uleb128 0xc3
 10682 00ce F5260000 		.4byte	.LASF713
 10683 00d2 06       		.byte	0x6
 10684 00d3 C401     		.uleb128 0xc4
 10685 00d5 CF6B0000 		.4byte	.LASF502
 10686 00d9 06       		.byte	0x6
 10687 00da C501     		.uleb128 0xc5
 10688 00dc 98790000 		.4byte	.LASF714
 10689 00e0 06       		.byte	0x6
 10690 00e1 C601     		.uleb128 0xc6
ARM GAS  /var/folders/z0/6xlwn_996xz3mwq1cgzkbq4r0000gp/T//cc3rPjEN.s 			page 204


 10691 00e3 49140000 		.4byte	.LASF715
 10692 00e7 02       		.byte	0x2
 10693 00e8 C701     		.uleb128 0xc7
 10694 00ea 696E7400 		.ascii	"int\000"
 10695 00ee 06       		.byte	0x6
 10696 00ef C801     		.uleb128 0xc8
 10697 00f1 4BA10000 		.4byte	.LASF717
 10698 00f5 06       		.byte	0x6
 10699 00f6 CD01     		.uleb128 0xcd
 10700 00f8 2C3D0000 		.4byte	.LASF716
 10701 00fc 00       		.byte	0
 10702              		.section	.debug_macro,"G",%progbits,wm4._stdint.h.10.7a5f60e6741af4a5594a3867d347e1f9,comdat
 10703              	.Ldebug_macro22:
 10704 0000 0400     		.2byte	0x4
 10705 0002 00       		.byte	0
 10706 0003 05       		.byte	0x5
 10707 0004 0A       		.uleb128 0xa
 10708 0005 BE870000 		.4byte	.LASF739
 10709 0009 05       		.byte	0x5
 10710 000a 15       		.uleb128 0x15
 10711 000b 59A90000 		.4byte	.LASF740
 10712 000f 05       		.byte	0x5
 10713 0010 19       		.uleb128 0x19
 10714 0011 16270000 		.4byte	.LASF741
 10715 0015 05       		.byte	0x5
 10716 0016 1B       		.uleb128 0x1b
 10717 0017 BE3A0000 		.4byte	.LASF742
 10718 001b 05       		.byte	0x5
 10719 001c 21       		.uleb128 0x21
 10720 001d D9880000 		.4byte	.LASF743
 10721 0021 05       		.byte	0x5
 10722 0022 25       		.uleb128 0x25
 10723 0023 47360000 		.4byte	.LASF744
 10724 0027 05       		.byte	0x5
 10725 0028 27       		.uleb128 0x27
 10726 0029 D5490000 		.4byte	.LASF745
 10727 002d 05       		.byte	0x5
 10728 002e 2D       		.uleb128 0x2d
 10729 002f 4D3B0000 		.4byte	.LASF746
 10730 0033 05       		.byte	0x5
 10731 0034 31       		.uleb128 0x31
 10732 0035 D69B0000 		.4byte	.LASF747
 10733 0039 05       		.byte	0x5
 10734 003a 33       		.uleb128 0x33
 10735 003b 73AD0000 		.4byte	.LASF748
 10736 003f 05       		.byte	0x5
 10737 0040 39       		.uleb128 0x39
 10738 0041 68AA0000 		.4byte	.LASF749
 10739 0045 05       		.byte	0x5
 10740 0046 3D       		.uleb128 0x3d
 10741 0047 183D0000 		.4byte	.LASF750
 10742 004b 05       		.byte	0x5
 10743 004c 3F       		.uleb128 0x3f
 10744 004d 7B500000 		.4byte	.LASF751
 10745 0051 05       		.byte	0x5
 10746 0052 44       		.uleb128 0x44
 10747 0053 9B7F0000 		.4byte	.LASF752
ARM GAS  /var/folders/z0/6xlwn_996xz3mwq1cgzkbq4r0000gp/T//cc3rPjEN.s 			page 205


 10748 0057 05       		.byte	0x5
 10749 0058 49       		.uleb128 0x49
 10750 0059 9B500000 		.4byte	.LASF753
 10751 005d 00       		.byte	0
 10752              		.section	.debug_macro,"G",%progbits,wm4.stdint.h.23.373a9d32a9e4c2e88fd347156532d281,comdat
 10753              	.Ldebug_macro23:
 10754 0000 0400     		.2byte	0x4
 10755 0002 00       		.byte	0
 10756 0003 05       		.byte	0x5
 10757 0004 17       		.uleb128 0x17
 10758 0005 61600000 		.4byte	.LASF754
 10759 0009 05       		.byte	0x5
 10760 000a 1D       		.uleb128 0x1d
 10761 000b 31B00000 		.4byte	.LASF755
 10762 000f 05       		.byte	0x5
 10763 0010 23       		.uleb128 0x23
 10764 0011 75310000 		.4byte	.LASF756
 10765 0015 05       		.byte	0x5
 10766 0016 29       		.uleb128 0x29
 10767 0017 E0850000 		.4byte	.LASF757
 10768 001b 05       		.byte	0x5
 10769 001c 35       		.uleb128 0x35
 10770 001d 133C0000 		.4byte	.LASF758
 10771 0021 05       		.byte	0x5
 10772 0022 3F       		.uleb128 0x3f
 10773 0023 833D0000 		.4byte	.LASF759
 10774 0027 05       		.byte	0x5
 10775 0028 49       		.uleb128 0x49
 10776 0029 EC400000 		.4byte	.LASF760
 10777 002d 05       		.byte	0x5
 10778 002e 53       		.uleb128 0x53
 10779 002f 59930000 		.4byte	.LASF761
 10780 0033 05       		.byte	0x5
 10781 0034 9301     		.uleb128 0x93
 10782 0036 EB910000 		.4byte	.LASF762
 10783 003a 05       		.byte	0x5
 10784 003b 9401     		.uleb128 0x94
 10785 003d F4720000 		.4byte	.LASF763
 10786 0041 05       		.byte	0x5
 10787 0042 9501     		.uleb128 0x95
 10788 0044 294D0000 		.4byte	.LASF764
 10789 0048 05       		.byte	0x5
 10790 0049 AB01     		.uleb128 0xab
 10791 004b B1760000 		.4byte	.LASF765
 10792 004f 05       		.byte	0x5
 10793 0050 AC01     		.uleb128 0xac
 10794 0052 557D0000 		.4byte	.LASF766
 10795 0056 05       		.byte	0x5
 10796 0057 AD01     		.uleb128 0xad
 10797 0059 296D0000 		.4byte	.LASF767
 10798 005d 05       		.byte	0x5
 10799 005e B501     		.uleb128 0xb5
 10800 0060 517F0000 		.4byte	.LASF768
 10801 0064 05       		.byte	0x5
 10802 0065 B601     		.uleb128 0xb6
 10803 0067 B54D0000 		.4byte	.LASF769
 10804 006b 05       		.byte	0x5
ARM GAS  /var/folders/z0/6xlwn_996xz3mwq1cgzkbq4r0000gp/T//cc3rPjEN.s 			page 206


 10805 006c B701     		.uleb128 0xb7
 10806 006e 7E160000 		.4byte	.LASF770
 10807 0072 05       		.byte	0x5
 10808 0073 C101     		.uleb128 0xc1
 10809 0075 B7270000 		.4byte	.LASF771
 10810 0079 05       		.byte	0x5
 10811 007a C201     		.uleb128 0xc2
 10812 007c 0F530000 		.4byte	.LASF772
 10813 0080 05       		.byte	0x5
 10814 0081 C301     		.uleb128 0xc3
 10815 0083 D71D0000 		.4byte	.LASF773
 10816 0087 05       		.byte	0x5
 10817 0088 CB01     		.uleb128 0xcb
 10818 008a 44290000 		.4byte	.LASF774
 10819 008e 05       		.byte	0x5
 10820 008f CC01     		.uleb128 0xcc
 10821 0091 D5A20000 		.4byte	.LASF775
 10822 0095 05       		.byte	0x5
 10823 0096 CD01     		.uleb128 0xcd
 10824 0098 1C7D0000 		.4byte	.LASF776
 10825 009c 05       		.byte	0x5
 10826 009d D701     		.uleb128 0xd7
 10827 009f DA460000 		.4byte	.LASF777
 10828 00a3 05       		.byte	0x5
 10829 00a4 D801     		.uleb128 0xd8
 10830 00a6 6BB00000 		.4byte	.LASF778
 10831 00aa 05       		.byte	0x5
 10832 00ab D901     		.uleb128 0xd9
 10833 00ad BF810000 		.4byte	.LASF779
 10834 00b1 05       		.byte	0x5
 10835 00b2 E701     		.uleb128 0xe7
 10836 00b4 9A060000 		.4byte	.LASF780
 10837 00b8 05       		.byte	0x5
 10838 00b9 E801     		.uleb128 0xe8
 10839 00bb 85100000 		.4byte	.LASF781
 10840 00bf 05       		.byte	0x5
 10841 00c0 E901     		.uleb128 0xe9
 10842 00c2 C9170000 		.4byte	.LASF782
 10843 00c6 05       		.byte	0x5
 10844 00c7 F901     		.uleb128 0xf9
 10845 00c9 BC160000 		.4byte	.LASF783
 10846 00cd 05       		.byte	0x5
 10847 00ce FA01     		.uleb128 0xfa
 10848 00d0 4A1F0000 		.4byte	.LASF784
 10849 00d4 05       		.byte	0x5
 10850 00d5 FB01     		.uleb128 0xfb
 10851 00d7 9D550000 		.4byte	.LASF785
 10852 00db 05       		.byte	0x5
 10853 00dc 8902     		.uleb128 0x109
 10854 00de C99C0000 		.4byte	.LASF786
 10855 00e2 05       		.byte	0x5
 10856 00e3 8A02     		.uleb128 0x10a
 10857 00e5 2E250000 		.4byte	.LASF787
 10858 00e9 05       		.byte	0x5
 10859 00ea 8B02     		.uleb128 0x10b
 10860 00ec F6800000 		.4byte	.LASF788
 10861 00f0 05       		.byte	0x5
ARM GAS  /var/folders/z0/6xlwn_996xz3mwq1cgzkbq4r0000gp/T//cc3rPjEN.s 			page 207


 10862 00f1 9902     		.uleb128 0x119
 10863 00f3 953C0000 		.4byte	.LASF789
 10864 00f7 05       		.byte	0x5
 10865 00f8 9A02     		.uleb128 0x11a
 10866 00fa 9C3B0000 		.4byte	.LASF790
 10867 00fe 05       		.byte	0x5
 10868 00ff 9B02     		.uleb128 0x11b
 10869 0101 219E0000 		.4byte	.LASF791
 10870 0105 05       		.byte	0x5
 10871 0106 A902     		.uleb128 0x129
 10872 0108 77590000 		.4byte	.LASF792
 10873 010c 05       		.byte	0x5
 10874 010d AA02     		.uleb128 0x12a
 10875 010f 2F230000 		.4byte	.LASF793
 10876 0113 05       		.byte	0x5
 10877 0114 AB02     		.uleb128 0x12b
 10878 0116 88660000 		.4byte	.LASF794
 10879 011a 05       		.byte	0x5
 10880 011b B902     		.uleb128 0x139
 10881 011d FD0F0000 		.4byte	.LASF795
 10882 0121 05       		.byte	0x5
 10883 0122 BA02     		.uleb128 0x13a
 10884 0124 7BAA0000 		.4byte	.LASF796
 10885 0128 05       		.byte	0x5
 10886 0129 BB02     		.uleb128 0x13b
 10887 012b D5790000 		.4byte	.LASF797
 10888 012f 05       		.byte	0x5
 10889 0130 C902     		.uleb128 0x149
 10890 0132 570D0000 		.4byte	.LASF798
 10891 0136 05       		.byte	0x5
 10892 0137 CA02     		.uleb128 0x14a
 10893 0139 75430000 		.4byte	.LASF799
 10894 013d 05       		.byte	0x5
 10895 013e CB02     		.uleb128 0x14b
 10896 0140 E58E0000 		.4byte	.LASF800
 10897 0144 05       		.byte	0x5
 10898 0145 D902     		.uleb128 0x159
 10899 0147 1D050000 		.4byte	.LASF801
 10900 014b 05       		.byte	0x5
 10901 014c DA02     		.uleb128 0x15a
 10902 014e 68100000 		.4byte	.LASF802
 10903 0152 05       		.byte	0x5
 10904 0153 E202     		.uleb128 0x162
 10905 0155 D8A80000 		.4byte	.LASF803
 10906 0159 05       		.byte	0x5
 10907 015a EA02     		.uleb128 0x16a
 10908 015c A9890000 		.4byte	.LASF804
 10909 0160 05       		.byte	0x5
 10910 0161 F002     		.uleb128 0x170
 10911 0163 22950000 		.4byte	.LASF805
 10912 0167 05       		.byte	0x5
 10913 0168 F102     		.uleb128 0x171
 10914 016a 4B9D0000 		.4byte	.LASF806
 10915 016e 05       		.byte	0x5
 10916 016f F502     		.uleb128 0x175
 10917 0171 9A850000 		.4byte	.LASF807
 10918 0175 05       		.byte	0x5
ARM GAS  /var/folders/z0/6xlwn_996xz3mwq1cgzkbq4r0000gp/T//cc3rPjEN.s 			page 208


 10919 0176 F902     		.uleb128 0x179
 10920 0178 5C450000 		.4byte	.LASF808
 10921 017c 05       		.byte	0x5
 10922 017d FE02     		.uleb128 0x17e
 10923 017f C6AB0000 		.4byte	.LASF809
 10924 0183 05       		.byte	0x5
 10925 0184 8903     		.uleb128 0x189
 10926 0186 26030000 		.4byte	.LASF810
 10927 018a 05       		.byte	0x5
 10928 018b 9303     		.uleb128 0x193
 10929 018d E4AF0000 		.4byte	.LASF811
 10930 0191 05       		.byte	0x5
 10931 0192 9803     		.uleb128 0x198
 10932 0194 DB660000 		.4byte	.LASF812
 10933 0198 05       		.byte	0x5
 10934 0199 9F03     		.uleb128 0x19f
 10935 019b AD730000 		.4byte	.LASF813
 10936 019f 05       		.byte	0x5
 10937 01a0 A003     		.uleb128 0x1a0
 10938 01a2 79A80000 		.4byte	.LASF814
 10939 01a6 05       		.byte	0x5
 10940 01a7 AB03     		.uleb128 0x1ab
 10941 01a9 23310000 		.4byte	.LASF815
 10942 01ad 05       		.byte	0x5
 10943 01ae AC03     		.uleb128 0x1ac
 10944 01b0 035C0000 		.4byte	.LASF816
 10945 01b4 05       		.byte	0x5
 10946 01b5 B703     		.uleb128 0x1b7
 10947 01b7 BA070000 		.4byte	.LASF817
 10948 01bb 05       		.byte	0x5
 10949 01bc B803     		.uleb128 0x1b8
 10950 01be 5E570000 		.4byte	.LASF818
 10951 01c2 05       		.byte	0x5
 10952 01c3 C403     		.uleb128 0x1c4
 10953 01c5 D5080000 		.4byte	.LASF819
 10954 01c9 05       		.byte	0x5
 10955 01ca C503     		.uleb128 0x1c5
 10956 01cc EA760000 		.4byte	.LASF820
 10957 01d0 05       		.byte	0x5
 10958 01d1 D403     		.uleb128 0x1d4
 10959 01d3 596E0000 		.4byte	.LASF821
 10960 01d7 05       		.byte	0x5
 10961 01d8 D503     		.uleb128 0x1d5
 10962 01da 0B6B0000 		.4byte	.LASF822
 10963 01de 00       		.byte	0
 10964              		.section	.debug_macro,"G",%progbits,wm4.microrl_config.h.6.70661e8aebc9ea06396eb640138e525a,comdat
 10965              	.Ldebug_macro24:
 10966 0000 0400     		.2byte	0x4
 10967 0002 00       		.byte	0
 10968 0003 05       		.byte	0x5
 10969 0004 06       		.uleb128 0x6
 10970 0005 D29D0000 		.4byte	.LASF824
 10971 0009 05       		.byte	0x5
 10972 000a 08       		.uleb128 0x8
 10973 000b 33490000 		.4byte	.LASF825
 10974 000f 05       		.byte	0x5
 10975 0010 10       		.uleb128 0x10
ARM GAS  /var/folders/z0/6xlwn_996xz3mwq1cgzkbq4r0000gp/T//cc3rPjEN.s 			page 209


 10976 0011 40340000 		.4byte	.LASF826
 10977 0015 05       		.byte	0x5
 10978 0016 18       		.uleb128 0x18
 10979 0017 6B300000 		.4byte	.LASF827
 10980 001b 05       		.byte	0x5
 10981 001c 1F       		.uleb128 0x1f
 10982 001d D1A50000 		.4byte	.LASF828
 10983 0021 05       		.byte	0x5
 10984 0022 24       		.uleb128 0x24
 10985 0023 31300000 		.4byte	.LASF829
 10986 0027 05       		.byte	0x5
 10987 0028 2F       		.uleb128 0x2f
 10988 0029 0F5B0000 		.4byte	.LASF830
 10989 002d 05       		.byte	0x5
 10990 002e 37       		.uleb128 0x37
 10991 002f DD250000 		.4byte	.LASF831
 10992 0033 06       		.byte	0x6
 10993 0034 3C       		.uleb128 0x3c
 10994 0035 3C780000 		.4byte	.LASF832
 10995 0039 05       		.byte	0x5
 10996 003a 4F       		.uleb128 0x4f
 10997 003b 017E0000 		.4byte	.LASF833
 10998 003f 05       		.byte	0x5
 10999 0040 53       		.uleb128 0x53
 11000 0041 3DAB0000 		.4byte	.LASF834
 11001 0045 05       		.byte	0x5
 11002 0046 5A       		.uleb128 0x5a
 11003 0047 B21C0000 		.4byte	.LASF835
 11004 004b 00       		.byte	0
 11005              		.section	.debug_macro,"G",%progbits,wm4.microrl.h.9.b0be5a31302c3975bc49057dcebb5e35,comdat
 11006              	.Ldebug_macro25:
 11007 0000 0400     		.2byte	0x4
 11008 0002 00       		.byte	0
 11009 0003 05       		.byte	0x5
 11010 0004 09       		.uleb128 0x9
 11011 0005 62AE0000 		.4byte	.LASF836
 11012 0009 05       		.byte	0x5
 11013 000a 0A       		.uleb128 0xa
 11014 000b 81300000 		.4byte	.LASF837
 11015 000f 05       		.byte	0x5
 11016 0010 0B       		.uleb128 0xb
 11017 0011 AE290000 		.4byte	.LASF838
 11018 0015 05       		.byte	0x5
 11019 0016 0C       		.uleb128 0xc
 11020 0017 F0960000 		.4byte	.LASF839
 11021 001b 05       		.byte	0x5
 11022 001c 0D       		.uleb128 0xd
 11023 001d 91080000 		.4byte	.LASF840
 11024 0021 05       		.byte	0x5
 11025 0022 0E       		.uleb128 0xe
 11026 0023 45310000 		.4byte	.LASF841
 11027 0027 05       		.byte	0x5
 11028 0028 0F       		.uleb128 0xf
 11029 0029 563D0000 		.4byte	.LASF842
 11030 002d 05       		.byte	0x5
 11031 002e 10       		.uleb128 0x10
 11032 002f 6A5C0000 		.4byte	.LASF843
ARM GAS  /var/folders/z0/6xlwn_996xz3mwq1cgzkbq4r0000gp/T//cc3rPjEN.s 			page 210


 11033 0033 05       		.byte	0x5
 11034 0034 11       		.uleb128 0x11
 11035 0035 93020000 		.4byte	.LASF844
 11036 0039 05       		.byte	0x5
 11037 003a 12       		.uleb128 0x12
 11038 003b 17010000 		.4byte	.LASF845
 11039 003f 05       		.byte	0x5
 11040 0040 13       		.uleb128 0x13
 11041 0041 75550000 		.4byte	.LASF846
 11042 0045 05       		.byte	0x5
 11043 0046 14       		.uleb128 0x14
 11044 0047 0C060000 		.4byte	.LASF847
 11045 004b 05       		.byte	0x5
 11046 004c 15       		.uleb128 0x15
 11047 004d B82F0000 		.4byte	.LASF848
 11048 0051 05       		.byte	0x5
 11049 0052 16       		.uleb128 0x16
 11050 0053 DF140000 		.4byte	.LASF849
 11051 0057 05       		.byte	0x5
 11052 0058 17       		.uleb128 0x17
 11053 0059 AD790000 		.4byte	.LASF850
 11054 005d 05       		.byte	0x5
 11055 005e 18       		.uleb128 0x18
 11056 005f 008C0000 		.4byte	.LASF851
 11057 0063 05       		.byte	0x5
 11058 0064 19       		.uleb128 0x19
 11059 0065 6B6D0000 		.4byte	.LASF852
 11060 0069 05       		.byte	0x5
 11061 006a 1A       		.uleb128 0x1a
 11062 006b 191A0000 		.4byte	.LASF853
 11063 006f 05       		.byte	0x5
 11064 0070 1B       		.uleb128 0x1b
 11065 0071 13700000 		.4byte	.LASF854
 11066 0075 05       		.byte	0x5
 11067 0076 1C       		.uleb128 0x1c
 11068 0077 6D140000 		.4byte	.LASF855
 11069 007b 05       		.byte	0x5
 11070 007c 1D       		.uleb128 0x1d
 11071 007d E06C0000 		.4byte	.LASF856
 11072 0081 05       		.byte	0x5
 11073 0082 1E       		.uleb128 0x1e
 11074 0083 E47D0000 		.4byte	.LASF857
 11075 0087 05       		.byte	0x5
 11076 0088 1F       		.uleb128 0x1f
 11077 0089 46010000 		.4byte	.LASF858
 11078 008d 05       		.byte	0x5
 11079 008e 20       		.uleb128 0x20
 11080 008f C46B0000 		.4byte	.LASF859
 11081 0093 05       		.byte	0x5
 11082 0094 21       		.uleb128 0x21
 11083 0095 F9600000 		.4byte	.LASF860
 11084 0099 05       		.byte	0x5
 11085 009a 22       		.uleb128 0x22
 11086 009b 793D0000 		.4byte	.LASF861
 11087 009f 05       		.byte	0x5
 11088 00a0 23       		.uleb128 0x23
 11089 00a1 E0AB0000 		.4byte	.LASF862
ARM GAS  /var/folders/z0/6xlwn_996xz3mwq1cgzkbq4r0000gp/T//cc3rPjEN.s 			page 211


 11090 00a5 05       		.byte	0x5
 11091 00a6 24       		.uleb128 0x24
 11092 00a7 C6310000 		.4byte	.LASF863
 11093 00ab 05       		.byte	0x5
 11094 00ac 25       		.uleb128 0x25
 11095 00ad 41890000 		.4byte	.LASF864
 11096 00b1 05       		.byte	0x5
 11097 00b2 26       		.uleb128 0x26
 11098 00b3 F79A0000 		.4byte	.LASF865
 11099 00b7 05       		.byte	0x5
 11100 00b8 27       		.uleb128 0x27
 11101 00b9 D13A0000 		.4byte	.LASF866
 11102 00bd 05       		.byte	0x5
 11103 00be 28       		.uleb128 0x28
 11104 00bf F2340000 		.4byte	.LASF867
 11105 00c3 05       		.byte	0x5
 11106 00c4 2A       		.uleb128 0x2a
 11107 00c5 151F0000 		.4byte	.LASF868
 11108 00c9 05       		.byte	0x5
 11109 00ca 2C       		.uleb128 0x2c
 11110 00cb 75AC0000 		.4byte	.LASF869
 11111 00cf 05       		.byte	0x5
 11112 00d0 2F       		.uleb128 0x2f
 11113 00d1 B8610000 		.4byte	.LASF870
 11114 00d5 05       		.byte	0x5
 11115 00d6 30       		.uleb128 0x30
 11116 00d7 45AD0000 		.4byte	.LASF871
 11117 00db 05       		.byte	0x5
 11118 00dc 32       		.uleb128 0x32
 11119 00dd A0130000 		.4byte	.LASF872
 11120 00e1 05       		.byte	0x5
 11121 00e2 33       		.uleb128 0x33
 11122 00e3 7E610000 		.4byte	.LASF873
 11123 00e7 05       		.byte	0x5
 11124 00e8 34       		.uleb128 0x34
 11125 00e9 FE2E0000 		.4byte	.LASF874
 11126 00ed 00       		.byte	0
 11127              		.section	.debug_macro,"G",%progbits,wm4.console_types.h.2.a02fae73893c1ee5db633236ffaa1ebf,comdat
 11128              	.Ldebug_macro26:
 11129 0000 0400     		.2byte	0x4
 11130 0002 00       		.byte	0
 11131 0003 05       		.byte	0x5
 11132 0004 02       		.uleb128 0x2
 11133 0005 3C2C0000 		.4byte	.LASF876
 11134 0009 05       		.byte	0x5
 11135 000a 1F       		.uleb128 0x1f
 11136 000b BC530000 		.4byte	.LASF877
 11137 000f 00       		.byte	0
 11138              		.section	.debug_macro,"G",%progbits,wm4.lpc_types.h.33.09204c429b0b339113f4a0f79041fbe5,comdat
 11139              	.Ldebug_macro27:
 11140 0000 0400     		.2byte	0x4
 11141 0002 00       		.byte	0
 11142 0003 05       		.byte	0x5
 11143 0004 21       		.uleb128 0x21
 11144 0005 72690000 		.4byte	.LASF881
 11145 0009 05       		.byte	0x5
 11146 000a 3F       		.uleb128 0x3f
ARM GAS  /var/folders/z0/6xlwn_996xz3mwq1cgzkbq4r0000gp/T//cc3rPjEN.s 			page 212


 11147 000b 18850000 		.4byte	.LASF882
 11148 000f 05       		.byte	0x5
 11149 0010 45       		.uleb128 0x45
 11150 0011 C72B0000 		.4byte	.LASF883
 11151 0015 06       		.byte	0x6
 11152 0016 66       		.uleb128 0x66
 11153 0017 BA780000 		.4byte	.LASF884
 11154 001b 05       		.byte	0x5
 11155 001c 68       		.uleb128 0x68
 11156 001d 82670000 		.4byte	.LASF885
 11157 0021 06       		.byte	0x6
 11158 0022 6E       		.uleb128 0x6e
 11159 0023 0E240000 		.4byte	.LASF886
 11160 0027 05       		.byte	0x5
 11161 0028 70       		.uleb128 0x70
 11162 0029 0C6C0000 		.4byte	.LASF887
 11163 002d 06       		.byte	0x6
 11164 002e 7F       		.uleb128 0x7f
 11165 002f 6D7D0000 		.4byte	.LASF888
 11166 0033 05       		.byte	0x5
 11167 0034 8101     		.uleb128 0x81
 11168 0036 87A40000 		.4byte	.LASF889
 11169 003a 05       		.byte	0x5
 11170 003b 8901     		.uleb128 0x89
 11171 003d EB5F0000 		.4byte	.LASF890
 11172 0041 05       		.byte	0x5
 11173 0042 8C01     		.uleb128 0x8c
 11174 0044 B56D0000 		.4byte	.LASF891
 11175 0048 05       		.byte	0x5
 11176 0049 8E01     		.uleb128 0x8e
 11177 004b 630F0000 		.4byte	.LASF892
 11178 004f 05       		.byte	0x5
 11179 0050 9101     		.uleb128 0x91
 11180 0052 B16F0000 		.4byte	.LASF893
 11181 0056 05       		.byte	0x5
 11182 0057 9401     		.uleb128 0x94
 11183 0059 766D0000 		.4byte	.LASF894
 11184 005d 05       		.byte	0x5
 11185 005e 9701     		.uleb128 0x97
 11186 0060 52AC0000 		.4byte	.LASF895
 11187 0064 05       		.byte	0x5
 11188 0065 D001     		.uleb128 0xd0
 11189 0067 39360000 		.4byte	.LASF896
 11190 006b 00       		.byte	0
 11191              		.section	.debug_macro,"G",%progbits,wm4.sys_config.h.31.9f234e9c90333d233c7e647ebe63e928,comdat
 11192              	.Ldebug_macro28:
 11193 0000 0400     		.2byte	0x4
 11194 0002 00       		.byte	0
 11195 0003 05       		.byte	0x5
 11196 0004 1F       		.uleb128 0x1f
 11197 0005 CE760000 		.4byte	.LASF897
 11198 0009 05       		.byte	0x5
 11199 000a 26       		.uleb128 0x26
 11200 000b 91130000 		.4byte	.LASF898
 11201 000f 00       		.byte	0
 11202              		.section	.debug_macro,"G",%progbits,wm4.cmsis_11cxx.h.33.407e9bbb5d170cd1552d3f7dc3fd5c42,comdat
 11203              	.Ldebug_macro29:
ARM GAS  /var/folders/z0/6xlwn_996xz3mwq1cgzkbq4r0000gp/T//cc3rPjEN.s 			page 213


 11204 0000 0400     		.2byte	0x4
 11205 0002 00       		.byte	0
 11206 0003 05       		.byte	0x5
 11207 0004 21       		.uleb128 0x21
 11208 0005 0F1E0000 		.4byte	.LASF900
 11209 0009 05       		.byte	0x5
 11210 000a 8801     		.uleb128 0x88
 11211 000c 8BA60000 		.4byte	.LASF901
 11212 0010 05       		.byte	0x5
 11213 0011 8901     		.uleb128 0x89
 11214 0013 A72B0000 		.4byte	.LASF902
 11215 0017 05       		.byte	0x5
 11216 0018 8A01     		.uleb128 0x8a
 11217 001a ED890000 		.4byte	.LASF903
 11218 001e 00       		.byte	0
 11219              		.section	.debug_macro,"G",%progbits,wm4.core_cm0.h.32.192d13cfa8b31e63c86621de62eb153f,comdat
 11220              	.Ldebug_macro30:
 11221 0000 0400     		.2byte	0x4
 11222 0002 00       		.byte	0
 11223 0003 05       		.byte	0x5
 11224 0004 20       		.uleb128 0x20
 11225 0005 26410000 		.4byte	.LASF904
 11226 0009 05       		.byte	0x5
 11227 000a 38       		.uleb128 0x38
 11228 000b 7A600000 		.4byte	.LASF905
 11229 000f 05       		.byte	0x5
 11230 0010 39       		.uleb128 0x39
 11231 0011 042E0000 		.4byte	.LASF906
 11232 0015 05       		.byte	0x5
 11233 0016 3A       		.uleb128 0x3a
 11234 0017 15430000 		.4byte	.LASF907
 11235 001b 05       		.byte	0x5
 11236 001c 3D       		.uleb128 0x3d
 11237 001d 9A460000 		.4byte	.LASF908
 11238 0021 05       		.byte	0x5
 11239 0022 4B       		.uleb128 0x4b
 11240 0023 83A50000 		.4byte	.LASF909
 11241 0027 05       		.byte	0x5
 11242 0028 4C       		.uleb128 0x4c
 11243 0029 B6830000 		.4byte	.LASF910
 11244 002d 05       		.byte	0x5
 11245 002e 4D       		.uleb128 0x4d
 11246 002f 1FAB0000 		.4byte	.LASF911
 11247 0033 05       		.byte	0x5
 11248 0034 58       		.uleb128 0x58
 11249 0035 42740000 		.4byte	.LASF912
 11250 0039 00       		.byte	0
 11251              		.section	.debug_macro,"G",%progbits,wm4.core_cm0.h.120.f4257ea7d0bce0cbabffe223e23b2fd4,comdat
 11252              	.Ldebug_macro31:
 11253 0000 0400     		.2byte	0x4
 11254 0002 00       		.byte	0
 11255 0003 05       		.byte	0x5
 11256 0004 78       		.uleb128 0x78
 11257 0005 FBAD0000 		.4byte	.LASF915
 11258 0009 05       		.byte	0x5
 11259 000a 9701     		.uleb128 0x97
 11260 000c 87060000 		.4byte	.LASF916
ARM GAS  /var/folders/z0/6xlwn_996xz3mwq1cgzkbq4r0000gp/T//cc3rPjEN.s 			page 214


 11261 0010 05       		.byte	0x5
 11262 0011 9901     		.uleb128 0x99
 11263 0013 F1A70000 		.4byte	.LASF917
 11264 0017 05       		.byte	0x5
 11265 0018 9A01     		.uleb128 0x9a
 11266 001a 8B0E0000 		.4byte	.LASF918
 11267 001e 05       		.byte	0x5
 11268 001f B002     		.uleb128 0x130
 11269 0021 EE5E0000 		.4byte	.LASF919
 11270 0025 05       		.byte	0x5
 11271 0026 B102     		.uleb128 0x131
 11272 0028 32020000 		.4byte	.LASF920
 11273 002c 05       		.byte	0x5
 11274 002d B302     		.uleb128 0x133
 11275 002f 19320000 		.4byte	.LASF921
 11276 0033 05       		.byte	0x5
 11277 0034 B402     		.uleb128 0x134
 11278 0036 61790000 		.4byte	.LASF922
 11279 003a 05       		.byte	0x5
 11280 003b B602     		.uleb128 0x136
 11281 003d BC6E0000 		.4byte	.LASF923
 11282 0041 05       		.byte	0x5
 11283 0042 B702     		.uleb128 0x137
 11284 0044 167E0000 		.4byte	.LASF924
 11285 0048 05       		.byte	0x5
 11286 0049 B902     		.uleb128 0x139
 11287 004b A1540000 		.4byte	.LASF925
 11288 004f 05       		.byte	0x5
 11289 0050 BA02     		.uleb128 0x13a
 11290 0052 8F310000 		.4byte	.LASF926
 11291 0056 05       		.byte	0x5
 11292 0057 BC02     		.uleb128 0x13c
 11293 0059 FA190000 		.4byte	.LASF927
 11294 005d 05       		.byte	0x5
 11295 005e BD02     		.uleb128 0x13d
 11296 0060 0B090000 		.4byte	.LASF928
 11297 0064 05       		.byte	0x5
 11298 0065 C002     		.uleb128 0x140
 11299 0067 82920000 		.4byte	.LASF929
 11300 006b 05       		.byte	0x5
 11301 006c C102     		.uleb128 0x141
 11302 006e 308C0000 		.4byte	.LASF930
 11303 0072 05       		.byte	0x5
 11304 0073 C302     		.uleb128 0x143
 11305 0075 32440000 		.4byte	.LASF931
 11306 0079 05       		.byte	0x5
 11307 007a C402     		.uleb128 0x144
 11308 007c C8370000 		.4byte	.LASF932
 11309 0080 05       		.byte	0x5
 11310 0081 C602     		.uleb128 0x146
 11311 0083 F6A00000 		.4byte	.LASF933
 11312 0087 05       		.byte	0x5
 11313 0088 C702     		.uleb128 0x147
 11314 008a 67750000 		.4byte	.LASF934
 11315 008e 05       		.byte	0x5
 11316 008f C902     		.uleb128 0x149
 11317 0091 AF090000 		.4byte	.LASF935
ARM GAS  /var/folders/z0/6xlwn_996xz3mwq1cgzkbq4r0000gp/T//cc3rPjEN.s 			page 215


 11318 0095 05       		.byte	0x5
 11319 0096 CA02     		.uleb128 0x14a
 11320 0098 40900000 		.4byte	.LASF936
 11321 009c 05       		.byte	0x5
 11322 009d CC02     		.uleb128 0x14c
 11323 009f 125D0000 		.4byte	.LASF937
 11324 00a3 05       		.byte	0x5
 11325 00a4 CD02     		.uleb128 0x14d
 11326 00a6 771A0000 		.4byte	.LASF938
 11327 00aa 05       		.byte	0x5
 11328 00ab CF02     		.uleb128 0x14f
 11329 00ad 0E3B0000 		.4byte	.LASF939
 11330 00b1 05       		.byte	0x5
 11331 00b2 D002     		.uleb128 0x150
 11332 00b4 03650000 		.4byte	.LASF940
 11333 00b8 05       		.byte	0x5
 11334 00b9 D202     		.uleb128 0x152
 11335 00bb BE120000 		.4byte	.LASF941
 11336 00bf 05       		.byte	0x5
 11337 00c0 D302     		.uleb128 0x153
 11338 00c2 7E4B0000 		.4byte	.LASF942
 11339 00c6 05       		.byte	0x5
 11340 00c7 D502     		.uleb128 0x155
 11341 00c9 35370000 		.4byte	.LASF943
 11342 00cd 05       		.byte	0x5
 11343 00ce D602     		.uleb128 0x156
 11344 00d0 AC0A0000 		.4byte	.LASF944
 11345 00d4 05       		.byte	0x5
 11346 00d5 D802     		.uleb128 0x158
 11347 00d7 C22F0000 		.4byte	.LASF945
 11348 00db 05       		.byte	0x5
 11349 00dc D902     		.uleb128 0x159
 11350 00de 5C2B0000 		.4byte	.LASF946
 11351 00e2 05       		.byte	0x5
 11352 00e3 DC02     		.uleb128 0x15c
 11353 00e5 25350000 		.4byte	.LASF947
 11354 00e9 05       		.byte	0x5
 11355 00ea DD02     		.uleb128 0x15d
 11356 00ec 221D0000 		.4byte	.LASF948
 11357 00f0 05       		.byte	0x5
 11358 00f1 DF02     		.uleb128 0x15f
 11359 00f3 14B00000 		.4byte	.LASF949
 11360 00f7 05       		.byte	0x5
 11361 00f8 E002     		.uleb128 0x160
 11362 00fa AFAD0000 		.4byte	.LASF950
 11363 00fe 05       		.byte	0x5
 11364 00ff E202     		.uleb128 0x162
 11365 0101 FA960000 		.4byte	.LASF951
 11366 0105 05       		.byte	0x5
 11367 0106 E302     		.uleb128 0x163
 11368 0108 CB380000 		.4byte	.LASF952
 11369 010c 05       		.byte	0x5
 11370 010d E502     		.uleb128 0x165
 11371 010f B8950000 		.4byte	.LASF953
 11372 0113 05       		.byte	0x5
 11373 0114 E602     		.uleb128 0x166
 11374 0116 1C4C0000 		.4byte	.LASF954
ARM GAS  /var/folders/z0/6xlwn_996xz3mwq1cgzkbq4r0000gp/T//cc3rPjEN.s 			page 216


 11375 011a 05       		.byte	0x5
 11376 011b E802     		.uleb128 0x168
 11377 011d 092F0000 		.4byte	.LASF955
 11378 0121 05       		.byte	0x5
 11379 0122 E902     		.uleb128 0x169
 11380 0124 AF7F0000 		.4byte	.LASF956
 11381 0128 05       		.byte	0x5
 11382 0129 EC02     		.uleb128 0x16c
 11383 012b 37820000 		.4byte	.LASF957
 11384 012f 05       		.byte	0x5
 11385 0130 ED02     		.uleb128 0x16d
 11386 0132 34860000 		.4byte	.LASF958
 11387 0136 05       		.byte	0x5
 11388 0137 EF02     		.uleb128 0x16f
 11389 0139 FCAF0000 		.4byte	.LASF959
 11390 013d 05       		.byte	0x5
 11391 013e F002     		.uleb128 0x170
 11392 0140 A5470000 		.4byte	.LASF960
 11393 0144 05       		.byte	0x5
 11394 0145 F202     		.uleb128 0x172
 11395 0147 9A600000 		.4byte	.LASF961
 11396 014b 05       		.byte	0x5
 11397 014c F302     		.uleb128 0x173
 11398 014e 6D770000 		.4byte	.LASF962
 11399 0152 05       		.byte	0x5
 11400 0153 F602     		.uleb128 0x176
 11401 0155 1D5B0000 		.4byte	.LASF963
 11402 0159 05       		.byte	0x5
 11403 015a F702     		.uleb128 0x177
 11404 015c 48190000 		.4byte	.LASF964
 11405 0160 05       		.byte	0x5
 11406 0161 F902     		.uleb128 0x179
 11407 0163 FB450000 		.4byte	.LASF965
 11408 0167 05       		.byte	0x5
 11409 0168 FA02     		.uleb128 0x17a
 11410 016a C6830000 		.4byte	.LASF966
 11411 016e 05       		.byte	0x5
 11412 016f FD02     		.uleb128 0x17d
 11413 0171 E08D0000 		.4byte	.LASF967
 11414 0175 05       		.byte	0x5
 11415 0176 FE02     		.uleb128 0x17e
 11416 0178 232E0000 		.4byte	.LASF968
 11417 017c 05       		.byte	0x5
 11418 017d 9403     		.uleb128 0x194
 11419 017f 8C800000 		.4byte	.LASF969
 11420 0183 05       		.byte	0x5
 11421 0184 9503     		.uleb128 0x195
 11422 0186 824F0000 		.4byte	.LASF970
 11423 018a 05       		.byte	0x5
 11424 018b 9703     		.uleb128 0x197
 11425 018d 27610000 		.4byte	.LASF971
 11426 0191 05       		.byte	0x5
 11427 0192 9803     		.uleb128 0x198
 11428 0194 9B710000 		.4byte	.LASF972
 11429 0198 05       		.byte	0x5
 11430 0199 9A03     		.uleb128 0x19a
 11431 019b A4810000 		.4byte	.LASF973
ARM GAS  /var/folders/z0/6xlwn_996xz3mwq1cgzkbq4r0000gp/T//cc3rPjEN.s 			page 217


 11432 019f 05       		.byte	0x5
 11433 01a0 9B03     		.uleb128 0x19b
 11434 01a2 0C920000 		.4byte	.LASF974
 11435 01a6 05       		.byte	0x5
 11436 01a7 9D03     		.uleb128 0x19d
 11437 01a9 7D5B0000 		.4byte	.LASF975
 11438 01ad 05       		.byte	0x5
 11439 01ae 9E03     		.uleb128 0x19e
 11440 01b0 A05D0000 		.4byte	.LASF976
 11441 01b4 05       		.byte	0x5
 11442 01b5 A103     		.uleb128 0x1a1
 11443 01b7 AF720000 		.4byte	.LASF977
 11444 01bb 05       		.byte	0x5
 11445 01bc A203     		.uleb128 0x1a2
 11446 01be 89170000 		.4byte	.LASF978
 11447 01c2 05       		.byte	0x5
 11448 01c3 A503     		.uleb128 0x1a5
 11449 01c5 00830000 		.4byte	.LASF979
 11450 01c9 05       		.byte	0x5
 11451 01ca A603     		.uleb128 0x1a6
 11452 01cc AB8F0000 		.4byte	.LASF980
 11453 01d0 05       		.byte	0x5
 11454 01d1 A903     		.uleb128 0x1a9
 11455 01d3 435C0000 		.4byte	.LASF981
 11456 01d7 05       		.byte	0x5
 11457 01d8 AA03     		.uleb128 0x1aa
 11458 01da 66700000 		.4byte	.LASF982
 11459 01de 05       		.byte	0x5
 11460 01df AC03     		.uleb128 0x1ac
 11461 01e1 05360000 		.4byte	.LASF983
 11462 01e5 05       		.byte	0x5
 11463 01e6 AD03     		.uleb128 0x1ad
 11464 01e8 FC670000 		.4byte	.LASF984
 11465 01ec 05       		.byte	0x5
 11466 01ed AF03     		.uleb128 0x1af
 11467 01ef 28580000 		.4byte	.LASF985
 11468 01f3 05       		.byte	0x5
 11469 01f4 B003     		.uleb128 0x1b0
 11470 01f6 9D250000 		.4byte	.LASF986
 11471 01fa 05       		.byte	0x5
 11472 01fb C603     		.uleb128 0x1c6
 11473 01fd C89A0000 		.4byte	.LASF987
 11474 0201 05       		.byte	0x5
 11475 0202 C703     		.uleb128 0x1c7
 11476 0204 B6770000 		.4byte	.LASF988
 11477 0208 05       		.byte	0x5
 11478 0209 C803     		.uleb128 0x1c8
 11479 020b 9E3A0000 		.4byte	.LASF989
 11480 020f 05       		.byte	0x5
 11481 0210 C903     		.uleb128 0x1c9
 11482 0212 3B210000 		.4byte	.LASF990
 11483 0216 05       		.byte	0x5
 11484 0217 CB03     		.uleb128 0x1cb
 11485 0219 A29C0000 		.4byte	.LASF991
 11486 021d 05       		.byte	0x5
 11487 021e CC03     		.uleb128 0x1cc
 11488 0220 38790000 		.4byte	.LASF992
ARM GAS  /var/folders/z0/6xlwn_996xz3mwq1cgzkbq4r0000gp/T//cc3rPjEN.s 			page 218


 11489 0224 05       		.byte	0x5
 11490 0225 CD03     		.uleb128 0x1cd
 11491 0227 77900000 		.4byte	.LASF993
 11492 022b 05       		.byte	0x5
 11493 022c E903     		.uleb128 0x1e9
 11494 022e 26450000 		.4byte	.LASF994
 11495 0232 05       		.byte	0x5
 11496 0233 EA03     		.uleb128 0x1ea
 11497 0235 855C0000 		.4byte	.LASF995
 11498 0239 05       		.byte	0x5
 11499 023a EB03     		.uleb128 0x1eb
 11500 023c 0B8F0000 		.4byte	.LASF996
 11501 0240 00       		.byte	0
 11502              		.section	.debug_macro,"G",%progbits,wm4.chip.h.116.857da603c399e979152c31968de4baae,comdat
 11503              	.Ldebug_macro32:
 11504 0000 0400     		.2byte	0x4
 11505 0002 00       		.byte	0
 11506 0003 05       		.byte	0x5
 11507 0004 74       		.uleb128 0x74
 11508 0005 777E0000 		.4byte	.LASF997
 11509 0009 05       		.byte	0x5
 11510 000a 75       		.uleb128 0x75
 11511 000b B8540000 		.4byte	.LASF998
 11512 000f 05       		.byte	0x5
 11513 0010 76       		.uleb128 0x76
 11514 0011 4E100000 		.4byte	.LASF999
 11515 0015 05       		.byte	0x5
 11516 0016 77       		.uleb128 0x77
 11517 0017 BB410000 		.4byte	.LASF1000
 11518 001b 05       		.byte	0x5
 11519 001c 78       		.uleb128 0x78
 11520 001d 3E4F0000 		.4byte	.LASF1001
 11521 0021 05       		.byte	0x5
 11522 0022 79       		.uleb128 0x79
 11523 0023 381B0000 		.4byte	.LASF1002
 11524 0027 05       		.byte	0x5
 11525 0028 7A       		.uleb128 0x7a
 11526 0029 D0680000 		.4byte	.LASF1003
 11527 002d 05       		.byte	0x5
 11528 002e 7B       		.uleb128 0x7b
 11529 002f 0D9B0000 		.4byte	.LASF1004
 11530 0033 05       		.byte	0x5
 11531 0034 7C       		.uleb128 0x7c
 11532 0035 FC740000 		.4byte	.LASF1005
 11533 0039 05       		.byte	0x5
 11534 003a 7D       		.uleb128 0x7d
 11535 003b BC490000 		.4byte	.LASF1006
 11536 003f 05       		.byte	0x5
 11537 0040 7E       		.uleb128 0x7e
 11538 0041 50AA0000 		.4byte	.LASF1007
 11539 0045 05       		.byte	0x5
 11540 0046 7F       		.uleb128 0x7f
 11541 0047 3D0D0000 		.4byte	.LASF1008
 11542 004b 05       		.byte	0x5
 11543 004c 8001     		.uleb128 0x80
 11544 004e 0F8E0000 		.4byte	.LASF1009
 11545 0052 05       		.byte	0x5
ARM GAS  /var/folders/z0/6xlwn_996xz3mwq1cgzkbq4r0000gp/T//cc3rPjEN.s 			page 219


 11546 0053 8101     		.uleb128 0x81
 11547 0055 865D0000 		.4byte	.LASF1010
 11548 0059 05       		.byte	0x5
 11549 005a 8201     		.uleb128 0x82
 11550 005c B3210000 		.4byte	.LASF1011
 11551 0060 05       		.byte	0x5
 11552 0061 8301     		.uleb128 0x83
 11553 0063 2C540000 		.4byte	.LASF1012
 11554 0067 05       		.byte	0x5
 11555 0068 8401     		.uleb128 0x84
 11556 006a B6A40000 		.4byte	.LASF1013
 11557 006e 05       		.byte	0x5
 11558 006f 8501     		.uleb128 0x85
 11559 0071 4C530000 		.4byte	.LASF1014
 11560 0075 05       		.byte	0x5
 11561 0076 9001     		.uleb128 0x90
 11562 0078 F1590000 		.4byte	.LASF1015
 11563 007c 05       		.byte	0x5
 11564 007d 9101     		.uleb128 0x91
 11565 007f D1840000 		.4byte	.LASF1016
 11566 0083 05       		.byte	0x5
 11567 0084 9301     		.uleb128 0x93
 11568 0086 5B630000 		.4byte	.LASF1017
 11569 008a 05       		.byte	0x5
 11570 008b 9401     		.uleb128 0x94
 11571 008d D17C0000 		.4byte	.LASF1018
 11572 0091 05       		.byte	0x5
 11573 0092 9701     		.uleb128 0x97
 11574 0094 F49C0000 		.4byte	.LASF1019
 11575 0098 05       		.byte	0x5
 11576 0099 9801     		.uleb128 0x98
 11577 009b 7D680000 		.4byte	.LASF1020
 11578 009f 05       		.byte	0x5
 11579 00a0 9B01     		.uleb128 0x9b
 11580 00a2 7E2D0000 		.4byte	.LASF1021
 11581 00a6 05       		.byte	0x5
 11582 00a7 9E01     		.uleb128 0x9e
 11583 00a9 DB640000 		.4byte	.LASF1022
 11584 00ad 05       		.byte	0x5
 11585 00ae 9F01     		.uleb128 0x9f
 11586 00b0 F77E0000 		.4byte	.LASF1023
 11587 00b4 05       		.byte	0x5
 11588 00b5 A001     		.uleb128 0xa0
 11589 00b7 D4920000 		.4byte	.LASF1024
 11590 00bb 05       		.byte	0x5
 11591 00bc A101     		.uleb128 0xa1
 11592 00be FD320000 		.4byte	.LASF1025
 11593 00c2 05       		.byte	0x5
 11594 00c3 A201     		.uleb128 0xa2
 11595 00c5 D51F0000 		.4byte	.LASF1026
 11596 00c9 05       		.byte	0x5
 11597 00ca A301     		.uleb128 0xa3
 11598 00cc 5C8E0000 		.4byte	.LASF1027
 11599 00d0 05       		.byte	0x5
 11600 00d1 A401     		.uleb128 0xa4
 11601 00d3 374A0000 		.4byte	.LASF1028
 11602 00d7 05       		.byte	0x5
ARM GAS  /var/folders/z0/6xlwn_996xz3mwq1cgzkbq4r0000gp/T//cc3rPjEN.s 			page 220


 11603 00d8 B101     		.uleb128 0xb1
 11604 00da 959D0000 		.4byte	.LASF1029
 11605 00de 05       		.byte	0x5
 11606 00df B201     		.uleb128 0xb2
 11607 00e1 5C840000 		.4byte	.LASF1030
 11608 00e5 05       		.byte	0x5
 11609 00e6 B301     		.uleb128 0xb3
 11610 00e8 88090000 		.4byte	.LASF1031
 11611 00ec 05       		.byte	0x5
 11612 00ed B401     		.uleb128 0xb4
 11613 00ef 8C270000 		.4byte	.LASF1032
 11614 00f3 05       		.byte	0x5
 11615 00f4 B501     		.uleb128 0xb5
 11616 00f6 29270000 		.4byte	.LASF1033
 11617 00fa 05       		.byte	0x5
 11618 00fb B701     		.uleb128 0xb7
 11619 00fd AF7D0000 		.4byte	.LASF1034
 11620 0101 05       		.byte	0x5
 11621 0102 B801     		.uleb128 0xb8
 11622 0104 701C0000 		.4byte	.LASF1035
 11623 0108 05       		.byte	0x5
 11624 0109 BA01     		.uleb128 0xba
 11625 010b 74870000 		.4byte	.LASF1036
 11626 010f 05       		.byte	0x5
 11627 0110 C101     		.uleb128 0xc1
 11628 0112 CC8A0000 		.4byte	.LASF1037
 11629 0116 05       		.byte	0x5
 11630 0117 C401     		.uleb128 0xc4
 11631 0119 17720000 		.4byte	.LASF1038
 11632 011d 00       		.byte	0
 11633              		.section	.debug_macro,"G",%progbits,wm4.pmu_11xx.h.33.1d6b708881441cb98d19b8bab3caa180,comdat
 11634              	.Ldebug_macro33:
 11635 0000 0400     		.2byte	0x4
 11636 0002 00       		.byte	0
 11637 0003 05       		.byte	0x5
 11638 0004 21       		.uleb128 0x21
 11639 0005 5A520000 		.4byte	.LASF1039
 11640 0009 05       		.byte	0x5
 11641 000a 4D       		.uleb128 0x4d
 11642 000b 2B5C0000 		.4byte	.LASF1040
 11643 000f 05       		.byte	0x5
 11644 0010 53       		.uleb128 0x53
 11645 0011 0B9C0000 		.4byte	.LASF1041
 11646 0015 05       		.byte	0x5
 11647 0016 55       		.uleb128 0x55
 11648 0017 6E830000 		.4byte	.LASF1042
 11649 001b 05       		.byte	0x5
 11650 001c 56       		.uleb128 0x56
 11651 001d 19860000 		.4byte	.LASF1043
 11652 0021 00       		.byte	0
 11653              		.section	.debug_macro,"G",%progbits,wm4.sysctl_11xx.h.33.ae61a1181e608f8409883008e291930c,comdat
 11654              	.Ldebug_macro34:
 11655 0000 0400     		.2byte	0x4
 11656 0002 00       		.byte	0
 11657 0003 05       		.byte	0x5
 11658 0004 21       		.uleb128 0x21
 11659 0005 C8460000 		.4byte	.LASF1045
ARM GAS  /var/folders/z0/6xlwn_996xz3mwq1cgzkbq4r0000gp/T//cc3rPjEN.s 			page 221


 11660 0009 05       		.byte	0x5
 11661 000a BC01     		.uleb128 0xbc
 11662 000c 37A20000 		.4byte	.LASF1046
 11663 0010 05       		.byte	0x5
 11664 0011 BD01     		.uleb128 0xbd
 11665 0013 BF7E0000 		.4byte	.LASF1047
 11666 0017 05       		.byte	0x5
 11667 0018 BE01     		.uleb128 0xbe
 11668 001a 587A0000 		.4byte	.LASF1048
 11669 001e 05       		.byte	0x5
 11670 001f BF01     		.uleb128 0xbf
 11671 0021 77AE0000 		.4byte	.LASF1049
 11672 0025 05       		.byte	0x5
 11673 0026 C001     		.uleb128 0xc0
 11674 0028 BA360000 		.4byte	.LASF1050
 11675 002c 05       		.byte	0x5
 11676 002d C501     		.uleb128 0xc5
 11677 002f 825E0000 		.4byte	.LASF1051
 11678 0033 05       		.byte	0x5
 11679 0034 A904     		.uleb128 0x229
 11680 0036 A5180000 		.4byte	.LASF1052
 11681 003a 05       		.byte	0x5
 11682 003b AA04     		.uleb128 0x22a
 11683 003d F05C0000 		.4byte	.LASF1053
 11684 0041 05       		.byte	0x5
 11685 0042 C904     		.uleb128 0x249
 11686 0044 59A40000 		.4byte	.LASF1054
 11687 0048 05       		.byte	0x5
 11688 0049 CA04     		.uleb128 0x24a
 11689 004b 2A140000 		.4byte	.LASF1055
 11690 004f 05       		.byte	0x5
 11691 0050 CB04     		.uleb128 0x24b
 11692 0052 9CAB0000 		.4byte	.LASF1056
 11693 0056 05       		.byte	0x5
 11694 0057 CC04     		.uleb128 0x24c
 11695 0059 20390000 		.4byte	.LASF1057
 11696 005d 05       		.byte	0x5
 11697 005e CD04     		.uleb128 0x24d
 11698 0060 01440000 		.4byte	.LASF1058
 11699 0064 05       		.byte	0x5
 11700 0065 CE04     		.uleb128 0x24e
 11701 0067 99430000 		.4byte	.LASF1059
 11702 006b 05       		.byte	0x5
 11703 006c CF04     		.uleb128 0x24f
 11704 006e 80520000 		.4byte	.LASF1060
 11705 0072 05       		.byte	0x5
 11706 0073 D004     		.uleb128 0x250
 11707 0075 44A80000 		.4byte	.LASF1061
 11708 0079 05       		.byte	0x5
 11709 007a F104     		.uleb128 0x271
 11710 007c 096F0000 		.4byte	.LASF1062
 11711 0080 05       		.byte	0x5
 11712 0081 F204     		.uleb128 0x272
 11713 0083 B9550000 		.4byte	.LASF1063
 11714 0087 05       		.byte	0x5
 11715 0088 F304     		.uleb128 0x273
 11716 008a F59F0000 		.4byte	.LASF1064
ARM GAS  /var/folders/z0/6xlwn_996xz3mwq1cgzkbq4r0000gp/T//cc3rPjEN.s 			page 222


 11717 008e 05       		.byte	0x5
 11718 008f F504     		.uleb128 0x275
 11719 0091 3E7B0000 		.4byte	.LASF1065
 11720 0095 05       		.byte	0x5
 11721 0096 F704     		.uleb128 0x277
 11722 0098 FEA70000 		.4byte	.LASF1066
 11723 009c 05       		.byte	0x5
 11724 009d F804     		.uleb128 0x278
 11725 009f 30160000 		.4byte	.LASF1067
 11726 00a3 05       		.byte	0x5
 11727 00a4 F904     		.uleb128 0x279
 11728 00a6 D77B0000 		.4byte	.LASF1068
 11729 00aa 05       		.byte	0x5
 11730 00ab FA04     		.uleb128 0x27a
 11731 00ad AE200000 		.4byte	.LASF1069
 11732 00b1 00       		.byte	0
 11733              		.section	.debug_macro,"G",%progbits,wm4.clock_11xx.h.33.23290a9e2ed919e3a6958d25130bc848,comdat
 11734              	.Ldebug_macro35:
 11735 0000 0400     		.2byte	0x4
 11736 0002 00       		.byte	0
 11737 0003 05       		.byte	0x5
 11738 0004 21       		.uleb128 0x21
 11739 0005 E6310000 		.4byte	.LASF1070
 11740 0009 05       		.byte	0x5
 11741 000a 2D       		.uleb128 0x2d
 11742 000b BB5E0000 		.4byte	.LASF1071
 11743 000f 00       		.byte	0
 11744              		.section	.debug_macro,"G",%progbits,wm4.iocon_11xx.h.33.25e2b3cde122df23fb07b984cb4f3a93,comdat
 11745              	.Ldebug_macro36:
 11746 0000 0400     		.2byte	0x4
 11747 0002 00       		.byte	0
 11748 0003 05       		.byte	0x5
 11749 0004 21       		.uleb128 0x21
 11750 0005 E36A0000 		.4byte	.LASF1072
 11751 0009 05       		.byte	0x5
 11752 000a A601     		.uleb128 0xa6
 11753 000c 4F9F0000 		.4byte	.LASF1073
 11754 0010 05       		.byte	0x5
 11755 0011 A701     		.uleb128 0xa7
 11756 0013 9AA20000 		.4byte	.LASF1074
 11757 0017 05       		.byte	0x5
 11758 0018 A801     		.uleb128 0xa8
 11759 001a 06290000 		.4byte	.LASF1075
 11760 001e 05       		.byte	0x5
 11761 001f A901     		.uleb128 0xa9
 11762 0021 8A610000 		.4byte	.LASF1076
 11763 0025 05       		.byte	0x5
 11764 0026 AA01     		.uleb128 0xaa
 11765 0028 7F980000 		.4byte	.LASF1077
 11766 002c 05       		.byte	0x5
 11767 002d AB01     		.uleb128 0xab
 11768 002f 6C1D0000 		.4byte	.LASF1078
 11769 0033 05       		.byte	0x5
 11770 0034 AC01     		.uleb128 0xac
 11771 0036 B0500000 		.4byte	.LASF1079
 11772 003a 05       		.byte	0x5
 11773 003b AD01     		.uleb128 0xad
ARM GAS  /var/folders/z0/6xlwn_996xz3mwq1cgzkbq4r0000gp/T//cc3rPjEN.s 			page 223


 11774 003d 4C8E0000 		.4byte	.LASF1080
 11775 0041 05       		.byte	0x5
 11776 0042 AE01     		.uleb128 0xae
 11777 0044 FBA10000 		.4byte	.LASF1081
 11778 0048 05       		.byte	0x5
 11779 0049 AF01     		.uleb128 0xaf
 11780 004b 07930000 		.4byte	.LASF1082
 11781 004f 05       		.byte	0x5
 11782 0050 B001     		.uleb128 0xb0
 11783 0052 905F0000 		.4byte	.LASF1083
 11784 0056 05       		.byte	0x5
 11785 0057 B101     		.uleb128 0xb1
 11786 0059 BF220000 		.4byte	.LASF1084
 11787 005d 05       		.byte	0x5
 11788 005e B201     		.uleb128 0xb2
 11789 0060 BE9B0000 		.4byte	.LASF1085
 11790 0064 05       		.byte	0x5
 11791 0065 B301     		.uleb128 0xb3
 11792 0067 DF180000 		.4byte	.LASF1086
 11793 006b 05       		.byte	0x5
 11794 006c B401     		.uleb128 0xb4
 11795 006e 2B9C0000 		.4byte	.LASF1087
 11796 0072 05       		.byte	0x5
 11797 0073 B501     		.uleb128 0xb5
 11798 0075 BC1C0000 		.4byte	.LASF1088
 11799 0079 05       		.byte	0x5
 11800 007a B601     		.uleb128 0xb6
 11801 007c BC6C0000 		.4byte	.LASF1089
 11802 0080 05       		.byte	0x5
 11803 0081 B701     		.uleb128 0xb7
 11804 0083 F07F0000 		.4byte	.LASF1090
 11805 0087 05       		.byte	0x5
 11806 0088 B801     		.uleb128 0xb8
 11807 008a 20780000 		.4byte	.LASF1091
 11808 008e 05       		.byte	0x5
 11809 008f B901     		.uleb128 0xb9
 11810 0091 05510000 		.4byte	.LASF1092
 11811 0095 05       		.byte	0x5
 11812 0096 BA01     		.uleb128 0xba
 11813 0098 C84C0000 		.4byte	.LASF1093
 11814 009c 05       		.byte	0x5
 11815 009d C001     		.uleb128 0xc0
 11816 009f 736E0000 		.4byte	.LASF1094
 11817 00a3 05       		.byte	0x5
 11818 00a4 C101     		.uleb128 0xc1
 11819 00a6 4C440000 		.4byte	.LASF1095
 11820 00aa 05       		.byte	0x5
 11821 00ab C201     		.uleb128 0xc2
 11822 00ad E9AE0000 		.4byte	.LASF1096
 11823 00b1 05       		.byte	0x5
 11824 00b2 C301     		.uleb128 0xc3
 11825 00b4 AAA20000 		.4byte	.LASF1097
 11826 00b8 05       		.byte	0x5
 11827 00b9 C401     		.uleb128 0xc4
 11828 00bb EE8B0000 		.4byte	.LASF1098
 11829 00bf 05       		.byte	0x5
 11830 00c0 C501     		.uleb128 0xc5
ARM GAS  /var/folders/z0/6xlwn_996xz3mwq1cgzkbq4r0000gp/T//cc3rPjEN.s 			page 224


 11831 00c2 27010000 		.4byte	.LASF1099
 11832 00c6 05       		.byte	0x5
 11833 00c7 C601     		.uleb128 0xc6
 11834 00c9 45320000 		.4byte	.LASF1100
 11835 00cd 05       		.byte	0x5
 11836 00ce C701     		.uleb128 0xc7
 11837 00d0 F1900000 		.4byte	.LASF1101
 11838 00d4 05       		.byte	0x5
 11839 00d5 C801     		.uleb128 0xc8
 11840 00d7 39200000 		.4byte	.LASF1102
 11841 00db 05       		.byte	0x5
 11842 00dc C901     		.uleb128 0xc9
 11843 00de 04A50000 		.4byte	.LASF1103
 11844 00e2 05       		.byte	0x5
 11845 00e3 CA01     		.uleb128 0xca
 11846 00e5 AE660000 		.4byte	.LASF1104
 11847 00e9 05       		.byte	0x5
 11848 00ea CB01     		.uleb128 0xcb
 11849 00ec E9070000 		.4byte	.LASF1105
 11850 00f0 05       		.byte	0x5
 11851 00f1 CC01     		.uleb128 0xcc
 11852 00f3 8FA50000 		.4byte	.LASF1106
 11853 00f7 05       		.byte	0x5
 11854 00f8 CD01     		.uleb128 0xcd
 11855 00fa 64040000 		.4byte	.LASF1107
 11856 00fe 05       		.byte	0x5
 11857 00ff CE01     		.uleb128 0xce
 11858 0101 75110000 		.4byte	.LASF1108
 11859 0105 05       		.byte	0x5
 11860 0106 CF01     		.uleb128 0xcf
 11861 0108 F1AD0000 		.4byte	.LASF1109
 11862 010c 05       		.byte	0x5
 11863 010d D001     		.uleb128 0xd0
 11864 010f E8340000 		.4byte	.LASF1110
 11865 0113 05       		.byte	0x5
 11866 0114 D101     		.uleb128 0xd1
 11867 0116 D66C0000 		.4byte	.LASF1111
 11868 011a 05       		.byte	0x5
 11869 011b D201     		.uleb128 0xd2
 11870 011d 81A30000 		.4byte	.LASF1112
 11871 0121 05       		.byte	0x5
 11872 0122 D301     		.uleb128 0xd3
 11873 0124 8E2A0000 		.4byte	.LASF1113
 11874 0128 05       		.byte	0x5
 11875 0129 D401     		.uleb128 0xd4
 11876 012b 9A620000 		.4byte	.LASF1114
 11877 012f 05       		.byte	0x5
 11878 0130 D501     		.uleb128 0xd5
 11879 0132 0E9A0000 		.4byte	.LASF1115
 11880 0136 00       		.byte	0
 11881              		.section	.debug_macro,"G",%progbits,wm4.timer_11xx.h.33.c92f50a9325789ee6a8ffd6248980d70,comdat
 11882              	.Ldebug_macro37:
 11883 0000 0400     		.2byte	0x4
 11884 0002 00       		.byte	0
 11885 0003 05       		.byte	0x5
 11886 0004 21       		.uleb128 0x21
 11887 0005 D9930000 		.4byte	.LASF1116
ARM GAS  /var/folders/z0/6xlwn_996xz3mwq1cgzkbq4r0000gp/T//cc3rPjEN.s 			page 225


 11888 0009 05       		.byte	0x5
 11889 000a 40       		.uleb128 0x40
 11890 000b 9BA60000 		.4byte	.LASF1117
 11891 000f 05       		.byte	0x5
 11892 0010 43       		.uleb128 0x43
 11893 0011 1C070000 		.4byte	.LASF1118
 11894 0015 05       		.byte	0x5
 11895 0016 45       		.uleb128 0x45
 11896 0017 999F0000 		.4byte	.LASF1119
 11897 001b 05       		.byte	0x5
 11898 001c 48       		.uleb128 0x48
 11899 001d E36F0000 		.4byte	.LASF1120
 11900 0021 05       		.byte	0x5
 11901 0022 4A       		.uleb128 0x4a
 11902 0023 BE8D0000 		.4byte	.LASF1121
 11903 0027 05       		.byte	0x5
 11904 0028 4D       		.uleb128 0x4d
 11905 0029 470A0000 		.4byte	.LASF1122
 11906 002d 05       		.byte	0x5
 11907 002e 4F       		.uleb128 0x4f
 11908 002f FB120000 		.4byte	.LASF1123
 11909 0033 05       		.byte	0x5
 11910 0034 51       		.uleb128 0x51
 11911 0035 826F0000 		.4byte	.LASF1124
 11912 0039 05       		.byte	0x5
 11913 003a 54       		.uleb128 0x54
 11914 003b CB3B0000 		.4byte	.LASF1125
 11915 003f 05       		.byte	0x5
 11916 0040 56       		.uleb128 0x56
 11917 0041 51970000 		.4byte	.LASF1126
 11918 0045 05       		.byte	0x5
 11919 0046 58       		.uleb128 0x58
 11920 0047 340E0000 		.4byte	.LASF1127
 11921 004b 00       		.byte	0
 11922              		.section	.debug_macro,"G",%progbits,wm4.ring_buffer.h.33.2f271415f1f27d60350fb4738c5cbee6,comdat
 11923              	.Ldebug_macro38:
 11924 0000 0400     		.2byte	0x4
 11925 0002 00       		.byte	0
 11926 0003 05       		.byte	0x5
 11927 0004 21       		.uleb128 0x21
 11928 0005 53230000 		.4byte	.LASF1129
 11929 0009 05       		.byte	0x5
 11930 000a 3A       		.uleb128 0x3a
 11931 000b 65580000 		.4byte	.LASF1130
 11932 000f 05       		.byte	0x5
 11933 0010 41       		.uleb128 0x41
 11934 0011 83840000 		.4byte	.LASF1131
 11935 0015 00       		.byte	0
 11936              		.section	.debug_macro,"G",%progbits,wm4.uart_11xx.h.98.fe68b709973730a4fba3f3ce60c5c312,comdat
 11937              	.Ldebug_macro39:
 11938 0000 0400     		.2byte	0x4
 11939 0002 00       		.byte	0
 11940 0003 05       		.byte	0x5
 11941 0004 62       		.uleb128 0x62
 11942 0005 8F370000 		.4byte	.LASF1132
 11943 0009 05       		.byte	0x5
 11944 000a 67       		.uleb128 0x67
ARM GAS  /var/folders/z0/6xlwn_996xz3mwq1cgzkbq4r0000gp/T//cc3rPjEN.s 			page 226


 11945 000b 82930000 		.4byte	.LASF1133
 11946 000f 05       		.byte	0x5
 11947 0010 68       		.uleb128 0x68
 11948 0011 B3380000 		.4byte	.LASF1134
 11949 0015 05       		.byte	0x5
 11950 0016 6D       		.uleb128 0x6d
 11951 0017 457C0000 		.4byte	.LASF1135
 11952 001b 05       		.byte	0x5
 11953 001c 6E       		.uleb128 0x6e
 11954 001d 800D0000 		.4byte	.LASF1136
 11955 0021 05       		.byte	0x5
 11956 0022 73       		.uleb128 0x73
 11957 0023 5D350000 		.4byte	.LASF1137
 11958 0027 05       		.byte	0x5
 11959 0028 74       		.uleb128 0x74
 11960 0029 43760000 		.4byte	.LASF1138
 11961 002d 05       		.byte	0x5
 11962 002e 75       		.uleb128 0x75
 11963 002f 5C550000 		.4byte	.LASF1139
 11964 0033 05       		.byte	0x5
 11965 0034 76       		.uleb128 0x76
 11966 0035 4C040000 		.4byte	.LASF1140
 11967 0039 05       		.byte	0x5
 11968 003a 77       		.uleb128 0x77
 11969 003b C8500000 		.4byte	.LASF1141
 11970 003f 05       		.byte	0x5
 11971 0040 78       		.uleb128 0x78
 11972 0041 1F360000 		.4byte	.LASF1142
 11973 0045 05       		.byte	0x5
 11974 0046 79       		.uleb128 0x79
 11975 0047 F4540000 		.4byte	.LASF1143
 11976 004b 05       		.byte	0x5
 11977 004c 7A       		.uleb128 0x7a
 11978 004d B3420000 		.4byte	.LASF1144
 11979 0051 05       		.byte	0x5
 11980 0052 7B       		.uleb128 0x7b
 11981 0053 69540000 		.4byte	.LASF1145
 11982 0057 05       		.byte	0x5
 11983 0058 7C       		.uleb128 0x7c
 11984 0059 D64F0000 		.4byte	.LASF1146
 11985 005d 05       		.byte	0x5
 11986 005e 8101     		.uleb128 0x81
 11987 0060 E2420000 		.4byte	.LASF1147
 11988 0064 05       		.byte	0x5
 11989 0065 8201     		.uleb128 0x82
 11990 0067 B5A70000 		.4byte	.LASF1148
 11991 006b 05       		.byte	0x5
 11992 006c 8301     		.uleb128 0x83
 11993 006e 50130000 		.4byte	.LASF1149
 11994 0072 05       		.byte	0x5
 11995 0073 8401     		.uleb128 0x84
 11996 0075 A8280000 		.4byte	.LASF1150
 11997 0079 05       		.byte	0x5
 11998 007a 8501     		.uleb128 0x85
 11999 007c F5230000 		.4byte	.LASF1151
 12000 0080 05       		.byte	0x5
 12001 0081 8801     		.uleb128 0x88
ARM GAS  /var/folders/z0/6xlwn_996xz3mwq1cgzkbq4r0000gp/T//cc3rPjEN.s 			page 227


 12002 0083 1E640000 		.4byte	.LASF1152
 12003 0087 05       		.byte	0x5
 12004 0088 8901     		.uleb128 0x89
 12005 008a 04390000 		.4byte	.LASF1153
 12006 008e 05       		.byte	0x5
 12007 008f 8A01     		.uleb128 0x8a
 12008 0091 272F0000 		.4byte	.LASF1154
 12009 0095 05       		.byte	0x5
 12010 0096 8B01     		.uleb128 0x8b
 12011 0098 F9770000 		.4byte	.LASF1155
 12012 009c 05       		.byte	0x5
 12013 009d 8C01     		.uleb128 0x8c
 12014 009f 0B870000 		.4byte	.LASF1156
 12015 00a3 05       		.byte	0x5
 12016 00a4 8D01     		.uleb128 0x8d
 12017 00a6 57740000 		.4byte	.LASF1157
 12018 00aa 05       		.byte	0x5
 12019 00ab 9201     		.uleb128 0x92
 12020 00ad A48D0000 		.4byte	.LASF1158
 12021 00b1 05       		.byte	0x5
 12022 00b2 9301     		.uleb128 0x93
 12023 00b4 781B0000 		.4byte	.LASF1159
 12024 00b8 05       		.byte	0x5
 12025 00b9 9401     		.uleb128 0x94
 12026 00bb 707A0000 		.4byte	.LASF1160
 12027 00bf 05       		.byte	0x5
 12028 00c0 9501     		.uleb128 0x95
 12029 00c2 74390000 		.4byte	.LASF1161
 12030 00c6 05       		.byte	0x5
 12031 00c7 9601     		.uleb128 0x96
 12032 00c9 53850000 		.4byte	.LASF1162
 12033 00cd 05       		.byte	0x5
 12034 00ce 9801     		.uleb128 0x98
 12035 00d0 EF2C0000 		.4byte	.LASF1163
 12036 00d4 05       		.byte	0x5
 12037 00d5 9B01     		.uleb128 0x9b
 12038 00d7 7B450000 		.4byte	.LASF1164
 12039 00db 05       		.byte	0x5
 12040 00dc 9C01     		.uleb128 0x9c
 12041 00de E9490000 		.4byte	.LASF1165
 12042 00e2 05       		.byte	0x5
 12043 00e3 9D01     		.uleb128 0x9d
 12044 00e5 EB8F0000 		.4byte	.LASF1166
 12045 00e9 05       		.byte	0x5
 12046 00ea 9E01     		.uleb128 0x9e
 12047 00ec B4230000 		.4byte	.LASF1167
 12048 00f0 05       		.byte	0x5
 12049 00f1 A401     		.uleb128 0xa4
 12050 00f3 0AAA0000 		.4byte	.LASF1168
 12051 00f7 05       		.byte	0x5
 12052 00f8 A501     		.uleb128 0xa5
 12053 00fa 6DA00000 		.4byte	.LASF1169
 12054 00fe 05       		.byte	0x5
 12055 00ff A601     		.uleb128 0xa6
 12056 0101 E9620000 		.4byte	.LASF1170
 12057 0105 05       		.byte	0x5
 12058 0106 A701     		.uleb128 0xa7
ARM GAS  /var/folders/z0/6xlwn_996xz3mwq1cgzkbq4r0000gp/T//cc3rPjEN.s 			page 228


 12059 0108 797B0000 		.4byte	.LASF1171
 12060 010c 05       		.byte	0x5
 12061 010d A801     		.uleb128 0xa8
 12062 010f F60E0000 		.4byte	.LASF1172
 12063 0113 05       		.byte	0x5
 12064 0114 AB01     		.uleb128 0xab
 12065 0116 AF560000 		.4byte	.LASF1173
 12066 011a 05       		.byte	0x5
 12067 011b AC01     		.uleb128 0xac
 12068 011d 080B0000 		.4byte	.LASF1174
 12069 0121 05       		.byte	0x5
 12070 0122 AD01     		.uleb128 0xad
 12071 0124 3A0B0000 		.4byte	.LASF1175
 12072 0128 05       		.byte	0x5
 12073 0129 B001     		.uleb128 0xb0
 12074 012b A3220000 		.4byte	.LASF1176
 12075 012f 05       		.byte	0x5
 12076 0130 B101     		.uleb128 0xb1
 12077 0132 5B240000 		.4byte	.LASF1177
 12078 0136 05       		.byte	0x5
 12079 0137 B201     		.uleb128 0xb2
 12080 0139 F6A80000 		.4byte	.LASF1178
 12081 013d 05       		.byte	0x5
 12082 013e B301     		.uleb128 0xb3
 12083 0140 06890000 		.4byte	.LASF1179
 12084 0144 05       		.byte	0x5
 12085 0145 B401     		.uleb128 0xb4
 12086 0147 A21B0000 		.4byte	.LASF1180
 12087 014b 05       		.byte	0x5
 12088 014c B501     		.uleb128 0xb5
 12089 014e 57220000 		.4byte	.LASF1181
 12090 0152 05       		.byte	0x5
 12091 0153 B601     		.uleb128 0xb6
 12092 0155 26AA0000 		.4byte	.LASF1182
 12093 0159 05       		.byte	0x5
 12094 015a B701     		.uleb128 0xb7
 12095 015c 374B0000 		.4byte	.LASF1183
 12096 0160 05       		.byte	0x5
 12097 0161 B801     		.uleb128 0xb8
 12098 0163 594C0000 		.4byte	.LASF1184
 12099 0167 05       		.byte	0x5
 12100 0168 BD01     		.uleb128 0xbd
 12101 016a 9F110000 		.4byte	.LASF1185
 12102 016e 05       		.byte	0x5
 12103 016f BE01     		.uleb128 0xbe
 12104 0171 A0590000 		.4byte	.LASF1186
 12105 0175 05       		.byte	0x5
 12106 0176 BF01     		.uleb128 0xbf
 12107 0178 459E0000 		.4byte	.LASF1187
 12108 017c 05       		.byte	0x5
 12109 017d C001     		.uleb128 0xc0
 12110 017f D86B0000 		.4byte	.LASF1188
 12111 0183 05       		.byte	0x5
 12112 0184 C101     		.uleb128 0xc1
 12113 0186 83540000 		.4byte	.LASF1189
 12114 018a 05       		.byte	0x5
 12115 018b C201     		.uleb128 0xc2
ARM GAS  /var/folders/z0/6xlwn_996xz3mwq1cgzkbq4r0000gp/T//cc3rPjEN.s 			page 229


 12116 018d D2200000 		.4byte	.LASF1190
 12117 0191 05       		.byte	0x5
 12118 0192 C701     		.uleb128 0xc7
 12119 0194 DE410000 		.4byte	.LASF1191
 12120 0198 05       		.byte	0x5
 12121 0199 C801     		.uleb128 0xc8
 12122 019b C0690000 		.4byte	.LASF1192
 12123 019f 05       		.byte	0x5
 12124 01a0 C901     		.uleb128 0xc9
 12125 01a2 44090000 		.4byte	.LASF1193
 12126 01a6 05       		.byte	0x5
 12127 01a7 CA01     		.uleb128 0xca
 12128 01a9 987C0000 		.4byte	.LASF1194
 12129 01ad 05       		.byte	0x5
 12130 01ae CB01     		.uleb128 0xcb
 12131 01b0 44330000 		.4byte	.LASF1195
 12132 01b4 05       		.byte	0x5
 12133 01b5 CC01     		.uleb128 0xcc
 12134 01b7 8EA90000 		.4byte	.LASF1196
 12135 01bb 05       		.byte	0x5
 12136 01bc CD01     		.uleb128 0xcd
 12137 01be 1A300000 		.4byte	.LASF1197
 12138 01c2 05       		.byte	0x5
 12139 01c3 CE01     		.uleb128 0xce
 12140 01c5 1B020000 		.4byte	.LASF1198
 12141 01c9 05       		.byte	0x5
 12142 01ca CF01     		.uleb128 0xcf
 12143 01cc D2070000 		.4byte	.LASF1199
 12144 01d0 05       		.byte	0x5
 12145 01d1 D001     		.uleb128 0xd0
 12146 01d3 E7870000 		.4byte	.LASF1200
 12147 01d7 05       		.byte	0x5
 12148 01d8 D101     		.uleb128 0xd1
 12149 01da 50670000 		.4byte	.LASF1201
 12150 01de 05       		.byte	0x5
 12151 01df D601     		.uleb128 0xd6
 12152 01e1 245F0000 		.4byte	.LASF1202
 12153 01e5 05       		.byte	0x5
 12154 01e6 D701     		.uleb128 0xd7
 12155 01e8 88650000 		.4byte	.LASF1203
 12156 01ec 05       		.byte	0x5
 12157 01ed D801     		.uleb128 0xd8
 12158 01ef E7510000 		.4byte	.LASF1204
 12159 01f3 05       		.byte	0x5
 12160 01f4 D901     		.uleb128 0xd9
 12161 01f6 4F2F0000 		.4byte	.LASF1205
 12162 01fa 05       		.byte	0x5
 12163 01fb DA01     		.uleb128 0xda
 12164 01fd 3C6B0000 		.4byte	.LASF1206
 12165 0201 05       		.byte	0x5
 12166 0202 DB01     		.uleb128 0xdb
 12167 0204 CB890000 		.4byte	.LASF1207
 12168 0208 05       		.byte	0x5
 12169 0209 DC01     		.uleb128 0xdc
 12170 020b FBAE0000 		.4byte	.LASF1208
 12171 020f 05       		.byte	0x5
 12172 0210 DD01     		.uleb128 0xdd
ARM GAS  /var/folders/z0/6xlwn_996xz3mwq1cgzkbq4r0000gp/T//cc3rPjEN.s 			page 230


 12173 0212 F1530000 		.4byte	.LASF1209
 12174 0216 05       		.byte	0x5
 12175 0217 DE01     		.uleb128 0xde
 12176 0219 7D040000 		.4byte	.LASF1210
 12177 021d 05       		.byte	0x5
 12178 021e E301     		.uleb128 0xe3
 12179 0220 A77B0000 		.4byte	.LASF1211
 12180 0224 05       		.byte	0x5
 12181 0225 E401     		.uleb128 0xe4
 12182 0227 4E580000 		.4byte	.LASF1212
 12183 022b 05       		.byte	0x5
 12184 022c E501     		.uleb128 0xe5
 12185 022e 12500000 		.4byte	.LASF1213
 12186 0232 05       		.byte	0x5
 12187 0233 E601     		.uleb128 0xe6
 12188 0235 C9090000 		.4byte	.LASF1214
 12189 0239 05       		.byte	0x5
 12190 023a E701     		.uleb128 0xe7
 12191 023c C3610000 		.4byte	.LASF1215
 12192 0240 05       		.byte	0x5
 12193 0241 E801     		.uleb128 0xe8
 12194 0243 08200000 		.4byte	.LASF1216
 12195 0247 05       		.byte	0x5
 12196 0248 ED01     		.uleb128 0xed
 12197 024a A4930000 		.4byte	.LASF1217
 12198 024e 05       		.byte	0x5
 12199 024f EE01     		.uleb128 0xee
 12200 0251 68710000 		.4byte	.LASF1218
 12201 0255 05       		.byte	0x5
 12202 0256 EF01     		.uleb128 0xef
 12203 0258 4F140000 		.4byte	.LASF1219
 12204 025c 05       		.byte	0x5
 12205 025d F001     		.uleb128 0xf0
 12206 025f 17A20000 		.4byte	.LASF1220
 12207 0263 05       		.byte	0x5
 12208 0264 F201     		.uleb128 0xf2
 12209 0266 44870000 		.4byte	.LASF1221
 12210 026a 05       		.byte	0x5
 12211 026b F301     		.uleb128 0xf3
 12212 026d FA850000 		.4byte	.LASF1222
 12213 0271 05       		.byte	0x5
 12214 0272 F601     		.uleb128 0xf6
 12215 0274 8B890000 		.4byte	.LASF1223
 12216 0278 05       		.byte	0x5
 12217 0279 FB01     		.uleb128 0xfb
 12218 027b 39AC0000 		.4byte	.LASF1224
 12219 027f 05       		.byte	0x5
 12220 0280 FC01     		.uleb128 0xfc
 12221 0282 6B120000 		.4byte	.LASF1225
 12222 0286 05       		.byte	0x5
 12223 0287 FD01     		.uleb128 0xfd
 12224 0289 1F5A0000 		.4byte	.LASF1226
 12225 028d 05       		.byte	0x5
 12226 028e FE01     		.uleb128 0xfe
 12227 0290 97900000 		.4byte	.LASF1227
 12228 0294 05       		.byte	0x5
 12229 0295 FF01     		.uleb128 0xff
ARM GAS  /var/folders/z0/6xlwn_996xz3mwq1cgzkbq4r0000gp/T//cc3rPjEN.s 			page 231


 12230 0297 FBA20000 		.4byte	.LASF1228
 12231 029b 05       		.byte	0x5
 12232 029c 8402     		.uleb128 0x104
 12233 029e DF600000 		.4byte	.LASF1229
 12234 02a2 05       		.byte	0x5
 12235 02a3 8902     		.uleb128 0x109
 12236 02a5 A2520000 		.4byte	.LASF1230
 12237 02a9 05       		.byte	0x5
 12238 02aa 8A02     		.uleb128 0x10a
 12239 02ac 7EAB0000 		.4byte	.LASF1231
 12240 02b0 05       		.byte	0x5
 12241 02b1 8B02     		.uleb128 0x10b
 12242 02b3 7A7F0000 		.4byte	.LASF1232
 12243 02b7 05       		.byte	0x5
 12244 02b8 8C02     		.uleb128 0x10c
 12245 02ba 345E0000 		.4byte	.LASF1233
 12246 02be 05       		.byte	0x5
 12247 02bf 8D02     		.uleb128 0x10d
 12248 02c1 3F300000 		.4byte	.LASF1234
 12249 02c5 05       		.byte	0x5
 12250 02c6 9202     		.uleb128 0x112
 12251 02c8 E69D0000 		.4byte	.LASF1235
 12252 02cc 05       		.byte	0x5
 12253 02cd 9302     		.uleb128 0x113
 12254 02cf 2D700000 		.4byte	.LASF1236
 12255 02d3 05       		.byte	0x5
 12256 02d4 9402     		.uleb128 0x114
 12257 02d6 0A040000 		.4byte	.LASF1237
 12258 02da 05       		.byte	0x5
 12259 02db 9902     		.uleb128 0x119
 12260 02dd A4160000 		.4byte	.LASF1238
 12261 02e1 05       		.byte	0x5
 12262 02e2 9A02     		.uleb128 0x11a
 12263 02e4 D8960000 		.4byte	.LASF1239
 12264 02e8 05       		.byte	0x5
 12265 02e9 9F02     		.uleb128 0x11f
 12266 02eb 12250000 		.4byte	.LASF1240
 12267 02ef 05       		.byte	0x5
 12268 02f0 A002     		.uleb128 0x120
 12269 02f2 77A20000 		.4byte	.LASF1241
 12270 02f6 05       		.byte	0x5
 12271 02f7 A102     		.uleb128 0x121
 12272 02f9 E5820000 		.4byte	.LASF1242
 12273 02fd 05       		.byte	0x5
 12274 02fe A202     		.uleb128 0x122
 12275 0300 7F110000 		.4byte	.LASF1243
 12276 0304 05       		.byte	0x5
 12277 0305 A302     		.uleb128 0x123
 12278 0307 09450000 		.4byte	.LASF1244
 12279 030b 05       		.byte	0x5
 12280 030c A402     		.uleb128 0x124
 12281 030e 04770000 		.4byte	.LASF1245
 12282 0312 05       		.byte	0x5
 12283 0313 A502     		.uleb128 0x125
 12284 0315 5F9A0000 		.4byte	.LASF1246
 12285 0319 00       		.byte	0
 12286              		.section	.debug_macro,"G",%progbits,wm4.wwdt_11xx.h.33.5768344983cb842df69cc91ea86cabb0,comdat
ARM GAS  /var/folders/z0/6xlwn_996xz3mwq1cgzkbq4r0000gp/T//cc3rPjEN.s 			page 232


 12287              	.Ldebug_macro40:
 12288 0000 0400     		.2byte	0x4
 12289 0002 00       		.byte	0
 12290 0003 05       		.byte	0x5
 12291 0004 21       		.uleb128 0x21
 12292 0005 9B300000 		.4byte	.LASF1247
 12293 0009 05       		.byte	0x5
 12294 000a 4B       		.uleb128 0x4b
 12295 000b 4E2C0000 		.4byte	.LASF1248
 12296 000f 05       		.byte	0x5
 12297 0010 4D       		.uleb128 0x4d
 12298 0011 1F600000 		.4byte	.LASF1249
 12299 0015 05       		.byte	0x5
 12300 0016 4F       		.uleb128 0x4f
 12301 0017 D3940000 		.4byte	.LASF1250
 12302 001b 05       		.byte	0x5
 12303 001c 51       		.uleb128 0x51
 12304 001d 99690000 		.4byte	.LASF1251
 12305 0021 05       		.byte	0x5
 12306 0022 53       		.uleb128 0x53
 12307 0023 D74B0000 		.4byte	.LASF1252
 12308 0027 05       		.byte	0x5
 12309 0028 55       		.uleb128 0x55
 12310 0029 1F670000 		.4byte	.LASF1253
 12311 002d 00       		.byte	0
 12312              		.section	.debug_macro,"G",%progbits,wm4.ssp_11xx.h.33.af054d3d65f4cb0c078be40bb872ec37,comdat
 12313              	.Ldebug_macro41:
 12314 0000 0400     		.2byte	0x4
 12315 0002 00       		.byte	0
 12316 0003 05       		.byte	0x5
 12317 0004 21       		.uleb128 0x21
 12318 0005 4B490000 		.4byte	.LASF1254
 12319 0009 05       		.byte	0x5
 12320 000a 40       		.uleb128 0x40
 12321 000b A06A0000 		.4byte	.LASF1255
 12322 000f 05       		.byte	0x5
 12323 0010 42       		.uleb128 0x42
 12324 0011 A9350000 		.4byte	.LASF1256
 12325 0015 05       		.byte	0x5
 12326 0016 44       		.uleb128 0x44
 12327 0017 A32D0000 		.4byte	.LASF1257
 12328 001b 05       		.byte	0x5
 12329 001c 46       		.uleb128 0x46
 12330 001d A5A50000 		.4byte	.LASF1258
 12331 0021 05       		.byte	0x5
 12332 0022 49       		.uleb128 0x49
 12333 0023 34280000 		.4byte	.LASF1259
 12334 0027 05       		.byte	0x5
 12335 0028 4A       		.uleb128 0x4a
 12336 0029 CE210000 		.4byte	.LASF1260
 12337 002d 05       		.byte	0x5
 12338 002e 4D       		.uleb128 0x4d
 12339 002f C3A30000 		.4byte	.LASF1261
 12340 0033 05       		.byte	0x5
 12341 0034 4E       		.uleb128 0x4e
 12342 0035 0E710000 		.4byte	.LASF1262
 12343 0039 05       		.byte	0x5
ARM GAS  /var/folders/z0/6xlwn_996xz3mwq1cgzkbq4r0000gp/T//cc3rPjEN.s 			page 233


 12344 003a 51       		.uleb128 0x51
 12345 003b FA290000 		.4byte	.LASF1263
 12346 003f 05       		.byte	0x5
 12347 0040 53       		.uleb128 0x53
 12348 0041 AF080000 		.4byte	.LASF1264
 12349 0045 05       		.byte	0x5
 12350 0046 55       		.uleb128 0x55
 12351 0047 AF080000 		.4byte	.LASF1264
 12352 004b 05       		.byte	0x5
 12353 004c 58       		.uleb128 0x58
 12354 004d FA290000 		.4byte	.LASF1263
 12355 0051 05       		.byte	0x5
 12356 0052 5F       		.uleb128 0x5f
 12357 0053 84490000 		.4byte	.LASF1265
 12358 0057 05       		.byte	0x5
 12359 0058 61       		.uleb128 0x61
 12360 0059 E74C0000 		.4byte	.LASF1266
 12361 005d 05       		.byte	0x5
 12362 005e 63       		.uleb128 0x63
 12363 005f 51370000 		.4byte	.LASF1267
 12364 0063 05       		.byte	0x5
 12365 0064 64       		.uleb128 0x64
 12366 0065 8C860000 		.4byte	.LASF1268
 12367 0069 05       		.byte	0x5
 12368 006a 67       		.uleb128 0x67
 12369 006b 91240000 		.4byte	.LASF1269
 12370 006f 05       		.byte	0x5
 12371 0070 69       		.uleb128 0x69
 12372 0071 93190000 		.4byte	.LASF1270
 12373 0075 05       		.byte	0x5
 12374 0076 6C       		.uleb128 0x6c
 12375 0077 207C0000 		.4byte	.LASF1271
 12376 007b 05       		.byte	0x5
 12377 007c 72       		.uleb128 0x72
 12378 007d B5100000 		.4byte	.LASF1272
 12379 0081 05       		.byte	0x5
 12380 0082 79       		.uleb128 0x79
 12381 0083 E8010000 		.4byte	.LASF1273
 12382 0087 05       		.byte	0x5
 12383 0088 7C       		.uleb128 0x7c
 12384 0089 E1500000 		.4byte	.LASF1274
 12385 008d 05       		.byte	0x5
 12386 008e C503     		.uleb128 0x1c5
 12387 0090 59340000 		.4byte	.LASF1275
 12388 0094 05       		.byte	0x5
 12389 0095 C603     		.uleb128 0x1c6
 12390 0097 A01D0000 		.4byte	.LASF1276
 12391 009b 05       		.byte	0x5
 12392 009c CF03     		.uleb128 0x1cf
 12393 009e 7B8A0000 		.4byte	.LASF1277
 12394 00a2 05       		.byte	0x5
 12395 00a3 D003     		.uleb128 0x1d0
 12396 00a5 5E440000 		.4byte	.LASF1278
 12397 00a9 05       		.byte	0x5
 12398 00aa D303     		.uleb128 0x1d3
 12399 00ac A4620000 		.4byte	.LASF1279
 12400 00b0 05       		.byte	0x5
ARM GAS  /var/folders/z0/6xlwn_996xz3mwq1cgzkbq4r0000gp/T//cc3rPjEN.s 			page 234


 12401 00b1 D403     		.uleb128 0x1d4
 12402 00b3 65230000 		.4byte	.LASF1280
 12403 00b7 00       		.byte	0
 12404              		.section	.debug_macro,"G",%progbits,wm4.error.h.38.ae74fe1dd9d19c80c505f1fda144fce8,comdat
 12405              	.Ldebug_macro42:
 12406 0000 0400     		.2byte	0x4
 12407 0002 00       		.byte	0
 12408 0003 05       		.byte	0x5
 12409 0004 26       		.uleb128 0x26
 12410 0005 AB6C0000 		.4byte	.LASF1282
 12411 0009 05       		.byte	0x5
 12412 000a 8401     		.uleb128 0x84
 12413 000c FEA50000 		.4byte	.LASF1283
 12414 0010 00       		.byte	0
 12415              		.section	.debug_macro,"G",%progbits,wm4.adc_11xx.h.33.6ce7433ac6b30df70a6993d01dbd513f,comdat
 12416              	.Ldebug_macro43:
 12417 0000 0400     		.2byte	0x4
 12418 0002 00       		.byte	0
 12419 0003 05       		.byte	0x5
 12420 0004 21       		.uleb128 0x21
 12421 0005 105A0000 		.4byte	.LASF1284
 12422 0009 05       		.byte	0x5
 12423 000a 2F       		.uleb128 0x2f
 12424 000b CC570000 		.4byte	.LASF1285
 12425 000f 05       		.byte	0x5
 12426 0010 40       		.uleb128 0x40
 12427 0011 F0840000 		.4byte	.LASF1286
 12428 0015 05       		.byte	0x5
 12429 0016 41       		.uleb128 0x41
 12430 0017 B0320000 		.4byte	.LASF1287
 12431 001b 05       		.byte	0x5
 12432 001c 43       		.uleb128 0x43
 12433 001d 2C5D0000 		.4byte	.LASF1288
 12434 0021 05       		.byte	0x5
 12435 0022 44       		.uleb128 0x44
 12436 0023 F2750000 		.4byte	.LASF1289
 12437 0027 05       		.byte	0x5
 12438 0028 45       		.uleb128 0x45
 12439 0029 06150000 		.4byte	.LASF1290
 12440 002d 05       		.byte	0x5
 12441 002e 46       		.uleb128 0x46
 12442 002f D72E0000 		.4byte	.LASF1291
 12443 0033 05       		.byte	0x5
 12444 0034 47       		.uleb128 0x47
 12445 0035 2A1C0000 		.4byte	.LASF1292
 12446 0039 05       		.byte	0x5
 12447 003a 48       		.uleb128 0x48
 12448 003b 7B480000 		.4byte	.LASF1293
 12449 003f 05       		.byte	0x5
 12450 0040 49       		.uleb128 0x49
 12451 0041 3C650000 		.4byte	.LASF1294
 12452 0045 05       		.byte	0x5
 12453 0046 4A       		.uleb128 0x4a
 12454 0047 9FAA0000 		.4byte	.LASF1295
 12455 004b 05       		.byte	0x5
 12456 004c 4B       		.uleb128 0x4b
 12457 004d EBA90000 		.4byte	.LASF1296
ARM GAS  /var/folders/z0/6xlwn_996xz3mwq1cgzkbq4r0000gp/T//cc3rPjEN.s 			page 235


 12458 0051 05       		.byte	0x5
 12459 0052 4C       		.uleb128 0x4c
 12460 0053 C8290000 		.4byte	.LASF1297
 12461 0057 05       		.byte	0x5
 12462 0058 4D       		.uleb128 0x4d
 12463 0059 80A10000 		.4byte	.LASF1298
 12464 005d 05       		.byte	0x5
 12465 005e 4E       		.uleb128 0x4e
 12466 005f 38840000 		.4byte	.LASF1299
 12467 0063 05       		.byte	0x5
 12468 0064 4F       		.uleb128 0x4f
 12469 0065 59510000 		.4byte	.LASF1300
 12470 0069 05       		.byte	0x5
 12471 006a 50       		.uleb128 0x50
 12472 006b 420F0000 		.4byte	.LASF1301
 12473 006f 05       		.byte	0x5
 12474 0070 51       		.uleb128 0x51
 12475 0071 288E0000 		.4byte	.LASF1302
 12476 0075 05       		.byte	0x5
 12477 0076 52       		.uleb128 0x52
 12478 0077 C2030000 		.4byte	.LASF1303
 12479 007b 00       		.byte	0
 12480              		.section	.debug_macro,"G",%progbits,wm4.i2c_11xx.h.33.2b506d1350e00a8c26e8bf006a5f9390,comdat
 12481              	.Ldebug_macro44:
 12482 0000 0400     		.2byte	0x4
 12483 0002 00       		.byte	0
 12484 0003 05       		.byte	0x5
 12485 0004 21       		.uleb128 0x21
 12486 0005 017A0000 		.4byte	.LASF1305
 12487 0009 05       		.byte	0x5
 12488 000a 46       		.uleb128 0x46
 12489 000b 84400000 		.4byte	.LASF1306
 12490 000f 05       		.byte	0x5
 12491 0010 47       		.uleb128 0x47
 12492 0011 359A0000 		.4byte	.LASF1307
 12493 0015 05       		.byte	0x5
 12494 0016 48       		.uleb128 0x48
 12495 0017 184D0000 		.4byte	.LASF1308
 12496 001b 05       		.byte	0x5
 12497 001c 49       		.uleb128 0x49
 12498 001d FB330000 		.4byte	.LASF1309
 12499 0021 05       		.byte	0x5
 12500 0022 4E       		.uleb128 0x4e
 12501 0023 2A620000 		.4byte	.LASF1310
 12502 0027 05       		.byte	0x5
 12503 0028 53       		.uleb128 0x53
 12504 0029 BF5A0000 		.4byte	.LASF1311
 12505 002d 05       		.byte	0x5
 12506 002e 54       		.uleb128 0x54
 12507 002f 33530000 		.4byte	.LASF1312
 12508 0033 05       		.byte	0x5
 12509 0034 55       		.uleb128 0x55
 12510 0035 981C0000 		.4byte	.LASF1313
 12511 0039 05       		.byte	0x5
 12512 003a 56       		.uleb128 0x56
 12513 003b 76640000 		.4byte	.LASF1314
 12514 003f 05       		.byte	0x5
ARM GAS  /var/folders/z0/6xlwn_996xz3mwq1cgzkbq4r0000gp/T//cc3rPjEN.s 			page 236


 12515 0040 57       		.uleb128 0x57
 12516 0041 11540000 		.4byte	.LASF1315
 12517 0045 05       		.byte	0x5
 12518 0046 5C       		.uleb128 0x5c
 12519 0047 70270000 		.4byte	.LASF1316
 12520 004b 05       		.byte	0x5
 12521 004c 5D       		.uleb128 0x5d
 12522 004d 57AD0000 		.4byte	.LASF1317
 12523 0051 05       		.byte	0x5
 12524 0052 5E       		.uleb128 0x5e
 12525 0053 FE970000 		.4byte	.LASF1318
 12526 0057 05       		.byte	0x5
 12527 0058 5F       		.uleb128 0x5f
 12528 0059 CD1E0000 		.4byte	.LASF1319
 12529 005d 05       		.byte	0x5
 12530 005e 60       		.uleb128 0x60
 12531 005f 2E560000 		.4byte	.LASF1320
 12532 0063 05       		.byte	0x5
 12533 0064 65       		.uleb128 0x65
 12534 0065 D22D0000 		.4byte	.LASF1321
 12535 0069 05       		.byte	0x5
 12536 006a 66       		.uleb128 0x66
 12537 006b 1E960000 		.4byte	.LASF1322
 12538 006f 05       		.byte	0x5
 12539 0070 67       		.uleb128 0x67
 12540 0071 338D0000 		.4byte	.LASF1323
 12541 0075 05       		.byte	0x5
 12542 0076 68       		.uleb128 0x68
 12543 0077 4E950000 		.4byte	.LASF1324
 12544 007b 05       		.byte	0x5
 12545 007c 69       		.uleb128 0x69
 12546 007d 14750000 		.4byte	.LASF1325
 12547 0081 05       		.byte	0x5
 12548 0082 6E       		.uleb128 0x6e
 12549 0083 E7280000 		.4byte	.LASF1326
 12550 0087 05       		.byte	0x5
 12551 0088 6F       		.uleb128 0x6f
 12552 0089 E9140000 		.4byte	.LASF1327
 12553 008d 05       		.byte	0x5
 12554 008e 74       		.uleb128 0x74
 12555 008f 02050000 		.4byte	.LASF1328
 12556 0093 05       		.byte	0x5
 12557 0094 75       		.uleb128 0x75
 12558 0095 16280000 		.4byte	.LASF1329
 12559 0099 05       		.byte	0x5
 12560 009a 7A       		.uleb128 0x7a
 12561 009b 7A630000 		.4byte	.LASF1330
 12562 009f 05       		.byte	0x5
 12563 00a0 7B       		.uleb128 0x7b
 12564 00a1 F1170000 		.4byte	.LASF1331
 12565 00a5 05       		.byte	0x5
 12566 00a6 7C       		.uleb128 0x7c
 12567 00a7 9D7E0000 		.4byte	.LASF1332
 12568 00ab 05       		.byte	0x5
 12569 00ac 7D       		.uleb128 0x7d
 12570 00ad 4E480000 		.4byte	.LASF1333
 12571 00b1 05       		.byte	0x5
ARM GAS  /var/folders/z0/6xlwn_996xz3mwq1cgzkbq4r0000gp/T//cc3rPjEN.s 			page 237


 12572 00b2 7E       		.uleb128 0x7e
 12573 00b3 B0840000 		.4byte	.LASF1334
 12574 00b7 05       		.byte	0x5
 12575 00b8 7F       		.uleb128 0x7f
 12576 00b9 7D510000 		.4byte	.LASF1335
 12577 00bd 05       		.byte	0x5
 12578 00be 8001     		.uleb128 0x80
 12579 00c0 F04F0000 		.4byte	.LASF1336
 12580 00c4 05       		.byte	0x5
 12581 00c5 8501     		.uleb128 0x85
 12582 00c7 887A0000 		.4byte	.LASF1337
 12583 00cb 05       		.byte	0x5
 12584 00cc 8601     		.uleb128 0x86
 12585 00ce 72020000 		.4byte	.LASF1338
 12586 00d2 05       		.byte	0x5
 12587 00d3 8701     		.uleb128 0x87
 12588 00d5 E2A40000 		.4byte	.LASF1339
 12589 00d9 05       		.byte	0x5
 12590 00da 8801     		.uleb128 0x88
 12591 00dc 07910000 		.4byte	.LASF1340
 12592 00e0 05       		.byte	0x5
 12593 00e1 8901     		.uleb128 0x89
 12594 00e3 884C0000 		.4byte	.LASF1341
 12595 00e7 05       		.byte	0x5
 12596 00e8 8A01     		.uleb128 0x8a
 12597 00ea 76350000 		.4byte	.LASF1342
 12598 00ee 05       		.byte	0x5
 12599 00ef 8B01     		.uleb128 0x8b
 12600 00f1 DE780000 		.4byte	.LASF1343
 12601 00f5 05       		.byte	0x5
 12602 00f6 9001     		.uleb128 0x90
 12603 00f8 F07C0000 		.4byte	.LASF1344
 12604 00fc 05       		.byte	0x5
 12605 00fd 9101     		.uleb128 0x91
 12606 00ff 4FA20000 		.4byte	.LASF1345
 12607 0103 05       		.byte	0x5
 12608 0104 9301     		.uleb128 0x93
 12609 0106 13790000 		.4byte	.LASF1346
 12610 010a 05       		.byte	0x5
 12611 010b 9401     		.uleb128 0x94
 12612 010d F3660000 		.4byte	.LASF1347
 12613 0111 05       		.byte	0x5
 12614 0112 9601     		.uleb128 0x96
 12615 0114 C1480000 		.4byte	.LASF1348
 12616 0118 05       		.byte	0x5
 12617 0119 9701     		.uleb128 0x97
 12618 011b EB1A0000 		.4byte	.LASF1349
 12619 011f 05       		.byte	0x5
 12620 0120 9801     		.uleb128 0x98
 12621 0122 2C510000 		.4byte	.LASF1350
 12622 0126 05       		.byte	0x5
 12623 0127 9901     		.uleb128 0x99
 12624 0129 5E780000 		.4byte	.LASF1351
 12625 012d 05       		.byte	0x5
 12626 012e 9A01     		.uleb128 0x9a
 12627 0130 227F0000 		.4byte	.LASF1352
 12628 0134 05       		.byte	0x5
ARM GAS  /var/folders/z0/6xlwn_996xz3mwq1cgzkbq4r0000gp/T//cc3rPjEN.s 			page 238


 12629 0135 A001     		.uleb128 0xa0
 12630 0137 A6940000 		.4byte	.LASF1353
 12631 013b 05       		.byte	0x5
 12632 013c A101     		.uleb128 0xa1
 12633 013e 6B850000 		.4byte	.LASF1354
 12634 0142 05       		.byte	0x5
 12635 0143 A301     		.uleb128 0xa3
 12636 0145 EB6C0000 		.4byte	.LASF1355
 12637 0149 05       		.byte	0x5
 12638 014a A401     		.uleb128 0xa4
 12639 014c EF550000 		.4byte	.LASF1356
 12640 0150 05       		.byte	0x5
 12641 0151 A501     		.uleb128 0xa5
 12642 0153 F4210000 		.4byte	.LASF1357
 12643 0157 05       		.byte	0x5
 12644 0158 A601     		.uleb128 0xa6
 12645 015a C5440000 		.4byte	.LASF1358
 12646 015e 05       		.byte	0x5
 12647 015f AB01     		.uleb128 0xab
 12648 0161 66A30000 		.4byte	.LASF1359
 12649 0165 05       		.byte	0x5
 12650 0166 AC01     		.uleb128 0xac
 12651 0168 449A0000 		.4byte	.LASF1360
 12652 016c 05       		.byte	0x5
 12653 016d B201     		.uleb128 0xb2
 12654 016f 6C6C0000 		.4byte	.LASF1361
 12655 0173 05       		.byte	0x5
 12656 0174 B301     		.uleb128 0xb3
 12657 0176 B74B0000 		.4byte	.LASF1362
 12658 017a 05       		.byte	0x5
 12659 017b B401     		.uleb128 0xb4
 12660 017d 6A3B0000 		.4byte	.LASF1363
 12661 0181 05       		.byte	0x5
 12662 0182 B501     		.uleb128 0xb5
 12663 0184 C36D0000 		.4byte	.LASF1364
 12664 0188 05       		.byte	0x5
 12665 0189 BA01     		.uleb128 0xba
 12666 018b 084B0000 		.4byte	.LASF1365
 12667 018f 05       		.byte	0x5
 12668 0190 BF01     		.uleb128 0xbf
 12669 0192 70650000 		.4byte	.LASF1366
 12670 0196 05       		.byte	0x5
 12671 0197 C001     		.uleb128 0xc0
 12672 0199 2F660000 		.4byte	.LASF1367
 12673 019d 05       		.byte	0x5
 12674 019e C501     		.uleb128 0xc5
 12675 01a0 BC1A0000 		.4byte	.LASF1368
 12676 01a4 05       		.byte	0x5
 12677 01a5 CA01     		.uleb128 0xca
 12678 01a7 3D240000 		.4byte	.LASF1369
 12679 01ab 05       		.byte	0x5
 12680 01ac CF01     		.uleb128 0xcf
 12681 01ae 15490000 		.4byte	.LASF1370
 12682 01b2 05       		.byte	0x5
 12683 01b3 D401     		.uleb128 0xd4
 12684 01b5 B8150000 		.4byte	.LASF1371
 12685 01b9 05       		.byte	0x5
ARM GAS  /var/folders/z0/6xlwn_996xz3mwq1cgzkbq4r0000gp/T//cc3rPjEN.s 			page 239


 12686 01ba D501     		.uleb128 0xd5
 12687 01bc E9100000 		.4byte	.LASF1372
 12688 01c0 05       		.byte	0x5
 12689 01c1 D601     		.uleb128 0xd6
 12690 01c3 609E0000 		.4byte	.LASF1373
 12691 01c7 05       		.byte	0x5
 12692 01c8 DB01     		.uleb128 0xdb
 12693 01ca 684D0000 		.4byte	.LASF1374
 12694 01ce 05       		.byte	0x5
 12695 01cf DC01     		.uleb128 0xdc
 12696 01d1 A8410000 		.4byte	.LASF1375
 12697 01d5 05       		.byte	0x5
 12698 01d6 DD01     		.uleb128 0xdd
 12699 01d8 FA2A0000 		.4byte	.LASF1376
 12700 01dc 05       		.byte	0x5
 12701 01dd DE01     		.uleb128 0xde
 12702 01df E74D0000 		.4byte	.LASF1377
 12703 01e3 05       		.byte	0x5
 12704 01e4 DF01     		.uleb128 0xdf
 12705 01e6 EBAB0000 		.4byte	.LASF1378
 12706 01ea 05       		.byte	0x5
 12707 01eb E001     		.uleb128 0xe0
 12708 01ed DD2C0000 		.4byte	.LASF1379
 12709 01f1 05       		.byte	0x5
 12710 01f2 E101     		.uleb128 0xe1
 12711 01f4 2A620000 		.4byte	.LASF1310
 12712 01f8 05       		.byte	0x5
 12713 01f9 E301     		.uleb128 0xe3
 12714 01fb 50000000 		.4byte	.LASF1380
 12715 01ff 05       		.byte	0x5
 12716 0200 E401     		.uleb128 0xe4
 12717 0202 E0050000 		.4byte	.LASF1381
 12718 0206 05       		.byte	0x5
 12719 0207 E601     		.uleb128 0xe6
 12720 0209 1D000000 		.4byte	.LASF1382
 12721 020d 05       		.byte	0x5
 12722 020e EB01     		.uleb128 0xeb
 12723 0210 FDAB0000 		.4byte	.LASF1383
 12724 0214 05       		.byte	0x5
 12725 0215 EC01     		.uleb128 0xec
 12726 0217 A2820000 		.4byte	.LASF1384
 12727 021b 00       		.byte	0
 12728              		.section	.debug_macro,"G",%progbits,wm4.ccand_11xx.h.33.99627f4b529fecdc77b0877ab6fe5266,comdat
 12729              	.Ldebug_macro45:
 12730 0000 0400     		.2byte	0x4
 12731 0002 00       		.byte	0
 12732 0003 05       		.byte	0x5
 12733 0004 21       		.uleb128 0x21
 12734 0005 CF7A0000 		.4byte	.LASF1385
 12735 0009 05       		.byte	0x5
 12736 000a 6E       		.uleb128 0x6e
 12737 000b 4F120000 		.4byte	.LASF1386
 12738 000f 05       		.byte	0x5
 12739 0010 6F       		.uleb128 0x6f
 12740 0011 DF450000 		.4byte	.LASF1387
 12741 0015 05       		.byte	0x5
 12742 0016 70       		.uleb128 0x70
ARM GAS  /var/folders/z0/6xlwn_996xz3mwq1cgzkbq4r0000gp/T//cc3rPjEN.s 			page 240


 12743 0017 CBA00000 		.4byte	.LASF1388
 12744 001b 05       		.byte	0x5
 12745 001c 71       		.uleb128 0x71
 12746 001d E7390000 		.4byte	.LASF1389
 12747 0021 05       		.byte	0x5
 12748 0022 72       		.uleb128 0x72
 12749 0023 0A030000 		.4byte	.LASF1390
 12750 0027 05       		.byte	0x5
 12751 0028 73       		.uleb128 0x73
 12752 0029 90640000 		.4byte	.LASF1391
 12753 002d 05       		.byte	0x5
 12754 002e 74       		.uleb128 0x74
 12755 002f A24E0000 		.4byte	.LASF1392
 12756 0033 05       		.byte	0x5
 12757 0034 75       		.uleb128 0x75
 12758 0035 148C0000 		.4byte	.LASF1393
 12759 0039 05       		.byte	0x5
 12760 003a 76       		.uleb128 0x76
 12761 003b 62160000 		.4byte	.LASF1394
 12762 003f 05       		.byte	0x5
 12763 0040 77       		.uleb128 0x77
 12764 0041 DB160000 		.4byte	.LASF1395
 12765 0045 05       		.byte	0x5
 12766 0046 7C       		.uleb128 0x7c
 12767 0047 A2A10000 		.4byte	.LASF1396
 12768 004b 05       		.byte	0x5
 12769 004c 7D       		.uleb128 0x7d
 12770 004d C3400000 		.4byte	.LASF1397
 12771 0051 05       		.byte	0x5
 12772 0052 7E       		.uleb128 0x7e
 12773 0053 996D0000 		.4byte	.LASF1398
 12774 0057 05       		.byte	0x5
 12775 0058 7F       		.uleb128 0x7f
 12776 0059 9A830000 		.4byte	.LASF1399
 12777 005d 05       		.byte	0x5
 12778 005e 9101     		.uleb128 0x91
 12779 0060 845A0000 		.4byte	.LASF1400
 12780 0064 05       		.byte	0x5
 12781 0065 9201     		.uleb128 0x92
 12782 0067 E4730000 		.4byte	.LASF1401
 12783 006b 05       		.byte	0x5
 12784 006c 9301     		.uleb128 0x93
 12785 006e 32930000 		.4byte	.LASF1402
 12786 0072 05       		.byte	0x5
 12787 0073 9401     		.uleb128 0x94
 12788 0075 08590000 		.4byte	.LASF1403
 12789 0079 05       		.byte	0x5
 12790 007a 9501     		.uleb128 0x95
 12791 007c 561A0000 		.4byte	.LASF1404
 12792 0080 05       		.byte	0x5
 12793 0081 9601     		.uleb128 0x96
 12794 0083 129D0000 		.4byte	.LASF1405
 12795 0087 05       		.byte	0x5
 12796 0088 9701     		.uleb128 0x97
 12797 008a 282A0000 		.4byte	.LASF1406
 12798 008e 05       		.byte	0x5
 12799 008f 9801     		.uleb128 0x98
ARM GAS  /var/folders/z0/6xlwn_996xz3mwq1cgzkbq4r0000gp/T//cc3rPjEN.s 			page 241


 12800 0091 91380000 		.4byte	.LASF1407
 12801 0095 05       		.byte	0x5
 12802 0096 9901     		.uleb128 0x99
 12803 0098 781F0000 		.4byte	.LASF1408
 12804 009c 05       		.byte	0x5
 12805 009d 9A01     		.uleb128 0x9a
 12806 009f B5880000 		.4byte	.LASF1409
 12807 00a3 05       		.byte	0x5
 12808 00a4 9B01     		.uleb128 0x9b
 12809 00a6 93A00000 		.4byte	.LASF1410
 12810 00aa 05       		.byte	0x5
 12811 00ab 9C01     		.uleb128 0x9c
 12812 00ad 5B360000 		.4byte	.LASF1411
 12813 00b1 05       		.byte	0x5
 12814 00b2 9D01     		.uleb128 0x9d
 12815 00b4 7B340000 		.4byte	.LASF1412
 12816 00b8 05       		.byte	0x5
 12817 00b9 9E01     		.uleb128 0x9e
 12818 00bb 586F0000 		.4byte	.LASF1413
 12819 00bf 05       		.byte	0x5
 12820 00c0 9F01     		.uleb128 0x9f
 12821 00c2 612A0000 		.4byte	.LASF1414
 12822 00c6 05       		.byte	0x5
 12823 00c7 A901     		.uleb128 0xa9
 12824 00c9 F4430000 		.4byte	.LASF1415
 12825 00cd 05       		.byte	0x5
 12826 00ce AA01     		.uleb128 0xaa
 12827 00d0 FF990000 		.4byte	.LASF1416
 12828 00d4 05       		.byte	0x5
 12829 00d5 AB01     		.uleb128 0xab
 12830 00d7 E7A00000 		.4byte	.LASF1417
 12831 00db 05       		.byte	0x5
 12832 00dc AC01     		.uleb128 0xac
 12833 00de 2C6E0000 		.4byte	.LASF1418
 12834 00e2 05       		.byte	0x5
 12835 00e3 AD01     		.uleb128 0xad
 12836 00e5 6D200000 		.4byte	.LASF1419
 12837 00e9 05       		.byte	0x5
 12838 00ea AE01     		.uleb128 0xae
 12839 00ec 82380000 		.4byte	.LASF1420
 12840 00f0 05       		.byte	0x5
 12841 00f1 AF01     		.uleb128 0xaf
 12842 00f3 F3040000 		.4byte	.LASF1421
 12843 00f7 05       		.byte	0x5
 12844 00f8 C401     		.uleb128 0xc4
 12845 00fa 7B190000 		.4byte	.LASF1422
 12846 00fe 05       		.byte	0x5
 12847 00ff C501     		.uleb128 0xc5
 12848 0101 E4970000 		.4byte	.LASF1423
 12849 0105 05       		.byte	0x5
 12850 0106 C601     		.uleb128 0xc6
 12851 0108 15970000 		.4byte	.LASF1424
 12852 010c 05       		.byte	0x5
 12853 010d C901     		.uleb128 0xc9
 12854 010f 92360000 		.4byte	.LASF1425
 12855 0113 05       		.byte	0x5
 12856 0114 CA01     		.uleb128 0xca
ARM GAS  /var/folders/z0/6xlwn_996xz3mwq1cgzkbq4r0000gp/T//cc3rPjEN.s 			page 242


 12857 0116 F13B0000 		.4byte	.LASF1426
 12858 011a 05       		.byte	0x5
 12859 011b CB01     		.uleb128 0xcb
 12860 011d 36A60000 		.4byte	.LASF1427
 12861 0121 05       		.byte	0x5
 12862 0122 E501     		.uleb128 0xe5
 12863 0124 BE520000 		.4byte	.LASF1428
 12864 0128 00       		.byte	0
 12865              		.section	.debug_macro,"G",%progbits,wm4.config.h.2.39c26dd6e247091a849ca9552389eb06,comdat
 12866              	.Ldebug_macro46:
 12867 0000 0400     		.2byte	0x4
 12868 0002 00       		.byte	0
 12869 0003 05       		.byte	0x5
 12870 0004 02       		.uleb128 0x2
 12871 0005 ADAC0000 		.4byte	.LASF1431
 12872 0009 05       		.byte	0x5
 12873 000a 04       		.uleb128 0x4
 12874 000b 3B480000 		.4byte	.LASF1432
 12875 000f 05       		.byte	0x5
 12876 0010 05       		.uleb128 0x5
 12877 0011 21200000 		.4byte	.LASF1433
 12878 0015 05       		.byte	0x5
 12879 0016 06       		.uleb128 0x6
 12880 0017 AF000000 		.4byte	.LASF1434
 12881 001b 05       		.byte	0x5
 12882 001c 08       		.uleb128 0x8
 12883 001d CDA90000 		.4byte	.LASF1435
 12884 0021 05       		.byte	0x5
 12885 0022 09       		.uleb128 0x9
 12886 0023 D1530000 		.4byte	.LASF1436
 12887 0027 05       		.byte	0x5
 12888 0028 0A       		.uleb128 0xa
 12889 0029 329D0000 		.4byte	.LASF1437
 12890 002d 05       		.byte	0x5
 12891 002e 0B       		.uleb128 0xb
 12892 002f FF710000 		.4byte	.LASF1438
 12893 0033 05       		.byte	0x5
 12894 0034 0D       		.uleb128 0xd
 12895 0035 561B0000 		.4byte	.LASF1439
 12896 0039 05       		.byte	0x5
 12897 003a 0E       		.uleb128 0xe
 12898 003b 962F0000 		.4byte	.LASF1440
 12899 003f 05       		.byte	0x5
 12900 0040 10       		.uleb128 0x10
 12901 0041 2F380000 		.4byte	.LASF1441
 12902 0045 05       		.byte	0x5
 12903 0046 11       		.uleb128 0x11
 12904 0047 641F0000 		.4byte	.LASF1442
 12905 004b 05       		.byte	0x5
 12906 004c 13       		.uleb128 0x13
 12907 004d 698B0000 		.4byte	.LASF1443
 12908 0051 05       		.byte	0x5
 12909 0052 14       		.uleb128 0x14
 12910 0053 54250000 		.4byte	.LASF1444
 12911 0057 05       		.byte	0x5
 12912 0058 15       		.uleb128 0x15
 12913 0059 3D680000 		.4byte	.LASF1445
ARM GAS  /var/folders/z0/6xlwn_996xz3mwq1cgzkbq4r0000gp/T//cc3rPjEN.s 			page 243


 12914 005d 05       		.byte	0x5
 12915 005e 16       		.uleb128 0x16
 12916 005f D6620000 		.4byte	.LASF1446
 12917 0063 05       		.byte	0x5
 12918 0064 17       		.uleb128 0x17
 12919 0065 11160000 		.4byte	.LASF1447
 12920 0069 05       		.byte	0x5
 12921 006a 18       		.uleb128 0x18
 12922 006b 107A0000 		.4byte	.LASF1448
 12923 006f 05       		.byte	0x5
 12924 0070 19       		.uleb128 0x19
 12925 0071 969B0000 		.4byte	.LASF1449
 12926 0075 05       		.byte	0x5
 12927 0076 1A       		.uleb128 0x1a
 12928 0077 5B3A0000 		.4byte	.LASF1450
 12929 007b 05       		.byte	0x5
 12930 007c 1B       		.uleb128 0x1b
 12931 007d 1F2D0000 		.4byte	.LASF1451
 12932 0081 05       		.byte	0x5
 12933 0082 1C       		.uleb128 0x1c
 12934 0083 189A0000 		.4byte	.LASF1452
 12935 0087 05       		.byte	0x5
 12936 0088 1D       		.uleb128 0x1d
 12937 0089 18A00000 		.4byte	.LASF1453
 12938 008d 05       		.byte	0x5
 12939 008e 1E       		.uleb128 0x1e
 12940 008f A7980000 		.4byte	.LASF1454
 12941 0093 05       		.byte	0x5
 12942 0094 20       		.uleb128 0x20
 12943 0095 B68E0000 		.4byte	.LASF1455
 12944 0099 05       		.byte	0x5
 12945 009a 21       		.uleb128 0x21
 12946 009b F7310000 		.4byte	.LASF1456
 12947 009f 05       		.byte	0x5
 12948 00a0 22       		.uleb128 0x22
 12949 00a1 600E0000 		.4byte	.LASF1457
 12950 00a5 05       		.byte	0x5
 12951 00a6 23       		.uleb128 0x23
 12952 00a7 A7360000 		.4byte	.LASF1458
 12953 00ab 05       		.byte	0x5
 12954 00ac 24       		.uleb128 0x24
 12955 00ad 01630000 		.4byte	.LASF1459
 12956 00b1 05       		.byte	0x5
 12957 00b2 25       		.uleb128 0x25
 12958 00b3 72080000 		.4byte	.LASF1460
 12959 00b7 05       		.byte	0x5
 12960 00b8 26       		.uleb128 0x26
 12961 00b9 A2030000 		.4byte	.LASF1461
 12962 00bd 05       		.byte	0x5
 12963 00be 27       		.uleb128 0x27
 12964 00bf 154E0000 		.4byte	.LASF1462
 12965 00c3 05       		.byte	0x5
 12966 00c4 28       		.uleb128 0x28
 12967 00c5 1D840000 		.4byte	.LASF1463
 12968 00c9 05       		.byte	0x5
 12969 00ca 29       		.uleb128 0x29
 12970 00cb F6160000 		.4byte	.LASF1464
ARM GAS  /var/folders/z0/6xlwn_996xz3mwq1cgzkbq4r0000gp/T//cc3rPjEN.s 			page 244


 12971 00cf 05       		.byte	0x5
 12972 00d0 2A       		.uleb128 0x2a
 12973 00d1 1E210000 		.4byte	.LASF1465
 12974 00d5 05       		.byte	0x5
 12975 00d6 2B       		.uleb128 0x2b
 12976 00d7 C1980000 		.4byte	.LASF1466
 12977 00db 05       		.byte	0x5
 12978 00dc 2D       		.uleb128 0x2d
 12979 00dd A60E0000 		.4byte	.LASF1467
 12980 00e1 05       		.byte	0x5
 12981 00e2 2E       		.uleb128 0x2e
 12982 00e3 F18C0000 		.4byte	.LASF1468
 12983 00e7 05       		.byte	0x5
 12984 00e8 30       		.uleb128 0x30
 12985 00e9 88810000 		.4byte	.LASF1469
 12986 00ed 05       		.byte	0x5
 12987 00ee 31       		.uleb128 0x31
 12988 00ef 4CA70000 		.4byte	.LASF1470
 12989 00f3 00       		.byte	0
 12990              		.section	.debug_line,"",%progbits
 12991              	.Ldebug_line0:
 12992 0000 9E070000 		.section	.debug_str,"MS",%progbits,1
 12992      0200C104 
 12992      00000201 
 12992      FB0E0D00 
 12992      01010101 
 12993              	.LASF1540:
 12994 0000 656C636F 		.ascii	"elcon_is_input_voltage_wrong\000"
 12994      6E5F6973 
 12994      5F696E70 
 12994      75745F76 
 12994      6F6C7461 
 12995              	.LASF1382:
 12996 001d 4932435F 		.ascii	"I2C_CheckError(ErrorCode) (ErrorCode & 0x10000000)\000"
 12996      43686563 
 12996      6B457272 
 12996      6F722845 
 12996      72726F72 
 12997              	.LASF1380:
 12998 0050 4932435F 		.ascii	"I2C_ERR (0x10000000)\000"
 12998      45525220 
 12998      28307831 
 12998      30303030 
 12998      30303029 
 12999              	.LASF251:
 13000 0065 5F5F4C41 		.ascii	"__LACCUM_EPSILON__ 0x1P-31LK\000"
 13000      4343554D 
 13000      5F455053 
 13000      494C4F4E 
 13000      5F5F2030 
 13001              	.LASF329:
 13002 0082 5F5F7468 		.ascii	"__thumb__ 1\000"
 13002      756D625F 
 13002      5F203100 
 13003              	.LASF242:
 13004 008e 5F5F5541 		.ascii	"__UACCUM_FBIT__ 16\000"
 13004      4343554D 
ARM GAS  /var/folders/z0/6xlwn_996xz3mwq1cgzkbq4r0000gp/T//cc3rPjEN.s 			page 245


 13004      5F464249 
 13004      545F5F20 
 13004      313600
 13005              	.LASF328:
 13006 00a1 5F5F4150 		.ascii	"__APCS_32__ 1\000"
 13006      43535F33 
 13006      325F5F20 
 13006      3100
 13007              	.LASF1434:
 13008 00af 4D41585F 		.ascii	"MAX_THERMISTORS_PER_MODULE 24\000"
 13008      54484552 
 13008      4D495354 
 13008      4F52535F 
 13008      5045525F 
 13009              	.LASF211:
 13010 00cd 5F5F4C46 		.ascii	"__LFRACT_EPSILON__ 0x1P-31LR\000"
 13010      52414354 
 13010      5F455053 
 13010      494C4F4E 
 13010      5F5F2030 
 13011              	.LASF28:
 13012 00ea 5F5F464C 		.ascii	"__FLOAT_WORD_ORDER__ __ORDER_LITTLE_ENDIAN__\000"
 13012      4F41545F 
 13012      574F5244 
 13012      5F4F5244 
 13012      45525F5F 
 13013              	.LASF845:
 13014 0117 4B45595F 		.ascii	"KEY_HT 9\000"
 13014      48542039 
 13014      00
 13015              	.LASF694:
 13016 0120 616C6C6F 		.ascii	"alloca\000"
 13016      636100
 13017              	.LASF1099:
 13018 0127 4D445F49 		.ascii	"MD_INV (0x1 << 6)\000"
 13018      4E562028 
 13018      30783120 
 13018      3C3C2036 
 13018      2900
 13019              	.LASF1617:
 13020 0139 636F6E73 		.ascii	"console_init\000"
 13020      6F6C655F 
 13020      696E6974 
 13020      00
 13021              	.LASF858:
 13022 0146 4B45595F 		.ascii	"KEY_SYN 22\000"
 13022      53594E20 
 13022      323200
 13023              	.LASF557:
 13024 0151 5F524545 		.ascii	"_REENT_L64A_BUF(ptr) ((ptr)->_new._reent._l64a_buf)"
 13024      4E545F4C 
 13024      3634415F 
 13024      42554628 
 13024      70747229 
 13025 0184 00       		.ascii	"\000"
 13026              	.LASF147:
 13027 0185 5F5F4442 		.ascii	"__DBL_EPSILON__ ((double)2.2204460492503131e-16L)\000"
ARM GAS  /var/folders/z0/6xlwn_996xz3mwq1cgzkbq4r0000gp/T//cc3rPjEN.s 			page 246


 13027      4C5F4550 
 13027      53494C4F 
 13027      4E5F5F20 
 13027      2828646F 
 13028              	.LASF1539:
 13029 01b7 656C636F 		.ascii	"elcon_over_temp_protection_on\000"
 13029      6E5F6F76 
 13029      65725F74 
 13029      656D705F 
 13029      70726F74 
 13030              	.LASF243:
 13031 01d5 5F5F5541 		.ascii	"__UACCUM_IBIT__ 16\000"
 13031      4343554D 
 13031      5F494249 
 13031      545F5F20 
 13031      313600
 13032              	.LASF1273:
 13033 01e8 5353505F 		.ascii	"SSP_SR_BITMASK ((uint32_t) (0x1F))\000"
 13033      53525F42 
 13033      49544D41 
 13033      534B2028 
 13033      2875696E 
 13034              	.LASF1570:
 13035 020b 636F6D6D 		.ascii	"command_label_t\000"
 13035      616E645F 
 13035      6C616265 
 13035      6C5F7400 
 13036              	.LASF1198:
 13037 021b 55415254 		.ascii	"UART_LSR_RXFE (1 << 7)\000"
 13037      5F4C5352 
 13037      5F525846 
 13037      45202831 
 13037      203C3C20 
 13038              	.LASF920:
 13039 0232 5343425F 		.ascii	"SCB_CPUID_IMPLEMENTER_Msk (0xFFUL << SCB_CPUID_IMPL"
 13039      43505549 
 13039      445F494D 
 13039      504C454D 
 13039      454E5445 
 13040 0265 454D454E 		.ascii	"EMENTER_Pos)\000"
 13040      5445525F 
 13040      506F7329 
 13040      00
 13041              	.LASF1338:
 13042 0272 4932435F 		.ascii	"I2C_I2STAT_M_RX_RESTART ((0x10))\000"
 13042      49325354 
 13042      41545F4D 
 13042      5F52585F 
 13042      52455354 
 13043              	.LASF844:
 13044 0293 4B45595F 		.ascii	"KEY_BS 8\000"
 13044      42532038 
 13044      00
 13045              	.LASF110:
 13046 029c 5F5F494E 		.ascii	"__INT_FAST16_MAX__ 0x7fffffff\000"
 13046      545F4641 
 13046      53543136 
ARM GAS  /var/folders/z0/6xlwn_996xz3mwq1cgzkbq4r0000gp/T//cc3rPjEN.s 			page 247


 13046      5F4D4158 
 13046      5F5F2030 
 13047              	.LASF736:
 13048 02ba 5F5F4C45 		.ascii	"__LEAST16 \"h\"\000"
 13048      41535431 
 13048      36202268 
 13048      2200
 13049              	.LASF1429:
 13050 02c8 5F43414E 		.ascii	"_CAN_H_ \000"
 13050      5F485F20 
 13050      00
 13051              	.LASF345:
 13052 02d1 46534145 		.ascii	"FSAE_DRIVERS 1\000"
 13052      5F445249 
 13052      56455253 
 13052      203100
 13053              	.LASF529:
 13054 02e0 5F524545 		.ascii	"_REENT_CHECK_RAND48(ptr) \000"
 13054      4E545F43 
 13054      4845434B 
 13054      5F52414E 
 13054      44343828 
 13055              	.LASF709:
 13056 02fa 5F535953 		.ascii	"_SYS__INTSUP_H \000"
 13056      5F5F494E 
 13056      54535550 
 13056      5F482000 
 13057              	.LASF1390:
 13058 030a 43414E5F 		.ascii	"CAN_ERROR_STUF 0x00000008UL\000"
 13058      4552524F 
 13058      525F5354 
 13058      55462030 
 13058      78303030 
 13059              	.LASF810:
 13060 0326 57434841 		.ascii	"WCHAR_MAX (__WCHAR_MAX__)\000"
 13060      525F4D41 
 13060      5820285F 
 13060      5F574348 
 13060      41525F4D 
 13061              	.LASF1550:
 13062 0340 6C6F775F 		.ascii	"low_side_cntr_fault\000"
 13062      73696465 
 13062      5F636E74 
 13062      725F6661 
 13062      756C7400 
 13063              	.LASF504:
 13064 0354 5F57494E 		.ascii	"_WINT_T \000"
 13064      545F5420 
 13064      00
 13065              	.LASF186:
 13066 035d 5F5F4445 		.ascii	"__DEC128_SUBNORMAL_MIN__ 0.000000000000000000000000"
 13066      43313238 
 13066      5F535542 
 13066      4E4F524D 
 13066      414C5F4D 
 13067 0390 30303030 		.ascii	"000000001E-6143DL\000"
 13067      30303030 
ARM GAS  /var/folders/z0/6xlwn_996xz3mwq1cgzkbq4r0000gp/T//cc3rPjEN.s 			page 248


 13067      31452D36 
 13067      31343344 
 13067      4C00
 13068              	.LASF1461:
 13069 03a2 4D593136 		.ascii	"MY16_BALANCE_OFF_THRESHOLD_mV 1\000"
 13069      5F42414C 
 13069      414E4345 
 13069      5F4F4646 
 13069      5F544852 
 13070              	.LASF1303:
 13071 03c2 4144435F 		.ascii	"ADC_SAMPLE_RATE_CONFIG_MASK (ADC_CR_CLKDIV(0xFF) | "
 13071      53414D50 
 13071      4C455F52 
 13071      4154455F 
 13071      434F4E46 
 13072 03f5 4144435F 		.ascii	"ADC_CR_BITACC(0x07))\000"
 13072      43525F42 
 13072      49544143 
 13072      43283078 
 13072      30372929 
 13073              	.LASF1237:
 13074 040a 55415254 		.ascii	"UART_FDR_BITMASK (0xFF)\000"
 13074      5F464452 
 13074      5F424954 
 13074      4D41534B 
 13074      20283078 
 13075              	.LASF407:
 13076 0422 5F564F49 		.ascii	"_VOID void\000"
 13076      4420766F 
 13076      696400
 13077              	.LASF532:
 13078 042d 5F524545 		.ascii	"_REENT_CHECK_ASCTIME_BUF(ptr) \000"
 13078      4E545F43 
 13078      4845434B 
 13078      5F415343 
 13078      54494D45 
 13079              	.LASF1140:
 13080 044c 55415254 		.ascii	"UART_IER_MSINT (1 << 3)\000"
 13080      5F494552 
 13080      5F4D5349 
 13080      4E542028 
 13080      31203C3C 
 13081              	.LASF1107:
 13082 0464 4D445F4F 		.ascii	"MD_OPENDRAIN (0x1 << 10)\000"
 13082      50454E44 
 13082      5241494E 
 13082      20283078 
 13082      31203C3C 
 13083              	.LASF1210:
 13084 047d 55415254 		.ascii	"UART_MSR_BITMASK (0xFF)\000"
 13084      5F4D5352 
 13084      5F424954 
 13084      4D41534B 
 13084      20283078 
 13085              	.LASF506:
 13086 0495 5F434C4F 		.ascii	"_CLOCK_T_ unsigned long\000"
 13086      434B5F54 
ARM GAS  /var/folders/z0/6xlwn_996xz3mwq1cgzkbq4r0000gp/T//cc3rPjEN.s 			page 249


 13086      5F20756E 
 13086      7369676E 
 13086      6564206C 
 13087              	.LASF711:
 13088 04ad 5F5F6861 		.ascii	"__have_longlong64 1\000"
 13088      76655F6C 
 13088      6F6E676C 
 13088      6F6E6736 
 13088      34203100 
 13089              	.LASF77:
 13090 04c1 5F5F5054 		.ascii	"__PTRDIFF_MAX__ 0x7fffffff\000"
 13090      52444946 
 13090      465F4D41 
 13090      585F5F20 
 13090      30783766 
 13091              	.LASF629:
 13092 04dc 5F546872 		.ascii	"_Thread_local __thread\000"
 13092      6561645F 
 13092      6C6F6361 
 13092      6C205F5F 
 13092      74687265 
 13093              	.LASF1421:
 13094 04f3 4F445F53 		.ascii	"OD_SEG_RW 0x60\000"
 13094      45475F52 
 13094      57203078 
 13094      363000
 13095              	.LASF1328:
 13096 0502 4932435F 		.ascii	"I2C_I2STAT_NO_INF ((0xF8))\000"
 13096      49325354 
 13096      41545F4E 
 13096      4F5F494E 
 13096      46202828 
 13097              	.LASF801:
 13098 051d 494E544D 		.ascii	"INTMAX_MAX (__INTMAX_MAX__)\000"
 13098      41585F4D 
 13098      41582028 
 13098      5F5F494E 
 13098      544D4158 
 13099              	.LASF591:
 13100 0539 5F5F474E 		.ascii	"__GNUCLIKE_BUILTIN_CONSTANT_P 1\000"
 13100      55434C49 
 13100      4B455F42 
 13100      55494C54 
 13100      494E5F43 
 13101              	.LASF409:
 13102 0559 5F455846 		.ascii	"_EXFUN(name,proto) name proto\000"
 13102      554E286E 
 13102      616D652C 
 13102      70726F74 
 13102      6F29206E 
 13103              	.LASF1623:
 13104 0577 6373625F 		.ascii	"csb_input\000"
 13104      696E7075 
 13104      7400
 13105              	.LASF650:
 13106 0581 5F5F7072 		.ascii	"__printflike(fmtarg,firstvararg) __attribute__((__f"
 13106      696E7466 
ARM GAS  /var/folders/z0/6xlwn_996xz3mwq1cgzkbq4r0000gp/T//cc3rPjEN.s 			page 250


 13106      6C696B65 
 13106      28666D74 
 13106      6172672C 
 13107 05b4 6F726D61 		.ascii	"ormat__ (__printf__, fmtarg, firstvararg)))\000"
 13107      745F5F20 
 13107      285F5F70 
 13107      72696E74 
 13107      665F5F2C 
 13108              	.LASF1381:
 13109 05e0 4932435F 		.ascii	"I2C_NAK_RECV (0x10000000 | 0x01)\000"
 13109      4E414B5F 
 13109      52454356 
 13109      20283078 
 13109      31303030 
 13110              	.LASF0:
 13111 0601 5F5F5354 		.ascii	"__STDC__ 1\000"
 13111      44435F5F 
 13111      203100
 13112              	.LASF847:
 13113 060c 4B45595F 		.ascii	"KEY_VT 11\000"
 13113      56542031 
 13113      3100
 13114              	.LASF1530:
 13115 0616 5F426F6F 		.ascii	"_Bool\000"
 13115      6C00
 13116              	.LASF223:
 13117 061c 5F5F554C 		.ascii	"__ULLFRACT_IBIT__ 0\000"
 13117      4C465241 
 13117      43545F49 
 13117      4249545F 
 13117      5F203000 
 13118              	.LASF395:
 13119 0630 5F524541 		.ascii	"_READ_WRITE_BUFSIZE_TYPE int\000"
 13119      445F5752 
 13119      4954455F 
 13119      42554653 
 13119      495A455F 
 13120              	.LASF1622:
 13121 064d 636F6E73 		.ascii	"console_output\000"
 13121      6F6C655F 
 13121      6F757470 
 13121      757400
 13122              	.LASF181:
 13123 065c 5F5F4445 		.ascii	"__DEC128_MIN_EXP__ (-6142)\000"
 13123      43313238 
 13123      5F4D494E 
 13123      5F455850 
 13123      5F5F2028 
 13124              	.LASF299:
 13125 0677 5F5F5544 		.ascii	"__UDA_FBIT__ 32\000"
 13125      415F4642 
 13125      49545F5F 
 13125      20333200 
 13126              	.LASF916:
 13127 0687 5F5F4920 		.ascii	"__I volatile const\000"
 13127      766F6C61 
 13127      74696C65 
ARM GAS  /var/folders/z0/6xlwn_996xz3mwq1cgzkbq4r0000gp/T//cc3rPjEN.s 			page 251


 13127      20636F6E 
 13127      737400
 13128              	.LASF780:
 13129 069a 494E545F 		.ascii	"INT_LEAST32_MIN (-__INT_LEAST32_MAX__ - 1)\000"
 13129      4C454153 
 13129      5433325F 
 13129      4D494E20 
 13129      282D5F5F 
 13130              	.LASF46:
 13131 06c5 5F5F5549 		.ascii	"__UINT64_TYPE__ long long unsigned int\000"
 13131      4E543634 
 13131      5F545950 
 13131      455F5F20 
 13131      6C6F6E67 
 13132              	.LASF143:
 13133 06ec 5F5F4442 		.ascii	"__DBL_MAX_10_EXP__ 308\000"
 13133      4C5F4D41 
 13133      585F3130 
 13133      5F455850 
 13133      5F5F2033 
 13134              	.LASF612:
 13135 0703 5F5F636F 		.ascii	"__const const\000"
 13135      6E737420 
 13135      636F6E73 
 13135      7400
 13136              	.LASF879:
 13137 0711 5F424F41 		.ascii	"_BOARD_H_ \000"
 13137      52445F48 
 13137      5F2000
 13138              	.LASF1118:
 13139 071c 54494D45 		.ascii	"TIMER_MATCH_INT(n) (_BIT((n) & 0x0F))\000"
 13139      525F4D41 
 13139      5443485F 
 13139      494E5428 
 13139      6E292028 
 13140              	.LASF116:
 13141 0742 5F5F5549 		.ascii	"__UINT_FAST64_MAX__ 0xffffffffffffffffULL\000"
 13141      4E545F46 
 13141      41535436 
 13141      345F4D41 
 13141      585F5F20 
 13142              	.LASF702:
 13143 076c 5F4D4943 		.ascii	"_MICRORL_H_ \000"
 13143      524F524C 
 13143      5F485F20 
 13143      00
 13144              	.LASF32:
 13145 0779 5F5F5743 		.ascii	"__WCHAR_TYPE__ unsigned int\000"
 13145      4841525F 
 13145      54595045 
 13145      5F5F2075 
 13145      6E736967 
 13146              	.LASF587:
 13147 0795 5F5F474E 		.ascii	"__GNUCLIKE___TYPEOF 1\000"
 13147      55434C49 
 13147      4B455F5F 
 13147      5F545950 
ARM GAS  /var/folders/z0/6xlwn_996xz3mwq1cgzkbq4r0000gp/T//cc3rPjEN.s 			page 252


 13147      454F4620 
 13148              	.LASF290:
 13149 07ab 5F5F5341 		.ascii	"__SA_IBIT__ 16\000"
 13149      5F494249 
 13149      545F5F20 
 13149      313600
 13150              	.LASF817:
 13151 07ba 494E5433 		.ascii	"INT32_C(x) __INT32_C(x)\000"
 13151      325F4328 
 13151      7829205F 
 13151      5F494E54 
 13151      33325F43 
 13152              	.LASF1199:
 13153 07d2 55415254 		.ascii	"UART_LSR_TXFE (1 << 8)\000"
 13153      5F4C5352 
 13153      5F545846 
 13153      45202831 
 13153      203C3C20 
 13154              	.LASF1105:
 13155 07e9 4D445F53 		.ascii	"MD_STDI2C (0x1 << 8)\000"
 13155      54444932 
 13155      43202830 
 13155      7831203C 
 13155      3C203829 
 13156              	.LASF552:
 13157 07fe 5F524545 		.ascii	"_REENT_MBRLEN_STATE(ptr) ((ptr)->_new._reent._mbrle"
 13157      4E545F4D 
 13157      42524C45 
 13157      4E5F5354 
 13157      41544528 
 13158 0831 6E5F7374 		.ascii	"n_state)\000"
 13158      61746529 
 13158      00
 13159              	.LASF340:
 13160 083a 5F5F454C 		.ascii	"__ELF__ 1\000"
 13160      465F5F20 
 13160      3100
 13161              	.LASF15:
 13162 0844 5F5F5349 		.ascii	"__SIZEOF_LONG__ 4\000"
 13162      5A454F46 
 13162      5F4C4F4E 
 13162      475F5F20 
 13162      3400
 13163              	.LASF730:
 13164 0856 5F5F494E 		.ascii	"__INT64 \"ll\"\000"
 13164      54363420 
 13164      226C6C22 
 13164      00
 13165              	.LASF503:
 13166 0863 5F5F6E65 		.ascii	"__need_wint_t \000"
 13166      65645F77 
 13166      696E745F 
 13166      742000
 13167              	.LASF1460:
 13168 0872 4D593136 		.ascii	"MY16_BALANCE_ON_THRESHOLD_mV 4\000"
 13168      5F42414C 
 13168      414E4345 
ARM GAS  /var/folders/z0/6xlwn_996xz3mwq1cgzkbq4r0000gp/T//cc3rPjEN.s 			page 253


 13168      5F4F4E5F 
 13168      54485245 
 13169              	.LASF840:
 13170 0891 4B45595F 		.ascii	"KEY_EOT 4\000"
 13170      454F5420 
 13170      3400
 13171              	.LASF1629:
 13172 089b 4353425F 		.ascii	"CSB_INIT_MODE_NAMES\000"
 13172      494E4954 
 13172      5F4D4F44 
 13172      455F4E41 
 13172      4D455300 
 13173              	.LASF1264:
 13174 08af 5353505F 		.ascii	"SSP_CR0_BITMASK ((uint32_t) (0xFFFF))\000"
 13174      4352305F 
 13174      4249544D 
 13174      41534B20 
 13174      28287569 
 13175              	.LASF819:
 13176 08d5 494E5436 		.ascii	"INT64_C(x) __INT64_C(x)\000"
 13176      345F4328 
 13176      7829205F 
 13176      5F494E54 
 13176      36345F43 
 13177              	.LASF914:
 13178 08ed 5F5F434F 		.ascii	"__CORE_CMFUNC_H \000"
 13178      52455F43 
 13178      4D46554E 
 13178      435F4820 
 13178      00
 13179              	.LASF454:
 13180 08fe 5F5F5743 		.ascii	"__WCHAR_T__ \000"
 13180      4841525F 
 13180      545F5F20 
 13180      00
 13181              	.LASF928:
 13182 090b 5343425F 		.ascii	"SCB_CPUID_REVISION_Msk (0xFUL << SCB_CPUID_REVISION"
 13182      43505549 
 13182      445F5245 
 13182      56495349 
 13182      4F4E5F4D 
 13183 093e 5F506F73 		.ascii	"_Pos)\000"
 13183      2900
 13184              	.LASF1193:
 13185 0944 55415254 		.ascii	"UART_LSR_PE (1 << 2)\000"
 13185      5F4C5352 
 13185      5F504520 
 13185      2831203C 
 13185      3C203229 
 13186              	.LASF408:
 13187 0959 5F455846 		.ascii	"_EXFUN_NOTHROW(name,proto) name proto _NOTHROW\000"
 13187      554E5F4E 
 13187      4F544852 
 13187      4F57286E 
 13187      616D652C 
 13188              	.LASF1031:
 13189 0988 4C50435F 		.ascii	"LPC_SSP0 ((LPC_SSP_T *) LPC_SSP0_BASE)\000"
ARM GAS  /var/folders/z0/6xlwn_996xz3mwq1cgzkbq4r0000gp/T//cc3rPjEN.s 			page 254


 13189      53535030 
 13189      2028284C 
 13189      50435F53 
 13189      53505F54 
 13190              	.LASF935:
 13191 09af 5343425F 		.ascii	"SCB_ICSR_PENDSTSET_Pos 26\000"
 13191      49435352 
 13191      5F50454E 
 13191      44535453 
 13191      45545F50 
 13192              	.LASF1214:
 13193 09c9 55415254 		.ascii	"UART_ACR_ABEOINT_CLR (1 << 8)\000"
 13193      5F414352 
 13193      5F414245 
 13193      4F494E54 
 13193      5F434C52 
 13194              	.LASF703:
 13195 09e7 5F535444 		.ascii	"_STDBOOL_H \000"
 13195      424F4F4C 
 13195      5F482000 
 13196              	.LASF513:
 13197 09f3 5F415445 		.ascii	"_ATEXIT_INIT {_NULL, 0, {_NULL}, {{_NULL}, {_NULL},"
 13197      5849545F 
 13197      494E4954 
 13197      207B5F4E 
 13197      554C4C2C 
 13198 0a26 20302C20 		.ascii	" 0, 0}}\000"
 13198      307D7D00 
 13199              	.LASF625:
 13200 0a2e 5F416C69 		.ascii	"_Alignas(x) __aligned(x)\000"
 13200      676E6173 
 13200      28782920 
 13200      5F5F616C 
 13200      69676E65 
 13201              	.LASF1122:
 13202 0a47 54494D45 		.ascii	"TIMER_INT_ON_MATCH(n) (_BIT(((n) * 3)))\000"
 13202      525F494E 
 13202      545F4F4E 
 13202      5F4D4154 
 13202      4348286E 
 13203              	.LASF1638:
 13204 0a6f 68616E64 		.ascii	"handlers\000"
 13204      6C657273 
 13204      00
 13205              	.LASF607:
 13206 0a78 5F5F5028 		.ascii	"__P(protos) protos\000"
 13206      70726F74 
 13206      6F732920 
 13206      70726F74 
 13206      6F7300
 13207              	.LASF63:
 13208 0a8b 5F5F494E 		.ascii	"__INTPTR_TYPE__ int\000"
 13208      54505452 
 13208      5F545950 
 13208      455F5F20 
 13208      696E7400 
 13209              	.LASF1520:
ARM GAS  /var/folders/z0/6xlwn_996xz3mwq1cgzkbq4r0000gp/T//cc3rPjEN.s 			page 255


 13210 0a9f 4353425F 		.ascii	"CSB_INIT_OFF\000"
 13210      494E4954 
 13210      5F4F4646 
 13210      00
 13211              	.LASF944:
 13212 0aac 5343425F 		.ascii	"SCB_ICSR_VECTPENDING_Msk (0x1FFUL << SCB_ICSR_VECTP"
 13212      49435352 
 13212      5F564543 
 13212      5450454E 
 13212      44494E47 
 13213 0adf 454E4449 		.ascii	"ENDING_Pos)\000"
 13213      4E475F50 
 13213      6F732900 
 13214              	.LASF246:
 13215 0aeb 5F5F5541 		.ascii	"__UACCUM_EPSILON__ 0x1P-16UK\000"
 13215      4343554D 
 13215      5F455053 
 13215      494C4F4E 
 13215      5F5F2030 
 13216              	.LASF1174:
 13217 0b08 55415254 		.ascii	"UART_LCR_SBS_1BIT (0 << 2)\000"
 13217      5F4C4352 
 13217      5F534253 
 13217      5F314249 
 13217      54202830 
 13218              	.LASF136:
 13219 0b23 5F5F464C 		.ascii	"__FLT_HAS_INFINITY__ 1\000"
 13219      545F4841 
 13219      535F494E 
 13219      46494E49 
 13219      54595F5F 
 13220              	.LASF1175:
 13221 0b3a 55415254 		.ascii	"UART_LCR_SBS_2BIT (1 << 2)\000"
 13221      5F4C4352 
 13221      5F534253 
 13221      5F324249 
 13221      54202831 
 13222              	.LASF1485:
 13223 0b55 75696E74 		.ascii	"uint16_t\000"
 13223      31365F74 
 13223      00
 13224              	.LASF527:
 13225 0b5e 5F524545 		.ascii	"_REENT_INIT(var) { 0, &(var).__sf[0], &(var).__sf[1"
 13225      4E545F49 
 13225      4E495428 
 13225      76617229 
 13225      207B2030 
 13226 0b91 5D2C2026 		.ascii	"], &(var).__sf[2], 0, \"\", 0, _NULL, 0, _NULL, _NU"
 13226      28766172 
 13226      292E5F5F 
 13226      73665B32 
 13226      5D2C2030 
 13227 0bc2 4C4C2C20 		.ascii	"LL, 0, _NULL, _NULL, 0, _NULL, { { 0, _NULL, \"\", "
 13227      302C205F 
 13227      4E554C4C 
 13227      2C205F4E 
 13227      554C4C2C 
ARM GAS  /var/folders/z0/6xlwn_996xz3mwq1cgzkbq4r0000gp/T//cc3rPjEN.s 			page 256


 13228 0bf3 7B302C20 		.ascii	"{0, 0, 0, 0, 0, 0, 0, 0, 0}, 0, 1, { {_RAND48_SEED_"
 13228      302C2030 
 13228      2C20302C 
 13228      20302C20 
 13228      302C2030 
 13229 0c26 302C205F 		.ascii	"0, _RAND48_SEED_1, _RAND48_SEED_2}, {_RAND48_MULT_0"
 13229      52414E44 
 13229      34385F53 
 13229      4545445F 
 13229      312C205F 
 13230 0c59 2C205F52 		.ascii	", _RAND48_MULT_1, _RAND48_MULT_2}, _RAND48_ADD }, {"
 13230      414E4434 
 13230      385F4D55 
 13230      4C545F31 
 13230      2C205F52 
 13231 0c8c 302C207B 		.ascii	"0, {0}}, {0, {0}}, {0, {0}}, \"\", \"\", 0, {0, {0}"
 13231      307D7D2C 
 13231      207B302C 
 13231      207B307D 
 13231      7D2C207B 
 13232 0cbb 7D2C207B 		.ascii	"}, {0, {0}}, {0, {0}}, {0, {0}}, {0, {0}} } }, _REE"
 13232      302C207B 
 13232      307D7D2C 
 13232      207B302C 
 13232      207B307D 
 13233 0cee 4E545F49 		.ascii	"NT_INIT_ATEXIT _NULL, {_NULL, 0, _NULL} }\000"
 13233      4E49545F 
 13233      41544558 
 13233      4954205F 
 13233      4E554C4C 
 13234              	.LASF719:
 13235 0d18 756E7369 		.ascii	"unsigned +0\000"
 13235      676E6564 
 13235      202B3000 
 13236              	.LASF174:
 13237 0d24 5F5F4445 		.ascii	"__DEC64_MIN_EXP__ (-382)\000"
 13237      4336345F 
 13237      4D494E5F 
 13237      4558505F 
 13237      5F20282D 
 13238              	.LASF1008:
 13239 0d3d 4C50435F 		.ascii	"LPC_FLASH_BASE 0x4003C000\000"
 13239      464C4153 
 13239      485F4241 
 13239      53452030 
 13239      78343030 
 13240              	.LASF798:
 13241 0d57 494E545F 		.ascii	"INT_FAST64_MIN (-__INT_FAST64_MAX__ - 1)\000"
 13241      46415354 
 13241      36345F4D 
 13241      494E2028 
 13241      2D5F5F49 
 13242              	.LASF1136:
 13243 0d80 55415254 		.ascii	"UART_DLM_MASKBIT (0xFF)\000"
 13243      5F444C4D 
 13243      5F4D4153 
 13243      4B424954 
ARM GAS  /var/folders/z0/6xlwn_996xz3mwq1cgzkbq4r0000gp/T//cc3rPjEN.s 			page 257


 13243      20283078 
 13244              	.LASF642:
 13245 0d98 5F5F7072 		.ascii	"__predict_true(exp) __builtin_expect((exp), 1)\000"
 13245      65646963 
 13245      745F7472 
 13245      75652865 
 13245      78702920 
 13246              	.LASF1576:
 13247 0dc7 52574C5F 		.ascii	"RWL_cell_charge_c_rating_cC\000"
 13247      63656C6C 
 13247      5F636861 
 13247      7267655F 
 13247      635F7261 
 13248              	.LASF621:
 13249 0de3 5F5F616C 		.ascii	"__aligned(x) __attribute__((__aligned__(x)))\000"
 13249      69676E65 
 13249      64287829 
 13249      205F5F61 
 13249      74747269 
 13250              	.LASF494:
 13251 0e10 5F5F6C6F 		.ascii	"__lock_acquire(lock) (_CAST_VOID 0)\000"
 13251      636B5F61 
 13251      63717569 
 13251      7265286C 
 13251      6F636B29 
 13252              	.LASF1127:
 13253 0e34 54494D45 		.ascii	"TIMER_INT_ON_CAP(n) (_BIT((((n) * 3) + 2)))\000"
 13253      525F494E 
 13253      545F4F4E 
 13253      5F434150 
 13253      286E2920 
 13254              	.LASF1457:
 13255 0e60 4D593136 		.ascii	"MY16_CELL_CAPACITY_cAh 250\000"
 13255      5F43454C 
 13255      4C5F4341 
 13255      50414349 
 13255      54595F63 
 13256              	.LASF1572:
 13257 0e7b 52574C5F 		.ascii	"RWL_cell_max_mV\000"
 13257      63656C6C 
 13257      5F6D6178 
 13257      5F6D5600 
 13258              	.LASF918:
 13259 0e8b 5F5F494F 		.ascii	"__IO volatile\000"
 13259      20766F6C 
 13259      6174696C 
 13259      6500
 13260              	.LASF426:
 13261 0e99 5F545F50 		.ascii	"_T_PTRDIFF_ \000"
 13261      54524449 
 13261      46465F20 
 13261      00
 13262              	.LASF1467:
 13263 0ea6 42414C41 		.ascii	"BALANCE_ON_THRESH_MS 41000\000"
 13263      4E43455F 
 13263      4F4E5F54 
 13263      48524553 
ARM GAS  /var/folders/z0/6xlwn_996xz3mwq1cgzkbq4r0000gp/T//cc3rPjEN.s 			page 258


 13263      485F4D53 
 13264              	.LASF285:
 13265 0ec1 5F5F5554 		.ascii	"__UTQ_FBIT__ 128\000"
 13265      515F4642 
 13265      49545F5F 
 13265      20313238 
 13265      00
 13266              	.LASF578:
 13267 0ed2 5F5F756E 		.ascii	"__unbounded \000"
 13267      626F756E 
 13267      64656420 
 13267      00
 13268              	.LASF194:
 13269 0edf 5F5F5553 		.ascii	"__USFRACT_MIN__ 0.0UHR\000"
 13269      46524143 
 13269      545F4D49 
 13269      4E5F5F20 
 13269      302E3055 
 13270              	.LASF1172:
 13271 0ef6 55415254 		.ascii	"UART_LCR_WLEN8 (3 << 0)\000"
 13271      5F4C4352 
 13271      5F574C45 
 13271      4E382028 
 13271      33203C3C 
 13272              	.LASF356:
 13273 0f0e 5F57414E 		.ascii	"_WANT_REGISTER_FINI 1\000"
 13273      545F5245 
 13273      47495354 
 13273      45525F46 
 13273      494E4920 
 13274              	.LASF49:
 13275 0f24 5F5F494E 		.ascii	"__INT_LEAST32_TYPE__ long int\000"
 13275      545F4C45 
 13275      41535433 
 13275      325F5459 
 13275      50455F5F 
 13276              	.LASF1301:
 13277 0f42 4144435F 		.ascii	"ADC_CR_START_MCOA2 ((6UL << 24))\000"
 13277      43525F53 
 13277      54415254 
 13277      5F4D434F 
 13277      41322028 
 13278              	.LASF892:
 13279 0f63 45585445 		.ascii	"EXTERN extern\000"
 13279      524E2065 
 13279      78746572 
 13279      6E00
 13280              	.LASF150:
 13281 0f71 5F5F4442 		.ascii	"__DBL_HAS_INFINITY__ 1\000"
 13281      4C5F4841 
 13281      535F494E 
 13281      46494E49 
 13281      54595F5F 
 13282              	.LASF357:
 13283 0f88 5F4D425F 		.ascii	"_MB_LEN_MAX 1\000"
 13283      4C454E5F 
 13283      4D415820 
ARM GAS  /var/folders/z0/6xlwn_996xz3mwq1cgzkbq4r0000gp/T//cc3rPjEN.s 			page 259


 13283      3100
 13284              	.LASF684:
 13285 0f96 5F5F6E6F 		.ascii	"__no_lock_analysis __lock_annotate(no_thread_safety"
 13285      5F6C6F63 
 13285      6B5F616E 
 13285      616C7973 
 13285      6973205F 
 13286 0fc9 5F616E61 		.ascii	"_analysis)\000"
 13286      6C797369 
 13286      732900
 13287              	.LASF1502:
 13288 0fd4 63765F6D 		.ascii	"cv_min_current_mA\000"
 13288      696E5F63 
 13288      75727265 
 13288      6E745F6D 
 13288      4100
 13289              	.LASF180:
 13290 0fe6 5F5F4445 		.ascii	"__DEC128_MANT_DIG__ 34\000"
 13290      43313238 
 13290      5F4D414E 
 13290      545F4449 
 13290      475F5F20 
 13291              	.LASF795:
 13292 0ffd 494E545F 		.ascii	"INT_FAST32_MIN (-__INT_FAST32_MAX__ - 1)\000"
 13292      46415354 
 13292      33325F4D 
 13292      494E2028 
 13292      2D5F5F49 
 13293              	.LASF69:
 13294 1026 5F5F5348 		.ascii	"__SHRT_MAX__ 0x7fff\000"
 13294      52545F4D 
 13294      41585F5F 
 13294      20307837 
 13294      66666600 
 13295              	.LASF1587:
 13296 103a 524F4C5F 		.ascii	"ROL_pack_current_mA\000"
 13296      7061636B 
 13296      5F637572 
 13296      72656E74 
 13296      5F6D4100 
 13297              	.LASF999:
 13298 104e 4C50435F 		.ascii	"LPC_USART_BASE 0x40008000\000"
 13298      55534152 
 13298      545F4241 
 13298      53452030 
 13298      78343030 
 13299              	.LASF802:
 13300 1068 494E544D 		.ascii	"INTMAX_MIN (-INTMAX_MAX - 1)\000"
 13300      41585F4D 
 13300      494E2028 
 13300      2D494E54 
 13300      4D41585F 
 13301              	.LASF781:
 13302 1085 494E545F 		.ascii	"INT_LEAST32_MAX (__INT_LEAST32_MAX__)\000"
 13302      4C454153 
 13302      5433325F 
 13302      4D415820 
ARM GAS  /var/folders/z0/6xlwn_996xz3mwq1cgzkbq4r0000gp/T//cc3rPjEN.s 			page 260


 13302      285F5F49 
 13303              	.LASF1634:
 13304 10ab 6C6F6373 		.ascii	"locstring\000"
 13304      7472696E 
 13304      6700
 13305              	.LASF1272:
 13306 10b5 5353505F 		.ascii	"SSP_DR_BITMASK(n) ((n) & 0xFFFF)\000"
 13306      44525F42 
 13306      49544D41 
 13306      534B286E 
 13306      29202828 
 13307              	.LASF10:
 13308 10d6 5F5F4154 		.ascii	"__ATOMIC_ACQ_REL 4\000"
 13308      4F4D4943 
 13308      5F414351 
 13308      5F52454C 
 13308      203400
 13309              	.LASF1372:
 13310 10e9 4932435F 		.ascii	"I2C_SETUP_STATUS_NOACKF (1 << 9)\000"
 13310      53455455 
 13310      505F5354 
 13310      41545553 
 13310      5F4E4F41 
 13311              	.LASF556:
 13312 110a 5F524545 		.ascii	"_REENT_WCSRTOMBS_STATE(ptr) ((ptr)->_new._reent._wc"
 13312      4E545F57 
 13312      43535254 
 13312      4F4D4253 
 13312      5F535441 
 13313 113d 7372746F 		.ascii	"srtombs_state)\000"
 13313      6D62735F 
 13313      73746174 
 13313      652900
 13314              	.LASF637:
 13315 114c 5F5F6661 		.ascii	"__fastcall __attribute__((__fastcall__))\000"
 13315      73746361 
 13315      6C6C205F 
 13315      5F617474 
 13315      72696275 
 13316              	.LASF1108:
 13317 1175 46554E43 		.ascii	"FUNC0 0x0\000"
 13317      30203078 
 13317      3000
 13318              	.LASF1243:
 13319 117f 55415254 		.ascii	"UART_SYNCCTRL_TSBYPASS (1 << 3)\000"
 13319      5F53594E 
 13319      43435452 
 13319      4C5F5453 
 13319      42595041 
 13320              	.LASF1185:
 13321 119f 55415254 		.ascii	"UART_MCR_DTR_CTRL (1 << 0)\000"
 13321      5F4D4352 
 13321      5F445452 
 13321      5F435452 
 13321      4C202831 
 13322              	.LASF418:
 13323 11ba 5F454C49 		.ascii	"_ELIDABLE_INLINE extern __inline__ _ATTRIBUTE ((__a"
ARM GAS  /var/folders/z0/6xlwn_996xz3mwq1cgzkbq4r0000gp/T//cc3rPjEN.s 			page 261


 13323      4441424C 
 13323      455F494E 
 13323      4C494E45 
 13323      20657874 
 13324 11ed 6C776179 		.ascii	"lways_inline__))\000"
 13324      735F696E 
 13324      6C696E65 
 13324      5F5F2929 
 13324      00
 13325              	.LASF419:
 13326 11fe 5F4E4F49 		.ascii	"_NOINLINE __attribute__ ((__noinline__))\000"
 13326      4E4C494E 
 13326      45205F5F 
 13326      61747472 
 13326      69627574 
 13327              	.LASF112:
 13328 1227 5F5F494E 		.ascii	"__INT_FAST64_MAX__ 0x7fffffffffffffffLL\000"
 13328      545F4641 
 13328      53543634 
 13328      5F4D4158 
 13328      5F5F2030 
 13329              	.LASF1386:
 13330 124f 43414E5F 		.ascii	"CAN_ERROR_NONE 0x00000000UL\000"
 13330      4552524F 
 13330      525F4E4F 
 13330      4E452030 
 13330      78303030 
 13331              	.LASF1225:
 13332 126b 55415254 		.ascii	"UART_ICR_IRDAINV (1 << 1)\000"
 13332      5F494352 
 13332      5F495244 
 13332      41494E56 
 13332      20283120 
 13333              	.LASF1503:
 13334 1285 63765F6D 		.ascii	"cv_min_current_ms\000"
 13334      696E5F63 
 13334      75727265 
 13334      6E745F6D 
 13334      7300
 13335              	.LASF259:
 13336 1297 5F5F4C4C 		.ascii	"__LLACCUM_MIN__ (-0X1P31LLK-0X1P31LLK)\000"
 13336      41434355 
 13336      4D5F4D49 
 13336      4E5F5F20 
 13336      282D3058 
 13337              	.LASF941:
 13338 12be 5343425F 		.ascii	"SCB_ICSR_ISRPENDING_Pos 22\000"
 13338      49435352 
 13338      5F495352 
 13338      50454E44 
 13338      494E475F 
 13339              	.LASF60:
 13340 12d9 5F5F5549 		.ascii	"__UINT_FAST16_TYPE__ unsigned int\000"
 13340      4E545F46 
 13340      41535431 
 13340      365F5459 
 13340      50455F5F 
ARM GAS  /var/folders/z0/6xlwn_996xz3mwq1cgzkbq4r0000gp/T//cc3rPjEN.s 			page 262


 13341              	.LASF1123:
 13342 12fb 54494D45 		.ascii	"TIMER_RESET_ON_MATCH(n) (_BIT((((n) * 3) + 1)))\000"
 13342      525F5245 
 13342      5345545F 
 13342      4F4E5F4D 
 13342      41544348 
 13343              	.LASF92:
 13344 132b 5F5F5549 		.ascii	"__UINT64_MAX__ 0xffffffffffffffffULL\000"
 13344      4E543634 
 13344      5F4D4158 
 13344      5F5F2030 
 13344      78666666 
 13345              	.LASF1149:
 13346 1350 55415254 		.ascii	"UART_IIR_ABEO_INT (1 << 8)\000"
 13346      5F494952 
 13346      5F414245 
 13346      4F5F494E 
 13346      54202831 
 13347              	.LASF1606:
 13348 136b 666F756E 		.ascii	"foundloc\000"
 13348      646C6F63 
 13348      00
 13349              	.LASF14:
 13350 1374 5F5F5349 		.ascii	"__SIZEOF_INT__ 4\000"
 13350      5A454F46 
 13350      5F494E54 
 13350      5F5F2034 
 13350      00
 13351              	.LASF331:
 13352 1385 5F5F4152 		.ascii	"__ARMEL__ 1\000"
 13352      4D454C5F 
 13352      5F203100 
 13353              	.LASF898:
 13354 1391 43484950 		.ascii	"CHIP_LPC11CXX \000"
 13354      5F4C5043 
 13354      31314358 
 13354      582000
 13355              	.LASF872:
 13356 13a0 5F455343 		.ascii	"_ESC_BRACKET 1\000"
 13356      5F425241 
 13356      434B4554 
 13356      203100
 13357              	.LASF531:
 13358 13af 5F524545 		.ascii	"_REENT_CHECK_TM(ptr) \000"
 13358      4E545F43 
 13358      4845434B 
 13358      5F544D28 
 13358      70747229 
 13359              	.LASF38:
 13360 13c5 5F5F5349 		.ascii	"__SIG_ATOMIC_TYPE__ int\000"
 13360      475F4154 
 13360      4F4D4943 
 13360      5F545950 
 13360      455F5F20 
 13361              	.LASF446:
 13362 13dd 5F425344 		.ascii	"_BSD_SIZE_T_DEFINED_ \000"
 13362      5F53495A 
ARM GAS  /var/folders/z0/6xlwn_996xz3mwq1cgzkbq4r0000gp/T//cc3rPjEN.s 			page 263


 13362      455F545F 
 13362      44454649 
 13362      4E45445F 
 13363              	.LASF590:
 13364 13f3 5F5F474E 		.ascii	"__GNUCLIKE_CTOR_SECTION_HANDLING 1\000"
 13364      55434C49 
 13364      4B455F43 
 13364      544F525F 
 13364      53454354 
 13365              	.LASF1588:
 13366 1416 524F4C5F 		.ascii	"ROL_pack_voltage_mV\000"
 13366      7061636B 
 13366      5F766F6C 
 13366      74616765 
 13366      5F6D5600 
 13367              	.LASF1055:
 13368 142a 53595343 		.ascii	"SYSCTL_SLPWAKE_IRC_PD (1 << 1)\000"
 13368      544C5F53 
 13368      4C505741 
 13368      4B455F49 
 13368      52435F50 
 13369              	.LASF715:
 13370 1449 73686F72 		.ascii	"short\000"
 13370      7400
 13371              	.LASF1219:
 13372 144f 55415254 		.ascii	"UART_RS485CTRL_AADEN (1 << 2)\000"
 13372      5F525334 
 13372      38354354 
 13372      524C5F41 
 13372      4144454E 
 13373              	.LASF855:
 13374 146d 4B45595F 		.ascii	"KEY_DC3 19\000"
 13374      44433320 
 13374      313900
 13375              	.LASF319:
 13376 1478 5F5F5052 		.ascii	"__PRAGMA_REDEFINE_EXTNAME 1\000"
 13376      41474D41 
 13376      5F524544 
 13376      4546494E 
 13376      455F4558 
 13377              	.LASF50:
 13378 1494 5F5F494E 		.ascii	"__INT_LEAST64_TYPE__ long long int\000"
 13378      545F4C45 
 13378      41535436 
 13378      345F5459 
 13378      50455F5F 
 13379              	.LASF1486:
 13380 14b7 696E7433 		.ascii	"int32_t\000"
 13380      325F7400 
 13381              	.LASF413:
 13382 14bf 5F444546 		.ascii	"_DEFUN_VOID(name) name(_NOARGS)\000"
 13382      554E5F56 
 13382      4F494428 
 13382      6E616D65 
 13382      29206E61 
 13383              	.LASF849:
 13384 14df 4B45595F 		.ascii	"KEY_CR 13\000"
ARM GAS  /var/folders/z0/6xlwn_996xz3mwq1cgzkbq4r0000gp/T//cc3rPjEN.s 			page 264


 13384      43522031 
 13384      3300
 13385              	.LASF1327:
 13386 14e9 4932435F 		.ascii	"I2C_STAT_CODE_ERROR ((0xFF))\000"
 13386      53544154 
 13386      5F434F44 
 13386      455F4552 
 13386      524F5220 
 13387              	.LASF1290:
 13388 1506 4144435F 		.ascii	"ADC_CR_CH_SEL(n) ((1UL << (n)))\000"
 13388      43525F43 
 13388      485F5345 
 13388      4C286E29 
 13388      20282831 
 13389              	.LASF660:
 13390 1526 5F5F7379 		.ascii	"__sym_compat(sym,impl,verid) __asm__(\".symver \" #"
 13390      6D5F636F 
 13390      6D706174 
 13390      2873796D 
 13390      2C696D70 
 13391 1557 696D706C 		.ascii	"impl \", \" #sym \"@\" #verid)\000"
 13391      20222C20 
 13391      22202373 
 13391      796D2022 
 13391      40222023 
 13392              	.LASF683:
 13393 1572 5F5F7265 		.ascii	"__requires_unlocked(...) __lock_annotate(locks_excl"
 13393      71756972 
 13393      65735F75 
 13393      6E6C6F63 
 13393      6B656428 
 13394 15a5 75646564 		.ascii	"uded(__VA_ARGS__))\000"
 13394      285F5F56 
 13394      415F4152 
 13394      47535F5F 
 13394      292900
 13395              	.LASF1371:
 13396 15b8 4932435F 		.ascii	"I2C_SETUP_STATUS_ARBF (1 << 8)\000"
 13396      53455455 
 13396      505F5354 
 13396      41545553 
 13396      5F415242 
 13397              	.LASF220:
 13398 15d7 5F5F4C4C 		.ascii	"__LLFRACT_MAX__ 0X7FFFFFFFFFFFFFFFP-63LLR\000"
 13398      46524143 
 13398      545F4D41 
 13398      585F5F20 
 13398      30583746 
 13399              	.LASF487:
 13400 1601 5F5F5359 		.ascii	"__SYS_LOCK_H__ \000"
 13400      535F4C4F 
 13400      434B5F48 
 13400      5F5F2000 
 13401              	.LASF1447:
 13402 1611 4D593138 		.ascii	"MY18_CELL_CHARGE_C_RATING_cC 5\000"
 13402      5F43454C 
 13402      4C5F4348 
ARM GAS  /var/folders/z0/6xlwn_996xz3mwq1cgzkbq4r0000gp/T//cc3rPjEN.s 			page 265


 13402      41524745 
 13402      5F435F52 
 13403              	.LASF1067:
 13404 1630 53595343 		.ascii	"SYSCTL_POWERDOWN_SYSOSC_PD (1 << 5)\000"
 13404      544C5F50 
 13404      4F574552 
 13404      444F574E 
 13404      5F535953 
 13405              	.LASF267:
 13406 1654 5F5F5151 		.ascii	"__QQ_FBIT__ 7\000"
 13406      5F464249 
 13406      545F5F20 
 13406      3700
 13407              	.LASF1394:
 13408 1662 43414E5F 		.ascii	"CAN_ERROR_BIT0 0x00000080UL\000"
 13408      4552524F 
 13408      525F4249 
 13408      54302030 
 13408      78303030 
 13409              	.LASF770:
 13410 167e 55494E54 		.ascii	"UINT_LEAST8_MAX (__UINT_LEAST8_MAX__)\000"
 13410      5F4C4541 
 13410      5354385F 
 13410      4D415820 
 13410      285F5F55 
 13411              	.LASF1238:
 13412 16a4 55415254 		.ascii	"UART_TER1_TXEN (1 << 7)\000"
 13412      5F544552 
 13412      315F5458 
 13412      454E2028 
 13412      31203C3C 
 13413              	.LASF783:
 13414 16bc 494E5436 		.ascii	"INT64_MIN (-__INT64_MAX__ - 1)\000"
 13414      345F4D49 
 13414      4E20282D 
 13414      5F5F494E 
 13414      5436345F 
 13415              	.LASF1395:
 13416 16db 43414E5F 		.ascii	"CAN_ERROR_CRC 0x00000100UL\000"
 13416      4552524F 
 13416      525F4352 
 13416      43203078 
 13416      30303030 
 13417              	.LASF1464:
 13418 16f6 4D593136 		.ascii	"MY16_CV_MIN_CURRENT_ms 60000\000"
 13418      5F43565F 
 13418      4D494E5F 
 13418      43555252 
 13418      454E545F 
 13419              	.LASF23:
 13420 1713 5F5F4249 		.ascii	"__BIGGEST_ALIGNMENT__ 8\000"
 13420      47474553 
 13420      545F414C 
 13420      49474E4D 
 13420      454E545F 
 13421              	.LASF497:
 13422 172b 5F5F6C6F 		.ascii	"__lock_try_acquire_recursive(lock) (_CAST_VOID 0)\000"
ARM GAS  /var/folders/z0/6xlwn_996xz3mwq1cgzkbq4r0000gp/T//cc3rPjEN.s 			page 266


 13422      636B5F74 
 13422      72795F61 
 13422      63717569 
 13422      72655F72 
 13423              	.LASF1559:
 13424 175d 62616C61 		.ascii	"balance_timeon\000"
 13424      6E63655F 
 13424      74696D65 
 13424      6F6E00
 13425              	.LASF43:
 13426 176c 5F5F5549 		.ascii	"__UINT8_TYPE__ unsigned char\000"
 13426      4E54385F 
 13426      54595045 
 13426      5F5F2075 
 13426      6E736967 
 13427              	.LASF978:
 13428 1789 53797354 		.ascii	"SysTick_LOAD_RELOAD_Msk (0xFFFFFFUL << SysTick_LOAD"
 13428      69636B5F 
 13428      4C4F4144 
 13428      5F52454C 
 13428      4F41445F 
 13429 17bc 5F52454C 		.ascii	"_RELOAD_Pos)\000"
 13429      4F41445F 
 13429      506F7329 
 13429      00
 13430              	.LASF782:
 13431 17c9 55494E54 		.ascii	"UINT_LEAST32_MAX (__UINT_LEAST32_MAX__)\000"
 13431      5F4C4541 
 13431      53543332 
 13431      5F4D4158 
 13431      20285F5F 
 13432              	.LASF1331:
 13433 17f1 4932435F 		.ascii	"I2C_I2STAT_M_TX_RESTART ((0x10))\000"
 13433      49325354 
 13433      41545F4D 
 13433      5F54585F 
 13433      52455354 
 13434              	.LASF549:
 13435 1812 5F524545 		.ascii	"_REENT_MBLEN_STATE(ptr) ((ptr)->_new._reent._mblen_"
 13435      4E545F4D 
 13435      424C454E 
 13435      5F535441 
 13435      54452870 
 13436 1845 73746174 		.ascii	"state)\000"
 13436      652900
 13437              	.LASF1566:
 13438 184c 435F4241 		.ascii	"C_BAL\000"
 13438      4C00
 13439              	.LASF1521:
 13440 1852 4353425F 		.ascii	"CSB_INIT_SWITCH_500\000"
 13440      494E4954 
 13440      5F535749 
 13440      5443485F 
 13440      35303000 
 13441              	.LASF265:
 13442 1866 5F5F554C 		.ascii	"__ULLACCUM_MAX__ 0XFFFFFFFFFFFFFFFFP-32ULLK\000"
 13442      4C414343 
ARM GAS  /var/folders/z0/6xlwn_996xz3mwq1cgzkbq4r0000gp/T//cc3rPjEN.s 			page 267


 13442      554D5F4D 
 13442      41585F5F 
 13442      20305846 
 13443              	.LASF248:
 13444 1892 5F5F4C41 		.ascii	"__LACCUM_IBIT__ 32\000"
 13444      4343554D 
 13444      5F494249 
 13444      545F5F20 
 13444      333200
 13445              	.LASF1052:
 13446 18a5 53595343 		.ascii	"SYSCTL_DEEPSLP_BOD_PD (1 << 3)\000"
 13446      544C5F44 
 13446      45455053 
 13446      4C505F42 
 13446      4F445F50 
 13447              	.LASF95:
 13448 18c4 5F5F494E 		.ascii	"__INT_LEAST16_MAX__ 0x7fff\000"
 13448      545F4C45 
 13448      41535431 
 13448      365F4D41 
 13448      585F5F20 
 13449              	.LASF1086:
 13450 18df 494F434F 		.ascii	"IOCON_INV_EN (0x1 << 6)\000"
 13450      4E5F494E 
 13450      565F454E 
 13450      20283078 
 13450      31203C3C 
 13451              	.LASF489:
 13452 18f7 5F5F4C4F 		.ascii	"__LOCK_INIT_RECURSIVE(class,lock) static int lock ="
 13452      434B5F49 
 13452      4E49545F 
 13452      52454355 
 13452      52534956 
 13453 192a 20303B00 		.ascii	" 0;\000"
 13454              	.LASF692:
 13455 192e 5F4D4143 		.ascii	"_MACHSTDLIB_H_ \000"
 13455      48535444 
 13455      4C49425F 
 13455      485F2000 
 13456              	.LASF1618:
 13457 193e 65786563 		.ascii	"executerl\000"
 13457      75746572 
 13457      6C00
 13458              	.LASF964:
 13459 1948 5343425F 		.ascii	"SCB_CCR_STKALIGN_Msk (1UL << SCB_CCR_STKALIGN_Pos)\000"
 13459      4343525F 
 13459      53544B41 
 13459      4C49474E 
 13459      5F4D736B 
 13460              	.LASF1422:
 13461 197b 43414E5F 		.ascii	"CAN_SDOREQ_NOTHANDLED 0\000"
 13461      53444F52 
 13461      45515F4E 
 13461      4F544841 
 13461      4E444C45 
 13462              	.LASF1270:
 13463 1993 5353505F 		.ascii	"SSP_CR1_BITMASK ((uint32_t) (0x0F))\000"
ARM GAS  /var/folders/z0/6xlwn_996xz3mwq1cgzkbq4r0000gp/T//cc3rPjEN.s 			page 268


 13463      4352315F 
 13463      4249544D 
 13463      41534B20 
 13463      28287569 
 13464              	.LASF228:
 13465 19b7 5F5F5341 		.ascii	"__SACCUM_IBIT__ 8\000"
 13465      4343554D 
 13465      5F494249 
 13465      545F5F20 
 13465      3800
 13466              	.LASF348:
 13467 19c9 5F414E53 		.ascii	"_ANSIDECL_H_ \000"
 13467      49444543 
 13467      4C5F485F 
 13467      2000
 13468              	.LASF44:
 13469 19d7 5F5F5549 		.ascii	"__UINT16_TYPE__ short unsigned int\000"
 13469      4E543136 
 13469      5F545950 
 13469      455F5F20 
 13469      73686F72 
 13470              	.LASF927:
 13471 19fa 5343425F 		.ascii	"SCB_CPUID_REVISION_Pos 0\000"
 13471      43505549 
 13471      445F5245 
 13471      56495349 
 13471      4F4E5F50 
 13472              	.LASF486:
 13473 1a13 5F5F4558 		.ascii	"__EXP\000"
 13473      5000
 13474              	.LASF853:
 13475 1a19 4B45595F 		.ascii	"KEY_DC1 17\000"
 13475      44433120 
 13475      313700
 13476              	.LASF439:
 13477 1a24 5F545F53 		.ascii	"_T_SIZE_ \000"
 13477      495A455F 
 13477      2000
 13478              	.LASF1497:
 13479 1a2e 6E756D5F 		.ascii	"num_modules\000"
 13479      6D6F6475 
 13479      6C657300 
 13480              	.LASF396:
 13481 1a3a 5F484156 		.ascii	"_HAVE_STDC \000"
 13481      455F5354 
 13481      44432000 
 13482              	.LASF512:
 13483 1a46 5F415445 		.ascii	"_ATEXIT_SIZE 32\000"
 13483      5849545F 
 13483      53495A45 
 13483      20333200 
 13484              	.LASF1404:
 13485 1a56 53444F5F 		.ascii	"SDO_ABORT_WRITEONLY 0x06010001UL\000"
 13485      41424F52 
 13485      545F5752 
 13485      4954454F 
 13485      4E4C5920 
ARM GAS  /var/folders/z0/6xlwn_996xz3mwq1cgzkbq4r0000gp/T//cc3rPjEN.s 			page 269


 13486              	.LASF938:
 13487 1a77 5343425F 		.ascii	"SCB_ICSR_PENDSTCLR_Msk (1UL << SCB_ICSR_PENDSTCLR_P"
 13487      49435352 
 13487      5F50454E 
 13487      44535443 
 13487      4C525F4D 
 13488 1aaa 6F732900 		.ascii	"os)\000"
 13489              	.LASF94:
 13490 1aae 5F5F494E 		.ascii	"__INT8_C(c) c\000"
 13490      54385F43 
 13490      28632920 
 13490      6300
 13491              	.LASF1368:
 13492 1abc 4932435F 		.ascii	"I2C_I2MASK_MASK(n) ((n & 0xFE))\000"
 13492      49324D41 
 13492      534B5F4D 
 13492      41534B28 
 13492      6E292028 
 13493              	.LASF338:
 13494 1adc 5F5F4152 		.ascii	"__ARM_EABI__ 1\000"
 13494      4D5F4541 
 13494      42495F5F 
 13494      203100
 13495              	.LASF1349:
 13496 1aeb 4932435F 		.ascii	"I2C_I2STAT_S_RX_PRE_SLA_DAT_NACK ((0x88))\000"
 13496      49325354 
 13496      41545F53 
 13496      5F52585F 
 13496      5052455F 
 13497              	.LASF656:
 13498 1b15 5F5F7072 		.ascii	"__printf0like(fmtarg,firstvararg) \000"
 13498      696E7466 
 13498      306C696B 
 13498      6528666D 
 13498      74617267 
 13499              	.LASF1002:
 13500 1b38 4C50435F 		.ascii	"LPC_TIMER32_0_BASE 0x40014000\000"
 13500      54494D45 
 13500      5233325F 
 13500      305F4241 
 13500      53452030 
 13501              	.LASF1439:
 13502 1b56 5041434B 		.ascii	"PACK_CURRENT_PRINT_PERIOD_ms 1000\000"
 13502      5F435552 
 13502      52454E54 
 13502      5F505249 
 13502      4E545F50 
 13503              	.LASF1159:
 13504 1b78 55415254 		.ascii	"UART_FCR_RX_RS (1 << 1)\000"
 13504      5F464352 
 13504      5F52585F 
 13504      52532028 
 13504      31203C3C 
 13505              	.LASF1496:
 13506 1b90 63656C6C 		.ascii	"cell_capacity_cAh\000"
 13506      5F636170 
 13506      61636974 
ARM GAS  /var/folders/z0/6xlwn_996xz3mwq1cgzkbq4r0000gp/T//cc3rPjEN.s 			page 270


 13506      795F6341 
 13506      6800
 13507              	.LASF1180:
 13508 1ba2 55415254 		.ascii	"UART_LCR_PARITY_F_1 (2 << 4)\000"
 13508      5F4C4352 
 13508      5F504152 
 13508      4954595F 
 13508      465F3120 
 13509              	.LASF706:
 13510 1bbf 66616C73 		.ascii	"false 0\000"
 13510      65203000 
 13511              	.LASF128:
 13512 1bc7 5F5F464C 		.ascii	"__FLT_MAX_EXP__ 128\000"
 13512      545F4D41 
 13512      585F4558 
 13512      505F5F20 
 13512      31323800 
 13513              	.LASF88:
 13514 1bdb 5F5F494E 		.ascii	"__INT64_MAX__ 0x7fffffffffffffffLL\000"
 13514      5436345F 
 13514      4D41585F 
 13514      5F203078 
 13514      37666666 
 13515              	.LASF601:
 13516 1bfe 5F5F4343 		.ascii	"__CC_SUPPORTS___INLINE 1\000"
 13516      5F535550 
 13516      504F5254 
 13516      535F5F5F 
 13516      494E4C49 
 13517              	.LASF7:
 13518 1c17 5F5F4154 		.ascii	"__ATOMIC_SEQ_CST 5\000"
 13518      4F4D4943 
 13518      5F534551 
 13518      5F435354 
 13518      203500
 13519              	.LASF1292:
 13520 1c2a 4144435F 		.ascii	"ADC_CR_BURST ((1UL << 16))\000"
 13520      43525F42 
 13520      55525354 
 13520      20282831 
 13520      554C203C 
 13521              	.LASF449:
 13522 1c45 5F474343 		.ascii	"_GCC_SIZE_T \000"
 13522      5F53495A 
 13522      455F5420 
 13522      00
 13523              	.LASF535:
 13524 1c52 5F524545 		.ascii	"_REENT_CHECK_SIGNAL_BUF(ptr) \000"
 13524      4E545F43 
 13524      4845434B 
 13524      5F534947 
 13524      4E414C5F 
 13525              	.LASF1035:
 13526 1c70 4C50435F 		.ascii	"LPC_CCAN ((LPC_CCAN_T *) LPC_CAN0_BASE)\000"
 13526      4343414E 
 13526      2028284C 
 13526      50435F43 
ARM GAS  /var/folders/z0/6xlwn_996xz3mwq1cgzkbq4r0000gp/T//cc3rPjEN.s 			page 271


 13526      43414E5F 
 13527              	.LASF1313:
 13528 1c98 4932435F 		.ascii	"I2C_I2CONSET_STO ((0x10))\000"
 13528      4932434F 
 13528      4E534554 
 13528      5F53544F 
 13528      20282830 
 13529              	.LASF835:
 13530 1cb2 454E444C 		.ascii	"ENDL \"\\n\"\000"
 13530      20225C6E 
 13530      2200
 13531              	.LASF1088:
 13532 1cbc 494F434F 		.ascii	"IOCON_DIGMODE_EN (0x1 << 7)\000"
 13532      4E5F4449 
 13532      474D4F44 
 13532      455F454E 
 13532      20283078 
 13533              	.LASF604:
 13534 1cd8 5F5F4343 		.ascii	"__CC_SUPPORTS_WARNING 1\000"
 13534      5F535550 
 13534      504F5254 
 13534      535F5741 
 13534      524E494E 
 13535              	.LASF3:
 13536 1cf0 5F5F474E 		.ascii	"__GNUC_MINOR__ 4\000"
 13536      55435F4D 
 13536      494E4F52 
 13536      5F5F2034 
 13536      00
 13537              	.LASF59:
 13538 1d01 5F5F5549 		.ascii	"__UINT_FAST8_TYPE__ unsigned int\000"
 13538      4E545F46 
 13538      41535438 
 13538      5F545950 
 13538      455F5F20 
 13539              	.LASF948:
 13540 1d22 5343425F 		.ascii	"SCB_AIRCR_VECTKEY_Msk (0xFFFFUL << SCB_AIRCR_VECTKE"
 13540      41495243 
 13540      525F5645 
 13540      43544B45 
 13540      595F4D73 
 13541 1d55 595F506F 		.ascii	"Y_Pos)\000"
 13541      732900
 13542              	.LASF301:
 13543 1d5c 5F5F5554 		.ascii	"__UTA_FBIT__ 64\000"
 13543      415F4642 
 13543      49545F5F 
 13543      20363400 
 13544              	.LASF1078:
 13545 1d6c 494F434F 		.ascii	"IOCON_FUNC5 0x5\000"
 13545      4E5F4655 
 13545      4E433520 
 13545      30783500 
 13546              	.LASF139:
 13547 1d7c 5F5F4442 		.ascii	"__DBL_DIG__ 15\000"
 13547      4C5F4449 
 13547      475F5F20 
ARM GAS  /var/folders/z0/6xlwn_996xz3mwq1cgzkbq4r0000gp/T//cc3rPjEN.s 			page 272


 13547      313500
 13548              	.LASF477:
 13549 1d8b 5F5F4558 		.ascii	"__EXP(x) __ ##x ##__\000"
 13549      50287829 
 13549      205F5F20 
 13549      23237820 
 13549      23235F5F 
 13550              	.LASF1276:
 13551 1da0 5353505F 		.ascii	"SSP_CPHA_SECOND SSP_CR0_CPHA_SECOND\000"
 13551      43504841 
 13551      5F534543 
 13551      4F4E4420 
 13551      5353505F 
 13552              	.LASF158:
 13553 1dc4 5F5F4445 		.ascii	"__DECIMAL_DIG__ 17\000"
 13553      43494D41 
 13553      4C5F4449 
 13553      475F5F20 
 13553      313700
 13554              	.LASF773:
 13555 1dd7 55494E54 		.ascii	"UINT16_MAX (__UINT16_MAX__)\000"
 13555      31365F4D 
 13555      41582028 
 13555      5F5F5549 
 13555      4E543136 
 13556              	.LASF572:
 13557 1df3 5F5F6C6F 		.ascii	"__long_double_t long double\000"
 13557      6E675F64 
 13557      6F75626C 
 13557      655F7420 
 13557      6C6F6E67 
 13558              	.LASF900:
 13559 1e0f 5F5F434D 		.ascii	"__CMSIS_11CXX_H_ \000"
 13559      5349535F 
 13559      31314358 
 13559      585F485F 
 13559      2000
 13560              	.LASF681:
 13561 1e21 5F5F7265 		.ascii	"__requires_exclusive(...) __lock_annotate(exclusive"
 13561      71756972 
 13561      65735F65 
 13561      78636C75 
 13561      73697665 
 13562 1e54 5F6C6F63 		.ascii	"_locks_required(__VA_ARGS__))\000"
 13562      6B735F72 
 13562      65717569 
 13562      72656428 
 13562      5F5F5641 
 13563              	.LASF669:
 13564 1e72 5F5F4445 		.ascii	"__DEQUALIFY(type,var) ((type)(__uintptr_t)(const vo"
 13564      5155414C 
 13564      49465928 
 13564      74797065 
 13564      2C766172 
 13565 1ea5 6C617469 		.ascii	"latile void *)(var))\000"
 13565      6C652076 
 13565      6F696420 
ARM GAS  /var/folders/z0/6xlwn_996xz3mwq1cgzkbq4r0000gp/T//cc3rPjEN.s 			page 273


 13565      2A292876 
 13565      61722929 
 13566              	.LASF581:
 13567 1eba 5F5F6861 		.ascii	"__has_feature(x) 0\000"
 13567      735F6665 
 13567      61747572 
 13567      65287829 
 13567      203000
 13568              	.LASF1319:
 13569 1ecd 4932435F 		.ascii	"I2C_I2CONCLR_STAC ((1 << 5))\000"
 13569      4932434F 
 13569      4E434C52 
 13569      5F535441 
 13569      43202828 
 13570              	.LASF523:
 13571 1eea 5F524545 		.ascii	"_REENT_EMERGENCY_SIZE 25\000"
 13571      4E545F45 
 13571      4D455247 
 13571      454E4359 
 13571      5F53495A 
 13572              	.LASF1524:
 13573 1f03 4353425F 		.ascii	"CSB_INIT_WAIT_250\000"
 13573      494E4954 
 13573      5F574149 
 13573      545F3235 
 13573      3000
 13574              	.LASF868:
 13575 1f15 4B45595F 		.ascii	"KEY_DEL 127\000"
 13575      44454C20 
 13575      31323700 
 13576              	.LASF120:
 13577 1f21 5F5F4743 		.ascii	"__GCC_IEC_559_COMPLEX 0\000"
 13577      435F4945 
 13577      435F3535 
 13577      395F434F 
 13577      4D504C45 
 13578              	.LASF1499:
 13579 1f39 62616C5F 		.ascii	"bal_on_thresh_mV\000"
 13579      6F6E5F74 
 13579      68726573 
 13579      685F6D56 
 13579      00
 13580              	.LASF784:
 13581 1f4a 494E5436 		.ascii	"INT64_MAX (__INT64_MAX__)\000"
 13581      345F4D41 
 13581      5820285F 
 13581      5F494E54 
 13581      36345F4D 
 13582              	.LASF1442:
 13583 1f64 4353425F 		.ascii	"CSB_CAN_BAUD 250000\000"
 13583      43414E5F 
 13583      42415544 
 13583      20323530 
 13583      30303000 
 13584              	.LASF1408:
 13585 1f78 53444F5F 		.ascii	"SDO_ABORT_ACCINCOMP 0x06040047UL\000"
 13585      41424F52 
ARM GAS  /var/folders/z0/6xlwn_996xz3mwq1cgzkbq4r0000gp/T//cc3rPjEN.s 			page 274


 13585      545F4143 
 13585      43494E43 
 13585      4F4D5020 
 13586              	.LASF1649:
 13587 1f99 2F557365 		.ascii	"/Users/tukyab/Documents/MIT/FSAE/csb/charger_shutdo"
 13587      72732F74 
 13587      756B7961 
 13587      622F446F 
 13587      63756D65 
 13588 1fcc 776E5F62 		.ascii	"wn_board\000"
 13588      6F617264 
 13588      00
 13589              	.LASF1026:
 13590 1fd5 4C50435F 		.ascii	"LPC_TIMER32_0 ((LPC_TIMER_T *) LPC_TIMER32_0_BASE)\000"
 13590      54494D45 
 13590      5233325F 
 13590      30202828 
 13590      4C50435F 
 13591              	.LASF1216:
 13592 2008 55415254 		.ascii	"UART_ACR_BITMASK (0x307)\000"
 13592      5F414352 
 13592      5F424954 
 13592      4D41534B 
 13592      20283078 
 13593              	.LASF1433:
 13594 2021 4D41585F 		.ascii	"MAX_CELLS_PER_MODULE 12\000"
 13594      43454C4C 
 13594      535F5045 
 13594      525F4D4F 
 13594      44554C45 
 13595              	.LASF1102:
 13596 2039 4D445F44 		.ascii	"MD_DISFIL (0x0 << 8)\000"
 13596      49534649 
 13596      4C202830 
 13596      7830203C 
 13596      3C203829 
 13597              	.LASF403:
 13598 204e 5F434F4E 		.ascii	"_CONST const\000"
 13598      53542063 
 13598      6F6E7374 
 13598      00
 13599              	.LASF208:
 13600 205b 5F5F4C46 		.ascii	"__LFRACT_IBIT__ 0\000"
 13600      52414354 
 13600      5F494249 
 13600      545F5F20 
 13600      3000
 13601              	.LASF1419:
 13602 206d 4F445F53 		.ascii	"OD_SEG_RO 0x40\000"
 13602      45475F52 
 13602      4F203078 
 13602      343000
 13603              	.LASF1641:
 13604 207c 75746F61 		.ascii	"utoa\000"
 13604      00
 13605              	.LASF304:
 13606 2081 5F5F5553 		.ascii	"__USER_LABEL_PREFIX__ \000"
ARM GAS  /var/folders/z0/6xlwn_996xz3mwq1cgzkbq4r0000gp/T//cc3rPjEN.s 			page 275


 13606      45525F4C 
 13606      4142454C 
 13606      5F505245 
 13606      4649585F 
 13607              	.LASF573:
 13608 2098 5F5F6174 		.ascii	"__attribute_malloc__ \000"
 13608      74726962 
 13608      7574655F 
 13608      6D616C6C 
 13608      6F635F5F 
 13609              	.LASF1069:
 13610 20ae 53595343 		.ascii	"SYSCTL_POWERDOWN_SYSPLL_PD (1 << 7)\000"
 13610      544C5F50 
 13610      4F574552 
 13610      444F574E 
 13610      5F535953 
 13611              	.LASF1190:
 13612 20d2 55415254 		.ascii	"UART_MCR_BITMASK (0xD3)\000"
 13612      5F4D4352 
 13612      5F424954 
 13612      4D41534B 
 13612      20283078 
 13613              	.LASF447:
 13614 20ea 5F53495A 		.ascii	"_SIZE_T_DECLARED \000"
 13614      455F545F 
 13614      4445434C 
 13614      41524544 
 13614      2000
 13615              	.LASF479:
 13616 20fc 5F5F5F69 		.ascii	"___int16_t_defined 1\000"
 13616      6E743136 
 13616      5F745F64 
 13616      6566696E 
 13616      65642031 
 13617              	.LASF1527:
 13618 2111 4353425F 		.ascii	"CSB_IDLE_OFF\000"
 13618      49444C45 
 13618      5F4F4646 
 13618      00
 13619              	.LASF1465:
 13620 211e 4D593136 		.ascii	"MY16_CC_CELL_VOLTAGE_mV 4300\000"
 13620      5F43435F 
 13620      43454C4C 
 13620      5F564F4C 
 13620      54414745 
 13621              	.LASF990:
 13622 213b 5343425F 		.ascii	"SCB_BASE (SCS_BASE + 0x0D00UL)\000"
 13622      42415345 
 13622      20285343 
 13622      535F4241 
 13622      5345202B 
 13623              	.LASF655:
 13624 215a 5F5F676E 		.ascii	"__gnu_inline __attribute__((__gnu_inline__, __artif"
 13624      755F696E 
 13624      6C696E65 
 13624      205F5F61 
 13624      74747269 
ARM GAS  /var/folders/z0/6xlwn_996xz3mwq1cgzkbq4r0000gp/T//cc3rPjEN.s 			page 276


 13625 218d 69636961 		.ascii	"icial__))\000"
 13625      6C5F5F29 
 13625      2900
 13626              	.LASF397:
 13627 2197 5F424547 		.ascii	"_BEGIN_STD_C \000"
 13627      494E5F53 
 13627      54445F43 
 13627      2000
 13628              	.LASF268:
 13629 21a5 5F5F5151 		.ascii	"__QQ_IBIT__ 0\000"
 13629      5F494249 
 13629      545F5F20 
 13629      3000
 13630              	.LASF1011:
 13631 21b3 4C50435F 		.ascii	"LPC_SYSCTL_BASE 0x40048000\000"
 13631      53595343 
 13631      544C5F42 
 13631      41534520 
 13631      30783430 
 13632              	.LASF1260:
 13633 21ce 5353505F 		.ascii	"SSP_CR0_CPOL_HI ((uint32_t) (1 << 6))\000"
 13633      4352305F 
 13633      43504F4C 
 13633      5F484920 
 13633      28287569 
 13634              	.LASF1357:
 13635 21f4 4932435F 		.ascii	"I2C_I2STAT_S_TX_LAST_DAT_ACK ((0xC8))\000"
 13635      49325354 
 13635      41545F53 
 13635      5F54585F 
 13635      4C415354 
 13636              	.LASF667:
 13637 221a 5F5F4445 		.ascii	"__DECONST(type,var) ((type)(__uintptr_t)(const void"
 13637      434F4E53 
 13637      54287479 
 13637      70652C76 
 13637      61722920 
 13638 224d 202A2928 		.ascii	" *)(var))\000"
 13638      76617229 
 13638      2900
 13639              	.LASF1181:
 13640 2257 55415254 		.ascii	"UART_LCR_PARITY_F_0 (3 << 4)\000"
 13640      5F4C4352 
 13640      5F504152 
 13640      4954595F 
 13640      465F3020 
 13641              	.LASF146:
 13642 2274 5F5F4442 		.ascii	"__DBL_MIN__ ((double)2.2250738585072014e-308L)\000"
 13642      4C5F4D49 
 13642      4E5F5F20 
 13642      2828646F 
 13642      75626C65 
 13643              	.LASF1176:
 13644 22a3 55415254 		.ascii	"UART_LCR_PARITY_EN (1 << 3)\000"
 13644      5F4C4352 
 13644      5F504152 
 13644      4954595F 
ARM GAS  /var/folders/z0/6xlwn_996xz3mwq1cgzkbq4r0000gp/T//cc3rPjEN.s 			page 277


 13644      454E2028 
 13645              	.LASF1084:
 13646 22bf 494F434F 		.ascii	"IOCON_MODE_REPEATER (0x3 << 3)\000"
 13646      4E5F4D4F 
 13646      44455F52 
 13646      45504541 
 13646      54455220 
 13647              	.LASF4:
 13648 22de 5F5F474E 		.ascii	"__GNUC_PATCHLEVEL__ 1\000"
 13648      55435F50 
 13648      41544348 
 13648      4C455645 
 13648      4C5F5F20 
 13649              	.LASF672:
 13650 22f4 5F5F6C6F 		.ascii	"__lock_annotate(x) \000"
 13650      636B5F61 
 13650      6E6E6F74 
 13650      61746528 
 13650      78292000 
 13651              	.LASF109:
 13652 2308 5F5F494E 		.ascii	"__INT_FAST8_MAX__ 0x7fffffff\000"
 13652      545F4641 
 13652      5354385F 
 13652      4D41585F 
 13652      5F203078 
 13653              	.LASF455:
 13654 2325 5F574348 		.ascii	"_WCHAR_T \000"
 13654      41525F54 
 13654      2000
 13655              	.LASF793:
 13656 232f 494E545F 		.ascii	"INT_FAST16_MAX (__INT_FAST16_MAX__)\000"
 13656      46415354 
 13656      31365F4D 
 13656      41582028 
 13656      5F5F494E 
 13657              	.LASF1129:
 13658 2353 5F5F5249 		.ascii	"__RING_BUFFER_H_ \000"
 13658      4E475F42 
 13658      55464645 
 13658      525F485F 
 13658      2000
 13659              	.LASF1280:
 13660 2365 5353505F 		.ascii	"SSP_MASTER_MODE SSP_CR1_MASTER_EN\000"
 13660      4D415354 
 13660      45525F4D 
 13660      4F444520 
 13660      5353505F 
 13661              	.LASF635:
 13662 2387 5F5F6E6F 		.ascii	"__nonnull(x) __attribute__((__nonnull__(x)))\000"
 13662      6E6E756C 
 13662      6C287829 
 13662      205F5F61 
 13662      74747269 
 13663              	.LASF1167:
 13664 23b4 55415254 		.ascii	"UART_FCR_TRG_LEV3 (3 << 6)\000"
 13664      5F464352 
 13664      5F545247 
ARM GAS  /var/folders/z0/6xlwn_996xz3mwq1cgzkbq4r0000gp/T//cc3rPjEN.s 			page 278


 13664      5F4C4556 
 13664      33202833 
 13665              	.LASF159:
 13666 23cf 5F5F4C44 		.ascii	"__LDBL_MAX__ 1.7976931348623157e+308L\000"
 13666      424C5F4D 
 13666      41585F5F 
 13666      20312E37 
 13666      39373639 
 13667              	.LASF1151:
 13668 23f5 55415254 		.ascii	"UART_IIR_BITMASK (0x3CF)\000"
 13668      5F494952 
 13668      5F424954 
 13668      4D41534B 
 13668      20283078 
 13669              	.LASF886:
 13670 240e 5F534246 		.ascii	"_SBF\000"
 13670      00
 13671              	.LASF260:
 13672 2413 5F5F4C4C 		.ascii	"__LLACCUM_MAX__ 0X7FFFFFFFFFFFFFFFP-31LLK\000"
 13672      41434355 
 13672      4D5F4D41 
 13672      585F5F20 
 13672      30583746 
 13673              	.LASF1369:
 13674 243d 4932435F 		.ascii	"I2C_I2SCLH_BITMASK ((0xFFFF))\000"
 13674      49325343 
 13674      4C485F42 
 13674      49544D41 
 13674      534B2028 
 13675              	.LASF1177:
 13676 245b 55415254 		.ascii	"UART_LCR_PARITY_DIS (0 << 3)\000"
 13676      5F4C4352 
 13676      5F504152 
 13676      4954595F 
 13676      44495320 
 13677              	.LASF154:
 13678 2478 5F5F4C44 		.ascii	"__LDBL_MIN_EXP__ (-1021)\000"
 13678      424C5F4D 
 13678      494E5F45 
 13678      58505F5F 
 13678      20282D31 
 13679              	.LASF1269:
 13680 2491 5353505F 		.ascii	"SSP_CR1_SO_DISABLE ((uint32_t) (1 << 3))\000"
 13680      4352315F 
 13680      534F5F44 
 13680      49534142 
 13680      4C452028 
 13681              	.LASF1510:
 13682 24ba 4353425F 		.ascii	"CSB_SSM_MODE_BALANCE\000"
 13682      53534D5F 
 13682      4D4F4445 
 13682      5F42414C 
 13682      414E4345 
 13683              	.LASF204:
 13684 24cf 5F5F5546 		.ascii	"__UFRACT_MIN__ 0.0UR\000"
 13684      52414354 
 13684      5F4D494E 
ARM GAS  /var/folders/z0/6xlwn_996xz3mwq1cgzkbq4r0000gp/T//cc3rPjEN.s 			page 279


 13684      5F5F2030 
 13684      2E305552 
 13685              	.LASF722:
 13686 24e4 5F5F696E 		.ascii	"__int20 +2\000"
 13686      74323020 
 13686      2B3200
 13687              	.LASF1541:
 13688 24ef 656C636F 		.ascii	"elcon_battery_voltage_not_detected\000"
 13688      6E5F6261 
 13688      74746572 
 13688      795F766F 
 13688      6C746167 
 13689              	.LASF1240:
 13690 2512 55415254 		.ascii	"UART_SYNCCTRL_SYNC (1 << 0)\000"
 13690      5F53594E 
 13690      43435452 
 13690      4C5F5359 
 13690      4E432028 
 13691              	.LASF787:
 13692 252e 494E545F 		.ascii	"INT_LEAST64_MAX (__INT_LEAST64_MAX__)\000"
 13692      4C454153 
 13692      5436345F 
 13692      4D415820 
 13692      285F5F49 
 13693              	.LASF1444:
 13694 2554 4D593138 		.ascii	"MY18_CELL_MAX_mV 4250\000"
 13694      5F43454C 
 13694      4C5F4D41 
 13694      585F6D56 
 13694      20343235 
 13695              	.LASF127:
 13696 256a 5F5F464C 		.ascii	"__FLT_MIN_10_EXP__ (-37)\000"
 13696      545F4D49 
 13696      4E5F3130 
 13696      5F455850 
 13696      5F5F2028 
 13697              	.LASF1528:
 13698 2583 4353425F 		.ascii	"CSB_IDLE_ON\000"
 13698      49444C45 
 13698      5F4F4E00 
 13699              	.LASF1620:
 13700 258f 666F756E 		.ascii	"found_command\000"
 13700      645F636F 
 13700      6D6D616E 
 13700      6400
 13701              	.LASF986:
 13702 259d 53797354 		.ascii	"SysTick_CALIB_TENMS_Msk (0xFFFFFFUL << SysTick_VAL_"
 13702      69636B5F 
 13702      43414C49 
 13702      425F5445 
 13702      4E4D535F 
 13703 25d0 43555252 		.ascii	"CURRENT_Pos)\000"
 13703      454E545F 
 13703      506F7329 
 13703      00
 13704              	.LASF831:
 13705 25dd 5F52494E 		.ascii	"_RING_HISTORY_LEN 64\000"
ARM GAS  /var/folders/z0/6xlwn_996xz3mwq1cgzkbq4r0000gp/T//cc3rPjEN.s 			page 280


 13705      475F4849 
 13705      53544F52 
 13705      595F4C45 
 13705      4E203634 
 13706              	.LASF1477:
 13707 25f2 5F5F7569 		.ascii	"__uint16_t\000"
 13707      6E743136 
 13707      5F7400
 13708              	.LASF149:
 13709 25fd 5F5F4442 		.ascii	"__DBL_HAS_DENORM__ 1\000"
 13709      4C5F4841 
 13709      535F4445 
 13709      4E4F524D 
 13709      5F5F2031 
 13710              	.LASF284:
 13711 2612 5F5F5544 		.ascii	"__UDQ_IBIT__ 0\000"
 13711      515F4942 
 13711      49545F5F 
 13711      203000
 13712              	.LASF138:
 13713 2621 5F5F4442 		.ascii	"__DBL_MANT_DIG__ 53\000"
 13713      4C5F4D41 
 13713      4E545F44 
 13713      49475F5F 
 13713      20353300 
 13714              	.LASF229:
 13715 2635 5F5F5341 		.ascii	"__SACCUM_MIN__ (-0X1P7HK-0X1P7HK)\000"
 13715      4343554D 
 13715      5F4D494E 
 13715      5F5F2028 
 13715      2D305831 
 13716              	.LASF1647:
 13717 2657 474E5520 		.ascii	"GNU C89 5.4.1 20160919 (release) [ARM/embedded-5-br"
 13717      43383920 
 13717      352E342E 
 13717      31203230 
 13717      31363039 
 13718 268a 616E6368 		.ascii	"anch revision 240496] -mcpu=cortex-m0 -mthumb -g -g"
 13718      20726576 
 13718      6973696F 
 13718      6E203234 
 13718      30343936 
 13719 26bd 67646233 		.ascii	"gdb3 -O2 -std=gnu90 -ffunction-sections -fdata-sect"
 13719      202D4F32 
 13719      202D7374 
 13719      643D676E 
 13719      75393020 
 13720 26f0 696F6E73 		.ascii	"ions\000"
 13720      00
 13721              	.LASF713:
 13722 26f5 7369676E 		.ascii	"signed\000"
 13722      656400
 13723              	.LASF662:
 13724 26fc 5F5F4642 		.ascii	"__FBSDID(s) struct __hack\000"
 13724      53444944 
 13724      28732920 
 13724      73747275 
ARM GAS  /var/folders/z0/6xlwn_996xz3mwq1cgzkbq4r0000gp/T//cc3rPjEN.s 			page 281


 13724      6374205F 
 13725              	.LASF741:
 13726 2716 5F55494E 		.ascii	"_UINT8_T_DECLARED \000"
 13726      54385F54 
 13726      5F444543 
 13726      4C415245 
 13726      442000
 13727              	.LASF1033:
 13728 2729 4C50435F 		.ascii	"LPC_SYSCTL ((LPC_SYSCTL_T *) LPC_SYSCTL_BASE)\000"
 13728      53595343 
 13728      544C2028 
 13728      284C5043 
 13728      5F535953 
 13729              	.LASF264:
 13730 2757 5F5F554C 		.ascii	"__ULLACCUM_MIN__ 0.0ULLK\000"
 13730      4C414343 
 13730      554D5F4D 
 13730      494E5F5F 
 13730      20302E30 
 13731              	.LASF1316:
 13732 2770 4932435F 		.ascii	"I2C_I2CONCLR_AAC ((1 << 2))\000"
 13732      4932434F 
 13732      4E434C52 
 13732      5F414143 
 13732      20282831 
 13733              	.LASF1032:
 13734 278c 4C50435F 		.ascii	"LPC_IOCON ((LPC_IOCON_T *) LPC_IOCON_BASE)\000"
 13734      494F434F 
 13734      4E202828 
 13734      4C50435F 
 13734      494F434F 
 13735              	.LASF771:
 13736 27b7 494E5431 		.ascii	"INT16_MIN (-__INT16_MAX__ - 1)\000"
 13736      365F4D49 
 13736      4E20282D 
 13736      5F5F494E 
 13736      5431365F 
 13737              	.LASF171:
 13738 27d6 5F5F4445 		.ascii	"__DEC32_EPSILON__ 1E-6DF\000"
 13738      4333325F 
 13738      45505349 
 13738      4C4F4E5F 
 13738      5F203145 
 13739              	.LASF402:
 13740 27ef 5F4E4F41 		.ascii	"_NOARGS void\000"
 13740      52475320 
 13740      766F6964 
 13740      00
 13741              	.LASF1555:
 13742 27fc 696E6974 		.ascii	"init_state\000"
 13742      5F737461 
 13742      746500
 13743              	.LASF1044:
 13744 2807 5F5F464D 		.ascii	"__FMC_11XX_H_ \000"
 13744      435F3131 
 13744      58585F48 
 13744      5F2000
ARM GAS  /var/folders/z0/6xlwn_996xz3mwq1cgzkbq4r0000gp/T//cc3rPjEN.s 			page 282


 13745              	.LASF1329:
 13746 2816 4932435F 		.ascii	"I2C_I2STAT_BUS_ERROR ((0x00))\000"
 13746      49325354 
 13746      41545F42 
 13746      55535F45 
 13746      52524F52 
 13747              	.LASF1259:
 13748 2834 5353505F 		.ascii	"SSP_CR0_CPOL_LO ((uint32_t) (0))\000"
 13748      4352305F 
 13748      43504F4C 
 13748      5F4C4F20 
 13748      28287569 
 13749              	.LASF213:
 13750 2855 5F5F554C 		.ascii	"__ULFRACT_IBIT__ 0\000"
 13750      46524143 
 13750      545F4942 
 13750      49545F5F 
 13750      203000
 13751              	.LASF374:
 13752 2868 5F504F53 		.ascii	"_POSIX_SOURCE\000"
 13752      49585F53 
 13752      4F555243 
 13752      4500
 13753              	.LASF451:
 13754 2876 5F5F7369 		.ascii	"__size_t \000"
 13754      7A655F74 
 13754      2000
 13755              	.LASF75:
 13756 2880 5F5F5749 		.ascii	"__WINT_MAX__ 0xffffffffU\000"
 13756      4E545F4D 
 13756      41585F5F 
 13756      20307866 
 13756      66666666 
 13757              	.LASF1584:
 13758 2899 72775F6C 		.ascii	"rw_loc_label_t\000"
 13758      6F635F6C 
 13758      6162656C 
 13758      5F7400
 13759              	.LASF1150:
 13760 28a8 55415254 		.ascii	"UART_IIR_ABTO_INT (1 << 9)\000"
 13760      5F494952 
 13760      5F414254 
 13760      4F5F494E 
 13760      54202831 
 13761              	.LASF1626:
 13762 28c3 7072696E 		.ascii	"printPackVoltage\000"
 13762      74506163 
 13762      6B566F6C 
 13762      74616765 
 13762      00
 13763              	.LASF232:
 13764 28d4 5F5F5553 		.ascii	"__USACCUM_FBIT__ 8\000"
 13764      41434355 
 13764      4D5F4642 
 13764      49545F5F 
 13764      203800
 13765              	.LASF1326:
ARM GAS  /var/folders/z0/6xlwn_996xz3mwq1cgzkbq4r0000gp/T//cc3rPjEN.s 			page 283


 13766 28e7 4932435F 		.ascii	"I2C_STAT_CODE_BITMASK ((0xF8))\000"
 13766      53544154 
 13766      5F434F44 
 13766      455F4249 
 13766      544D4153 
 13767              	.LASF1075:
 13768 2906 494F434F 		.ascii	"IOCON_FUNC2 0x2\000"
 13768      4E5F4655 
 13768      4E433220 
 13768      30783200 
 13769              	.LASF1652:
 13770 2916 4F736352 		.ascii	"OscRateIn\000"
 13770      61746549 
 13770      6E00
 13771              	.LASF316:
 13772 2920 5F5F4743 		.ascii	"__GCC_ATOMIC_TEST_AND_SET_TRUEVAL 1\000"
 13772      435F4154 
 13772      4F4D4943 
 13772      5F544553 
 13772      545F414E 
 13773              	.LASF774:
 13774 2944 494E545F 		.ascii	"INT_LEAST16_MIN (-__INT_LEAST16_MAX__ - 1)\000"
 13774      4C454153 
 13774      5431365F 
 13774      4D494E20 
 13774      282D5F5F 
 13775              	.LASF133:
 13776 296f 5F5F464C 		.ascii	"__FLT_EPSILON__ 1.1920928955078125e-7F\000"
 13776      545F4550 
 13776      53494C4F 
 13776      4E5F5F20 
 13776      312E3139 
 13777              	.LASF588:
 13778 2996 5F5F474E 		.ascii	"__GNUCLIKE___OFFSETOF 1\000"
 13778      55434C49 
 13778      4B455F5F 
 13778      5F4F4646 
 13778      5345544F 
 13779              	.LASF838:
 13780 29ae 4B45595F 		.ascii	"KEY_STX 2\000"
 13780      53545820 
 13780      3200
 13781              	.LASF1492:
 13782 29b8 424D535F 		.ascii	"BMS_PACK_STATUS\000"
 13782      5041434B 
 13782      5F535441 
 13782      54555300 
 13783              	.LASF1297:
 13784 29c8 4144435F 		.ascii	"ADC_CR_START_CTOUT15 ((2UL << 24))\000"
 13784      43525F53 
 13784      54415254 
 13784      5F43544F 
 13784      55543135 
 13785              	.LASF102:
 13786 29eb 5F5F5549 		.ascii	"__UINT8_C(c) c\000"
 13786      4E54385F 
 13786      43286329 
ARM GAS  /var/folders/z0/6xlwn_996xz3mwq1cgzkbq4r0000gp/T//cc3rPjEN.s 			page 284


 13786      206300
 13787              	.LASF1263:
 13788 29fa 5353505F 		.ascii	"SSP_CR0_SCR(n) ((uint32_t) ((n & 0xFF) << 8))\000"
 13788      4352305F 
 13788      53435228 
 13788      6E292028 
 13788      2875696E 
 13789              	.LASF1406:
 13790 2a28 53444F5F 		.ascii	"SDO_ABORT_NOT_EXISTS 0x06020000UL\000"
 13790      41424F52 
 13790      545F4E4F 
 13790      545F4558 
 13790      49535453 
 13791              	.LASF600:
 13792 2a4a 5F5F4343 		.ascii	"__CC_SUPPORTS_INLINE 1\000"
 13792      5F535550 
 13792      504F5254 
 13792      535F494E 
 13792      4C494E45 
 13793              	.LASF1414:
 13794 2a61 53444F5F 		.ascii	"SDO_ABORT_DEVSTAT 0x08000022UL\000"
 13794      41424F52 
 13794      545F4445 
 13794      56535441 
 13794      54203078 
 13795              	.LASF737:
 13796 2a80 5F5F4C45 		.ascii	"__LEAST32 \"l\"\000"
 13796      41535433 
 13796      3220226C 
 13796      2200
 13797              	.LASF1113:
 13798 2a8e 46554E43 		.ascii	"FUNC5 0x5\000"
 13798      35203078 
 13798      3500
 13799              	.LASF1609:
 13800 2a98 636F6D6D 		.ascii	"command_i\000"
 13800      616E645F 
 13800      6900
 13801              	.LASF215:
 13802 2aa2 5F5F554C 		.ascii	"__ULFRACT_MAX__ 0XFFFFFFFFP-32ULR\000"
 13802      46524143 
 13802      545F4D41 
 13802      585F5F20 
 13802      30584646 
 13803              	.LASF615:
 13804 2ac4 5F5F7765 		.ascii	"__weak_symbol __attribute__((__weak__))\000"
 13804      616B5F73 
 13804      796D626F 
 13804      6C205F5F 
 13804      61747472 
 13805              	.LASF576:
 13806 2aec 5F5F666C 		.ascii	"__flexarr [0]\000"
 13806      65786172 
 13806      72205B30 
 13806      5D00
 13807              	.LASF1376:
 13808 2afa 4932435F 		.ascii	"I2C_BYTE_RECV 0x02\000"
ARM GAS  /var/folders/z0/6xlwn_996xz3mwq1cgzkbq4r0000gp/T//cc3rPjEN.s 			page 285


 13808      42595445 
 13808      5F524543 
 13808      56203078 
 13808      303200
 13809              	.LASF540:
 13810 2b0d 5F524545 		.ascii	"_REENT_RAND48_ADD(ptr) ((ptr)->_new._reent._r48._ad"
 13810      4E545F52 
 13810      414E4434 
 13810      385F4144 
 13810      44287074 
 13811 2b40 642900   		.ascii	"d)\000"
 13812              	.LASF224:
 13813 2b43 5F5F554C 		.ascii	"__ULLFRACT_MIN__ 0.0ULLR\000"
 13813      4C465241 
 13813      43545F4D 
 13813      494E5F5F 
 13813      20302E30 
 13814              	.LASF946:
 13815 2b5c 5343425F 		.ascii	"SCB_ICSR_VECTACTIVE_Msk (0x1FFUL << SCB_ICSR_VECTAC"
 13815      49435352 
 13815      5F564543 
 13815      54414354 
 13815      4956455F 
 13816 2b8f 54495645 		.ascii	"TIVE_Pos)\000"
 13816      5F506F73 
 13816      2900
 13817              	.LASF1474:
 13818 2b99 756E7369 		.ascii	"unsigned char\000"
 13818      676E6564 
 13818      20636861 
 13818      7200
 13819              	.LASF902:
 13820 2ba7 5F5F4E56 		.ascii	"__NVIC_PRIO_BITS 2\000"
 13820      49435F50 
 13820      52494F5F 
 13820      42495453 
 13820      203200
 13821              	.LASF1533:
 13822 2bba 6D6F6465 		.ascii	"mode_request\000"
 13822      5F726571 
 13822      75657374 
 13822      00
 13823              	.LASF883:
 13824 2bc7 50415241 		.ascii	"PARAM_FUNCTIONALSTATE(State) ((State == DISABLE) ||"
 13824      4D5F4655 
 13824      4E435449 
 13824      4F4E414C 
 13824      53544154 
 13825 2bfa 20285374 		.ascii	" (State == ENABLE))\000"
 13825      61746520 
 13825      3D3D2045 
 13825      4E41424C 
 13825      45292900 
 13826              	.LASF1495:
 13827 2c0e 63656C6C 		.ascii	"cell_max_mV\000"
 13827      5F6D6178 
 13827      5F6D5600 
ARM GAS  /var/folders/z0/6xlwn_996xz3mwq1cgzkbq4r0000gp/T//cc3rPjEN.s 			page 286


 13828              	.LASF421:
 13829 2c1a 5F535953 		.ascii	"_SYS_REENT_H_ \000"
 13829      5F524545 
 13829      4E545F48 
 13829      5F2000
 13830              	.LASF404:
 13831 2c29 5F564F4C 		.ascii	"_VOLATILE volatile\000"
 13831      4154494C 
 13831      4520766F 
 13831      6C617469 
 13831      6C6500
 13832              	.LASF876:
 13833 2c3c 5F434F4E 		.ascii	"_CONSOLE_TYPES_H \000"
 13833      534F4C45 
 13833      5F545950 
 13833      45535F48 
 13833      2000
 13834              	.LASF1248:
 13835 2c4e 57574454 		.ascii	"WWDT_WDMOD_BITMASK ((uint32_t) 0x1F)\000"
 13835      5F57444D 
 13835      4F445F42 
 13835      49544D41 
 13835      534B2028 
 13836              	.LASF24:
 13837 2c73 5F5F4F52 		.ascii	"__ORDER_LITTLE_ENDIAN__ 1234\000"
 13837      4445525F 
 13837      4C495454 
 13837      4C455F45 
 13837      4E444941 
 13838              	.LASF433:
 13839 2c90 5F505452 		.ascii	"_PTRDIFF_T_DECLARED \000"
 13839      44494646 
 13839      5F545F44 
 13839      45434C41 
 13839      52454420 
 13840              	.LASF536:
 13841 2ca5 5F524545 		.ascii	"_REENT_SIGNGAM(ptr) ((ptr)->_new._reent._gamma_sign"
 13841      4E545F53 
 13841      49474E47 
 13841      414D2870 
 13841      74722920 
 13842 2cd8 67616D29 		.ascii	"gam)\000"
 13842      00
 13843              	.LASF1379:
 13844 2cdd 4932435F 		.ascii	"I2C_RECV_END 0x10\000"
 13844      52454356 
 13844      5F454E44 
 13844      20307831 
 13844      3000
 13845              	.LASF1163:
 13846 2cef 55415254 		.ascii	"UART_TX_FIFO_SIZE (16)\000"
 13846      5F54585F 
 13846      4649464F 
 13846      5F53495A 
 13846      45202831 
 13847              	.LASF1480:
 13848 2d06 5F5F7569 		.ascii	"__uint32_t\000"
ARM GAS  /var/folders/z0/6xlwn_996xz3mwq1cgzkbq4r0000gp/T//cc3rPjEN.s 			page 287


 13848      6E743332 
 13848      5F7400
 13849              	.LASF125:
 13850 2d11 5F5F464C 		.ascii	"__FLT_DIG__ 6\000"
 13850      545F4449 
 13850      475F5F20 
 13850      3600
 13851              	.LASF1451:
 13852 2d1f 4D593138 		.ascii	"MY18_CV_MIN_CURRENT_mA 100\000"
 13852      5F43565F 
 13852      4D494E5F 
 13852      43555252 
 13852      454E545F 
 13853              	.LASF731:
 13854 2d3a 5F5F4641 		.ascii	"__FAST8 \000"
 13854      53543820 
 13854      00
 13855              	.LASF124:
 13856 2d43 5F5F464C 		.ascii	"__FLT_MANT_DIG__ 24\000"
 13856      545F4D41 
 13856      4E545F44 
 13856      49475F5F 
 13856      20323400 
 13857              	.LASF142:
 13858 2d57 5F5F4442 		.ascii	"__DBL_MAX_EXP__ 1024\000"
 13858      4C5F4D41 
 13858      585F4558 
 13858      505F5F20 
 13858      31303234 
 13859              	.LASF1500:
 13860 2d6c 62616C5F 		.ascii	"bal_off_thresh_mV\000"
 13860      6F66665F 
 13860      74687265 
 13860      73685F6D 
 13860      5600
 13861              	.LASF1021:
 13862 2d7e 4C50435F 		.ascii	"LPC_I2C ((LPC_I2C_T *) LPC_I2C_BASE)\000"
 13862      49324320 
 13862      28284C50 
 13862      435F4932 
 13862      435F5420 
 13863              	.LASF1257:
 13864 2da3 5353505F 		.ascii	"SSP_CR0_FRF_TI ((uint32_t) (1 << 4))\000"
 13864      4352305F 
 13864      4652465F 
 13864      54492028 
 13864      2875696E 
 13865              	.LASF1552:
 13866 2dc8 4353425F 		.ascii	"CSB_STATE\000"
 13866      53544154 
 13866      4500
 13867              	.LASF1321:
 13868 2dd2 4932435F 		.ascii	"I2C_CON_AA (1UL << 2)\000"
 13868      434F4E5F 
 13868      41412028 
 13868      31554C20 
 13868      3C3C2032 
ARM GAS  /var/folders/z0/6xlwn_996xz3mwq1cgzkbq4r0000gp/T//cc3rPjEN.s 			page 288


 13869              	.LASF103:
 13870 2de8 5F5F5549 		.ascii	"__UINT_LEAST16_MAX__ 0xffff\000"
 13870      4E545F4C 
 13870      45415354 
 13870      31365F4D 
 13870      41585F5F 
 13871              	.LASF906:
 13872 2e04 5F5F434D 		.ascii	"__CM0_CMSIS_VERSION_SUB (0x01)\000"
 13872      305F434D 
 13872      5349535F 
 13872      56455253 
 13872      494F4E5F 
 13873              	.LASF968:
 13874 2e23 5343425F 		.ascii	"SCB_SHCSR_SVCALLPENDED_Msk (1UL << SCB_SHCSR_SVCALL"
 13874      53484353 
 13874      525F5356 
 13874      43414C4C 
 13874      50454E44 
 13875 2e56 50454E44 		.ascii	"PENDED_Pos)\000"
 13875      45445F50 
 13875      6F732900 
 13876              	.LASF589:
 13877 2e62 5F5F474E 		.ascii	"__GNUCLIKE___SECTION 1\000"
 13877      55434C49 
 13877      4B455F5F 
 13877      5F534543 
 13877      54494F4E 
 13878              	.LASF1596:
 13879 2e79 45584543 		.ascii	"EXECUTE_HANDLER\000"
 13879      5554455F 
 13879      48414E44 
 13879      4C455200 
 13880              	.LASF21:
 13881 2e89 5F5F5349 		.ascii	"__SIZEOF_SIZE_T__ 4\000"
 13881      5A454F46 
 13881      5F53495A 
 13881      455F545F 
 13881      5F203400 
 13882              	.LASF184:
 13883 2e9d 5F5F4445 		.ascii	"__DEC128_MAX__ 9.999999999999999999999999999999999E"
 13883      43313238 
 13883      5F4D4158 
 13883      5F5F2039 
 13883      2E393939 
 13884 2ed0 36313434 		.ascii	"6144DL\000"
 13884      444C00
 13885              	.LASF1291:
 13886 2ed7 4144435F 		.ascii	"ADC_CR_CLKDIV(n) ((((n) & 0xFF) << 8))\000"
 13886      43525F43 
 13886      4C4B4449 
 13886      56286E29 
 13886      20282828 
 13887              	.LASF874:
 13888 2efe 5F455343 		.ascii	"_ESC_END 3\000"
 13888      5F454E44 
 13888      203300
 13889              	.LASF955:
ARM GAS  /var/folders/z0/6xlwn_996xz3mwq1cgzkbq4r0000gp/T//cc3rPjEN.s 			page 289


 13890 2f09 5343425F 		.ascii	"SCB_AIRCR_VECTCLRACTIVE_Pos 1\000"
 13890      41495243 
 13890      525F5645 
 13890      4354434C 
 13890      52414354 
 13891              	.LASF1154:
 13892 2f27 55415254 		.ascii	"UART_IIR_INTID_RDA (2 << 1)\000"
 13892      5F494952 
 13892      5F494E54 
 13892      49445F52 
 13892      44412028 
 13893              	.LASF425:
 13894 2f43 5F505452 		.ascii	"_PTRDIFF_T \000"
 13894      44494646 
 13894      5F542000 
 13895              	.LASF1205:
 13896 2f4f 55415254 		.ascii	"UART_MSR_DELTA_DCD (1 << 3)\000"
 13896      5F4D5352 
 13896      5F44454C 
 13896      54415F44 
 13896      43442028 
 13897              	.LASF107:
 13898 2f6b 5F5F5549 		.ascii	"__UINT_LEAST64_MAX__ 0xffffffffffffffffULL\000"
 13898      4E545F4C 
 13898      45415354 
 13898      36345F4D 
 13898      41585F5F 
 13899              	.LASF1440:
 13900 2f96 5041434B 		.ascii	"PACK_VOLTAGE_PRINT_PERIOD_ms 1000\000"
 13900      5F564F4C 
 13900      54414745 
 13900      5F505249 
 13900      4E545F50 
 13901              	.LASF848:
 13902 2fb8 4B45595F 		.ascii	"KEY_FF 12\000"
 13902      46462031 
 13902      3200
 13903              	.LASF945:
 13904 2fc2 5343425F 		.ascii	"SCB_ICSR_VECTACTIVE_Pos 0\000"
 13904      49435352 
 13904      5F564543 
 13904      54414354 
 13904      4956455F 
 13905              	.LASF652:
 13906 2fdc 5F5F666F 		.ascii	"__format_arg(fmtarg) __attribute__((__format_arg__ "
 13906      726D6174 
 13906      5F617267 
 13906      28666D74 
 13906      61726729 
 13907 300f 28666D74 		.ascii	"(fmtarg)))\000"
 13907      61726729 
 13907      292900
 13908              	.LASF1197:
 13909 301a 55415254 		.ascii	"UART_LSR_TEMT (1 << 6)\000"
 13909      5F4C5352 
 13909      5F54454D 
 13909      54202831 
ARM GAS  /var/folders/z0/6xlwn_996xz3mwq1cgzkbq4r0000gp/T//cc3rPjEN.s 			page 290


 13909      203C3C20 
 13910              	.LASF829:
 13911 3031 5F50524F 		.ascii	"_PROMPT_LEN 3\000"
 13911      4D50545F 
 13911      4C454E20 
 13911      3300
 13912              	.LASF1234:
 13913 303f 55415254 		.ascii	"UART_SCICTRL_GUARDTIME(n) ((n & 0xFF) << 8)\000"
 13913      5F534349 
 13913      4354524C 
 13913      5F475541 
 13913      52445449 
 13914              	.LASF827:
 13915 306b 5F434F4D 		.ascii	"_COMMAND_TOKEN_NMB 10\000"
 13915      4D414E44 
 13915      5F544F4B 
 13915      454E5F4E 
 13915      4D422031 
 13916              	.LASF837:
 13917 3081 4B45595F 		.ascii	"KEY_SOH 1\000"
 13917      534F4820 
 13917      3100
 13918              	.LASF372:
 13919 308b 5F444546 		.ascii	"_DEFAULT_SOURCE\000"
 13919      41554C54 
 13919      5F534F55 
 13919      52434500 
 13920              	.LASF1247:
 13921 309b 5F5F5757 		.ascii	"__WWDT_11XX_H_ \000"
 13921      44545F31 
 13921      3158585F 
 13921      485F2000 
 13922              	.LASF680:
 13923 30ab 5F5F6173 		.ascii	"__asserts_shared(...) __lock_annotate(assert_shared"
 13923      73657274 
 13923      735F7368 
 13923      61726564 
 13923      282E2E2E 
 13924 30de 5F6C6F63 		.ascii	"_lock(__VA_ARGS__))\000"
 13924      6B285F5F 
 13924      56415F41 
 13924      5247535F 
 13924      5F292900 
 13925              	.LASF187:
 13926 30f2 5F5F5346 		.ascii	"__SFRACT_FBIT__ 7\000"
 13926      52414354 
 13926      5F464249 
 13926      545F5F20 
 13926      3700
 13927              	.LASF261:
 13928 3104 5F5F4C4C 		.ascii	"__LLACCUM_EPSILON__ 0x1P-31LLK\000"
 13928      41434355 
 13928      4D5F4550 
 13928      53494C4F 
 13928      4E5F5F20 
 13929              	.LASF815:
 13930 3123 494E5431 		.ascii	"INT16_C(x) __INT16_C(x)\000"
ARM GAS  /var/folders/z0/6xlwn_996xz3mwq1cgzkbq4r0000gp/T//cc3rPjEN.s 			page 291


 13930      365F4328 
 13930      7829205F 
 13930      5F494E54 
 13930      31365F43 
 13931              	.LASF1554:
 13932 313b 63757272 		.ascii	"curr_mode\000"
 13932      5F6D6F64 
 13932      6500
 13933              	.LASF841:
 13934 3145 4B45595F 		.ascii	"KEY_ENQ 5\000"
 13934      454E5120 
 13934      3500
 13935              	.LASF282:
 13936 314f 5F5F5553 		.ascii	"__USQ_IBIT__ 0\000"
 13936      515F4942 
 13936      49545F5F 
 13936      203000
 13937              	.LASF144:
 13938 315e 5F5F4442 		.ascii	"__DBL_DECIMAL_DIG__ 17\000"
 13938      4C5F4445 
 13938      43494D41 
 13938      4C5F4449 
 13938      475F5F20 
 13939              	.LASF756:
 13940 3175 5F5F696E 		.ascii	"__int_least32_t_defined 1\000"
 13940      745F6C65 
 13940      61737433 
 13940      325F745F 
 13940      64656669 
 13941              	.LASF926:
 13942 318f 5343425F 		.ascii	"SCB_CPUID_PARTNO_Msk (0xFFFUL << SCB_CPUID_PARTNO_P"
 13942      43505549 
 13942      445F5041 
 13942      52544E4F 
 13942      5F4D736B 
 13943 31c2 6F732900 		.ascii	"os)\000"
 13944              	.LASF863:
 13945 31c6 4B45595F 		.ascii	"KEY_ESC 27\000"
 13945      45534320 
 13945      323700
 13946              	.LASF1586:
 13947 31d1 524F4C5F 		.ascii	"ROL_pack_cell_max_mV\000"
 13947      7061636B 
 13947      5F63656C 
 13947      6C5F6D61 
 13947      785F6D56 
 13948              	.LASF1070:
 13949 31e6 5F5F434C 		.ascii	"__CLOCK_11XX_H_ \000"
 13949      4F434B5F 
 13949      31315858 
 13949      5F485F20 
 13949      00
 13950              	.LASF1456:
 13951 31f7 4D593136 		.ascii	"MY16_CELL_MAX_mV 4250\000"
 13951      5F43454C 
 13951      4C5F4D41 
 13951      585F6D56 
ARM GAS  /var/folders/z0/6xlwn_996xz3mwq1cgzkbq4r0000gp/T//cc3rPjEN.s 			page 292


 13951      20343235 
 13952              	.LASF406:
 13953 320d 5F444F54 		.ascii	"_DOTS , ...\000"
 13953      53202C20 
 13953      2E2E2E00 
 13954              	.LASF921:
 13955 3219 5343425F 		.ascii	"SCB_CPUID_VARIANT_Pos 20\000"
 13955      43505549 
 13955      445F5641 
 13955      5249414E 
 13955      545F506F 
 13956              	.LASF353:
 13957 3232 5F5F4E45 		.ascii	"__NEWLIB_MINOR__ 4\000"
 13957      574C4942 
 13957      5F4D494E 
 13957      4F525F5F 
 13957      203400
 13958              	.LASF1100:
 13959 3245 4D445F41 		.ascii	"MD_ADMODE (0x0 << 7)\000"
 13959      444D4F44 
 13959      45202830 
 13959      7830203C 
 13959      3C203729 
 13960              	.LASF671:
 13961 325a 5F5F6461 		.ascii	"__datatype_type_tag(kind,type) \000"
 13961      74617479 
 13961      70655F74 
 13961      7970655F 
 13961      74616728 
 13962              	.LASF373:
 13963 327a 5F444546 		.ascii	"_DEFAULT_SOURCE 1\000"
 13963      41554C54 
 13963      5F534F55 
 13963      52434520 
 13963      3100
 13964              	.LASF461:
 13965 328c 5F574348 		.ascii	"_WCHAR_T_DEFINED_ \000"
 13965      41525F54 
 13965      5F444546 
 13965      494E4544 
 13965      5F2000
 13966              	.LASF465:
 13967 329f 5F5F494E 		.ascii	"__INT_WCHAR_T_H \000"
 13967      545F5743 
 13967      4841525F 
 13967      545F4820 
 13967      00
 13968              	.LASF1287:
 13969 32b0 4144435F 		.ascii	"ADC_CR_BITACC(n) ((((n) & 0x7) << 17))\000"
 13969      43525F42 
 13969      49544143 
 13969      43286E29 
 13969      20282828 
 13970              	.LASF577:
 13971 32d7 5F5F626F 		.ascii	"__bounded \000"
 13971      756E6465 
 13971      642000
ARM GAS  /var/folders/z0/6xlwn_996xz3mwq1cgzkbq4r0000gp/T//cc3rPjEN.s 			page 293


 13972              	.LASF33:
 13973 32e2 5F5F5749 		.ascii	"__WINT_TYPE__ unsigned int\000"
 13973      4E545F54 
 13973      5950455F 
 13973      5F20756E 
 13973      7369676E 
 13974              	.LASF1025:
 13975 32fd 4C50435F 		.ascii	"LPC_TIMER16_1 ((LPC_TIMER_T *) LPC_TIMER16_1_BASE)\000"
 13975      54494D45 
 13975      5231365F 
 13975      31202828 
 13975      4C50435F 
 13976              	.LASF1630:
 13977 3330 4353425F 		.ascii	"CSB_IDLE_MODE_NAMES\000"
 13977      49444C45 
 13977      5F4D4F44 
 13977      455F4E41 
 13977      4D455300 
 13978              	.LASF1195:
 13979 3344 55415254 		.ascii	"UART_LSR_BI (1 << 4)\000"
 13979      5F4C5352 
 13979      5F424920 
 13979      2831203C 
 13979      3C203429 
 13980              	.LASF482:
 13981 3359 5F5F5F69 		.ascii	"___int_least8_t_defined 1\000"
 13981      6E745F6C 
 13981      65617374 
 13981      385F745F 
 13981      64656669 
 13982              	.LASF1556:
 13983 3373 63686172 		.ascii	"charge_state\000"
 13983      67655F73 
 13983      74617465 
 13983      00
 13984              	.LASF5:
 13985 3380 5F5F5645 		.ascii	"__VERSION__ \"5.4.1 20160919 (release) [ARM/embedde"
 13985      5253494F 
 13985      4E5F5F20 
 13985      22352E34 
 13985      2E312032 
 13986 33b2 642D352D 		.ascii	"d-5-branch revision 240496]\"\000"
 13986      6272616E 
 13986      63682072 
 13986      65766973 
 13986      696F6E20 
 13987              	.LASF1600:
 13988 33cf 6D656173 		.ascii	"measure_packcurrent\000"
 13988      7572655F 
 13988      7061636B 
 13988      63757272 
 13988      656E7400 
 13989              	.LASF359:
 13990 33e3 5F415445 		.ascii	"_ATEXIT_DYNAMIC_ALLOC 1\000"
 13990      5849545F 
 13990      44594E41 
 13990      4D49435F 
ARM GAS  /var/folders/z0/6xlwn_996xz3mwq1cgzkbq4r0000gp/T//cc3rPjEN.s 			page 294


 13990      414C4C4F 
 13991              	.LASF1309:
 13992 33fb 5245545F 		.ascii	"RET_SLAVE_BUSY 0\000"
 13992      534C4156 
 13992      455F4255 
 13992      53592030 
 13992      00
 13993              	.LASF86:
 13994 340c 5F5F494E 		.ascii	"__INT16_MAX__ 0x7fff\000"
 13994      5431365F 
 13994      4D41585F 
 13994      5F203078 
 13994      37666666 
 13995              	.LASF256:
 13996 3421 5F5F554C 		.ascii	"__ULACCUM_EPSILON__ 0x1P-32ULK\000"
 13996      41434355 
 13996      4D5F4550 
 13996      53494C4F 
 13996      4E5F5F20 
 13997              	.LASF826:
 13998 3440 5F434F4D 		.ascii	"_COMMAND_LINE_LEN (1+50)\000"
 13998      4D414E44 
 13998      5F4C494E 
 13998      455F4C45 
 13998      4E202831 
 13999              	.LASF1275:
 14000 3459 5353505F 		.ascii	"SSP_CPHA_FIRST SSP_CR0_CPHA_FIRST\000"
 14000      43504841 
 14000      5F464952 
 14000      53542053 
 14000      53505F43 
 14001              	.LASF1412:
 14002 347b 53444F5F 		.ascii	"SDO_ABORT_TRANSFER 0x08000020UL\000"
 14002      41424F52 
 14002      545F5452 
 14002      414E5346 
 14002      45522030 
 14003              	.LASF679:
 14004 349b 5F5F6173 		.ascii	"__asserts_exclusive(...) __lock_annotate(assert_exc"
 14004      73657274 
 14004      735F6578 
 14004      636C7573 
 14004      69766528 
 14005 34ce 6C757369 		.ascii	"lusive_lock(__VA_ARGS__))\000"
 14005      76655F6C 
 14005      6F636B28 
 14005      5F5F5641 
 14005      5F415247 
 14006              	.LASF1110:
 14007 34e8 46554E43 		.ascii	"FUNC2 0x2\000"
 14007      32203078 
 14007      3200
 14008              	.LASF867:
 14009 34f2 4B45595F 		.ascii	"KEY_US 31\000"
 14009      55532033 
 14009      3100
 14010              	.LASF644:
ARM GAS  /var/folders/z0/6xlwn_996xz3mwq1cgzkbq4r0000gp/T//cc3rPjEN.s 			page 295


 14011 34fc 5F5F7365 		.ascii	"__sentinel __attribute__((__sentinel__))\000"
 14011      6E74696E 
 14011      656C205F 
 14011      5F617474 
 14011      72696275 
 14012              	.LASF947:
 14013 3525 5343425F 		.ascii	"SCB_AIRCR_VECTKEY_Pos 16\000"
 14013      41495243 
 14013      525F5645 
 14013      43544B45 
 14013      595F506F 
 14014              	.LASF595:
 14015 353e 5F5F474E 		.ascii	"__GNUC_VA_LIST_COMPATIBILITY 1\000"
 14015      55435F56 
 14015      415F4C49 
 14015      53545F43 
 14015      4F4D5041 
 14016              	.LASF1137:
 14017 355d 55415254 		.ascii	"UART_IER_RBRINT (1 << 0)\000"
 14017      5F494552 
 14017      5F524252 
 14017      494E5420 
 14017      2831203C 
 14018              	.LASF1342:
 14019 3576 4932435F 		.ascii	"I2C_I2STAT_M_RX_DAT_ACK ((0x50))\000"
 14019      49325354 
 14019      41545F4D 
 14019      5F52585F 
 14019      4441545F 
 14020              	.LASF1491:
 14021 3597 424D535F 		.ascii	"BMS_PACK_STATUS_T\000"
 14021      5041434B 
 14021      5F535441 
 14021      5455535F 
 14021      5400
 14022              	.LASF1256:
 14023 35a9 5353505F 		.ascii	"SSP_CR0_FRF_SPI ((uint32_t) (0 << 4))\000"
 14023      4352305F 
 14023      4652465F 
 14023      53504920 
 14023      28287569 
 14024              	.LASF325:
 14025 35cf 5F5F4152 		.ascii	"__ARM_ARCH_PROFILE 77\000"
 14025      4D5F4152 
 14025      43485F50 
 14025      524F4649 
 14025      4C452037 
 14026              	.LASF598:
 14027 35e5 5F5F474E 		.ascii	"__GNUCLIKE_MATH_BUILTIN_RELOPS \000"
 14027      55434C49 
 14027      4B455F4D 
 14027      4154485F 
 14027      4255494C 
 14028              	.LASF983:
 14029 3605 53797354 		.ascii	"SysTick_CALIB_SKEW_Pos 30\000"
 14029      69636B5F 
 14029      43414C49 
ARM GAS  /var/folders/z0/6xlwn_996xz3mwq1cgzkbq4r0000gp/T//cc3rPjEN.s 			page 296


 14029      425F534B 
 14029      45575F50 
 14030              	.LASF1142:
 14031 361f 55415254 		.ascii	"UART_IER_ABEOINT (1 << 8)\000"
 14031      5F494552 
 14031      5F414245 
 14031      4F494E54 
 14031      20283120 
 14032              	.LASF896:
 14033 3639 494E4C49 		.ascii	"INLINE inline\000"
 14033      4E452069 
 14033      6E6C696E 
 14033      6500
 14034              	.LASF744:
 14035 3647 5F55494E 		.ascii	"_UINT16_T_DECLARED \000"
 14035      5431365F 
 14035      545F4445 
 14035      434C4152 
 14035      45442000 
 14036              	.LASF1411:
 14037 365b 53444F5F 		.ascii	"SDO_ABORT_VALUE_RANGE 0x06090030UL\000"
 14037      41424F52 
 14037      545F5641 
 14037      4C55455F 
 14037      52414E47 
 14038              	.LASF253:
 14039 367e 5F5F554C 		.ascii	"__ULACCUM_IBIT__ 32\000"
 14039      41434355 
 14039      4D5F4942 
 14039      49545F5F 
 14039      20333200 
 14040              	.LASF1425:
 14041 3692 43414E5F 		.ascii	"CAN_SDOSEG_SEGMENT 0\000"
 14041      53444F53 
 14041      45475F53 
 14041      45474D45 
 14041      4E542030 
 14042              	.LASF1458:
 14043 36a7 4D593136 		.ascii	"MY16_NUM_MODULES 6\000"
 14043      5F4E554D 
 14043      5F4D4F44 
 14043      554C4553 
 14043      203600
 14044              	.LASF1050:
 14045 36ba 53595343 		.ascii	"SYSCTL_RST_SYSRST (1 << 4)\000"
 14045      544C5F52 
 14045      53545F53 
 14045      59535253 
 14045      54202831 
 14046              	.LASF463:
 14047 36d5 5F574348 		.ascii	"_WCHAR_T_H \000"
 14047      41525F54 
 14047      5F482000 
 14048              	.LASF169:
 14049 36e1 5F5F4445 		.ascii	"__DEC32_MIN__ 1E-95DF\000"
 14049      4333325F 
 14049      4D494E5F 
ARM GAS  /var/folders/z0/6xlwn_996xz3mwq1cgzkbq4r0000gp/T//cc3rPjEN.s 			page 297


 14049      5F203145 
 14049      2D393544 
 14050              	.LASF126:
 14051 36f7 5F5F464C 		.ascii	"__FLT_MIN_EXP__ (-125)\000"
 14051      545F4D49 
 14051      4E5F4558 
 14051      505F5F20 
 14051      282D3132 
 14052              	.LASF27:
 14053 370e 5F5F4259 		.ascii	"__BYTE_ORDER__ __ORDER_LITTLE_ENDIAN__\000"
 14053      54455F4F 
 14053      52444552 
 14053      5F5F205F 
 14053      5F4F5244 
 14054              	.LASF943:
 14055 3735 5343425F 		.ascii	"SCB_ICSR_VECTPENDING_Pos 12\000"
 14055      49435352 
 14055      5F564543 
 14055      5450454E 
 14055      44494E47 
 14056              	.LASF1267:
 14057 3751 5353505F 		.ascii	"SSP_CR1_SLAVE_EN ((uint32_t) (1 << 2))\000"
 14057      4352315F 
 14057      534C4156 
 14057      455F454E 
 14057      20282875 
 14058              	.LASF108:
 14059 3778 5F5F5549 		.ascii	"__UINT64_C(c) c ## ULL\000"
 14059      4E543634 
 14059      5F432863 
 14059      29206320 
 14059      23232055 
 14060              	.LASF1132:
 14061 378f 55415254 		.ascii	"UART_RBR_MASKBIT (0xFF)\000"
 14061      5F524252 
 14061      5F4D4153 
 14061      4B424954 
 14061      20283078 
 14062              	.LASF198:
 14063 37a7 5F5F4652 		.ascii	"__FRACT_IBIT__ 0\000"
 14063      4143545F 
 14063      49424954 
 14063      5F5F2030 
 14063      00
 14064              	.LASF123:
 14065 37b8 5F5F464C 		.ascii	"__FLT_RADIX__ 2\000"
 14065      545F5241 
 14065      4449585F 
 14065      5F203200 
 14066              	.LASF932:
 14067 37c8 5343425F 		.ascii	"SCB_ICSR_PENDSVSET_Msk (1UL << SCB_ICSR_PENDSVSET_P"
 14067      49435352 
 14067      5F50454E 
 14067      44535653 
 14067      45545F4D 
 14068 37fb 6F732900 		.ascii	"os)\000"
 14069              	.LASF297:
ARM GAS  /var/folders/z0/6xlwn_996xz3mwq1cgzkbq4r0000gp/T//cc3rPjEN.s 			page 298


 14070 37ff 5F5F5553 		.ascii	"__USA_FBIT__ 16\000"
 14070      415F4642 
 14070      49545F5F 
 14070      20313600 
 14071              	.LASF190:
 14072 380f 5F5F5346 		.ascii	"__SFRACT_MAX__ 0X7FP-7HR\000"
 14072      52414354 
 14072      5F4D4158 
 14072      5F5F2030 
 14072      58374650 
 14073              	.LASF723:
 14074 3828 696E7420 		.ascii	"int +2\000"
 14074      2B3200
 14075              	.LASF1441:
 14076 382f 424D535F 		.ascii	"BMS_CAN_BAUD 500000\000"
 14076      43414E5F 
 14076      42415544 
 14076      20353030 
 14076      30303000 
 14077              	.LASF391:
 14078 3843 5F5F5241 		.ascii	"__RAND_MAX 0x7fffffff\000"
 14078      4E445F4D 
 14078      41582030 
 14078      78376666 
 14078      66666666 
 14079              	.LASF161:
 14080 3859 5F5F4C44 		.ascii	"__LDBL_EPSILON__ 2.2204460492503131e-16L\000"
 14080      424C5F45 
 14080      5053494C 
 14080      4F4E5F5F 
 14080      20322E32 
 14081              	.LASF1420:
 14082 3882 4F445F53 		.ascii	"OD_SEG_WO 0x50\000"
 14082      45475F57 
 14082      4F203078 
 14082      353000
 14083              	.LASF1407:
 14084 3891 53444F5F 		.ascii	"SDO_ABORT_PARAINCOMP 0x06040043UL\000"
 14084      41424F52 
 14084      545F5041 
 14084      5241494E 
 14084      434F4D50 
 14085              	.LASF1134:
 14086 38b3 55415254 		.ascii	"UART_DLL_MASKBIT (0xFF)\000"
 14086      5F444C4C 
 14086      5F4D4153 
 14086      4B424954 
 14086      20283078 
 14087              	.LASF952:
 14088 38cb 5343425F 		.ascii	"SCB_AIRCR_ENDIANESS_Msk (1UL << SCB_AIRCR_ENDIANESS"
 14088      41495243 
 14088      525F454E 
 14088      4449414E 
 14088      4553535F 
 14089 38fe 5F506F73 		.ascii	"_Pos)\000"
 14089      2900
 14090              	.LASF1153:
ARM GAS  /var/folders/z0/6xlwn_996xz3mwq1cgzkbq4r0000gp/T//cc3rPjEN.s 			page 299


 14091 3904 55415254 		.ascii	"UART_IIR_INTID_RLS (3 << 1)\000"
 14091      5F494952 
 14091      5F494E54 
 14091      49445F52 
 14091      4C532028 
 14092              	.LASF1057:
 14093 3920 53595343 		.ascii	"SYSCTL_SLPWAKE_BOD_PD (1 << 3)\000"
 14093      544C5F53 
 14093      4C505741 
 14093      4B455F42 
 14093      4F445F50 
 14094              	.LASF271:
 14095 393f 5F5F5351 		.ascii	"__SQ_FBIT__ 31\000"
 14095      5F464249 
 14095      545F5F20 
 14095      333100
 14096              	.LASF81:
 14097 394e 5F5F5549 		.ascii	"__UINTMAX_MAX__ 0xffffffffffffffffULL\000"
 14097      4E544D41 
 14097      585F4D41 
 14097      585F5F20 
 14097      30786666 
 14098              	.LASF1161:
 14099 3974 55415254 		.ascii	"UART_FCR_DMAMODE_SEL (1 << 3)\000"
 14099      5F464352 
 14099      5F444D41 
 14099      4D4F4445 
 14099      5F53454C 
 14100              	.LASF163:
 14101 3992 5F5F4C44 		.ascii	"__LDBL_HAS_DENORM__ 1\000"
 14101      424C5F48 
 14101      41535F44 
 14101      454E4F52 
 14101      4D5F5F20 
 14102              	.LASF298:
 14103 39a8 5F5F5553 		.ascii	"__USA_IBIT__ 16\000"
 14103      415F4942 
 14103      49545F5F 
 14103      20313600 
 14104              	.LASF241:
 14105 39b8 5F5F4143 		.ascii	"__ACCUM_EPSILON__ 0x1P-15K\000"
 14105      43554D5F 
 14105      45505349 
 14105      4C4F4E5F 
 14105      5F203078 
 14106              	.LASF306:
 14107 39d3 5F5F4348 		.ascii	"__CHAR_UNSIGNED__ 1\000"
 14107      41525F55 
 14107      4E534947 
 14107      4E45445F 
 14107      5F203100 
 14108              	.LASF1389:
 14109 39e7 43414E5F 		.ascii	"CAN_ERROR_BOFF 0x00000004UL\000"
 14109      4552524F 
 14109      525F424F 
 14109      46462030 
 14109      78303030 
ARM GAS  /var/folders/z0/6xlwn_996xz3mwq1cgzkbq4r0000gp/T//cc3rPjEN.s 			page 300


 14110              	.LASF182:
 14111 3a03 5F5F4445 		.ascii	"__DEC128_MAX_EXP__ 6145\000"
 14111      43313238 
 14111      5F4D4158 
 14111      5F455850 
 14111      5F5F2036 
 14112              	.LASF250:
 14113 3a1b 5F5F4C41 		.ascii	"__LACCUM_MAX__ 0X7FFFFFFFFFFFFFFFP-31LK\000"
 14113      4343554D 
 14113      5F4D4158 
 14113      5F5F2030 
 14113      58374646 
 14114              	.LASF509:
 14115 3a43 5F54494D 		.ascii	"_TIMER_T_ unsigned long\000"
 14115      45525F54 
 14115      5F20756E 
 14115      7369676E 
 14115      6564206C 
 14116              	.LASF1450:
 14117 3a5b 4D593138 		.ascii	"MY18_PACK_CELLS_PARALLEL 12\000"
 14117      5F504143 
 14117      4B5F4345 
 14117      4C4C535F 
 14117      50415241 
 14118              	.LASF172:
 14119 3a77 5F5F4445 		.ascii	"__DEC32_SUBNORMAL_MIN__ 0.000001E-95DF\000"
 14119      4333325F 
 14119      5355424E 
 14119      4F524D41 
 14119      4C5F4D49 
 14120              	.LASF989:
 14121 3a9e 4E564943 		.ascii	"NVIC_BASE (SCS_BASE + 0x0100UL)\000"
 14121      5F424153 
 14121      45202853 
 14121      43535F42 
 14121      41534520 
 14122              	.LASF742:
 14123 3abe 5F5F696E 		.ascii	"__int8_t_defined 1\000"
 14123      74385F74 
 14123      5F646566 
 14123      696E6564 
 14123      203100
 14124              	.LASF866:
 14125 3ad1 4B45595F 		.ascii	"KEY_RS 30\000"
 14125      52532033 
 14125      3000
 14126              	.LASF201:
 14127 3adb 5F5F4652 		.ascii	"__FRACT_EPSILON__ 0x1P-15R\000"
 14127      4143545F 
 14127      45505349 
 14127      4C4F4E5F 
 14127      5F203078 
 14128              	.LASF354:
 14129 3af6 5F5F4E45 		.ascii	"__NEWLIB_PATCHLEVEL__ 0\000"
 14129      574C4942 
 14129      5F504154 
 14129      43484C45 
ARM GAS  /var/folders/z0/6xlwn_996xz3mwq1cgzkbq4r0000gp/T//cc3rPjEN.s 			page 301


 14129      56454C5F 
 14130              	.LASF939:
 14131 3b0e 5343425F 		.ascii	"SCB_ICSR_ISRPREEMPT_Pos 23\000"
 14131      49435352 
 14131      5F495352 
 14131      50524545 
 14131      4D50545F 
 14132              	.LASF498:
 14133 3b29 5F5F6C6F 		.ascii	"__lock_release(lock) (_CAST_VOID 0)\000"
 14133      636B5F72 
 14133      656C6561 
 14133      7365286C 
 14133      6F636B29 
 14134              	.LASF746:
 14135 3b4d 5F494E54 		.ascii	"_INT32_T_DECLARED \000"
 14135      33325F54 
 14135      5F444543 
 14135      4C415245 
 14135      442000
 14136              	.LASF1548:
 14137 3b60 696E745F 		.ascii	"int_fault\000"
 14137      6661756C 
 14137      7400
 14138              	.LASF1363:
 14139 3b6a 4932435F 		.ascii	"I2C_I2MMCTRL_MATCH_ALL ((1 << 2))\000"
 14139      49324D4D 
 14139      4354524C 
 14139      5F4D4154 
 14139      43485F41 
 14140              	.LASF1128:
 14141 3b8c 5F5F5541 		.ascii	"__UART_11XX_H_ \000"
 14141      52545F31 
 14141      3158585F 
 14141      485F2000 
 14142              	.LASF790:
 14143 3b9c 494E545F 		.ascii	"INT_FAST8_MAX (__INT_FAST8_MAX__)\000"
 14143      46415354 
 14143      385F4D41 
 14143      5820285F 
 14143      5F494E54 
 14144              	.LASF1650:
 14145 3bbe 4353425F 		.ascii	"CSB_SSM_MODE\000"
 14145      53534D5F 
 14145      4D4F4445 
 14145      00
 14146              	.LASF1125:
 14147 3bcb 54494D45 		.ascii	"TIMER_CAP_RISING(n) (_BIT(((n) * 3)))\000"
 14147      525F4341 
 14147      505F5249 
 14147      53494E47 
 14147      286E2920 
 14148              	.LASF1426:
 14149 3bf1 43414E5F 		.ascii	"CAN_SDOSEG_OPEN 1\000"
 14149      53444F53 
 14149      45475F4F 
 14149      50454E20 
 14149      3100
ARM GAS  /var/folders/z0/6xlwn_996xz3mwq1cgzkbq4r0000gp/T//cc3rPjEN.s 			page 302


 14150              	.LASF283:
 14151 3c03 5F5F5544 		.ascii	"__UDQ_FBIT__ 64\000"
 14151      515F4642 
 14151      49545F5F 
 14151      20363400 
 14152              	.LASF758:
 14153 3c13 5F5F696E 		.ascii	"__int_fast8_t_defined 1\000"
 14153      745F6661 
 14153      7374385F 
 14153      745F6465 
 14153      66696E65 
 14154              	.LASF188:
 14155 3c2b 5F5F5346 		.ascii	"__SFRACT_IBIT__ 0\000"
 14155      52414354 
 14155      5F494249 
 14155      545F5F20 
 14155      3000
 14156              	.LASF658:
 14157 3c3d 5F5F7765 		.ascii	"__weak_reference(sym,alias) __asm__(\".weak \" #ali"
 14157      616B5F72 
 14157      65666572 
 14157      656E6365 
 14157      2873796D 
 14158 3c6e 6173293B 		.ascii	"as); __asm__(\".equ \" #alias \", \" #sym)\000"
 14158      205F5F61 
 14158      736D5F5F 
 14158      28222E65 
 14158      71752022 
 14159              	.LASF789:
 14160 3c95 494E545F 		.ascii	"INT_FAST8_MIN (-__INT_FAST8_MAX__ - 1)\000"
 14160      46415354 
 14160      385F4D49 
 14160      4E20282D 
 14160      5F5F494E 
 14161              	.LASF1430:
 14162 3cbc 48657274 		.ascii	"Hertz2Ticks(freq) SystemCoreClock / freq\000"
 14162      7A325469 
 14162      636B7328 
 14162      66726571 
 14162      29205379 
 14163              	.LASF481:
 14164 3ce5 5F5F5F69 		.ascii	"___int64_t_defined 1\000"
 14164      6E743634 
 14164      5F745F64 
 14164      6566696E 
 14164      65642031 
 14165              	.LASF597:
 14166 3cfa 5F5F474E 		.ascii	"__GNUCLIKE_BUILTIN_NEXT_ARG 1\000"
 14166      55434C49 
 14166      4B455F42 
 14166      55494C54 
 14166      494E5F4E 
 14167              	.LASF750:
 14168 3d18 5F55494E 		.ascii	"_UINT64_T_DECLARED \000"
 14168      5436345F 
 14168      545F4445 
 14168      434C4152 
ARM GAS  /var/folders/z0/6xlwn_996xz3mwq1cgzkbq4r0000gp/T//cc3rPjEN.s 			page 303


 14168      45442000 
 14169              	.LASF716:
 14170 3d2c 5F5F696E 		.ascii	"__int20\000"
 14170      74323000 
 14171              	.LASF310:
 14172 3d34 5F5F4743 		.ascii	"__GCC_ATOMIC_CHAR32_T_LOCK_FREE 1\000"
 14172      435F4154 
 14172      4F4D4943 
 14172      5F434841 
 14172      5233325F 
 14173              	.LASF842:
 14174 3d56 4B45595F 		.ascii	"KEY_ACK 6\000"
 14174      41434B20 
 14174      3600
 14175              	.LASF40:
 14176 3d60 5F5F494E 		.ascii	"__INT16_TYPE__ short int\000"
 14176      5431365F 
 14176      54595045 
 14176      5F5F2073 
 14176      686F7274 
 14177              	.LASF861:
 14178 3d79 4B45595F 		.ascii	"KEY_EM 25\000"
 14178      454D2032 
 14178      3500
 14179              	.LASF759:
 14180 3d83 5F5F696E 		.ascii	"__int_fast16_t_defined 1\000"
 14180      745F6661 
 14180      73743136 
 14180      5F745F64 
 14180      6566696E 
 14181              	.LASF538:
 14182 3d9c 5F524545 		.ascii	"_REENT_RAND48_SEED(ptr) ((ptr)->_new._reent._r48._s"
 14182      4E545F52 
 14182      414E4434 
 14182      385F5345 
 14182      45442870 
 14183 3dcf 65656429 		.ascii	"eed)\000"
 14183      00
 14184              	.LASF528:
 14185 3dd4 5F524545 		.ascii	"_REENT_INIT_PTR_ZEROED(var) { (var)->_stdin = &(var"
 14185      4E545F49 
 14185      4E49545F 
 14185      5054525F 
 14185      5A45524F 
 14186 3e07 292D3E5F 		.ascii	")->__sf[0]; (var)->_stdout = &(var)->__sf[1]; (var)"
 14186      5F73665B 
 14186      305D3B20 
 14186      28766172 
 14186      292D3E5F 
 14187 3e3a 2D3E5F73 		.ascii	"->_stderr = &(var)->__sf[2]; (var)->_new._reent._ra"
 14187      74646572 
 14187      72203D20 
 14187      26287661 
 14187      72292D3E 
 14188 3e6d 6E645F6E 		.ascii	"nd_next = 1; (var)->_new._reent._r48._seed[0] = _RA"
 14188      65787420 
 14188      3D20313B 
ARM GAS  /var/folders/z0/6xlwn_996xz3mwq1cgzkbq4r0000gp/T//cc3rPjEN.s 			page 304


 14188      20287661 
 14188      72292D3E 
 14189 3ea0 4E443438 		.ascii	"ND48_SEED_0; (var)->_new._reent._r48._seed[1] = _RA"
 14189      5F534545 
 14189      445F303B 
 14189      20287661 
 14189      72292D3E 
 14190 3ed3 4E443438 		.ascii	"ND48_SEED_1; (var)->_new._reent._r48._seed[2] = _RA"
 14190      5F534545 
 14190      445F313B 
 14190      20287661 
 14190      72292D3E 
 14191 3f06 4E443438 		.ascii	"ND48_SEED_2; (var)->_new._reent._r48._mult[0] = _RA"
 14191      5F534545 
 14191      445F323B 
 14191      20287661 
 14191      72292D3E 
 14192 3f39 4E443438 		.ascii	"ND48_MULT_0; (var)->_new._reent._r48._mult[1] = _RA"
 14192      5F4D554C 
 14192      545F303B 
 14192      20287661 
 14192      72292D3E 
 14193 3f6c 4E443438 		.ascii	"ND48_MULT_1; (var)->_new._reent._r48._mult[2] = _RA"
 14193      5F4D554C 
 14193      545F313B 
 14193      20287661 
 14193      72292D3E 
 14194 3f9f 4E443438 		.ascii	"ND48_MULT_2; (var)->_new._reent._r48._add = _RAND48"
 14194      5F4D554C 
 14194      545F323B 
 14194      20287661 
 14194      72292D3E 
 14195 3fd2 5F414444 		.ascii	"_ADD; }\000"
 14195      3B207D00 
 14196              	.LASF199:
 14197 3fda 5F5F4652 		.ascii	"__FRACT_MIN__ (-0.5R-0.5R)\000"
 14197      4143545F 
 14197      4D494E5F 
 14197      5F20282D 
 14197      302E3552 
 14198              	.LASF212:
 14199 3ff5 5F5F554C 		.ascii	"__ULFRACT_FBIT__ 32\000"
 14199      46524143 
 14199      545F4642 
 14199      49545F5F 
 14199      20333200 
 14200              	.LASF599:
 14201 4009 5F5F474E 		.ascii	"__GNUCLIKE_BUILTIN_MEMCPY 1\000"
 14201      55434C49 
 14201      4B455F42 
 14201      55494C54 
 14201      494E5F4D 
 14202              	.LASF448:
 14203 4025 5F5F5F69 		.ascii	"___int_size_t_h \000"
 14203      6E745F73 
 14203      697A655F 
 14203      745F6820 
ARM GAS  /var/folders/z0/6xlwn_996xz3mwq1cgzkbq4r0000gp/T//cc3rPjEN.s 			page 305


 14203      00
 14204              	.LASF661:
 14205 4036 5F5F7379 		.ascii	"__sym_default(sym,impl,verid) __asm__(\".symver \" "
 14205      6D5F6465 
 14205      6661756C 
 14205      74287379 
 14205      6D2C696D 
 14206 4067 23696D70 		.ascii	"#impl \", \" #sym \"@@\" #verid)\000"
 14206      6C20222C 
 14206      20222023 
 14206      73796D20 
 14206      22404022 
 14207              	.LASF1306:
 14208 4084 5245545F 		.ascii	"RET_SLAVE_TX 6\000"
 14208      534C4156 
 14208      455F5458 
 14208      203600
 14209              	.LASF444:
 14210 4093 5F53495A 		.ascii	"_SIZE_T_DEFINED_ \000"
 14210      455F545F 
 14210      44454649 
 14210      4E45445F 
 14210      2000
 14211              	.LASF314:
 14212 40a5 5F5F4743 		.ascii	"__GCC_ATOMIC_LONG_LOCK_FREE 1\000"
 14212      435F4154 
 14212      4F4D4943 
 14212      5F4C4F4E 
 14212      475F4C4F 
 14213              	.LASF1397:
 14214 40c3 43414E5F 		.ascii	"CAN_MSGOBJ_EXT 0x20000000UL\000"
 14214      4D53474F 
 14214      424A5F45 
 14214      58542030 
 14214      78323030 
 14215              	.LASF333:
 14216 40df 5F5F534F 		.ascii	"__SOFTFP__ 1\000"
 14216      46544650 
 14216      5F5F2031 
 14216      00
 14217              	.LASF760:
 14218 40ec 5F5F696E 		.ascii	"__int_fast32_t_defined 1\000"
 14218      745F6661 
 14218      73743332 
 14218      5F745F64 
 14218      6566696E 
 14219              	.LASF339:
 14220 4105 5F5F4758 		.ascii	"__GXX_TYPEINFO_EQUALITY_INLINE 0\000"
 14220      585F5459 
 14220      5045494E 
 14220      464F5F45 
 14220      5155414C 
 14221              	.LASF904:
 14222 4126 5F5F434F 		.ascii	"__CORE_CM0_H_GENERIC \000"
 14222      52455F43 
 14222      4D305F48 
 14222      5F47454E 
ARM GAS  /var/folders/z0/6xlwn_996xz3mwq1cgzkbq4r0000gp/T//cc3rPjEN.s 			page 306


 14222      45524943 
 14223              	.LASF484:
 14224 413c 5F5F5F69 		.ascii	"___int_least32_t_defined 1\000"
 14224      6E745F6C 
 14224      65617374 
 14224      33325F74 
 14224      5F646566 
 14225              	.LASF279:
 14226 4157 5F5F5548 		.ascii	"__UHQ_FBIT__ 16\000"
 14226      515F4642 
 14226      49545F5F 
 14226      20313600 
 14227              	.LASF342:
 14228 4167 55415254 		.ascii	"UART_BAUD 57600\000"
 14228      5F424155 
 14228      44203537 
 14228      36303000 
 14229              	.LASF689:
 14230 4177 5F535953 		.ascii	"_SYS__LOCALE_H \000"
 14230      5F5F4C4F 
 14230      43414C45 
 14230      5F482000 
 14231              	.LASF490:
 14232 4187 5F5F6C6F 		.ascii	"__lock_init(lock) (_CAST_VOID 0)\000"
 14232      636B5F69 
 14232      6E697428 
 14232      6C6F636B 
 14232      2920285F 
 14233              	.LASF1375:
 14234 41a8 4932435F 		.ascii	"I2C_BYTE_SENT 0x01\000"
 14234      42595445 
 14234      5F53454E 
 14234      54203078 
 14234      303100
 14235              	.LASF1000:
 14236 41bb 4C50435F 		.ascii	"LPC_TIMER16_0_BASE 0x4000C000\000"
 14236      54494D45 
 14236      5231365F 
 14236      305F4241 
 14236      53452030 
 14237              	.LASF470:
 14238 41d9 4E554C4C 		.ascii	"NULL\000"
 14238      00
 14239              	.LASF1191:
 14240 41de 55415254 		.ascii	"UART_LSR_RDR (1 << 0)\000"
 14240      5F4C5352 
 14240      5F524452 
 14240      20283120 
 14240      3C3C2030 
 14241              	.LASF596:
 14242 41f4 5F5F636F 		.ascii	"__compiler_membar() __asm __volatile(\" \" : : : \""
 14242      6D70696C 
 14242      65725F6D 
 14242      656D6261 
 14242      72282920 
 14243 4224 6D656D6F 		.ascii	"memory\")\000"
 14243      72792229 
ARM GAS  /var/folders/z0/6xlwn_996xz3mwq1cgzkbq4r0000gp/T//cc3rPjEN.s 			page 307


 14243      00
 14244              	.LASF387:
 14245 422d 5F5F5356 		.ascii	"__SVID_VISIBLE 1\000"
 14245      49445F56 
 14245      49534942 
 14245      4C452031 
 14245      00
 14246              	.LASF1543:
 14247 423e 72656365 		.ascii	"receive_bms_config\000"
 14247      6976655F 
 14247      626D735F 
 14247      636F6E66 
 14247      696700
 14248              	.LASF74:
 14249 4251 5F5F5743 		.ascii	"__WCHAR_MIN__ 0U\000"
 14249      4841525F 
 14249      4D494E5F 
 14249      5F203055 
 14249      00
 14250              	.LASF554:
 14251 4262 5F524545 		.ascii	"_REENT_MBSRTOWCS_STATE(ptr) ((ptr)->_new._reent._mb"
 14251      4E545F4D 
 14251      42535254 
 14251      4F574353 
 14251      5F535441 
 14252 4295 7372746F 		.ascii	"srtowcs_state)\000"
 14252      7763735F 
 14252      73746174 
 14252      652900
 14253              	.LASF273:
 14254 42a4 5F5F4451 		.ascii	"__DQ_FBIT__ 63\000"
 14254      5F464249 
 14254      545F5F20 
 14254      363300
 14255              	.LASF1144:
 14256 42b3 55415254 		.ascii	"UART_IER_BITMASK (0x307)\000"
 14256      5F494552 
 14256      5F424954 
 14256      4D41534B 
 14256      20283078 
 14257              	.LASF530:
 14258 42cc 5F524545 		.ascii	"_REENT_CHECK_MP(ptr) \000"
 14258      4E545F43 
 14258      4845434B 
 14258      5F4D5028 
 14258      70747229 
 14259              	.LASF1147:
 14260 42e2 55415254 		.ascii	"UART_IIR_INTSTAT_PEND (1 << 0)\000"
 14260      5F494952 
 14260      5F494E54 
 14260      53544154 
 14260      5F50454E 
 14261              	.LASF252:
 14262 4301 5F5F554C 		.ascii	"__ULACCUM_FBIT__ 32\000"
 14262      41434355 
 14262      4D5F4642 
 14262      49545F5F 
ARM GAS  /var/folders/z0/6xlwn_996xz3mwq1cgzkbq4r0000gp/T//cc3rPjEN.s 			page 308


 14262      20333200 
 14263              	.LASF907:
 14264 4315 5F5F434D 		.ascii	"__CM0_CMSIS_VERSION ((__CM0_CMSIS_VERSION_MAIN << 1"
 14264      305F434D 
 14264      5349535F 
 14264      56455253 
 14264      494F4E20 
 14265 4348 3629207C 		.ascii	"6) | __CM0_CMSIS_VERSION_SUB )\000"
 14265      205F5F43 
 14265      4D305F43 
 14265      4D534953 
 14265      5F564552 
 14266              	.LASF466:
 14267 4367 5F474343 		.ascii	"_GCC_WCHAR_T \000"
 14267      5F574348 
 14267      41525F54 
 14267      2000
 14268              	.LASF799:
 14269 4375 494E545F 		.ascii	"INT_FAST64_MAX (__INT_FAST64_MAX__)\000"
 14269      46415354 
 14269      36345F4D 
 14269      41582028 
 14269      5F5F494E 
 14270              	.LASF1059:
 14271 4399 53595343 		.ascii	"SYSCTL_SLPWAKE_SYSOSC_PD (1 << 5)\000"
 14271      544C5F53 
 14271      4C505741 
 14271      4B455F53 
 14271      59534F53 
 14272              	.LASF488:
 14273 43bb 5F5F4C4F 		.ascii	"__LOCK_INIT(class,lock) static int lock = 0;\000"
 14273      434B5F49 
 14273      4E495428 
 14273      636C6173 
 14273      732C6C6F 
 14274              	.LASF727:
 14275 43e8 5F5F494E 		.ascii	"__INT8 \"hh\"\000"
 14275      54382022 
 14275      68682200 
 14276              	.LASF1415:
 14277 43f4 4F445F4E 		.ascii	"OD_NONE 0x00\000"
 14277      4F4E4520 
 14277      30783030 
 14277      00
 14278              	.LASF1058:
 14279 4401 53595343 		.ascii	"SYSCTL_SLPWAKE_ADC_PD (1 << 4)\000"
 14279      544C5F53 
 14279      4C505741 
 14279      4B455F41 
 14279      44435F50 
 14280              	.LASF197:
 14281 4420 5F5F4652 		.ascii	"__FRACT_FBIT__ 15\000"
 14281      4143545F 
 14281      46424954 
 14281      5F5F2031 
 14281      3500
 14282              	.LASF931:
ARM GAS  /var/folders/z0/6xlwn_996xz3mwq1cgzkbq4r0000gp/T//cc3rPjEN.s 			page 309


 14283 4432 5343425F 		.ascii	"SCB_ICSR_PENDSVSET_Pos 28\000"
 14283      49435352 
 14283      5F50454E 
 14283      44535653 
 14283      45545F50 
 14284              	.LASF1095:
 14285 444c 4D445F50 		.ascii	"MD_PDN (0x1 << 3)\000"
 14285      444E2028 
 14285      30783120 
 14285      3C3C2033 
 14285      2900
 14286              	.LASF1278:
 14287 445e 5353505F 		.ascii	"SSP_CPOL_LO SSP_CR0_CPOL_HI\000"
 14287      43504F4C 
 14287      5F4C4F20 
 14287      5353505F 
 14287      4352305F 
 14288              	.LASF616:
 14289 447a 5F5F6465 		.ascii	"__dead2 __attribute__((__noreturn__))\000"
 14289      61643220 
 14289      5F5F6174 
 14289      74726962 
 14289      7574655F 
 14290              	.LASF1628:
 14291 44a0 4353425F 		.ascii	"CSB_CHARGE_MODE_NAMES\000"
 14291      43484152 
 14291      47455F4D 
 14291      4F44455F 
 14291      4E414D45 
 14292              	.LASF687:
 14293 44b6 5F5F6E65 		.ascii	"__need_size_t \000"
 14293      65645F73 
 14293      697A655F 
 14293      742000
 14294              	.LASF1358:
 14295 44c5 4932435F 		.ascii	"I2C_SLAVE_TIME_OUT 0x10000000UL\000"
 14295      534C4156 
 14295      455F5449 
 14295      4D455F4F 
 14295      55542030 
 14296              	.LASF87:
 14297 44e5 5F5F494E 		.ascii	"__INT32_MAX__ 0x7fffffffL\000"
 14297      5433325F 
 14297      4D41585F 
 14297      5F203078 
 14297      37666666 
 14298              	.LASF1549:
 14299 44ff 626D735F 		.ascii	"bms_fault\000"
 14299      6661756C 
 14299      7400
 14300              	.LASF1244:
 14301 4509 55415254 		.ascii	"UART_SYNCCTRL_CSCEN (1 << 4)\000"
 14301      5F53594E 
 14301      43435452 
 14301      4C5F4353 
 14301      43454E20 
 14302              	.LASF994:
ARM GAS  /var/folders/z0/6xlwn_996xz3mwq1cgzkbq4r0000gp/T//cc3rPjEN.s 			page 310


 14303 4526 5F424954 		.ascii	"_BIT_SHIFT(IRQn) ( (((uint32_t)(IRQn) ) & 0x03) * 8"
 14303      5F534849 
 14303      46542849 
 14303      52516E29 
 14303      20282028 
 14304 4559 202900   		.ascii	" )\000"
 14305              	.LASF808:
 14306 455c 50545244 		.ascii	"PTRDIFF_MIN (-PTRDIFF_MAX - 1)\000"
 14306      4946465F 
 14306      4D494E20 
 14306      282D5054 
 14306      52444946 
 14307              	.LASF1164:
 14308 457b 55415254 		.ascii	"UART_FCR_TRG_LEV0 (0)\000"
 14308      5F464352 
 14308      5F545247 
 14308      5F4C4556 
 14308      30202830 
 14309              	.LASF471:
 14310 4591 4E554C4C 		.ascii	"NULL ((void *)0)\000"
 14310      20282876 
 14310      6F696420 
 14310      2A293029 
 14310      00
 14311              	.LASF468:
 14312 45a2 5F425344 		.ascii	"_BSD_WCHAR_T_\000"
 14312      5F574348 
 14312      41525F54 
 14312      5F00
 14313              	.LASF68:
 14314 45b0 5F5F5343 		.ascii	"__SCHAR_MAX__ 0x7f\000"
 14314      4841525F 
 14314      4D41585F 
 14314      5F203078 
 14314      376600
 14315              	.LASF318:
 14316 45c3 5F5F4743 		.ascii	"__GCC_HAVE_DWARF2_CFI_ASM 1\000"
 14316      435F4841 
 14316      56455F44 
 14316      57415246 
 14316      325F4346 
 14317              	.LASF1387:
 14318 45df 43414E5F 		.ascii	"CAN_ERROR_PASS 0x00000001UL\000"
 14318      4552524F 
 14318      525F5041 
 14318      53532030 
 14318      78303030 
 14319              	.LASF965:
 14320 45fb 5343425F 		.ascii	"SCB_CCR_UNALIGN_TRP_Pos 3\000"
 14320      4343525F 
 14320      554E414C 
 14320      49474E5F 
 14320      5452505F 
 14321              	.LASF442:
 14322 4615 5F53495A 		.ascii	"_SIZE_T_ \000"
 14322      455F545F 
 14322      2000
ARM GAS  /var/folders/z0/6xlwn_996xz3mwq1cgzkbq4r0000gp/T//cc3rPjEN.s 			page 311


 14323              	.LASF231:
 14324 461f 5F5F5341 		.ascii	"__SACCUM_EPSILON__ 0x1P-7HK\000"
 14324      4343554D 
 14324      5F455053 
 14324      494C4F4E 
 14324      5F5F2030 
 14325              	.LASF452:
 14326 463b 5F5F6E65 		.ascii	"__need_size_t\000"
 14326      65645F73 
 14326      697A655F 
 14326      7400
 14327              	.LASF225:
 14328 4649 5F5F554C 		.ascii	"__ULLFRACT_MAX__ 0XFFFFFFFFFFFFFFFFP-64ULLR\000"
 14328      4C465241 
 14328      43545F4D 
 14328      41585F5F 
 14328      20305846 
 14329              	.LASF1581:
 14330 4675 52574C5F 		.ascii	"RWL_cv_min_current_ms\000"
 14330      63765F6D 
 14330      696E5F63 
 14330      75727265 
 14330      6E745F6D 
 14331              	.LASF286:
 14332 468b 5F5F5554 		.ascii	"__UTQ_IBIT__ 0\000"
 14332      515F4942 
 14332      49545F5F 
 14332      203000
 14333              	.LASF908:
 14334 469a 5F5F434F 		.ascii	"__CORTEX_M (0x00)\000"
 14334      52544558 
 14334      5F4D2028 
 14334      30783030 
 14334      2900
 14335              	.LASF274:
 14336 46ac 5F5F4451 		.ascii	"__DQ_IBIT__ 0\000"
 14336      5F494249 
 14336      545F5F20 
 14336      3000
 14337              	.LASF287:
 14338 46ba 5F5F4841 		.ascii	"__HA_FBIT__ 7\000"
 14338      5F464249 
 14338      545F5F20 
 14338      3700
 14339              	.LASF1045:
 14340 46c8 5F5F5359 		.ascii	"__SYSCTL_11XX_H_ \000"
 14340      5343544C 
 14340      5F313158 
 14340      585F485F 
 14340      2000
 14341              	.LASF777:
 14342 46da 494E5433 		.ascii	"INT32_MIN (-__INT32_MAX__ - 1)\000"
 14342      325F4D49 
 14342      4E20282D 
 14342      5F5F494E 
 14342      5433325F 
 14343              	.LASF244:
ARM GAS  /var/folders/z0/6xlwn_996xz3mwq1cgzkbq4r0000gp/T//cc3rPjEN.s 			page 312


 14344 46f9 5F5F5541 		.ascii	"__UACCUM_MIN__ 0.0UK\000"
 14344      4343554D 
 14344      5F4D494E 
 14344      5F5F2030 
 14344      2E30554B 
 14345              	.LASF649:
 14346 470e 5F5F636F 		.ascii	"__containerof(x,s,m) ({ const volatile __typeof(((s"
 14346      6E746169 
 14346      6E65726F 
 14346      6628782C 
 14346      732C6D29 
 14347 4741 202A2930 		.ascii	" *)0)->m) *__x = (x); __DEQUALIFY(s *, (const volat"
 14347      292D3E6D 
 14347      29202A5F 
 14347      5F78203D 
 14347      20287829 
 14348 4774 696C6520 		.ascii	"ile char *)__x - __offsetof(s, m));})\000"
 14348      63686172 
 14348      202A295F 
 14348      5F78202D 
 14348      205F5F6F 
 14349              	.LASF422:
 14350 479a 5F535444 		.ascii	"_STDDEF_H \000"
 14350      4445465F 
 14350      482000
 14351              	.LASF960:
 14352 47a5 5343425F 		.ascii	"SCB_SCR_SLEEPDEEP_Msk (1UL << SCB_SCR_SLEEPDEEP_Pos"
 14352      5343525F 
 14352      534C4545 
 14352      50444545 
 14352      505F4D73 
 14353 47d8 2900     		.ascii	")\000"
 14354              	.LASF585:
 14355 47da 5F5F474E 		.ascii	"__GNUCLIKE_ASM 3\000"
 14355      55434C49 
 14355      4B455F41 
 14355      534D2033 
 14355      00
 14356              	.LASF492:
 14357 47eb 5F5F6C6F 		.ascii	"__lock_close(lock) (_CAST_VOID 0)\000"
 14357      636B5F63 
 14357      6C6F7365 
 14357      286C6F63 
 14357      6B292028 
 14358              	.LASF173:
 14359 480d 5F5F4445 		.ascii	"__DEC64_MANT_DIG__ 16\000"
 14359      4336345F 
 14359      4D414E54 
 14359      5F444947 
 14359      5F5F2031 
 14360              	.LASF137:
 14361 4823 5F5F464C 		.ascii	"__FLT_HAS_QUIET_NAN__ 1\000"
 14361      545F4841 
 14361      535F5155 
 14361      4945545F 
 14361      4E414E5F 
 14362              	.LASF1432:
ARM GAS  /var/folders/z0/6xlwn_996xz3mwq1cgzkbq4r0000gp/T//cc3rPjEN.s 			page 313


 14363 483b 4D41585F 		.ascii	"MAX_NUM_MODULES 15\000"
 14363      4E554D5F 
 14363      4D4F4455 
 14363      4C455320 
 14363      313500
 14364              	.LASF1333:
 14365 484e 4932435F 		.ascii	"I2C_I2STAT_M_TX_SLAW_NACK ((0x20))\000"
 14365      49325354 
 14365      41545F4D 
 14365      5F54585F 
 14365      534C4157 
 14366              	.LASF718:
 14367 4871 7369676E 		.ascii	"signed +0\000"
 14367      6564202B 
 14367      3000
 14368              	.LASF1293:
 14369 487b 4144435F 		.ascii	"ADC_CR_PDN ((1UL << 21))\000"
 14369      43525F50 
 14369      444E2028 
 14369      2831554C 
 14369      203C3C20 
 14370              	.LASF1568:
 14371 4894 435F4D45 		.ascii	"C_MEASURE\000"
 14371      41535552 
 14371      4500
 14372              	.LASF1:
 14373 489e 5F5F5354 		.ascii	"__STDC_HOSTED__ 1\000"
 14373      44435F48 
 14373      4F535445 
 14373      445F5F20 
 14373      3100
 14374              	.LASF1642:
 14375 48b0 4D593138 		.ascii	"MY18_Pack_Config\000"
 14375      5F506163 
 14375      6B5F436F 
 14375      6E666967 
 14375      00
 14376              	.LASF1348:
 14377 48c1 4932435F 		.ascii	"I2C_I2STAT_S_RX_PRE_SLA_DAT_ACK ((0x80))\000"
 14377      49325354 
 14377      41545F53 
 14377      5F52585F 
 14377      5052455F 
 14378              	.LASF542:
 14379 48ea 5F524545 		.ascii	"_REENT_MP_RESULT_K(ptr) ((ptr)->_result_k)\000"
 14379      4E545F4D 
 14379      505F5245 
 14379      53554C54 
 14379      5F4B2870 
 14380              	.LASF1370:
 14381 4915 4932435F 		.ascii	"I2C_I2SCLL_BITMASK ((0xFFFF))\000"
 14381      49325343 
 14381      4C4C5F42 
 14381      49544D41 
 14381      534B2028 
 14382              	.LASF825:
 14383 4933 4D494352 		.ascii	"MICRORL_LIB_VER \"1.5.1\"\000"
ARM GAS  /var/folders/z0/6xlwn_996xz3mwq1cgzkbq4r0000gp/T//cc3rPjEN.s 			page 314


 14383      4F524C5F 
 14383      4C49425F 
 14383      56455220 
 14383      22312E35 
 14384              	.LASF1254:
 14385 494b 5F5F5353 		.ascii	"__SSP_11XX_H_ \000"
 14385      505F3131 
 14385      58585F48 
 14385      5F2000
 14386              	.LASF1529:
 14387 495a 4353425F 		.ascii	"CSB_IDLE_MODE_T\000"
 14387      49444C45 
 14387      5F4D4F44 
 14387      455F5400 
 14388              	.LASF26:
 14389 496a 5F5F4F52 		.ascii	"__ORDER_PDP_ENDIAN__ 3412\000"
 14389      4445525F 
 14389      5044505F 
 14389      454E4449 
 14389      414E5F5F 
 14390              	.LASF1265:
 14391 4984 5353505F 		.ascii	"SSP_CR1_LBM_EN ((uint32_t) (1 << 0))\000"
 14391      4352315F 
 14391      4C424D5F 
 14391      454E2028 
 14391      2875696E 
 14392              	.LASF8:
 14393 49a9 5F5F4154 		.ascii	"__ATOMIC_ACQUIRE 2\000"
 14393      4F4D4943 
 14393      5F414351 
 14393      55495245 
 14393      203200
 14394              	.LASF1006:
 14395 49bc 4C50435F 		.ascii	"LPC_ACMP_BASE 0x40028000\000"
 14395      41434D50 
 14395      5F424153 
 14395      45203078 
 14395      34303032 
 14396              	.LASF745:
 14397 49d5 5F5F696E 		.ascii	"__int16_t_defined 1\000"
 14397      7431365F 
 14397      745F6465 
 14397      66696E65 
 14397      64203100 
 14398              	.LASF1165:
 14399 49e9 55415254 		.ascii	"UART_FCR_TRG_LEV1 (1 << 6)\000"
 14399      5F464352 
 14399      5F545247 
 14399      5F4C4556 
 14399      31202831 
 14400              	.LASF1488:
 14401 4a04 7061636B 		.ascii	"pack_cell_max_mV\000"
 14401      5F63656C 
 14401      6C5F6D61 
 14401      785F6D56 
 14401      00
 14402              	.LASF58:
ARM GAS  /var/folders/z0/6xlwn_996xz3mwq1cgzkbq4r0000gp/T//cc3rPjEN.s 			page 315


 14403 4a15 5F5F494E 		.ascii	"__INT_FAST64_TYPE__ long long int\000"
 14403      545F4641 
 14403      53543634 
 14403      5F545950 
 14403      455F5F20 
 14404              	.LASF1028:
 14405 4a37 4C50435F 		.ascii	"LPC_ADC ((LPC_ADC_T *) LPC_ADC_BASE)\000"
 14405      41444320 
 14405      28284C50 
 14405      435F4144 
 14405      435F5420 
 14406              	.LASF237:
 14407 4a5c 5F5F4143 		.ascii	"__ACCUM_FBIT__ 15\000"
 14407      43554D5F 
 14407      46424954 
 14407      5F5F2031 
 14407      3500
 14408              	.LASF574:
 14409 4a6e 5F5F6174 		.ascii	"__attribute_pure__ \000"
 14409      74726962 
 14409      7574655F 
 14409      70757265 
 14409      5F5F2000 
 14410              	.LASF360:
 14411 4a82 5F484156 		.ascii	"_HAVE_LONG_DOUBLE 1\000"
 14411      455F4C4F 
 14411      4E475F44 
 14411      4F55424C 
 14411      45203100 
 14412              	.LASF99:
 14413 4a96 5F5F494E 		.ascii	"__INT_LEAST64_MAX__ 0x7fffffffffffffffLL\000"
 14413      545F4C45 
 14413      41535436 
 14413      345F4D41 
 14413      585F5F20 
 14414              	.LASF280:
 14415 4abf 5F5F5548 		.ascii	"__UHQ_IBIT__ 0\000"
 14415      515F4942 
 14415      49545F5F 
 14415      203000
 14416              	.LASF695:
 14417 4ace 616C6C6F 		.ascii	"alloca(size) __builtin_alloca(size)\000"
 14417      63612873 
 14417      697A6529 
 14417      205F5F62 
 14417      75696C74 
 14418              	.LASF106:
 14419 4af2 5F5F5549 		.ascii	"__UINT32_C(c) c ## UL\000"
 14419      4E543332 
 14419      5F432863 
 14419      29206320 
 14419      23232055 
 14420              	.LASF1365:
 14421 4b08 49324441 		.ascii	"I2DATA_BUFFER_BITMASK ((0xFF))\000"
 14421      54415F42 
 14421      55464645 
 14421      525F4249 
ARM GAS  /var/folders/z0/6xlwn_996xz3mwq1cgzkbq4r0000gp/T//cc3rPjEN.s 			page 316


 14421      544D4153 
 14422              	.LASF1489:
 14423 4b27 7061636B 		.ascii	"pack_current_mA\000"
 14423      5F637572 
 14423      72656E74 
 14423      5F6D4100 
 14424              	.LASF1183:
 14425 4b37 55415254 		.ascii	"UART_LCR_DLAB_EN (1 << 7)\000"
 14425      5F4C4352 
 14425      5F444C41 
 14425      425F454E 
 14425      20283120 
 14426              	.LASF622:
 14427 4b51 5F5F7365 		.ascii	"__section(x) __attribute__((__section__(x)))\000"
 14427      6374696F 
 14427      6E287829 
 14427      205F5F61 
 14427      74747269 
 14428              	.LASF942:
 14429 4b7e 5343425F 		.ascii	"SCB_ICSR_ISRPENDING_Msk (1UL << SCB_ICSR_ISRPENDING"
 14429      49435352 
 14429      5F495352 
 14429      50454E44 
 14429      494E475F 
 14430 4bb1 5F506F73 		.ascii	"_Pos)\000"
 14430      2900
 14431              	.LASF1362:
 14432 4bb7 4932435F 		.ascii	"I2C_I2MMCTRL_ENA_SCL ((1 << 1))\000"
 14432      49324D4D 
 14432      4354524C 
 14432      5F454E41 
 14432      5F53434C 
 14433              	.LASF1252:
 14434 4bd7 57574454 		.ascii	"WWDT_WDMOD_WDINT ((uint32_t) (1 << 3))\000"
 14434      5F57444D 
 14434      4F445F57 
 14434      44494E54 
 14434      20282875 
 14435              	.LASF579:
 14436 4bfe 5F5F7074 		.ascii	"__ptrvalue \000"
 14436      7276616C 
 14436      75652000 
 14437              	.LASF238:
 14438 4c0a 5F5F4143 		.ascii	"__ACCUM_IBIT__ 16\000"
 14438      43554D5F 
 14438      49424954 
 14438      5F5F2031 
 14438      3600
 14439              	.LASF954:
 14440 4c1c 5343425F 		.ascii	"SCB_AIRCR_SYSRESETREQ_Msk (1UL << SCB_AIRCR_SYSRESE"
 14440      41495243 
 14440      525F5359 
 14440      53524553 
 14440      45545245 
 14441 4c4f 54524551 		.ascii	"TREQ_Pos)\000"
 14441      5F506F73 
 14441      2900
ARM GAS  /var/folders/z0/6xlwn_996xz3mwq1cgzkbq4r0000gp/T//cc3rPjEN.s 			page 317


 14442              	.LASF1184:
 14443 4c59 55415254 		.ascii	"UART_LCR_BITMASK (0xFF)\000"
 14443      5F4C4352 
 14443      5F424954 
 14443      4D41534B 
 14443      20283078 
 14444              	.LASF346:
 14445 4c71 43414E5F 		.ascii	"CAN_ARCHITECTURE_ARM 1\000"
 14445      41524348 
 14445      49544543 
 14445      54555245 
 14445      5F41524D 
 14446              	.LASF1341:
 14447 4c88 4932435F 		.ascii	"I2C_I2STAT_M_RX_SLAR_NACK ((0x48))\000"
 14447      49325354 
 14447      41545F4D 
 14447      5F52585F 
 14447      534C4152 
 14448              	.LASF1590:
 14449 4cab 524F4C5F 		.ascii	"ROL_LENGTH\000"
 14449      4C454E47 
 14449      544800
 14450              	.LASF1505:
 14451 4cb6 6D6F6475 		.ascii	"module_cell_count\000"
 14451      6C655F63 
 14451      656C6C5F 
 14451      636F756E 
 14451      7400
 14452              	.LASF1093:
 14453 4cc8 494F434F 		.ascii	"IOCON_OPENDRAIN_EN (0x1 << 10)\000"
 14453      4E5F4F50 
 14453      454E4452 
 14453      41494E5F 
 14453      454E2028 
 14454              	.LASF1266:
 14455 4ce7 5353505F 		.ascii	"SSP_CR1_SSP_EN ((uint32_t) (1 << 1))\000"
 14455      4352315F 
 14455      5353505F 
 14455      454E2028 
 14455      2875696E 
 14456              	.LASF878:
 14457 4d0c 5F434F4E 		.ascii	"_CONSOLE_H \000"
 14457      534F4C45 
 14457      5F482000 
 14458              	.LASF1308:
 14459 4d18 5245545F 		.ascii	"RET_SLAVE_IDLE 2\000"
 14459      534C4156 
 14459      455F4944 
 14459      4C452032 
 14459      00
 14460              	.LASF764:
 14461 4d29 55494E54 		.ascii	"UINTPTR_MAX (__UINTPTR_MAX__)\000"
 14461      5054525F 
 14461      4D415820 
 14461      285F5F55 
 14461      494E5450 
 14462              	.LASF505:
ARM GAS  /var/folders/z0/6xlwn_996xz3mwq1cgzkbq4r0000gp/T//cc3rPjEN.s 			page 318


 14463 4d47 5F5F6E65 		.ascii	"__need_wint_t\000"
 14463      65645F77 
 14463      696E745F 
 14463      7400
 14464              	.LASF6:
 14465 4d55 5F5F4154 		.ascii	"__ATOMIC_RELAXED 0\000"
 14465      4F4D4943 
 14465      5F52454C 
 14465      41584544 
 14465      203000
 14466              	.LASF1374:
 14467 4d68 4932435F 		.ascii	"I2C_OK 0x00\000"
 14467      4F4B2030 
 14467      78303000 
 14468              	.LASF160:
 14469 4d74 5F5F4C44 		.ascii	"__LDBL_MIN__ 2.2250738585072014e-308L\000"
 14469      424C5F4D 
 14469      494E5F5F 
 14469      20322E32 
 14469      32353037 
 14470              	.LASF230:
 14471 4d9a 5F5F5341 		.ascii	"__SACCUM_MAX__ 0X7FFFP-7HK\000"
 14471      4343554D 
 14471      5F4D4158 
 14471      5F5F2030 
 14471      58374646 
 14472              	.LASF769:
 14473 4db5 494E545F 		.ascii	"INT_LEAST8_MAX (__INT_LEAST8_MAX__)\000"
 14473      4C454153 
 14473      54385F4D 
 14473      41582028 
 14473      5F5F494E 
 14474              	.LASF1514:
 14475 4dd9 4353425F 		.ascii	"CSB_CHARGE_CC\000"
 14475      43484152 
 14475      47455F43 
 14475      4300
 14476              	.LASF1377:
 14477 4de7 4932435F 		.ascii	"I2C_LAST_BYTE_RECV 0x04\000"
 14477      4C415354 
 14477      5F425954 
 14477      455F5245 
 14477      43562030 
 14478              	.LASF335:
 14479 4dff 5F5F5448 		.ascii	"__THUMB_INTERWORK__ 1\000"
 14479      554D425F 
 14479      494E5445 
 14479      52574F52 
 14479      4B5F5F20 
 14480              	.LASF1462:
 14481 4e15 4D593136 		.ascii	"MY16_PACK_CELLS_PARALLEL 12\000"
 14481      5F504143 
 14481      4B5F4345 
 14481      4C4C535F 
 14481      50415241 
 14482              	.LASF386:
 14483 4e31 5F5F504F 		.ascii	"__POSIX_VISIBLE 200809\000"
ARM GAS  /var/folders/z0/6xlwn_996xz3mwq1cgzkbq4r0000gp/T//cc3rPjEN.s 			page 319


 14483      5349585F 
 14483      56495349 
 14483      424C4520 
 14483      32303038 
 14484              	.LASF352:
 14485 4e48 5F5F4E45 		.ascii	"__NEWLIB__ 2\000"
 14485      574C4942 
 14485      5F5F2032 
 14485      00
 14486              	.LASF1515:
 14487 4e55 4353425F 		.ascii	"CSB_CHARGE_CV\000"
 14487      43484152 
 14487      47455F43 
 14487      5600
 14488              	.LASF200:
 14489 4e63 5F5F4652 		.ascii	"__FRACT_MAX__ 0X7FFFP-15R\000"
 14489      4143545F 
 14489      4D41585F 
 14489      5F203058 
 14489      37464646 
 14490              	.LASF412:
 14491 4e7d 5F444546 		.ascii	"_DEFUN(name,arglist,args) name(args)\000"
 14491      554E286E 
 14491      616D652C 
 14491      6172676C 
 14491      6973742C 
 14492              	.LASF1392:
 14493 4ea2 43414E5F 		.ascii	"CAN_ERROR_ACK 0x00000020UL\000"
 14493      4552524F 
 14493      525F4143 
 14493      4B203078 
 14493      30303030 
 14494              	.LASF639:
 14495 4ebd 5F5F7265 		.ascii	"__returns_twice __attribute__((__returns_twice__))\000"
 14495      7475726E 
 14495      735F7477 
 14495      69636520 
 14495      5F5F6174 
 14496              	.LASF16:
 14497 4ef0 5F5F5349 		.ascii	"__SIZEOF_LONG_LONG__ 8\000"
 14497      5A454F46 
 14497      5F4C4F4E 
 14497      475F4C4F 
 14497      4E475F5F 
 14498              	.LASF541:
 14499 4f07 5F524545 		.ascii	"_REENT_MP_RESULT(ptr) ((ptr)->_result)\000"
 14499      4E545F4D 
 14499      505F5245 
 14499      53554C54 
 14499      28707472 
 14500              	.LASF119:
 14501 4f2e 5F5F4743 		.ascii	"__GCC_IEC_559 0\000"
 14501      435F4945 
 14501      435F3535 
 14501      39203000 
 14502              	.LASF1001:
 14503 4f3e 4C50435F 		.ascii	"LPC_TIMER16_1_BASE 0x40010000\000"
ARM GAS  /var/folders/z0/6xlwn_996xz3mwq1cgzkbq4r0000gp/T//cc3rPjEN.s 			page 320


 14503      54494D45 
 14503      5231365F 
 14503      315F4241 
 14503      53452030 
 14504              	.LASF1504:
 14505 4f5c 63635F63 		.ascii	"cc_cell_voltage_mV\000"
 14505      656C6C5F 
 14505      766F6C74 
 14505      6167655F 
 14505      6D5600
 14506              	.LASF218:
 14507 4f6f 5F5F4C4C 		.ascii	"__LLFRACT_IBIT__ 0\000"
 14507      46524143 
 14507      545F4942 
 14507      49545F5F 
 14507      203000
 14508              	.LASF970:
 14509 4f82 53797354 		.ascii	"SysTick_CTRL_COUNTFLAG_Msk (1UL << SysTick_CTRL_COU"
 14509      69636B5F 
 14509      4354524C 
 14509      5F434F55 
 14509      4E54464C 
 14510 4fb5 4E54464C 		.ascii	"NTFLAG_Pos)\000"
 14510      41475F50 
 14510      6F732900 
 14511              	.LASF1631:
 14512 4fc1 636F6D6D 		.ascii	"commands\000"
 14512      616E6473 
 14512      00
 14513              	.LASF1594:
 14514 4fca 434F4E4C 		.ascii	"CONL_LENGTH\000"
 14514      5F4C454E 
 14514      47544800 
 14515              	.LASF1146:
 14516 4fd6 55415254 		.ascii	"UART2_IER_BITMASK (0x38F)\000"
 14516      325F4945 
 14516      525F4249 
 14516      544D4153 
 14516      4B202830 
 14517              	.LASF1336:
 14518 4ff0 4932435F 		.ascii	"I2C_I2STAT_M_TX_ARB_LOST ((0x38))\000"
 14518      49325354 
 14518      41545F4D 
 14518      5F54585F 
 14518      4152425F 
 14519              	.LASF1213:
 14520 5012 55415254 		.ascii	"UART_ACR_AUTO_RESTART (1 << 2)\000"
 14520      5F414352 
 14520      5F415554 
 14520      4F5F5245 
 14520      53544152 
 14521              	.LASF559:
 14522 5031 5F524545 		.ascii	"_REENT_GETDATE_ERR_P(ptr) (&((ptr)->_new._reent._ge"
 14522      4E545F47 
 14522      45544441 
 14522      54455F45 
 14522      52525F50 
ARM GAS  /var/folders/z0/6xlwn_996xz3mwq1cgzkbq4r0000gp/T//cc3rPjEN.s 			page 321


 14523 5064 74646174 		.ascii	"tdate_err))\000"
 14523      655F6572 
 14523      72292900 
 14524              	.LASF1583:
 14525 5070 52574C5F 		.ascii	"RWL_LENGTH\000"
 14525      4C454E47 
 14525      544800
 14526              	.LASF751:
 14527 507b 5F5F696E 		.ascii	"__int64_t_defined 1\000"
 14527      7436345F 
 14527      745F6465 
 14527      66696E65 
 14527      64203100 
 14528              	.LASF398:
 14529 508f 5F454E44 		.ascii	"_END_STD_C \000"
 14529      5F535444 
 14529      5F432000 
 14530              	.LASF753:
 14531 509b 5F55494E 		.ascii	"_UINTPTR_T_DECLARED \000"
 14531      54505452 
 14531      5F545F44 
 14531      45434C41 
 14531      52454420 
 14532              	.LASF1079:
 14533 50b0 494F434F 		.ascii	"IOCON_FUNC6 0x6\000"
 14533      4E5F4655 
 14533      4E433620 
 14533      30783600 
 14534              	.LASF510:
 14535 50c0 5F4E554C 		.ascii	"_NULL 0\000"
 14535      4C203000 
 14536              	.LASF1141:
 14537 50c8 55415254 		.ascii	"UART_IER_CTSINT (1 << 7)\000"
 14537      5F494552 
 14537      5F435453 
 14537      494E5420 
 14537      2831203C 
 14538              	.LASF1274:
 14539 50e1 5353505F 		.ascii	"SSP_ICR_BITMASK ((uint32_t) (0x03))\000"
 14539      4943525F 
 14539      4249544D 
 14539      41534B20 
 14539      28287569 
 14540              	.LASF1092:
 14541 5105 494F434F 		.ascii	"IOCON_FILT_DIS (0x1 << 8)\000"
 14541      4E5F4649 
 14541      4C545F44 
 14541      49532028 
 14541      30783120 
 14542              	.LASF453:
 14543 511f 5F5F7763 		.ascii	"__wchar_t__ \000"
 14543      6861725F 
 14543      745F5F20 
 14543      00
 14544              	.LASF1350:
 14545 512c 4932435F 		.ascii	"I2C_I2STAT_S_RX_PRE_GENCALL_DAT_ACK ((0x90))\000"
 14545      49325354 
ARM GAS  /var/folders/z0/6xlwn_996xz3mwq1cgzkbq4r0000gp/T//cc3rPjEN.s 			page 322


 14545      41545F53 
 14545      5F52585F 
 14545      5052455F 
 14546              	.LASF1300:
 14547 5159 4144435F 		.ascii	"ADC_CR_START_ADCTRIG1 ((5UL << 24))\000"
 14547      43525F53 
 14547      54415254 
 14547      5F414443 
 14547      54524947 
 14548              	.LASF1335:
 14549 517d 4932435F 		.ascii	"I2C_I2STAT_M_TX_DAT_NACK ((0x30))\000"
 14549      49325354 
 14549      41545F4D 
 14549      5F54585F 
 14549      4441545F 
 14550              	.LASF686:
 14551 519f 5F5F7074 		.ascii	"__pt_guarded_by(x) __lock_annotate(pt_guarded_by(x)"
 14551      5F677561 
 14551      72646564 
 14551      5F627928 
 14551      7829205F 
 14552 51d2 2900     		.ascii	")\000"
 14553              	.LASF467:
 14554 51d4 5F574348 		.ascii	"_WCHAR_T_DECLARED \000"
 14554      41525F54 
 14554      5F444543 
 14554      4C415245 
 14554      442000
 14555              	.LASF1204:
 14556 51e7 55415254 		.ascii	"UART_MSR_LO2HI_RI (1 << 2)\000"
 14556      5F4D5352 
 14556      5F4C4F32 
 14556      48495F52 
 14556      49202831 
 14557              	.LASF533:
 14558 5202 5F524545 		.ascii	"_REENT_CHECK_EMERGENCY(ptr) \000"
 14558      4E545F43 
 14558      4845434B 
 14558      5F454D45 
 14558      5247454E 
 14559              	.LASF366:
 14560 521f 5F554E42 		.ascii	"_UNBUF_STREAM_OPT 1\000"
 14560      55465F53 
 14560      54524541 
 14560      4D5F4F50 
 14560      54203100 
 14561              	.LASF1516:
 14562 5233 4353425F 		.ascii	"CSB_CHARGE_BAL\000"
 14562      43484152 
 14562      47455F42 
 14562      414C00
 14563              	.LASF517:
 14564 5242 5F52414E 		.ascii	"_RAND48_SEED_1 (0xabcd)\000"
 14564      4434385F 
 14564      53454544 
 14564      5F312028 
 14564      30786162 
ARM GAS  /var/folders/z0/6xlwn_996xz3mwq1cgzkbq4r0000gp/T//cc3rPjEN.s 			page 323


 14565              	.LASF1039:
 14566 525a 5F5F504D 		.ascii	"__PMU_11XX_H_ \000"
 14566      555F3131 
 14566      58585F48 
 14566      5F2000
 14567              	.LASF67:
 14568 5269 5F5F4758 		.ascii	"__GXX_ABI_VERSION 1009\000"
 14568      585F4142 
 14568      495F5645 
 14568      5253494F 
 14568      4E203130 
 14569              	.LASF1060:
 14570 5280 53595343 		.ascii	"SYSCTL_SLPWAKE_WDTOSC_PD (1 << 6)\000"
 14570      544C5F53 
 14570      4C505741 
 14570      4B455F57 
 14570      44544F53 
 14571              	.LASF1230:
 14572 52a2 55415254 		.ascii	"UART_SCICTRL_SCIEN (1 << 0)\000"
 14572      5F534349 
 14572      4354524C 
 14572      5F534349 
 14572      454E2028 
 14573              	.LASF1428:
 14574 52be 4C50435F 		.ascii	"LPC_CCAN_API ((CCAN_API_T *) (LPC_ROM_API->candApiB"
 14574      4343414E 
 14574      5F415049 
 14574      20282843 
 14574      43414E5F 
 14575 52f1 61736529 		.ascii	"ase))\000"
 14575      2900
 14576              	.LASF56:
 14577 52f7 5F5F494E 		.ascii	"__INT_FAST16_TYPE__ int\000"
 14577      545F4641 
 14577      53543136 
 14577      5F545950 
 14577      455F5F20 
 14578              	.LASF772:
 14579 530f 494E5431 		.ascii	"INT16_MAX (__INT16_MAX__)\000"
 14579      365F4D41 
 14579      5820285F 
 14579      5F494E54 
 14579      31365F4D 
 14580              	.LASF1547:
 14581 5329 696D645F 		.ascii	"imd_fault\000"
 14581      6661756C 
 14581      7400
 14582              	.LASF1312:
 14583 5333 4932435F 		.ascii	"I2C_I2CONSET_SI ((0x08))\000"
 14583      4932434F 
 14583      4E534554 
 14583      5F534920 
 14583      28283078 
 14584              	.LASF1014:
 14585 534c 4C50435F 		.ascii	"LPC_SSP1_BASE 0x40058000\000"
 14585      53535031 
 14585      5F424153 
ARM GAS  /var/folders/z0/6xlwn_996xz3mwq1cgzkbq4r0000gp/T//cc3rPjEN.s 			page 324


 14585      45203078 
 14585      34303035 
 14586              	.LASF1517:
 14587 5365 4353425F 		.ascii	"CSB_CHARGE_FAULT\000"
 14587      43484152 
 14587      47455F46 
 14587      41554C54 
 14587      00
 14588              	.LASF700:
 14589 5376 4D425F43 		.ascii	"MB_CUR_MAX __locale_mb_cur_max()\000"
 14589      55525F4D 
 14589      4158205F 
 14589      5F6C6F63 
 14589      616C655F 
 14590              	.LASF1507:
 14591 5397 4353425F 		.ascii	"CSB_SSM_MODE_INIT\000"
 14591      53534D5F 
 14591      4D4F4445 
 14591      5F494E49 
 14591      5400
 14592              	.LASF1627:
 14593 53a9 4353425F 		.ascii	"CSB_SSM_MODE_NAMES\000"
 14593      53534D5F 
 14593      4D4F4445 
 14593      5F4E414D 
 14593      455300
 14594              	.LASF877:
 14595 53bc 524F4C5F 		.ascii	"ROL_FIRST RWL_LENGTH\000"
 14595      46495253 
 14595      54205257 
 14595      4C5F4C45 
 14595      4E475448 
 14596              	.LASF1436:
 14597 53d1 4353425F 		.ascii	"CSB_BMS_CSB_SWITCH_PERIOD 30000\000"
 14597      424D535F 
 14597      4353425F 
 14597      53574954 
 14597      43485F50 
 14598              	.LASF1209:
 14599 53f1 55415254 		.ascii	"UART_MSR_DCD (1 << 7)\000"
 14599      5F4D5352 
 14599      5F444344 
 14599      20283120 
 14599      3C3C2037 
 14600              	.LASF733:
 14601 5407 5F5F4641 		.ascii	"__FAST32 \000"
 14601      53543332 
 14601      2000
 14602              	.LASF1315:
 14603 5411 4932435F 		.ascii	"I2C_I2CONSET_I2EN ((0x40))\000"
 14603      4932434F 
 14603      4E534554 
 14603      5F493245 
 14603      4E202828 
 14604              	.LASF1012:
 14605 542c 4C50435F 		.ascii	"LPC_USB0_BASE 0x40080000\000"
 14605      55534230 
ARM GAS  /var/folders/z0/6xlwn_996xz3mwq1cgzkbq4r0000gp/T//cc3rPjEN.s 			page 325


 14605      5F424153 
 14605      45203078 
 14605      34303038 
 14606              	.LASF302:
 14607 5445 5F5F5554 		.ascii	"__UTA_IBIT__ 64\000"
 14607      415F4942 
 14607      49545F5F 
 14607      20363400 
 14608              	.LASF321:
 14609 5455 5F5F5349 		.ascii	"__SIZEOF_WINT_T__ 4\000"
 14609      5A454F46 
 14609      5F57494E 
 14609      545F545F 
 14609      5F203400 
 14610              	.LASF1145:
 14611 5469 55415254 		.ascii	"UART1_IER_BITMASK (0x30F)\000"
 14611      315F4945 
 14611      525F4249 
 14611      544D4153 
 14611      4B202830 
 14612              	.LASF1189:
 14613 5483 55415254 		.ascii	"UART_MCR_AUTO_CTS_EN (1 << 7)\000"
 14613      5F4D4352 
 14613      5F415554 
 14613      4F5F4354 
 14613      535F454E 
 14614              	.LASF925:
 14615 54a1 5343425F 		.ascii	"SCB_CPUID_PARTNO_Pos 4\000"
 14615      43505549 
 14615      445F5041 
 14615      52544E4F 
 14615      5F506F73 
 14616              	.LASF998:
 14617 54b8 4C50435F 		.ascii	"LPC_WWDT_BASE 0x40004000\000"
 14617      57574454 
 14617      5F424153 
 14617      45203078 
 14617      34303030 
 14618              	.LASF70:
 14619 54d1 5F5F494E 		.ascii	"__INT_MAX__ 0x7fffffff\000"
 14619      545F4D41 
 14619      585F5F20 
 14619      30783766 
 14619      66666666 
 14620              	.LASF1493:
 14621 54e8 5041434B 		.ascii	"PACK_CONFIG\000"
 14621      5F434F4E 
 14621      46494700 
 14622              	.LASF1143:
 14623 54f4 55415254 		.ascii	"UART_IER_ABTOINT (1 << 9)\000"
 14623      5F494552 
 14623      5F414254 
 14623      4F494E54 
 14623      20283120 
 14624              	.LASF131:
 14625 550e 5F5F464C 		.ascii	"__FLT_MAX__ 3.4028234663852886e+38F\000"
 14625      545F4D41 
ARM GAS  /var/folders/z0/6xlwn_996xz3mwq1cgzkbq4r0000gp/T//cc3rPjEN.s 			page 326


 14625      585F5F20 
 14625      332E3430 
 14625      32383233 
 14626              	.LASF47:
 14627 5532 5F5F494E 		.ascii	"__INT_LEAST8_TYPE__ signed char\000"
 14627      545F4C45 
 14627      41535438 
 14627      5F545950 
 14627      455F5F20 
 14628              	.LASF457:
 14629 5552 5F545F57 		.ascii	"_T_WCHAR \000"
 14629      43484152 
 14629      2000
 14630              	.LASF1139:
 14631 555c 55415254 		.ascii	"UART_IER_RLSINT (1 << 2)\000"
 14631      5F494552 
 14631      5F524C53 
 14631      494E5420 
 14631      2831203C 
 14632              	.LASF846:
 14633 5575 4B45595F 		.ascii	"KEY_LF 10\000"
 14633      4C462031 
 14633      3000
 14634              	.LASF880:
 14635 557f 5F5F4348 		.ascii	"__CHIP_H_ \000"
 14635      49505F48 
 14635      5F2000
 14636              	.LASF207:
 14637 558a 5F5F4C46 		.ascii	"__LFRACT_FBIT__ 31\000"
 14637      52414354 
 14637      5F464249 
 14637      545F5F20 
 14637      333100
 14638              	.LASF785:
 14639 559d 55494E54 		.ascii	"UINT64_MAX (__UINT64_MAX__)\000"
 14639      36345F4D 
 14639      41582028 
 14639      5F5F5549 
 14639      4E543634 
 14640              	.LASF1063:
 14641 55b9 53595343 		.ascii	"SYSCTL_POWERDOWN_IRC_PD (1 << 1)\000"
 14641      544C5F50 
 14641      4F574552 
 14641      444F574E 
 14641      5F495243 
 14642              	.LASF320:
 14643 55da 5F5F5349 		.ascii	"__SIZEOF_WCHAR_T__ 4\000"
 14643      5A454F46 
 14643      5F574348 
 14643      41525F54 
 14643      5F5F2034 
 14644              	.LASF1356:
 14645 55ef 4932435F 		.ascii	"I2C_I2STAT_S_TX_DAT_NACK ((0xC0))\000"
 14645      49325354 
 14645      41545F53 
 14645      5F54585F 
 14645      4441545F 
ARM GAS  /var/folders/z0/6xlwn_996xz3mwq1cgzkbq4r0000gp/T//cc3rPjEN.s 			page 327


 14646              	.LASF235:
 14647 5611 5F5F5553 		.ascii	"__USACCUM_MAX__ 0XFFFFP-8UHK\000"
 14647      41434355 
 14647      4D5F4D41 
 14647      585F5F20 
 14647      30584646 
 14648              	.LASF1320:
 14649 562e 4932435F 		.ascii	"I2C_I2CONCLR_I2ENC ((1 << 6))\000"
 14649      4932434F 
 14649      4E434C52 
 14649      5F493245 
 14649      4E432028 
 14650              	.LASF657:
 14651 564c 5F5F7374 		.ascii	"__strong_reference(sym,aliassym) extern __typeof (s"
 14651      726F6E67 
 14651      5F726566 
 14651      6572656E 
 14651      63652873 
 14652 567f 796D2920 		.ascii	"ym) aliassym __attribute__ ((__alias__ (#sym)))\000"
 14652      616C6961 
 14652      7373796D 
 14652      205F5F61 
 14652      74747269 
 14653              	.LASF1173:
 14654 56af 55415254 		.ascii	"UART_LCR_SBS_MASK (1 << 2)\000"
 14654      5F4C4352 
 14654      5F534253 
 14654      5F4D4153 
 14654      4B202831 
 14655              	.LASF85:
 14656 56ca 5F5F494E 		.ascii	"__INT8_MAX__ 0x7f\000"
 14656      54385F4D 
 14656      41585F5F 
 14656      20307837 
 14656      6600
 14657              	.LASF496:
 14658 56dc 5F5F6C6F 		.ascii	"__lock_try_acquire(lock) (_CAST_VOID 0)\000"
 14658      636B5F74 
 14658      72795F61 
 14658      63717569 
 14658      7265286C 
 14659              	.LASF336:
 14660 5704 5F5F4152 		.ascii	"__ARM_ARCH_6M__ 1\000"
 14660      4D5F4152 
 14660      43485F36 
 14660      4D5F5F20 
 14660      3100
 14661              	.LASF459:
 14662 5716 5F574348 		.ascii	"_WCHAR_T_ \000"
 14662      41525F54 
 14662      5F2000
 14663              	.LASF97:
 14664 5721 5F5F494E 		.ascii	"__INT_LEAST32_MAX__ 0x7fffffffL\000"
 14664      545F4C45 
 14664      41535433 
 14664      325F4D41 
 14664      585F5F20 
ARM GAS  /var/folders/z0/6xlwn_996xz3mwq1cgzkbq4r0000gp/T//cc3rPjEN.s 			page 328


 14665              	.LASF592:
 14666 5741 5F5F474E 		.ascii	"__GNUCLIKE_BUILTIN_VARARGS 1\000"
 14666      55434C49 
 14666      4B455F42 
 14666      55494C54 
 14666      494E5F56 
 14667              	.LASF818:
 14668 575e 55494E54 		.ascii	"UINT32_C(x) __UINT32_C(x)\000"
 14668      33325F43 
 14668      28782920 
 14668      5F5F5549 
 14668      4E543332 
 14669              	.LASF1538:
 14670 5778 656C636F 		.ascii	"elcon_has_hardware_failure\000"
 14670      6E5F6861 
 14670      735F6861 
 14670      72647761 
 14670      72655F66 
 14671              	.LASF570:
 14672 5793 5F5F4153 		.ascii	"__ASMNAME(cname) __XSTRING (__USER_LABEL_PREFIX__) "
 14672      4D4E414D 
 14672      4528636E 
 14672      616D6529 
 14672      205F5F58 
 14673 57c6 636E616D 		.ascii	"cname\000"
 14673      6500
 14674              	.LASF1285:
 14675 57cc 4144435F 		.ascii	"ADC_MAX_SAMPLE_RATE 400000\000"
 14675      4D41585F 
 14675      53414D50 
 14675      4C455F52 
 14675      41544520 
 14676              	.LASF1610:
 14677 57e7 6D656173 		.ascii	"measure\000"
 14677      75726500 
 14678              	.LASF236:
 14679 57ef 5F5F5553 		.ascii	"__USACCUM_EPSILON__ 0x1P-8UHK\000"
 14679      41434355 
 14679      4D5F4550 
 14679      53494C4F 
 14679      4E5F5F20 
 14680              	.LASF483:
 14681 580d 5F5F5F69 		.ascii	"___int_least16_t_defined 1\000"
 14681      6E745F6C 
 14681      65617374 
 14681      31365F74 
 14681      5F646566 
 14682              	.LASF985:
 14683 5828 53797354 		.ascii	"SysTick_CALIB_TENMS_Pos 0\000"
 14683      69636B5F 
 14683      43414C49 
 14683      425F5445 
 14683      4E4D535F 
 14684              	.LASF690:
 14685 5842 5F535444 		.ascii	"_STDLIB_H_ \000"
 14685      4C49425F 
 14685      485F2000 
ARM GAS  /var/folders/z0/6xlwn_996xz3mwq1cgzkbq4r0000gp/T//cc3rPjEN.s 			page 329


 14686              	.LASF1212:
 14687 584e 55415254 		.ascii	"UART_ACR_MODE (1 << 1)\000"
 14687      5F414352 
 14687      5F4D4F44 
 14687      45202831 
 14687      203C3C20 
 14688              	.LASF1130:
 14689 5865 52425F56 		.ascii	"RB_VHEAD(rb) ((volatile uint32_t)(rb->head))\000"
 14689      48454144 
 14689      28726229 
 14689      20282876 
 14689      6F6C6174 
 14690              	.LASF438:
 14691 5892 5F535953 		.ascii	"_SYS_SIZE_T_H \000"
 14691      5F53495A 
 14691      455F545F 
 14691      482000
 14692              	.LASF162:
 14693 58a1 5F5F4C44 		.ascii	"__LDBL_DENORM_MIN__ 4.9406564584124654e-324L\000"
 14693      424C5F44 
 14693      454E4F52 
 14693      4D5F4D49 
 14693      4E5F5F20 
 14694              	.LASF80:
 14695 58ce 5F5F494E 		.ascii	"__INTMAX_C(c) c ## LL\000"
 14695      544D4158 
 14695      5F432863 
 14695      29206320 
 14695      2323204C 
 14696              	.LASF249:
 14697 58e4 5F5F4C41 		.ascii	"__LACCUM_MIN__ (-0X1P31LK-0X1P31LK)\000"
 14697      4343554D 
 14697      5F4D494E 
 14697      5F5F2028 
 14697      2D305831 
 14698              	.LASF1403:
 14699 5908 53444F5F 		.ascii	"SDO_ABORT_UNSUPPORTED 0x06010000UL\000"
 14699      41424F52 
 14699      545F554E 
 14699      53555050 
 14699      4F525445 
 14700              	.LASF114:
 14701 592b 5F5F5549 		.ascii	"__UINT_FAST16_MAX__ 0xffffffffU\000"
 14701      4E545F46 
 14701      41535431 
 14701      365F4D41 
 14701      585F5F20 
 14702              	.LASF62:
 14703 594b 5F5F5549 		.ascii	"__UINT_FAST64_TYPE__ long long unsigned int\000"
 14703      4E545F46 
 14703      41535436 
 14703      345F5459 
 14703      50455F5F 
 14704              	.LASF792:
 14705 5977 494E545F 		.ascii	"INT_FAST16_MIN (-__INT_FAST16_MAX__ - 1)\000"
 14705      46415354 
 14705      31365F4D 
ARM GAS  /var/folders/z0/6xlwn_996xz3mwq1cgzkbq4r0000gp/T//cc3rPjEN.s 			page 330


 14705      494E2028 
 14705      2D5F5F49 
 14706              	.LASF1186:
 14707 59a0 55415254 		.ascii	"UART_MCR_RTS_CTRL (1 << 1)\000"
 14707      5F4D4352 
 14707      5F525453 
 14707      5F435452 
 14707      4C202831 
 14708              	.LASF537:
 14709 59bb 5F524545 		.ascii	"_REENT_RAND_NEXT(ptr) ((ptr)->_new._reent._rand_nex"
 14709      4E545F52 
 14709      414E445F 
 14709      4E455854 
 14709      28707472 
 14710 59ee 742900   		.ascii	"t)\000"
 14711              	.LASF1015:
 14712 59f1 4C50435F 		.ascii	"LPC_GPIO_PORT0_BASE 0x50000000\000"
 14712      4750494F 
 14712      5F504F52 
 14712      54305F42 
 14712      41534520 
 14713              	.LASF1284:
 14714 5a10 5F5F4144 		.ascii	"__ADC_11XX_H_ \000"
 14714      435F3131 
 14714      58585F48 
 14714      5F2000
 14715              	.LASF1226:
 14716 5a1f 55415254 		.ascii	"UART_ICR_FIXPULSE_EN (1 << 2)\000"
 14716      5F494352 
 14716      5F464958 
 14716      50554C53 
 14716      455F454E 
 14717              	.LASF675:
 14718 5a3d 5F5F6C6F 		.ascii	"__locks_shared(...) __lock_annotate(shared_lock_fun"
 14718      636B735F 
 14718      73686172 
 14718      6564282E 
 14718      2E2E2920 
 14719 5a70 6374696F 		.ascii	"ction(__VA_ARGS__))\000"
 14719      6E285F5F 
 14719      56415F41 
 14719      5247535F 
 14719      5F292900 
 14720              	.LASF1400:
 14721 5a84 53444F5F 		.ascii	"SDO_ABORT_TOGGLE 0x05030000UL\000"
 14721      41424F52 
 14721      545F544F 
 14721      47474C45 
 14721      20307830 
 14722              	.LASF206:
 14723 5aa2 5F5F5546 		.ascii	"__UFRACT_EPSILON__ 0x1P-16UR\000"
 14723      52414354 
 14723      5F455053 
 14723      494C4F4E 
 14723      5F5F2030 
 14724              	.LASF1311:
 14725 5abf 4932435F 		.ascii	"I2C_I2CONSET_AA ((0x04))\000"
ARM GAS  /var/folders/z0/6xlwn_996xz3mwq1cgzkbq4r0000gp/T//cc3rPjEN.s 			page 331


 14725      4932434F 
 14725      4E534554 
 14725      5F414120 
 14725      28283078 
 14726              	.LASF1565:
 14727 5ad8 435F434F 		.ascii	"C_CONFIG_DEF\000"
 14727      4E464947 
 14727      5F444546 
 14727      00
 14728              	.LASF1522:
 14729 5ae5 4353425F 		.ascii	"CSB_INIT_SEND_500\000"
 14729      494E4954 
 14729      5F53454E 
 14729      445F3530 
 14729      3000
 14730              	.LASF519:
 14731 5af7 5F52414E 		.ascii	"_RAND48_MULT_0 (0xe66d)\000"
 14731      4434385F 
 14731      4D554C54 
 14731      5F302028 
 14731      30786536 
 14732              	.LASF830:
 14733 5b0f 5F555345 		.ascii	"_USE_HISTORY \000"
 14733      5F484953 
 14733      544F5259 
 14733      2000
 14734              	.LASF963:
 14735 5b1d 5343425F 		.ascii	"SCB_CCR_STKALIGN_Pos 9\000"
 14735      4343525F 
 14735      53544B41 
 14735      4C49474E 
 14735      5F506F73 
 14736              	.LASF547:
 14737 5b34 5F524545 		.ascii	"_REENT_EMERGENCY(ptr) ((ptr)->_emergency)\000"
 14737      4E545F45 
 14737      4D455247 
 14737      454E4359 
 14737      28707472 
 14738              	.LASF113:
 14739 5b5e 5F5F5549 		.ascii	"__UINT_FAST8_MAX__ 0xffffffffU\000"
 14739      4E545F46 
 14739      41535438 
 14739      5F4D4158 
 14739      5F5F2030 
 14740              	.LASF975:
 14741 5b7d 53797354 		.ascii	"SysTick_CTRL_ENABLE_Pos 0\000"
 14741      69636B5F 
 14741      4354524C 
 14741      5F454E41 
 14741      424C455F 
 14742              	.LASF561:
 14743 5b97 5F4B6D61 		.ascii	"_Kmax (sizeof (size_t) << 3)\000"
 14743      78202873 
 14743      697A656F 
 14743      66202873 
 14743      697A655F 
 14744              	.LASF563:
ARM GAS  /var/folders/z0/6xlwn_996xz3mwq1cgzkbq4r0000gp/T//cc3rPjEN.s 			page 332


 14745 5bb4 5F524545 		.ascii	"_REENT _impure_ptr\000"
 14745      4E54205F 
 14745      696D7075 
 14745      72655F70 
 14745      747200
 14746              	.LASF551:
 14747 5bc7 5F524545 		.ascii	"_REENT_WCTOMB_STATE(ptr) ((ptr)->_new._reent._wctom"
 14747      4E545F57 
 14747      43544F4D 
 14747      425F5354 
 14747      41544528 
 14748 5bfa 625F7374 		.ascii	"b_state)\000"
 14748      61746529 
 14748      00
 14749              	.LASF816:
 14750 5c03 55494E54 		.ascii	"UINT16_C(x) __UINT16_C(x)\000"
 14750      31365F43 
 14750      28782920 
 14750      5F5F5549 
 14750      4E543136 
 14751              	.LASF272:
 14752 5c1d 5F5F5351 		.ascii	"__SQ_IBIT__ 0\000"
 14752      5F494249 
 14752      545F5F20 
 14752      3000
 14753              	.LASF1040:
 14754 5c2b 504D555F 		.ascii	"PMU_PCON_PM_SLEEP (0x0)\000"
 14754      50434F4E 
 14754      5F504D5F 
 14754      534C4545 
 14754      50202830 
 14755              	.LASF981:
 14756 5c43 53797354 		.ascii	"SysTick_CALIB_NOREF_Pos 31\000"
 14756      69636B5F 
 14756      43414C49 
 14756      425F4E4F 
 14756      5245465F 
 14757              	.LASF472:
 14758 5c5e 5F5F6E65 		.ascii	"__need_NULL\000"
 14758      65645F4E 
 14758      554C4C00 
 14759              	.LASF843:
 14760 5c6a 4B45595F 		.ascii	"KEY_BEL 7\000"
 14760      42454C20 
 14760      3700
 14761              	.LASF1625:
 14762 5c74 7072696E 		.ascii	"printPackCurrent\000"
 14762      74506163 
 14762      6B437572 
 14762      72656E74 
 14762      00
 14763              	.LASF995:
 14764 5c85 5F534850 		.ascii	"_SHP_IDX(IRQn) ( ((((uint32_t)(IRQn) & 0x0F)-8) >> "
 14764      5F494458 
 14764      28495251 
 14764      6E292028 
 14764      20282828 
ARM GAS  /var/folders/z0/6xlwn_996xz3mwq1cgzkbq4r0000gp/T//cc3rPjEN.s 			page 333


 14765 5cb8 32292029 		.ascii	"2) )\000"
 14765      00
 14766              	.LASF633:
 14767 5cbd 5F5F616C 		.ascii	"__always_inline __attribute__((__always_inline__))\000"
 14767      77617973 
 14767      5F696E6C 
 14767      696E6520 
 14767      5F5F6174 
 14768              	.LASF1053:
 14769 5cf0 53595343 		.ascii	"SYSCTL_DEEPSLP_WDTOSC_PD (1 << 6)\000"
 14769      544C5F44 
 14769      45455053 
 14769      4C505F57 
 14769      44544F53 
 14770              	.LASF937:
 14771 5d12 5343425F 		.ascii	"SCB_ICSR_PENDSTCLR_Pos 25\000"
 14771      49435352 
 14771      5F50454E 
 14771      44535443 
 14771      4C525F50 
 14772              	.LASF1288:
 14773 5d2c 4144435F 		.ascii	"ADC_DR_DONE(n) (((n) >> 31))\000"
 14773      44525F44 
 14773      4F4E4528 
 14773      6E292028 
 14773      28286E29 
 14774              	.LASF620:
 14775 5d49 5F5F7061 		.ascii	"__packed __attribute__((__packed__))\000"
 14775      636B6564 
 14775      205F5F61 
 14775      74747269 
 14775      62757465 
 14776              	.LASF167:
 14777 5d6e 5F5F4445 		.ascii	"__DEC32_MIN_EXP__ (-94)\000"
 14777      4333325F 
 14777      4D494E5F 
 14777      4558505F 
 14777      5F20282D 
 14778              	.LASF1010:
 14779 5d86 4C50435F 		.ascii	"LPC_IOCON_BASE 0x40044000\000"
 14779      494F434F 
 14779      4E5F4241 
 14779      53452030 
 14779      78343030 
 14780              	.LASF976:
 14781 5da0 53797354 		.ascii	"SysTick_CTRL_ENABLE_Msk (1UL << SysTick_CTRL_ENABLE"
 14781      69636B5F 
 14781      4354524C 
 14781      5F454E41 
 14781      424C455F 
 14782 5dd3 5F506F73 		.ascii	"_Pos)\000"
 14782      2900
 14783              	.LASF189:
 14784 5dd9 5F5F5346 		.ascii	"__SFRACT_MIN__ (-0.5HR-0.5HR)\000"
 14784      52414354 
 14784      5F4D494E 
 14784      5F5F2028 
ARM GAS  /var/folders/z0/6xlwn_996xz3mwq1cgzkbq4r0000gp/T//cc3rPjEN.s 			page 334


 14784      2D302E35 
 14785              	.LASF693:
 14786 5df7 5F4E4557 		.ascii	"_NEWLIB_ALLOCA_H \000"
 14786      4C49425F 
 14786      414C4C4F 
 14786      43415F48 
 14786      2000
 14787              	.LASF247:
 14788 5e09 5F5F4C41 		.ascii	"__LACCUM_FBIT__ 31\000"
 14788      4343554D 
 14788      5F464249 
 14788      545F5F20 
 14788      333100
 14789              	.LASF351:
 14790 5e1c 5F4E4557 		.ascii	"_NEWLIB_VERSION \"2.4.0\"\000"
 14790      4C49425F 
 14790      56455253 
 14790      494F4E20 
 14790      22322E34 
 14791              	.LASF1233:
 14792 5e34 55415254 		.ascii	"UART_SCICTRL_TXRETRY(n) ((n & 0x07) << 5)\000"
 14792      5F534349 
 14792      4354524C 
 14792      5F545852 
 14792      45545259 
 14793              	.LASF254:
 14794 5e5e 5F5F554C 		.ascii	"__ULACCUM_MIN__ 0.0ULK\000"
 14794      41434355 
 14794      4D5F4D49 
 14794      4E5F5F20 
 14794      302E3055 
 14795              	.LASF1501:
 14796 5e75 7061636B 		.ascii	"pack_cells_p\000"
 14796      5F63656C 
 14796      6C735F70 
 14796      00
 14797              	.LASF1051:
 14798 5e82 53595343 		.ascii	"SYSCTL_NMISRC_ENABLE ((uint32_t) 1 << 31)\000"
 14798      544C5F4E 
 14798      4D495352 
 14798      435F454E 
 14798      41424C45 
 14799              	.LASF474:
 14800 5eac 5F535953 		.ascii	"_SYS__TYPES_H \000"
 14800      5F5F5459 
 14800      5045535F 
 14800      482000
 14801              	.LASF1071:
 14802 5ebb 53595343 		.ascii	"SYSCTL_IRC_FREQ (12000000)\000"
 14802      544C5F49 
 14802      52435F46 
 14802      52455120 
 14802      28313230 
 14803              	.LASF518:
 14804 5ed6 5F52414E 		.ascii	"_RAND48_SEED_2 (0x1234)\000"
 14804      4434385F 
 14804      53454544 
ARM GAS  /var/folders/z0/6xlwn_996xz3mwq1cgzkbq4r0000gp/T//cc3rPjEN.s 			page 335


 14804      5F322028 
 14804      30783132 
 14805              	.LASF919:
 14806 5eee 5343425F 		.ascii	"SCB_CPUID_IMPLEMENTER_Pos 24\000"
 14806      43505549 
 14806      445F494D 
 14806      504C454D 
 14806      454E5445 
 14807              	.LASF71:
 14808 5f0b 5F5F4C4F 		.ascii	"__LONG_MAX__ 0x7fffffffL\000"
 14808      4E475F4D 
 14808      41585F5F 
 14808      20307837 
 14808      66666666 
 14809              	.LASF1202:
 14810 5f24 55415254 		.ascii	"UART_MSR_DELTA_CTS (1 << 0)\000"
 14810      5F4D5352 
 14810      5F44454C 
 14810      54415F43 
 14810      54532028 
 14811              	.LASF663:
 14812 5f40 5F5F5243 		.ascii	"__RCSID(s) struct __hack\000"
 14812      53494428 
 14812      73292073 
 14812      74727563 
 14812      74205F5F 
 14813              	.LASF98:
 14814 5f59 5F5F494E 		.ascii	"__INT32_C(c) c ## L\000"
 14814      5433325F 
 14814      43286329 
 14814      20632023 
 14814      23204C00 
 14815              	.LASF401:
 14816 5f6d 5F414E44 		.ascii	"_AND ,\000"
 14816      202C00
 14817              	.LASF584:
 14818 5f74 5F5F454E 		.ascii	"__END_DECLS \000"
 14818      445F4445 
 14818      434C5320 
 14818      00
 14819              	.LASF1511:
 14820 5f81 4353425F 		.ascii	"CSB_SSM_MODE_T\000"
 14820      53534D5F 
 14820      4D4F4445 
 14820      5F5400
 14821              	.LASF1083:
 14822 5f90 494F434F 		.ascii	"IOCON_MODE_PULLUP (0x2 << 3)\000"
 14822      4E5F4D4F 
 14822      44455F50 
 14822      554C4C55 
 14822      50202830 
 14823              	.LASF1484:
 14824 5fad 73697A65 		.ascii	"sizetype\000"
 14824      74797065 
 14824      00
 14825              	.LASF485:
 14826 5fb6 5F5F5F69 		.ascii	"___int_least64_t_defined 1\000"
ARM GAS  /var/folders/z0/6xlwn_996xz3mwq1cgzkbq4r0000gp/T//cc3rPjEN.s 			page 336


 14826      6E745F6C 
 14826      65617374 
 14826      36345F74 
 14826      5F646566 
 14827              	.LASF178:
 14828 5fd1 5F5F4445 		.ascii	"__DEC64_EPSILON__ 1E-15DD\000"
 14828      4336345F 
 14828      45505349 
 14828      4C4F4E5F 
 14828      5F203145 
 14829              	.LASF890:
 14830 5feb 4E454C45 		.ascii	"NELEMENTS(array) (sizeof(array) / sizeof(array[0]))"
 14830      4D454E54 
 14830      53286172 
 14830      72617929 
 14830      20287369 
 14831 601e 00       		.ascii	"\000"
 14832              	.LASF1249:
 14833 601f 57574454 		.ascii	"WWDT_WDMOD_WDEN ((uint32_t) (1 << 0))\000"
 14833      5F57444D 
 14833      4F445F57 
 14833      44454E20 
 14833      28287569 
 14834              	.LASF593:
 14835 6045 5F5F474E 		.ascii	"__GNUCLIKE_BUILTIN_STDARG 1\000"
 14835      55434C49 
 14835      4B455F42 
 14835      55494C54 
 14835      494E5F53 
 14836              	.LASF754:
 14837 6061 5F5F696E 		.ascii	"__int_least8_t_defined 1\000"
 14837      745F6C65 
 14837      61737438 
 14837      5F745F64 
 14837      6566696E 
 14838              	.LASF905:
 14839 607a 5F5F434D 		.ascii	"__CM0_CMSIS_VERSION_MAIN (0x03)\000"
 14839      305F434D 
 14839      5349535F 
 14839      56455253 
 14839      494F4E5F 
 14840              	.LASF961:
 14841 609a 5343425F 		.ascii	"SCB_SCR_SLEEPONEXIT_Pos 1\000"
 14841      5343525F 
 14841      534C4545 
 14841      504F4E45 
 14841      5849545F 
 14842              	.LASF168:
 14843 60b4 5F5F4445 		.ascii	"__DEC32_MAX_EXP__ 97\000"
 14843      4333325F 
 14843      4D41585F 
 14843      4558505F 
 14843      5F203937 
 14844              	.LASF368:
 14845 60c9 5F5F4945 		.ascii	"__IEEE_LITTLE_ENDIAN \000"
 14845      45455F4C 
 14845      4954544C 
ARM GAS  /var/folders/z0/6xlwn_996xz3mwq1cgzkbq4r0000gp/T//cc3rPjEN.s 			page 337


 14845      455F454E 
 14845      4449414E 
 14846              	.LASF1229:
 14847 60df 55415254 		.ascii	"UART_HDEN_HDEN ((1 << 0))\000"
 14847      5F484445 
 14847      4E5F4844 
 14847      454E2028 
 14847      2831203C 
 14848              	.LASF860:
 14849 60f9 4B45595F 		.ascii	"KEY_CAN 24\000"
 14849      43414E20 
 14849      323400
 14850              	.LASF1476:
 14851 6104 73686F72 		.ascii	"short unsigned int\000"
 14851      7420756E 
 14851      7369676E 
 14851      65642069 
 14851      6E7400
 14852              	.LASF1574:
 14853 6117 52574C5F 		.ascii	"RWL_num_modules\000"
 14853      6E756D5F 
 14853      6D6F6475 
 14853      6C657300 
 14854              	.LASF971:
 14855 6127 53797354 		.ascii	"SysTick_CTRL_CLKSOURCE_Pos 2\000"
 14855      69636B5F 
 14855      4354524C 
 14855      5F434C4B 
 14855      534F5552 
 14856              	.LASF1473:
 14857 6144 7369676E 		.ascii	"signed char\000"
 14857      65642063 
 14857      68617200 
 14858              	.LASF495:
 14859 6150 5F5F6C6F 		.ascii	"__lock_acquire_recursive(lock) (_CAST_VOID 0)\000"
 14859      636B5F61 
 14859      63717569 
 14859      72655F72 
 14859      65637572 
 14860              	.LASF873:
 14861 617e 5F455343 		.ascii	"_ESC_HOME 2\000"
 14861      5F484F4D 
 14861      45203200 
 14862              	.LASF1076:
 14863 618a 494F434F 		.ascii	"IOCON_FUNC3 0x3\000"
 14863      4E5F4655 
 14863      4E433320 
 14863      30783300 
 14864              	.LASF435:
 14865 619a 5F5F7369 		.ascii	"__size_t__ \000"
 14865      7A655F74 
 14865      5F5F2000 
 14866              	.LASF1508:
 14867 61a6 4353425F 		.ascii	"CSB_SSM_MODE_IDLE\000"
 14867      53534D5F 
 14867      4D4F4445 
 14867      5F49444C 
ARM GAS  /var/folders/z0/6xlwn_996xz3mwq1cgzkbq4r0000gp/T//cc3rPjEN.s 			page 338


 14867      4500
 14868              	.LASF870:
 14869 61b8 5F484953 		.ascii	"_HIST_UP 0\000"
 14869      545F5550 
 14869      203000
 14870              	.LASF1215:
 14871 61c3 55415254 		.ascii	"UART_ACR_ABTOINT_CLR (1 << 9)\000"
 14871      5F414352 
 14871      5F414254 
 14871      4F494E54 
 14871      5F434C52 
 14872              	.LASF643:
 14873 61e1 5F5F7072 		.ascii	"__predict_false(exp) __builtin_expect((exp), 0)\000"
 14873      65646963 
 14873      745F6661 
 14873      6C736528 
 14873      65787029 
 14874              	.LASF78:
 14875 6211 5F5F5349 		.ascii	"__SIZE_MAX__ 0xffffffffU\000"
 14875      5A455F4D 
 14875      41585F5F 
 14875      20307866 
 14875      66666666 
 14876              	.LASF1310:
 14877 622a 4932435F 		.ascii	"I2C_STA_STO_RECV 0x20\000"
 14877      5354415F 
 14877      53544F5F 
 14877      52454356 
 14877      20307832 
 14878              	.LASF400:
 14879 6240 5F505452 		.ascii	"_PTR void *\000"
 14879      20766F69 
 14879      64202A00 
 14880              	.LASF266:
 14881 624c 5F5F554C 		.ascii	"__ULLACCUM_EPSILON__ 0x1P-32ULLK\000"
 14881      4C414343 
 14881      554D5F45 
 14881      5053494C 
 14881      4F4E5F5F 
 14882              	.LASF22:
 14883 626d 5F5F4348 		.ascii	"__CHAR_BIT__ 8\000"
 14883      41525F42 
 14883      49545F5F 
 14883      203800
 14884              	.LASF34:
 14885 627c 5F5F494E 		.ascii	"__INTMAX_TYPE__ long long int\000"
 14885      544D4158 
 14885      5F545950 
 14885      455F5F20 
 14885      6C6F6E67 
 14886              	.LASF1114:
 14887 629a 46554E43 		.ascii	"FUNC6 0x6\000"
 14887      36203078 
 14887      3600
 14888              	.LASF1279:
 14889 62a4 5353505F 		.ascii	"SSP_SLAVE_MODE SSP_CR1_SLAVE_EN\000"
 14889      534C4156 
ARM GAS  /var/folders/z0/6xlwn_996xz3mwq1cgzkbq4r0000gp/T//cc3rPjEN.s 			page 339


 14889      455F4D4F 
 14889      44452053 
 14889      53505F43 
 14890              	.LASF389:
 14891 62c4 5F504F49 		.ascii	"_POINTER_INT long\000"
 14891      4E544552 
 14891      5F494E54 
 14891      206C6F6E 
 14891      6700
 14892              	.LASF1446:
 14893 62d6 4D593138 		.ascii	"MY18_NUM_MODULES 6\000"
 14893      5F4E554D 
 14893      5F4D4F44 
 14893      554C4553 
 14893      203600
 14894              	.LASF1170:
 14895 62e9 55415254 		.ascii	"UART_LCR_WLEN6 (1 << 0)\000"
 14895      5F4C4352 
 14895      5F574C45 
 14895      4E362028 
 14895      31203C3C 
 14896              	.LASF1459:
 14897 6301 4D593136 		.ascii	"MY16_CELL_CHARGE_C_RATING_cC 5\000"
 14897      5F43454C 
 14897      4C5F4348 
 14897      41524745 
 14897      5F435F52 
 14898              	.LASF582:
 14899 6320 5F5F6861 		.ascii	"__has_builtin(x) 0\000"
 14899      735F6275 
 14899      696C7469 
 14899      6E287829 
 14899      203000
 14900              	.LASF565:
 14901 6333 5F474C4F 		.ascii	"_GLOBAL_ATEXIT (_GLOBAL_REENT->_atexit)\000"
 14901      42414C5F 
 14901      41544558 
 14901      49542028 
 14901      5F474C4F 
 14902              	.LASF1017:
 14903 635b 4C50435F 		.ascii	"LPC_GPIO_PORT2_BASE 0x50020000\000"
 14903      4750494F 
 14903      5F504F52 
 14903      54325F42 
 14903      41534520 
 14904              	.LASF1330:
 14905 637a 4932435F 		.ascii	"I2C_I2STAT_M_TX_START ((0x08))\000"
 14905      49325354 
 14905      41545F4D 
 14905      5F54585F 
 14905      53544152 
 14906              	.LASF443:
 14907 6399 5F425344 		.ascii	"_BSD_SIZE_T_ \000"
 14907      5F53495A 
 14907      455F545F 
 14907      2000
 14908              	.LASF1281:
ARM GAS  /var/folders/z0/6xlwn_996xz3mwq1cgzkbq4r0000gp/T//cc3rPjEN.s 			page 340


 14909 63a7 5F5F524F 		.ascii	"__ROMAPI_11XX_H_ \000"
 14909      4D415049 
 14909      5F313158 
 14909      585F485F 
 14909      2000
 14910              	.LASF66:
 14911 63b9 5F5F6861 		.ascii	"__has_include_next(STR) __has_include_next__(STR)\000"
 14911      735F696E 
 14911      636C7564 
 14911      655F6E65 
 14911      78742853 
 14912              	.LASF501:
 14913 63eb 756E7369 		.ascii	"unsigned signed\000"
 14913      676E6564 
 14913      20736967 
 14913      6E656400 
 14914              	.LASF36:
 14915 63fb 5F5F4348 		.ascii	"__CHAR16_TYPE__ short unsigned int\000"
 14915      41523136 
 14915      5F545950 
 14915      455F5F20 
 14915      73686F72 
 14916              	.LASF1152:
 14917 641e 55415254 		.ascii	"UART_IIR_INTID_MASK (7 << 1)\000"
 14917      5F494952 
 14917      5F494E54 
 14917      49445F4D 
 14917      41534B20 
 14918              	.LASF117:
 14919 643b 5F5F494E 		.ascii	"__INTPTR_MAX__ 0x7fffffff\000"
 14919      54505452 
 14919      5F4D4158 
 14919      5F5F2030 
 14919      78376666 
 14920              	.LASF317:
 14921 6455 5F5F4743 		.ascii	"__GCC_ATOMIC_POINTER_LOCK_FREE 1\000"
 14921      435F4154 
 14921      4F4D4943 
 14921      5F504F49 
 14921      4E544552 
 14922              	.LASF1314:
 14923 6476 4932435F 		.ascii	"I2C_I2CONSET_STA ((0x20))\000"
 14923      4932434F 
 14923      4E534554 
 14923      5F535441 
 14923      20282830 
 14924              	.LASF1391:
 14925 6490 43414E5F 		.ascii	"CAN_ERROR_FORM 0x00000010UL\000"
 14925      4552524F 
 14925      525F464F 
 14925      524D2030 
 14925      78303030 
 14926              	.LASF145:
 14927 64ac 5F5F4442 		.ascii	"__DBL_MAX__ ((double)1.7976931348623157e+308L)\000"
 14927      4C5F4D41 
 14927      585F5F20 
 14927      2828646F 
ARM GAS  /var/folders/z0/6xlwn_996xz3mwq1cgzkbq4r0000gp/T//cc3rPjEN.s 			page 341


 14927      75626C65 
 14928              	.LASF1022:
 14929 64db 4C50435F 		.ascii	"LPC_WWDT ((LPC_WWDT_T *) LPC_WWDT_BASE)\000"
 14929      57574454 
 14929      2028284C 
 14929      50435F57 
 14929      5744545F 
 14930              	.LASF940:
 14931 6503 5343425F 		.ascii	"SCB_ICSR_ISRPREEMPT_Msk (1UL << SCB_ICSR_ISRPREEMPT"
 14931      49435352 
 14931      5F495352 
 14931      50524545 
 14931      4D50545F 
 14932 6536 5F506F73 		.ascii	"_Pos)\000"
 14932      2900
 14933              	.LASF1294:
 14934 653c 4144435F 		.ascii	"ADC_CR_START_MASK ((7UL << 24))\000"
 14934      43525F53 
 14934      54415254 
 14934      5F4D4153 
 14934      4B202828 
 14935              	.LASF1601:
 14936 655c 6D656173 		.ascii	"measure_packvoltage\000"
 14936      7572655F 
 14936      7061636B 
 14936      766F6C74 
 14936      61676500 
 14937              	.LASF1366:
 14938 6570 4932435F 		.ascii	"I2C_I2ADR_GC ((1 << 0))\000"
 14938      49324144 
 14938      525F4743 
 14938      20282831 
 14938      203C3C20 
 14939              	.LASF1203:
 14940 6588 55415254 		.ascii	"UART_MSR_DELTA_DSR (1 << 1)\000"
 14940      5F4D5352 
 14940      5F44454C 
 14940      54415F44 
 14940      53522028 
 14941              	.LASF539:
 14942 65a4 5F524545 		.ascii	"_REENT_RAND48_MULT(ptr) ((ptr)->_new._reent._r48._m"
 14942      4E545F52 
 14942      414E4434 
 14942      385F4D55 
 14942      4C542870 
 14943 65d7 756C7429 		.ascii	"ult)\000"
 14943      00
 14944              	.LASF1599:
 14945 65dc 6D656173 		.ascii	"measure_on\000"
 14945      7572655F 
 14945      6F6E00
 14946              	.LASF292:
 14947 65e7 5F5F4441 		.ascii	"__DA_IBIT__ 32\000"
 14947      5F494249 
 14947      545F5F20 
 14947      333200
 14948              	.LASF609:
ARM GAS  /var/folders/z0/6xlwn_996xz3mwq1cgzkbq4r0000gp/T//cc3rPjEN.s 			page 342


 14949 65f6 5F5F434F 		.ascii	"__CONCAT(x,y) __CONCAT1(x,y)\000"
 14949      4E434154 
 14949      28782C79 
 14949      29205F5F 
 14949      434F4E43 
 14950              	.LASF175:
 14951 6613 5F5F4445 		.ascii	"__DEC64_MAX_EXP__ 385\000"
 14951      4336345F 
 14951      4D41585F 
 14951      4558505F 
 14951      5F203338 
 14952              	.LASF1615:
 14953 6629 73746174 		.ascii	"state\000"
 14953      6500
 14954              	.LASF1367:
 14955 662f 4932435F 		.ascii	"I2C_I2ADR_BITMASK ((0xFF))\000"
 14955      49324144 
 14955      525F4249 
 14955      544D4153 
 14955      4B202828 
 14956              	.LASF553:
 14957 664a 5F524545 		.ascii	"_REENT_MBRTOWC_STATE(ptr) ((ptr)->_new._reent._mbrt"
 14957      4E545F4D 
 14957      4252544F 
 14957      57435F53 
 14957      54415445 
 14958 667d 6F77635F 		.ascii	"owc_state)\000"
 14958      73746174 
 14958      652900
 14959              	.LASF794:
 14960 6688 55494E54 		.ascii	"UINT_FAST16_MAX (__UINT_FAST16_MAX__)\000"
 14960      5F464153 
 14960      5431365F 
 14960      4D415820 
 14960      285F5F55 
 14961              	.LASF1104:
 14962 66ae 4D445F53 		.ascii	"MD_SFI2C (0x0 << 8)\000"
 14962      46493243 
 14962      20283078 
 14962      30203C3C 
 14962      20382900 
 14963              	.LASF424:
 14964 66c2 5F414E53 		.ascii	"_ANSI_STDDEF_H \000"
 14964      495F5354 
 14964      44444546 
 14964      5F482000 
 14965              	.LASF721:
 14966 66d2 73686F72 		.ascii	"short +1\000"
 14966      74202B31 
 14966      00
 14967              	.LASF812:
 14968 66db 57494E54 		.ascii	"WINT_MIN (__WINT_MIN__)\000"
 14968      5F4D494E 
 14968      20285F5F 
 14968      57494E54 
 14968      5F4D494E 
 14969              	.LASF1347:
ARM GAS  /var/folders/z0/6xlwn_996xz3mwq1cgzkbq4r0000gp/T//cc3rPjEN.s 			page 343


 14970 66f3 4932435F 		.ascii	"I2C_I2STAT_S_RX_ARB_LOST_M_GENCALL ((0x78))\000"
 14970      49325354 
 14970      41545F53 
 14970      5F52585F 
 14970      4152425F 
 14971              	.LASF1253:
 14972 671f 57574454 		.ascii	"WWDT_WDMOD_WDPROTECT ((uint32_t) (1 << 4))\000"
 14972      5F57444D 
 14972      4F445F57 
 14972      4450524F 
 14972      54454354 
 14973              	.LASF1614:
 14974 674a 696E7075 		.ascii	"input\000"
 14974      7400
 14975              	.LASF1201:
 14976 6750 55415254 		.ascii	"UART1_LSR_BITMASK (0x1FF)\000"
 14976      315F4C53 
 14976      525F4249 
 14976      544D4153 
 14976      4B202830 
 14977              	.LASF521:
 14978 676a 5F52414E 		.ascii	"_RAND48_MULT_2 (0x0005)\000"
 14978      4434385F 
 14978      4D554C54 
 14978      5F322028 
 14978      30783030 
 14979              	.LASF885:
 14980 6782 5F424954 		.ascii	"_BIT(n) (1 << (n))\000"
 14980      286E2920 
 14980      2831203C 
 14980      3C20286E 
 14980      292900
 14981              	.LASF508:
 14982 6795 5F434C4F 		.ascii	"_CLOCKID_T_ unsigned long\000"
 14982      434B4944 
 14982      5F545F20 
 14982      756E7369 
 14982      676E6564 
 14983              	.LASF605:
 14984 67af 5F5F4343 		.ascii	"__CC_SUPPORTS_VARADIC_XXX 1\000"
 14984      5F535550 
 14984      504F5254 
 14984      535F5641 
 14984      52414449 
 14985              	.LASF341:
 14986 67cb 5F5F5553 		.ascii	"__USES_INITFINI__ 1\000"
 14986      45535F49 
 14986      4E495446 
 14986      494E495F 
 14986      5F203100 
 14987              	.LASF313:
 14988 67df 5F5F4743 		.ascii	"__GCC_ATOMIC_INT_LOCK_FREE 1\000"
 14988      435F4154 
 14988      4F4D4943 
 14988      5F494E54 
 14988      5F4C4F43 
 14989              	.LASF984:
ARM GAS  /var/folders/z0/6xlwn_996xz3mwq1cgzkbq4r0000gp/T//cc3rPjEN.s 			page 344


 14990 67fc 53797354 		.ascii	"SysTick_CALIB_SKEW_Msk (1UL << SysTick_CALIB_SKEW_P"
 14990      69636B5F 
 14990      43414C49 
 14990      425F534B 
 14990      45575F4D 
 14991 682f 6F732900 		.ascii	"os)\000"
 14992              	.LASF1624:
 14993 6833 6373625F 		.ascii	"csb_state\000"
 14993      73746174 
 14993      6500
 14994              	.LASF1445:
 14995 683d 4D593138 		.ascii	"MY18_CELL_CAPACITY_cAh 250\000"
 14995      5F43454C 
 14995      4C5F4341 
 14995      50414349 
 14995      54595F63 
 14996              	.LASF673:
 14997 6858 5F5F6C6F 		.ascii	"__lockable __lock_annotate(lockable)\000"
 14997      636B6162 
 14997      6C65205F 
 14997      5F6C6F63 
 14997      6B5F616E 
 14998              	.LASF1020:
 14999 687d 4C50435F 		.ascii	"LPC_ROM_API_BASE_LOC 0x1FFF1FF8\000"
 14999      524F4D5F 
 14999      4150495F 
 14999      42415345 
 14999      5F4C4F43 
 15000              	.LASF580:
 15001 689d 5F5F6861 		.ascii	"__has_extension __has_feature\000"
 15001      735F6578 
 15001      74656E73 
 15001      696F6E20 
 15001      5F5F6861 
 15002              	.LASF303:
 15003 68bb 5F5F5245 		.ascii	"__REGISTER_PREFIX__ \000"
 15003      47495354 
 15003      45525F50 
 15003      52454649 
 15003      585F5F20 
 15004              	.LASF1003:
 15005 68d0 4C50435F 		.ascii	"LPC_TIMER32_1_BASE 0x40018000\000"
 15005      54494D45 
 15005      5233325F 
 15005      315F4241 
 15005      53452030 
 15006              	.LASF1509:
 15007 68ee 4353425F 		.ascii	"CSB_SSM_MODE_CHARGE\000"
 15007      53534D5F 
 15007      4D4F4445 
 15007      5F434841 
 15007      52474500 
 15008              	.LASF678:
 15009 6902 5F5F756E 		.ascii	"__unlocks(...) __lock_annotate(unlock_function(__VA"
 15009      6C6F636B 
 15009      73282E2E 
 15009      2E29205F 
ARM GAS  /var/folders/z0/6xlwn_996xz3mwq1cgzkbq4r0000gp/T//cc3rPjEN.s 			page 345


 15009      5F6C6F63 
 15010 6935 5F415247 		.ascii	"_ARGS__))\000"
 15010      535F5F29 
 15010      2900
 15011              	.LASF195:
 15012 693f 5F5F5553 		.ascii	"__USFRACT_MAX__ 0XFFP-8UHR\000"
 15012      46524143 
 15012      545F4D41 
 15012      585F5F20 
 15012      30584646 
 15013              	.LASF520:
 15014 695a 5F52414E 		.ascii	"_RAND48_MULT_1 (0xdeec)\000"
 15014      4434385F 
 15014      4D554C54 
 15014      5F312028 
 15014      30786465 
 15015              	.LASF881:
 15016 6972 5F5F4C50 		.ascii	"__LPC_TYPES_H_ \000"
 15016      435F5459 
 15016      5045535F 
 15016      485F2000 
 15017              	.LASF1633:
 15018 6982 68656C70 		.ascii	"helpstring\000"
 15018      73747269 
 15018      6E6700
 15019              	.LASF347:
 15020 698d 5F535452 		.ascii	"_STRING_H_ \000"
 15020      494E475F 
 15020      485F2000 
 15021              	.LASF1251:
 15022 6999 57574454 		.ascii	"WWDT_WDMOD_WDTOF ((uint32_t) (1 << 2))\000"
 15022      5F57444D 
 15022      4F445F57 
 15022      44544F46 
 15022      20282875 
 15023              	.LASF1192:
 15024 69c0 55415254 		.ascii	"UART_LSR_OE (1 << 1)\000"
 15024      5F4C5352 
 15024      5F4F4520 
 15024      2831203C 
 15024      3C203129 
 15025              	.LASF141:
 15026 69d5 5F5F4442 		.ascii	"__DBL_MIN_10_EXP__ (-307)\000"
 15026      4C5F4D49 
 15026      4E5F3130 
 15026      5F455850 
 15026      5F5F2028 
 15027              	.LASF659:
 15028 69ef 5F5F7761 		.ascii	"__warn_references(sym,msg) __asm__(\".section .gnu."
 15028      726E5F72 
 15028      65666572 
 15028      656E6365 
 15028      73287379 
 15029 6a21 7761726E 		.ascii	"warning.\" #sym); __asm__(\".asciz \\\"\" msg \"\\\""
 15029      696E672E 
 15029      22202373 
 15029      796D293B 
ARM GAS  /var/folders/z0/6xlwn_996xz3mwq1cgzkbq4r0000gp/T//cc3rPjEN.s 			page 346


 15029      205F5F61 
 15030 6a4d 22293B20 		.ascii	"\"); __asm__(\".previous\")\000"
 15030      5F5F6173 
 15030      6D5F5F28 
 15030      222E7072 
 15030      6576696F 
 15031              	.LASF545:
 15032 6a66 5F524545 		.ascii	"_REENT_ASCTIME_BUF(ptr) ((ptr)->_new._reent._asctim"
 15032      4E545F41 
 15032      53435449 
 15032      4D455F42 
 15032      55462870 
 15033 6a99 655F6275 		.ascii	"e_buf)\000"
 15033      662900
 15034              	.LASF1255:
 15035 6aa0 5353505F 		.ascii	"SSP_CR0_DSS(n) ((uint32_t) ((n) & 0xF))\000"
 15035      4352305F 
 15035      44535328 
 15035      6E292028 
 15035      2875696E 
 15036              	.LASF1604:
 15037 6ac8 636F6E66 		.ascii	"config_def\000"
 15037      69675F64 
 15037      656600
 15038              	.LASF281:
 15039 6ad3 5F5F5553 		.ascii	"__USQ_FBIT__ 32\000"
 15039      515F4642 
 15039      49545F5F 
 15039      20333200 
 15040              	.LASF1072:
 15041 6ae3 5F5F494F 		.ascii	"__IOCON_11XX_H_ \000"
 15041      434F4E5F 
 15041      31315858 
 15041      5F485F20 
 15041      00
 15042              	.LASF55:
 15043 6af4 5F5F494E 		.ascii	"__INT_FAST8_TYPE__ int\000"
 15043      545F4641 
 15043      5354385F 
 15043      54595045 
 15043      5F5F2069 
 15044              	.LASF822:
 15045 6b0b 55494E54 		.ascii	"UINTMAX_C(x) __UINTMAX_C(x)\000"
 15045      4D41585F 
 15045      43287829 
 15045      205F5F55 
 15045      494E544D 
 15046              	.LASF1537:
 15047 6b27 656C636F 		.ascii	"elcon_output_current\000"
 15047      6E5F6F75 
 15047      74707574 
 15047      5F637572 
 15047      72656E74 
 15048              	.LASF1206:
 15049 6b3c 55415254 		.ascii	"UART_MSR_CTS (1 << 4)\000"
 15049      5F4D5352 
 15049      5F435453 
ARM GAS  /var/folders/z0/6xlwn_996xz3mwq1cgzkbq4r0000gp/T//cc3rPjEN.s 			page 347


 15049      20283120 
 15049      3C3C2034 
 15050              	.LASF571:
 15051 6b52 5F5F7074 		.ascii	"__ptr_t void *\000"
 15051      725F7420 
 15051      766F6964 
 15051      202A00
 15052              	.LASF654:
 15053 6b61 5F5F7374 		.ascii	"__strftimelike(fmtarg,firstvararg) __attribute__((_"
 15053      72667469 
 15053      6D656C69 
 15053      6B652866 
 15053      6D746172 
 15054 6b94 5F666F72 		.ascii	"_format__ (__strftime__, fmtarg, firstvararg)))\000"
 15054      6D61745F 
 15054      5F20285F 
 15054      5F737472 
 15054      6674696D 
 15055              	.LASF859:
 15056 6bc4 4B45595F 		.ascii	"KEY_ETB 23\000"
 15056      45544220 
 15056      323300
 15057              	.LASF502:
 15058 6bcf 756E7369 		.ascii	"unsigned\000"
 15058      676E6564 
 15058      00
 15059              	.LASF1188:
 15060 6bd8 55415254 		.ascii	"UART_MCR_AUTO_RTS_EN (1 << 6)\000"
 15060      5F4D4352 
 15060      5F415554 
 15060      4F5F5254 
 15060      535F454E 
 15061              	.LASF384:
 15062 6bf6 5F5F4C41 		.ascii	"__LARGEFILE_VISIBLE 0\000"
 15062      52474546 
 15062      494C455F 
 15062      56495349 
 15062      424C4520 
 15063              	.LASF887:
 15064 6c0c 5F534246 		.ascii	"_SBF(f,v) ((v) << (f))\000"
 15064      28662C76 
 15064      29202828 
 15064      7629203C 
 15064      3C202866 
 15065              	.LASF82:
 15066 6c23 5F5F5549 		.ascii	"__UINTMAX_C(c) c ## ULL\000"
 15066      4E544D41 
 15066      585F4328 
 15066      63292063 
 15066      20232320 
 15067              	.LASF179:
 15068 6c3b 5F5F4445 		.ascii	"__DEC64_SUBNORMAL_MIN__ 0.000000000000001E-383DD\000"
 15068      4336345F 
 15068      5355424E 
 15068      4F524D41 
 15068      4C5F4D49 
 15069              	.LASF1361:
ARM GAS  /var/folders/z0/6xlwn_996xz3mwq1cgzkbq4r0000gp/T//cc3rPjEN.s 			page 348


 15070 6c6c 4932435F 		.ascii	"I2C_I2MMCTRL_MM_ENA ((1 << 0))\000"
 15070      49324D4D 
 15070      4354524C 
 15070      5F4D4D5F 
 15070      454E4120 
 15071              	.LASF434:
 15072 6c8b 5F5F6E65 		.ascii	"__need_ptrdiff_t\000"
 15072      65645F70 
 15072      74726469 
 15072      66665F74 
 15072      00
 15073              	.LASF1591:
 15074 6c9c 726F5F6C 		.ascii	"ro_loc_label_t\000"
 15074      6F635F6C 
 15074      6162656C 
 15074      5F7400
 15075              	.LASF1282:
 15076 6cab 5F5F4C50 		.ascii	"__LPC_ERROR_H__ \000"
 15076      435F4552 
 15076      524F525F 
 15076      485F5F20 
 15076      00
 15077              	.LASF1089:
 15078 6cbc 494F434F 		.ascii	"IOCON_SFI2C_EN (0x0 << 8)\000"
 15078      4E5F5346 
 15078      4932435F 
 15078      454E2028 
 15078      30783020 
 15079              	.LASF1111:
 15080 6cd6 46554E43 		.ascii	"FUNC3 0x3\000"
 15080      33203078 
 15080      3300
 15081              	.LASF856:
 15082 6ce0 4B45595F 		.ascii	"KEY_DC4 20\000"
 15082      44433420 
 15082      323000
 15083              	.LASF1355:
 15084 6ceb 4932435F 		.ascii	"I2C_I2STAT_S_TX_DAT_ACK ((0xB8))\000"
 15084      49325354 
 15084      41545F53 
 15084      5F54585F 
 15084      4441545F 
 15085              	.LASF416:
 15086 6d0c 5F504152 		.ascii	"_PARAMS(paramlist) paramlist\000"
 15086      414D5328 
 15086      70617261 
 15086      6D6C6973 
 15086      74292070 
 15087              	.LASF767:
 15088 6d29 55494E54 		.ascii	"UINT8_MAX (__UINT8_MAX__)\000"
 15088      385F4D41 
 15088      5820285F 
 15088      5F55494E 
 15088      54385F4D 
 15089              	.LASF1479:
 15090 6d43 6C6F6E67 		.ascii	"long int\000"
 15090      20696E74 
ARM GAS  /var/folders/z0/6xlwn_996xz3mwq1cgzkbq4r0000gp/T//cc3rPjEN.s 			page 349


 15090      00
 15091              	.LASF405:
 15092 6d4c 5F534947 		.ascii	"_SIGNED signed\000"
 15092      4E454420 
 15092      7369676E 
 15092      656400
 15093              	.LASF76:
 15094 6d5b 5F5F5749 		.ascii	"__WINT_MIN__ 0U\000"
 15094      4E545F4D 
 15094      494E5F5F 
 15094      20305500 
 15095              	.LASF852:
 15096 6d6b 4B45595F 		.ascii	"KEY_DLE 16\000"
 15096      444C4520 
 15096      313600
 15097              	.LASF894:
 15098 6d76 4D415828 		.ascii	"MAX(a,b) (((a) > (b)) ? (a) : (b))\000"
 15098      612C6229 
 15098      20282828 
 15098      6129203E 
 15098      20286229 
 15099              	.LASF1398:
 15100 6d99 43414E5F 		.ascii	"CAN_MSGOBJ_DAT 0x00000000UL\000"
 15100      4D53474F 
 15100      424A5F44 
 15100      41542030 
 15100      78303030 
 15101              	.LASF891:
 15102 6db5 53544154 		.ascii	"STATIC static\000"
 15102      49432073 
 15102      74617469 
 15102      6300
 15103              	.LASF1364:
 15104 6dc3 4932435F 		.ascii	"I2C_I2MMCTRL_BITMASK ((0x07))\000"
 15104      49324D4D 
 15104      4354524C 
 15104      5F424954 
 15104      4D41534B 
 15105              	.LASF380:
 15106 6de1 5F5F4154 		.ascii	"__ATFILE_VISIBLE 1\000"
 15106      46494C45 
 15106      5F564953 
 15106      49424C45 
 15106      203100
 15107              	.LASF564:
 15108 6df4 5F474C4F 		.ascii	"_GLOBAL_REENT _global_impure_ptr\000"
 15108      42414C5F 
 15108      5245454E 
 15108      54205F67 
 15108      6C6F6261 
 15109              	.LASF696:
 15110 6e15 5F5F636F 		.ascii	"__compar_fn_t_defined \000"
 15110      6D706172 
 15110      5F666E5F 
 15110      745F6465 
 15110      66696E65 
 15111              	.LASF1418:
ARM GAS  /var/folders/z0/6xlwn_996xz3mwq1cgzkbq4r0000gp/T//cc3rPjEN.s 			page 350


 15112 6e2c 4F445F45 		.ascii	"OD_EXP_RW 0x30\000"
 15112      58505F52 
 15112      57203078 
 15112      333000
 15113              	.LASF462:
 15114 6e3b 5F574348 		.ascii	"_WCHAR_T_DEFINED \000"
 15114      41525F54 
 15114      5F444546 
 15114      494E4544 
 15114      2000
 15115              	.LASF526:
 15116 6e4d 5F4E5F4C 		.ascii	"_N_LISTS 30\000"
 15116      49535453 
 15116      20333000 
 15117              	.LASF821:
 15118 6e59 494E544D 		.ascii	"INTMAX_C(x) __INTMAX_C(x)\000"
 15118      41585F43 
 15118      28782920 
 15118      5F5F494E 
 15118      544D4158 
 15119              	.LASF1094:
 15120 6e73 4D445F50 		.ascii	"MD_PLN (0x0 << 3)\000"
 15120      4C4E2028 
 15120      30783020 
 15120      3C3C2033 
 15120      2900
 15121              	.LASF31:
 15122 6e85 5F5F5054 		.ascii	"__PTRDIFF_TYPE__ int\000"
 15122      52444946 
 15122      465F5459 
 15122      50455F5F 
 15122      20696E74 
 15123              	.LASF309:
 15124 6e9a 5F5F4743 		.ascii	"__GCC_ATOMIC_CHAR16_T_LOCK_FREE 1\000"
 15124      435F4154 
 15124      4F4D4943 
 15124      5F434841 
 15124      5231365F 
 15125              	.LASF923:
 15126 6ebc 5343425F 		.ascii	"SCB_CPUID_ARCHITECTURE_Pos 16\000"
 15126      43505549 
 15126      445F4152 
 15126      43484954 
 15126      45435455 
 15127              	.LASF685:
 15128 6eda 5F5F6775 		.ascii	"__guarded_by(x) __lock_annotate(guarded_by(x))\000"
 15128      61726465 
 15128      645F6279 
 15128      28782920 
 15128      5F5F6C6F 
 15129              	.LASF1062:
 15130 6f09 53595343 		.ascii	"SYSCTL_POWERDOWN_IRCOUT_PD (1 << 0)\000"
 15130      544C5F50 
 15130      4F574552 
 15130      444F574E 
 15130      5F495243 
 15131              	.LASF392:
ARM GAS  /var/folders/z0/6xlwn_996xz3mwq1cgzkbq4r0000gp/T//cc3rPjEN.s 			page 351


 15132 6f2d 5F5F4558 		.ascii	"__EXPORT \000"
 15132      504F5254 
 15132      2000
 15133              	.LASF567:
 15134 6f37 5F5F504D 		.ascii	"__PMT(args) args\000"
 15134      54286172 
 15134      67732920 
 15134      61726773 
 15134      00
 15135              	.LASF1490:
 15136 6f48 7061636B 		.ascii	"pack_voltage_mV\000"
 15136      5F766F6C 
 15136      74616765 
 15136      5F6D5600 
 15137              	.LASF1413:
 15138 6f58 53444F5F 		.ascii	"SDO_ABORT_LOCAL 0x08000021UL\000"
 15138      41424F52 
 15138      545F4C4F 
 15138      43414C20 
 15138      30783038 
 15139              	.LASF429:
 15140 6f75 5F505452 		.ascii	"_PTRDIFF_T_ \000"
 15140      44494646 
 15140      5F545F20 
 15140      00
 15141              	.LASF1124:
 15142 6f82 54494D45 		.ascii	"TIMER_STOP_ON_MATCH(n) (_BIT((((n) * 3) + 2)))\000"
 15142      525F5354 
 15142      4F505F4F 
 15142      4E5F4D41 
 15142      54434828 
 15143              	.LASF893:
 15144 6fb1 554E5553 		.ascii	"UNUSED(x) (void)(x)\000"
 15144      45442878 
 15144      29202876 
 15144      6F696429 
 15144      28782900 
 15145              	.LASF1557:
 15146 6fc5 69646C65 		.ascii	"idle_state\000"
 15146      5F737461 
 15146      746500
 15147              	.LASF1560:
 15148 6fd0 62616C61 		.ascii	"balance_waitingoff\000"
 15148      6E63655F 
 15148      77616974 
 15148      696E676F 
 15148      666600
 15149              	.LASF1120:
 15150 6fe3 54494D45 		.ascii	"TIMER_ENABLE ((uint32_t) (1 << 0))\000"
 15150      525F454E 
 15150      41424C45 
 15150      20282875 
 15150      696E7433 
 15151              	.LASF428:
 15152 7006 5F5F5054 		.ascii	"__PTRDIFF_T \000"
 15152      52444946 
 15152      465F5420 
ARM GAS  /var/folders/z0/6xlwn_996xz3mwq1cgzkbq4r0000gp/T//cc3rPjEN.s 			page 352


 15152      00
 15153              	.LASF854:
 15154 7013 4B45595F 		.ascii	"KEY_DC2 18\000"
 15154      44433220 
 15154      313800
 15155              	.LASF698:
 15156 701e 45584954 		.ascii	"EXIT_SUCCESS 0\000"
 15156      5F535543 
 15156      43455353 
 15156      203000
 15157              	.LASF1236:
 15158 702d 55415254 		.ascii	"UART_FDR_MULVAL(n) ((n << 4) & 0xF0)\000"
 15158      5F464452 
 15158      5F4D554C 
 15158      56414C28 
 15158      6E292028 
 15159              	.LASF257:
 15160 7052 5F5F4C4C 		.ascii	"__LLACCUM_FBIT__ 31\000"
 15160      41434355 
 15160      4D5F4642 
 15160      49545F5F 
 15160      20333100 
 15161              	.LASF982:
 15162 7066 53797354 		.ascii	"SysTick_CALIB_NOREF_Msk (1UL << SysTick_CALIB_NOREF"
 15162      69636B5F 
 15162      43414C49 
 15162      425F4E4F 
 15162      5245465F 
 15163 7099 5F506F73 		.ascii	"_Pos)\000"
 15163      2900
 15164              	.LASF735:
 15165 709f 5F5F4C45 		.ascii	"__LEAST8 \"hh\"\000"
 15165      41535438 
 15165      20226868 
 15165      2200
 15166              	.LASF653:
 15167 70ad 5F5F7374 		.ascii	"__strfmonlike(fmtarg,firstvararg) __attribute__((__"
 15167      72666D6F 
 15167      6E6C696B 
 15167      6528666D 
 15167      74617267 
 15168 70e0 666F726D 		.ascii	"format__ (__strfmon__, fmtarg, firstvararg)))\000"
 15168      61745F5F 
 15168      20285F5F 
 15168      73747266 
 15168      6D6F6E5F 
 15169              	.LASF1262:
 15170 710e 5353505F 		.ascii	"SSP_CR0_CPHA_SECOND ((uint32_t) (1 << 7))\000"
 15170      4352305F 
 15170      43504841 
 15170      5F534543 
 15170      4F4E4420 
 15171              	.LASF277:
 15172 7138 5F5F5551 		.ascii	"__UQQ_FBIT__ 8\000"
 15172      515F4642 
 15172      49545F5F 
 15172      203800
ARM GAS  /var/folders/z0/6xlwn_996xz3mwq1cgzkbq4r0000gp/T//cc3rPjEN.s 			page 353


 15173              	.LASF227:
 15174 7147 5F5F5341 		.ascii	"__SACCUM_FBIT__ 7\000"
 15174      4343554D 
 15174      5F464249 
 15174      545F5F20 
 15174      3700
 15175              	.LASF269:
 15176 7159 5F5F4851 		.ascii	"__HQ_FBIT__ 15\000"
 15176      5F464249 
 15176      545F5F20 
 15176      313500
 15177              	.LASF1218:
 15178 7168 55415254 		.ascii	"UART_RS485CTRL_RX_DIS (1 << 1)\000"
 15178      5F525334 
 15178      38354354 
 15178      524C5F52 
 15178      585F4449 
 15179              	.LASF258:
 15180 7187 5F5F4C4C 		.ascii	"__LLACCUM_IBIT__ 32\000"
 15180      41434355 
 15180      4D5F4942 
 15180      49545F5F 
 15180      20333200 
 15181              	.LASF972:
 15182 719b 53797354 		.ascii	"SysTick_CTRL_CLKSOURCE_Msk (1UL << SysTick_CTRL_CLK"
 15182      69636B5F 
 15182      4354524C 
 15182      5F434C4B 
 15182      534F5552 
 15183 71ce 534F5552 		.ascii	"SOURCE_Pos)\000"
 15183      43455F50 
 15183      6F732900 
 15184              	.LASF1487:
 15185 71da 75696E74 		.ascii	"uint32_t\000"
 15185      33325F74 
 15185      00
 15186              	.LASF414:
 15187 71e3 5F434153 		.ascii	"_CAST_VOID (void)\000"
 15187      545F564F 
 15187      49442028 
 15187      766F6964 
 15187      2900
 15188              	.LASF441:
 15189 71f5 5F5F5349 		.ascii	"__SIZE_T \000"
 15189      5A455F54 
 15189      2000
 15190              	.LASF1438:
 15191 71ff 494E4954 		.ascii	"INIT_WAIT_TIME_MAX 5000\000"
 15191      5F574149 
 15191      545F5449 
 15191      4D455F4D 
 15191      41582035 
 15192              	.LASF1038:
 15193 7217 4C50435F 		.ascii	"LPC_ROM_API (*((LPC_ROM_API_T * *) LPC_ROM_API_BASE"
 15193      524F4D5F 
 15193      41504920 
 15193      282A2828 
ARM GAS  /var/folders/z0/6xlwn_996xz3mwq1cgzkbq4r0000gp/T//cc3rPjEN.s 			page 354


 15193      4C50435F 
 15194 724a 5F4C4F43 		.ascii	"_LOC))\000"
 15194      292900
 15195              	.LASF493:
 15196 7251 5F5F6C6F 		.ascii	"__lock_close_recursive(lock) (_CAST_VOID 0)\000"
 15196      636B5F63 
 15196      6C6F7365 
 15196      5F726563 
 15196      75727369 
 15197              	.LASF153:
 15198 727d 5F5F4C44 		.ascii	"__LDBL_DIG__ 15\000"
 15198      424C5F44 
 15198      49475F5F 
 15198      20313500 
 15199              	.LASF37:
 15200 728d 5F5F4348 		.ascii	"__CHAR32_TYPE__ long unsigned int\000"
 15200      41523332 
 15200      5F545950 
 15200      455F5F20 
 15200      6C6F6E67 
 15201              	.LASF977:
 15202 72af 53797354 		.ascii	"SysTick_LOAD_RELOAD_Pos 0\000"
 15202      69636B5F 
 15202      4C4F4144 
 15202      5F52454C 
 15202      4F41445F 
 15203              	.LASF511:
 15204 72c9 5F5F4C6F 		.ascii	"__Long long\000"
 15204      6E67206C 
 15204      6F6E6700 
 15205              	.LASF312:
 15206 72d5 5F5F4743 		.ascii	"__GCC_ATOMIC_SHORT_LOCK_FREE 1\000"
 15206      435F4154 
 15206      4F4D4943 
 15206      5F53484F 
 15206      52545F4C 
 15207              	.LASF763:
 15208 72f4 494E5450 		.ascii	"INTPTR_MAX (__INTPTR_MAX__)\000"
 15208      54525F4D 
 15208      41582028 
 15208      5F5F494E 
 15208      54505452 
 15209              	.LASF668:
 15210 7310 5F5F4445 		.ascii	"__DEVOLATILE(type,var) ((type)(__uintptr_t)(volatil"
 15210      564F4C41 
 15210      54494C45 
 15210      28747970 
 15210      652C7661 
 15211 7343 6520766F 		.ascii	"e void *)(var))\000"
 15211      6964202A 
 15211      29287661 
 15211      72292900 
 15212              	.LASF473:
 15213 7353 6F666673 		.ascii	"offsetof(TYPE,MEMBER) __builtin_offsetof (TYPE, MEM"
 15213      65746F66 
 15213      28545950 
 15213      452C4D45 
ARM GAS  /var/folders/z0/6xlwn_996xz3mwq1cgzkbq4r0000gp/T//cc3rPjEN.s 			page 355


 15213      4D424552 
 15214 7386 42455229 		.ascii	"BER)\000"
 15214      00
 15215              	.LASF29:
 15216 738b 5F5F5349 		.ascii	"__SIZEOF_POINTER__ 4\000"
 15216      5A454F46 
 15216      5F504F49 
 15216      4E544552 
 15216      5F5F2034 
 15217              	.LASF568:
 15218 73a0 5F5F444F 		.ascii	"__DOTS , ...\000"
 15218      5453202C 
 15218      202E2E2E 
 15218      00
 15219              	.LASF813:
 15220 73ad 494E5438 		.ascii	"INT8_C(x) __INT8_C(x)\000"
 15220      5F432878 
 15220      29205F5F 
 15220      494E5438 
 15220      5F432878 
 15221              	.LASF632:
 15222 73c3 5F5F7075 		.ascii	"__pure __attribute__((__pure__))\000"
 15222      7265205F 
 15222      5F617474 
 15222      72696275 
 15222      74655F5F 
 15223              	.LASF1401:
 15224 73e4 53444F5F 		.ascii	"SDO_ABORT_SDOTIMEOUT 0x05040000UL\000"
 15224      41424F52 
 15224      545F5344 
 15224      4F54494D 
 15224      454F5554 
 15225              	.LASF35:
 15226 7406 5F5F5549 		.ascii	"__UINTMAX_TYPE__ long long unsigned int\000"
 15226      4E544D41 
 15226      585F5459 
 15226      50455F5F 
 15226      206C6F6E 
 15227              	.LASF440:
 15228 742e 5F545F53 		.ascii	"_T_SIZE \000"
 15228      495A4520 
 15228      00
 15229              	.LASF1546:
 15230 7437 63686172 		.ascii	"charger_on\000"
 15230      6765725F 
 15230      6F6E00
 15231              	.LASF912:
 15232 7442 5F5F4650 		.ascii	"__FPU_USED 0\000"
 15232      555F5553 
 15232      45442030 
 15232      00
 15233              	.LASF1651:
 15234 744f 6D795F61 		.ascii	"my_atou\000"
 15234      746F7500 
 15235              	.LASF1157:
 15236 7457 55415254 		.ascii	"UART_IIR_INTID_MODEM (0 << 1)\000"
 15236      5F494952 
ARM GAS  /var/folders/z0/6xlwn_996xz3mwq1cgzkbq4r0000gp/T//cc3rPjEN.s 			page 356


 15236      5F494E54 
 15236      49445F4D 
 15236      4F44454D 
 15237              	.LASF677:
 15238 7475 5F5F7472 		.ascii	"__trylocks_shared(...) __lock_annotate(shared_trylo"
 15238      796C6F63 
 15238      6B735F73 
 15238      68617265 
 15238      64282E2E 
 15239 74a8 636B5F66 		.ascii	"ck_function(__VA_ARGS__))\000"
 15239      756E6374 
 15239      696F6E28 
 15239      5F5F5641 
 15239      5F415247 
 15240              	.LASF548:
 15241 74c2 5F524545 		.ascii	"_REENT_STRTOK_LAST(ptr) ((ptr)->_new._reent._strtok"
 15241      4E545F53 
 15241      5452544F 
 15241      4B5F4C41 
 15241      53542870 
 15242 74f5 5F6C6173 		.ascii	"_last)\000"
 15242      742900
 15243              	.LASF1005:
 15244 74fc 4C50435F 		.ascii	"LPC_DAC_BASE 0x40024000\000"
 15244      4441435F 
 15244      42415345 
 15244      20307834 
 15244      30303234 
 15245              	.LASF1325:
 15246 7514 4932435F 		.ascii	"I2C_CON_I2EN (1UL << 6)\000"
 15246      434F4E5F 
 15246      4932454E 
 15246      20283155 
 15246      4C203C3C 
 15247              	.LASF638:
 15248 752c 5F5F7265 		.ascii	"__result_use_check __attribute__((__warn_unused_res"
 15248      73756C74 
 15248      5F757365 
 15248      5F636865 
 15248      636B205F 
 15249 755f 756C745F 		.ascii	"ult__))\000"
 15249      5F292900 
 15250              	.LASF934:
 15251 7567 5343425F 		.ascii	"SCB_ICSR_PENDSVCLR_Msk (1UL << SCB_ICSR_PENDSVCLR_P"
 15251      49435352 
 15251      5F50454E 
 15251      44535643 
 15251      4C525F4D 
 15252 759a 6F732900 		.ascii	"os)\000"
 15253              	.LASF370:
 15254 759e 5F5F474E 		.ascii	"__GNUC_PREREQ(maj,min) ((__GNUC__ << 16) + __GNUC_M"
 15254      55435F50 
 15254      52455245 
 15254      51286D61 
 15254      6A2C6D69 
 15255 75d1 494E4F52 		.ascii	"INOR__ >= ((maj) << 16) + (min))\000"
 15255      5F5F203E 
ARM GAS  /var/folders/z0/6xlwn_996xz3mwq1cgzkbq4r0000gp/T//cc3rPjEN.s 			page 357


 15255      3D202828 
 15255      6D616A29 
 15255      203C3C20 
 15256              	.LASF1289:
 15257 75f2 4144435F 		.ascii	"ADC_DR_OVERRUN(n) ((((n) >> 30) & (1UL)))\000"
 15257      44525F4F 
 15257      56455252 
 15257      554E286E 
 15257      29202828 
 15258              	.LASF1481:
 15259 761c 6C6F6E67 		.ascii	"long unsigned int\000"
 15259      20756E73 
 15259      69676E65 
 15259      6420696E 
 15259      7400
 15260              	.LASF1646:
 15261 762e 426F6172 		.ascii	"Board_Print_BLOCKING\000"
 15261      645F5072 
 15261      696E745F 
 15261      424C4F43 
 15261      4B494E47 
 15262              	.LASF1138:
 15263 7643 55415254 		.ascii	"UART_IER_THREINT (1 << 1)\000"
 15263      5F494552 
 15263      5F544852 
 15263      45494E54 
 15263      20283120 
 15264              	.LASF13:
 15265 765d 5F5F4649 		.ascii	"__FINITE_MATH_ONLY__ 0\000"
 15265      4E495445 
 15265      5F4D4154 
 15265      485F4F4E 
 15265      4C595F5F 
 15266              	.LASF72:
 15267 7674 5F5F4C4F 		.ascii	"__LONG_LONG_MAX__ 0x7fffffffffffffffLL\000"
 15267      4E475F4C 
 15267      4F4E475F 
 15267      4D41585F 
 15267      5F203078 
 15268              	.LASF1575:
 15269 769b 52574C5F 		.ascii	"RWL_module_cell_count\000"
 15269      6D6F6475 
 15269      6C655F63 
 15269      656C6C5F 
 15269      636F756E 
 15270              	.LASF765:
 15271 76b1 494E5438 		.ascii	"INT8_MIN (-__INT8_MAX__ - 1)\000"
 15271      5F4D494E 
 15271      20282D5F 
 15271      5F494E54 
 15271      385F4D41 
 15272              	.LASF897:
 15273 76ce 5F5F5359 		.ascii	"__SYS_CONFIG_H_ \000"
 15273      535F434F 
 15273      4E464947 
 15273      5F485F20 
 15273      00
ARM GAS  /var/folders/z0/6xlwn_996xz3mwq1cgzkbq4r0000gp/T//cc3rPjEN.s 			page 358


 15274              	.LASF456:
 15275 76df 5F545F57 		.ascii	"_T_WCHAR_ \000"
 15275      43484152 
 15275      5F2000
 15276              	.LASF820:
 15277 76ea 55494E54 		.ascii	"UINT64_C(x) __UINT64_C(x)\000"
 15277      36345F43 
 15277      28782920 
 15277      5F5F5549 
 15277      4E543634 
 15278              	.LASF1245:
 15279 7704 55415254 		.ascii	"UART_SYNCCTRL_STARTSTOPDISABLE (1 << 5)\000"
 15279      5F53594E 
 15279      43435452 
 15279      4C5F5354 
 15279      41525453 
 15280              	.LASF209:
 15281 772c 5F5F4C46 		.ascii	"__LFRACT_MIN__ (-0.5LR-0.5LR)\000"
 15281      52414354 
 15281      5F4D494E 
 15281      5F5F2028 
 15281      2D302E35 
 15282              	.LASF361:
 15283 774a 5F484156 		.ascii	"_HAVE_CC_INHIBIT_LOOP_TO_LIBCALL 1\000"
 15283      455F4343 
 15283      5F494E48 
 15283      49424954 
 15283      5F4C4F4F 
 15284              	.LASF962:
 15285 776d 5343425F 		.ascii	"SCB_SCR_SLEEPONEXIT_Msk (1UL << SCB_SCR_SLEEPONEXIT"
 15285      5343525F 
 15285      534C4545 
 15285      504F4E45 
 15285      5849545F 
 15286 77a0 5F506F73 		.ascii	"_Pos)\000"
 15286      2900
 15287              	.LASF104:
 15288 77a6 5F5F5549 		.ascii	"__UINT16_C(c) c\000"
 15288      4E543136 
 15288      5F432863 
 15288      29206300 
 15289              	.LASF988:
 15290 77b6 53797354 		.ascii	"SysTick_BASE (SCS_BASE + 0x0010UL)\000"
 15290      69636B5F 
 15290      42415345 
 15290      20285343 
 15290      535F4241 
 15291              	.LASF664:
 15292 77d9 5F5F5243 		.ascii	"__RCSID_SOURCE(s) struct __hack\000"
 15292      5349445F 
 15292      534F5552 
 15292      43452873 
 15292      29207374 
 15293              	.LASF1155:
 15294 77f9 55415254 		.ascii	"UART_IIR_INTID_CTI (6 << 1)\000"
 15294      5F494952 
 15294      5F494E54 
ARM GAS  /var/folders/z0/6xlwn_996xz3mwq1cgzkbq4r0000gp/T//cc3rPjEN.s 			page 359


 15294      49445F43 
 15294      54492028 
 15295              	.LASF875:
 15296 7815 53545255 		.ascii	"STRUCTS_H \000"
 15296      4354535F 
 15296      482000
 15297              	.LASF1091:
 15298 7820 494F434F 		.ascii	"IOCON_FASTI2C_EN (0x2 << 8)\000"
 15298      4E5F4641 
 15298      53544932 
 15298      435F454E 
 15298      20283078 
 15299              	.LASF832:
 15300 783c 5F555345 		.ascii	"_USE_ESC_SEQ\000"
 15300      5F455343 
 15300      5F534551 
 15300      00
 15301              	.LASF383:
 15302 7849 5F5F4953 		.ascii	"__ISO_C_VISIBLE 1999\000"
 15302      4F5F435F 
 15302      56495349 
 15302      424C4520 
 15302      31393939 
 15303              	.LASF1351:
 15304 785e 4932435F 		.ascii	"I2C_I2STAT_S_RX_PRE_GENCALL_DAT_NACK ((0x98))\000"
 15304      49325354 
 15304      41545F53 
 15304      5F52585F 
 15304      5052455F 
 15305              	.LASF315:
 15306 788c 5F5F4743 		.ascii	"__GCC_ATOMIC_LLONG_LOCK_FREE 1\000"
 15306      435F4154 
 15306      4F4D4943 
 15306      5F4C4C4F 
 15306      4E475F4C 
 15307              	.LASF566:
 15308 78ab 5F535953 		.ascii	"_SYS_CDEFS_H_ \000"
 15308      5F434445 
 15308      46535F48 
 15308      5F2000
 15309              	.LASF884:
 15310 78ba 5F424954 		.ascii	"_BIT\000"
 15310      00
 15311              	.LASF216:
 15312 78bf 5F5F554C 		.ascii	"__ULFRACT_EPSILON__ 0x1P-32ULR\000"
 15312      46524143 
 15312      545F4550 
 15312      53494C4F 
 15312      4E5F5F20 
 15313              	.LASF1343:
 15314 78de 4932435F 		.ascii	"I2C_I2STAT_M_RX_DAT_NACK ((0x58))\000"
 15314      49325354 
 15314      41545F4D 
 15314      5F52585F 
 15314      4441545F 
 15315              	.LASF1597:
 15316 7900 76616C69 		.ascii	"valid_mode_request\000"
ARM GAS  /var/folders/z0/6xlwn_996xz3mwq1cgzkbq4r0000gp/T//cc3rPjEN.s 			page 360


 15316      645F6D6F 
 15316      64655F72 
 15316      65717565 
 15316      737400
 15317              	.LASF1346:
 15318 7913 4932435F 		.ascii	"I2C_I2STAT_S_RX_GENCALL_ACK ((0x70))\000"
 15318      49325354 
 15318      41545F53 
 15318      5F52585F 
 15318      47454E43 
 15319              	.LASF992:
 15320 7938 53797354 		.ascii	"SysTick ((SysTick_Type *) SysTick_BASE )\000"
 15320      69636B20 
 15320      28285379 
 15320      73546963 
 15320      6B5F5479 
 15321              	.LASF922:
 15322 7961 5343425F 		.ascii	"SCB_CPUID_VARIANT_Msk (0xFUL << SCB_CPUID_VARIANT_P"
 15322      43505549 
 15322      445F5641 
 15322      5249414E 
 15322      545F4D73 
 15323 7994 6F732900 		.ascii	"os)\000"
 15324              	.LASF714:
 15325 7998 63686172 		.ascii	"char\000"
 15325      00
 15326              	.LASF388:
 15327 799d 5F5F5853 		.ascii	"__XSI_VISIBLE 0\000"
 15327      495F5649 
 15327      5349424C 
 15327      45203000 
 15328              	.LASF850:
 15329 79ad 4B45595F 		.ascii	"KEY_SO 14\000"
 15329      534F2031 
 15329      3400
 15330              	.LASF344:
 15331 79b7 44454255 		.ascii	"DEBUG_ENABLE 1\000"
 15331      475F454E 
 15331      41424C45 
 15331      203100
 15332              	.LASF349:
 15333 79c6 5F5F4E45 		.ascii	"__NEWLIB_H__ 1\000"
 15333      574C4942 
 15333      5F485F5F 
 15333      203100
 15334              	.LASF797:
 15335 79d5 55494E54 		.ascii	"UINT_FAST32_MAX (__UINT_FAST32_MAX__)\000"
 15335      5F464153 
 15335      5433325F 
 15335      4D415820 
 15335      285F5F55 
 15336              	.LASF1562:
 15337 79fb 435F4745 		.ascii	"C_GET\000"
 15337      5400
 15338              	.LASF1305:
 15339 7a01 5F5F4932 		.ascii	"__I2C_11XX_H_ \000"
 15339      435F3131 
ARM GAS  /var/folders/z0/6xlwn_996xz3mwq1cgzkbq4r0000gp/T//cc3rPjEN.s 			page 361


 15339      58585F48 
 15339      5F2000
 15340              	.LASF1448:
 15341 7a10 4D593138 		.ascii	"MY18_BALANCE_ON_THRESHOLD_mV 4\000"
 15341      5F42414C 
 15341      414E4345 
 15341      5F4F4E5F 
 15341      54485245 
 15342              	.LASF699:
 15343 7a2f 52414E44 		.ascii	"RAND_MAX __RAND_MAX\000"
 15343      5F4D4158 
 15343      205F5F52 
 15343      414E445F 
 15343      4D415800 
 15344              	.LASF262:
 15345 7a43 5F5F554C 		.ascii	"__ULLACCUM_FBIT__ 32\000"
 15345      4C414343 
 15345      554D5F46 
 15345      4249545F 
 15345      5F203332 
 15346              	.LASF1048:
 15347 7a58 53595343 		.ascii	"SYSCTL_RST_WDT (1 << 2)\000"
 15347      544C5F52 
 15347      53545F57 
 15347      44542028 
 15347      31203C3C 
 15348              	.LASF1160:
 15349 7a70 55415254 		.ascii	"UART_FCR_TX_RS (1 << 2)\000"
 15349      5F464352 
 15349      5F54585F 
 15349      52532028 
 15349      31203C3C 
 15350              	.LASF1337:
 15351 7a88 4932435F 		.ascii	"I2C_I2STAT_M_RX_START ((0x08))\000"
 15351      49325354 
 15351      41545F4D 
 15351      5F52585F 
 15351      53544152 
 15352              	.LASF1598:
 15353 7aa7 636F6E66 		.ascii	"config_default\000"
 15353      69675F64 
 15353      65666175 
 15353      6C7400
 15354              	.LASF165:
 15355 7ab6 5F5F4C44 		.ascii	"__LDBL_HAS_QUIET_NAN__ 1\000"
 15355      424C5F48 
 15355      41535F51 
 15355      55494554 
 15355      5F4E414E 
 15356              	.LASF1385:
 15357 7acf 5F5F4343 		.ascii	"__CCAND_11XX_H_ \000"
 15357      414E445F 
 15357      31315858 
 15357      5F485F20 
 15357      00
 15358              	.LASF464:
 15359 7ae0 5F5F5F69 		.ascii	"___int_wchar_t_h \000"
ARM GAS  /var/folders/z0/6xlwn_996xz3mwq1cgzkbq4r0000gp/T//cc3rPjEN.s 			page 362


 15359      6E745F77 
 15359      63686172 
 15359      5F745F68 
 15359      2000
 15360              	.LASF648:
 15361 7af2 5F5F7261 		.ascii	"__rangeof(type,start,end) (__offsetof(type, end) - "
 15361      6E67656F 
 15361      66287479 
 15361      70652C73 
 15361      74617274 
 15362 7b25 5F5F6F66 		.ascii	"__offsetof(type, start))\000"
 15362      66736574 
 15362      6F662874 
 15362      7970652C 
 15362      20737461 
 15363              	.LASF1065:
 15364 7b3e 53595343 		.ascii	"SYSCTL_POWERDOWN_BOD_PD (1 << 3)\000"
 15364      544C5F50 
 15364      4F574552 
 15364      444F574E 
 15364      5F424F44 
 15365              	.LASF73:
 15366 7b5f 5F5F5743 		.ascii	"__WCHAR_MAX__ 0xffffffffU\000"
 15366      4841525F 
 15366      4D41585F 
 15366      5F203078 
 15366      66666666 
 15367              	.LASF1171:
 15368 7b79 55415254 		.ascii	"UART_LCR_WLEN7 (2 << 0)\000"
 15368      5F4C4352 
 15368      5F574C45 
 15368      4E372028 
 15368      32203C3C 
 15369              	.LASF608:
 15370 7b91 5F5F434F 		.ascii	"__CONCAT1(x,y) x ## y\000"
 15370      4E434154 
 15370      3128782C 
 15370      79292078 
 15370      20232320 
 15371              	.LASF1211:
 15372 7ba7 55415254 		.ascii	"UART_ACR_START (1 << 0)\000"
 15372      5F414352 
 15372      5F535441 
 15372      52542028 
 15372      31203C3C 
 15373              	.LASF377:
 15374 7bbf 5F504F53 		.ascii	"_POSIX_C_SOURCE 200809L\000"
 15374      49585F43 
 15374      5F534F55 
 15374      52434520 
 15374      32303038 
 15375              	.LASF1068:
 15376 7bd7 53595343 		.ascii	"SYSCTL_POWERDOWN_WDTOSC_PD (1 << 6)\000"
 15376      544C5F50 
 15376      4F574552 
 15376      444F574E 
 15376      5F574454 
ARM GAS  /var/folders/z0/6xlwn_996xz3mwq1cgzkbq4r0000gp/T//cc3rPjEN.s 			page 363


 15377              	.LASF1518:
 15378 7bfb 4353425F 		.ascii	"CSB_CHARGE_DONE\000"
 15378      43484152 
 15378      47455F44 
 15378      4F4E4500 
 15379              	.LASF263:
 15380 7c0b 5F5F554C 		.ascii	"__ULLACCUM_IBIT__ 32\000"
 15380      4C414343 
 15380      554D5F49 
 15380      4249545F 
 15380      5F203332 
 15381              	.LASF1271:
 15382 7c20 5353505F 		.ascii	"SSP_CPSR_BITMASK ((uint32_t) (0xFF))\000"
 15382      43505352 
 15382      5F424954 
 15382      4D41534B 
 15382      20282875 
 15383              	.LASF1135:
 15384 7c45 55415254 		.ascii	"UART_LOAD_DLM(div) (((div) >> 8) & 0xFF)\000"
 15384      5F4C4F41 
 15384      445F444C 
 15384      4D286469 
 15384      76292028 
 15385              	.LASF152:
 15386 7c6e 5F5F4C44 		.ascii	"__LDBL_MANT_DIG__ 53\000"
 15386      424C5F4D 
 15386      414E545F 
 15386      4449475F 
 15386      5F203533 
 15387              	.LASF222:
 15388 7c83 5F5F554C 		.ascii	"__ULLFRACT_FBIT__ 64\000"
 15388      4C465241 
 15388      43545F46 
 15388      4249545F 
 15388      5F203634 
 15389              	.LASF1194:
 15390 7c98 55415254 		.ascii	"UART_LSR_FE (1 << 3)\000"
 15390      5F4C5352 
 15390      5F464520 
 15390      2831203C 
 15390      3C203329 
 15391              	.LASF411:
 15392 7cad 5F455846 		.ascii	"_EXFNPTR(name,proto) (* name) proto\000"
 15392      4E505452 
 15392      286E616D 
 15392      652C7072 
 15392      6F746F29 
 15393              	.LASF1018:
 15394 7cd1 4C50435F 		.ascii	"LPC_GPIO_PORT3_BASE 0x50030000\000"
 15394      4750494F 
 15394      5F504F52 
 15394      54335F42 
 15394      41534520 
 15395              	.LASF1344:
 15396 7cf0 4932435F 		.ascii	"I2C_I2STAT_S_RX_SLAW_ACK ((0x60))\000"
 15396      49325354 
 15396      41545F53 
ARM GAS  /var/folders/z0/6xlwn_996xz3mwq1cgzkbq4r0000gp/T//cc3rPjEN.s 			page 364


 15396      5F52585F 
 15396      534C4157 
 15397              	.LASF1531:
 15398 7d12 4353425F 		.ascii	"CSB_INPUT\000"
 15398      494E5055 
 15398      5400
 15399              	.LASF776:
 15400 7d1c 55494E54 		.ascii	"UINT_LEAST16_MAX (__UINT_LEAST16_MAX__)\000"
 15400      5F4C4541 
 15400      53543136 
 15400      5F4D4158 
 15400      20285F5F 
 15401              	.LASF445:
 15402 7d44 5F53495A 		.ascii	"_SIZE_T_DEFINED \000"
 15402      455F545F 
 15402      44454649 
 15402      4E454420 
 15402      00
 15403              	.LASF766:
 15404 7d55 494E5438 		.ascii	"INT8_MAX (__INT8_MAX__)\000"
 15404      5F4D4158 
 15404      20285F5F 
 15404      494E5438 
 15404      5F4D4158 
 15405              	.LASF888:
 15406 7d6d 5F424954 		.ascii	"_BITMASK\000"
 15406      4D41534B 
 15406      00
 15407              	.LASF358:
 15408 7d76 48415645 		.ascii	"HAVE_INITFINI_ARRAY 1\000"
 15408      5F494E49 
 15408      5446494E 
 15408      495F4152 
 15408      52415920 
 15409              	.LASF278:
 15410 7d8c 5F5F5551 		.ascii	"__UQQ_IBIT__ 0\000"
 15410      515F4942 
 15410      49545F5F 
 15410      203000
 15411              	.LASF478:
 15412 7d9b 5F5F5F69 		.ascii	"___int8_t_defined 1\000"
 15412      6E74385F 
 15412      745F6465 
 15412      66696E65 
 15412      64203100 
 15413              	.LASF1034:
 15414 7daf 4C50435F 		.ascii	"LPC_SSP1 ((LPC_SSP_T *) LPC_SSP1_BASE)\000"
 15414      53535031 
 15414      2028284C 
 15414      50435F53 
 15414      53505F54 
 15415              	.LASF734:
 15416 7dd6 5F5F4641 		.ascii	"__FAST64 \"ll\"\000"
 15416      53543634 
 15416      20226C6C 
 15416      2200
 15417              	.LASF857:
ARM GAS  /var/folders/z0/6xlwn_996xz3mwq1cgzkbq4r0000gp/T//cc3rPjEN.s 			page 365


 15418 7de4 4B45595F 		.ascii	"KEY_NAK 21\000"
 15418      4E414B20 
 15418      323100
 15419              	.LASF628:
 15420 7def 5F4E6F72 		.ascii	"_Noreturn __dead2\000"
 15420      65747572 
 15420      6E205F5F 
 15420      64656164 
 15420      3200
 15421              	.LASF833:
 15422 7e01 5F454E41 		.ascii	"_ENABLE_INIT_PROMPT \000"
 15422      424C455F 
 15422      494E4954 
 15422      5F50524F 
 15422      4D505420 
 15423              	.LASF924:
 15424 7e16 5343425F 		.ascii	"SCB_CPUID_ARCHITECTURE_Msk (0xFUL << SCB_CPUID_ARCH"
 15424      43505549 
 15424      445F4152 
 15424      43484954 
 15424      45435455 
 15425 7e49 49544543 		.ascii	"ITECTURE_Pos)\000"
 15425      54555245 
 15425      5F506F73 
 15425      2900
 15426              	.LASF707:
 15427 7e57 5F5F626F 		.ascii	"__bool_true_false_are_defined 1\000"
 15427      6F6C5F74 
 15427      7275655F 
 15427      66616C73 
 15427      655F6172 
 15428              	.LASF997:
 15429 7e77 4C50435F 		.ascii	"LPC_I2C_BASE 0x40000000\000"
 15429      4932435F 
 15429      42415345 
 15429      20307834 
 15429      30303030 
 15430              	.LASF1506:
 15431 7e8f 5041434B 		.ascii	"PACK_CONFIG_T\000"
 15431      5F434F4E 
 15431      4649475F 
 15431      5400
 15432              	.LASF1332:
 15433 7e9d 4932435F 		.ascii	"I2C_I2STAT_M_TX_SLAW_ACK ((0x18))\000"
 15433      49325354 
 15433      41545F4D 
 15433      5F54585F 
 15433      534C4157 
 15434              	.LASF1047:
 15435 7ebf 53595343 		.ascii	"SYSCTL_RST_EXTRST (1 << 1)\000"
 15435      544C5F52 
 15435      53545F45 
 15435      58545253 
 15435      54202831 
 15436              	.LASF381:
 15437 7eda 5F5F4253 		.ascii	"__BSD_VISIBLE 1\000"
 15437      445F5649 
ARM GAS  /var/folders/z0/6xlwn_996xz3mwq1cgzkbq4r0000gp/T//cc3rPjEN.s 			page 366


 15437      5349424C 
 15437      45203100 
 15438              	.LASF688:
 15439 7eea 5F5F6E65 		.ascii	"__need_NULL \000"
 15439      65645F4E 
 15439      554C4C20 
 15439      00
 15440              	.LASF1023:
 15441 7ef7 4C50435F 		.ascii	"LPC_USART ((LPC_USART_T *) LPC_USART_BASE)\000"
 15441      55534152 
 15441      54202828 
 15441      4C50435F 
 15441      55534152 
 15442              	.LASF1352:
 15443 7f22 4932435F 		.ascii	"I2C_I2STAT_S_RX_STA_STO_SLVREC_SLVTRX ((0xA0))\000"
 15443      49325354 
 15443      41545F53 
 15443      5F52585F 
 15443      5354415F 
 15444              	.LASF768:
 15445 7f51 494E545F 		.ascii	"INT_LEAST8_MIN (-__INT_LEAST8_MAX__ - 1)\000"
 15445      4C454153 
 15445      54385F4D 
 15445      494E2028 
 15445      2D5F5F49 
 15446              	.LASF1232:
 15447 7f7a 55415254 		.ascii	"UART_SCICTRL_PROTSEL_T1 (1 << 2)\000"
 15447      5F534349 
 15447      4354524C 
 15447      5F50524F 
 15447      5453454C 
 15448              	.LASF752:
 15449 7f9b 5F494E54 		.ascii	"_INTPTR_T_DECLARED \000"
 15449      5054525F 
 15449      545F4445 
 15449      434C4152 
 15449      45442000 
 15450              	.LASF956:
 15451 7faf 5343425F 		.ascii	"SCB_AIRCR_VECTCLRACTIVE_Msk (1UL << SCB_AIRCR_VECTC"
 15451      41495243 
 15451      525F5645 
 15451      4354434C 
 15451      52414354 
 15452 7fe2 4C524143 		.ascii	"LRACTIVE_Pos)\000"
 15452      54495645 
 15452      5F506F73 
 15452      2900
 15453              	.LASF1090:
 15454 7ff0 494F434F 		.ascii	"IOCON_STDI2C_EN (0x1 << 8)\000"
 15454      4E5F5354 
 15454      44493243 
 15454      5F454E20 
 15454      28307831 
 15455              	.LASF105:
 15456 800b 5F5F5549 		.ascii	"__UINT_LEAST32_MAX__ 0xffffffffUL\000"
 15456      4E545F4C 
 15456      45415354 
ARM GAS  /var/folders/z0/6xlwn_996xz3mwq1cgzkbq4r0000gp/T//cc3rPjEN.s 			page 367


 15456      33325F4D 
 15456      41585F5F 
 15457              	.LASF726:
 15458 802d 5F494E54 		.ascii	"_INT32_EQ_LONG \000"
 15458      33325F45 
 15458      515F4C4F 
 15458      4E472000 
 15459              	.LASF239:
 15460 803d 5F5F4143 		.ascii	"__ACCUM_MIN__ (-0X1P15K-0X1P15K)\000"
 15460      43554D5F 
 15460      4D494E5F 
 15460      5F20282D 
 15460      30583150 
 15461              	.LASF196:
 15462 805e 5F5F5553 		.ascii	"__USFRACT_EPSILON__ 0x1P-8UHR\000"
 15462      46524143 
 15462      545F4550 
 15462      53494C4F 
 15462      4E5F5F20 
 15463              	.LASF725:
 15464 807c 5F494E54 		.ascii	"_INTPTR_EQ_INT \000"
 15464      5054525F 
 15464      45515F49 
 15464      4E542000 
 15465              	.LASF969:
 15466 808c 53797354 		.ascii	"SysTick_CTRL_COUNTFLAG_Pos 16\000"
 15466      69636B5F 
 15466      4354524C 
 15466      5F434F55 
 15466      4E54464C 
 15467              	.LASF25:
 15468 80aa 5F5F4F52 		.ascii	"__ORDER_BIG_ENDIAN__ 4321\000"
 15468      4445525F 
 15468      4249475F 
 15468      454E4449 
 15468      414E5F5F 
 15469              	.LASF1558:
 15470 80c4 63757272 		.ascii	"curr_baud_rate\000"
 15470      5F626175 
 15470      645F7261 
 15470      746500
 15471              	.LASF205:
 15472 80d3 5F5F5546 		.ascii	"__UFRACT_MAX__ 0XFFFFP-16UR\000"
 15472      52414354 
 15472      5F4D4158 
 15472      5F5F2030 
 15472      58464646 
 15473              	.LASF1639:
 15474 80ef 73747263 		.ascii	"strcmp\000"
 15474      6D7000
 15475              	.LASF788:
 15476 80f6 55494E54 		.ascii	"UINT_LEAST64_MAX (__UINT_LEAST64_MAX__)\000"
 15476      5F4C4541 
 15476      53543634 
 15476      5F4D4158 
 15476      20285F5F 
 15477              	.LASF476:
ARM GAS  /var/folders/z0/6xlwn_996xz3mwq1cgzkbq4r0000gp/T//cc3rPjEN.s 			page 368


 15478 811e 5F4D4143 		.ascii	"_MACHINE__DEFAULT_TYPES_H \000"
 15478      48494E45 
 15478      5F5F4445 
 15478      4641554C 
 15478      545F5459 
 15479              	.LASF61:
 15480 8139 5F5F5549 		.ascii	"__UINT_FAST32_TYPE__ unsigned int\000"
 15480      4E545F46 
 15480      41535433 
 15480      325F5459 
 15480      50455F5F 
 15481              	.LASF84:
 15482 815b 5F5F5349 		.ascii	"__SIG_ATOMIC_MIN__ (-__SIG_ATOMIC_MAX__ - 1)\000"
 15482      475F4154 
 15482      4F4D4943 
 15482      5F4D494E 
 15482      5F5F2028 
 15483              	.LASF1469:
 15484 8188 55415254 		.ascii	"UART_BUFFER_SIZE 100\000"
 15484      5F425546 
 15484      4645525F 
 15484      53495A45 
 15484      20313030 
 15485              	.LASF705:
 15486 819d 74727565 		.ascii	"true 1\000"
 15486      203100
 15487              	.LASF973:
 15488 81a4 53797354 		.ascii	"SysTick_CTRL_TICKINT_Pos 1\000"
 15488      69636B5F 
 15488      4354524C 
 15488      5F544943 
 15488      4B494E54 
 15489              	.LASF779:
 15490 81bf 55494E54 		.ascii	"UINT32_MAX (__UINT32_MAX__)\000"
 15490      33325F4D 
 15490      41582028 
 15490      5F5F5549 
 15490      4E543332 
 15491              	.LASF1535:
 15492 81db 6D735469 		.ascii	"msTicks\000"
 15492      636B7300 
 15493              	.LASF617:
 15494 81e3 5F5F7075 		.ascii	"__pure2 __attribute__((__const__))\000"
 15494      72653220 
 15494      5F5F6174 
 15494      74726962 
 15494      7574655F 
 15495              	.LASF1645:
 15496 8206 426F6172 		.ascii	"Board_Print\000"
 15496      645F5072 
 15496      696E7400 
 15497              	.LASF469:
 15498 8212 5F5F6E65 		.ascii	"__need_wchar_t\000"
 15498      65645F77 
 15498      63686172 
 15498      5F7400
 15499              	.LASF130:
ARM GAS  /var/folders/z0/6xlwn_996xz3mwq1cgzkbq4r0000gp/T//cc3rPjEN.s 			page 369


 15500 8221 5F5F464C 		.ascii	"__FLT_DECIMAL_DIG__ 9\000"
 15500      545F4445 
 15500      43494D41 
 15500      4C5F4449 
 15500      475F5F20 
 15501              	.LASF957:
 15502 8237 5343425F 		.ascii	"SCB_SCR_SEVONPEND_Pos 4\000"
 15502      5343525F 
 15502      5345564F 
 15502      4E50454E 
 15502      445F506F 
 15503              	.LASF41:
 15504 824f 5F5F494E 		.ascii	"__INT32_TYPE__ long int\000"
 15504      5433325F 
 15504      54595045 
 15504      5F5F206C 
 15504      6F6E6720 
 15505              	.LASF427:
 15506 8267 5F545F50 		.ascii	"_T_PTRDIFF \000"
 15506      54524449 
 15506      46462000 
 15507              	.LASF670:
 15508 8273 5F5F6172 		.ascii	"__arg_type_tag(arg_kind,arg_idx,type_tag_idx) \000"
 15508      675F7479 
 15508      70655F74 
 15508      61672861 
 15508      72675F6B 
 15509              	.LASF1384:
 15510 82a2 4932435F 		.ascii	"I2C_MONITOR_CFG_MATCHALL I2C_I2MMCTRL_MATCH_ALL\000"
 15510      4D4F4E49 
 15510      544F525F 
 15510      4346475F 
 15510      4D415443 
 15511              	.LASF233:
 15512 82d2 5F5F5553 		.ascii	"__USACCUM_IBIT__ 8\000"
 15512      41434355 
 15512      4D5F4942 
 15512      49545F5F 
 15512      203800
 15513              	.LASF1242:
 15514 82e5 55415254 		.ascii	"UART_SYNCCTRL_FES (1 << 2)\000"
 15514      5F53594E 
 15514      43435452 
 15514      4C5F4645 
 15514      53202831 
 15515              	.LASF979:
 15516 8300 53797354 		.ascii	"SysTick_VAL_CURRENT_Pos 0\000"
 15516      69636B5F 
 15516      56414C5F 
 15516      43555252 
 15516      454E545F 
 15517              	.LASF219:
 15518 831a 5F5F4C4C 		.ascii	"__LLFRACT_MIN__ (-0.5LLR-0.5LLR)\000"
 15518      46524143 
 15518      545F4D49 
 15518      4E5F5F20 
 15518      282D302E 
ARM GAS  /var/folders/z0/6xlwn_996xz3mwq1cgzkbq4r0000gp/T//cc3rPjEN.s 			page 370


 15519              	.LASF394:
 15520 833b 5F524541 		.ascii	"_READ_WRITE_RETURN_TYPE int\000"
 15520      445F5752 
 15520      4954455F 
 15520      52455455 
 15520      524E5F54 
 15521              	.LASF214:
 15522 8357 5F5F554C 		.ascii	"__ULFRACT_MIN__ 0.0ULR\000"
 15522      46524143 
 15522      545F4D49 
 15522      4E5F5F20 
 15522      302E3055 
 15523              	.LASF1042:
 15524 836e 504D555F 		.ascii	"PMU_PCON_SLEEPFLAG (1 << 8)\000"
 15524      50434F4E 
 15524      5F534C45 
 15524      4550464C 
 15524      41472028 
 15525              	.LASF432:
 15526 838a 5F474343 		.ascii	"_GCC_PTRDIFF_T \000"
 15526      5F505452 
 15526      44494646 
 15526      5F542000 
 15527              	.LASF1399:
 15528 839a 43414E5F 		.ascii	"CAN_MSGOBJ_RTR 0x40000000UL\000"
 15528      4D53474F 
 15528      424A5F52 
 15528      54522030 
 15528      78343030 
 15529              	.LASF910:
 15530 83b6 5F5F494E 		.ascii	"__INLINE inline\000"
 15530      4C494E45 
 15530      20696E6C 
 15530      696E6500 
 15531              	.LASF966:
 15532 83c6 5343425F 		.ascii	"SCB_CCR_UNALIGN_TRP_Msk (1UL << SCB_CCR_UNALIGN_TRP"
 15532      4343525F 
 15532      554E414C 
 15532      49474E5F 
 15532      5452505F 
 15533 83f9 5F506F73 		.ascii	"_Pos)\000"
 15533      2900
 15534              	.LASF64:
 15535 83ff 5F5F5549 		.ascii	"__UINTPTR_TYPE__ unsigned int\000"
 15535      4E545054 
 15535      525F5459 
 15535      50455F5F 
 15535      20756E73 
 15536              	.LASF1463:
 15537 841d 4D593136 		.ascii	"MY16_CV_MIN_CURRENT_mA 100\000"
 15537      5F43565F 
 15537      4D494E5F 
 15537      43555252 
 15537      454E545F 
 15538              	.LASF1299:
 15539 8438 4144435F 		.ascii	"ADC_CR_START_ADCTRIG0 ((4UL << 24))\000"
 15539      43525F53 
ARM GAS  /var/folders/z0/6xlwn_996xz3mwq1cgzkbq4r0000gp/T//cc3rPjEN.s 			page 371


 15539      54415254 
 15539      5F414443 
 15539      54524947 
 15540              	.LASF1030:
 15541 845c 4C50435F 		.ascii	"LPC_FMC ((LPC_FMC_T *) LPC_FLASH_BASE)\000"
 15541      464D4320 
 15541      28284C50 
 15541      435F464D 
 15541      435F5420 
 15542              	.LASF1131:
 15543 8483 52425F56 		.ascii	"RB_VTAIL(rb) ((volatile uint32_t)(rb->tail))\000"
 15543      5441494C 
 15543      28726229 
 15543      20282876 
 15543      6F6C6174 
 15544              	.LASF1334:
 15545 84b0 4932435F 		.ascii	"I2C_I2STAT_M_TX_DAT_ACK ((0x28))\000"
 15545      49325354 
 15545      41545F4D 
 15545      5F54585F 
 15545      4441545F 
 15546              	.LASF1016:
 15547 84d1 4C50435F 		.ascii	"LPC_GPIO_PORT1_BASE 0x50010000\000"
 15547      4750494F 
 15547      5F504F52 
 15547      54315F42 
 15547      41534520 
 15548              	.LASF1286:
 15549 84f0 4144435F 		.ascii	"ADC_DR_RESULT(n) ((((n) >> 6) & 0x3FF))\000"
 15549      44525F52 
 15549      4553554C 
 15549      54286E29 
 15549      20282828 
 15550              	.LASF882:
 15551 8518 50415241 		.ascii	"PARAM_SETSTATE(State) ((State == RESET) || (State ="
 15551      4D5F5345 
 15551      54535441 
 15551      54452853 
 15551      74617465 
 15552 854b 3D205345 		.ascii	"= SET))\000"
 15552      54292900 
 15553              	.LASF1162:
 15554 8553 55415254 		.ascii	"UART_FCR_BITMASK (0xCF)\000"
 15554      5F464352 
 15554      5F424954 
 15554      4D41534B 
 15554      20283078 
 15555              	.LASF1354:
 15556 856b 4932435F 		.ascii	"I2C_I2STAT_S_TX_ARB_LOST_M_SLA ((0xB0))\000"
 15556      49325354 
 15556      41545F53 
 15556      5F54585F 
 15556      4152425F 
 15557              	.LASF1564:
 15558 8593 435F4845 		.ascii	"C_HELP\000"
 15558      4C5000
 15559              	.LASF807:
ARM GAS  /var/folders/z0/6xlwn_996xz3mwq1cgzkbq4r0000gp/T//cc3rPjEN.s 			page 372


 15560 859a 50545244 		.ascii	"PTRDIFF_MAX (__PTRDIFF_MAX__)\000"
 15560      4946465F 
 15560      4D415820 
 15560      285F5F50 
 15560      54524449 
 15561              	.LASF65:
 15562 85b8 5F5F6861 		.ascii	"__has_include(STR) __has_include__(STR)\000"
 15562      735F696E 
 15562      636C7564 
 15562      65285354 
 15562      5229205F 
 15563              	.LASF757:
 15564 85e0 5F5F696E 		.ascii	"__int_least64_t_defined 1\000"
 15564      745F6C65 
 15564      61737436 
 15564      345F745F 
 15564      64656669 
 15565              	.LASF1222:
 15566 85fa 55415254 		.ascii	"UART_RS485CTRL_OINV_1 (1 << 5)\000"
 15566      5F525334 
 15566      38354354 
 15566      524C5F4F 
 15566      494E565F 
 15567              	.LASF1043:
 15568 8619 504D555F 		.ascii	"PMU_PCON_DPDFLAG (1 << 11)\000"
 15568      50434F4E 
 15568      5F445044 
 15568      464C4147 
 15568      20283120 
 15569              	.LASF958:
 15570 8634 5343425F 		.ascii	"SCB_SCR_SEVONPEND_Msk (1UL << SCB_SCR_SEVONPEND_Pos"
 15570      5343525F 
 15570      5345564F 
 15570      4E50454E 
 15570      445F4D73 
 15571 8667 2900     		.ascii	")\000"
 15572              	.LASF410:
 15573 8669 5F455850 		.ascii	"_EXPARM(name,proto) (* name) proto\000"
 15573      41524D28 
 15573      6E616D65 
 15573      2C70726F 
 15573      746F2920 
 15574              	.LASF1268:
 15575 868c 5353505F 		.ascii	"SSP_CR1_MASTER_EN ((uint32_t) (0))\000"
 15575      4352315F 
 15575      4D415354 
 15575      45525F45 
 15575      4E202828 
 15576              	.LASF323:
 15577 86af 5F5F4152 		.ascii	"__ARM_SIZEOF_MINIMAL_ENUM 1\000"
 15577      4D5F5349 
 15577      5A454F46 
 15577      5F4D494E 
 15577      494D414C 
 15578              	.LASF100:
 15579 86cb 5F5F494E 		.ascii	"__INT64_C(c) c ## LL\000"
 15579      5436345F 
ARM GAS  /var/folders/z0/6xlwn_996xz3mwq1cgzkbq4r0000gp/T//cc3rPjEN.s 			page 373


 15579      43286329 
 15579      20632023 
 15579      23204C4C 
 15580              	.LASF221:
 15581 86e0 5F5F4C4C 		.ascii	"__LLFRACT_EPSILON__ 0x1P-63LLR\000"
 15581      46524143 
 15581      545F4550 
 15581      53494C4F 
 15581      4E5F5F20 
 15582              	.LASF728:
 15583 86ff 5F5F494E 		.ascii	"__INT16 \"h\"\000"
 15583      54313620 
 15583      22682200 
 15584              	.LASF1156:
 15585 870b 55415254 		.ascii	"UART_IIR_INTID_THRE (1 << 1)\000"
 15585      5F494952 
 15585      5F494E54 
 15585      49445F54 
 15585      48524520 
 15586              	.LASF710:
 15587 8728 5F5F5354 		.ascii	"__STDINT_EXP(x) __ ##x ##__\000"
 15587      44494E54 
 15587      5F455850 
 15587      28782920 
 15587      5F5F2023 
 15588              	.LASF1221:
 15589 8744 55415254 		.ascii	"UART_RS485CTRL_DCTRL_EN (1 << 4)\000"
 15589      5F525334 
 15589      38354354 
 15589      524C5F44 
 15589      4354524C 
 15590              	.LASF291:
 15591 8765 5F5F4441 		.ascii	"__DA_FBIT__ 31\000"
 15591      5F464249 
 15591      545F5F20 
 15591      333100
 15592              	.LASF1036:
 15593 8774 4C50435F 		.ascii	"LPC_USB ((LPC_USB_T *) LPC_USB0_BASE)\000"
 15593      55534220 
 15593      28284C50 
 15593      435F5553 
 15593      425F5420 
 15594              	.LASF1571:
 15595 879a 52574C5F 		.ascii	"RWL_cell_min_mV\000"
 15595      63656C6C 
 15595      5F6D696E 
 15595      5F6D5600 
 15596              	.LASF823:
 15597 87aa 5F474343 		.ascii	"_GCC_WRAP_STDINT_H \000"
 15597      5F575241 
 15597      505F5354 
 15597      44494E54 
 15597      5F482000 
 15598              	.LASF739:
 15599 87be 5F535953 		.ascii	"_SYS__STDINT_H \000"
 15599      5F5F5354 
 15599      44494E54 
ARM GAS  /var/folders/z0/6xlwn_996xz3mwq1cgzkbq4r0000gp/T//cc3rPjEN.s 			page 374


 15599      5F482000 
 15600              	.LASF611:
 15601 87ce 5F5F5853 		.ascii	"__XSTRING(x) __STRING(x)\000"
 15601      5452494E 
 15601      47287829 
 15601      205F5F53 
 15601      5452494E 
 15602              	.LASF1200:
 15603 87e7 55415254 		.ascii	"UART_LSR_BITMASK (0xFF)\000"
 15603      5F4C5352 
 15603      5F424954 
 15603      4D41534B 
 15603      20283078 
 15604              	.LASF665:
 15605 87ff 5F5F5343 		.ascii	"__SCCSID(s) struct __hack\000"
 15605      43534944 
 15605      28732920 
 15605      73747275 
 15605      6374205F 
 15606              	.LASF1580:
 15607 8819 52574C5F 		.ascii	"RWL_cv_min_current_mA\000"
 15607      63765F6D 
 15607      696E5F63 
 15607      75727265 
 15607      6E745F6D 
 15608              	.LASF307:
 15609 882f 5F5F4743 		.ascii	"__GCC_ATOMIC_BOOL_LOCK_FREE 1\000"
 15609      435F4154 
 15609      4F4D4943 
 15609      5F424F4F 
 15609      4C5F4C4F 
 15610              	.LASF1648:
 15611 884d 7372632F 		.ascii	"src/console.c\000"
 15611      636F6E73 
 15611      6F6C652E 
 15611      6300
 15612              	.LASF177:
 15613 885b 5F5F4445 		.ascii	"__DEC64_MAX__ 9.999999999999999E384DD\000"
 15613      4336345F 
 15613      4D41585F 
 15613      5F20392E 
 15613      39393939 
 15614              	.LASF111:
 15615 8881 5F5F494E 		.ascii	"__INT_FAST32_MAX__ 0x7fffffff\000"
 15615      545F4641 
 15615      53543332 
 15615      5F4D4158 
 15615      5F5F2030 
 15616              	.LASF129:
 15617 889f 5F5F464C 		.ascii	"__FLT_MAX_10_EXP__ 38\000"
 15617      545F4D41 
 15617      585F3130 
 15617      5F455850 
 15617      5F5F2033 
 15618              	.LASF1409:
 15619 88b5 53444F5F 		.ascii	"SDO_ABORT_TYPEMISMATCH 0x06070010UL\000"
 15619      41424F52 
ARM GAS  /var/folders/z0/6xlwn_996xz3mwq1cgzkbq4r0000gp/T//cc3rPjEN.s 			page 375


 15619      545F5459 
 15619      50454D49 
 15619      534D4154 
 15620              	.LASF743:
 15621 88d9 5F494E54 		.ascii	"_INT16_T_DECLARED \000"
 15621      31365F54 
 15621      5F444543 
 15621      4C415245 
 15621      442000
 15622              	.LASF562:
 15623 88ec 5F5F4154 		.ascii	"__ATTRIBUTE_IMPURE_PTR__ \000"
 15623      54524942 
 15623      5554455F 
 15623      494D5055 
 15623      52455F50 
 15624              	.LASF1179:
 15625 8906 55415254 		.ascii	"UART_LCR_PARITY_EVEN (1 << 4)\000"
 15625      5F4C4352 
 15625      5F504152 
 15625      4954595F 
 15625      4556454E 
 15626              	.LASF275:
 15627 8924 5F5F5451 		.ascii	"__TQ_FBIT__ 127\000"
 15627      5F464249 
 15627      545F5F20 
 15627      31323700 
 15628              	.LASF334:
 15629 8934 5F5F5646 		.ascii	"__VFP_FP__ 1\000"
 15629      505F4650 
 15629      5F5F2031 
 15629      00
 15630              	.LASF864:
 15631 8941 4B45595F 		.ascii	"KEY_FS 28\000"
 15631      46532032 
 15631      3800
 15632              	.LASF724:
 15633 894b 6C6F6E67 		.ascii	"long +4\000"
 15633      202B3400 
 15634              	.LASF708:
 15635 8953 5F535444 		.ascii	"_STDINT_H \000"
 15635      494E545F 
 15635      482000
 15636              	.LASF534:
 15637 895e 5F524545 		.ascii	"_REENT_CHECK_MISC(ptr) \000"
 15637      4E545F43 
 15637      4845434B 
 15637      5F4D4953 
 15637      43287074 
 15638              	.LASF355:
 15639 8976 5F57414E 		.ascii	"_WANT_IO_LONG_LONG 1\000"
 15639      545F494F 
 15639      5F4C4F4E 
 15639      475F4C4F 
 15639      4E472031 
 15640              	.LASF1223:
 15641 898b 55415254 		.ascii	"UART_RS485CTRL_BITMASK (0x3F)\000"
 15641      5F525334 
ARM GAS  /var/folders/z0/6xlwn_996xz3mwq1cgzkbq4r0000gp/T//cc3rPjEN.s 			page 376


 15641      38354354 
 15641      524C5F42 
 15641      49544D41 
 15642              	.LASF804:
 15643 89a9 53495A45 		.ascii	"SIZE_MAX (__SIZE_MAX__)\000"
 15643      5F4D4158 
 15643      20285F5F 
 15643      53495A45 
 15643      5F4D4158 
 15644              	.LASF343:
 15645 89c1 434F5245 		.ascii	"CORE_M0 1\000"
 15645      5F4D3020 
 15645      3100
 15646              	.LASF1207:
 15647 89cb 55415254 		.ascii	"UART_MSR_DSR (1 << 5)\000"
 15647      5F4D5352 
 15647      5F445352 
 15647      20283120 
 15647      3C3C2035 
 15648              	.LASF1544:
 15649 89e1 62616C61 		.ascii	"balance_req\000"
 15649      6E63655F 
 15649      72657100 
 15650              	.LASF903:
 15651 89ed 5F5F5665 		.ascii	"__Vendor_SysTickConfig 0\000"
 15651      6E646F72 
 15651      5F537973 
 15651      5469636B 
 15651      436F6E66 
 15652              	.LASF651:
 15653 8a06 5F5F7363 		.ascii	"__scanflike(fmtarg,firstvararg) __attribute__((__fo"
 15653      616E666C 
 15653      696B6528 
 15653      666D7461 
 15653      72672C66 
 15654 8a39 726D6174 		.ascii	"rmat__ (__scanf__, fmtarg, firstvararg)))\000"
 15654      5F5F2028 
 15654      5F5F7363 
 15654      616E665F 
 15654      5F2C2066 
 15655              	.LASF1498:
 15656 8a63 63656C6C 		.ascii	"cell_charge_c_rating_cC\000"
 15656      5F636861 
 15656      7267655F 
 15656      635F7261 
 15656      74696E67 
 15657              	.LASF1277:
 15658 8a7b 5353505F 		.ascii	"SSP_CPOL_HI SSP_CR0_CPOL_LO\000"
 15658      43504F4C 
 15658      5F484920 
 15658      5353505F 
 15658      4352305F 
 15659              	.LASF83:
 15660 8a97 5F5F5349 		.ascii	"__SIG_ATOMIC_MAX__ 0x7fffffff\000"
 15660      475F4154 
 15660      4F4D4943 
 15660      5F4D4158 
ARM GAS  /var/folders/z0/6xlwn_996xz3mwq1cgzkbq4r0000gp/T//cc3rPjEN.s 			page 377


 15660      5F5F2030 
 15661              	.LASF324:
 15662 8ab5 5F5F4152 		.ascii	"__ARM_SIZEOF_WCHAR_T 4\000"
 15662      4D5F5349 
 15662      5A454F46 
 15662      5F574348 
 15662      41525F54 
 15663              	.LASF1037:
 15664 8acc 4C50435F 		.ascii	"LPC_GPIO ((LPC_GPIO_T *) LPC_GPIO_PORT0_BASE)\000"
 15664      4750494F 
 15664      2028284C 
 15664      50435F47 
 15664      50494F5F 
 15665              	.LASF1619:
 15666 8afa 61726763 		.ascii	"argc\000"
 15666      00
 15667              	.LASF19:
 15668 8aff 5F5F5349 		.ascii	"__SIZEOF_DOUBLE__ 8\000"
 15668      5A454F46 
 15668      5F444F55 
 15668      424C455F 
 15668      5F203800 
 15669              	.LASF115:
 15670 8b13 5F5F5549 		.ascii	"__UINT_FAST32_MAX__ 0xffffffffU\000"
 15670      4E545F46 
 15670      41535433 
 15670      325F4D41 
 15670      585F5F20 
 15671              	.LASF156:
 15672 8b33 5F5F4C44 		.ascii	"__LDBL_MAX_EXP__ 1024\000"
 15672      424C5F4D 
 15672      41585F45 
 15672      58505F5F 
 15672      20313032 
 15673              	.LASF245:
 15674 8b49 5F5F5541 		.ascii	"__UACCUM_MAX__ 0XFFFFFFFFP-16UK\000"
 15674      4343554D 
 15674      5F4D4158 
 15674      5F5F2030 
 15674      58464646 
 15675              	.LASF1443:
 15676 8b69 4D593138 		.ascii	"MY18_CELL_MIN_mV 2500\000"
 15676      5F43454C 
 15676      4C5F4D49 
 15676      4E5F6D56 
 15676      20323530 
 15677              	.LASF1605:
 15678 8b7f 61726776 		.ascii	"argv\000"
 15678      00
 15679              	.LASF460:
 15680 8b84 5F425344 		.ascii	"_BSD_WCHAR_T_ \000"
 15680      5F574348 
 15680      41525F54 
 15680      5F2000
 15681              	.LASF382:
 15682 8b93 5F5F474E 		.ascii	"__GNU_VISIBLE 0\000"
 15682      555F5649 
ARM GAS  /var/folders/z0/6xlwn_996xz3mwq1cgzkbq4r0000gp/T//cc3rPjEN.s 			page 378


 15682      5349424C 
 15682      45203000 
 15683              	.LASF522:
 15684 8ba3 5F52414E 		.ascii	"_RAND48_ADD (0x000b)\000"
 15684      4434385F 
 15684      41444420 
 15684      28307830 
 15684      30306229 
 15685              	.LASF1532:
 15686 8bb8 7061636B 		.ascii	"pack_status\000"
 15686      5F737461 
 15686      74757300 
 15687              	.LASF516:
 15688 8bc4 5F52414E 		.ascii	"_RAND48_SEED_0 (0x330e)\000"
 15688      4434385F 
 15688      53454544 
 15688      5F302028 
 15688      30783333 
 15689              	.LASF1304:
 15690 8bdc 5F5F4750 		.ascii	"__GPIO_11XX_2_H_ \000"
 15690      494F5F31 
 15690      3158585F 
 15690      325F485F 
 15690      2000
 15691              	.LASF1098:
 15692 8bee 4D445F48 		.ascii	"MD_HYS (0x1 << 5)\000"
 15692      59532028 
 15692      30783120 
 15692      3C3C2035 
 15692      2900
 15693              	.LASF851:
 15694 8c00 4B45595F 		.ascii	"KEY_SI 15\000"
 15694      53492031 
 15694      3500
 15695              	.LASF1478:
 15696 8c0a 5F5F696E 		.ascii	"__int32_t\000"
 15696      7433325F 
 15696      7400
 15697              	.LASF1393:
 15698 8c14 43414E5F 		.ascii	"CAN_ERROR_BIT1 0x00000040UL\000"
 15698      4552524F 
 15698      525F4249 
 15698      54312030 
 15698      78303030 
 15699              	.LASF930:
 15700 8c30 5343425F 		.ascii	"SCB_ICSR_NMIPENDSET_Msk (1UL << SCB_ICSR_NMIPENDSET"
 15700      49435352 
 15700      5F4E4D49 
 15700      50454E44 
 15700      5345545F 
 15701 8c63 5F506F73 		.ascii	"_Pos)\000"
 15701      2900
 15702              	.LASF79:
 15703 8c69 5F5F494E 		.ascii	"__INTMAX_MAX__ 0x7fffffffffffffffLL\000"
 15703      544D4158 
 15703      5F4D4158 
 15703      5F5F2030 
ARM GAS  /var/folders/z0/6xlwn_996xz3mwq1cgzkbq4r0000gp/T//cc3rPjEN.s 			page 379


 15703      78376666 
 15704              	.LASF682:
 15705 8c8d 5F5F7265 		.ascii	"__requires_shared(...) __lock_annotate(shared_locks"
 15705      71756972 
 15705      65735F73 
 15705      68617265 
 15705      64282E2E 
 15706 8cc0 5F726571 		.ascii	"_required(__VA_ARGS__))\000"
 15706      75697265 
 15706      64285F5F 
 15706      56415F41 
 15706      5247535F 
 15707              	.LASF1636:
 15708 8cd8 6C617374 		.ascii	"lastPackCurrentPrintTime\000"
 15708      5061636B 
 15708      43757272 
 15708      656E7450 
 15708      72696E74 
 15709              	.LASF1468:
 15710 8cf1 42414C41 		.ascii	"BALANCE_OFF_WAITING_THRESH_MS 188000\000"
 15710      4E43455F 
 15710      4F46465F 
 15710      57414954 
 15710      494E475F 
 15711              	.LASF594:
 15712 8d16 5F5F474E 		.ascii	"__GNUCLIKE_BUILTIN_VAALIST 1\000"
 15712      55434C49 
 15712      4B455F42 
 15712      55494C54 
 15712      494E5F56 
 15713              	.LASF1323:
 15714 8d33 4932435F 		.ascii	"I2C_CON_STO (1UL << 4)\000"
 15714      434F4E5F 
 15714      53544F20 
 15714      2831554C 
 15714      203C3C20 
 15715              	.LASF544:
 15716 8d4a 5F524545 		.ascii	"_REENT_MP_FREELIST(ptr) ((ptr)->_freelist)\000"
 15716      4E545F4D 
 15716      505F4652 
 15716      45454C49 
 15716      53542870 
 15717              	.LASF12:
 15718 8d75 5F5F4F50 		.ascii	"__OPTIMIZE__ 1\000"
 15718      54494D49 
 15718      5A455F5F 
 15718      203100
 15719              	.LASF300:
 15720 8d84 5F5F5544 		.ascii	"__UDA_IBIT__ 32\000"
 15720      415F4942 
 15720      49545F5F 
 15720      20333200 
 15721              	.LASF613:
 15722 8d94 5F5F7369 		.ascii	"__signed signed\000"
 15722      676E6564 
 15722      20736967 
 15722      6E656400 
ARM GAS  /var/folders/z0/6xlwn_996xz3mwq1cgzkbq4r0000gp/T//cc3rPjEN.s 			page 380


 15723              	.LASF1158:
 15724 8da4 55415254 		.ascii	"UART_FCR_FIFO_EN (1 << 0)\000"
 15724      5F464352 
 15724      5F464946 
 15724      4F5F454E 
 15724      20283120 
 15725              	.LASF1121:
 15726 8dbe 54494D45 		.ascii	"TIMER_RESET ((uint32_t) (1 << 1))\000"
 15726      525F5245 
 15726      53455420 
 15726      28287569 
 15726      6E743332 
 15727              	.LASF967:
 15728 8de0 5343425F 		.ascii	"SCB_SHCSR_SVCALLPENDED_Pos 15\000"
 15728      53484353 
 15728      525F5356 
 15728      43414C4C 
 15728      50454E44 
 15729              	.LASF369:
 15730 8dfe 5F535953 		.ascii	"_SYS_FEATURES_H \000"
 15730      5F464541 
 15730      54555245 
 15730      535F4820 
 15730      00
 15731              	.LASF1009:
 15732 8e0f 4C50435F 		.ascii	"LPC_SSP0_BASE 0x40040000\000"
 15732      53535030 
 15732      5F424153 
 15732      45203078 
 15732      34303034 
 15733              	.LASF1302:
 15734 8e28 4144435F 		.ascii	"ADC_CR_EDGE ((1UL << 27))\000"
 15734      43525F45 
 15734      44474520 
 15734      28283155 
 15734      4C203C3C 
 15735              	.LASF326:
 15736 8e42 5F5F6172 		.ascii	"__arm__ 1\000"
 15736      6D5F5F20 
 15736      3100
 15737              	.LASF1080:
 15738 8e4c 494F434F 		.ascii	"IOCON_FUNC7 0x7\000"
 15738      4E5F4655 
 15738      4E433720 
 15738      30783700 
 15739              	.LASF1027:
 15740 8e5c 4C50435F 		.ascii	"LPC_TIMER32_1 ((LPC_TIMER_T *) LPC_TIMER32_1_BASE)\000"
 15740      54494D45 
 15740      5233325F 
 15740      31202828 
 15740      4C50435F 
 15741              	.LASF1512:
 15742 8e8f 4353425F 		.ascii	"CSB_CHARGE_OFF\000"
 15742      43484152 
 15742      47455F4F 
 15742      464600
 15743              	.LASF1579:
ARM GAS  /var/folders/z0/6xlwn_996xz3mwq1cgzkbq4r0000gp/T//cc3rPjEN.s 			page 381


 15744 8e9e 52574C5F 		.ascii	"RWL_pack_cells_p\000"
 15744      7061636B 
 15744      5F63656C 
 15744      6C735F70 
 15744      00
 15745              	.LASF1567:
 15746 8eaf 435F4348 		.ascii	"C_CHRG\000"
 15746      524700
 15747              	.LASF1455:
 15748 8eb6 4D593136 		.ascii	"MY16_CELL_MIN_mV 2500\000"
 15748      5F43454C 
 15748      4C5F4D49 
 15748      4E5F6D56 
 15748      20323530 
 15749              	.LASF691:
 15750 8ecc 5F5F6E65 		.ascii	"__need_wchar_t \000"
 15750      65645F77 
 15750      63686172 
 15750      5F742000 
 15751              	.LASF500:
 15752 8edc 5F5F7369 		.ascii	"__size_t\000"
 15752      7A655F74 
 15752      00
 15753              	.LASF800:
 15754 8ee5 55494E54 		.ascii	"UINT_FAST64_MAX (__UINT_FAST64_MAX__)\000"
 15754      5F464153 
 15754      5436345F 
 15754      4D415820 
 15754      285F5F55 
 15755              	.LASF996:
 15756 8f0b 5F49505F 		.ascii	"_IP_IDX(IRQn) ( ((uint32_t)(IRQn) >> 2) )\000"
 15756      49445828 
 15756      4952516E 
 15756      29202820 
 15756      28287569 
 15757              	.LASF623:
 15758 8f35 5F5F616C 		.ascii	"__alloc_size(x) __attribute__((__alloc_size__(x)))\000"
 15758      6C6F635F 
 15758      73697A65 
 15758      28782920 
 15758      5F5F6174 
 15759              	.LASF1525:
 15760 8f68 4353425F 		.ascii	"CSB_INIT_DONE\000"
 15760      494E4954 
 15760      5F444F4E 
 15760      4500
 15761              	.LASF624:
 15762 8f76 5F5F616C 		.ascii	"__alloc_align(x) __attribute__((__alloc_align__(x))"
 15762      6C6F635F 
 15762      616C6967 
 15762      6E287829 
 15762      205F5F61 
 15763 8fa9 2900     		.ascii	")\000"
 15764              	.LASF980:
 15765 8fab 53797354 		.ascii	"SysTick_VAL_CURRENT_Msk (0xFFFFFFUL << SysTick_VAL_"
 15765      69636B5F 
 15765      56414C5F 
ARM GAS  /var/folders/z0/6xlwn_996xz3mwq1cgzkbq4r0000gp/T//cc3rPjEN.s 			page 382


 15765      43555252 
 15765      454E545F 
 15766 8fde 43555252 		.ascii	"CURRENT_Pos)\000"
 15766      454E545F 
 15766      506F7329 
 15766      00
 15767              	.LASF1166:
 15768 8feb 55415254 		.ascii	"UART_FCR_TRG_LEV2 (2 << 6)\000"
 15768      5F464352 
 15768      5F545247 
 15768      5F4C4556 
 15768      32202832 
 15769              	.LASF363:
 15770 9006 5F465657 		.ascii	"_FVWRITE_IN_STREAMIO 1\000"
 15770      52495445 
 15770      5F494E5F 
 15770      53545245 
 15770      414D494F 
 15771              	.LASF450:
 15772 901d 5F53495A 		.ascii	"_SIZET_ \000"
 15772      45545F20 
 15772      00
 15773              	.LASF39:
 15774 9026 5F5F494E 		.ascii	"__INT8_TYPE__ signed char\000"
 15774      54385F54 
 15774      5950455F 
 15774      5F207369 
 15774      676E6564 
 15775              	.LASF936:
 15776 9040 5343425F 		.ascii	"SCB_ICSR_PENDSTSET_Msk (1UL << SCB_ICSR_PENDSTSET_P"
 15776      49435352 
 15776      5F50454E 
 15776      44535453 
 15776      45545F4D 
 15777 9073 6F732900 		.ascii	"os)\000"
 15778              	.LASF993:
 15779 9077 4E564943 		.ascii	"NVIC ((NVIC_Type *) NVIC_BASE )\000"
 15779      2028284E 
 15779      5649435F 
 15779      54797065 
 15779      202A2920 
 15780              	.LASF1227:
 15781 9097 55415254 		.ascii	"UART_ICR_PULSEDIV(n) ((n & 0x07) << 3)\000"
 15781      5F494352 
 15781      5F50554C 
 15781      53454449 
 15781      56286E29 
 15782              	.LASF646:
 15783 90be 5F5F6869 		.ascii	"__hidden __attribute__((__visibility__(\"hidden\"))"
 15783      6464656E 
 15783      205F5F61 
 15783      74747269 
 15783      62757465 
 15784 90ef 2900     		.ascii	")\000"
 15785              	.LASF1101:
 15786 90f1 4D445F44 		.ascii	"MD_DIGMODE (0x1 << 7)\000"
 15786      49474D4F 
ARM GAS  /var/folders/z0/6xlwn_996xz3mwq1cgzkbq4r0000gp/T//cc3rPjEN.s 			page 383


 15786      44452028 
 15786      30783120 
 15786      3C3C2037 
 15787              	.LASF1340:
 15788 9107 4932435F 		.ascii	"I2C_I2STAT_M_RX_SLAR_ACK ((0x40))\000"
 15788      49325354 
 15788      41545F4D 
 15788      5F52585F 
 15788      534C4152 
 15789              	.LASF423:
 15790 9129 5F535444 		.ascii	"_STDDEF_H_ \000"
 15790      4445465F 
 15790      485F2000 
 15791              	.LASF379:
 15792 9135 5F415446 		.ascii	"_ATFILE_SOURCE 1\000"
 15792      494C455F 
 15792      534F5552 
 15792      43452031 
 15792      00
 15793              	.LASF390:
 15794 9146 5F5F5241 		.ascii	"__RAND_MAX\000"
 15794      4E445F4D 
 15794      415800
 15795              	.LASF371:
 15796 9151 5F5F474E 		.ascii	"__GNUC_PREREQ__(ma,mi) __GNUC_PREREQ(ma, mi)\000"
 15796      55435F50 
 15796      52455245 
 15796      515F5F28 
 15796      6D612C6D 
 15797              	.LASF240:
 15798 917e 5F5F4143 		.ascii	"__ACCUM_MAX__ 0X7FFFFFFFP-15K\000"
 15798      43554D5F 
 15798      4D41585F 
 15798      5F203058 
 15798      37464646 
 15799              	.LASF337:
 15800 919c 5F5F4152 		.ascii	"__ARM_PCS 1\000"
 15800      4D5F5043 
 15800      53203100 
 15801              	.LASF57:
 15802 91a8 5F5F494E 		.ascii	"__INT_FAST32_TYPE__ int\000"
 15802      545F4641 
 15802      53543332 
 15802      5F545950 
 15802      455F5F20 
 15803              	.LASF491:
 15804 91c0 5F5F6C6F 		.ascii	"__lock_init_recursive(lock) (_CAST_VOID 0)\000"
 15804      636B5F69 
 15804      6E69745F 
 15804      72656375 
 15804      72736976 
 15805              	.LASF762:
 15806 91eb 494E5450 		.ascii	"INTPTR_MIN (-__INTPTR_MAX__ - 1)\000"
 15806      54525F4D 
 15806      494E2028 
 15806      2D5F5F49 
 15806      4E545054 
ARM GAS  /var/folders/z0/6xlwn_996xz3mwq1cgzkbq4r0000gp/T//cc3rPjEN.s 			page 384


 15807              	.LASF974:
 15808 920c 53797354 		.ascii	"SysTick_CTRL_TICKINT_Msk (1UL << SysTick_CTRL_TICKI"
 15808      69636B5F 
 15808      4354524C 
 15808      5F544943 
 15808      4B494E54 
 15809 923f 4E545F50 		.ascii	"NT_Pos)\000"
 15809      6F732900 
 15810              	.LASF255:
 15811 9247 5F5F554C 		.ascii	"__ULACCUM_MAX__ 0XFFFFFFFFFFFFFFFFP-32ULK\000"
 15811      41434355 
 15811      4D5F4D41 
 15811      585F5F20 
 15811      30584646 
 15812              	.LASF1635:
 15813 9271 636F6E66 		.ascii	"config_locstring\000"
 15813      69675F6C 
 15813      6F637374 
 15813      72696E67 
 15813      00
 15814              	.LASF929:
 15815 9282 5343425F 		.ascii	"SCB_ICSR_NMIPENDSET_Pos 31\000"
 15815      49435352 
 15815      5F4E4D49 
 15815      50454E44 
 15815      5345545F 
 15816              	.LASF367:
 15817 929d 5F5F5359 		.ascii	"__SYS_CONFIG_H__ \000"
 15817      535F434F 
 15817      4E464947 
 15817      5F485F5F 
 15817      2000
 15818              	.LASF399:
 15819 92af 5F4E4F54 		.ascii	"_NOTHROW \000"
 15819      48524F57 
 15819      2000
 15820              	.LASF602:
 15821 92b9 5F5F4343 		.ascii	"__CC_SUPPORTS___INLINE__ 1\000"
 15821      5F535550 
 15821      504F5254 
 15821      535F5F5F 
 15821      494E4C49 
 15822              	.LASF1024:
 15823 92d4 4C50435F 		.ascii	"LPC_TIMER16_0 ((LPC_TIMER_T *) LPC_TIMER16_0_BASE)\000"
 15823      54494D45 
 15823      5231365F 
 15823      30202828 
 15823      4C50435F 
 15824              	.LASF1082:
 15825 9307 494F434F 		.ascii	"IOCON_MODE_PULLDOWN (0x1 << 3)\000"
 15825      4E5F4D4F 
 15825      44455F50 
 15825      554C4C44 
 15825      4F574E20 
 15826              	.LASF899:
 15827 9326 5F5F434D 		.ascii	"__CMSIS_H_ \000"
 15827      5349535F 
ARM GAS  /var/folders/z0/6xlwn_996xz3mwq1cgzkbq4r0000gp/T//cc3rPjEN.s 			page 385


 15827      485F2000 
 15828              	.LASF1402:
 15829 9332 53444F5F 		.ascii	"SDO_ABORT_UNKNOWN_COMMAND 0x05040001UL\000"
 15829      41424F52 
 15829      545F554E 
 15829      4B4E4F57 
 15829      4E5F434F 
 15830              	.LASF761:
 15831 9359 5F5F696E 		.ascii	"__int_fast64_t_defined 1\000"
 15831      745F6661 
 15831      73743634 
 15831      5F745F64 
 15831      6566696E 
 15832              	.LASF1471:
 15833 9372 5F504143 		.ascii	"_PACK_CONFIG_H \000"
 15833      4B5F434F 
 15833      4E464947 
 15833      5F482000 
 15834              	.LASF1133:
 15835 9382 55415254 		.ascii	"UART_LOAD_DLL(div) ((div) & 0xFF)\000"
 15835      5F4C4F41 
 15835      445F444C 
 15835      4C286469 
 15835      76292028 
 15836              	.LASF1217:
 15837 93a4 55415254 		.ascii	"UART_RS485CTRL_NMM_EN (1 << 0)\000"
 15837      5F525334 
 15837      38354354 
 15837      524C5F4E 
 15837      4D4D5F45 
 15838              	.LASF350:
 15839 93c3 5F4E4557 		.ascii	"_NEWLIB_VERSION_H__ 1\000"
 15839      4C49425F 
 15839      56455253 
 15839      494F4E5F 
 15839      485F5F20 
 15840              	.LASF1116:
 15841 93d9 5F5F5449 		.ascii	"__TIMER_11XX_H_ \000"
 15841      4D45525F 
 15841      31315858 
 15841      5F485F20 
 15841      00
 15842              	.LASF514:
 15843 93ea 5F524545 		.ascii	"_REENT_INIT_ATEXIT _NULL, _ATEXIT_INIT,\000"
 15843      4E545F49 
 15843      4E49545F 
 15843      41544558 
 15843      4954205F 
 15844              	.LASF525:
 15845 9412 5F524545 		.ascii	"_REENT_SIGNAL_SIZE 24\000"
 15845      4E545F53 
 15845      49474E41 
 15845      4C5F5349 
 15845      5A452032 
 15846              	.LASF305:
 15847 9428 5F5F474E 		.ascii	"__GNUC_GNU_INLINE__ 1\000"
 15847      55435F47 
ARM GAS  /var/folders/z0/6xlwn_996xz3mwq1cgzkbq4r0000gp/T//cc3rPjEN.s 			page 386


 15847      4E555F49 
 15847      4E4C494E 
 15847      455F5F20 
 15848              	.LASF1643:
 15849 943e 4D593136 		.ascii	"MY16_Pack_Config\000"
 15849      5F506163 
 15849      6B5F436F 
 15849      6E666967 
 15849      00
 15850              	.LASF430:
 15851 944f 5F425344 		.ascii	"_BSD_PTRDIFF_T_ \000"
 15851      5F505452 
 15851      44494646 
 15851      5F545F20 
 15851      00
 15852              	.LASF458:
 15853 9460 5F5F5743 		.ascii	"__WCHAR_T \000"
 15853      4841525F 
 15853      542000
 15854              	.LASF1612:
 15855 946b 726F6C6F 		.ascii	"roloc\000"
 15855      6300
 15856              	.LASF603:
 15857 9471 5F5F4343 		.ascii	"__CC_SUPPORTS___FUNC__ 1\000"
 15857      5F535550 
 15857      504F5254 
 15857      535F5F5F 
 15857      46554E43 
 15858              	.LASF1561:
 15859 948a 4353425F 		.ascii	"CSB_STATE_T\000"
 15859      53544154 
 15859      455F5400 
 15860              	.LASF376:
 15861 9496 5F504F53 		.ascii	"_POSIX_C_SOURCE\000"
 15861      49585F43 
 15861      5F534F55 
 15861      52434500 
 15862              	.LASF1353:
 15863 94a6 4932435F 		.ascii	"I2C_I2STAT_S_TX_SLAR_ACK ((0xA8))\000"
 15863      49325354 
 15863      41545F53 
 15863      5F54585F 
 15863      534C4152 
 15864              	.LASF1616:
 15865 94c8 636F6E5F 		.ascii	"con_output\000"
 15865      6F757470 
 15865      757400
 15866              	.LASF1250:
 15867 94d3 57574454 		.ascii	"WWDT_WDMOD_WDRESET ((uint32_t) (1 << 1))\000"
 15867      5F57444D 
 15867      4F445F57 
 15867      44524553 
 15867      45542028 
 15868              	.LASF176:
 15869 94fc 5F5F4445 		.ascii	"__DEC64_MIN__ 1E-383DD\000"
 15869      4336345F 
 15869      4D494E5F 
ARM GAS  /var/folders/z0/6xlwn_996xz3mwq1cgzkbq4r0000gp/T//cc3rPjEN.s 			page 387


 15869      5F203145 
 15869      2D333833 
 15870              	.LASF96:
 15871 9513 5F5F494E 		.ascii	"__INT16_C(c) c\000"
 15871      5431365F 
 15871      43286329 
 15871      206300
 15872              	.LASF805:
 15873 9522 5349475F 		.ascii	"SIG_ATOMIC_MIN (-__STDINT_EXP(INT_MAX) - 1)\000"
 15873      41544F4D 
 15873      49435F4D 
 15873      494E2028 
 15873      2D5F5F53 
 15874              	.LASF1324:
 15875 954e 4932435F 		.ascii	"I2C_CON_STA (1UL << 5)\000"
 15875      434F4E5F 
 15875      53544120 
 15875      2831554C 
 15875      203C3C20 
 15876              	.LASF543:
 15877 9565 5F524545 		.ascii	"_REENT_MP_P5S(ptr) ((ptr)->_p5s)\000"
 15877      4E545F4D 
 15877      505F5035 
 15877      53287074 
 15877      72292028 
 15878              	.LASF575:
 15879 9586 5F5F6174 		.ascii	"__attribute_format_strfmon__(a,b) \000"
 15879      74726962 
 15879      7574655F 
 15879      666F726D 
 15879      61745F73 
 15880              	.LASF289:
 15881 95a9 5F5F5341 		.ascii	"__SA_FBIT__ 15\000"
 15881      5F464249 
 15881      545F5F20 
 15881      313500
 15882              	.LASF953:
 15883 95b8 5343425F 		.ascii	"SCB_AIRCR_SYSRESETREQ_Pos 2\000"
 15883      41495243 
 15883      525F5359 
 15883      53524553 
 15883      45545245 
 15884              	.LASF1483:
 15885 95d4 6C6F6E67 		.ascii	"long long unsigned int\000"
 15885      206C6F6E 
 15885      6720756E 
 15885      7369676E 
 15885      65642069 
 15886              	.LASF17:
 15887 95eb 5F5F5349 		.ascii	"__SIZEOF_SHORT__ 2\000"
 15887      5A454F46 
 15887      5F53484F 
 15887      52545F5F 
 15887      203200
 15888              	.LASF1607:
 15889 95fe 636F6E66 		.ascii	"configloc\000"
 15889      69676C6F 
ARM GAS  /var/folders/z0/6xlwn_996xz3mwq1cgzkbq4r0000gp/T//cc3rPjEN.s 			page 388


 15889      6300
 15890              	.LASF1632:
 15891 9608 6E617267 		.ascii	"nargs\000"
 15891      7300
 15892              	.LASF712:
 15893 960e 5F5F6861 		.ascii	"__have_long32 1\000"
 15893      76655F6C 
 15893      6F6E6733 
 15893      32203100 
 15894              	.LASF1322:
 15895 961e 4932435F 		.ascii	"I2C_CON_SI (1UL << 3)\000"
 15895      434F4E5F 
 15895      53492028 
 15895      31554C20 
 15895      3C3C2033 
 15896              	.LASF701:
 15897 9634 73747274 		.ascii	"strtodf strtof\000"
 15897      6F646620 
 15897      73747274 
 15897      6F6600
 15898              	.LASF1519:
 15899 9643 4353425F 		.ascii	"CSB_CHARGE_MODE_T\000"
 15899      43484152 
 15899      47455F4D 
 15899      4F44455F 
 15899      5400
 15900              	.LASF89:
 15901 9655 5F5F5549 		.ascii	"__UINT8_MAX__ 0xff\000"
 15901      4E54385F 
 15901      4D41585F 
 15901      5F203078 
 15901      666600
 15902              	.LASF1563:
 15903 9668 435F5345 		.ascii	"C_SET\000"
 15903      5400
 15904              	.LASF630:
 15905 966e 5F5F6765 		.ascii	"__generic(expr,t,yes,no) __builtin_choose_expr( __b"
 15905      6E657269 
 15905      63286578 
 15905      70722C74 
 15905      2C796573 
 15906 96a1 75696C74 		.ascii	"uiltin_types_compatible_p(__typeof(expr), t), yes, "
 15906      696E5F74 
 15906      79706573 
 15906      5F636F6D 
 15906      70617469 
 15907 96d4 6E6F2900 		.ascii	"no)\000"
 15908              	.LASF1239:
 15909 96d8 55415254 		.ascii	"UART_TER2_TXEN (1 << 0)\000"
 15909      5F544552 
 15909      325F5458 
 15909      454E2028 
 15909      31203C3C 
 15910              	.LASF839:
 15911 96f0 4B45595F 		.ascii	"KEY_ETX 3\000"
 15911      45545820 
 15911      3300
ARM GAS  /var/folders/z0/6xlwn_996xz3mwq1cgzkbq4r0000gp/T//cc3rPjEN.s 			page 389


 15912              	.LASF951:
 15913 96fa 5343425F 		.ascii	"SCB_AIRCR_ENDIANESS_Pos 15\000"
 15913      41495243 
 15913      525F454E 
 15913      4449414E 
 15913      4553535F 
 15914              	.LASF1424:
 15915 9715 43414E5F 		.ascii	"CAN_SDOREQ_HANDLED_NOSEND 2\000"
 15915      53444F52 
 15915      45515F48 
 15915      414E444C 
 15915      45445F4E 
 15916              	.LASF1569:
 15917 9731 4E554D43 		.ascii	"NUMCOMMANDS\000"
 15917      4F4D4D41 
 15917      4E445300 
 15918              	.LASF1621:
 15919 973d 4F757470 		.ascii	"Output_Measurements\000"
 15919      75745F4D 
 15919      65617375 
 15919      72656D65 
 15919      6E747300 
 15920              	.LASF1126:
 15921 9751 54494D45 		.ascii	"TIMER_CAP_FALLING(n) (_BIT((((n) * 3) + 1)))\000"
 15921      525F4341 
 15921      505F4641 
 15921      4C4C494E 
 15921      47286E29 
 15922              	.LASF555:
 15923 977e 5F524545 		.ascii	"_REENT_WCRTOMB_STATE(ptr) ((ptr)->_new._reent._wcrt"
 15923      4E545F57 
 15923      4352544F 
 15923      4D425F53 
 15923      54415445 
 15924 97b1 6F6D625F 		.ascii	"omb_state)\000"
 15924      73746174 
 15924      652900
 15925              	.LASF183:
 15926 97bc 5F5F4445 		.ascii	"__DEC128_MIN__ 1E-6143DL\000"
 15926      43313238 
 15926      5F4D494E 
 15926      5F5F2031 
 15926      452D3631 
 15927              	.LASF583:
 15928 97d5 5F5F4245 		.ascii	"__BEGIN_DECLS \000"
 15928      47494E5F 
 15928      4445434C 
 15928      532000
 15929              	.LASF1423:
 15930 97e4 43414E5F 		.ascii	"CAN_SDOREQ_HANDLED_SEND 1\000"
 15930      53444F52 
 15930      45515F48 
 15930      414E444C 
 15930      45445F53 
 15931              	.LASF1318:
 15932 97fe 4932435F 		.ascii	"I2C_I2CONCLR_STOC ((1 << 4))\000"
 15932      4932434F 
ARM GAS  /var/folders/z0/6xlwn_996xz3mwq1cgzkbq4r0000gp/T//cc3rPjEN.s 			page 390


 15932      4E434C52 
 15932      5F53544F 
 15932      43202828 
 15933              	.LASF515:
 15934 981b 5F524545 		.ascii	"_REENT_SMALL_CHECK_INIT(ptr) \000"
 15934      4E545F53 
 15934      4D414C4C 
 15934      5F434845 
 15934      434B5F49 
 15935              	.LASF118:
 15936 9839 5F5F5549 		.ascii	"__UINTPTR_MAX__ 0xffffffffU\000"
 15936      4E545054 
 15936      525F4D41 
 15936      585F5F20 
 15936      30786666 
 15937              	.LASF634:
 15938 9855 5F5F6E6F 		.ascii	"__noinline __attribute__ ((__noinline__))\000"
 15938      696E6C69 
 15938      6E65205F 
 15938      5F617474 
 15938      72696275 
 15939              	.LASF1077:
 15940 987f 494F434F 		.ascii	"IOCON_FUNC4 0x4\000"
 15940      4E5F4655 
 15940      4E433420 
 15940      30783400 
 15941              	.LASF1585:
 15942 988f 524F4C5F 		.ascii	"ROL_state\000"
 15942      73746174 
 15942      6500
 15943              	.LASF1640:
 15944 9899 426F6172 		.ascii	"Board_Println\000"
 15944      645F5072 
 15944      696E746C 
 15944      6E00
 15945              	.LASF1454:
 15946 98a7 4D593138 		.ascii	"MY18_MODULE_CELL_COUNT 12\000"
 15946      5F4D4F44 
 15946      554C455F 
 15946      43454C4C 
 15946      5F434F55 
 15947              	.LASF1466:
 15948 98c1 4D593136 		.ascii	"MY16_MODULE_CELL_COUNT 12\000"
 15948      5F4D4F44 
 15948      554C455F 
 15948      43454C4C 
 15948      5F434F55 
 15949              	.LASF191:
 15950 98db 5F5F5346 		.ascii	"__SFRACT_EPSILON__ 0x1P-7HR\000"
 15950      52414354 
 15950      5F455053 
 15950      494C4F4E 
 15950      5F5F2030 
 15951              	.LASF11:
 15952 98f7 5F5F4154 		.ascii	"__ATOMIC_CONSUME 1\000"
 15952      4F4D4943 
 15952      5F434F4E 
ARM GAS  /var/folders/z0/6xlwn_996xz3mwq1cgzkbq4r0000gp/T//cc3rPjEN.s 			page 391


 15952      53554D45 
 15952      203100
 15953              	.LASF618:
 15954 990a 5F5F756E 		.ascii	"__unused __attribute__((__unused__))\000"
 15954      75736564 
 15954      205F5F61 
 15954      74747269 
 15954      62757465 
 15955              	.LASF132:
 15956 992f 5F5F464C 		.ascii	"__FLT_MIN__ 1.1754943508222875e-38F\000"
 15956      545F4D49 
 15956      4E5F5F20 
 15956      312E3137 
 15956      35343934 
 15957              	.LASF48:
 15958 9953 5F5F494E 		.ascii	"__INT_LEAST16_TYPE__ short int\000"
 15958      545F4C45 
 15958      41535431 
 15958      365F5459 
 15958      50455F5F 
 15959              	.LASF54:
 15960 9972 5F5F5549 		.ascii	"__UINT_LEAST64_TYPE__ long long unsigned int\000"
 15960      4E545F4C 
 15960      45415354 
 15960      36345F54 
 15960      5950455F 
 15961              	.LASF674:
 15962 999f 5F5F6C6F 		.ascii	"__locks_exclusive(...) __lock_annotate(exclusive_lo"
 15962      636B735F 
 15962      6578636C 
 15962      75736976 
 15962      65282E2E 
 15963 99d2 636B5F66 		.ascii	"ck_function(__VA_ARGS__))\000"
 15963      756E6374 
 15963      696F6E28 
 15963      5F5F5641 
 15963      5F415247 
 15964              	.LASF192:
 15965 99ec 5F5F5553 		.ascii	"__USFRACT_FBIT__ 8\000"
 15965      46524143 
 15965      545F4642 
 15965      49545F5F 
 15965      203800
 15966              	.LASF1416:
 15967 99ff 4F445F45 		.ascii	"OD_EXP_RO 0x10\000"
 15967      58505F52 
 15967      4F203078 
 15967      313000
 15968              	.LASF1115:
 15969 9a0e 46554E43 		.ascii	"FUNC7 0x7\000"
 15969      37203078 
 15969      3700
 15970              	.LASF1452:
 15971 9a18 4D593138 		.ascii	"MY18_CV_MIN_CURRENT_ms 60000\000"
 15971      5F43565F 
 15971      4D494E5F 
 15971      43555252 
ARM GAS  /var/folders/z0/6xlwn_996xz3mwq1cgzkbq4r0000gp/T//cc3rPjEN.s 			page 392


 15971      454E545F 
 15972              	.LASF1307:
 15973 9a35 5245545F 		.ascii	"RET_SLAVE_RX 5\000"
 15973      534C4156 
 15973      455F5258 
 15973      203500
 15974              	.LASF1360:
 15975 9a44 4932435F 		.ascii	"I2C_I2DAT_IDLE_CHAR (0xFF)\000"
 15975      49324441 
 15975      545F4944 
 15975      4C455F43 
 15975      48415220 
 15976              	.LASF1246:
 15977 9a5f 55415254 		.ascii	"UART_SYNCCTRL_CCCLR (1 << 6)\000"
 15977      5F53594E 
 15977      43435452 
 15977      4C5F4343 
 15977      434C5220 
 15978              	.LASF311:
 15979 9a7c 5F5F4743 		.ascii	"__GCC_ATOMIC_WCHAR_T_LOCK_FREE 1\000"
 15979      435F4154 
 15979      4F4D4943 
 15979      5F574348 
 15979      41525F54 
 15980              	.LASF234:
 15981 9a9d 5F5F5553 		.ascii	"__USACCUM_MIN__ 0.0UHK\000"
 15981      41434355 
 15981      4D5F4D49 
 15981      4E5F5F20 
 15981      302E3055 
 15982              	.LASF217:
 15983 9ab4 5F5F4C4C 		.ascii	"__LLFRACT_FBIT__ 63\000"
 15983      46524143 
 15983      545F4642 
 15983      49545F5F 
 15983      20363300 
 15984              	.LASF987:
 15985 9ac8 5343535F 		.ascii	"SCS_BASE (0xE000E000UL)\000"
 15985      42415345 
 15985      20283078 
 15985      45303030 
 15985      45303030 
 15986              	.LASF322:
 15987 9ae0 5F5F5349 		.ascii	"__SIZEOF_PTRDIFF_T__ 4\000"
 15987      5A454F46 
 15987      5F505452 
 15987      44494646 
 15987      5F545F5F 
 15988              	.LASF865:
 15989 9af7 4B45595F 		.ascii	"KEY_GS 29\000"
 15989      47532032 
 15989      3900
 15990              	.LASF641:
 15991 9b01 5F5F7265 		.ascii	"__restrict \000"
 15991      73747269 
 15991      63742000 
 15992              	.LASF1004:
ARM GAS  /var/folders/z0/6xlwn_996xz3mwq1cgzkbq4r0000gp/T//cc3rPjEN.s 			page 393


 15993 9b0d 4C50435F 		.ascii	"LPC_ADC_BASE 0x4001C000\000"
 15993      4144435F 
 15993      42415345 
 15993      20307834 
 15993      30303143 
 15994              	.LASF546:
 15995 9b25 5F524545 		.ascii	"_REENT_TM(ptr) (&(ptr)->_new._reent._localtime_buf)"
 15995      4E545F54 
 15995      4D287074 
 15995      72292028 
 15995      26287074 
 15996 9b58 00       		.ascii	"\000"
 15997              	.LASF480:
 15998 9b59 5F5F5F69 		.ascii	"___int32_t_defined 1\000"
 15998      6E743332 
 15998      5F745F64 
 15998      6566696E 
 15998      65642031 
 15999              	.LASF417:
 16000 9b6e 5F415454 		.ascii	"_ATTRIBUTE(attrs) __attribute__ (attrs)\000"
 16000      52494255 
 16000      54452861 
 16000      74747273 
 16000      29205F5F 
 16001              	.LASF1449:
 16002 9b96 4D593138 		.ascii	"MY18_BALANCE_OFF_THRESHOLD_mV 1\000"
 16002      5F42414C 
 16002      414E4345 
 16002      5F4F4646 
 16002      5F544852 
 16003              	.LASF720:
 16004 9bb6 63686172 		.ascii	"char +0\000"
 16004      202B3000 
 16005              	.LASF1085:
 16006 9bbe 494F434F 		.ascii	"IOCON_HYS_EN (0x1 << 5)\000"
 16006      4E5F4859 
 16006      535F454E 
 16006      20283078 
 16006      31203C3C 
 16007              	.LASF747:
 16008 9bd6 5F55494E 		.ascii	"_UINT32_T_DECLARED \000"
 16008      5433325F 
 16008      545F4445 
 16008      434C4152 
 16008      45442000 
 16009              	.LASF378:
 16010 9bea 5F415446 		.ascii	"_ATFILE_SOURCE\000"
 16010      494C455F 
 16010      534F5552 
 16010      434500
 16011              	.LASF1545:
 16012 9bf9 636F6E74 		.ascii	"contactors_closed\000"
 16012      6163746F 
 16012      72735F63 
 16012      6C6F7365 
 16012      6400
 16013              	.LASF1041:
ARM GAS  /var/folders/z0/6xlwn_996xz3mwq1cgzkbq4r0000gp/T//cc3rPjEN.s 			page 394


 16014 9c0b 504D555F 		.ascii	"PMU_PCON_PM_DEEPPOWERDOWN (0x2)\000"
 16014      50434F4E 
 16014      5F504D5F 
 16014      44454550 
 16014      504F5745 
 16015              	.LASF1087:
 16016 9c2b 494F434F 		.ascii	"IOCON_ADMODE_EN (0x0 << 7)\000"
 16016      4E5F4144 
 16016      4D4F4445 
 16016      5F454E20 
 16016      28307830 
 16017              	.LASF645:
 16018 9c46 5F5F6578 		.ascii	"__exported __attribute__((__visibility__(\"default\""
 16018      706F7274 
 16018      6564205F 
 16018      5F617474 
 16018      72696275 
 16019 9c78 29292900 		.ascii	")))\000"
 16020              	.LASF385:
 16021 9c7c 5F5F4D49 		.ascii	"__MISC_VISIBLE 1\000"
 16021      53435F56 
 16021      49534942 
 16021      4C452031 
 16021      00
 16022              	.LASF1536:
 16023 9c8d 656C636F 		.ascii	"elcon_output_voltage\000"
 16023      6E5F6F75 
 16023      74707574 
 16023      5F766F6C 
 16023      74616765 
 16024              	.LASF991:
 16025 9ca2 53434220 		.ascii	"SCB ((SCB_Type *) SCB_BASE )\000"
 16025      28285343 
 16025      425F5479 
 16025      7065202A 
 16025      29205343 
 16026              	.LASF732:
 16027 9cbf 5F5F4641 		.ascii	"__FAST16 \000"
 16027      53543136 
 16027      2000
 16028              	.LASF786:
 16029 9cc9 494E545F 		.ascii	"INT_LEAST64_MIN (-__INT_LEAST64_MAX__ - 1)\000"
 16029      4C454153 
 16029      5436345F 
 16029      4D494E20 
 16029      282D5F5F 
 16030              	.LASF1019:
 16031 9cf4 4941505F 		.ascii	"IAP_ENTRY_LOCATION 0X1FFF1FF1\000"
 16031      454E5452 
 16031      595F4C4F 
 16031      43415449 
 16031      4F4E2030 
 16032              	.LASF1405:
 16033 9d12 53444F5F 		.ascii	"SDO_ABORT_READONLY 0x06010002UL\000"
 16033      41424F52 
 16033      545F5245 
 16033      41444F4E 
ARM GAS  /var/folders/z0/6xlwn_996xz3mwq1cgzkbq4r0000gp/T//cc3rPjEN.s 			page 395


 16033      4C592030 
 16034              	.LASF1437:
 16035 9d32 4353425F 		.ascii	"CSB_BMS_MODE_PERIOD 1000\000"
 16035      424D535F 
 16035      4D4F4445 
 16035      5F504552 
 16035      494F4420 
 16036              	.LASF806:
 16037 9d4b 5349475F 		.ascii	"SIG_ATOMIC_MAX (__STDINT_EXP(INT_MAX))\000"
 16037      41544F4D 
 16037      49435F4D 
 16037      41582028 
 16037      5F5F5354 
 16038              	.LASF606:
 16039 9d72 5F5F4343 		.ascii	"__CC_SUPPORTS_DYNAMIC_ARRAY_INIT 1\000"
 16039      5F535550 
 16039      504F5254 
 16039      535F4459 
 16039      4E414D49 
 16040              	.LASF1029:
 16041 9d95 4C50435F 		.ascii	"LPC_PMU ((LPC_PMU_T *) LPC_PMU_BASE)\000"
 16041      504D5520 
 16041      28284C50 
 16041      435F504D 
 16041      555F5420 
 16042              	.LASF157:
 16043 9dba 5F5F4C44 		.ascii	"__LDBL_MAX_10_EXP__ 308\000"
 16043      424C5F4D 
 16043      41585F31 
 16043      305F4558 
 16043      505F5F20 
 16044              	.LASF824:
 16045 9dd2 5F4D4943 		.ascii	"_MICRORL_CONFIG_H_ \000"
 16045      524F524C 
 16045      5F434F4E 
 16045      4649475F 
 16045      485F2000 
 16046              	.LASF1235:
 16047 9de6 55415254 		.ascii	"UART_FDR_DIVADDVAL(n) (n & 0x0F)\000"
 16047      5F464452 
 16047      5F444956 
 16047      41444456 
 16047      414C286E 
 16048              	.LASF393:
 16049 9e07 5F5F494D 		.ascii	"__IMPORT \000"
 16049      504F5254 
 16049      2000
 16050              	.LASF375:
 16051 9e11 5F504F53 		.ascii	"_POSIX_SOURCE 1\000"
 16051      49585F53 
 16051      4F555243 
 16051      45203100 
 16052              	.LASF791:
 16053 9e21 55494E54 		.ascii	"UINT_FAST8_MAX (__UINT_FAST8_MAX__)\000"
 16053      5F464153 
 16053      54385F4D 
 16053      41582028 
ARM GAS  /var/folders/z0/6xlwn_996xz3mwq1cgzkbq4r0000gp/T//cc3rPjEN.s 			page 396


 16053      5F5F5549 
 16054              	.LASF1187:
 16055 9e45 55415254 		.ascii	"UART_MCR_LOOPB_EN (1 << 4)\000"
 16055      5F4D4352 
 16055      5F4C4F4F 
 16055      50425F45 
 16055      4E202831 
 16056              	.LASF1373:
 16057 9e60 4932435F 		.ascii	"I2C_SETUP_STATUS_DONE (1 << 10)\000"
 16057      53455455 
 16057      505F5354 
 16057      41545553 
 16057      5F444F4E 
 16058              	.LASF42:
 16059 9e80 5F5F494E 		.ascii	"__INT64_TYPE__ long long int\000"
 16059      5436345F 
 16059      54595045 
 16059      5F5F206C 
 16059      6F6E6720 
 16060              	.LASF293:
 16061 9e9d 5F5F5441 		.ascii	"__TA_FBIT__ 63\000"
 16061      5F464249 
 16061      545F5F20 
 16061      363300
 16062              	.LASF170:
 16063 9eac 5F5F4445 		.ascii	"__DEC32_MAX__ 9.999999E96DF\000"
 16063      4333325F 
 16063      4D41585F 
 16063      5F20392E 
 16063      39393939 
 16064              	.LASF704:
 16065 9ec8 626F6F6C 		.ascii	"bool _Bool\000"
 16065      205F426F 
 16065      6F6C00
 16066              	.LASF431:
 16067 9ed3 5F5F5F69 		.ascii	"___int_ptrdiff_t_h \000"
 16067      6E745F70 
 16067      74726469 
 16067      66665F74 
 16067      5F682000 
 16068              	.LASF308:
 16069 9ee7 5F5F4743 		.ascii	"__GCC_ATOMIC_CHAR_LOCK_FREE 1\000"
 16069      435F4154 
 16069      4F4D4943 
 16069      5F434841 
 16069      525F4C4F 
 16070              	.LASF53:
 16071 9f05 5F5F5549 		.ascii	"__UINT_LEAST32_TYPE__ long unsigned int\000"
 16071      4E545F4C 
 16071      45415354 
 16071      33325F54 
 16071      5950455F 
 16072              	.LASF420:
 16073 9f2d 5F4E4F49 		.ascii	"_NOINLINE_STATIC _NOINLINE static\000"
 16073      4E4C494E 
 16073      455F5354 
 16073      41544943 
ARM GAS  /var/folders/z0/6xlwn_996xz3mwq1cgzkbq4r0000gp/T//cc3rPjEN.s 			page 397


 16073      205F4E4F 
 16074              	.LASF1073:
 16075 9f4f 494F434F 		.ascii	"IOCON_FUNC0 0x0\000"
 16075      4E5F4655 
 16075      4E433020 
 16075      30783000 
 16076              	.LASF415:
 16077 9f5f 5F4C4F4E 		.ascii	"_LONG_DOUBLE long double\000"
 16077      475F444F 
 16077      55424C45 
 16077      206C6F6E 
 16077      6720646F 
 16078              	.LASF619:
 16079 9f78 5F5F7573 		.ascii	"__used __attribute__((__used__))\000"
 16079      6564205F 
 16079      5F617474 
 16079      72696275 
 16079      74655F5F 
 16080              	.LASF1119:
 16081 9f99 54494D45 		.ascii	"TIMER_CAP_INT(n) (_BIT((((n) & 0x0F) + 4)))\000"
 16081      525F4341 
 16081      505F494E 
 16081      54286E29 
 16081      20285F42 
 16082              	.LASF288:
 16083 9fc5 5F5F4841 		.ascii	"__HA_IBIT__ 8\000"
 16083      5F494249 
 16083      545F5F20 
 16083      3800
 16084              	.LASF294:
 16085 9fd3 5F5F5441 		.ascii	"__TA_IBIT__ 64\000"
 16085      5F494249 
 16085      545F5F20 
 16085      363400
 16086              	.LASF1542:
 16087 9fe2 656C636F 		.ascii	"elcon_is_comms_bad\000"
 16087      6E5F6973 
 16087      5F636F6D 
 16087      6D735F62 
 16087      616400
 16088              	.LASF1064:
 16089 9ff5 53595343 		.ascii	"SYSCTL_POWERDOWN_FLASH_PD (1 << 2)\000"
 16089      544C5F50 
 16089      4F574552 
 16089      444F574E 
 16089      5F464C41 
 16090              	.LASF1453:
 16091 a018 4D593138 		.ascii	"MY18_CC_CELL_VOLTAGE_mV 4300\000"
 16091      5F43435F 
 16091      43454C4C 
 16091      5F564F4C 
 16091      54414745 
 16092              	.LASF9:
 16093 a035 5F5F4154 		.ascii	"__ATOMIC_RELEASE 3\000"
 16093      4F4D4943 
 16093      5F52454C 
 16093      45415345 
ARM GAS  /var/folders/z0/6xlwn_996xz3mwq1cgzkbq4r0000gp/T//cc3rPjEN.s 			page 398


 16093      203300
 16094              	.LASF270:
 16095 a048 5F5F4851 		.ascii	"__HQ_IBIT__ 0\000"
 16095      5F494249 
 16095      545F5F20 
 16095      3000
 16096              	.LASF1582:
 16097 a056 52574C5F 		.ascii	"RWL_cc_cell_voltage_mV\000"
 16097      63635F63 
 16097      656C6C5F 
 16097      766F6C74 
 16097      6167655F 
 16098              	.LASF1169:
 16099 a06d 55415254 		.ascii	"UART_LCR_WLEN5 (0 << 0)\000"
 16099      5F4C4352 
 16099      5F574C45 
 16099      4E352028 
 16099      30203C3C 
 16100              	.LASF1482:
 16101 a085 6C6F6E67 		.ascii	"long long int\000"
 16101      206C6F6E 
 16101      6720696E 
 16101      7400
 16102              	.LASF1410:
 16103 a093 53444F5F 		.ascii	"SDO_ABORT_UNKNOWNSUB 0x06090011UL\000"
 16103      41424F52 
 16103      545F554E 
 16103      4B4E4F57 
 16103      4E535542 
 16104              	.LASF121:
 16105 a0b5 5F5F464C 		.ascii	"__FLT_EVAL_METHOD__ 0\000"
 16105      545F4556 
 16105      414C5F4D 
 16105      4554484F 
 16105      445F5F20 
 16106              	.LASF1388:
 16107 a0cb 43414E5F 		.ascii	"CAN_ERROR_WARN 0x00000002UL\000"
 16107      4552524F 
 16107      525F5741 
 16107      524E2030 
 16107      78303030 
 16108              	.LASF1417:
 16109 a0e7 4F445F45 		.ascii	"OD_EXP_WO 0x20\000"
 16109      58505F57 
 16109      4F203078 
 16109      323000
 16110              	.LASF933:
 16111 a0f6 5343425F 		.ascii	"SCB_ICSR_PENDSVCLR_Pos 27\000"
 16111      49435352 
 16111      5F50454E 
 16111      44535643 
 16111      4C525F50 
 16112              	.LASF666:
 16113 a110 5F5F434F 		.ascii	"__COPYRIGHT(s) struct __hack\000"
 16113      50595249 
 16113      47485428 
 16113      73292073 
ARM GAS  /var/folders/z0/6xlwn_996xz3mwq1cgzkbq4r0000gp/T//cc3rPjEN.s 			page 399


 16113      74727563 
 16114              	.LASF365:
 16115 a12d 5F574944 		.ascii	"_WIDE_ORIENT 1\000"
 16115      455F4F52 
 16115      49454E54 
 16115      203100
 16116              	.LASF697:
 16117 a13c 45584954 		.ascii	"EXIT_FAILURE 1\000"
 16117      5F464149 
 16117      4C555245 
 16117      203100
 16118              	.LASF717:
 16119 a14b 6C6F6E67 		.ascii	"long\000"
 16119      00
 16120              	.LASF295:
 16121 a150 5F5F5548 		.ascii	"__UHA_FBIT__ 8\000"
 16121      415F4642 
 16121      49545F5F 
 16121      203800
 16122              	.LASF226:
 16123 a15f 5F5F554C 		.ascii	"__ULLFRACT_EPSILON__ 0x1P-64ULLR\000"
 16123      4C465241 
 16123      43545F45 
 16123      5053494C 
 16123      4F4E5F5F 
 16124              	.LASF1298:
 16125 a180 4144435F 		.ascii	"ADC_CR_START_CTOUT8 ((3UL << 24))\000"
 16125      43525F53 
 16125      54415254 
 16125      5F43544F 
 16125      55543820 
 16126              	.LASF1396:
 16127 a1a2 43414E5F 		.ascii	"CAN_MSGOBJ_STD 0x00000000UL\000"
 16127      4D53474F 
 16127      424A5F53 
 16127      54442030 
 16127      78303030 
 16128              	.LASF499:
 16129 a1be 5F5F6C6F 		.ascii	"__lock_release_recursive(lock) (_CAST_VOID 0)\000"
 16129      636B5F72 
 16129      656C6561 
 16129      73655F72 
 16129      65637572 
 16130              	.LASF738:
 16131 a1ec 5F5F4C45 		.ascii	"__LEAST64 \"ll\"\000"
 16131      41535436 
 16131      3420226C 
 16131      6C2200
 16132              	.LASF1081:
 16133 a1fb 494F434F 		.ascii	"IOCON_MODE_INACT (0x0 << 3)\000"
 16133      4E5F4D4F 
 16133      44455F49 
 16133      4E414354 
 16133      20283078 
 16134              	.LASF1220:
 16135 a217 55415254 		.ascii	"UART_RS485CTRL_SEL_DTR (1 << 3)\000"
 16135      5F525334 
ARM GAS  /var/folders/z0/6xlwn_996xz3mwq1cgzkbq4r0000gp/T//cc3rPjEN.s 			page 400


 16135      38354354 
 16135      524C5F53 
 16135      454C5F44 
 16136              	.LASF1046:
 16137 a237 53595343 		.ascii	"SYSCTL_RST_POR (1 << 0)\000"
 16137      544C5F52 
 16137      53545F50 
 16137      4F522028 
 16137      31203C3C 
 16138              	.LASF1345:
 16139 a24f 4932435F 		.ascii	"I2C_I2STAT_S_RX_ARB_LOST_M_SLA ((0x68))\000"
 16139      49325354 
 16139      41545F53 
 16139      5F52585F 
 16139      4152425F 
 16140              	.LASF1241:
 16141 a277 55415254 		.ascii	"UART_SYNCCTRL_CSRC_MASTER (1 << 1)\000"
 16141      5F53594E 
 16141      43435452 
 16141      4C5F4353 
 16141      52435F4D 
 16142              	.LASF1074:
 16143 a29a 494F434F 		.ascii	"IOCON_FUNC1 0x1\000"
 16143      4E5F4655 
 16143      4E433120 
 16143      30783100 
 16144              	.LASF1097:
 16145 a2aa 4D445F42 		.ascii	"MD_BUK (0x3 << 3)\000"
 16145      554B2028 
 16145      30783320 
 16145      3C3C2033 
 16145      2900
 16146              	.LASF1637:
 16147 a2bc 6C617374 		.ascii	"lastPackVoltagePrintTime\000"
 16147      5061636B 
 16147      566F6C74 
 16147      61676550 
 16147      72696E74 
 16148              	.LASF775:
 16149 a2d5 494E545F 		.ascii	"INT_LEAST16_MAX (__INT_LEAST16_MAX__)\000"
 16149      4C454153 
 16149      5431365F 
 16149      4D415820 
 16149      285F5F49 
 16150              	.LASF1228:
 16151 a2fb 55415254 		.ascii	"UART_ICR_BITMASK (0x3F)\000"
 16151      5F494352 
 16151      5F424954 
 16151      4D41534B 
 16151      20283078 
 16152              	.LASF1595:
 16153 a313 636F6E66 		.ascii	"config_loc_label_t\000"
 16153      69675F6C 
 16153      6F635F6C 
 16153      6162656C 
 16153      5F7400
 16154              	.LASF90:
ARM GAS  /var/folders/z0/6xlwn_996xz3mwq1cgzkbq4r0000gp/T//cc3rPjEN.s 			page 401


 16155 a326 5F5F5549 		.ascii	"__UINT16_MAX__ 0xffff\000"
 16155      4E543136 
 16155      5F4D4158 
 16155      5F5F2030 
 16155      78666666 
 16156              	.LASF1534:
 16157 a33c 62616C61 		.ascii	"balance_mV\000"
 16157      6E63655F 
 16157      6D5600
 16158              	.LASF327:
 16159 a347 5F5F4152 		.ascii	"__ARM_ARCH 6\000"
 16159      4D5F4152 
 16159      43482036 
 16159      00
 16160              	.LASF203:
 16161 a354 5F5F5546 		.ascii	"__UFRACT_IBIT__ 0\000"
 16161      52414354 
 16161      5F494249 
 16161      545F5F20 
 16161      3000
 16162              	.LASF1359:
 16163 a366 4932435F 		.ascii	"I2C_I2DAT_BITMASK ((0xFF))\000"
 16163      49324441 
 16163      545F4249 
 16163      544D4153 
 16163      4B202828 
 16164              	.LASF1112:
 16165 a381 46554E43 		.ascii	"FUNC4 0x4\000"
 16165      34203078 
 16165      3400
 16166              	.LASF558:
 16167 a38b 5F524545 		.ascii	"_REENT_SIGNAL_BUF(ptr) ((ptr)->_new._reent._signal_"
 16167      4E545F53 
 16167      49474E41 
 16167      4C5F4255 
 16167      46287074 
 16168 a3be 62756629 		.ascii	"buf)\000"
 16168      00
 16169              	.LASF1261:
 16170 a3c3 5353505F 		.ascii	"SSP_CR0_CPHA_FIRST ((uint32_t) (0))\000"
 16170      4352305F 
 16170      43504841 
 16170      5F464952 
 16170      53542028 
 16171              	.LASF151:
 16172 a3e7 5F5F4442 		.ascii	"__DBL_HAS_QUIET_NAN__ 1\000"
 16172      4C5F4841 
 16172      535F5155 
 16172      4945545F 
 16172      4E414E5F 
 16173              	.LASF155:
 16174 a3ff 5F5F4C44 		.ascii	"__LDBL_MIN_10_EXP__ (-307)\000"
 16174      424C5F4D 
 16174      494E5F31 
 16174      305F4558 
 16174      505F5F20 
 16175              	.LASF1523:
ARM GAS  /var/folders/z0/6xlwn_996xz3mwq1cgzkbq4r0000gp/T//cc3rPjEN.s 			page 402


 16176 a41a 4353425F 		.ascii	"CSB_INIT_SWITCH_250\000"
 16176      494E4954 
 16176      5F535749 
 16176      5443485F 
 16176      32353000 
 16177              	.LASF166:
 16178 a42e 5F5F4445 		.ascii	"__DEC32_MANT_DIG__ 7\000"
 16178      4333325F 
 16178      4D414E54 
 16178      5F444947 
 16178      5F5F2037 
 16179              	.LASF1578:
 16180 a443 52574C5F 		.ascii	"RWL_bal_off_thresh_mV\000"
 16180      62616C5F 
 16180      6F66665F 
 16180      74687265 
 16180      73685F6D 
 16181              	.LASF1054:
 16182 a459 53595343 		.ascii	"SYSCTL_SLPWAKE_IRCOUT_PD (1 << 0)\000"
 16182      544C5F53 
 16182      4C505741 
 16182      4B455F49 
 16182      52434F55 
 16183              	.LASF1494:
 16184 a47b 63656C6C 		.ascii	"cell_min_mV\000"
 16184      5F6D696E 
 16184      5F6D5600 
 16185              	.LASF889:
 16186 a487 5F424954 		.ascii	"_BITMASK(field_width) ( _BIT(field_width) - 1)\000"
 16186      4D41534B 
 16186      28666965 
 16186      6C645F77 
 16186      69647468 
 16187              	.LASF1013:
 16188 a4b6 4C50435F 		.ascii	"LPC_CAN0_BASE 0x40050000\000"
 16188      43414E30 
 16188      5F424153 
 16188      45203078 
 16188      34303035 
 16189              	.LASF193:
 16190 a4cf 5F5F5553 		.ascii	"__USFRACT_IBIT__ 0\000"
 16190      46524143 
 16190      545F4942 
 16190      49545F5F 
 16190      203000
 16191              	.LASF1339:
 16192 a4e2 4932435F 		.ascii	"I2C_I2STAT_M_RX_ARB_LOST ((0x38))\000"
 16192      49325354 
 16192      41545F4D 
 16192      5F52585F 
 16192      4152425F 
 16193              	.LASF1103:
 16194 a504 4D445F45 		.ascii	"MD_ENFIL (0x1 << 8)\000"
 16194      4E46494C 
 16194      20283078 
 16194      31203C3C 
 16194      20382900 
ARM GAS  /var/folders/z0/6xlwn_996xz3mwq1cgzkbq4r0000gp/T//cc3rPjEN.s 			page 403


 16195              	.LASF1513:
 16196 a518 4353425F 		.ascii	"CSB_CHARGE_INIT\000"
 16196      43484152 
 16196      47455F49 
 16196      4E495400 
 16197              	.LASF524:
 16198 a528 5F524545 		.ascii	"_REENT_ASCTIME_SIZE 26\000"
 16198      4E545F41 
 16198      53435449 
 16198      4D455F53 
 16198      495A4520 
 16199              	.LASF122:
 16200 a53f 5F5F4445 		.ascii	"__DEC_EVAL_METHOD__ 2\000"
 16200      435F4556 
 16200      414C5F4D 
 16200      4554484F 
 16200      445F5F20 
 16201              	.LASF164:
 16202 a555 5F5F4C44 		.ascii	"__LDBL_HAS_INFINITY__ 1\000"
 16202      424C5F48 
 16202      41535F49 
 16202      4E46494E 
 16202      4954595F 
 16203              	.LASF364:
 16204 a56d 5F465345 		.ascii	"_FSEEK_OPTIMIZATION 1\000"
 16204      454B5F4F 
 16204      5054494D 
 16204      495A4154 
 16204      494F4E20 
 16205              	.LASF909:
 16206 a583 5F5F4153 		.ascii	"__ASM __asm\000"
 16206      4D205F5F 
 16206      61736D00 
 16207              	.LASF1106:
 16208 a58f 4D445F46 		.ascii	"MD_FASTI2C (0x2 << 8)\000"
 16208      41535449 
 16208      32432028 
 16208      30783220 
 16208      3C3C2038 
 16209              	.LASF1258:
 16210 a5a5 5353505F 		.ascii	"SSP_CR0_FRF_MICROWIRE ((uint32_t) (2 << 4))\000"
 16210      4352305F 
 16210      4652465F 
 16210      4D494352 
 16210      4F574952 
 16211              	.LASF828:
 16212 a5d1 5F50524F 		.ascii	"_PROMPT_DEFAULT \"> \"\000"
 16212      4D50545F 
 16212      44454641 
 16212      554C5420 
 16212      223E2022 
 16213              	.LASF140:
 16214 a5e6 5F5F4442 		.ascii	"__DBL_MIN_EXP__ (-1021)\000"
 16214      4C5F4D49 
 16214      4E5F4558 
 16214      505F5F20 
 16214      282D3130 
ARM GAS  /var/folders/z0/6xlwn_996xz3mwq1cgzkbq4r0000gp/T//cc3rPjEN.s 			page 404


 16215              	.LASF1283:
 16216 a5fe 434F4D50 		.ascii	"COMPILE_TIME_ASSERT(pred) switch(0){case 0:case pre"
 16216      494C455F 
 16216      54494D45 
 16216      5F415353 
 16216      45525428 
 16217 a631 643A3B7D 		.ascii	"d:;}\000"
 16217      00
 16218              	.LASF1427:
 16219 a636 43414E5F 		.ascii	"CAN_SDOSEG_CLOSE 2\000"
 16219      53444F53 
 16219      45475F43 
 16219      4C4F5345 
 16219      203200
 16220              	.LASF1593:
 16221 a649 434F4E4C 		.ascii	"CONL_MY16\000"
 16221      5F4D5931 
 16221      3600
 16222              	.LASF1592:
 16223 a653 434F4E4C 		.ascii	"CONL_MY18\000"
 16223      5F4D5931 
 16223      3800
 16224              	.LASF20:
 16225 a65d 5F5F5349 		.ascii	"__SIZEOF_LONG_DOUBLE__ 8\000"
 16225      5A454F46 
 16225      5F4C4F4E 
 16225      475F444F 
 16225      55424C45 
 16226              	.LASF1577:
 16227 a676 52574C5F 		.ascii	"RWL_bal_on_thresh_mV\000"
 16227      62616C5F 
 16227      6F6E5F74 
 16227      68726573 
 16227      685F6D56 
 16228              	.LASF901:
 16229 a68b 5F5F4D50 		.ascii	"__MPU_PRESENT 0\000"
 16229      555F5052 
 16229      4553454E 
 16229      54203000 
 16230              	.LASF1117:
 16231 a69b 54494D45 		.ascii	"TIMER_IR_CLR(n) _BIT(n)\000"
 16231      525F4952 
 16231      5F434C52 
 16231      286E2920 
 16231      5F424954 
 16232              	.LASF636:
 16233 a6b3 5F5F6E6F 		.ascii	"__nonnull_all __attribute__((__nonnull__))\000"
 16233      6E6E756C 
 16233      6C5F616C 
 16233      6C205F5F 
 16233      61747472 
 16234              	.LASF148:
 16235 a6de 5F5F4442 		.ascii	"__DBL_DENORM_MIN__ ((double)4.9406564584124654e-324"
 16235      4C5F4445 
 16235      4E4F524D 
 16235      5F4D494E 
 16235      5F5F2028 
ARM GAS  /var/folders/z0/6xlwn_996xz3mwq1cgzkbq4r0000gp/T//cc3rPjEN.s 			page 405


 16236 a711 4C2900   		.ascii	"L)\000"
 16237              	.LASF135:
 16238 a714 5F5F464C 		.ascii	"__FLT_HAS_DENORM__ 1\000"
 16238      545F4841 
 16238      535F4445 
 16238      4E4F524D 
 16238      5F5F2031 
 16239              	.LASF586:
 16240 a729 5F5F474E 		.ascii	"__GNUCLIKE_MATH_BUILTIN_CONSTANTS \000"
 16240      55434C49 
 16240      4B455F4D 
 16240      4154485F 
 16240      4255494C 
 16241              	.LASF1470:
 16242 a74c 44454255 		.ascii	"DEBUG_Print(str) Chip_UART_SendBlocking(LPC_USART, "
 16242      475F5072 
 16242      696E7428 
 16242      73747229 
 16242      20436869 
 16243 a77f 7374722C 		.ascii	"str, strlen(str))\000"
 16243      20737472 
 16243      6C656E28 
 16243      73747229 
 16243      2900
 16244              	.LASF332:
 16245 a791 5F5F5448 		.ascii	"__THUMBEL__ 1\000"
 16245      554D4245 
 16245      4C5F5F20 
 16245      3100
 16246              	.LASF1573:
 16247 a79f 52574C5F 		.ascii	"RWL_cell_capacity_cAh\000"
 16247      63656C6C 
 16247      5F636170 
 16247      61636974 
 16247      795F6341 
 16248              	.LASF1148:
 16249 a7b5 55415254 		.ascii	"UART_IIR_FIFO_EN (3 << 6)\000"
 16249      5F494952 
 16249      5F464946 
 16249      4F5F454E 
 16249      20283320 
 16250              	.LASF45:
 16251 a7cf 5F5F5549 		.ascii	"__UINT32_TYPE__ long unsigned int\000"
 16251      4E543332 
 16251      5F545950 
 16251      455F5F20 
 16251      6C6F6E67 
 16252              	.LASF917:
 16253 a7f1 5F5F4F20 		.ascii	"__O volatile\000"
 16253      766F6C61 
 16253      74696C65 
 16253      00
 16254              	.LASF1066:
 16255 a7fe 53595343 		.ascii	"SYSCTL_POWERDOWN_ADC_PD (1 << 4)\000"
 16255      544C5F50 
 16255      4F574552 
 16255      444F574E 
ARM GAS  /var/folders/z0/6xlwn_996xz3mwq1cgzkbq4r0000gp/T//cc3rPjEN.s 			page 406


 16255      5F414443 
 16256              	.LASF276:
 16257 a81f 5F5F5451 		.ascii	"__TQ_IBIT__ 0\000"
 16257      5F494249 
 16257      545F5F20 
 16257      3000
 16258              	.LASF1644:
 16259 a82d 426F6172 		.ascii	"Board_Println_BLOCKING\000"
 16259      645F5072 
 16259      696E746C 
 16259      6E5F424C 
 16259      4F434B49 
 16260              	.LASF1061:
 16261 a844 53595343 		.ascii	"SYSCTL_SLPWAKE_SYSPLL_PD (1 << 7)\000"
 16261      544C5F53 
 16261      4C505741 
 16261      4B455F53 
 16261      5953504C 
 16262              	.LASF18:
 16263 a866 5F5F5349 		.ascii	"__SIZEOF_FLOAT__ 4\000"
 16263      5A454F46 
 16263      5F464C4F 
 16263      41545F5F 
 16263      203400
 16264              	.LASF814:
 16265 a879 55494E54 		.ascii	"UINT8_C(x) __UINT8_C(x)\000"
 16265      385F4328 
 16265      7829205F 
 16265      5F55494E 
 16265      54385F43 
 16266              	.LASF1603:
 16267 a891 63687267 		.ascii	"chrg\000"
 16267      00
 16268              	.LASF185:
 16269 a896 5F5F4445 		.ascii	"__DEC128_EPSILON__ 1E-33DL\000"
 16269      43313238 
 16269      5F455053 
 16269      494C4F4E 
 16269      5F5F2031 
 16270              	.LASF436:
 16271 a8b1 5F5F5349 		.ascii	"__SIZE_T__ \000"
 16271      5A455F54 
 16271      5F5F2000 
 16272              	.LASF30:
 16273 a8bd 5F5F5349 		.ascii	"__SIZE_TYPE__ unsigned int\000"
 16273      5A455F54 
 16273      5950455F 
 16273      5F20756E 
 16273      7369676E 
 16274              	.LASF803:
 16275 a8d8 55494E54 		.ascii	"UINTMAX_MAX (__UINTMAX_MAX__)\000"
 16275      4D41585F 
 16275      4D415820 
 16275      285F5F55 
 16275      494E544D 
 16276              	.LASF1178:
 16277 a8f6 55415254 		.ascii	"UART_LCR_PARITY_ODD (0 << 4)\000"
ARM GAS  /var/folders/z0/6xlwn_996xz3mwq1cgzkbq4r0000gp/T//cc3rPjEN.s 			page 407


 16277      5F4C4352 
 16277      5F504152 
 16277      4954595F 
 16277      4F444420 
 16278              	.LASF626:
 16279 a913 5F416C69 		.ascii	"_Alignof(x) __alignof(x)\000"
 16279      676E6F66 
 16279      28782920 
 16279      5F5F616C 
 16279      69676E6F 
 16280              	.LASF647:
 16281 a92c 5F5F6F66 		.ascii	"__offsetof(type,field) offsetof(type, field)\000"
 16281      66736574 
 16281      6F662874 
 16281      7970652C 
 16281      6669656C 
 16282              	.LASF740:
 16283 a959 5F494E54 		.ascii	"_INT8_T_DECLARED \000"
 16283      385F545F 
 16283      4445434C 
 16283      41524544 
 16283      2000
 16284              	.LASF51:
 16285 a96b 5F5F5549 		.ascii	"__UINT_LEAST8_TYPE__ unsigned char\000"
 16285      4E545F4C 
 16285      45415354 
 16285      385F5459 
 16285      50455F5F 
 16286              	.LASF1196:
 16287 a98e 55415254 		.ascii	"UART_LSR_THRE (1 << 5)\000"
 16287      5F4C5352 
 16287      5F544852 
 16287      45202831 
 16287      203C3C20 
 16288              	.LASF640:
 16289 a9a5 5F5F756E 		.ascii	"__unreachable() __builtin_unreachable()\000"
 16289      72656163 
 16289      6861626C 
 16289      65282920 
 16289      5F5F6275 
 16290              	.LASF1435:
 16291 a9cd 4353425F 		.ascii	"CSB_ELCON_COMMAND_PERIOD 1000\000"
 16291      454C434F 
 16291      4E5F434F 
 16291      4D4D414E 
 16291      445F5045 
 16292              	.LASF1296:
 16293 a9eb 4144435F 		.ascii	"ADC_CR_START_NOW ((1UL << 24))\000"
 16293      43525F53 
 16293      54415254 
 16293      5F4E4F57 
 16293      20282831 
 16294              	.LASF1168:
 16295 aa0a 55415254 		.ascii	"UART_LCR_WLEN_MASK (3 << 0)\000"
 16295      5F4C4352 
 16295      5F574C45 
 16295      4E5F4D41 
ARM GAS  /var/folders/z0/6xlwn_996xz3mwq1cgzkbq4r0000gp/T//cc3rPjEN.s 			page 408


 16295      534B2028 
 16296              	.LASF1182:
 16297 aa26 55415254 		.ascii	"UART_LCR_BREAK_EN (1 << 6)\000"
 16297      5F4C4352 
 16297      5F425245 
 16297      414B5F45 
 16297      4E202831 
 16298              	.LASF610:
 16299 aa41 5F5F5354 		.ascii	"__STRING(x) #x\000"
 16299      52494E47 
 16299      28782920 
 16299      237800
 16300              	.LASF1007:
 16301 aa50 4C50435F 		.ascii	"LPC_PMU_BASE 0x40038000\000"
 16301      504D555F 
 16301      42415345 
 16301      20307834 
 16301      30303338 
 16302              	.LASF749:
 16303 aa68 5F494E54 		.ascii	"_INT64_T_DECLARED \000"
 16303      36345F54 
 16303      5F444543 
 16303      4C415245 
 16303      442000
 16304              	.LASF796:
 16305 aa7b 494E545F 		.ascii	"INT_FAST32_MAX (__INT_FAST32_MAX__)\000"
 16305      46415354 
 16305      33325F4D 
 16305      41582028 
 16305      5F5F494E 
 16306              	.LASF1295:
 16307 aa9f 4144435F 		.ascii	"ADC_CR_START_MODE_SEL(SEL) ((SEL << 24))\000"
 16307      43525F53 
 16307      54415254 
 16307      5F4D4F44 
 16307      455F5345 
 16308              	.LASF1613:
 16309 aac8 74656D70 		.ascii	"tempstr\000"
 16309      73747200 
 16310              	.LASF550:
 16311 aad0 5F524545 		.ascii	"_REENT_MBTOWC_STATE(ptr) ((ptr)->_new._reent._mbtow"
 16311      4E545F4D 
 16311      42544F57 
 16311      435F5354 
 16311      41544528 
 16312 ab03 635F7374 		.ascii	"c_state)\000"
 16312      61746529 
 16312      00
 16313              	.LASF202:
 16314 ab0c 5F5F5546 		.ascii	"__UFRACT_FBIT__ 16\000"
 16314      52414354 
 16314      5F464249 
 16314      545F5F20 
 16314      313600
 16315              	.LASF911:
 16316 ab1f 5F5F5354 		.ascii	"__STATIC_INLINE static inline\000"
 16316      41544943 
ARM GAS  /var/folders/z0/6xlwn_996xz3mwq1cgzkbq4r0000gp/T//cc3rPjEN.s 			page 409


 16316      5F494E4C 
 16316      494E4520 
 16316      73746174 
 16317              	.LASF834:
 16318 ab3d 5F454E44 		.ascii	"_ENDL_LF \000"
 16318      4C5F4C46 
 16318      2000
 16319              	.LASF1472:
 16320 ab47 756E7369 		.ascii	"unsigned int\000"
 16320      676E6564 
 16320      20696E74 
 16320      00
 16321              	.LASF631:
 16322 ab54 5F5F6D61 		.ascii	"__malloc_like __attribute__((__malloc__))\000"
 16322      6C6C6F63 
 16322      5F6C696B 
 16322      65205F5F 
 16322      61747472 
 16323              	.LASF1231:
 16324 ab7e 55415254 		.ascii	"UART_SCICTRL_NACKDIS (1 << 1)\000"
 16324      5F534349 
 16324      4354524C 
 16324      5F4E4143 
 16324      4B444953 
 16325              	.LASF1056:
 16326 ab9c 53595343 		.ascii	"SYSCTL_SLPWAKE_FLASH_PD (1 << 2)\000"
 16326      544C5F53 
 16326      4C505741 
 16326      4B455F46 
 16326      4C415348 
 16327              	.LASF569:
 16328 abbd 5F5F5448 		.ascii	"__THROW \000"
 16328      524F5720 
 16328      00
 16329              	.LASF809:
 16330 abc6 57434841 		.ascii	"WCHAR_MIN (__WCHAR_MIN__)\000"
 16330      525F4D49 
 16330      4E20285F 
 16330      5F574348 
 16330      41525F4D 
 16331              	.LASF862:
 16332 abe0 4B45595F 		.ascii	"KEY_SUB 26\000"
 16332      53554220 
 16332      323600
 16333              	.LASF1378:
 16334 abeb 4932435F 		.ascii	"I2C_SEND_END 0x08\000"
 16334      53454E44 
 16334      5F454E44 
 16334      20307830 
 16334      3800
 16335              	.LASF1383:
 16336 abfd 4932435F 		.ascii	"I2C_MONITOR_CFG_SCL_OUTPUT I2C_I2MMCTRL_ENA_SCL\000"
 16336      4D4F4E49 
 16336      544F525F 
 16336      4346475F 
 16336      53434C5F 
 16337              	.LASF1551:
ARM GAS  /var/folders/z0/6xlwn_996xz3mwq1cgzkbq4r0000gp/T//cc3rPjEN.s 			page 410


 16338 ac2d 4353425F 		.ascii	"CSB_INPUT_T\000"
 16338      494E5055 
 16338      545F5400 
 16339              	.LASF1224:
 16340 ac39 55415254 		.ascii	"UART_ICR_IRDAEN (1 << 0)\000"
 16340      5F494352 
 16340      5F495244 
 16340      41454E20 
 16340      2831203C 
 16341              	.LASF895:
 16342 ac52 4D494E28 		.ascii	"MIN(a,b) (((a) < (b)) ? (a) : (b))\000"
 16342      612C6229 
 16342      20282828 
 16342      6129203C 
 16342      20286229 
 16343              	.LASF869:
 16344 ac75 49535F43 		.ascii	"IS_CONTROL_CHAR(x) ((x)<=31)\000"
 16344      4F4E5452 
 16344      4F4C5F43 
 16344      48415228 
 16344      78292028 
 16345              	.LASF729:
 16346 ac92 5F5F494E 		.ascii	"__INT32 \"l\"\000"
 16346      54333220 
 16346      226C2200 
 16347              	.LASF296:
 16348 ac9e 5F5F5548 		.ascii	"__UHA_IBIT__ 8\000"
 16348      415F4942 
 16348      49545F5F 
 16348      203800
 16349              	.LASF1431:
 16350 acad 5F434F4E 		.ascii	"_CONFIG_H_ \000"
 16350      4649475F 
 16350      485F2000 
 16351              	.LASF1526:
 16352 acb9 4353425F 		.ascii	"CSB_INIT_MODE_T\000"
 16352      494E4954 
 16352      5F4D4F44 
 16352      455F5400 
 16353              	.LASF676:
 16354 acc9 5F5F7472 		.ascii	"__trylocks_exclusive(...) __lock_annotate(exclusive"
 16354      796C6F63 
 16354      6B735F65 
 16354      78636C75 
 16354      73697665 
 16355 acfc 5F747279 		.ascii	"_trylock_function(__VA_ARGS__))\000"
 16355      6C6F636B 
 16355      5F66756E 
 16355      6374696F 
 16355      6E285F5F 
 16356              	.LASF1475:
 16357 ad1c 73686F72 		.ascii	"short int\000"
 16357      7420696E 
 16357      7400
 16358              	.LASF1553:
 16359 ad26 7061636B 		.ascii	"pack_config\000"
 16359      5F636F6E 
ARM GAS  /var/folders/z0/6xlwn_996xz3mwq1cgzkbq4r0000gp/T//cc3rPjEN.s 			page 411


 16359      66696700 
 16360              	.LASF475:
 16361 ad32 5F4D4143 		.ascii	"_MACHINE__TYPES_H \000"
 16361      48494E45 
 16361      5F5F5459 
 16361      5045535F 
 16361      482000
 16362              	.LASF871:
 16363 ad45 5F484953 		.ascii	"_HIST_DOWN 1\000"
 16363      545F444F 
 16363      574E2031 
 16363      00
 16364              	.LASF1608:
 16365 ad52 68656C70 		.ascii	"help\000"
 16365      00
 16366              	.LASF1317:
 16367 ad57 4932435F 		.ascii	"I2C_I2CONCLR_SIC ((1 << 3))\000"
 16367      4932434F 
 16367      4E434C52 
 16367      5F534943 
 16367      20282831 
 16368              	.LASF748:
 16369 ad73 5F5F696E 		.ascii	"__int32_t_defined 1\000"
 16369      7433325F 
 16369      745F6465 
 16369      66696E65 
 16369      64203100 
 16370              	.LASF627:
 16371 ad87 5F41746F 		.ascii	"_Atomic(T) struct { T volatile __val; }\000"
 16371      6D696328 
 16371      54292073 
 16371      74727563 
 16371      74207B20 
 16372              	.LASF950:
 16373 adaf 5343425F 		.ascii	"SCB_AIRCR_VECTKEYSTAT_Msk (0xFFFFUL << SCB_AIRCR_VE"
 16373      41495243 
 16373      525F5645 
 16373      43544B45 
 16373      59535441 
 16374 ade2 43544B45 		.ascii	"CTKEYSTAT_Pos)\000"
 16374      59535441 
 16374      545F506F 
 16374      732900
 16375              	.LASF1109:
 16376 adf1 46554E43 		.ascii	"FUNC1 0x1\000"
 16376      31203078 
 16376      3100
 16377              	.LASF915:
 16378 adfb 5F5F434F 		.ascii	"__CORE_CM0_H_DEPENDANT \000"
 16378      52455F43 
 16378      4D305F48 
 16378      5F444550 
 16378      454E4441 
 16379              	.LASF52:
 16380 ae13 5F5F5549 		.ascii	"__UINT_LEAST16_TYPE__ short unsigned int\000"
 16380      4E545F4C 
 16380      45415354 
ARM GAS  /var/folders/z0/6xlwn_996xz3mwq1cgzkbq4r0000gp/T//cc3rPjEN.s 			page 412


 16380      31365F54 
 16380      5950455F 
 16381              	.LASF507:
 16382 ae3c 5F54494D 		.ascii	"_TIME_T_ long\000"
 16382      455F545F 
 16382      206C6F6E 
 16382      6700
 16383              	.LASF362:
 16384 ae4a 5F4C4442 		.ascii	"_LDBL_EQ_DBL 1\000"
 16384      4C5F4551 
 16384      5F44424C 
 16384      203100
 16385              	.LASF437:
 16386 ae59 5F53495A 		.ascii	"_SIZE_T \000"
 16386      455F5420 
 16386      00
 16387              	.LASF836:
 16388 ae62 4B45595F 		.ascii	"KEY_NUL 0\000"
 16388      4E554C20 
 16388      3000
 16389              	.LASF2:
 16390 ae6c 5F5F474E 		.ascii	"__GNUC__ 5\000"
 16390      55435F5F 
 16390      203500
 16391              	.LASF1049:
 16392 ae77 53595343 		.ascii	"SYSCTL_RST_BOD (1 << 3)\000"
 16392      544C5F52 
 16392      53545F42 
 16392      4F442028 
 16392      31203C3C 
 16393              	.LASF134:
 16394 ae8f 5F5F464C 		.ascii	"__FLT_DENORM_MIN__ 1.4012984643248171e-45F\000"
 16394      545F4445 
 16394      4E4F524D 
 16394      5F4D494E 
 16394      5F5F2031 
 16395              	.LASF1602:
 16396 aeba 434F4E53 		.ascii	"CONSOLE_OUTPUT_T\000"
 16396      4F4C455F 
 16396      4F555450 
 16396      55545F54 
 16396      00
 16397              	.LASF614:
 16398 aecb 5F5F766F 		.ascii	"__volatile volatile\000"
 16398      6C617469 
 16398      6C652076 
 16398      6F6C6174 
 16398      696C6500 
 16399              	.LASF1589:
 16400 aedf 524F4C5F 		.ascii	"ROL_fault\000"
 16400      6661756C 
 16400      7400
 16401              	.LASF1096:
 16402 aee9 4D445F50 		.ascii	"MD_PUP (0x2 << 3)\000"
 16402      55502028 
 16402      30783220 
 16402      3C3C2033 
ARM GAS  /var/folders/z0/6xlwn_996xz3mwq1cgzkbq4r0000gp/T//cc3rPjEN.s 			page 413


 16402      2900
 16403              	.LASF1208:
 16404 aefb 55415254 		.ascii	"UART_MSR_RI (1 << 6)\000"
 16404      5F4D5352 
 16404      5F524920 
 16404      2831203C 
 16404      3C203629 
 16405              	.LASF101:
 16406 af10 5F5F5549 		.ascii	"__UINT_LEAST8_MAX__ 0xff\000"
 16406      4E545F4C 
 16406      45415354 
 16406      385F4D41 
 16406      585F5F20 
 16407              	.LASF560:
 16408 af29 5F524545 		.ascii	"_REENT_INIT_PTR(var) { memset((var), 0, sizeof(*(va"
 16408      4E545F49 
 16408      4E49545F 
 16408      50545228 
 16408      76617229 
 16409 af5c 72292929 		.ascii	"r))); _REENT_INIT_PTR_ZEROED(var); }\000"
 16409      3B205F52 
 16409      45454E54 
 16409      5F494E49 
 16409      545F5054 
 16410              	.LASF1611:
 16411 af81 72776C6F 		.ascii	"rwloc\000"
 16411      6300
 16412              	.LASF330:
 16413 af87 5F5F4152 		.ascii	"__ARM_ARCH_ISA_THUMB 1\000"
 16413      4D5F4152 
 16413      43485F49 
 16413      53415F54 
 16413      48554D42 
 16414              	.LASF913:
 16415 af9e 5F5F434F 		.ascii	"__CORE_CMINSTR_H \000"
 16415      52455F43 
 16415      4D494E53 
 16415      54525F48 
 16415      2000
 16416              	.LASF91:
 16417 afb0 5F5F5549 		.ascii	"__UINT32_MAX__ 0xffffffffUL\000"
 16417      4E543332 
 16417      5F4D4158 
 16417      5F5F2030 
 16417      78666666 
 16418              	.LASF93:
 16419 afcc 5F5F494E 		.ascii	"__INT_LEAST8_MAX__ 0x7f\000"
 16419      545F4C45 
 16419      41535438 
 16419      5F4D4158 
 16419      5F5F2030 
 16420              	.LASF811:
 16421 afe4 57494E54 		.ascii	"WINT_MAX (__WINT_MAX__)\000"
 16421      5F4D4158 
 16421      20285F5F 
 16421      57494E54 
 16421      5F4D4158 
ARM GAS  /var/folders/z0/6xlwn_996xz3mwq1cgzkbq4r0000gp/T//cc3rPjEN.s 			page 414


 16422              	.LASF959:
 16423 affc 5343425F 		.ascii	"SCB_SCR_SLEEPDEEP_Pos 2\000"
 16423      5343525F 
 16423      534C4545 
 16423      50444545 
 16423      505F506F 
 16424              	.LASF949:
 16425 b014 5343425F 		.ascii	"SCB_AIRCR_VECTKEYSTAT_Pos 16\000"
 16425      41495243 
 16425      525F5645 
 16425      43544B45 
 16425      59535441 
 16426              	.LASF755:
 16427 b031 5F5F696E 		.ascii	"__int_least16_t_defined 1\000"
 16427      745F6C65 
 16427      61737431 
 16427      365F745F 
 16427      64656669 
 16428              	.LASF210:
 16429 b04b 5F5F4C46 		.ascii	"__LFRACT_MAX__ 0X7FFFFFFFP-31LR\000"
 16429      52414354 
 16429      5F4D4158 
 16429      5F5F2030 
 16429      58374646 
 16430              	.LASF778:
 16431 b06b 494E5433 		.ascii	"INT32_MAX (__INT32_MAX__)\000"
 16431      325F4D41 
 16431      5820285F 
 16431      5F494E54 
 16431      33325F4D 
 16432              		.ident	"GCC: (GNU Tools for ARM Embedded Processors) 5.4.1 20160919 (release) [ARM/embedded-5-bran
ARM GAS  /var/folders/z0/6xlwn_996xz3mwq1cgzkbq4r0000gp/T//cc3rPjEN.s 			page 415


DEFINED SYMBOLS
                            *ABS*:0000000000000000 console.c
/var/folders/z0/6xlwn_996xz3mwq1cgzkbq4r0000gp/T//cc3rPjEN.s:79     .text.measure:0000000000000000 $t
/var/folders/z0/6xlwn_996xz3mwq1cgzkbq4r0000gp/T//cc3rPjEN.s:83     .text.measure:0000000000000000 measure
/var/folders/z0/6xlwn_996xz3mwq1cgzkbq4r0000gp/T//cc3rPjEN.s:223    .text.measure:00000000000000b8 $d
/var/folders/z0/6xlwn_996xz3mwq1cgzkbq4r0000gp/T//cc3rPjEN.s:238    .text.set:0000000000000000 $t
/var/folders/z0/6xlwn_996xz3mwq1cgzkbq4r0000gp/T//cc3rPjEN.s:242    .text.set:0000000000000000 set
/var/folders/z0/6xlwn_996xz3mwq1cgzkbq4r0000gp/T//cc3rPjEN.s:351    .rodata.set:0000000000000000 $d
/var/folders/z0/6xlwn_996xz3mwq1cgzkbq4r0000gp/T//cc3rPjEN.s:1064   .text.set:00000000000002e4 $d
/var/folders/z0/6xlwn_996xz3mwq1cgzkbq4r0000gp/T//cc3rPjEN.s:1079   .text.get:0000000000000000 $t
/var/folders/z0/6xlwn_996xz3mwq1cgzkbq4r0000gp/T//cc3rPjEN.s:1083   .text.get:0000000000000000 get
/var/folders/z0/6xlwn_996xz3mwq1cgzkbq4r0000gp/T//cc3rPjEN.s:1170   .rodata.get:0000000000000000 $d
/var/folders/z0/6xlwn_996xz3mwq1cgzkbq4r0000gp/T//cc3rPjEN.s:1365   .text.get:0000000000000144 $d
/var/folders/z0/6xlwn_996xz3mwq1cgzkbq4r0000gp/T//cc3rPjEN.s:1380   .text.chrg:0000000000000000 $t
/var/folders/z0/6xlwn_996xz3mwq1cgzkbq4r0000gp/T//cc3rPjEN.s:1384   .text.chrg:0000000000000000 chrg
/var/folders/z0/6xlwn_996xz3mwq1cgzkbq4r0000gp/T//cc3rPjEN.s:1449   .text.chrg:000000000000003c $d
/var/folders/z0/6xlwn_996xz3mwq1cgzkbq4r0000gp/T//cc3rPjEN.s:1460   .text.config_def:0000000000000000 $t
/var/folders/z0/6xlwn_996xz3mwq1cgzkbq4r0000gp/T//cc3rPjEN.s:1464   .text.config_def:0000000000000000 config_def
/var/folders/z0/6xlwn_996xz3mwq1cgzkbq4r0000gp/T//cc3rPjEN.s:1532   .text.config_def:0000000000000044 $d
/var/folders/z0/6xlwn_996xz3mwq1cgzkbq4r0000gp/T//cc3rPjEN.s:1541   .text.help:0000000000000000 $t
/var/folders/z0/6xlwn_996xz3mwq1cgzkbq4r0000gp/T//cc3rPjEN.s:1545   .text.help:0000000000000000 help
/var/folders/z0/6xlwn_996xz3mwq1cgzkbq4r0000gp/T//cc3rPjEN.s:1655   .text.help:0000000000000080 $d
               .rodata.helpstring:0000000000000000 commands
/var/folders/z0/6xlwn_996xz3mwq1cgzkbq4r0000gp/T//cc3rPjEN.s:1675   .text.bal:0000000000000000 $t
/var/folders/z0/6xlwn_996xz3mwq1cgzkbq4r0000gp/T//cc3rPjEN.s:1679   .text.bal:0000000000000000 bal
/var/folders/z0/6xlwn_996xz3mwq1cgzkbq4r0000gp/T//cc3rPjEN.s:1805   .text.bal:0000000000000070 $d
/var/folders/z0/6xlwn_996xz3mwq1cgzkbq4r0000gp/T//cc3rPjEN.s:1817   .text.my_atou:0000000000000000 $t
/var/folders/z0/6xlwn_996xz3mwq1cgzkbq4r0000gp/T//cc3rPjEN.s:1822   .text.my_atou:0000000000000000 my_atou
/var/folders/z0/6xlwn_996xz3mwq1cgzkbq4r0000gp/T//cc3rPjEN.s:1870   .text.console_init:0000000000000000 $t
/var/folders/z0/6xlwn_996xz3mwq1cgzkbq4r0000gp/T//cc3rPjEN.s:1875   .text.console_init:0000000000000000 console_init
/var/folders/z0/6xlwn_996xz3mwq1cgzkbq4r0000gp/T//cc3rPjEN.s:1918   .text.console_init:0000000000000020 $d
/var/folders/z0/6xlwn_996xz3mwq1cgzkbq4r0000gp/T//cc3rPjEN.s:1925   .text.executerl:0000000000000000 $t
/var/folders/z0/6xlwn_996xz3mwq1cgzkbq4r0000gp/T//cc3rPjEN.s:1930   .text.executerl:0000000000000000 executerl
/var/folders/z0/6xlwn_996xz3mwq1cgzkbq4r0000gp/T//cc3rPjEN.s:2014   .text.executerl:0000000000000054 $d
/var/folders/z0/6xlwn_996xz3mwq1cgzkbq4r0000gp/T//cc3rPjEN.s:2024   .text.Output_Measurements:0000000000000000 $t
/var/folders/z0/6xlwn_996xz3mwq1cgzkbq4r0000gp/T//cc3rPjEN.s:2029   .text.Output_Measurements:0000000000000000 Output_Measurements
/var/folders/z0/6xlwn_996xz3mwq1cgzkbq4r0000gp/T//cc3rPjEN.s:2176   .text.Output_Measurements:00000000000000a0 $d
/var/folders/z0/6xlwn_996xz3mwq1cgzkbq4r0000gp/T//cc3rPjEN.s:2453   .rodata.helpstring:0000000000000000 helpstring
/var/folders/z0/6xlwn_996xz3mwq1cgzkbq4r0000gp/T//cc3rPjEN.s:2187   .bss.console_output:0000000000000000 $d
/var/folders/z0/6xlwn_996xz3mwq1cgzkbq4r0000gp/T//cc3rPjEN.s:2191   .bss.console_output:0000000000000000 console_output
/var/folders/z0/6xlwn_996xz3mwq1cgzkbq4r0000gp/T//cc3rPjEN.s:2194   .rodata.locstring:0000000000000000 $d
/var/folders/z0/6xlwn_996xz3mwq1cgzkbq4r0000gp/T//cc3rPjEN.s:2198   .rodata.locstring:0000000000000000 locstring
/var/folders/z0/6xlwn_996xz3mwq1cgzkbq4r0000gp/T//cc3rPjEN.s:2217   .rodata.CSB_SSM_MODE_NAMES:0000000000000000 $d
/var/folders/z0/6xlwn_996xz3mwq1cgzkbq4r0000gp/T//cc3rPjEN.s:2221   .rodata.CSB_SSM_MODE_NAMES:0000000000000000 CSB_SSM_MODE_NAMES
/var/folders/z0/6xlwn_996xz3mwq1cgzkbq4r0000gp/T//cc3rPjEN.s:2227   .rodata.handlers:0000000000000000 $d
/var/folders/z0/6xlwn_996xz3mwq1cgzkbq4r0000gp/T//cc3rPjEN.s:2231   .rodata.handlers:0000000000000000 handlers
/var/folders/z0/6xlwn_996xz3mwq1cgzkbq4r0000gp/T//cc3rPjEN.s:2240   .bss.lastPackCurrentPrintTime:0000000000000000 $d
/var/folders/z0/6xlwn_996xz3mwq1cgzkbq4r0000gp/T//cc3rPjEN.s:2244   .bss.lastPackCurrentPrintTime:0000000000000000 lastPackCurrentPrintTime
/var/folders/z0/6xlwn_996xz3mwq1cgzkbq4r0000gp/T//cc3rPjEN.s:2247   .rodata.str1.4:0000000000000000 $d
/var/folders/z0/6xlwn_996xz3mwq1cgzkbq4r0000gp/T//cc3rPjEN.s:2435   .bss.lastPackVoltagePrintTime:0000000000000000 $d
/var/folders/z0/6xlwn_996xz3mwq1cgzkbq4r0000gp/T//cc3rPjEN.s:2439   .bss.lastPackVoltagePrintTime:0000000000000000 lastPackVoltagePrintTime
/var/folders/z0/6xlwn_996xz3mwq1cgzkbq4r0000gp/T//cc3rPjEN.s:2442   .bss.csb_input:0000000000000000 $d
/var/folders/z0/6xlwn_996xz3mwq1cgzkbq4r0000gp/T//cc3rPjEN.s:2446   .bss.csb_input:0000000000000000 csb_input
/var/folders/z0/6xlwn_996xz3mwq1cgzkbq4r0000gp/T//cc3rPjEN.s:2449   .rodata.helpstring:0000000000000000 $d
/var/folders/z0/6xlwn_996xz3mwq1cgzkbq4r0000gp/T//cc3rPjEN.s:2462   .rodata.nargs:0000000000000000 $d
/var/folders/z0/6xlwn_996xz3mwq1cgzkbq4r0000gp/T//cc3rPjEN.s:2466   .rodata.nargs:0000000000000000 nargs
/var/folders/z0/6xlwn_996xz3mwq1cgzkbq4r0000gp/T//cc3rPjEN.s:2475   .rodata.CSB_INIT_MODE_NAMES:0000000000000000 $d
ARM GAS  /var/folders/z0/6xlwn_996xz3mwq1cgzkbq4r0000gp/T//cc3rPjEN.s 			page 416


/var/folders/z0/6xlwn_996xz3mwq1cgzkbq4r0000gp/T//cc3rPjEN.s:2479   .rodata.CSB_INIT_MODE_NAMES:0000000000000000 CSB_INIT_MODE_NAMES
/var/folders/z0/6xlwn_996xz3mwq1cgzkbq4r0000gp/T//cc3rPjEN.s:2487   .bss.csb_state:0000000000000000 $d
/var/folders/z0/6xlwn_996xz3mwq1cgzkbq4r0000gp/T//cc3rPjEN.s:2491   .bss.csb_state:0000000000000000 csb_state
/var/folders/z0/6xlwn_996xz3mwq1cgzkbq4r0000gp/T//cc3rPjEN.s:2494   .rodata.CSB_CHARGE_MODE_NAMES:0000000000000000 $d
/var/folders/z0/6xlwn_996xz3mwq1cgzkbq4r0000gp/T//cc3rPjEN.s:2498   .rodata.CSB_CHARGE_MODE_NAMES:0000000000000000 CSB_CHARGE_MODE_NAMES
                     .debug_frame:0000000000000010 $d
                           .group:0000000000000000 wm4.0.875846967d3f9b39cda0d496d1540481
                           .group:0000000000000000 wm4._newlib_version.h.4.ad342815780c8db09778091a421b5b5b
                           .group:0000000000000000 wm4.newlib.h.21.0b9fc973bddc8b940a18de2b6ea6adc7
                           .group:0000000000000000 wm4.features.h.22.692cd1f2e947ca7b8fea300222f5f1f2
                           .group:0000000000000000 wm4.config.h.219.65a553ab5bef5482f0d7880b0d33015e
                           .group:0000000000000000 wm4._ansi.h.23.84af8eb8cd468d25cc5f45f5eb13ec51
                           .group:0000000000000000 wm4.stddef.h.39.99b5021e28f91cdb161c889e07266673
                           .group:0000000000000000 wm4._default_types.h.6.35ee9e747940367bf2a634907d1c2382
                           .group:0000000000000000 wm4.lock.h.2.9bc98482741e5e2a9450b12934a684ea
                           .group:0000000000000000 wm4._types.h.125.5cf8a495f1f7ef36777ad868a1e32068
                           .group:0000000000000000 wm4.stddef.h.161.5349cb105733e8777bfb0cf53c4e3f34
                           .group:0000000000000000 wm4._types.h.183.c226d164ceca1f2ecb9ae9360c54a098
                           .group:0000000000000000 wm4.reent.h.17.23b059516345f8f5abfa01ddc379570f
                           .group:0000000000000000 wm4.cdefs.h.47.d0af77d4010113800282e6476aca9724
                           .group:0000000000000000 wm4.string.h.15.dab3980bf35408a4c507182805e2de3a
                           .group:0000000000000000 wm4.stddef.h.161.19e15733342b50ead2919490b095303e
                           .group:0000000000000000 wm4.stdlib.h.13.4ed386f5c1a80d71e72172885d946ef2
                           .group:0000000000000000 wm4.alloca.h.8.dfc0c703c47ec3e69746825b17d9e66d
                           .group:0000000000000000 wm4.stdlib.h.56.f7bb76d8eb43fb7e79a949819dbf4bda
                           .group:0000000000000000 wm4.stdbool.h.29.07dce69c3b78884144b7f7bd19483461
                           .group:0000000000000000 wm4._intsup.h.10.b82bf99f69d6a5c085fc866de0d3eb9b
                           .group:0000000000000000 wm4._stdint.h.10.7a5f60e6741af4a5594a3867d347e1f9
                           .group:0000000000000000 wm4.stdint.h.23.373a9d32a9e4c2e88fd347156532d281
                           .group:0000000000000000 wm4.microrl_config.h.6.70661e8aebc9ea06396eb640138e525a
                           .group:0000000000000000 wm4.microrl.h.9.b0be5a31302c3975bc49057dcebb5e35
                           .group:0000000000000000 wm4.console_types.h.2.a02fae73893c1ee5db633236ffaa1ebf
                           .group:0000000000000000 wm4.lpc_types.h.33.09204c429b0b339113f4a0f79041fbe5
                           .group:0000000000000000 wm4.sys_config.h.31.9f234e9c90333d233c7e647ebe63e928
                           .group:0000000000000000 wm4.cmsis_11cxx.h.33.407e9bbb5d170cd1552d3f7dc3fd5c42
                           .group:0000000000000000 wm4.core_cm0.h.32.192d13cfa8b31e63c86621de62eb153f
                           .group:0000000000000000 wm4.core_cm0.h.120.f4257ea7d0bce0cbabffe223e23b2fd4
                           .group:0000000000000000 wm4.chip.h.116.857da603c399e979152c31968de4baae
                           .group:0000000000000000 wm4.pmu_11xx.h.33.1d6b708881441cb98d19b8bab3caa180
                           .group:0000000000000000 wm4.sysctl_11xx.h.33.ae61a1181e608f8409883008e291930c
                           .group:0000000000000000 wm4.clock_11xx.h.33.23290a9e2ed919e3a6958d25130bc848
                           .group:0000000000000000 wm4.iocon_11xx.h.33.25e2b3cde122df23fb07b984cb4f3a93
                           .group:0000000000000000 wm4.timer_11xx.h.33.c92f50a9325789ee6a8ffd6248980d70
                           .group:0000000000000000 wm4.ring_buffer.h.33.2f271415f1f27d60350fb4738c5cbee6
                           .group:0000000000000000 wm4.uart_11xx.h.98.fe68b709973730a4fba3f3ce60c5c312
                           .group:0000000000000000 wm4.wwdt_11xx.h.33.5768344983cb842df69cc91ea86cabb0
                           .group:0000000000000000 wm4.ssp_11xx.h.33.af054d3d65f4cb0c078be40bb872ec37
                           .group:0000000000000000 wm4.error.h.38.ae74fe1dd9d19c80c505f1fda144fce8
                           .group:0000000000000000 wm4.adc_11xx.h.33.6ce7433ac6b30df70a6993d01dbd513f
                           .group:0000000000000000 wm4.i2c_11xx.h.33.2b506d1350e00a8c26e8bf006a5f9390
                           .group:0000000000000000 wm4.ccand_11xx.h.33.99627f4b529fecdc77b0877ab6fe5266
                           .group:0000000000000000 wm4.config.h.2.39c26dd6e247091a849ca9552389eb06

UNDEFINED SYMBOLS
strcmp
Board_Println
utoa
ARM GAS  /var/folders/z0/6xlwn_996xz3mwq1cgzkbq4r0000gp/T//cc3rPjEN.s 			page 417


MY18_Pack_Config
MY16_Pack_Config
Board_Print
Board_Println_BLOCKING
Board_Print_BLOCKING
