ARM GAS  /var/folders/z0/6xlwn_996xz3mwq1cgzkbq4r0000gp/T//ccBgBTlB.s 			page 1


   1              		.syntax unified
   2              		.cpu cortex-m0
   3              		.fpu softvfp
   4              		.eabi_attribute 20, 1	@ Tag_ABI_FP_denormal
   5              		.eabi_attribute 21, 1	@ Tag_ABI_FP_exceptions
   6              		.eabi_attribute 23, 3	@ Tag_ABI_FP_number_model
   7              		.eabi_attribute 24, 1	@ Tag_ABI_align8_needed
   8              		.eabi_attribute 25, 1	@ Tag_ABI_align8_preserved
   9              		.eabi_attribute 26, 1	@ Tag_ABI_enum_size
  10              		.eabi_attribute 30, 2	@ Tag_ABI_optimization_goals
  11              		.eabi_attribute 34, 0	@ Tag_CPU_unaligned_access
  12              		.eabi_attribute 18, 4	@ Tag_ABI_PCS_wchar_t
  13              		.file	"console.c"
  14              	@ GNU C89 (GNU Tools for ARM Embedded Processors) version 5.4.1 20160919 (release) [ARM/embedded-5-
  15              	@	compiled by GNU C version 4.2.1 (Based on Apple Inc. build 5658) (LLVM build 2336.9.00), GMP vers
  16              	@ GGC heuristics: --param ggc-min-expand=100 --param ggc-min-heapsize=131072
  17              	@ options passed:  -I . -I inc/
  18              	@ -I ../../lib/lpc11cx4-library/lpc_chip_11cxx_lib/inc
  19              	@ -I ../../lib/lpc11cx4-library/evt_lib/inc/ -I ../../lib/CANlib
  20              	@ -imultilib armv6-m
  21              	@ -iprefix /usr/local/Cellar/gcc-arm-none-eabi/20160928/bin/../lib/gcc/arm-none-eabi/5.4.1/
  22              	@ -isysroot /usr/local/Cellar/gcc-arm-none-eabi/20160928/bin/../arm-none-eabi
  23              	@ -MD bin/console.d -MF bin/console.d -MP -MQ bin/console.o
  24              	@ -D__USES_INITFINI__ -D UART_BAUD=57600 -D CORE_M0 -D DEBUG_ENABLE
  25              	@ -D FSAE_DRIVERS -D CAN_ARCHITECTURE_ARM src/console.c -mcpu=cortex-m0
  26              	@ -mthumb -auxbase-strip bin/console.o -g -ggdb3 -O2 -Wall
  27              	@ -Wstrict-prototypes -Wextra -std=gnu90 -ffunction-sections
  28              	@ -fdata-sections -fdiagnostics-color=always -fverbose-asm
  29              	@ options enabled:  -faggressive-loop-optimizations -falign-functions
  30              	@ -falign-jumps -falign-labels -falign-loops -fauto-inc-dec
  31              	@ -fbranch-count-reg -fcaller-saves -fchkp-check-incomplete-type
  32              	@ -fchkp-check-read -fchkp-check-write -fchkp-instrument-calls
  33              	@ -fchkp-narrow-bounds -fchkp-optimize -fchkp-store-bounds
  34              	@ -fchkp-use-static-bounds -fchkp-use-static-const-bounds
  35              	@ -fchkp-use-wrappers -fcombine-stack-adjustments -fcommon -fcompare-elim
  36              	@ -fcprop-registers -fcrossjumping -fcse-follow-jumps -fdata-sections
  37              	@ -fdefer-pop -fdelete-null-pointer-checks -fdevirtualize
  38              	@ -fdevirtualize-speculatively -fdwarf2-cfi-asm -fearly-inlining
  39              	@ -feliminate-unused-debug-types -fexpensive-optimizations
  40              	@ -fforward-propagate -ffunction-cse -ffunction-sections -fgcse -fgcse-lm
  41              	@ -fgnu-runtime -fgnu-unique -fguess-branch-probability
  42              	@ -fhoist-adjacent-loads -fident -fif-conversion -fif-conversion2
  43              	@ -findirect-inlining -finline -finline-atomics
  44              	@ -finline-functions-called-once -finline-small-functions -fipa-cp
  45              	@ -fipa-cp-alignment -fipa-icf -fipa-icf-functions -fipa-icf-variables
  46              	@ -fipa-profile -fipa-pure-const -fipa-reference -fipa-sra
  47              	@ -fira-hoist-pressure -fira-share-save-slots -fira-share-spill-slots
  48              	@ -fisolate-erroneous-paths-dereference -fivopts -fkeep-static-consts
  49              	@ -fleading-underscore -flifetime-dse -flra-remat -flto-odr-type-merging
  50              	@ -fmath-errno -fmerge-constants -fmerge-debug-strings
  51              	@ -fmove-loop-invariants -fomit-frame-pointer -foptimize-sibling-calls
  52              	@ -foptimize-strlen -fpartial-inlining -fpeephole -fpeephole2
  53              	@ -fprefetch-loop-arrays -freg-struct-return -freorder-blocks
  54              	@ -freorder-functions -frerun-cse-after-loop
  55              	@ -fsched-critical-path-heuristic -fsched-dep-count-heuristic
  56              	@ -fsched-group-heuristic -fsched-interblock -fsched-last-insn-heuristic
  57              	@ -fsched-pressure -fsched-rank-heuristic -fsched-spec
ARM GAS  /var/folders/z0/6xlwn_996xz3mwq1cgzkbq4r0000gp/T//ccBgBTlB.s 			page 2


  58              	@ -fsched-spec-insn-heuristic -fsched-stalled-insns-dep -fschedule-insns2
  59              	@ -fsection-anchors -fsemantic-interposition -fshow-column -fshrink-wrap
  60              	@ -fsigned-zeros -fsplit-ivs-in-unroller -fsplit-wide-types -fssa-phiopt
  61              	@ -fstdarg-opt -fstrict-aliasing -fstrict-overflow
  62              	@ -fstrict-volatile-bitfields -fsync-libcalls -fthread-jumps
  63              	@ -ftoplevel-reorder -ftrapping-math -ftree-bit-ccp -ftree-builtin-call-dce
  64              	@ -ftree-ccp -ftree-ch -ftree-coalesce-vars -ftree-copy-prop
  65              	@ -ftree-copyrename -ftree-cselim -ftree-dce -ftree-dominator-opts
  66              	@ -ftree-dse -ftree-forwprop -ftree-fre -ftree-loop-if-convert
  67              	@ -ftree-loop-im -ftree-loop-ivcanon -ftree-loop-optimize
  68              	@ -ftree-parallelize-loops= -ftree-phiprop -ftree-pre -ftree-pta
  69              	@ -ftree-reassoc -ftree-scev-cprop -ftree-sink -ftree-slsr -ftree-sra
  70              	@ -ftree-switch-conversion -ftree-tail-merge -ftree-ter -ftree-vrp
  71              	@ -funit-at-a-time -fvar-tracking -fvar-tracking-assignments -fverbose-asm
  72              	@ -fzero-initialized-in-bss -mlittle-endian -mpic-data-is-text-relative
  73              	@ -msched-prolog -mthumb -mvectorize-with-neon-quad
  74              	
  75              		.text
  76              	.Ltext0:
  77              		.cfi_sections	.debug_frame
  78              		.section	.text.measure,"ax",%progbits
  79              		.align	2
  80              		.code	16
  81              		.thumb_func
  82              		.type	measure, %function
  83              	measure:
  84              	.LFB203:
  85              		.file 1 "src/console.c"
   1:src/console.c **** #include <string.h>
   2:src/console.c **** #include <stdlib.h>
   3:src/console.c **** #include "console.h"
   4:src/console.c **** #include "microrl.h"
   5:src/console.c **** #include "board.h"
   6:src/console.c **** #include "console_types.h"
   7:src/console.c **** #include "config.h"
   8:src/console.c **** #include "pack_config.h"
   9:src/console.c **** #include "ssm.h"
  10:src/console.c **** 
  11:src/console.c **** static CSB_INPUT_T *csb_input;
  12:src/console.c **** static CSB_STATE_T *csb_state;
  13:src/console.c **** static CONSOLE_OUTPUT_T *console_output;
  14:src/console.c **** 
  15:src/console.c **** static uint32_t lastPackCurrentPrintTime = 0;
  16:src/console.c **** static uint32_t lastPackVoltagePrintTime = 0;
  17:src/console.c **** 
  18:src/console.c **** // [TODO] Fix to not parse strings falsely
  19:src/console.c **** uint32_t my_atou(const char *str) {
  20:src/console.c ****     uint32_t res = 0; // Initialize result
  21:src/console.c **** 
  22:src/console.c ****     // Iterate through all characters of input string and
  23:src/console.c ****     // update result
  24:src/console.c ****     uint32_t i;
  25:src/console.c ****     for ( i = 0; str[i] != '\0'; ++i)
  26:src/console.c ****         res = res*10 + str[i] - '0';
  27:src/console.c **** 
  28:src/console.c ****     // return result.
  29:src/console.c ****     return res;
ARM GAS  /var/folders/z0/6xlwn_996xz3mwq1cgzkbq4r0000gp/T//ccBgBTlB.s 			page 3


  30:src/console.c **** }
  31:src/console.c **** 
  32:src/console.c **** static void get(const char * const * argv) {
  33:src/console.c ****     rw_loc_label_t rwloc;
  34:src/console.c **** 
  35:src/console.c ****     //loop over r/w entries
  36:src/console.c ****     bool foundloc = false;
  37:src/console.c ****     for (rwloc = 0; rwloc < RWL_LENGTH; ++rwloc){
  38:src/console.c ****         if (strcmp(argv[1],locstring[rwloc]) == 0){
  39:src/console.c ****             foundloc = true;
  40:src/console.c ****             break;
  41:src/console.c ****         }
  42:src/console.c ****     }
  43:src/console.c **** 
  44:src/console.c ****     if (foundloc) {
  45:src/console.c ****         char tempstr[20];
  46:src/console.c ****         switch (rwloc) {
  47:src/console.c ****             case RWL_cell_min_mV:
  48:src/console.c ****                 utoa(csb_state->pack_config->cell_min_mV, tempstr,10);
  49:src/console.c ****                 Board_Println(tempstr);
  50:src/console.c ****                 break;
  51:src/console.c ****             case RWL_cell_max_mV:
  52:src/console.c ****                 utoa(csb_state->pack_config->cell_max_mV, tempstr,10);
  53:src/console.c ****                 Board_Println(tempstr);
  54:src/console.c ****                 break;
  55:src/console.c ****             case RWL_cell_capacity_cAh:
  56:src/console.c ****                 utoa(csb_state->pack_config->cell_capacity_cAh, tempstr,10);
  57:src/console.c ****                 Board_Println(tempstr);
  58:src/console.c ****                 break;
  59:src/console.c ****             case RWL_num_modules:
  60:src/console.c ****                 utoa(csb_state->pack_config->num_modules, tempstr,10);
  61:src/console.c ****                 Board_Println(tempstr);
  62:src/console.c ****                 break;
  63:src/console.c ****             case RWL_module_cell_count:
  64:src/console.c ****                 utoa(csb_state->pack_config->module_cell_count, tempstr,10);
  65:src/console.c ****                 Board_Println(tempstr);
  66:src/console.c ****                 break;
  67:src/console.c ****             case RWL_cell_charge_c_rating_cC:
  68:src/console.c ****               utoa(csb_state->pack_config->cell_charge_c_rating_cC, tempstr,10);
  69:src/console.c ****               Board_Println(tempstr);
  70:src/console.c ****               break;
  71:src/console.c ****             case RWL_bal_on_thresh_mV:
  72:src/console.c ****                 utoa(csb_state->pack_config->bal_on_thresh_mV, tempstr,10);
  73:src/console.c ****                 Board_Println(tempstr);
  74:src/console.c ****                 break;
  75:src/console.c ****             case RWL_bal_off_thresh_mV:
  76:src/console.c ****                 utoa(csb_state->pack_config->bal_off_thresh_mV, tempstr,10);
  77:src/console.c ****                 Board_Println(tempstr);
  78:src/console.c ****                 break;
  79:src/console.c ****             case RWL_pack_cells_p:
  80:src/console.c ****                 utoa(csb_state->pack_config->pack_cells_p, tempstr,10);
  81:src/console.c ****                 Board_Println(tempstr);
  82:src/console.c ****                 break;
  83:src/console.c ****             case RWL_cv_min_current_mA:
  84:src/console.c ****                 utoa(csb_state->pack_config->cv_min_current_mA, tempstr,10);
  85:src/console.c ****                 Board_Println(tempstr);
  86:src/console.c ****                 break;
ARM GAS  /var/folders/z0/6xlwn_996xz3mwq1cgzkbq4r0000gp/T//ccBgBTlB.s 			page 4


  87:src/console.c ****             case RWL_cv_min_current_ms:
  88:src/console.c ****                 utoa(csb_state->pack_config->cv_min_current_ms, tempstr,10);
  89:src/console.c ****                 Board_Println(tempstr);
  90:src/console.c ****                 break;
  91:src/console.c ****             case RWL_cc_cell_voltage_mV:
  92:src/console.c ****                 utoa(csb_state->pack_config->cc_cell_voltage_mV, tempstr,10);
  93:src/console.c ****                 Board_Println(tempstr);
  94:src/console.c ****                 break;
  95:src/console.c ****             case RWL_cc_charge_voltage_mV:
  96:src/console.c ****                 utoa(csb_state->pack_config->cc_charge_voltage_mV, tempstr,10);
  97:src/console.c ****                 Board_Println(tempstr);
  98:src/console.c ****                 break;
  99:src/console.c ****             case RWL_cc_charge_current_mA:
 100:src/console.c ****                 utoa(csb_state->pack_config->cc_charge_current_mA, tempstr,10);
 101:src/console.c ****                 Board_Println(tempstr);
 102:src/console.c ****                 break;
 103:src/console.c ****             case RWL_cv_charge_voltage_mV:
 104:src/console.c ****                 utoa(csb_state->pack_config->cv_charge_voltage_mV, tempstr,10);
 105:src/console.c ****                 Board_Println(tempstr);
 106:src/console.c ****                 break;
 107:src/console.c ****             case RWL_cv_charge_current_mA:
 108:src/console.c ****                 utoa(csb_state->pack_config->cv_charge_current_mA, tempstr,10);
 109:src/console.c ****                 Board_Println(tempstr);
 110:src/console.c ****                 break;
 111:src/console.c ****             case RWL_bms_comm:
 112:src/console.c ****                 Board_Println(BMS_COMM_NAMES[csb_state->pack_config->bms_comm]);
 113:src/console.c ****                 break;
 114:src/console.c ****             case RWL_LENGTH:
 115:src/console.c ****                 break;
 116:src/console.c ****         }
 117:src/console.c **** 
 118:src/console.c ****     }
 119:src/console.c ****     else {
 120:src/console.c ****         //loop over r/o entries
 121:src/console.c ****         ro_loc_label_t roloc;
 122:src/console.c ****         for (roloc = (ro_loc_label_t)ROL_FIRST; roloc< ROL_LENGTH; ++roloc){
 123:src/console.c ****             if (strcmp(argv[1],locstring[roloc]) == 0){
 124:src/console.c ****                 foundloc = true;
 125:src/console.c ****                 break;
 126:src/console.c ****             }
 127:src/console.c ****         }
 128:src/console.c ****         if (foundloc) {
 129:src/console.c ****             char tempstr[20];
 130:src/console.c ****             switch (roloc) {
 131:src/console.c ****                 case ROL_total_num_cells:
 132:src/console.c ****                     utoa(csb_state->pack_config->total_num_cells, tempstr,10);
 133:src/console.c ****                     Board_Println(tempstr);
 134:src/console.c ****                     break;
 135:src/console.c ****                 case ROL_pack_name:
 136:src/console.c ****                     Board_Println(PACK_NAMES[csb_state->pack_config->pack_name]);
 137:src/console.c ****                     break;
 138:src/console.c ****                 case ROL_state:
 139:src/console.c ****                     Board_Println(CSB_SSM_MODE_NAMES[csb_state->curr_mode]);
 140:src/console.c ****                     Board_Println(CSB_INIT_MODE_NAMES[csb_state->init_state]);
 141:src/console.c ****                     Board_Println(CSB_CHARGE_MODE_NAMES[csb_state->charge_state]);
 142:src/console.c ****                     break;
 143:src/console.c ****                 case ROL_pack_cell_max_mV:
ARM GAS  /var/folders/z0/6xlwn_996xz3mwq1cgzkbq4r0000gp/T//ccBgBTlB.s 			page 5


 144:src/console.c ****                     utoa(csb_input->pack_status->pack_cell_max_mV, tempstr,10);
 145:src/console.c ****                     Board_Println(tempstr);
 146:src/console.c ****                     break;
 147:src/console.c ****                 case ROL_pack_current_mA:
 148:src/console.c ****                     utoa(csb_input->pack_status->pack_current_mA, tempstr,10);
 149:src/console.c ****                     Board_Println(tempstr);
 150:src/console.c ****                     break;
 151:src/console.c ****                 case ROL_pack_voltage_mV:
 152:src/console.c ****                     utoa(csb_input->pack_status->pack_voltage_mV, tempstr,10);
 153:src/console.c ****                     Board_Println(tempstr);
 154:src/console.c ****                     break;
 155:src/console.c ****                 case ROL_fault:
 156:src/console.c ****                     utoa(csb_input->low_side_cntr_fault, tempstr,10);
 157:src/console.c ****                     Board_Print("low side contactor fault ");
 158:src/console.c ****                     Board_Println(tempstr);
 159:src/console.c ****                     utoa(csb_input->imd_fault, tempstr,10);
 160:src/console.c ****                     Board_Print("IMD fault ");
 161:src/console.c ****                     Board_Println(tempstr);
 162:src/console.c ****                     utoa(csb_input->int_fault, tempstr,10);
 163:src/console.c ****                     Board_Print("interlock fault ");
 164:src/console.c ****                     Board_Println(tempstr);
 165:src/console.c ****                     utoa(csb_input->bms_fault, tempstr,10);
 166:src/console.c ****                     Board_Print("BMS fault ");
 167:src/console.c ****                     Board_Println(tempstr);
 168:src/console.c ****                     if (csb_input->bms_fault) {
 169:src/console.c ****                         utoa(csb_input->bms_error, tempstr,10);
 170:src/console.c ****                         Board_Print("  error ");
 171:src/console.c ****                         Board_Println(tempstr);
 172:src/console.c ****                     }
 173:src/console.c ****                     utoa(csb_input->elcon_status->elcon_on, tempstr,10);
 174:src/console.c ****                     Board_Print("elcon on ");
 175:src/console.c ****                     Board_Println(tempstr);
 176:src/console.c ****                     if (csb_input->elcon_status->elcon_on) {
 177:src/console.c ****                         if (csb_input->elcon_status->elcon_has_hardware_failure) {
 178:src/console.c ****                           Board_Println("  elcon has hardware failure");
 179:src/console.c ****                         } else if (csb_input->elcon_status->elcon_over_temp_protection_on) {
 180:src/console.c ****                           Board_Println("  elcon over temp protection on");
 181:src/console.c ****                         } else if (csb_input->elcon_status->elcon_is_input_voltage_wrong) {
 182:src/console.c ****                           Board_Println("  elcon input voltage is wrong");
 183:src/console.c ****                         } else if (csb_input->elcon_status->elcon_battery_voltage_not_detected) {
 184:src/console.c ****                           Board_Println("  elcon battery voltage not detected");
 185:src/console.c ****                         } else if (csb_input->elcon_status->elcon_is_comms_bad) {
 186:src/console.c ****                           Board_Println("  elcon comms is bad");
 187:src/console.c ****                         }
 188:src/console.c ****                     }
 189:src/console.c ****                     break;
 190:src/console.c ****                 case ROL_LENGTH:
 191:src/console.c ****                     break; //how the hell?
 192:src/console.c ****             }
 193:src/console.c ****         }
 194:src/console.c ****         else{
 195:src/console.c ****             Board_Println("invalid get location");
 196:src/console.c ****         }
 197:src/console.c ****     }
 198:src/console.c **** }
 199:src/console.c **** 
 200:src/console.c **** static void set(const char * const * argv) {
ARM GAS  /var/folders/z0/6xlwn_996xz3mwq1cgzkbq4r0000gp/T//ccBgBTlB.s 			page 6


 201:src/console.c ****     if (csb_state->curr_mode != CSB_SSM_MODE_IDLE)
 202:src/console.c ****     {
 203:src/console.c ****         Board_Println("Set failed (not in standby mode)!");
 204:src/console.c ****         return;
 205:src/console.c ****     }
 206:src/console.c ****     rw_loc_label_t rwloc;
 207:src/console.c ****     //loop over r/w entries
 208:src/console.c ****     bool foundloc = false;
 209:src/console.c ****     bool foundynloc;
 210:src/console.c ****     for (rwloc = 0; rwloc < RWL_LENGTH; ++rwloc){
 211:src/console.c ****         if (strcmp(argv[1],locstring[rwloc]) == 0){
 212:src/console.c ****             foundloc = true;
 213:src/console.c ****             break;
 214:src/console.c ****         }
 215:src/console.c ****     }
 216:src/console.c ****     if(foundloc){
 217:src/console.c ****         switch (rwloc) {
 218:src/console.c ****             case RWL_cell_min_mV:
 219:src/console.c ****                 csb_state->pack_config->cell_min_mV = my_atou(argv[2]);
 220:src/console.c ****                 Board_Println("Done!");
 221:src/console.c ****                 break;
 222:src/console.c ****             case RWL_cell_max_mV:
 223:src/console.c ****                 csb_state->pack_config->cell_max_mV = my_atou(argv[2]);
 224:src/console.c ****                 Board_Println("Done!");
 225:src/console.c ****                 break;
 226:src/console.c ****             case RWL_cell_capacity_cAh:
 227:src/console.c ****                 csb_state->pack_config->cell_capacity_cAh = my_atou(argv[2]);
 228:src/console.c ****                 Board_Println("Done!");
 229:src/console.c ****                 break;
 230:src/console.c ****             case RWL_num_modules:
 231:src/console.c ****                 csb_state->pack_config->num_modules = my_atou(argv[2]);
 232:src/console.c ****                 Board_Println("Done!");
 233:src/console.c ****                 break;
 234:src/console.c ****             case RWL_module_cell_count:
 235:src/console.c ****                 csb_state->pack_config->module_cell_count = my_atou(argv[2]);
 236:src/console.c ****                 Board_Println("Done!");
 237:src/console.c ****                 break;
 238:src/console.c ****             case RWL_cell_charge_c_rating_cC:
 239:src/console.c ****               csb_state->pack_config->cell_charge_c_rating_cC = my_atou(argv[2]);
 240:src/console.c ****               Board_Println("Done!");
 241:src/console.c ****               break;
 242:src/console.c ****             case RWL_bal_on_thresh_mV:
 243:src/console.c ****                 csb_state->pack_config->bal_on_thresh_mV = my_atou(argv[2]);
 244:src/console.c ****                 Board_Println("Done!");
 245:src/console.c ****                 break;
 246:src/console.c ****             case RWL_bal_off_thresh_mV:
 247:src/console.c ****                 csb_state->pack_config->bal_off_thresh_mV = my_atou(argv[2]);
 248:src/console.c ****                 Board_Println("Done!");
 249:src/console.c ****                 break;
 250:src/console.c ****             case RWL_pack_cells_p:
 251:src/console.c ****                 csb_state->pack_config->pack_cells_p = my_atou(argv[2]);
 252:src/console.c ****                 Board_Println("Done!");
 253:src/console.c ****                 break;
 254:src/console.c ****             case RWL_cv_min_current_mA:
 255:src/console.c ****                 csb_state->pack_config->cv_min_current_mA = my_atou(argv[2]);
 256:src/console.c ****                 Board_Println("Done!");
 257:src/console.c ****                 break;
ARM GAS  /var/folders/z0/6xlwn_996xz3mwq1cgzkbq4r0000gp/T//ccBgBTlB.s 			page 7


 258:src/console.c ****             case RWL_cv_min_current_ms:
 259:src/console.c ****                 csb_state->pack_config->cv_min_current_ms = my_atou(argv[2]);
 260:src/console.c ****                 Board_Println("Done!");
 261:src/console.c ****                 break;
 262:src/console.c ****             case RWL_cc_cell_voltage_mV:
 263:src/console.c ****                 csb_state->pack_config->cc_cell_voltage_mV = my_atou(argv[2]);
 264:src/console.c ****                 Board_Println("Done!");
 265:src/console.c ****                 break;
 266:src/console.c ****             case RWL_cc_charge_voltage_mV:
 267:src/console.c ****                 csb_state->pack_config->cc_charge_voltage_mV = my_atou(argv[2]);
 268:src/console.c ****                 Board_Println("Done!");
 269:src/console.c ****                 break;
 270:src/console.c ****             case RWL_cc_charge_current_mA:
 271:src/console.c ****                 csb_state->pack_config->cc_charge_current_mA = my_atou(argv[2]);
 272:src/console.c ****                 Board_Println("Done!");
 273:src/console.c ****                 break;
 274:src/console.c ****             case RWL_cv_charge_voltage_mV:
 275:src/console.c ****                 csb_state->pack_config->cv_charge_voltage_mV = my_atou(argv[2]);
 276:src/console.c ****                 Board_Println("Done!");
 277:src/console.c ****                 break;
 278:src/console.c ****             case RWL_cv_charge_current_mA:
 279:src/console.c ****                 csb_state->pack_config->cv_charge_current_mA = my_atou(argv[2]);
 280:src/console.c ****                 Board_Println("Done!");
 281:src/console.c ****                 break;
 282:src/console.c ****             case RWL_bms_comm:
 283:src/console.c ****                 foundynloc = false;
 284:src/console.c ****                 yn_loc_label_t ynloc;
 285:src/console.c ****                 for (ynloc = 0; ynloc< YNL_LENGTH; ++ynloc){
 286:src/console.c ****                     if (strcmp(argv[2],yn_locstring[ynloc]) == 0){
 287:src/console.c ****                         foundynloc = true;
 288:src/console.c ****                         break;
 289:src/console.c ****                     }
 290:src/console.c ****                 }
 291:src/console.c ****                 if (foundynloc) {
 292:src/console.c ****                     switch (ynloc) {
 293:src/console.c ****                         case YNL_YES:
 294:src/console.c ****                             csb_state->pack_config->bms_comm = BMS_YES_COMM;
 295:src/console.c ****                             Board_Println("Done!");
 296:src/console.c ****                             break;
 297:src/console.c ****                         case YNL_NO:
 298:src/console.c ****                             csb_state->pack_config->bms_comm = BMS_NO_COMM;
 299:src/console.c ****                             Board_Println("Done!");
 300:src/console.c ****                             break;
 301:src/console.c ****                         case YNL_LENGTH:
 302:src/console.c ****                             break;
 303:src/console.c ****                     }
 304:src/console.c ****                 } else {
 305:src/console.c ****                     Board_Println("invalid location");
 306:src/console.c ****                 }
 307:src/console.c ****                 break;
 308:src/console.c ****             case RWL_LENGTH:
 309:src/console.c ****                 break;
 310:src/console.c ****         }
 311:src/console.c ****     } else {
 312:src/console.c ****         //loop over r/o entries
 313:src/console.c ****         ro_loc_label_t roloc;
 314:src/console.c ****         for (roloc = (ro_loc_label_t)ROL_FIRST; roloc< ROL_LENGTH; ++roloc){
ARM GAS  /var/folders/z0/6xlwn_996xz3mwq1cgzkbq4r0000gp/T//ccBgBTlB.s 			page 8


 315:src/console.c ****             if (strcmp(argv[1],locstring[roloc]) == 0){
 316:src/console.c ****                 foundloc = true;
 317:src/console.c ****                 Board_Println("this location is read only");
 318:src/console.c ****                 return;
 319:src/console.c ****             }
 320:src/console.c ****         }
 321:src/console.c ****         Board_Println("invalid location");
 322:src/console.c ****     }
 323:src/console.c **** }
 324:src/console.c **** 
 325:src/console.c **** static void help(const char * const * argv) {
 326:src/console.c ****     command_label_t command_i = 0;
 327:src/console.c ****     for (command_i = 0; command_i < NUMCOMMANDS; ++command_i)
 328:src/console.c ****     {
 329:src/console.c ****         if (strcmp(argv[1],commands[command_i]) == 0){
 330:src/console.c ****             Board_Println_BLOCKING(helpstring[command_i]); //blocking print
 331:src/console.c **** 
 332:src/console.c ****             break;
 333:src/console.c ****         }
 334:src/console.c ****     }
 335:src/console.c ****     Board_Print("");
 336:src/console.c **** 
 337:src/console.c ****     if (command_i == C_GET || command_i == C_SET)
 338:src/console.c ****     {
 339:src/console.c ****         rw_loc_label_t i;
 340:src/console.c ****         Board_Println_BLOCKING("------r/w entries------");
 341:src/console.c ****         for (i = 0; i < RWL_LENGTH; ++i){
 342:src/console.c ****             Board_Println_BLOCKING(locstring[i]); //blocking print.
 343:src/console.c ****         }
 344:src/console.c **** 
 345:src/console.c ****         Board_Println_BLOCKING("------r/o entries------");
 346:src/console.c ****         for (i = ROL_FIRST; i < (rw_loc_label_t)(ROL_LENGTH); ++i){
 347:src/console.c ****             Board_Println_BLOCKING(locstring[i]); //blocking print.
 348:src/console.c ****         }
 349:src/console.c ****     }
 350:src/console.c **** }
 351:src/console.c **** 
 352:src/console.c **** static void config_def(const char * const * argv) {
 353:src/console.c ****   bool foundloc = false;
 354:src/console.c ****   config_loc_label_t configloc;
 355:src/console.c ****   for (configloc = 0; configloc< CONL_LENGTH; ++configloc){
 356:src/console.c ****       if (strcmp(argv[1],config_locstring[configloc]) == 0){
 357:src/console.c ****           foundloc = true;
 358:src/console.c ****           break;
 359:src/console.c ****       }
 360:src/console.c ****   }
 361:src/console.c ****   if (foundloc) {
 362:src/console.c ****       switch (configloc) {
 363:src/console.c ****           case CONL_MY18:
 364:src/console.c ****               MY18_Pack_Config(csb_state);
 365:src/console.c ****               Board_Println("Done!");
 366:src/console.c ****               break;
 367:src/console.c ****           case CONL_MY16:
 368:src/console.c ****               MY16_Pack_Config(csb_state);
 369:src/console.c ****               Board_Println("Done!");
 370:src/console.c ****               break;
 371:src/console.c ****           case CONL_LENGTH:
ARM GAS  /var/folders/z0/6xlwn_996xz3mwq1cgzkbq4r0000gp/T//ccBgBTlB.s 			page 9


 372:src/console.c ****               break;
 373:src/console.c ****       }
 374:src/console.c ****   } else {
 375:src/console.c ****       Board_Println("invalid location");
 376:src/console.c ****   }
 377:src/console.c **** }
 378:src/console.c **** 
 379:src/console.c **** static void measure(const char * const * argv) {
  86              		.loc 1 379 0
  87              		.cfi_startproc
  88              		@ args = 0, pretend = 0, frame = 0
  89              		@ frame_needed = 0, uses_anonymous_args = 0
  90              	.LVL0:
  91 0000 10B5     		push	{r4, lr}	@
  92              		.cfi_def_cfa_offset 8
  93              		.cfi_offset 4, -8
  94              		.cfi_offset 14, -4
 380:src/console.c ****     if (strcmp(argv[1],"on") == 0) {
  95              		.loc 1 380 0
  96 0002 4468     		ldr	r4, [r0, #4]	@ D.8233, MEM[(const char * const *)argv_3(D) + 4B]
  97 0004 2C49     		ldr	r1, .L17	@,
  98 0006 2000     		movs	r0, r4	@, D.8233
  99              	.LVL1:
 100 0008 FFF7FEFF 		bl	strcmp	@
 101              	.LVL2:
 102 000c 0028     		cmp	r0, #0	@ tmp130,
 103 000e 2ED0     		beq	.L12	@,
 381:src/console.c ****         console_output->measure_on = true;
 382:src/console.c ****         Board_Println("Measure On!");
 383:src/console.c **** 
 384:src/console.c ****     } else if (strcmp(argv[1],"off") == 0) {
 104              		.loc 1 384 0
 105 0010 2A49     		ldr	r1, .L17+4	@,
 106 0012 2000     		movs	r0, r4	@, D.8233
 107 0014 FFF7FEFF 		bl	strcmp	@
 108              	.LVL3:
 109 0018 0028     		cmp	r0, #0	@ tmp138,
 110 001a 42D0     		beq	.L13	@,
 385:src/console.c ****         console_output->measure_on = false;
 386:src/console.c ****         Board_Println("Measure Off!");
 387:src/console.c **** 
 388:src/console.c ****     } else if (strcmp(argv[1],"print_flags") == 0) {
 111              		.loc 1 388 0
 112 001c 2849     		ldr	r1, .L17+8	@,
 113 001e 2000     		movs	r0, r4	@, D.8233
 114 0020 FFF7FEFF 		bl	strcmp	@
 115              	.LVL4:
 116 0024 0028     		cmp	r0, #0	@ tmp146,
 117 0026 0FD1     		bne	.L5	@,
 389:src/console.c **** 
 390:src/console.c ****         if(console_output->measure_packcurrent) {
 118              		.loc 1 390 0
 119 0028 264C     		ldr	r4, .L17+12	@ tmp179,
 120 002a 2368     		ldr	r3, [r4]	@ tmp180, console_output
 121 002c 5B7A     		ldrb	r3, [r3, #9]	@ tmp150,
 122 002e 002B     		cmp	r3, #0	@ tmp150,
 123 0030 25D1     		bne	.L14	@,
ARM GAS  /var/folders/z0/6xlwn_996xz3mwq1cgzkbq4r0000gp/T//ccBgBTlB.s 			page 10


 391:src/console.c ****             Board_Println("Pack Current: On");
 392:src/console.c ****         } else {
 393:src/console.c ****             Board_Println("Pack Current: Off");
 124              		.loc 1 393 0
 125 0032 2548     		ldr	r0, .L17+16	@,
 126 0034 FFF7FEFF 		bl	Board_Println	@
 127              	.LVL5:
 394:src/console.c ****         }
 395:src/console.c **** 
 396:src/console.c ****         if(console_output->measure_packvoltage) {
 128              		.loc 1 396 0
 129 0038 2368     		ldr	r3, [r4]	@ console_output, console_output
 130 003a 9B7A     		ldrb	r3, [r3, #10]	@ tmp155,
 131 003c 002B     		cmp	r3, #0	@ tmp155,
 132 003e 25D0     		beq	.L8	@,
 133              	.L16:
 397:src/console.c ****             Board_Println("Pack Current: On");
 134              		.loc 1 397 0
 135 0040 2248     		ldr	r0, .L17+20	@,
 136 0042 FFF7FEFF 		bl	Board_Println	@
 137              	.LVL6:
 138 0046 19E0     		b	.L1	@
 139              	.L5:
 398:src/console.c ****         } else {
 399:src/console.c ****             Board_Println("Pack Current: Off");
 400:src/console.c ****         }
 401:src/console.c **** 
 402:src/console.c ****     } else if (strcmp(argv[1],"packcurrent") == 0) {
 140              		.loc 1 402 0
 141 0048 2149     		ldr	r1, .L17+24	@,
 142 004a 2000     		movs	r0, r4	@, D.8233
 143 004c FFF7FEFF 		bl	strcmp	@
 144              	.LVL7:
 145 0050 0028     		cmp	r0, #0	@ tmp159,
 146 0052 1FD0     		beq	.L15	@,
 403:src/console.c ****         console_output->measure_packcurrent = !console_output->measure_packcurrent;
 404:src/console.c **** 
 405:src/console.c ****     } else if (strcmp(argv[1],"packvoltage") == 0) {
 147              		.loc 1 405 0
 148 0054 1F49     		ldr	r1, .L17+28	@,
 149 0056 2000     		movs	r0, r4	@, D.8233
 150 0058 FFF7FEFF 		bl	strcmp	@
 151              	.LVL8:
 152 005c 0028     		cmp	r0, #0	@ tmp169,
 153 005e 27D1     		bne	.L10	@,
 406:src/console.c ****         console_output->measure_packvoltage = !console_output->measure_packvoltage;
 154              		.loc 1 406 0
 155 0060 184B     		ldr	r3, .L17+12	@ tmp171,
 156 0062 1A68     		ldr	r2, [r3]	@ D.8235, console_output
 157 0064 0123     		movs	r3, #1	@ tmp172,
 158 0066 917A     		ldrb	r1, [r2, #10]	@ tmp175,
 159 0068 4B40     		eors	r3, r1	@ tmp176, tmp175
 160 006a 9372     		strb	r3, [r2, #10]	@ tmp176, _29->measure_packvoltage
 161 006c 06E0     		b	.L1	@
 162              	.L12:
 381:src/console.c ****         Board_Println("Measure On!");
 163              		.loc 1 381 0
ARM GAS  /var/folders/z0/6xlwn_996xz3mwq1cgzkbq4r0000gp/T//ccBgBTlB.s 			page 11


 164 006e 0122     		movs	r2, #1	@ tmp134,
 165 0070 144B     		ldr	r3, .L17+12	@ tmp132,
 382:src/console.c **** 
 166              		.loc 1 382 0
 167 0072 1948     		ldr	r0, .L17+32	@,
 381:src/console.c ****         Board_Println("Measure On!");
 168              		.loc 1 381 0
 169 0074 1B68     		ldr	r3, [r3]	@ console_output, console_output
 170 0076 1A72     		strb	r2, [r3, #8]	@ tmp134, _7->measure_on
 382:src/console.c **** 
 171              		.loc 1 382 0
 172 0078 FFF7FEFF 		bl	Board_Println	@
 173              	.LVL9:
 174              	.L1:
 407:src/console.c **** 
 408:src/console.c ****     } else {
 409:src/console.c ****         Board_Println("Unrecognized command!");
 410:src/console.c ****     }
 411:src/console.c **** }
 175              		.loc 1 411 0
 176              		@ sp needed	@
 177 007c 10BD     		pop	{r4, pc}
 178              	.L14:
 391:src/console.c ****         } else {
 179              		.loc 1 391 0
 180 007e 1348     		ldr	r0, .L17+20	@,
 181 0080 FFF7FEFF 		bl	Board_Println	@
 182              	.LVL10:
 396:src/console.c ****             Board_Println("Pack Current: On");
 183              		.loc 1 396 0
 184 0084 2368     		ldr	r3, [r4]	@ console_output, console_output
 185 0086 9B7A     		ldrb	r3, [r3, #10]	@ tmp155,
 186 0088 002B     		cmp	r3, #0	@ tmp155,
 187 008a D9D1     		bne	.L16	@,
 188              	.L8:
 399:src/console.c ****         }
 189              		.loc 1 399 0
 190 008c 0E48     		ldr	r0, .L17+16	@,
 191 008e FFF7FEFF 		bl	Board_Println	@
 192              	.LVL11:
 193 0092 F3E7     		b	.L1	@
 194              	.L15:
 403:src/console.c **** 
 195              		.loc 1 403 0
 196 0094 0B4B     		ldr	r3, .L17+12	@ tmp161,
 197 0096 1A68     		ldr	r2, [r3]	@ D.8235, console_output
 198 0098 0123     		movs	r3, #1	@ tmp162,
 199 009a 517A     		ldrb	r1, [r2, #9]	@ tmp165,
 200 009c 4B40     		eors	r3, r1	@ tmp166, tmp165
 201 009e 5372     		strb	r3, [r2, #9]	@ tmp166, _24->measure_packcurrent
 202 00a0 ECE7     		b	.L1	@
 203              	.L13:
 385:src/console.c ****         Board_Println("Measure Off!");
 204              		.loc 1 385 0
 205 00a2 084B     		ldr	r3, .L17+12	@ tmp140,
 206 00a4 1B68     		ldr	r3, [r3]	@ console_output, console_output
 207 00a6 1872     		strb	r0, [r3, #8]	@ tmp138, _11->measure_on
ARM GAS  /var/folders/z0/6xlwn_996xz3mwq1cgzkbq4r0000gp/T//ccBgBTlB.s 			page 12


 386:src/console.c **** 
 208              		.loc 1 386 0
 209 00a8 0C48     		ldr	r0, .L17+36	@,
 210 00aa FFF7FEFF 		bl	Board_Println	@
 211              	.LVL12:
 212 00ae E5E7     		b	.L1	@
 213              	.L10:
 409:src/console.c ****     }
 214              		.loc 1 409 0
 215 00b0 0B48     		ldr	r0, .L17+40	@,
 216 00b2 FFF7FEFF 		bl	Board_Println	@
 217              	.LVL13:
 218              		.loc 1 411 0
 219 00b6 E1E7     		b	.L1	@
 220              	.L18:
 221              		.align	2
 222              	.L17:
 223 00b8 00000000 		.word	.LC0
 224 00bc 10000000 		.word	.LC5
 225 00c0 24000000 		.word	.LC9
 226 00c4 00000000 		.word	.LANCHOR0
 227 00c8 44000000 		.word	.LC13
 228 00cc 30000000 		.word	.LC11
 229 00d0 58000000 		.word	.LC15
 230 00d4 64000000 		.word	.LC17
 231 00d8 04000000 		.word	.LC3
 232 00dc 14000000 		.word	.LC7
 233 00e0 70000000 		.word	.LC19
 234              		.cfi_endproc
 235              	.LFE203:
 236              		.size	measure, .-measure
 237              		.section	.text.set,"ax",%progbits
 238              		.align	2
 239              		.code	16
 240              		.thumb_func
 241              		.type	set, %function
 242              	set:
 243              	.LFB200:
 200:src/console.c ****     if (csb_state->curr_mode != CSB_SSM_MODE_IDLE)
 244              		.loc 1 200 0
 245              		.cfi_startproc
 246              		@ args = 0, pretend = 0, frame = 0
 247              		@ frame_needed = 0, uses_anonymous_args = 0
 248              	.LVL14:
 249 0000 F8B5     		push	{r3, r4, r5, r6, r7, lr}	@
 250              		.cfi_def_cfa_offset 24
 251              		.cfi_offset 3, -24
 252              		.cfi_offset 4, -20
 253              		.cfi_offset 5, -16
 254              		.cfi_offset 6, -12
 255              		.cfi_offset 7, -8
 256              		.cfi_offset 14, -4
 257 0002 4F46     		mov	r7, r9	@,
 258 0004 4646     		mov	r6, r8	@,
 259 0006 C0B4     		push	{r6, r7}	@
 260              		.cfi_def_cfa_offset 32
 261              		.cfi_offset 8, -32
ARM GAS  /var/folders/z0/6xlwn_996xz3mwq1cgzkbq4r0000gp/T//ccBgBTlB.s 			page 13


 262              		.cfi_offset 9, -28
 201:src/console.c ****     {
 263              		.loc 1 201 0
 264 0008 C44B     		ldr	r3, .L114	@ tmp377,
 200:src/console.c ****     if (csb_state->curr_mode != CSB_SSM_MODE_IDLE)
 265              		.loc 1 200 0
 266 000a 8046     		mov	r8, r0	@ argv, argv
 201:src/console.c ****     {
 267              		.loc 1 201 0
 268 000c 1F68     		ldr	r7, [r3]	@ D.8366, csb_state
 269 000e 3B79     		ldrb	r3, [r7, #4]	@ tmp378,
 270 0010 012B     		cmp	r3, #1	@ tmp378,
 271 0012 22D1     		bne	.L111	@,
 272 0014 C24B     		ldr	r3, .L114+4	@ ivtmp.110,
 273 0016 4668     		ldr	r6, [r0, #4]	@ D.8375, MEM[(const char * const *)argv_11(D) + 4B]
 274 0018 9946     		mov	r9, r3	@ ivtmp.110, ivtmp.110
 275 001a 1D1D     		adds	r5, r3, #4	@ ivtmp.125, ivtmp.110,
 276 001c C149     		ldr	r1, .L114+8	@ D.8375,
 277 001e 0024     		movs	r4, #0	@ rwloc,
 278 0020 00E0     		b	.L25	@
 279              	.LVL15:
 280              	.L23:
 281 0022 02CD     		ldmia	r5!, {r1}	@ MEM[base: _250, offset: 0B], D.8375
 282              	.LVL16:
 283              	.L25:
 211:src/console.c ****             foundloc = true;
 284              		.loc 1 211 0
 285 0024 3000     		movs	r0, r6	@, D.8375
 286 0026 FFF7FEFF 		bl	strcmp	@
 287              	.LVL17:
 288 002a 0028     		cmp	r0, #0	@ tmp381,
 289 002c 1CD0     		beq	.L22	@,
 210:src/console.c ****         if (strcmp(argv[1],locstring[rwloc]) == 0){
 290              		.loc 1 210 0 discriminator 2
 291 002e 0134     		adds	r4, r4, #1	@ tmp383,
 292              	.LVL18:
 293 0030 E4B2     		uxtb	r4, r4	@ rwloc, tmp383
 294              	.LVL19:
 295 0032 112C     		cmp	r4, #17	@ rwloc,
 296 0034 F5D1     		bne	.L23	@,
 297 0036 4D46     		mov	r5, r9	@ D.8373, ivtmp.110
 298 0038 4C46     		mov	r4, r9	@ ivtmp.110, ivtmp.110
 299              	.LVL20:
 300 003a 1C35     		adds	r5, r5, #28	@ D.8373,
 210:src/console.c ****         if (strcmp(argv[1],locstring[rwloc]) == 0){
 301              		.loc 1 210 0 is_stmt 0
 302 003c BA49     		ldr	r1, .L114+12	@ D.8375,
 303 003e 00E0     		b	.L24	@
 304              	.LVL21:
 305              	.L113:
 306 0040 616C     		ldr	r1, [r4, #68]	@ D.8375, MEM[base: _154, offset: 68B]
 307              	.L24:
 308              	.LBB41:
 315:src/console.c ****                 foundloc = true;
 309              		.loc 1 315 0 is_stmt 1
 310 0042 3000     		movs	r0, r6	@, D.8375
 311 0044 FFF7FEFF 		bl	strcmp	@
ARM GAS  /var/folders/z0/6xlwn_996xz3mwq1cgzkbq4r0000gp/T//ccBgBTlB.s 			page 14


 312              	.LVL22:
 313 0048 0028     		cmp	r0, #0	@ tmp482,
 314 004a 13D0     		beq	.L112	@,
 315 004c 0434     		adds	r4, r4, #4	@ ivtmp.110,
 314:src/console.c ****             if (strcmp(argv[1],locstring[roloc]) == 0){
 316              		.loc 1 314 0 discriminator 2
 317 004e A542     		cmp	r5, r4	@ D.8373, ivtmp.110
 318 0050 F6D1     		bne	.L113	@,
 319              	.L75:
 321:src/console.c ****     }
 320              		.loc 1 321 0
 321 0052 B648     		ldr	r0, .L114+16	@,
 322 0054 FFF7FEFF 		bl	Board_Println	@
 323              	.LVL23:
 324 0058 02E0     		b	.L19	@
 325              	.LVL24:
 326              	.L111:
 327              	.LBE41:
 203:src/console.c ****         return;
 328              		.loc 1 203 0
 329 005a B548     		ldr	r0, .L114+20	@,
 330              	.LVL25:
 331 005c FFF7FEFF 		bl	Board_Println	@
 332              	.LVL26:
 333              	.L19:
 323:src/console.c **** 
 334              		.loc 1 323 0
 335              		@ sp needed	@
 336              	.LVL27:
 337 0060 0CBC     		pop	{r2, r3}
 338 0062 9046     		mov	r8, r2
 339 0064 9946     		mov	r9, r3
 340 0066 F8BD     		pop	{r3, r4, r5, r6, r7, pc}
 341              	.LVL28:
 342              	.L22:
 217:src/console.c ****             case RWL_cell_min_mV:
 343              		.loc 1 217 0
 344 0068 102C     		cmp	r4, #16	@ rwloc,
 345 006a 1FD8     		bhi	.L26	@,
 346 006c B14B     		ldr	r3, .L114+24	@ tmp488,
 347 006e A400     		lsls	r4, r4, #2	@ tmp486, rwloc,
 348              	.LVL29:
 349 0070 1B59     		ldr	r3, [r3, r4]	@ tmp489,
 350 0072 9F46     		mov	pc, r3	@ tmp489
 351              		.section	.rodata.set,"a",%progbits
 352              		.align	2
 353              	.L76:
 354 0000 AC000000 		.word	.L26
 355 0004 FC010000 		.word	.L29
 356 0008 2C020000 		.word	.L32
 357 000c 3C010000 		.word	.L35
 358 0010 6C010000 		.word	.L38
 359 0014 BC020000 		.word	.L41
 360 0018 EC020000 		.word	.L44
 361 001c DC000000 		.word	.L47
 362 0020 0C010000 		.word	.L50
 363 0024 5C020000 		.word	.L53
ARM GAS  /var/folders/z0/6xlwn_996xz3mwq1cgzkbq4r0000gp/T//ccBgBTlB.s 			page 15


 364 0028 8C020000 		.word	.L56
 365 002c 9C010000 		.word	.L59
 366 0030 CC010000 		.word	.L62
 367 0034 40030000 		.word	.L65
 368 0038 6E030000 		.word	.L68
 369 003c 7C000000 		.word	.L71
 370 0040 9C030000 		.word	.L77
 371              		.section	.text.set
 372              	.LVL30:
 373              	.L112:
 374              	.LBB42:
 317:src/console.c ****                 return;
 375              		.loc 1 317 0
 376 0074 B048     		ldr	r0, .L114+28	@,
 377 0076 FFF7FEFF 		bl	Board_Println	@
 378              	.LVL31:
 318:src/console.c ****             }
 379              		.loc 1 318 0
 380 007a F1E7     		b	.L19	@
 381              	.L71:
 382              	.LBE42:
 383              	.LBB43:
 279:src/console.c ****                 Board_Println("Done!");
 384              		.loc 1 279 0
 385 007c 4346     		mov	r3, r8	@ argv, argv
 386 007e 9968     		ldr	r1, [r3, #8]	@ D.8370, MEM[(const char * const *)argv_11(D) + 8B]
 387 0080 3C68     		ldr	r4, [r7]	@ D.8369, _8->pack_config
 388              	.LVL32:
 389              	.LBB44:
 390              	.LBB45:
  25:src/console.c ****         res = res*10 + str[i] - '0';
 391              		.loc 1 25 0
 392 0082 0A78     		ldrb	r2, [r1]	@ D.8372, *_38
 393 0084 002A     		cmp	r2, #0	@ D.8372,
 394 0086 00D1     		bne	.LCB295	@
 395 0088 C0E1     		b	.L94	@long jump	@
 396              	.LCB295:
 397              	.LVL33:
 398 008a 0023     		movs	r3, #0	@ res,
 399              	.LVL34:
 400 008c 0131     		adds	r1, r1, #1	@ ivtmp.90,
 401              	.LVL35:
 402              	.L73:
  26:src/console.c **** 
 403              		.loc 1 26 0
 404 008e 9800     		lsls	r0, r3, #2	@ tmp477, res,
 405 0090 C318     		adds	r3, r0, r3	@ D.8371, tmp477, res
 406              	.LVL36:
 407 0092 5B00     		lsls	r3, r3, #1	@ tmp479, D.8371,
 408 0094 0131     		adds	r1, r1, #1	@ ivtmp.90,
 409              	.LVL37:
 410 0096 9B18     		adds	r3, r3, r2	@ D.8371, tmp479, D.8372
  25:src/console.c ****         res = res*10 + str[i] - '0';
 411              		.loc 1 25 0
 412 0098 4A1E     		subs	r2, r1, #1	@ D.8374, ivtmp.90,
 413 009a 1278     		ldrb	r2, [r2]	@ D.8372, MEM[base: _157, offset: 0B]
  26:src/console.c **** 
ARM GAS  /var/folders/z0/6xlwn_996xz3mwq1cgzkbq4r0000gp/T//ccBgBTlB.s 			page 16


 414              		.loc 1 26 0
 415 009c 303B     		subs	r3, r3, #48	@ res,
 416              	.LVL38:
  25:src/console.c ****         res = res*10 + str[i] - '0';
 417              		.loc 1 25 0
 418 009e 002A     		cmp	r2, #0	@ D.8372,
 419 00a0 F5D1     		bne	.L73	@,
 420              	.LVL39:
 421              	.L72:
 422              	.LBE45:
 423              	.LBE44:
 279:src/console.c ****                 Board_Println("Done!");
 424              		.loc 1 279 0
 425 00a2 2364     		str	r3, [r4, #64]	@ res, _37->cv_charge_current_mA
 280:src/console.c ****                 break;
 426              		.loc 1 280 0
 427 00a4 A548     		ldr	r0, .L114+32	@,
 428 00a6 FFF7FEFF 		bl	Board_Println	@
 429              	.LVL40:
 281:src/console.c ****             case RWL_bms_comm:
 430              		.loc 1 281 0
 431 00aa D9E7     		b	.L19	@
 432              	.L26:
 219:src/console.c ****                 Board_Println("Done!");
 433              		.loc 1 219 0
 434 00ac 4346     		mov	r3, r8	@ argv, argv
 435 00ae 9968     		ldr	r1, [r3, #8]	@ D.8370, MEM[(const char * const *)argv_11(D) + 8B]
 436 00b0 3C68     		ldr	r4, [r7]	@ D.8369, _8->pack_config
 437              	.LVL41:
 438              	.LBB47:
 439              	.LBB48:
  25:src/console.c ****         res = res*10 + str[i] - '0';
 440              		.loc 1 25 0
 441 00b2 0A78     		ldrb	r2, [r1]	@ D.8372, *_19
 442 00b4 002A     		cmp	r2, #0	@ D.8372,
 443 00b6 00D1     		bne	.LCB347	@
 444 00b8 A0E1     		b	.L79	@long jump	@
 445              	.LCB347:
 446              	.LVL42:
 447 00ba 0023     		movs	r3, #0	@ res,
 448              	.LVL43:
 449 00bc 0131     		adds	r1, r1, #1	@ ivtmp.29,
 450              	.LVL44:
 451              	.L28:
  26:src/console.c **** 
 452              		.loc 1 26 0
 453 00be 9800     		lsls	r0, r3, #2	@ tmp387, res,
 454 00c0 C318     		adds	r3, r0, r3	@ D.8371, tmp387, res
 455              	.LVL45:
 456 00c2 5B00     		lsls	r3, r3, #1	@ tmp389, D.8371,
 457 00c4 0131     		adds	r1, r1, #1	@ ivtmp.29,
 458              	.LVL46:
 459 00c6 9B18     		adds	r3, r3, r2	@ D.8371, tmp389, D.8372
  25:src/console.c ****         res = res*10 + str[i] - '0';
 460              		.loc 1 25 0
 461 00c8 4A1E     		subs	r2, r1, #1	@ D.8374, ivtmp.29,
 462 00ca 1278     		ldrb	r2, [r2]	@ D.8372, MEM[base: _376, offset: 0B]
ARM GAS  /var/folders/z0/6xlwn_996xz3mwq1cgzkbq4r0000gp/T//ccBgBTlB.s 			page 17


  26:src/console.c **** 
 463              		.loc 1 26 0
 464 00cc 303B     		subs	r3, r3, #48	@ res,
 465              	.LVL47:
  25:src/console.c ****         res = res*10 + str[i] - '0';
 466              		.loc 1 25 0
 467 00ce 002A     		cmp	r2, #0	@ D.8372,
 468 00d0 F5D1     		bne	.L28	@,
 469              	.LVL48:
 470              	.L27:
 471              	.LBE48:
 472              	.LBE47:
 219:src/console.c ****                 Board_Println("Done!");
 473              		.loc 1 219 0
 474 00d2 2360     		str	r3, [r4]	@ res, _18->cell_min_mV
 220:src/console.c ****                 break;
 475              		.loc 1 220 0
 476 00d4 9948     		ldr	r0, .L114+32	@,
 477 00d6 FFF7FEFF 		bl	Board_Println	@
 478              	.LVL49:
 221:src/console.c ****             case RWL_cell_max_mV:
 479              		.loc 1 221 0
 480 00da C1E7     		b	.L19	@
 481              	.L47:
 247:src/console.c ****                 Board_Println("Done!");
 482              		.loc 1 247 0
 483 00dc 4346     		mov	r3, r8	@ argv, argv
 484 00de 9968     		ldr	r1, [r3, #8]	@ D.8370, MEM[(const char * const *)argv_11(D) + 8B]
 485 00e0 3C68     		ldr	r4, [r7]	@ D.8369, _8->pack_config
 486              	.LVL50:
 487              	.LBB50:
 488              	.LBB51:
  25:src/console.c ****         res = res*10 + str[i] - '0';
 489              		.loc 1 25 0
 490 00e2 0A78     		ldrb	r2, [r1]	@ D.8372, *_78
 491 00e4 002A     		cmp	r2, #0	@ D.8372,
 492 00e6 00D1     		bne	.LCB398	@
 493 00e8 80E1     		b	.L86	@long jump	@
 494              	.LCB398:
 495              	.LVL51:
 496 00ea 0023     		movs	r3, #0	@ res,
 497              	.LVL52:
 498 00ec 0131     		adds	r1, r1, #1	@ ivtmp.58,
 499              	.LVL53:
 500              	.L49:
  26:src/console.c **** 
 501              		.loc 1 26 0
 502 00ee 9800     		lsls	r0, r3, #2	@ tmp429, res,
 503 00f0 C318     		adds	r3, r0, r3	@ D.8371, tmp429, res
 504              	.LVL54:
 505 00f2 5B00     		lsls	r3, r3, #1	@ tmp431, D.8371,
 506 00f4 0131     		adds	r1, r1, #1	@ ivtmp.58,
 507              	.LVL55:
 508 00f6 9B18     		adds	r3, r3, r2	@ D.8371, tmp431, D.8372
  25:src/console.c ****         res = res*10 + str[i] - '0';
 509              		.loc 1 25 0
 510 00f8 4A1E     		subs	r2, r1, #1	@ D.8374, ivtmp.58,
ARM GAS  /var/folders/z0/6xlwn_996xz3mwq1cgzkbq4r0000gp/T//ccBgBTlB.s 			page 18


 511 00fa 1278     		ldrb	r2, [r2]	@ D.8372, MEM[base: _282, offset: 0B]
  26:src/console.c **** 
 512              		.loc 1 26 0
 513 00fc 303B     		subs	r3, r3, #48	@ res,
 514              	.LVL56:
  25:src/console.c ****         res = res*10 + str[i] - '0';
 515              		.loc 1 25 0
 516 00fe 002A     		cmp	r2, #0	@ D.8372,
 517 0100 F5D1     		bne	.L49	@,
 518              	.LVL57:
 519              	.L48:
 520              	.LBE51:
 521              	.LBE50:
 247:src/console.c ****                 Board_Println("Done!");
 522              		.loc 1 247 0
 523 0102 A361     		str	r3, [r4, #24]	@ res, _77->bal_off_thresh_mV
 248:src/console.c ****                 break;
 524              		.loc 1 248 0
 525 0104 8D48     		ldr	r0, .L114+32	@,
 526 0106 FFF7FEFF 		bl	Board_Println	@
 527              	.LVL58:
 249:src/console.c ****             case RWL_pack_cells_p:
 528              		.loc 1 249 0
 529 010a A9E7     		b	.L19	@
 530              	.L50:
 251:src/console.c ****                 Board_Println("Done!");
 531              		.loc 1 251 0
 532 010c 4346     		mov	r3, r8	@ argv, argv
 533 010e 9968     		ldr	r1, [r3, #8]	@ D.8370, MEM[(const char * const *)argv_11(D) + 8B]
 534 0110 3C68     		ldr	r4, [r7]	@ D.8369, _8->pack_config
 535              	.LVL59:
 536              	.LBB53:
 537              	.LBB54:
  25:src/console.c ****         res = res*10 + str[i] - '0';
 538              		.loc 1 25 0
 539 0112 0A78     		ldrb	r2, [r1]	@ D.8372, *_73
 540 0114 002A     		cmp	r2, #0	@ D.8372,
 541 0116 00D1     		bne	.LCB449	@
 542 0118 7CE1     		b	.L87	@long jump	@
 543              	.LCB449:
 544              	.LVL60:
 545 011a 0023     		movs	r3, #0	@ res,
 546              	.LVL61:
 547 011c 0131     		adds	r1, r1, #1	@ ivtmp.62,
 548              	.LVL62:
 549              	.L52:
  26:src/console.c **** 
 550              		.loc 1 26 0
 551 011e 9800     		lsls	r0, r3, #2	@ tmp435, res,
 552 0120 C318     		adds	r3, r0, r3	@ D.8371, tmp435, res
 553              	.LVL63:
 554 0122 5B00     		lsls	r3, r3, #1	@ tmp437, D.8371,
 555 0124 0131     		adds	r1, r1, #1	@ ivtmp.62,
 556              	.LVL64:
 557 0126 9B18     		adds	r3, r3, r2	@ D.8371, tmp437, D.8372
  25:src/console.c ****         res = res*10 + str[i] - '0';
 558              		.loc 1 25 0
ARM GAS  /var/folders/z0/6xlwn_996xz3mwq1cgzkbq4r0000gp/T//ccBgBTlB.s 			page 19


 559 0128 4A1E     		subs	r2, r1, #1	@ D.8374, ivtmp.62,
 560 012a 1278     		ldrb	r2, [r2]	@ D.8372, MEM[base: _285, offset: 0B]
  26:src/console.c **** 
 561              		.loc 1 26 0
 562 012c 303B     		subs	r3, r3, #48	@ res,
 563              	.LVL65:
  25:src/console.c ****         res = res*10 + str[i] - '0';
 564              		.loc 1 25 0
 565 012e 002A     		cmp	r2, #0	@ D.8372,
 566 0130 F5D1     		bne	.L52	@,
 567              	.LVL66:
 568              	.L51:
 569              	.LBE54:
 570              	.LBE53:
 251:src/console.c ****                 Board_Println("Done!");
 571              		.loc 1 251 0
 572 0132 E361     		str	r3, [r4, #28]	@ res, _72->pack_cells_p
 252:src/console.c ****                 break;
 573              		.loc 1 252 0
 574 0134 8148     		ldr	r0, .L114+32	@,
 575 0136 FFF7FEFF 		bl	Board_Println	@
 576              	.LVL67:
 253:src/console.c ****             case RWL_cv_min_current_mA:
 577              		.loc 1 253 0
 578 013a 91E7     		b	.L19	@
 579              	.L35:
 231:src/console.c ****                 Board_Println("Done!");
 580              		.loc 1 231 0
 581 013c 4346     		mov	r3, r8	@ argv, argv
 582 013e 9968     		ldr	r1, [r3, #8]	@ D.8370, MEM[(const char * const *)argv_11(D) + 8B]
 583 0140 3C68     		ldr	r4, [r7]	@ D.8369, _8->pack_config
 584              	.LVL68:
 585              	.LBB56:
 586              	.LBB57:
  25:src/console.c ****         res = res*10 + str[i] - '0';
 587              		.loc 1 25 0
 588 0142 0A78     		ldrb	r2, [r1]	@ D.8372, *_98
 589 0144 002A     		cmp	r2, #0	@ D.8372,
 590 0146 00D1     		bne	.LCB500	@
 591 0148 52E1     		b	.L82	@long jump	@
 592              	.LCB500:
 593              	.LVL69:
 594 014a 0023     		movs	r3, #0	@ res,
 595              	.LVL70:
 596 014c 0131     		adds	r1, r1, #1	@ ivtmp.42,
 597              	.LVL71:
 598              	.L37:
  26:src/console.c **** 
 599              		.loc 1 26 0
 600 014e 9800     		lsls	r0, r3, #2	@ tmp405, res,
 601 0150 C318     		adds	r3, r0, r3	@ D.8371, tmp405, res
 602              	.LVL72:
 603 0152 5B00     		lsls	r3, r3, #1	@ tmp407, D.8371,
 604 0154 0131     		adds	r1, r1, #1	@ ivtmp.42,
 605              	.LVL73:
 606 0156 9B18     		adds	r3, r3, r2	@ D.8371, tmp407, D.8372
  25:src/console.c ****         res = res*10 + str[i] - '0';
ARM GAS  /var/folders/z0/6xlwn_996xz3mwq1cgzkbq4r0000gp/T//ccBgBTlB.s 			page 20


 607              		.loc 1 25 0
 608 0158 4A1E     		subs	r2, r1, #1	@ D.8374, ivtmp.42,
 609 015a 1278     		ldrb	r2, [r2]	@ D.8372, MEM[base: _267, offset: 0B]
  26:src/console.c **** 
 610              		.loc 1 26 0
 611 015c 303B     		subs	r3, r3, #48	@ res,
 612              	.LVL74:
  25:src/console.c ****         res = res*10 + str[i] - '0';
 613              		.loc 1 25 0
 614 015e 002A     		cmp	r2, #0	@ D.8372,
 615 0160 F5D1     		bne	.L37	@,
 616              	.LVL75:
 617              	.L36:
 618              	.LBE57:
 619              	.LBE56:
 231:src/console.c ****                 Board_Println("Done!");
 620              		.loc 1 231 0
 621 0162 E360     		str	r3, [r4, #12]	@ res, _97->num_modules
 232:src/console.c ****                 break;
 622              		.loc 1 232 0
 623 0164 7548     		ldr	r0, .L114+32	@,
 624 0166 FFF7FEFF 		bl	Board_Println	@
 625              	.LVL76:
 233:src/console.c ****             case RWL_module_cell_count:
 626              		.loc 1 233 0
 627 016a 79E7     		b	.L19	@
 628              	.L38:
 235:src/console.c ****                 Board_Println("Done!");
 629              		.loc 1 235 0
 630 016c 4346     		mov	r3, r8	@ argv, argv
 631 016e 9968     		ldr	r1, [r3, #8]	@ D.8370, MEM[(const char * const *)argv_11(D) + 8B]
 632 0170 3C68     		ldr	r4, [r7]	@ D.8369, _8->pack_config
 633              	.LVL77:
 634              	.LBB59:
 635              	.LBB60:
  25:src/console.c ****         res = res*10 + str[i] - '0';
 636              		.loc 1 25 0
 637 0172 0A78     		ldrb	r2, [r1]	@ D.8372, *_93
 638 0174 002A     		cmp	r2, #0	@ D.8372,
 639 0176 00D1     		bne	.LCB551	@
 640 0178 44E1     		b	.L83	@long jump	@
 641              	.LCB551:
 642              	.LVL78:
 643 017a 0023     		movs	r3, #0	@ res,
 644              	.LVL79:
 645 017c 0131     		adds	r1, r1, #1	@ ivtmp.46,
 646              	.LVL80:
 647              	.L40:
  26:src/console.c **** 
 648              		.loc 1 26 0
 649 017e 9800     		lsls	r0, r3, #2	@ tmp411, res,
 650 0180 C318     		adds	r3, r0, r3	@ D.8371, tmp411, res
 651              	.LVL81:
 652 0182 5B00     		lsls	r3, r3, #1	@ tmp413, D.8371,
 653 0184 0131     		adds	r1, r1, #1	@ ivtmp.46,
 654              	.LVL82:
 655 0186 9B18     		adds	r3, r3, r2	@ D.8371, tmp413, D.8372
ARM GAS  /var/folders/z0/6xlwn_996xz3mwq1cgzkbq4r0000gp/T//ccBgBTlB.s 			page 21


  25:src/console.c ****         res = res*10 + str[i] - '0';
 656              		.loc 1 25 0
 657 0188 4A1E     		subs	r2, r1, #1	@ D.8374, ivtmp.46,
 658 018a 1278     		ldrb	r2, [r2]	@ D.8372, MEM[base: _270, offset: 0B]
  26:src/console.c **** 
 659              		.loc 1 26 0
 660 018c 303B     		subs	r3, r3, #48	@ res,
 661              	.LVL83:
  25:src/console.c ****         res = res*10 + str[i] - '0';
 662              		.loc 1 25 0
 663 018e 002A     		cmp	r2, #0	@ D.8372,
 664 0190 F5D1     		bne	.L40	@,
 665              	.LVL84:
 666              	.L39:
 667              	.LBE60:
 668              	.LBE59:
 235:src/console.c ****                 Board_Println("Done!");
 669              		.loc 1 235 0
 670 0192 E362     		str	r3, [r4, #44]	@ res, _92->module_cell_count
 236:src/console.c ****                 break;
 671              		.loc 1 236 0
 672 0194 6948     		ldr	r0, .L114+32	@,
 673 0196 FFF7FEFF 		bl	Board_Println	@
 674              	.LVL85:
 237:src/console.c ****             case RWL_cell_charge_c_rating_cC:
 675              		.loc 1 237 0
 676 019a 61E7     		b	.L19	@
 677              	.L59:
 263:src/console.c ****                 Board_Println("Done!");
 678              		.loc 1 263 0
 679 019c 4346     		mov	r3, r8	@ argv, argv
 680 019e 9968     		ldr	r1, [r3, #8]	@ D.8370, MEM[(const char * const *)argv_11(D) + 8B]
 681 01a0 3C68     		ldr	r4, [r7]	@ D.8369, _8->pack_config
 682              	.LVL86:
 683              	.LBB62:
 684              	.LBB63:
  25:src/console.c ****         res = res*10 + str[i] - '0';
 685              		.loc 1 25 0
 686 01a2 0A78     		ldrb	r2, [r1]	@ D.8372, *_58
 687 01a4 002A     		cmp	r2, #0	@ D.8372,
 688 01a6 00D1     		bne	.LCB602	@
 689 01a8 24E1     		b	.L90	@long jump	@
 690              	.LCB602:
 691              	.LVL87:
 692 01aa 0023     		movs	r3, #0	@ res,
 693              	.LVL88:
 694 01ac 0131     		adds	r1, r1, #1	@ ivtmp.74,
 695              	.LVL89:
 696              	.L61:
  26:src/console.c **** 
 697              		.loc 1 26 0
 698 01ae 9800     		lsls	r0, r3, #2	@ tmp453, res,
 699 01b0 C318     		adds	r3, r0, r3	@ D.8371, tmp453, res
 700              	.LVL90:
 701 01b2 5B00     		lsls	r3, r3, #1	@ tmp455, D.8371,
 702 01b4 0131     		adds	r1, r1, #1	@ ivtmp.74,
 703              	.LVL91:
ARM GAS  /var/folders/z0/6xlwn_996xz3mwq1cgzkbq4r0000gp/T//ccBgBTlB.s 			page 22


 704 01b6 9B18     		adds	r3, r3, r2	@ D.8371, tmp455, D.8372
  25:src/console.c ****         res = res*10 + str[i] - '0';
 705              		.loc 1 25 0
 706 01b8 4A1E     		subs	r2, r1, #1	@ D.8374, ivtmp.74,
 707 01ba 1278     		ldrb	r2, [r2]	@ D.8372, MEM[base: _298, offset: 0B]
  26:src/console.c **** 
 708              		.loc 1 26 0
 709 01bc 303B     		subs	r3, r3, #48	@ res,
 710              	.LVL92:
  25:src/console.c ****         res = res*10 + str[i] - '0';
 711              		.loc 1 25 0
 712 01be 002A     		cmp	r2, #0	@ D.8372,
 713 01c0 F5D1     		bne	.L61	@,
 714              	.LVL93:
 715              	.L60:
 716              	.LBE63:
 717              	.LBE62:
 263:src/console.c ****                 Board_Println("Done!");
 718              		.loc 1 263 0
 719 01c2 A362     		str	r3, [r4, #40]	@ res, _57->cc_cell_voltage_mV
 264:src/console.c ****                 break;
 720              		.loc 1 264 0
 721 01c4 5D48     		ldr	r0, .L114+32	@,
 722 01c6 FFF7FEFF 		bl	Board_Println	@
 723              	.LVL94:
 265:src/console.c ****             case RWL_cc_charge_voltage_mV:
 724              		.loc 1 265 0
 725 01ca 49E7     		b	.L19	@
 726              	.L62:
 267:src/console.c ****                 Board_Println("Done!");
 727              		.loc 1 267 0
 728 01cc 4346     		mov	r3, r8	@ argv, argv
 729 01ce 9968     		ldr	r1, [r3, #8]	@ D.8370, MEM[(const char * const *)argv_11(D) + 8B]
 730 01d0 3C68     		ldr	r4, [r7]	@ D.8369, _8->pack_config
 731              	.LVL95:
 732              	.LBB65:
 733              	.LBB66:
  25:src/console.c ****         res = res*10 + str[i] - '0';
 734              		.loc 1 25 0
 735 01d2 0A78     		ldrb	r2, [r1]	@ D.8372, *_53
 736 01d4 002A     		cmp	r2, #0	@ D.8372,
 737 01d6 00D1     		bne	.LCB653	@
 738 01d8 1AE1     		b	.L91	@long jump	@
 739              	.LCB653:
 740              	.LVL96:
 741 01da 0023     		movs	r3, #0	@ res,
 742              	.LVL97:
 743 01dc 0131     		adds	r1, r1, #1	@ ivtmp.78,
 744              	.LVL98:
 745              	.L64:
  26:src/console.c **** 
 746              		.loc 1 26 0
 747 01de 9800     		lsls	r0, r3, #2	@ tmp459, res,
 748 01e0 C318     		adds	r3, r0, r3	@ D.8371, tmp459, res
 749              	.LVL99:
 750 01e2 5B00     		lsls	r3, r3, #1	@ tmp461, D.8371,
 751 01e4 0131     		adds	r1, r1, #1	@ ivtmp.78,
ARM GAS  /var/folders/z0/6xlwn_996xz3mwq1cgzkbq4r0000gp/T//ccBgBTlB.s 			page 23


 752              	.LVL100:
 753 01e6 9B18     		adds	r3, r3, r2	@ D.8371, tmp461, D.8372
  25:src/console.c ****         res = res*10 + str[i] - '0';
 754              		.loc 1 25 0
 755 01e8 4A1E     		subs	r2, r1, #1	@ D.8374, ivtmp.78,
 756 01ea 1278     		ldrb	r2, [r2]	@ D.8372, MEM[base: _302, offset: 0B]
  26:src/console.c **** 
 757              		.loc 1 26 0
 758 01ec 303B     		subs	r3, r3, #48	@ res,
 759              	.LVL101:
  25:src/console.c ****         res = res*10 + str[i] - '0';
 760              		.loc 1 25 0
 761 01ee 002A     		cmp	r2, #0	@ D.8372,
 762 01f0 F5D1     		bne	.L64	@,
 763              	.LVL102:
 764              	.L63:
 765              	.LBE66:
 766              	.LBE65:
 267:src/console.c ****                 Board_Println("Done!");
 767              		.loc 1 267 0
 768 01f2 6363     		str	r3, [r4, #52]	@ res, _52->cc_charge_voltage_mV
 268:src/console.c ****                 break;
 769              		.loc 1 268 0
 770 01f4 5148     		ldr	r0, .L114+32	@,
 771 01f6 FFF7FEFF 		bl	Board_Println	@
 772              	.LVL103:
 269:src/console.c ****             case RWL_cc_charge_current_mA:
 773              		.loc 1 269 0
 774 01fa 31E7     		b	.L19	@
 775              	.L29:
 223:src/console.c ****                 Board_Println("Done!");
 776              		.loc 1 223 0
 777 01fc 4346     		mov	r3, r8	@ argv, argv
 778 01fe 9968     		ldr	r1, [r3, #8]	@ D.8370, MEM[(const char * const *)argv_11(D) + 8B]
 779 0200 3C68     		ldr	r4, [r7]	@ D.8369, _8->pack_config
 780              	.LVL104:
 781              	.LBB68:
 782              	.LBB69:
  25:src/console.c ****         res = res*10 + str[i] - '0';
 783              		.loc 1 25 0
 784 0202 0A78     		ldrb	r2, [r1]	@ D.8372, *_108
 785 0204 002A     		cmp	r2, #0	@ D.8372,
 786 0206 00D1     		bne	.LCB704	@
 787 0208 FEE0     		b	.L80	@long jump	@
 788              	.LCB704:
 789              	.LVL105:
 790 020a 0023     		movs	r3, #0	@ res,
 791              	.LVL106:
 792 020c 0131     		adds	r1, r1, #1	@ ivtmp.34,
 793              	.LVL107:
 794              	.L31:
  26:src/console.c **** 
 795              		.loc 1 26 0
 796 020e 9800     		lsls	r0, r3, #2	@ tmp393, res,
 797 0210 C318     		adds	r3, r0, r3	@ D.8371, tmp393, res
 798              	.LVL108:
 799 0212 5B00     		lsls	r3, r3, #1	@ tmp395, D.8371,
ARM GAS  /var/folders/z0/6xlwn_996xz3mwq1cgzkbq4r0000gp/T//ccBgBTlB.s 			page 24


 800 0214 0131     		adds	r1, r1, #1	@ ivtmp.34,
 801              	.LVL109:
 802 0216 9B18     		adds	r3, r3, r2	@ D.8371, tmp395, D.8372
  25:src/console.c ****         res = res*10 + str[i] - '0';
 803              		.loc 1 25 0
 804 0218 4A1E     		subs	r2, r1, #1	@ D.8374, ivtmp.34,
 805 021a 1278     		ldrb	r2, [r2]	@ D.8372, MEM[base: _258, offset: 0B]
  26:src/console.c **** 
 806              		.loc 1 26 0
 807 021c 303B     		subs	r3, r3, #48	@ res,
 808              	.LVL110:
  25:src/console.c ****         res = res*10 + str[i] - '0';
 809              		.loc 1 25 0
 810 021e 002A     		cmp	r2, #0	@ D.8372,
 811 0220 F5D1     		bne	.L31	@,
 812              	.LVL111:
 813              	.L30:
 814              	.LBE69:
 815              	.LBE68:
 223:src/console.c ****                 Board_Println("Done!");
 816              		.loc 1 223 0
 817 0222 6360     		str	r3, [r4, #4]	@ res, _107->cell_max_mV
 224:src/console.c ****                 break;
 818              		.loc 1 224 0
 819 0224 4548     		ldr	r0, .L114+32	@,
 820 0226 FFF7FEFF 		bl	Board_Println	@
 821              	.LVL112:
 225:src/console.c ****             case RWL_cell_capacity_cAh:
 822              		.loc 1 225 0
 823 022a 19E7     		b	.L19	@
 824              	.L32:
 227:src/console.c ****                 Board_Println("Done!");
 825              		.loc 1 227 0
 826 022c 4346     		mov	r3, r8	@ argv, argv
 827 022e 9968     		ldr	r1, [r3, #8]	@ D.8370, MEM[(const char * const *)argv_11(D) + 8B]
 828 0230 3C68     		ldr	r4, [r7]	@ D.8369, _8->pack_config
 829              	.LVL113:
 830              	.LBB71:
 831              	.LBB72:
  25:src/console.c ****         res = res*10 + str[i] - '0';
 832              		.loc 1 25 0
 833 0232 0A78     		ldrb	r2, [r1]	@ D.8372, *_103
 834 0234 002A     		cmp	r2, #0	@ D.8372,
 835 0236 00D1     		bne	.LCB755	@
 836 0238 E2E0     		b	.L81	@long jump	@
 837              	.LCB755:
 838              	.LVL114:
 839 023a 0023     		movs	r3, #0	@ res,
 840              	.LVL115:
 841 023c 0131     		adds	r1, r1, #1	@ ivtmp.38,
 842              	.LVL116:
 843              	.L34:
  26:src/console.c **** 
 844              		.loc 1 26 0
 845 023e 9800     		lsls	r0, r3, #2	@ tmp399, res,
 846 0240 C318     		adds	r3, r0, r3	@ D.8371, tmp399, res
 847              	.LVL117:
ARM GAS  /var/folders/z0/6xlwn_996xz3mwq1cgzkbq4r0000gp/T//ccBgBTlB.s 			page 25


 848 0242 5B00     		lsls	r3, r3, #1	@ tmp401, D.8371,
 849 0244 0131     		adds	r1, r1, #1	@ ivtmp.38,
 850              	.LVL118:
 851 0246 9B18     		adds	r3, r3, r2	@ D.8371, tmp401, D.8372
  25:src/console.c ****         res = res*10 + str[i] - '0';
 852              		.loc 1 25 0
 853 0248 4A1E     		subs	r2, r1, #1	@ D.8374, ivtmp.38,
 854 024a 1278     		ldrb	r2, [r2]	@ D.8372, MEM[base: _262, offset: 0B]
  26:src/console.c **** 
 855              		.loc 1 26 0
 856 024c 303B     		subs	r3, r3, #48	@ res,
 857              	.LVL119:
  25:src/console.c ****         res = res*10 + str[i] - '0';
 858              		.loc 1 25 0
 859 024e 002A     		cmp	r2, #0	@ D.8372,
 860 0250 F5D1     		bne	.L34	@,
 861              	.LVL120:
 862              	.L33:
 863              	.LBE72:
 864              	.LBE71:
 227:src/console.c ****                 Board_Println("Done!");
 865              		.loc 1 227 0
 866 0252 A360     		str	r3, [r4, #8]	@ res, _102->cell_capacity_cAh
 228:src/console.c ****                 break;
 867              		.loc 1 228 0
 868 0254 3948     		ldr	r0, .L114+32	@,
 869 0256 FFF7FEFF 		bl	Board_Println	@
 870              	.LVL121:
 229:src/console.c ****             case RWL_num_modules:
 871              		.loc 1 229 0
 872 025a 01E7     		b	.L19	@
 873              	.L53:
 255:src/console.c ****                 Board_Println("Done!");
 874              		.loc 1 255 0
 875 025c 4346     		mov	r3, r8	@ argv, argv
 876 025e 9968     		ldr	r1, [r3, #8]	@ D.8370, MEM[(const char * const *)argv_11(D) + 8B]
 877 0260 3C68     		ldr	r4, [r7]	@ D.8369, _8->pack_config
 878              	.LVL122:
 879              	.LBB74:
 880              	.LBB75:
  25:src/console.c ****         res = res*10 + str[i] - '0';
 881              		.loc 1 25 0
 882 0262 0A78     		ldrb	r2, [r1]	@ D.8372, *_68
 883 0264 002A     		cmp	r2, #0	@ D.8372,
 884 0266 00D1     		bne	.LCB806	@
 885 0268 BCE0     		b	.L88	@long jump	@
 886              	.LCB806:
 887              	.LVL123:
 888 026a 0023     		movs	r3, #0	@ res,
 889              	.LVL124:
 890 026c 0131     		adds	r1, r1, #1	@ ivtmp.66,
 891              	.LVL125:
 892              	.L55:
  26:src/console.c **** 
 893              		.loc 1 26 0
 894 026e 9800     		lsls	r0, r3, #2	@ tmp441, res,
 895 0270 C318     		adds	r3, r0, r3	@ D.8371, tmp441, res
ARM GAS  /var/folders/z0/6xlwn_996xz3mwq1cgzkbq4r0000gp/T//ccBgBTlB.s 			page 26


 896              	.LVL126:
 897 0272 5B00     		lsls	r3, r3, #1	@ tmp443, D.8371,
 898 0274 0131     		adds	r1, r1, #1	@ ivtmp.66,
 899              	.LVL127:
 900 0276 9B18     		adds	r3, r3, r2	@ D.8371, tmp443, D.8372
  25:src/console.c ****         res = res*10 + str[i] - '0';
 901              		.loc 1 25 0
 902 0278 4A1E     		subs	r2, r1, #1	@ D.8374, ivtmp.66,
 903 027a 1278     		ldrb	r2, [r2]	@ D.8372, MEM[base: _290, offset: 0B]
  26:src/console.c **** 
 904              		.loc 1 26 0
 905 027c 303B     		subs	r3, r3, #48	@ res,
 906              	.LVL128:
  25:src/console.c ****         res = res*10 + str[i] - '0';
 907              		.loc 1 25 0
 908 027e 002A     		cmp	r2, #0	@ D.8372,
 909 0280 F5D1     		bne	.L55	@,
 910              	.LVL129:
 911              	.L54:
 912              	.LBE75:
 913              	.LBE74:
 255:src/console.c ****                 Board_Println("Done!");
 914              		.loc 1 255 0
 915 0282 2362     		str	r3, [r4, #32]	@ res, _67->cv_min_current_mA
 256:src/console.c ****                 break;
 916              		.loc 1 256 0
 917 0284 2D48     		ldr	r0, .L114+32	@,
 918 0286 FFF7FEFF 		bl	Board_Println	@
 919              	.LVL130:
 257:src/console.c ****             case RWL_cv_min_current_ms:
 920              		.loc 1 257 0
 921 028a E9E6     		b	.L19	@
 922              	.L56:
 259:src/console.c ****                 Board_Println("Done!");
 923              		.loc 1 259 0
 924 028c 4346     		mov	r3, r8	@ argv, argv
 925 028e 9968     		ldr	r1, [r3, #8]	@ D.8370, MEM[(const char * const *)argv_11(D) + 8B]
 926 0290 3C68     		ldr	r4, [r7]	@ D.8369, _8->pack_config
 927              	.LVL131:
 928              	.LBB77:
 929              	.LBB78:
  25:src/console.c ****         res = res*10 + str[i] - '0';
 930              		.loc 1 25 0
 931 0292 0A78     		ldrb	r2, [r1]	@ D.8372, *_63
 932 0294 002A     		cmp	r2, #0	@ D.8372,
 933 0296 00D1     		bne	.LCB857	@
 934 0298 AEE0     		b	.L89	@long jump	@
 935              	.LCB857:
 936              	.LVL132:
 937 029a 0023     		movs	r3, #0	@ res,
 938              	.LVL133:
 939 029c 0131     		adds	r1, r1, #1	@ ivtmp.70,
 940              	.LVL134:
 941              	.L58:
  26:src/console.c **** 
 942              		.loc 1 26 0
 943 029e 9800     		lsls	r0, r3, #2	@ tmp447, res,
ARM GAS  /var/folders/z0/6xlwn_996xz3mwq1cgzkbq4r0000gp/T//ccBgBTlB.s 			page 27


 944 02a0 C318     		adds	r3, r0, r3	@ D.8371, tmp447, res
 945              	.LVL135:
 946 02a2 5B00     		lsls	r3, r3, #1	@ tmp449, D.8371,
 947 02a4 0131     		adds	r1, r1, #1	@ ivtmp.70,
 948              	.LVL136:
 949 02a6 9B18     		adds	r3, r3, r2	@ D.8371, tmp449, D.8372
  25:src/console.c ****         res = res*10 + str[i] - '0';
 950              		.loc 1 25 0
 951 02a8 4A1E     		subs	r2, r1, #1	@ D.8374, ivtmp.70,
 952 02aa 1278     		ldrb	r2, [r2]	@ D.8372, MEM[base: _294, offset: 0B]
  26:src/console.c **** 
 953              		.loc 1 26 0
 954 02ac 303B     		subs	r3, r3, #48	@ res,
 955              	.LVL137:
  25:src/console.c ****         res = res*10 + str[i] - '0';
 956              		.loc 1 25 0
 957 02ae 002A     		cmp	r2, #0	@ D.8372,
 958 02b0 F5D1     		bne	.L58	@,
 959              	.LVL138:
 960              	.L57:
 961              	.LBE78:
 962              	.LBE77:
 259:src/console.c ****                 Board_Println("Done!");
 963              		.loc 1 259 0
 964 02b2 6362     		str	r3, [r4, #36]	@ res, _62->cv_min_current_ms
 260:src/console.c ****                 break;
 965              		.loc 1 260 0
 966 02b4 2148     		ldr	r0, .L114+32	@,
 967 02b6 FFF7FEFF 		bl	Board_Println	@
 968              	.LVL139:
 261:src/console.c ****             case RWL_cc_cell_voltage_mV:
 969              		.loc 1 261 0
 970 02ba D1E6     		b	.L19	@
 971              	.L41:
 239:src/console.c ****               Board_Println("Done!");
 972              		.loc 1 239 0
 973 02bc 4346     		mov	r3, r8	@ argv, argv
 974 02be 9968     		ldr	r1, [r3, #8]	@ D.8370, MEM[(const char * const *)argv_11(D) + 8B]
 975 02c0 3C68     		ldr	r4, [r7]	@ D.8369, _8->pack_config
 976              	.LVL140:
 977              	.LBB80:
 978              	.LBB81:
  25:src/console.c ****         res = res*10 + str[i] - '0';
 979              		.loc 1 25 0
 980 02c2 0A78     		ldrb	r2, [r1]	@ D.8372, *_88
 981 02c4 002A     		cmp	r2, #0	@ D.8372,
 982 02c6 00D1     		bne	.LCB908	@
 983 02c8 8EE0     		b	.L84	@long jump	@
 984              	.LCB908:
 985              	.LVL141:
 986 02ca 0023     		movs	r3, #0	@ res,
 987              	.LVL142:
 988 02cc 0131     		adds	r1, r1, #1	@ ivtmp.50,
 989              	.LVL143:
 990              	.L43:
  26:src/console.c **** 
 991              		.loc 1 26 0
ARM GAS  /var/folders/z0/6xlwn_996xz3mwq1cgzkbq4r0000gp/T//ccBgBTlB.s 			page 28


 992 02ce 9800     		lsls	r0, r3, #2	@ tmp417, res,
 993 02d0 C318     		adds	r3, r0, r3	@ D.8371, tmp417, res
 994              	.LVL144:
 995 02d2 5B00     		lsls	r3, r3, #1	@ tmp419, D.8371,
 996 02d4 0131     		adds	r1, r1, #1	@ ivtmp.50,
 997              	.LVL145:
 998 02d6 9B18     		adds	r3, r3, r2	@ D.8371, tmp419, D.8372
  25:src/console.c ****         res = res*10 + str[i] - '0';
 999              		.loc 1 25 0
 1000 02d8 4A1E     		subs	r2, r1, #1	@ D.8374, ivtmp.50,
 1001 02da 1278     		ldrb	r2, [r2]	@ D.8372, MEM[base: _273, offset: 0B]
  26:src/console.c **** 
 1002              		.loc 1 26 0
 1003 02dc 303B     		subs	r3, r3, #48	@ res,
 1004              	.LVL146:
  25:src/console.c ****         res = res*10 + str[i] - '0';
 1005              		.loc 1 25 0
 1006 02de 002A     		cmp	r2, #0	@ D.8372,
 1007 02e0 F5D1     		bne	.L43	@,
 1008              	.LVL147:
 1009              	.L42:
 1010              	.LBE81:
 1011              	.LBE80:
 239:src/console.c ****               Board_Println("Done!");
 1012              		.loc 1 239 0
 1013 02e2 2361     		str	r3, [r4, #16]	@ res, _87->cell_charge_c_rating_cC
 240:src/console.c ****               break;
 1014              		.loc 1 240 0
 1015 02e4 1548     		ldr	r0, .L114+32	@,
 1016 02e6 FFF7FEFF 		bl	Board_Println	@
 1017              	.LVL148:
 241:src/console.c ****             case RWL_bal_on_thresh_mV:
 1018              		.loc 1 241 0
 1019 02ea B9E6     		b	.L19	@
 1020              	.L44:
 243:src/console.c ****                 Board_Println("Done!");
 1021              		.loc 1 243 0
 1022 02ec 4346     		mov	r3, r8	@ argv, argv
 1023 02ee 9968     		ldr	r1, [r3, #8]	@ D.8370, MEM[(const char * const *)argv_11(D) + 8B]
 1024 02f0 3C68     		ldr	r4, [r7]	@ D.8369, _8->pack_config
 1025              	.LVL149:
 1026              	.LBB83:
 1027              	.LBB84:
  25:src/console.c ****         res = res*10 + str[i] - '0';
 1028              		.loc 1 25 0
 1029 02f2 0A78     		ldrb	r2, [r1]	@ D.8372, *_83
 1030 02f4 002A     		cmp	r2, #0	@ D.8372,
 1031 02f6 6FD0     		beq	.L85	@,
 1032              	.LVL150:
 1033 02f8 0023     		movs	r3, #0	@ res,
 1034              	.LVL151:
 1035 02fa 0131     		adds	r1, r1, #1	@ ivtmp.54,
 1036              	.LVL152:
 1037              	.L46:
  26:src/console.c **** 
 1038              		.loc 1 26 0
 1039 02fc 9800     		lsls	r0, r3, #2	@ tmp423, res,
ARM GAS  /var/folders/z0/6xlwn_996xz3mwq1cgzkbq4r0000gp/T//ccBgBTlB.s 			page 29


 1040 02fe C318     		adds	r3, r0, r3	@ D.8371, tmp423, res
 1041              	.LVL153:
 1042 0300 5B00     		lsls	r3, r3, #1	@ tmp425, D.8371,
 1043 0302 0131     		adds	r1, r1, #1	@ ivtmp.54,
 1044              	.LVL154:
 1045 0304 9B18     		adds	r3, r3, r2	@ D.8371, tmp425, D.8372
  25:src/console.c ****         res = res*10 + str[i] - '0';
 1046              		.loc 1 25 0
 1047 0306 4A1E     		subs	r2, r1, #1	@ D.8374, ivtmp.54,
 1048 0308 1278     		ldrb	r2, [r2]	@ D.8372, MEM[base: _277, offset: 0B]
  26:src/console.c **** 
 1049              		.loc 1 26 0
 1050 030a 303B     		subs	r3, r3, #48	@ res,
 1051              	.LVL155:
  25:src/console.c ****         res = res*10 + str[i] - '0';
 1052              		.loc 1 25 0
 1053 030c 002A     		cmp	r2, #0	@ D.8372,
 1054 030e F5D1     		bne	.L46	@,
 1055              	.LVL156:
 1056              	.L45:
 1057              	.LBE84:
 1058              	.LBE83:
 243:src/console.c ****                 Board_Println("Done!");
 1059              		.loc 1 243 0
 1060 0310 6361     		str	r3, [r4, #20]	@ res, _82->bal_on_thresh_mV
 244:src/console.c ****                 break;
 1061              		.loc 1 244 0
 1062 0312 0A48     		ldr	r0, .L114+32	@,
 1063 0314 FFF7FEFF 		bl	Board_Println	@
 1064              	.LVL157:
 245:src/console.c ****             case RWL_bal_off_thresh_mV:
 1065              		.loc 1 245 0
 1066 0318 A2E6     		b	.L19	@
 1067              	.L115:
 1068 031a C046     		.align	2
 1069              	.L114:
 1070 031c 00000000 		.word	.LANCHOR1
 1071 0320 00000000 		.word	.LANCHOR2
 1072 0324 88000000 		.word	.LC24
 1073 0328 94000000 		.word	.LC26
 1074 032c E4000000 		.word	.LC36
 1075 0330 9C000000 		.word	.LC29
 1076 0334 00000000 		.word	.L76
 1077 0338 C8000000 		.word	.LC34
 1078 033c C0000000 		.word	.LC32
 1079              	.L65:
 271:src/console.c ****                 Board_Println("Done!");
 1080              		.loc 1 271 0
 1081 0340 4346     		mov	r3, r8	@ argv, argv
 1082 0342 9968     		ldr	r1, [r3, #8]	@ D.8370, MEM[(const char * const *)argv_11(D) + 8B]
 1083 0344 3C68     		ldr	r4, [r7]	@ D.8369, _8->pack_config
 1084              	.LVL158:
 1085              	.LBB86:
 1086              	.LBB87:
  25:src/console.c ****         res = res*10 + str[i] - '0';
 1087              		.loc 1 25 0
 1088 0346 0A78     		ldrb	r2, [r1]	@ D.8372, *_48
ARM GAS  /var/folders/z0/6xlwn_996xz3mwq1cgzkbq4r0000gp/T//ccBgBTlB.s 			page 30


 1089 0348 002A     		cmp	r2, #0	@ D.8372,
 1090 034a 49D0     		beq	.L92	@,
 1091              	.LVL159:
 1092 034c 0023     		movs	r3, #0	@ res,
 1093              	.LVL160:
 1094 034e 0131     		adds	r1, r1, #1	@ ivtmp.82,
 1095              	.LVL161:
 1096              	.L67:
  26:src/console.c **** 
 1097              		.loc 1 26 0
 1098 0350 9800     		lsls	r0, r3, #2	@ tmp465, res,
 1099 0352 C318     		adds	r3, r0, r3	@ D.8371, tmp465, res
 1100              	.LVL162:
 1101 0354 5B00     		lsls	r3, r3, #1	@ tmp467, D.8371,
 1102 0356 0131     		adds	r1, r1, #1	@ ivtmp.82,
 1103              	.LVL163:
 1104 0358 9B18     		adds	r3, r3, r2	@ D.8371, tmp467, D.8372
  25:src/console.c ****         res = res*10 + str[i] - '0';
 1105              		.loc 1 25 0
 1106 035a 4A1E     		subs	r2, r1, #1	@ D.8374, ivtmp.82,
 1107 035c 1278     		ldrb	r2, [r2]	@ D.8372, MEM[base: _306, offset: 0B]
  26:src/console.c **** 
 1108              		.loc 1 26 0
 1109 035e 303B     		subs	r3, r3, #48	@ res,
 1110              	.LVL164:
  25:src/console.c ****         res = res*10 + str[i] - '0';
 1111              		.loc 1 25 0
 1112 0360 002A     		cmp	r2, #0	@ D.8372,
 1113 0362 F5D1     		bne	.L67	@,
 1114              	.LVL165:
 1115              	.L66:
 1116              	.LBE87:
 1117              	.LBE86:
 271:src/console.c ****                 Board_Println("Done!");
 1118              		.loc 1 271 0
 1119 0364 A363     		str	r3, [r4, #56]	@ res, _47->cc_charge_current_mA
 272:src/console.c ****                 break;
 1120              		.loc 1 272 0
 1121 0366 2C48     		ldr	r0, .L116	@,
 1122 0368 FFF7FEFF 		bl	Board_Println	@
 1123              	.LVL166:
 273:src/console.c ****             case RWL_cv_charge_voltage_mV:
 1124              		.loc 1 273 0
 1125 036c 78E6     		b	.L19	@
 1126              	.L68:
 275:src/console.c ****                 Board_Println("Done!");
 1127              		.loc 1 275 0
 1128 036e 4346     		mov	r3, r8	@ argv, argv
 1129 0370 9968     		ldr	r1, [r3, #8]	@ D.8370, MEM[(const char * const *)argv_11(D) + 8B]
 1130 0372 3C68     		ldr	r4, [r7]	@ D.8369, _8->pack_config
 1131              	.LVL167:
 1132              	.LBB89:
 1133              	.LBB90:
  25:src/console.c ****         res = res*10 + str[i] - '0';
 1134              		.loc 1 25 0
 1135 0374 0A78     		ldrb	r2, [r1]	@ D.8372, *_43
 1136 0376 002A     		cmp	r2, #0	@ D.8372,
ARM GAS  /var/folders/z0/6xlwn_996xz3mwq1cgzkbq4r0000gp/T//ccBgBTlB.s 			page 31


 1137 0378 30D0     		beq	.L93	@,
 1138              	.LVL168:
 1139 037a 0023     		movs	r3, #0	@ res,
 1140              	.LVL169:
 1141 037c 0131     		adds	r1, r1, #1	@ ivtmp.86,
 1142              	.LVL170:
 1143              	.L70:
  26:src/console.c **** 
 1144              		.loc 1 26 0
 1145 037e 9800     		lsls	r0, r3, #2	@ tmp471, res,
 1146 0380 C318     		adds	r3, r0, r3	@ D.8371, tmp471, res
 1147              	.LVL171:
 1148 0382 5B00     		lsls	r3, r3, #1	@ tmp473, D.8371,
 1149 0384 0131     		adds	r1, r1, #1	@ ivtmp.86,
 1150              	.LVL172:
 1151 0386 9B18     		adds	r3, r3, r2	@ D.8371, tmp473, D.8372
  25:src/console.c ****         res = res*10 + str[i] - '0';
 1152              		.loc 1 25 0
 1153 0388 4A1E     		subs	r2, r1, #1	@ D.8374, ivtmp.86,
 1154 038a 1278     		ldrb	r2, [r2]	@ D.8372, MEM[base: _172, offset: 0B]
  26:src/console.c **** 
 1155              		.loc 1 26 0
 1156 038c 303B     		subs	r3, r3, #48	@ res,
 1157              	.LVL173:
  25:src/console.c ****         res = res*10 + str[i] - '0';
 1158              		.loc 1 25 0
 1159 038e 002A     		cmp	r2, #0	@ D.8372,
 1160 0390 F5D1     		bne	.L70	@,
 1161              	.LVL174:
 1162              	.L69:
 1163              	.LBE90:
 1164              	.LBE89:
 275:src/console.c ****                 Board_Println("Done!");
 1165              		.loc 1 275 0
 1166 0392 E363     		str	r3, [r4, #60]	@ res, _42->cv_charge_voltage_mV
 276:src/console.c ****                 break;
 1167              		.loc 1 276 0
 1168 0394 2048     		ldr	r0, .L116	@,
 1169 0396 FFF7FEFF 		bl	Board_Println	@
 1170              	.LVL175:
 277:src/console.c ****             case RWL_cv_charge_current_mA:
 1171              		.loc 1 277 0
 1172 039a 61E6     		b	.L19	@
 1173              	.L77:
 1174 039c 4346     		mov	r3, r8	@ argv, argv
 1175 039e 9C68     		ldr	r4, [r3, #8]	@ D.8375, MEM[(const char * const *)argv_11(D) + 8B]
 1176              	.LVL176:
 286:src/console.c ****                         foundynloc = true;
 1177              		.loc 1 286 0
 1178 03a0 1E49     		ldr	r1, .L116+4	@,
 1179 03a2 2000     		movs	r0, r4	@, D.8375
 1180 03a4 FFF7FEFF 		bl	strcmp	@
 1181              	.LVL177:
 1182 03a8 0028     		cmp	r0, #0	@ tmp491,
 1183 03aa 0DD0     		beq	.L78	@,
 1184              	.LVL178:
 1185 03ac 1C49     		ldr	r1, .L116+8	@,
ARM GAS  /var/folders/z0/6xlwn_996xz3mwq1cgzkbq4r0000gp/T//ccBgBTlB.s 			page 32


 1186 03ae 2000     		movs	r0, r4	@, D.8375
 1187 03b0 FFF7FEFF 		bl	strcmp	@
 1188              	.LVL179:
 1189 03b4 0028     		cmp	r0, #0	@ tmp494,
 1190 03b6 00D0     		beq	.LCB1131	@
 1191 03b8 4BE6     		b	.L75	@long jump	@
 1192              	.LCB1131:
 1193              	.LVL180:
 298:src/console.c ****                             Board_Println("Done!");
 1194              		.loc 1 298 0
 1195 03ba 4423     		movs	r3, #68	@ tmp497,
 1196 03bc 3A68     		ldr	r2, [r7]	@ _8->pack_config, _8->pack_config
 1197 03be D054     		strb	r0, [r2, r3]	@ tmp494, _29->bms_comm
 299:src/console.c ****                             break;
 1198              		.loc 1 299 0
 1199 03c0 1548     		ldr	r0, .L116	@,
 1200 03c2 FFF7FEFF 		bl	Board_Println	@
 1201              	.LVL181:
 300:src/console.c ****                         case YNL_LENGTH:
 1202              		.loc 1 300 0
 1203 03c6 4BE6     		b	.L19	@
 1204              	.LVL182:
 1205              	.L78:
 294:src/console.c ****                             Board_Println("Done!");
 1206              		.loc 1 294 0
 1207 03c8 0121     		movs	r1, #1	@ tmp503,
 1208 03ca 4423     		movs	r3, #68	@ tmp502,
 1209 03cc 3A68     		ldr	r2, [r7]	@ _8->pack_config, _8->pack_config
 295:src/console.c ****                             break;
 1210              		.loc 1 295 0
 1211 03ce 1248     		ldr	r0, .L116	@,
 294:src/console.c ****                             Board_Println("Done!");
 1212              		.loc 1 294 0
 1213 03d0 D154     		strb	r1, [r2, r3]	@ tmp503, _33->bms_comm
 295:src/console.c ****                             break;
 1214              		.loc 1 295 0
 1215 03d2 FFF7FEFF 		bl	Board_Println	@
 1216              	.LVL183:
 296:src/console.c ****                         case YNL_NO:
 1217              		.loc 1 296 0
 1218 03d6 43E6     		b	.L19	@
 1219              	.LVL184:
 1220              	.L85:
 1221              	.LBB92:
 1222              	.LBB85:
  20:src/console.c **** 
 1223              		.loc 1 20 0
 1224 03d8 0023     		movs	r3, #0	@ res,
 1225              	.LVL185:
 1226 03da 99E7     		b	.L45	@
 1227              	.LVL186:
 1228              	.L93:
 1229              	.LBE85:
 1230              	.LBE92:
 1231              	.LBB93:
 1232              	.LBB91:
 1233 03dc 0023     		movs	r3, #0	@ res,
ARM GAS  /var/folders/z0/6xlwn_996xz3mwq1cgzkbq4r0000gp/T//ccBgBTlB.s 			page 33


 1234              	.LVL187:
 1235 03de D8E7     		b	.L69	@
 1236              	.LVL188:
 1237              	.L92:
 1238              	.LBE91:
 1239              	.LBE93:
 1240              	.LBB94:
 1241              	.LBB88:
 1242 03e0 0023     		movs	r3, #0	@ res,
 1243              	.LVL189:
 1244 03e2 BFE7     		b	.L66	@
 1245              	.LVL190:
 1246              	.L88:
 1247              	.LBE88:
 1248              	.LBE94:
 1249              	.LBB95:
 1250              	.LBB76:
 1251 03e4 0023     		movs	r3, #0	@ res,
 1252              	.LVL191:
 1253 03e6 4CE7     		b	.L54	@
 1254              	.LVL192:
 1255              	.L84:
 1256              	.LBE76:
 1257              	.LBE95:
 1258              	.LBB96:
 1259              	.LBB82:
 1260 03e8 0023     		movs	r3, #0	@ res,
 1261              	.LVL193:
 1262 03ea 7AE7     		b	.L42	@
 1263              	.LVL194:
 1264              	.L86:
 1265              	.LBE82:
 1266              	.LBE96:
 1267              	.LBB97:
 1268              	.LBB52:
 1269 03ec 0023     		movs	r3, #0	@ res,
 1270              	.LVL195:
 1271 03ee 88E6     		b	.L48	@
 1272              	.LVL196:
 1273              	.L82:
 1274              	.LBE52:
 1275              	.LBE97:
 1276              	.LBB98:
 1277              	.LBB58:
 1278 03f0 0023     		movs	r3, #0	@ res,
 1279              	.LVL197:
 1280 03f2 B6E6     		b	.L36	@
 1281              	.LVL198:
 1282              	.L90:
 1283              	.LBE58:
 1284              	.LBE98:
 1285              	.LBB99:
 1286              	.LBB64:
 1287 03f4 0023     		movs	r3, #0	@ res,
 1288              	.LVL199:
 1289 03f6 E4E6     		b	.L60	@
 1290              	.LVL200:
ARM GAS  /var/folders/z0/6xlwn_996xz3mwq1cgzkbq4r0000gp/T//ccBgBTlB.s 			page 34


 1291              	.L89:
 1292              	.LBE64:
 1293              	.LBE99:
 1294              	.LBB100:
 1295              	.LBB79:
 1296 03f8 0023     		movs	r3, #0	@ res,
 1297              	.LVL201:
 1298 03fa 5AE7     		b	.L57	@
 1299              	.LVL202:
 1300              	.L79:
 1301              	.LBE79:
 1302              	.LBE100:
 1303              	.LBB101:
 1304              	.LBB49:
 1305 03fc 0023     		movs	r3, #0	@ res,
 1306              	.LVL203:
 1307 03fe 68E6     		b	.L27	@
 1308              	.LVL204:
 1309              	.L81:
 1310              	.LBE49:
 1311              	.LBE101:
 1312              	.LBB102:
 1313              	.LBB73:
 1314 0400 0023     		movs	r3, #0	@ res,
 1315              	.LVL205:
 1316 0402 26E7     		b	.L33	@
 1317              	.LVL206:
 1318              	.L83:
 1319              	.LBE73:
 1320              	.LBE102:
 1321              	.LBB103:
 1322              	.LBB61:
 1323 0404 0023     		movs	r3, #0	@ res,
 1324              	.LVL207:
 1325 0406 C4E6     		b	.L39	@
 1326              	.LVL208:
 1327              	.L80:
 1328              	.LBE61:
 1329              	.LBE103:
 1330              	.LBB104:
 1331              	.LBB70:
 1332 0408 0023     		movs	r3, #0	@ res,
 1333              	.LVL209:
 1334 040a 0AE7     		b	.L30	@
 1335              	.LVL210:
 1336              	.L94:
 1337              	.LBE70:
 1338              	.LBE104:
 1339              	.LBB105:
 1340              	.LBB46:
 1341 040c 0023     		movs	r3, #0	@ res,
 1342              	.LVL211:
 1343 040e 48E6     		b	.L72	@
 1344              	.LVL212:
 1345              	.L91:
 1346              	.LBE46:
 1347              	.LBE105:
ARM GAS  /var/folders/z0/6xlwn_996xz3mwq1cgzkbq4r0000gp/T//ccBgBTlB.s 			page 35


 1348              	.LBB106:
 1349              	.LBB67:
 1350 0410 0023     		movs	r3, #0	@ res,
 1351              	.LVL213:
 1352 0412 EEE6     		b	.L63	@
 1353              	.LVL214:
 1354              	.L87:
 1355              	.LBE67:
 1356              	.LBE106:
 1357              	.LBB107:
 1358              	.LBB55:
 1359 0414 0023     		movs	r3, #0	@ res,
 1360              	.LVL215:
 1361 0416 8CE6     		b	.L51	@
 1362              	.L117:
 1363              		.align	2
 1364              	.L116:
 1365 0418 C0000000 		.word	.LC32
 1366 041c F8000000 		.word	.LC39
 1367 0420 FC000000 		.word	.LC41
 1368              	.LBE55:
 1369              	.LBE107:
 1370              	.LBE43:
 1371              		.cfi_endproc
 1372              	.LFE200:
 1373              		.size	set, .-set
 1374              		.section	.text.chrg,"ax",%progbits
 1375              		.align	2
 1376              		.code	16
 1377              		.thumb_func
 1378              		.type	chrg, %function
 1379              	chrg:
 1380              	.LFB205:
 412:src/console.c **** 
 413:src/console.c **** 
 414:src/console.c **** static void bal(const char * const * argv) {
 415:src/console.c ****     UNUSED(argv);
 416:src/console.c ****     if (csb_state->curr_mode == CSB_SSM_MODE_BALANCE || Is_Valid_Jump(csb_state->curr_mode, CSB_SSM
 417:src/console.c ****         if (strcmp(argv[1],"off") == 0) {
 418:src/console.c ****             console_output->valid_mode_request = false;
 419:src/console.c ****             console_output->balance_mV = UINT32_MAX;
 420:src/console.c ****             Board_Println("bal off");
 421:src/console.c ****         } else {
 422:src/console.c ****             console_output->valid_mode_request = true;
 423:src/console.c ****             console_output->mode_request = CSB_SSM_MODE_BALANCE;
 424:src/console.c ****             console_output->balance_mV = my_atou(argv[1]);
 425:src/console.c ****             Board_Println("bal on");
 426:src/console.c ****         }
 427:src/console.c ****     } else {
 428:src/console.c ****         Board_Println("Must be in standby");
 429:src/console.c ****     }
 430:src/console.c **** }
 431:src/console.c **** 
 432:src/console.c **** static void chrg(const char * const * argv) {
 1381              		.loc 1 432 0
 1382              		.cfi_startproc
 1383              		@ args = 0, pretend = 0, frame = 0
ARM GAS  /var/folders/z0/6xlwn_996xz3mwq1cgzkbq4r0000gp/T//ccBgBTlB.s 			page 36


 1384              		@ frame_needed = 0, uses_anonymous_args = 0
 1385              	.LVL216:
 1386 0000 10B5     		push	{r4, lr}	@
 1387              		.cfi_def_cfa_offset 8
 1388              		.cfi_offset 4, -8
 1389              		.cfi_offset 14, -4
 433:src/console.c ****     UNUSED(argv);
 434:src/console.c ****     if (csb_state->curr_mode == CSB_SSM_MODE_CHARGE || Is_Valid_Jump(csb_state->curr_mode, CSB_SSM_
 1390              		.loc 1 434 0
 1391 0002 104B     		ldr	r3, .L130	@ tmp116,
 1392 0004 1B68     		ldr	r3, [r3]	@ csb_state, csb_state
 1393 0006 1879     		ldrb	r0, [r3, #4]	@ D.8391,
 1394              	.LVL217:
 1395 0008 0228     		cmp	r0, #2	@ D.8391,
 1396 000a 04D0     		beq	.L122	@,
 1397              		.loc 1 434 0 is_stmt 0 discriminator 1
 1398 000c 0221     		movs	r1, #2	@,
 1399 000e FFF7FEFF 		bl	Is_Valid_Jump	@
 1400              	.LVL218:
 1401 0012 0028     		cmp	r0, #0	@ tmp120,
 1402 0014 12D0     		beq	.L129	@,
 1403              	.L122:
 435:src/console.c ****         if (console_output->valid_mode_request) {
 1404              		.loc 1 435 0 is_stmt 1
 1405 0016 0C4B     		ldr	r3, .L130+4	@ tmp118,
 1406 0018 1B68     		ldr	r3, [r3]	@ D.8393, console_output
 1407 001a 1A78     		ldrb	r2, [r3]	@ *_9, *_9
 1408 001c 002A     		cmp	r2, #0	@ *_9,
 1409 001e 07D1     		bne	.L120	@,
 436:src/console.c ****             console_output->valid_mode_request = false;
 437:src/console.c ****             Board_Println("chrg off");
 438:src/console.c ****         } else {
 439:src/console.c ****             console_output->valid_mode_request = true;
 1410              		.loc 1 439 0
 1411 0020 0122     		movs	r2, #1	@ tmp125,
 1412 0022 1A70     		strb	r2, [r3]	@ tmp125, _9->valid_mode_request
 440:src/console.c ****             console_output->mode_request = CSB_SSM_MODE_CHARGE;
 1413              		.loc 1 440 0
 1414 0024 0132     		adds	r2, r2, #1	@ tmp127,
 1415 0026 9A70     		strb	r2, [r3, #2]	@ tmp127, _9->mode_request
 441:src/console.c ****             Board_Println("chrg on");
 1416              		.loc 1 441 0
 1417 0028 0848     		ldr	r0, .L130+8	@,
 1418 002a FFF7FEFF 		bl	Board_Println	@
 1419              	.LVL219:
 1420              	.L118:
 442:src/console.c ****         }
 443:src/console.c ****     } else {
 444:src/console.c ****         Board_Println("Must be in standby");
 445:src/console.c ****     }
 446:src/console.c **** }
 1421              		.loc 1 446 0
 1422              		@ sp needed	@
 1423 002e 10BD     		pop	{r4, pc}
 1424              	.L120:
 436:src/console.c ****             Board_Println("chrg off");
 1425              		.loc 1 436 0
ARM GAS  /var/folders/z0/6xlwn_996xz3mwq1cgzkbq4r0000gp/T//ccBgBTlB.s 			page 37


 1426 0030 0022     		movs	r2, #0	@ tmp122,
 437:src/console.c ****         } else {
 1427              		.loc 1 437 0
 1428 0032 0748     		ldr	r0, .L130+12	@,
 436:src/console.c ****             Board_Println("chrg off");
 1429              		.loc 1 436 0
 1430 0034 1A70     		strb	r2, [r3]	@ tmp122, _9->valid_mode_request
 437:src/console.c ****         } else {
 1431              		.loc 1 437 0
 1432 0036 FFF7FEFF 		bl	Board_Println	@
 1433              	.LVL220:
 1434 003a F8E7     		b	.L118	@
 1435              	.L129:
 444:src/console.c ****     }
 1436              		.loc 1 444 0
 1437 003c 0548     		ldr	r0, .L130+16	@,
 1438 003e FFF7FEFF 		bl	Board_Println	@
 1439              	.LVL221:
 1440              		.loc 1 446 0
 1441 0042 F4E7     		b	.L118	@
 1442              	.L131:
 1443              		.align	2
 1444              	.L130:
 1445 0044 00000000 		.word	.LANCHOR1
 1446 0048 00000000 		.word	.LANCHOR0
 1447 004c 0C010000 		.word	.LC48
 1448 0050 00010000 		.word	.LC46
 1449 0054 14010000 		.word	.LC50
 1450              		.cfi_endproc
 1451              	.LFE205:
 1452              		.size	chrg, .-chrg
 1453              		.section	.text.get,"ax",%progbits
 1454              		.align	2
 1455              		.code	16
 1456              		.thumb_func
 1457              		.type	get, %function
 1458              	get:
 1459              	.LFB199:
  32:src/console.c ****     rw_loc_label_t rwloc;
 1460              		.loc 1 32 0
 1461              		.cfi_startproc
 1462              		@ args = 0, pretend = 0, frame = 24
 1463              		@ frame_needed = 0, uses_anonymous_args = 0
 1464              	.LVL222:
 1465 0000 F0B5     		push	{r4, r5, r6, r7, lr}	@
 1466              		.cfi_def_cfa_offset 20
 1467              		.cfi_offset 4, -20
 1468              		.cfi_offset 5, -16
 1469              		.cfi_offset 6, -12
 1470              		.cfi_offset 7, -8
 1471              		.cfi_offset 14, -4
 1472 0002 9F4D     		ldr	r5, .L190	@ ivtmp.152,
 1473 0004 87B0     		sub	sp, sp, #28	@,,
 1474              		.cfi_def_cfa_offset 48
 1475 0006 4668     		ldr	r6, [r0, #4]	@ D.8443, MEM[(const char * const *)argv_9(D) + 4B]
 1476 0008 2F1D     		adds	r7, r5, #4	@ ivtmp.167, ivtmp.152,
  32:src/console.c ****     rw_loc_label_t rwloc;
ARM GAS  /var/folders/z0/6xlwn_996xz3mwq1cgzkbq4r0000gp/T//ccBgBTlB.s 			page 38


 1477              		.loc 1 32 0
 1478 000a 9E49     		ldr	r1, .L190+4	@ D.8443,
  37:src/console.c ****         if (strcmp(argv[1],locstring[rwloc]) == 0){
 1479              		.loc 1 37 0
 1480 000c 0024     		movs	r4, #0	@ rwloc,
 1481 000e 00E0     		b	.L136	@
 1482              	.LVL223:
 1483              	.L134:
 1484 0010 02CF     		ldmia	r7!, {r1}	@ MEM[base: _208, offset: 0B], D.8443
 1485              	.LVL224:
 1486              	.L136:
  38:src/console.c ****             foundloc = true;
 1487              		.loc 1 38 0
 1488 0012 3000     		movs	r0, r6	@, D.8443
 1489 0014 FFF7FEFF 		bl	strcmp	@
 1490              	.LVL225:
 1491 0018 0028     		cmp	r0, #0	@ tmp288,
 1492 001a 15D0     		beq	.L133	@,
  37:src/console.c ****         if (strcmp(argv[1],locstring[rwloc]) == 0){
 1493              		.loc 1 37 0 discriminator 2
 1494 001c 0134     		adds	r4, r4, #1	@ tmp290,
 1495              	.LVL226:
 1496 001e E4B2     		uxtb	r4, r4	@ rwloc, tmp290
 1497              	.LVL227:
 1498 0020 112C     		cmp	r4, #17	@ rwloc,
 1499 0022 F5D1     		bne	.L134	@,
  37:src/console.c ****         if (strcmp(argv[1],locstring[rwloc]) == 0){
 1500              		.loc 1 37 0 is_stmt 0
 1501 0024 9849     		ldr	r1, .L190+8	@ D.8443,
 1502 0026 00E0     		b	.L135	@
 1503              	.LVL228:
 1504              	.L184:
 1505 0028 696C     		ldr	r1, [r5, #68]	@ D.8443, MEM[base: _4, offset: 68B]
 1506              	.LVL229:
 1507              	.L135:
 1508              	.LBB108:
 123:src/console.c ****                 foundloc = true;
 1509              		.loc 1 123 0 is_stmt 1
 1510 002a 3000     		movs	r0, r6	@, D.8443
 1511 002c FFF7FEFF 		bl	strcmp	@
 1512              	.LVL230:
 1513 0030 0028     		cmp	r0, #0	@ tmp396,
 1514 0032 0FD0     		beq	.L156	@,
 122:src/console.c ****             if (strcmp(argv[1],locstring[roloc]) == 0){
 1515              		.loc 1 122 0 discriminator 2
 1516 0034 0134     		adds	r4, r4, #1	@ tmp398,
 1517              	.LVL231:
 1518 0036 E4B2     		uxtb	r4, r4	@ roloc, tmp398
 1519              	.LVL232:
 1520 0038 0435     		adds	r5, r5, #4	@ ivtmp.152,
 1521 003a 182C     		cmp	r4, #24	@ roloc,
 1522 003c F4D1     		bne	.L184	@,
 195:src/console.c ****         }
 1523              		.loc 1 195 0
 1524 003e 9348     		ldr	r0, .L190+12	@,
 1525 0040 FFF7FEFF 		bl	Board_Println	@
 1526              	.LVL233:
ARM GAS  /var/folders/z0/6xlwn_996xz3mwq1cgzkbq4r0000gp/T//ccBgBTlB.s 			page 39


 1527              	.L132:
 1528              	.LBE108:
 198:src/console.c **** 
 1529              		.loc 1 198 0
 1530 0044 07B0     		add	sp, sp, #28	@,,
 1531              		@ sp needed	@
 1532 0046 F0BD     		pop	{r4, r5, r6, r7, pc}
 1533              	.LVL234:
 1534              	.L133:
 1535              	.LBB113:
  46:src/console.c ****             case RWL_cell_min_mV:
 1536              		.loc 1 46 0
 1537 0048 102C     		cmp	r4, #16	@ rwloc,
 1538 004a 52D8     		bhi	.L137	@,
 1539 004c 904B     		ldr	r3, .L190+16	@ tmp500,
 1540 004e A400     		lsls	r4, r4, #2	@ tmp498, rwloc,
 1541              	.LVL235:
 1542 0050 1B59     		ldr	r3, [r3, r4]	@ tmp501,
 1543 0052 9F46     		mov	pc, r3	@ tmp501
 1544              		.section	.rodata.get,"a",%progbits
 1545              		.align	2
 1546              	.L171:
 1547 0000 F2000000 		.word	.L137
 1548 0004 B2000000 		.word	.L139
 1549 0008 B6000000 		.word	.L140
 1550 000c C0000000 		.word	.L141
 1551 0010 CA000000 		.word	.L142
 1552 0014 FC000000 		.word	.L143
 1553 0018 06010000 		.word	.L144
 1554 001c 10010000 		.word	.L145
 1555 0020 1A010000 		.word	.L146
 1556 0024 24010000 		.word	.L147
 1557 0028 2E010000 		.word	.L148
 1558 002c 38010000 		.word	.L149
 1559 0030 42010000 		.word	.L150
 1560 0034 D4000000 		.word	.L151
 1561 0038 DE000000 		.word	.L152
 1562 003c E8000000 		.word	.L153
 1563 0040 4C010000 		.word	.L154
 1564              		.section	.text.get
 1565              	.LVL236:
 1566              	.L156:
 1567              	.LBE113:
 1568              	.LBB114:
 1569              	.LBB109:
 130:src/console.c ****                 case ROL_total_num_cells:
 1570              		.loc 1 130 0
 1571 0054 123C     		subs	r4, r4, #18	@ tmp502,
 1572              	.LVL237:
 1573 0056 E4B2     		uxtb	r4, r4	@ tmp503, tmp502
 1574 0058 052C     		cmp	r4, #5	@ tmp503,
 1575 005a 00D9     		bls	.LCB1623	@
 1576 005c 81E0     		b	.L161	@long jump	@
 1577              	.LCB1623:
 1578 005e 8D4B     		ldr	r3, .L190+20	@ tmp507,
 1579 0060 A400     		lsls	r4, r4, #2	@ tmp505, tmp503,
 1580 0062 1B59     		ldr	r3, [r3, r4]	@ tmp508,
ARM GAS  /var/folders/z0/6xlwn_996xz3mwq1cgzkbq4r0000gp/T//ccBgBTlB.s 			page 40


 1581 0064 9F46     		mov	pc, r3	@ tmp508
 1582              		.section	.rodata.get
 1583              		.align	2
 1584              	.L172:
 1585 0044 88000000 		.word	.L158
 1586 0048 92000000 		.word	.L160
 1587 004c A8000000 		.word	.L162
 1588 0050 66000000 		.word	.L163
 1589 0054 7E000000 		.word	.L164
 1590 0058 90010000 		.word	.L165
 1591              		.section	.text.get
 1592              	.L163:
 148:src/console.c ****                     Board_Println(tempstr);
 1593              		.loc 1 148 0
 1594 0066 8C4B     		ldr	r3, .L190+24	@ tmp438,
 1595              	.L183:
 1596              	.LBE109:
 1597              	.LBE114:
 1598              	.LBB115:
  52:src/console.c ****                 Board_Println(tempstr);
 1599              		.loc 1 52 0
 1600 0068 1B68     		ldr	r3, [r3]	@ csb_state,
 1601 006a 1B68     		ldr	r3, [r3]	@ _21->pack_config,* csb_state
 1602 006c 5868     		ldr	r0, [r3, #4]	@ _22->cell_max_mV,
 1603              	.L182:
 1604 006e 0A22     		movs	r2, #10	@,
 1605 0070 01A9     		add	r1, sp, #4	@ tmp515,,
 1606 0072 FFF7FEFF 		bl	utoa	@
 1607              	.LVL238:
  53:src/console.c ****                 break;
 1608              		.loc 1 53 0
 1609 0076 01A8     		add	r0, sp, #4	@ tmp516,,
 1610 0078 FFF7FEFF 		bl	Board_Println	@
 1611              	.LVL239:
  54:src/console.c ****             case RWL_cell_capacity_cAh:
 1612              		.loc 1 54 0
 1613 007c E2E7     		b	.L132	@
 1614              	.L164:
 1615              	.LBE115:
 1616              	.LBB116:
 1617              	.LBB110:
 152:src/console.c ****                     Board_Println(tempstr);
 1618              		.loc 1 152 0
 1619 007e 864B     		ldr	r3, .L190+24	@ tmp444,
 1620 0080 1B68     		ldr	r3, [r3]	@ csb_input,
 1621 0082 1B68     		ldr	r3, [r3]	@ _144->pack_status,* csb_input
 1622 0084 9868     		ldr	r0, [r3, #8]	@ _145->pack_voltage_mV,
 1623 0086 F2E7     		b	.L182	@
 1624              	.L158:
 132:src/console.c ****                     Board_Println(tempstr);
 1625              		.loc 1 132 0
 1626 0088 844B     		ldr	r3, .L190+28	@ tmp400,
 1627 008a 1B68     		ldr	r3, [r3]	@ csb_state, csb_state
 1628 008c 1B68     		ldr	r3, [r3]	@ _108->pack_config, _108->pack_config
 1629 008e 186B     		ldr	r0, [r3, #48]	@ _109->total_num_cells, _109->total_num_cells
 1630 0090 EDE7     		b	.L182	@
 1631              	.L160:
ARM GAS  /var/folders/z0/6xlwn_996xz3mwq1cgzkbq4r0000gp/T//ccBgBTlB.s 			page 41


 136:src/console.c ****                     break;
 1632              		.loc 1 136 0
 1633 0092 824B     		ldr	r3, .L190+28	@ tmp406,
 1634 0094 1B68     		ldr	r3, [r3]	@ csb_state, csb_state
 1635 0096 1A68     		ldr	r2, [r3]	@ _113->pack_config, _113->pack_config
 1636 0098 4523     		movs	r3, #69	@ tmp409,
 1637 009a D35C     		ldrb	r3, [r2, r3]	@ D.8445,
 1638 009c 804A     		ldr	r2, .L190+32	@ tmp405,
 1639 009e 9B00     		lsls	r3, r3, #2	@ tmp411, D.8445,
 1640 00a0 9858     		ldr	r0, [r3, r2]	@ tmp412,
 1641 00a2 FFF7FEFF 		bl	Board_Println	@
 1642              	.LVL240:
 137:src/console.c ****                 case ROL_state:
 1643              		.loc 1 137 0
 1644 00a6 CDE7     		b	.L132	@
 1645              	.L162:
 144:src/console.c ****                     Board_Println(tempstr);
 1646              		.loc 1 144 0
 1647 00a8 7B4B     		ldr	r3, .L190+24	@ tmp432,
 1648 00aa 1B68     		ldr	r3, [r3]	@ csb_input,
 1649 00ac 1B68     		ldr	r3, [r3]	@ _134->pack_status,* csb_input
 1650 00ae 1868     		ldr	r0, [r3]	@ _135->pack_cell_max_mV,* _134->pack_status
 1651 00b0 DDE7     		b	.L182	@
 1652              	.L139:
 1653              	.LBE110:
 1654              	.LBE116:
 1655              	.LBB117:
  52:src/console.c ****                 Board_Println(tempstr);
 1656              		.loc 1 52 0
 1657 00b2 7A4B     		ldr	r3, .L190+28	@ tmp299,
 1658 00b4 D8E7     		b	.L183	@
 1659              	.L140:
  56:src/console.c ****                 Board_Println(tempstr);
 1660              		.loc 1 56 0
 1661 00b6 794B     		ldr	r3, .L190+28	@ tmp305,
 1662 00b8 1B68     		ldr	r3, [r3]	@ csb_state,
 1663 00ba 1B68     		ldr	r3, [r3]	@ _26->pack_config,* csb_state
 1664 00bc 9868     		ldr	r0, [r3, #8]	@ _27->cell_capacity_cAh,
 1665 00be D6E7     		b	.L182	@
 1666              	.L141:
  60:src/console.c ****                 Board_Println(tempstr);
 1667              		.loc 1 60 0
 1668 00c0 764B     		ldr	r3, .L190+28	@ tmp311,
 1669 00c2 1B68     		ldr	r3, [r3]	@ csb_state,
 1670 00c4 1B68     		ldr	r3, [r3]	@ _31->pack_config, _31->pack_config
 1671 00c6 D868     		ldr	r0, [r3, #12]	@ _32->num_modules, _32->num_modules
 1672 00c8 D1E7     		b	.L182	@
 1673              	.L142:
  64:src/console.c ****                 Board_Println(tempstr);
 1674              		.loc 1 64 0
 1675 00ca 744B     		ldr	r3, .L190+28	@ tmp317,
 1676 00cc 1B68     		ldr	r3, [r3]	@ csb_state,
 1677 00ce 1B68     		ldr	r3, [r3]	@ _36->pack_config, _36->pack_config
 1678 00d0 D86A     		ldr	r0, [r3, #44]	@ _37->module_cell_count, _37->module_cell_count
 1679 00d2 CCE7     		b	.L182	@
 1680              	.L151:
 100:src/console.c ****                 Board_Println(tempstr);
ARM GAS  /var/folders/z0/6xlwn_996xz3mwq1cgzkbq4r0000gp/T//ccBgBTlB.s 			page 42


 1681              		.loc 1 100 0
 1682 00d4 714B     		ldr	r3, .L190+28	@ tmp371,
 1683 00d6 1B68     		ldr	r3, [r3]	@ csb_state,
 1684 00d8 1B68     		ldr	r3, [r3]	@ _81->pack_config, _81->pack_config
 1685 00da 986B     		ldr	r0, [r3, #56]	@ _82->cc_charge_current_mA, _82->cc_charge_current_mA
 1686 00dc C7E7     		b	.L182	@
 1687              	.L152:
 104:src/console.c ****                 Board_Println(tempstr);
 1688              		.loc 1 104 0
 1689 00de 6F4B     		ldr	r3, .L190+28	@ tmp377,
 1690 00e0 1B68     		ldr	r3, [r3]	@ csb_state,
 1691 00e2 1B68     		ldr	r3, [r3]	@ _86->pack_config, _86->pack_config
 1692 00e4 D86B     		ldr	r0, [r3, #60]	@ _87->cv_charge_voltage_mV, _87->cv_charge_voltage_mV
 1693 00e6 C2E7     		b	.L182	@
 1694              	.L153:
 108:src/console.c ****                 Board_Println(tempstr);
 1695              		.loc 1 108 0
 1696 00e8 6C4B     		ldr	r3, .L190+28	@ tmp383,
 1697 00ea 1B68     		ldr	r3, [r3]	@ csb_state,
 1698 00ec 1B68     		ldr	r3, [r3]	@ _91->pack_config, _91->pack_config
 1699 00ee 186C     		ldr	r0, [r3, #64]	@ _92->cv_charge_current_mA, _92->cv_charge_current_mA
 1700 00f0 BDE7     		b	.L182	@
 1701              	.L137:
  48:src/console.c ****                 Board_Println(tempstr);
 1702              		.loc 1 48 0
 1703 00f2 6A4B     		ldr	r3, .L190+28	@ tmp293,
 1704 00f4 1B68     		ldr	r3, [r3]	@ csb_state,
 1705 00f6 1B68     		ldr	r3, [r3]	@ _16->pack_config,* csb_state
 1706 00f8 1868     		ldr	r0, [r3]	@ _17->cell_min_mV,* _16->pack_config
 1707 00fa B8E7     		b	.L182	@
 1708              	.L143:
  68:src/console.c ****               Board_Println(tempstr);
 1709              		.loc 1 68 0
 1710 00fc 674B     		ldr	r3, .L190+28	@ tmp323,
 1711 00fe 1B68     		ldr	r3, [r3]	@ csb_state,
 1712 0100 1B68     		ldr	r3, [r3]	@ _41->pack_config, _41->pack_config
 1713 0102 1869     		ldr	r0, [r3, #16]	@ _42->cell_charge_c_rating_cC, _42->cell_charge_c_rating_cC
 1714 0104 B3E7     		b	.L182	@
 1715              	.L144:
  72:src/console.c ****                 Board_Println(tempstr);
 1716              		.loc 1 72 0
 1717 0106 654B     		ldr	r3, .L190+28	@ tmp329,
 1718 0108 1B68     		ldr	r3, [r3]	@ csb_state,
 1719 010a 1B68     		ldr	r3, [r3]	@ _46->pack_config, _46->pack_config
 1720 010c 5869     		ldr	r0, [r3, #20]	@ _47->bal_on_thresh_mV, _47->bal_on_thresh_mV
 1721 010e AEE7     		b	.L182	@
 1722              	.L145:
  76:src/console.c ****                 Board_Println(tempstr);
 1723              		.loc 1 76 0
 1724 0110 624B     		ldr	r3, .L190+28	@ tmp335,
 1725 0112 1B68     		ldr	r3, [r3]	@ csb_state,
 1726 0114 1B68     		ldr	r3, [r3]	@ _51->pack_config, _51->pack_config
 1727 0116 9869     		ldr	r0, [r3, #24]	@ _52->bal_off_thresh_mV, _52->bal_off_thresh_mV
 1728 0118 A9E7     		b	.L182	@
 1729              	.L146:
  80:src/console.c ****                 Board_Println(tempstr);
 1730              		.loc 1 80 0
ARM GAS  /var/folders/z0/6xlwn_996xz3mwq1cgzkbq4r0000gp/T//ccBgBTlB.s 			page 43


 1731 011a 604B     		ldr	r3, .L190+28	@ tmp341,
 1732 011c 1B68     		ldr	r3, [r3]	@ csb_state,
 1733 011e 1B68     		ldr	r3, [r3]	@ _56->pack_config, _56->pack_config
 1734 0120 D869     		ldr	r0, [r3, #28]	@ _57->pack_cells_p, _57->pack_cells_p
 1735 0122 A4E7     		b	.L182	@
 1736              	.L147:
  84:src/console.c ****                 Board_Println(tempstr);
 1737              		.loc 1 84 0
 1738 0124 5D4B     		ldr	r3, .L190+28	@ tmp347,
 1739 0126 1B68     		ldr	r3, [r3]	@ csb_state,
 1740 0128 1B68     		ldr	r3, [r3]	@ _61->pack_config, _61->pack_config
 1741 012a 186A     		ldr	r0, [r3, #32]	@ _62->cv_min_current_mA, _62->cv_min_current_mA
 1742 012c 9FE7     		b	.L182	@
 1743              	.L148:
  88:src/console.c ****                 Board_Println(tempstr);
 1744              		.loc 1 88 0
 1745 012e 5B4B     		ldr	r3, .L190+28	@ tmp353,
 1746 0130 1B68     		ldr	r3, [r3]	@ csb_state,
 1747 0132 1B68     		ldr	r3, [r3]	@ _66->pack_config, _66->pack_config
 1748 0134 586A     		ldr	r0, [r3, #36]	@ _67->cv_min_current_ms, _67->cv_min_current_ms
 1749 0136 9AE7     		b	.L182	@
 1750              	.L149:
  92:src/console.c ****                 Board_Println(tempstr);
 1751              		.loc 1 92 0
 1752 0138 584B     		ldr	r3, .L190+28	@ tmp359,
 1753 013a 1B68     		ldr	r3, [r3]	@ csb_state,
 1754 013c 1B68     		ldr	r3, [r3]	@ _71->pack_config, _71->pack_config
 1755 013e 986A     		ldr	r0, [r3, #40]	@ _72->cc_cell_voltage_mV, _72->cc_cell_voltage_mV
 1756 0140 95E7     		b	.L182	@
 1757              	.L150:
  96:src/console.c ****                 Board_Println(tempstr);
 1758              		.loc 1 96 0
 1759 0142 564B     		ldr	r3, .L190+28	@ tmp365,
 1760 0144 1B68     		ldr	r3, [r3]	@ csb_state,
 1761 0146 1B68     		ldr	r3, [r3]	@ _76->pack_config, _76->pack_config
 1762 0148 586B     		ldr	r0, [r3, #52]	@ _77->cc_charge_voltage_mV, _77->cc_charge_voltage_mV
 1763 014a 90E7     		b	.L182	@
 1764              	.L154:
 112:src/console.c ****                 break;
 1765              		.loc 1 112 0
 1766 014c 534B     		ldr	r3, .L190+28	@ tmp389,
 1767 014e 1B68     		ldr	r3, [r3]	@ csb_state,
 1768 0150 1A68     		ldr	r2, [r3]	@ _96->pack_config, _96->pack_config
 1769 0152 4423     		movs	r3, #68	@ tmp392,
 1770 0154 D35C     		ldrb	r3, [r2, r3]	@ D.8445,
 1771 0156 534A     		ldr	r2, .L190+36	@ tmp388,
 1772 0158 9B00     		lsls	r3, r3, #2	@ tmp394, D.8445,
 1773 015a 9858     		ldr	r0, [r3, r2]	@ tmp395,
 1774 015c FFF7FEFF 		bl	Board_Println	@
 1775              	.LVL241:
 113:src/console.c ****             case RWL_LENGTH:
 1776              		.loc 1 113 0
 1777 0160 70E7     		b	.L132	@
 1778              	.L161:
 1779              	.LBE117:
 1780              	.LBB118:
 1781              	.LBB111:
ARM GAS  /var/folders/z0/6xlwn_996xz3mwq1cgzkbq4r0000gp/T//ccBgBTlB.s 			page 44


 139:src/console.c ****                     Board_Println(CSB_INIT_MODE_NAMES[csb_state->init_state]);
 1782              		.loc 1 139 0
 1783 0162 4E4C     		ldr	r4, .L190+28	@ tmp414,
 1784 0164 504A     		ldr	r2, .L190+40	@ tmp413,
 1785 0166 2368     		ldr	r3, [r4]	@ tmp547, csb_state
 1786 0168 1B79     		ldrb	r3, [r3, #4]	@ D.8445,
 1787 016a 9B00     		lsls	r3, r3, #2	@ tmp417, D.8445,
 1788 016c 9858     		ldr	r0, [r3, r2]	@ tmp418, CSB_SSM_MODE_NAMES
 1789 016e FFF7FEFF 		bl	Board_Println	@
 1790              	.LVL242:
 140:src/console.c ****                     Board_Println(CSB_CHARGE_MODE_NAMES[csb_state->charge_state]);
 1791              		.loc 1 140 0
 1792 0172 2368     		ldr	r3, [r4]	@ tmp548, csb_state
 1793 0174 4D4A     		ldr	r2, .L190+44	@ tmp419,
 1794 0176 5B79     		ldrb	r3, [r3, #5]	@ D.8445,
 1795 0178 9B00     		lsls	r3, r3, #2	@ tmp423, D.8445,
 1796 017a 9858     		ldr	r0, [r3, r2]	@ tmp424, CSB_INIT_MODE_NAMES
 1797 017c FFF7FEFF 		bl	Board_Println	@
 1798              	.LVL243:
 141:src/console.c ****                     break;
 1799              		.loc 1 141 0
 1800 0180 2368     		ldr	r3, [r4]	@ csb_state, csb_state
 1801 0182 4B4A     		ldr	r2, .L190+48	@ tmp425,
 1802 0184 9B79     		ldrb	r3, [r3, #6]	@ D.8445,
 1803 0186 9B00     		lsls	r3, r3, #2	@ tmp429, D.8445,
 1804 0188 9858     		ldr	r0, [r3, r2]	@ tmp430,
 1805 018a FFF7FEFF 		bl	Board_Println	@
 1806              	.LVL244:
 142:src/console.c ****                 case ROL_pack_cell_max_mV:
 1807              		.loc 1 142 0
 1808 018e 59E7     		b	.L132	@
 1809              	.L165:
 156:src/console.c ****                     Board_Print("low side contactor fault ");
 1810              		.loc 1 156 0
 1811 0190 414C     		ldr	r4, .L190+24	@ tmp511,
 1812 0192 0A22     		movs	r2, #10	@,
 1813 0194 2368     		ldr	r3, [r4]	@ tmp555, csb_input
 1814 0196 01A9     		add	r1, sp, #4	@ tmp556,,
 1815 0198 987E     		ldrb	r0, [r3, #26]	@ D.8458,
 1816 019a FFF7FEFF 		bl	utoa	@
 1817              	.LVL245:
 157:src/console.c ****                     Board_Println(tempstr);
 1818              		.loc 1 157 0
 1819 019e 4548     		ldr	r0, .L190+52	@,
 1820 01a0 FFF7FEFF 		bl	Board_Print	@
 1821              	.LVL246:
 158:src/console.c ****                     utoa(csb_input->imd_fault, tempstr,10);
 1822              		.loc 1 158 0
 1823 01a4 01A8     		add	r0, sp, #4	@ tmp557,,
 1824 01a6 FFF7FEFF 		bl	Board_Println	@
 1825              	.LVL247:
 159:src/console.c ****                     Board_Print("IMD fault ");
 1826              		.loc 1 159 0
 1827 01aa 2368     		ldr	r3, [r4]	@ tmp558, csb_input
 1828 01ac 0A22     		movs	r2, #10	@,
 1829 01ae D87D     		ldrb	r0, [r3, #23]	@ D.8458,
 1830 01b0 01A9     		add	r1, sp, #4	@ tmp559,,
ARM GAS  /var/folders/z0/6xlwn_996xz3mwq1cgzkbq4r0000gp/T//ccBgBTlB.s 			page 45


 1831 01b2 FFF7FEFF 		bl	utoa	@
 1832              	.LVL248:
 160:src/console.c ****                     Board_Println(tempstr);
 1833              		.loc 1 160 0
 1834 01b6 4048     		ldr	r0, .L190+56	@,
 1835 01b8 FFF7FEFF 		bl	Board_Print	@
 1836              	.LVL249:
 161:src/console.c ****                     utoa(csb_input->int_fault, tempstr,10);
 1837              		.loc 1 161 0
 1838 01bc 01A8     		add	r0, sp, #4	@ tmp560,,
 1839 01be FFF7FEFF 		bl	Board_Println	@
 1840              	.LVL250:
 162:src/console.c ****                     Board_Print("interlock fault ");
 1841              		.loc 1 162 0
 1842 01c2 2368     		ldr	r3, [r4]	@ tmp561, csb_input
 1843 01c4 0A22     		movs	r2, #10	@,
 1844 01c6 187E     		ldrb	r0, [r3, #24]	@ D.8458,
 1845 01c8 01A9     		add	r1, sp, #4	@ tmp562,,
 1846 01ca FFF7FEFF 		bl	utoa	@
 1847              	.LVL251:
 163:src/console.c ****                     Board_Println(tempstr);
 1848              		.loc 1 163 0
 1849 01ce 3B48     		ldr	r0, .L190+60	@,
 1850 01d0 FFF7FEFF 		bl	Board_Print	@
 1851              	.LVL252:
 164:src/console.c ****                     utoa(csb_input->bms_fault, tempstr,10);
 1852              		.loc 1 164 0
 1853 01d4 01A8     		add	r0, sp, #4	@ tmp563,,
 1854 01d6 FFF7FEFF 		bl	Board_Println	@
 1855              	.LVL253:
 165:src/console.c ****                     Board_Print("BMS fault ");
 1856              		.loc 1 165 0
 1857 01da 2368     		ldr	r3, [r4]	@ tmp564, csb_input
 1858 01dc 0A22     		movs	r2, #10	@,
 1859 01de 587E     		ldrb	r0, [r3, #25]	@ D.8458,
 1860 01e0 01A9     		add	r1, sp, #4	@ tmp565,,
 1861 01e2 FFF7FEFF 		bl	utoa	@
 1862              	.LVL254:
 166:src/console.c ****                     Board_Println(tempstr);
 1863              		.loc 1 166 0
 1864 01e6 3648     		ldr	r0, .L190+64	@,
 1865 01e8 FFF7FEFF 		bl	Board_Print	@
 1866              	.LVL255:
 167:src/console.c ****                     if (csb_input->bms_fault) {
 1867              		.loc 1 167 0
 1868 01ec 01A8     		add	r0, sp, #4	@ tmp566,,
 1869 01ee FFF7FEFF 		bl	Board_Println	@
 1870              	.LVL256:
 168:src/console.c ****                         utoa(csb_input->bms_error, tempstr,10);
 1871              		.loc 1 168 0
 1872 01f2 2368     		ldr	r3, [r4]	@ D.8455, csb_input
 1873 01f4 5A7E     		ldrb	r2, [r3, #25]	@ tmp474,
 1874 01f6 002A     		cmp	r2, #0	@ tmp474,
 1875 01f8 25D1     		bne	.L185	@,
 1876              	.L166:
 173:src/console.c ****                     Board_Print("elcon on ");
 1877              		.loc 1 173 0
ARM GAS  /var/folders/z0/6xlwn_996xz3mwq1cgzkbq4r0000gp/T//ccBgBTlB.s 			page 46


 1878 01fa 5B68     		ldr	r3, [r3, #4]	@ _217->elcon_status, _217->elcon_status
 1879 01fc 0A22     		movs	r2, #10	@,
 1880 01fe 587A     		ldrb	r0, [r3, #9]	@ D.8458,
 1881 0200 01A9     		add	r1, sp, #4	@ tmp569,,
 1882 0202 FFF7FEFF 		bl	utoa	@
 1883              	.LVL257:
 174:src/console.c ****                     Board_Println(tempstr);
 1884              		.loc 1 174 0
 1885 0206 2F48     		ldr	r0, .L190+68	@,
 1886 0208 FFF7FEFF 		bl	Board_Print	@
 1887              	.LVL258:
 175:src/console.c ****                     if (csb_input->elcon_status->elcon_on) {
 1888              		.loc 1 175 0
 1889 020c 01A8     		add	r0, sp, #4	@ tmp570,,
 1890 020e FFF7FEFF 		bl	Board_Println	@
 1891              	.LVL259:
 176:src/console.c ****                         if (csb_input->elcon_status->elcon_has_hardware_failure) {
 1892              		.loc 1 176 0
 1893 0212 2368     		ldr	r3, [r4]	@ csb_input, csb_input
 1894 0214 5B68     		ldr	r3, [r3, #4]	@ D.8460, _188->elcon_status
 1895 0216 5A7A     		ldrb	r2, [r3, #9]	@ tmp487,
 1896 0218 002A     		cmp	r2, #0	@ tmp487,
 1897 021a 00D1     		bne	.LCB1976	@
 1898 021c 12E7     		b	.L132	@long jump	@
 1899              	.LCB1976:
 177:src/console.c ****                           Board_Println("  elcon has hardware failure");
 1900              		.loc 1 177 0
 1901 021e 1A79     		ldrb	r2, [r3, #4]	@ tmp488,
 1902 0220 002A     		cmp	r2, #0	@ tmp488,
 1903 0222 1DD1     		bne	.L186	@,
 179:src/console.c ****                           Board_Println("  elcon over temp protection on");
 1904              		.loc 1 179 0
 1905 0224 5A79     		ldrb	r2, [r3, #5]	@ tmp490,
 1906 0226 002A     		cmp	r2, #0	@ tmp490,
 1907 0228 1ED1     		bne	.L187	@,
 181:src/console.c ****                           Board_Println("  elcon input voltage is wrong");
 1908              		.loc 1 181 0
 1909 022a 9A79     		ldrb	r2, [r3, #6]	@ tmp492,
 1910 022c 002A     		cmp	r2, #0	@ tmp492,
 1911 022e 1FD1     		bne	.L188	@,
 183:src/console.c ****                           Board_Println("  elcon battery voltage not detected");
 1912              		.loc 1 183 0
 1913 0230 DA79     		ldrb	r2, [r3, #7]	@ tmp494,
 1914 0232 002A     		cmp	r2, #0	@ tmp494,
 1915 0234 20D1     		bne	.L189	@,
 185:src/console.c ****                           Board_Println("  elcon comms is bad");
 1916              		.loc 1 185 0
 1917 0236 1B7A     		ldrb	r3, [r3, #8]	@ tmp496,
 1918 0238 002B     		cmp	r3, #0	@ tmp496,
 1919 023a 00D1     		bne	.LCB1991	@
 1920 023c 02E7     		b	.L132	@long jump	@
 1921              	.LCB1991:
 186:src/console.c ****                         }
 1922              		.loc 1 186 0
 1923 023e 2248     		ldr	r0, .L190+72	@,
 1924 0240 FFF7FEFF 		bl	Board_Println	@
 1925              	.LVL260:
ARM GAS  /var/folders/z0/6xlwn_996xz3mwq1cgzkbq4r0000gp/T//ccBgBTlB.s 			page 47


 1926              	.LBE111:
 1927              	.LBE118:
 198:src/console.c **** 
 1928              		.loc 1 198 0
 1929 0244 FEE6     		b	.L132	@
 1930              	.L185:
 1931              	.LBB119:
 1932              	.LBB112:
 169:src/console.c ****                         Board_Print("  error ");
 1933              		.loc 1 169 0
 1934 0246 D87E     		ldrb	r0, [r3, #27]	@ D.8458,
 1935 0248 0A22     		movs	r2, #10	@,
 1936 024a 01A9     		add	r1, sp, #4	@ tmp567,,
 1937 024c FFF7FEFF 		bl	utoa	@
 1938              	.LVL261:
 170:src/console.c ****                         Board_Println(tempstr);
 1939              		.loc 1 170 0
 1940 0250 1E48     		ldr	r0, .L190+76	@,
 1941 0252 FFF7FEFF 		bl	Board_Print	@
 1942              	.LVL262:
 171:src/console.c ****                     }
 1943              		.loc 1 171 0
 1944 0256 01A8     		add	r0, sp, #4	@ tmp568,,
 1945 0258 FFF7FEFF 		bl	Board_Println	@
 1946              	.LVL263:
 1947 025c 2368     		ldr	r3, [r4]	@ D.8455, csb_input
 1948 025e CCE7     		b	.L166	@
 1949              	.L186:
 178:src/console.c ****                         } else if (csb_input->elcon_status->elcon_over_temp_protection_on) {
 1950              		.loc 1 178 0
 1951 0260 1B48     		ldr	r0, .L190+80	@,
 1952 0262 FFF7FEFF 		bl	Board_Println	@
 1953              	.LVL264:
 1954 0266 EDE6     		b	.L132	@
 1955              	.L187:
 180:src/console.c ****                         } else if (csb_input->elcon_status->elcon_is_input_voltage_wrong) {
 1956              		.loc 1 180 0
 1957 0268 1A48     		ldr	r0, .L190+84	@,
 1958 026a FFF7FEFF 		bl	Board_Println	@
 1959              	.LVL265:
 1960 026e E9E6     		b	.L132	@
 1961              	.L188:
 182:src/console.c ****                         } else if (csb_input->elcon_status->elcon_battery_voltage_not_detected) {
 1962              		.loc 1 182 0
 1963 0270 1948     		ldr	r0, .L190+88	@,
 1964 0272 FFF7FEFF 		bl	Board_Println	@
 1965              	.LVL266:
 1966 0276 E5E6     		b	.L132	@
 1967              	.L189:
 184:src/console.c ****                         } else if (csb_input->elcon_status->elcon_is_comms_bad) {
 1968              		.loc 1 184 0
 1969 0278 1848     		ldr	r0, .L190+92	@,
 1970 027a FFF7FEFF 		bl	Board_Println	@
 1971              	.LVL267:
 1972 027e E1E6     		b	.L132	@
 1973              	.L191:
 1974              		.align	2
ARM GAS  /var/folders/z0/6xlwn_996xz3mwq1cgzkbq4r0000gp/T//ccBgBTlB.s 			page 48


 1975              	.L190:
 1976 0280 00000000 		.word	.LANCHOR2
 1977 0284 88000000 		.word	.LC24
 1978 0288 94000000 		.word	.LC26
 1979 028c 28020000 		.word	.LC86
 1980 0290 00000000 		.word	.L171
 1981 0294 44000000 		.word	.L172
 1982 0298 00000000 		.word	.LANCHOR8
 1983 029c 00000000 		.word	.LANCHOR1
 1984 02a0 00000000 		.word	.LANCHOR4
 1985 02a4 00000000 		.word	.LANCHOR3
 1986 02a8 00000000 		.word	.LANCHOR5
 1987 02ac 00000000 		.word	.LANCHOR6
 1988 02b0 00000000 		.word	.LANCHOR7
 1989 02b4 28010000 		.word	.LC62
 1990 02b8 44010000 		.word	.LC64
 1991 02bc 50010000 		.word	.LC66
 1992 02c0 64010000 		.word	.LC68
 1993 02c4 7C010000 		.word	.LC72
 1994 02c8 10020000 		.word	.LC82
 1995 02cc 70010000 		.word	.LC70
 1996 02d0 88010000 		.word	.LC74
 1997 02d4 A8010000 		.word	.LC76
 1998 02d8 C8010000 		.word	.LC78
 1999 02dc E8010000 		.word	.LC80
 2000              	.LBE112:
 2001              	.LBE119:
 2002              		.cfi_endproc
 2003              	.LFE199:
 2004              		.size	get, .-get
 2005              		.section	.text.config_def,"ax",%progbits
 2006              		.align	2
 2007              		.code	16
 2008              		.thumb_func
 2009              		.type	config_def, %function
 2010              	config_def:
 2011              	.LFB202:
 352:src/console.c ****   bool foundloc = false;
 2012              		.loc 1 352 0
 2013              		.cfi_startproc
 2014              		@ args = 0, pretend = 0, frame = 0
 2015              		@ frame_needed = 0, uses_anonymous_args = 0
 2016              	.LVL268:
 2017 0000 10B5     		push	{r4, lr}	@
 2018              		.cfi_def_cfa_offset 8
 2019              		.cfi_offset 4, -8
 2020              		.cfi_offset 14, -4
 2021 0002 4468     		ldr	r4, [r0, #4]	@ D.8496, MEM[(const char * const *)argv_3(D) + 4B]
 356:src/console.c ****           foundloc = true;
 2022              		.loc 1 356 0
 2023 0004 0F49     		ldr	r1, .L196	@,
 2024 0006 2000     		movs	r0, r4	@, D.8496
 2025              	.LVL269:
 2026 0008 FFF7FEFF 		bl	strcmp	@
 2027              	.LVL270:
 2028 000c 0028     		cmp	r0, #0	@ tmp117,
 2029 000e 09D0     		beq	.L193	@,
ARM GAS  /var/folders/z0/6xlwn_996xz3mwq1cgzkbq4r0000gp/T//ccBgBTlB.s 			page 49


 2030              	.LVL271:
 2031 0010 0D49     		ldr	r1, .L196+4	@,
 2032 0012 2000     		movs	r0, r4	@, D.8496
 2033 0014 FFF7FEFF 		bl	strcmp	@
 2034              	.LVL272:
 2035 0018 0028     		cmp	r0, #0	@ tmp120,
 2036 001a 0BD0     		beq	.L194	@,
 2037              	.LVL273:
 375:src/console.c ****   }
 2038              		.loc 1 375 0 discriminator 2
 2039 001c 0B48     		ldr	r0, .L196+8	@,
 2040 001e FFF7FEFF 		bl	Board_Println	@
 2041              	.LVL274:
 2042              	.L192:
 377:src/console.c **** 
 2043              		.loc 1 377 0
 2044              		@ sp needed	@
 2045 0022 10BD     		pop	{r4, pc}
 2046              	.LVL275:
 2047              	.L193:
 2048              	.LBB122:
 2049              	.LBB123:
 364:src/console.c ****               Board_Println("Done!");
 2050              		.loc 1 364 0
 2051 0024 0A4B     		ldr	r3, .L196+12	@ tmp123,
 2052 0026 1868     		ldr	r0, [r3]	@ csb_state, csb_state
 2053 0028 FFF7FEFF 		bl	MY18_Pack_Config	@
 2054              	.LVL276:
 365:src/console.c ****               break;
 2055              		.loc 1 365 0
 2056 002c 0948     		ldr	r0, .L196+16	@,
 2057 002e FFF7FEFF 		bl	Board_Println	@
 2058              	.LVL277:
 2059 0032 F6E7     		b	.L192	@
 2060              	.LVL278:
 2061              	.L194:
 2062              	.LBE123:
 2063              	.LBE122:
 368:src/console.c ****               Board_Println("Done!");
 2064              		.loc 1 368 0
 2065 0034 064B     		ldr	r3, .L196+12	@ tmp126,
 2066 0036 1868     		ldr	r0, [r3]	@ csb_state, csb_state
 2067 0038 FFF7FEFF 		bl	MY16_Pack_Config	@
 2068              	.LVL279:
 369:src/console.c ****               break;
 2069              		.loc 1 369 0
 2070 003c 0548     		ldr	r0, .L196+16	@,
 2071 003e FFF7FEFF 		bl	Board_Println	@
 2072              	.LVL280:
 370:src/console.c ****           case CONL_LENGTH:
 2073              		.loc 1 370 0
 2074 0042 EEE7     		b	.L192	@
 2075              	.L197:
 2076              		.align	2
 2077              	.L196:
 2078 0044 40020000 		.word	.LC88
 2079 0048 48020000 		.word	.LC90
ARM GAS  /var/folders/z0/6xlwn_996xz3mwq1cgzkbq4r0000gp/T//ccBgBTlB.s 			page 50


 2080 004c E4000000 		.word	.LC36
 2081 0050 00000000 		.word	.LANCHOR1
 2082 0054 C0000000 		.word	.LC32
 2083              		.cfi_endproc
 2084              	.LFE202:
 2085              		.size	config_def, .-config_def
 2086              		.section	.text.help,"ax",%progbits
 2087              		.align	2
 2088              		.code	16
 2089              		.thumb_func
 2090              		.type	help, %function
 2091              	help:
 2092              	.LFB201:
 325:src/console.c ****     command_label_t command_i = 0;
 2093              		.loc 1 325 0
 2094              		.cfi_startproc
 2095              		@ args = 0, pretend = 0, frame = 0
 2096              		@ frame_needed = 0, uses_anonymous_args = 0
 2097              	.LVL281:
 2098 0000 70B5     		push	{r4, r5, r6, lr}	@
 2099              		.cfi_def_cfa_offset 16
 2100              		.cfi_offset 4, -16
 2101              		.cfi_offset 5, -12
 2102              		.cfi_offset 6, -8
 2103              		.cfi_offset 14, -4
 325:src/console.c ****     command_label_t command_i = 0;
 2104              		.loc 1 325 0
 2105 0002 1D49     		ldr	r1, .L212	@ D.8561,
 2106 0004 4668     		ldr	r6, [r0, #4]	@ D.8561, MEM[(const char * const *)argv_4(D) + 4B]
 2107 0006 1D4D     		ldr	r5, .L212+4	@ ivtmp.230,
 327:src/console.c ****     {
 2108              		.loc 1 327 0
 2109 0008 0024     		movs	r4, #0	@ command_i,
 2110 000a 00E0     		b	.L203	@
 2111              	.LVL282:
 2112              	.L209:
 2113 000c 2968     		ldr	r1, [r5]	@ D.8561, MEM[base: _28, offset: 0B]
 2114              	.LVL283:
 2115              	.L203:
 329:src/console.c ****             Board_Println_BLOCKING(helpstring[command_i]); //blocking print
 2116              		.loc 1 329 0
 2117 000e 3000     		movs	r0, r6	@, D.8561
 2118 0010 FFF7FEFF 		bl	strcmp	@
 2119              	.LVL284:
 2120 0014 0028     		cmp	r0, #0	@ tmp151,
 2121 0016 08D0     		beq	.L208	@,
 327:src/console.c ****     {
 2122              		.loc 1 327 0 discriminator 2
 2123 0018 0134     		adds	r4, r4, #1	@ tmp157,
 2124              	.LVL285:
 2125 001a E4B2     		uxtb	r4, r4	@ command_i, tmp157
 2126              	.LVL286:
 2127 001c 0435     		adds	r5, r5, #4	@ ivtmp.230,
 2128 001e 072C     		cmp	r4, #7	@ command_i,
 2129 0020 F4D1     		bne	.L209	@,
 335:src/console.c **** 
 2130              		.loc 1 335 0
ARM GAS  /var/folders/z0/6xlwn_996xz3mwq1cgzkbq4r0000gp/T//ccBgBTlB.s 			page 51


 2131 0022 1748     		ldr	r0, .L212+8	@,
 2132 0024 FFF7FEFF 		bl	Board_Print	@
 2133              	.LVL287:
 2134              	.L198:
 350:src/console.c **** 
 2135              		.loc 1 350 0
 2136              		@ sp needed	@
 2137 0028 70BD     		pop	{r4, r5, r6, pc}
 2138              	.LVL288:
 2139              	.L208:
 330:src/console.c **** 
 2140              		.loc 1 330 0
 2141 002a 164B     		ldr	r3, .L212+12	@ tmp153,
 2142 002c A200     		lsls	r2, r4, #2	@ tmp154, command_i,
 2143 002e D058     		ldr	r0, [r2, r3]	@ tmp155, helpstring
 2144 0030 FFF7FEFF 		bl	Board_Println_BLOCKING	@
 2145              	.LVL289:
 335:src/console.c **** 
 2146              		.loc 1 335 0
 2147 0034 1248     		ldr	r0, .L212+8	@,
 2148 0036 FFF7FEFF 		bl	Board_Print	@
 2149              	.LVL290:
 337:src/console.c ****     {
 2150              		.loc 1 337 0
 2151 003a 012C     		cmp	r4, #1	@ command_i,
 2152 003c F4D8     		bhi	.L198	@,
 2153              	.LVL291:
 2154              	.LBB128:
 2155              	.LBB129:
 2156              	.LBB130:
 340:src/console.c ****         for (i = 0; i < RWL_LENGTH; ++i){
 2157              		.loc 1 340 0
 2158 003e 1248     		ldr	r0, .L212+16	@,
 2159 0040 FFF7FEFF 		bl	Board_Println_BLOCKING	@
 2160              	.LVL292:
 2161 0044 114D     		ldr	r5, .L212+20	@ ivtmp.194,
 2162 0046 1248     		ldr	r0, .L212+24	@ D.8561,
 2163 0048 2E00     		movs	r6, r5	@ D.8564, ivtmp.194
 2164 004a 2C1D     		adds	r4, r5, #4	@ ivtmp.209, ivtmp.194,
 2165              	.LVL293:
 2166 004c 4436     		adds	r6, r6, #68	@ D.8564,
 2167 004e 00E0     		b	.L205	@
 2168              	.LVL294:
 2169              	.L210:
 2170 0050 01CC     		ldmia	r4!, {r0}	@ MEM[base: _47, offset: 0B], D.8561
 2171              	.L205:
 342:src/console.c ****         }
 2172              		.loc 1 342 0
 2173 0052 FFF7FEFF 		bl	Board_Println_BLOCKING	@
 2174              	.LVL295:
 341:src/console.c ****             Board_Println_BLOCKING(locstring[i]); //blocking print.
 2175              		.loc 1 341 0
 2176 0056 B442     		cmp	r4, r6	@ ivtmp.209, D.8564
 2177 0058 FAD1     		bne	.L210	@,
 345:src/console.c ****         for (i = ROL_FIRST; i < (rw_loc_label_t)(ROL_LENGTH); ++i){
 2178              		.loc 1 345 0
 2179 005a 0E48     		ldr	r0, .L212+28	@,
ARM GAS  /var/folders/z0/6xlwn_996xz3mwq1cgzkbq4r0000gp/T//ccBgBTlB.s 			page 52


 2180 005c FFF7FEFF 		bl	Board_Println_BLOCKING	@
 2181              	.LVL296:
 2182 0060 2C00     		movs	r4, r5	@ ivtmp.194, ivtmp.194
 2183 0062 0D48     		ldr	r0, .L212+32	@ D.8561,
 2184 0064 1C35     		adds	r5, r5, #28	@ D.8564,
 2185 0066 00E0     		b	.L207	@
 2186              	.LVL297:
 2187              	.L211:
 2188 0068 606C     		ldr	r0, [r4, #68]	@ D.8561, MEM[base: _45, offset: 68B]
 2189              	.L207:
 2190 006a 0434     		adds	r4, r4, #4	@ ivtmp.194,
 347:src/console.c ****         }
 2191              		.loc 1 347 0
 2192 006c FFF7FEFF 		bl	Board_Println_BLOCKING	@
 2193              	.LVL298:
 346:src/console.c ****             Board_Println_BLOCKING(locstring[i]); //blocking print.
 2194              		.loc 1 346 0
 2195 0070 AC42     		cmp	r4, r5	@ ivtmp.194, D.8564
 2196 0072 F9D1     		bne	.L211	@,
 2197 0074 D8E7     		b	.L198	@
 2198              	.L213:
 2199 0076 C046     		.align	2
 2200              	.L212:
 2201 0078 50020000 		.word	.LC95
 2202 007c 00000000 		.word	commands
 2203 0080 54020000 		.word	.LC101
 2204 0084 00000000 		.word	.LANCHOR9
 2205 0088 58020000 		.word	.LC103
 2206 008c 00000000 		.word	.LANCHOR2
 2207 0090 88000000 		.word	.LC24
 2208 0094 70020000 		.word	.LC106
 2209 0098 94000000 		.word	.LC26
 2210              	.LBE130:
 2211              	.LBE129:
 2212              	.LBE128:
 2213              		.cfi_endproc
 2214              	.LFE201:
 2215              		.size	help, .-help
 2216              		.section	.text.bal,"ax",%progbits
 2217              		.align	2
 2218              		.code	16
 2219              		.thumb_func
 2220              		.type	bal, %function
 2221              	bal:
 2222              	.LFB204:
 414:src/console.c ****     UNUSED(argv);
 2223              		.loc 1 414 0
 2224              		.cfi_startproc
 2225              		@ args = 0, pretend = 0, frame = 0
 2226              		@ frame_needed = 0, uses_anonymous_args = 0
 2227              	.LVL299:
 2228 0000 70B5     		push	{r4, r5, r6, lr}	@
 2229              		.cfi_def_cfa_offset 16
 2230              		.cfi_offset 4, -16
 2231              		.cfi_offset 5, -12
 2232              		.cfi_offset 6, -8
 2233              		.cfi_offset 14, -4
ARM GAS  /var/folders/z0/6xlwn_996xz3mwq1cgzkbq4r0000gp/T//ccBgBTlB.s 			page 53


 416:src/console.c ****         if (strcmp(argv[1],"off") == 0) {
 2234              		.loc 1 416 0
 2235 0002 1E4B     		ldr	r3, .L231	@ tmp127,
 414:src/console.c ****     UNUSED(argv);
 2236              		.loc 1 414 0
 2237 0004 0400     		movs	r4, r0	@ argv, argv
 416:src/console.c ****         if (strcmp(argv[1],"off") == 0) {
 2238              		.loc 1 416 0
 2239 0006 1B68     		ldr	r3, [r3]	@ csb_state, csb_state
 2240 0008 1879     		ldrb	r0, [r3, #4]	@ D.8586,
 2241              	.LVL300:
 2242 000a 0328     		cmp	r0, #3	@ D.8586,
 2243 000c 04D0     		beq	.L218	@,
 416:src/console.c ****         if (strcmp(argv[1],"off") == 0) {
 2244              		.loc 1 416 0 is_stmt 0 discriminator 1
 2245 000e 0321     		movs	r1, #3	@,
 2246 0010 FFF7FEFF 		bl	Is_Valid_Jump	@
 2247              	.LVL301:
 2248 0014 0028     		cmp	r0, #0	@ tmp132,
 2249 0016 20D0     		beq	.L229	@,
 2250              	.L218:
 417:src/console.c ****             console_output->valid_mode_request = false;
 2251              		.loc 1 417 0 is_stmt 1
 2252 0018 6468     		ldr	r4, [r4, #4]	@ D.8588, MEM[(const char * const *)argv_8(D) + 4B]
 2253              	.LVL302:
 2254 001a 1949     		ldr	r1, .L231+4	@,
 2255 001c 2000     		movs	r0, r4	@, D.8588
 2256 001e FFF7FEFF 		bl	strcmp	@
 2257              	.LVL303:
 2258 0022 0028     		cmp	r0, #0	@ tmp130,
 2259 0024 1DD0     		beq	.L230	@,
 422:src/console.c ****             console_output->mode_request = CSB_SSM_MODE_BALANCE;
 2260              		.loc 1 422 0
 2261 0026 174B     		ldr	r3, .L231+8	@ tmp139,
 2262 0028 1D68     		ldr	r5, [r3]	@ D.8590, console_output
 2263 002a 0123     		movs	r3, #1	@ tmp140,
 2264 002c 2B70     		strb	r3, [r5]	@ tmp140, _11->valid_mode_request
 423:src/console.c ****             console_output->balance_mV = my_atou(argv[1]);
 2265              		.loc 1 423 0
 2266 002e 0233     		adds	r3, r3, #2	@ tmp142,
 2267 0030 AB70     		strb	r3, [r5, #2]	@ tmp142, _11->mode_request
 2268              	.LVL304:
 2269              	.LBB137:
 2270              	.LBB138:
  25:src/console.c ****         res = res*10 + str[i] - '0';
 2271              		.loc 1 25 0
 2272 0032 2278     		ldrb	r2, [r4]	@ D.8592, *_9
 2273 0034 002A     		cmp	r2, #0	@ D.8592,
 2274 0036 1ED0     		beq	.L223	@,
 2275 0038 0023     		movs	r3, #0	@ res,
 2276 003a 601C     		adds	r0, r4, #1	@ ivtmp.236, D.8588,
 2277              	.LVL305:
 2278              	.L222:
  26:src/console.c **** 
 2279              		.loc 1 26 0
 2280 003c 9900     		lsls	r1, r3, #2	@ tmp145, res,
 2281 003e CB18     		adds	r3, r1, r3	@ D.8591, tmp145, res
ARM GAS  /var/folders/z0/6xlwn_996xz3mwq1cgzkbq4r0000gp/T//ccBgBTlB.s 			page 54


 2282              	.LVL306:
 2283 0040 5B00     		lsls	r3, r3, #1	@ tmp147, D.8591,
 2284 0042 0130     		adds	r0, r0, #1	@ ivtmp.236,
 2285              	.LVL307:
 2286 0044 9B18     		adds	r3, r3, r2	@ D.8591, tmp147, D.8592
  25:src/console.c ****         res = res*10 + str[i] - '0';
 2287              		.loc 1 25 0
 2288 0046 421E     		subs	r2, r0, #1	@ D.8593, ivtmp.236,
 2289 0048 1278     		ldrb	r2, [r2]	@ D.8592, MEM[base: _33, offset: 0B]
  26:src/console.c **** 
 2290              		.loc 1 26 0
 2291 004a 303B     		subs	r3, r3, #48	@ res,
 2292              	.LVL308:
  25:src/console.c ****         res = res*10 + str[i] - '0';
 2293              		.loc 1 25 0
 2294 004c 002A     		cmp	r2, #0	@ D.8592,
 2295 004e F5D1     		bne	.L222	@,
 2296              	.LVL309:
 2297              	.L221:
 2298              	.LBE138:
 2299              	.LBE137:
 424:src/console.c ****             Board_Println("bal on");
 2300              		.loc 1 424 0
 2301 0050 6B60     		str	r3, [r5, #4]	@ res, _11->balance_mV
 425:src/console.c ****         }
 2302              		.loc 1 425 0
 2303 0052 0D48     		ldr	r0, .L231+12	@,
 2304 0054 FFF7FEFF 		bl	Board_Println	@
 2305              	.LVL310:
 2306              	.L214:
 430:src/console.c **** 
 2307              		.loc 1 430 0
 2308              		@ sp needed	@
 2309 0058 70BD     		pop	{r4, r5, r6, pc}
 2310              	.LVL311:
 2311              	.L229:
 428:src/console.c ****     }
 2312              		.loc 1 428 0
 2313 005a 0C48     		ldr	r0, .L231+16	@,
 2314 005c FFF7FEFF 		bl	Board_Println	@
 2315              	.LVL312:
 430:src/console.c **** 
 2316              		.loc 1 430 0
 2317 0060 FAE7     		b	.L214	@
 2318              	.LVL313:
 2319              	.L230:
 2320              	.LBB140:
 2321              	.LBB141:
 419:src/console.c ****             Board_Println("bal off");
 2322              		.loc 1 419 0
 2323 0062 0122     		movs	r2, #1	@ tmp137,
 418:src/console.c ****             console_output->balance_mV = UINT32_MAX;
 2324              		.loc 1 418 0
 2325 0064 074B     		ldr	r3, .L231+8	@ tmp134,
 419:src/console.c ****             Board_Println("bal off");
 2326              		.loc 1 419 0
 2327 0066 5242     		rsbs	r2, r2, #0	@ tmp137, tmp137
ARM GAS  /var/folders/z0/6xlwn_996xz3mwq1cgzkbq4r0000gp/T//ccBgBTlB.s 			page 55


 418:src/console.c ****             console_output->balance_mV = UINT32_MAX;
 2328              		.loc 1 418 0
 2329 0068 1B68     		ldr	r3, [r3]	@ D.8590, console_output
 2330 006a 1870     		strb	r0, [r3]	@ tmp130, _27->valid_mode_request
 419:src/console.c ****             Board_Println("bal off");
 2331              		.loc 1 419 0
 2332 006c 5A60     		str	r2, [r3, #4]	@ tmp137, _27->balance_mV
 420:src/console.c ****         } else {
 2333              		.loc 1 420 0
 2334 006e 0848     		ldr	r0, .L231+20	@,
 2335 0070 FFF7FEFF 		bl	Board_Println	@
 2336              	.LVL314:
 2337 0074 F0E7     		b	.L214	@
 2338              	.LVL315:
 2339              	.L223:
 2340              	.LBE141:
 2341              	.LBE140:
 2342              	.LBB142:
 2343              	.LBB139:
  20:src/console.c **** 
 2344              		.loc 1 20 0
 2345 0076 0023     		movs	r3, #0	@ res,
 2346 0078 EAE7     		b	.L221	@
 2347              	.L232:
 2348 007a C046     		.align	2
 2349              	.L231:
 2350 007c 00000000 		.word	.LANCHOR1
 2351 0080 10000000 		.word	.LC5
 2352 0084 00000000 		.word	.LANCHOR0
 2353 0088 90020000 		.word	.LC115
 2354 008c 14010000 		.word	.LC50
 2355 0090 88020000 		.word	.LC113
 2356              	.LBE139:
 2357              	.LBE142:
 2358              		.cfi_endproc
 2359              	.LFE204:
 2360              		.size	bal, .-bal
 2361              		.section	.text.my_atou,"ax",%progbits
 2362              		.align	2
 2363              		.global	my_atou
 2364              		.code	16
 2365              		.thumb_func
 2366              		.type	my_atou, %function
 2367              	my_atou:
 2368              	.LFB198:
  19:src/console.c ****     uint32_t res = 0; // Initialize result
 2369              		.loc 1 19 0
 2370              		.cfi_startproc
 2371              		@ args = 0, pretend = 0, frame = 0
 2372              		@ frame_needed = 0, uses_anonymous_args = 0
 2373              		@ link register save eliminated.
 2374              	.LVL316:
  25:src/console.c ****         res = res*10 + str[i] - '0';
 2375              		.loc 1 25 0
 2376 0000 0378     		ldrb	r3, [r0]	@ D.8605, *str_3(D)
 2377 0002 002B     		cmp	r3, #0	@ D.8605,
 2378 0004 0CD0     		beq	.L236	@,
ARM GAS  /var/folders/z0/6xlwn_996xz3mwq1cgzkbq4r0000gp/T//ccBgBTlB.s 			page 56


 2379 0006 421C     		adds	r2, r0, #1	@ ivtmp.242, str,
 2380 0008 0020     		movs	r0, #0	@ res,
 2381              	.LVL317:
 2382              	.L235:
  26:src/console.c **** 
 2383              		.loc 1 26 0 discriminator 3
 2384 000a 8100     		lsls	r1, r0, #2	@ tmp122, res,
 2385 000c 0818     		adds	r0, r1, r0	@ D.8606, tmp122, res
 2386              	.LVL318:
 2387 000e 4000     		lsls	r0, r0, #1	@ tmp124, D.8606,
 2388 0010 0132     		adds	r2, r2, #1	@ ivtmp.242,
 2389              	.LVL319:
 2390 0012 C018     		adds	r0, r0, r3	@ D.8606, tmp124, D.8605
  25:src/console.c ****         res = res*10 + str[i] - '0';
 2391              		.loc 1 25 0 discriminator 3
 2392 0014 531E     		subs	r3, r2, #1	@ D.8604, ivtmp.242,
 2393 0016 1B78     		ldrb	r3, [r3]	@ D.8605, MEM[base: _2, offset: 0B]
  26:src/console.c **** 
 2394              		.loc 1 26 0 discriminator 3
 2395 0018 3038     		subs	r0, r0, #48	@ res,
 2396              	.LVL320:
  25:src/console.c ****         res = res*10 + str[i] - '0';
 2397              		.loc 1 25 0 discriminator 3
 2398 001a 002B     		cmp	r3, #0	@ D.8605,
 2399 001c F5D1     		bne	.L235	@,
 2400              	.LVL321:
 2401              	.L234:
  30:src/console.c **** 
 2402              		.loc 1 30 0
 2403              		@ sp needed	@
 2404 001e 7047     		bx	lr
 2405              	.LVL322:
 2406              	.L236:
  20:src/console.c **** 
 2407              		.loc 1 20 0
 2408 0020 0020     		movs	r0, #0	@ res,
 2409              	.LVL323:
 2410 0022 FCE7     		b	.L234	@
 2411              		.cfi_endproc
 2412              	.LFE198:
 2413              		.size	my_atou, .-my_atou
 2414              		.section	.text.console_init,"ax",%progbits
 2415              		.align	2
 2416              		.global	console_init
 2417              		.code	16
 2418              		.thumb_func
 2419              		.type	console_init, %function
 2420              	console_init:
 2421              	.LFB206:
 447:src/console.c **** 
 448:src/console.c **** static const EXECUTE_HANDLER handlers[] = {get, set, help, config_def, bal, chrg, measure};
 449:src/console.c **** 
 450:src/console.c **** void console_init(CSB_INPUT_T * input, CSB_STATE_T * state, CONSOLE_OUTPUT_T *con_output){
 2422              		.loc 1 450 0
 2423              		.cfi_startproc
 2424              		@ args = 0, pretend = 0, frame = 0
 2425              		@ frame_needed = 0, uses_anonymous_args = 0
ARM GAS  /var/folders/z0/6xlwn_996xz3mwq1cgzkbq4r0000gp/T//ccBgBTlB.s 			page 57


 2426              		@ link register save eliminated.
 2427              	.LVL324:
 451:src/console.c ****     csb_input = input;
 2428              		.loc 1 451 0
 2429 0000 074B     		ldr	r3, .L239	@ tmp113,
 452:src/console.c ****     csb_state = state;
 453:src/console.c ****     console_output = con_output;
 454:src/console.c ****     console_output->valid_mode_request = false;
 455:src/console.c ****     console_output->mode_request = CSB_SSM_MODE_IDLE;
 456:src/console.c ****     console_output->config_default = false;
 457:src/console.c **** 
 458:src/console.c ****     console_output->measure_on = false;
 459:src/console.c ****     console_output->measure_packcurrent = false;
 460:src/console.c ****     console_output->measure_packvoltage = false;
 461:src/console.c **** }
 2430              		.loc 1 461 0
 2431              		@ sp needed	@
 451:src/console.c ****     csb_input = input;
 2432              		.loc 1 451 0
 2433 0002 1860     		str	r0, [r3]	@ input, csb_input
 452:src/console.c ****     csb_state = state;
 2434              		.loc 1 452 0
 2435 0004 074B     		ldr	r3, .L239+4	@ tmp114,
 2436 0006 1960     		str	r1, [r3]	@ state, csb_state
 453:src/console.c ****     console_output->valid_mode_request = false;
 2437              		.loc 1 453 0
 2438 0008 074B     		ldr	r3, .L239+8	@ tmp115,
 455:src/console.c ****     console_output->config_default = false;
 2439              		.loc 1 455 0
 2440 000a 0121     		movs	r1, #1	@ tmp118,
 2441              	.LVL325:
 453:src/console.c ****     console_output->valid_mode_request = false;
 2442              		.loc 1 453 0
 2443 000c 1A60     		str	r2, [r3]	@ con_output, console_output
 454:src/console.c ****     console_output->mode_request = CSB_SSM_MODE_IDLE;
 2444              		.loc 1 454 0
 2445 000e 0023     		movs	r3, #0	@ tmp116,
 455:src/console.c ****     console_output->config_default = false;
 2446              		.loc 1 455 0
 2447 0010 9170     		strb	r1, [r2, #2]	@ tmp118, con_output_6(D)->mode_request
 454:src/console.c ****     console_output->mode_request = CSB_SSM_MODE_IDLE;
 2448              		.loc 1 454 0
 2449 0012 1370     		strb	r3, [r2]	@ tmp116, con_output_6(D)->valid_mode_request
 456:src/console.c **** 
 2450              		.loc 1 456 0
 2451 0014 5370     		strb	r3, [r2, #1]	@ tmp116, con_output_6(D)->config_default
 458:src/console.c ****     console_output->measure_packcurrent = false;
 2452              		.loc 1 458 0
 2453 0016 1372     		strb	r3, [r2, #8]	@ tmp116, con_output_6(D)->measure_on
 459:src/console.c ****     console_output->measure_packvoltage = false;
 2454              		.loc 1 459 0
 2455 0018 5372     		strb	r3, [r2, #9]	@ tmp116, con_output_6(D)->measure_packcurrent
 460:src/console.c **** }
 2456              		.loc 1 460 0
 2457 001a 9372     		strb	r3, [r2, #10]	@ tmp116, con_output_6(D)->measure_packvoltage
 2458              		.loc 1 461 0
 2459 001c 7047     		bx	lr
ARM GAS  /var/folders/z0/6xlwn_996xz3mwq1cgzkbq4r0000gp/T//ccBgBTlB.s 			page 58


 2460              	.L240:
 2461 001e C046     		.align	2
 2462              	.L239:
 2463 0020 00000000 		.word	.LANCHOR8
 2464 0024 00000000 		.word	.LANCHOR1
 2465 0028 00000000 		.word	.LANCHOR0
 2466              		.cfi_endproc
 2467              	.LFE206:
 2468              		.size	console_init, .-console_init
 2469              		.section	.text.executerl,"ax",%progbits
 2470              		.align	2
 2471              		.global	executerl
 2472              		.code	16
 2473              		.thumb_func
 2474              		.type	executerl, %function
 2475              	executerl:
 2476              	.LFB207:
 462:src/console.c **** 
 463:src/console.c **** void executerl(int32_t argc, const char * const * argv){
 2477              		.loc 1 463 0
 2478              		.cfi_startproc
 2479              		@ args = 0, pretend = 0, frame = 0
 2480              		@ frame_needed = 0, uses_anonymous_args = 0
 2481              	.LVL326:
 2482 0000 F0B5     		push	{r4, r5, r6, r7, lr}	@
 2483              		.cfi_def_cfa_offset 20
 2484              		.cfi_offset 4, -20
 2485              		.cfi_offset 5, -16
 2486              		.cfi_offset 6, -12
 2487              		.cfi_offset 7, -8
 2488              		.cfi_offset 14, -4
 2489 0002 4746     		mov	r7, r8	@,
 2490 0004 0E68     		ldr	r6, [r1]	@ D.8637, *argv_5(D)
 2491 0006 80B4     		push	{r7}	@
 2492              		.cfi_def_cfa_offset 24
 2493              		.cfi_offset 8, -24
 2494              		.loc 1 463 0
 2495 0008 8846     		mov	r8, r1	@ argv, argv
 2496 000a 0700     		movs	r7, r0	@ argc, argc
 2497 000c 114D     		ldr	r5, .L252	@ ivtmp.262,
 2498 000e 1249     		ldr	r1, .L252+4	@ D.8637,
 2499              	.LVL327:
 464:src/console.c ****     uint32_t command_i = 0;
 465:src/console.c ****     bool found_command = false;
 466:src/console.c ****     for (command_i = 0; command_i < NUMCOMMANDS; ++command_i)
 2500              		.loc 1 466 0
 2501 0010 0024     		movs	r4, #0	@ command_i,
 2502 0012 00E0     		b	.L244	@
 2503              	.LVL328:
 2504              	.L250:
 2505 0014 2968     		ldr	r1, [r5]	@ D.8637, MEM[base: _2, offset: 0B]
 2506              	.LVL329:
 2507              	.L244:
 467:src/console.c ****     {
 468:src/console.c ****         if (strcmp(argv[0],commands[command_i]) == 0){
 2508              		.loc 1 468 0
 2509 0016 3000     		movs	r0, r6	@, D.8637
ARM GAS  /var/folders/z0/6xlwn_996xz3mwq1cgzkbq4r0000gp/T//ccBgBTlB.s 			page 59


 2510 0018 FFF7FEFF 		bl	strcmp	@
 2511              	.LVL330:
 2512 001c 0028     		cmp	r0, #0	@ tmp123,
 2513 001e 09D0     		beq	.L242	@,
 466:src/console.c ****     {
 2514              		.loc 1 466 0 discriminator 2
 2515 0020 0134     		adds	r4, r4, #1	@ command_i,
 2516              	.LVL331:
 2517 0022 0435     		adds	r5, r5, #4	@ ivtmp.262,
 2518 0024 072C     		cmp	r4, #7	@ command_i,
 2519 0026 F5D1     		bne	.L250	@,
 469:src/console.c ****             found_command = true;
 470:src/console.c ****             break;
 471:src/console.c ****         }
 472:src/console.c ****     }
 473:src/console.c ****     if (found_command) {
 474:src/console.c ****         if (nargs[command_i] == (uint32_t)(argc-1))
 475:src/console.c ****         {
 476:src/console.c ****             handlers[command_i](argv);
 477:src/console.c ****         }
 478:src/console.c ****         else {
 479:src/console.c ****             Board_Println("incorrect number of args");
 480:src/console.c ****         }
 481:src/console.c ****     }
 482:src/console.c ****     else{
 483:src/console.c ****         Board_Println("Unrecognized command");
 2520              		.loc 1 483 0
 2521 0028 0C48     		ldr	r0, .L252+8	@,
 2522 002a FFF7FEFF 		bl	Board_Println	@
 2523              	.LVL332:
 2524              	.L241:
 484:src/console.c ****     }
 485:src/console.c **** }
 2525              		.loc 1 485 0
 2526              		@ sp needed	@
 2527              	.LVL333:
 2528 002e 04BC     		pop	{r2}
 2529 0030 9046     		mov	r8, r2
 2530 0032 F0BD     		pop	{r4, r5, r6, r7, pc}
 2531              	.LVL334:
 2532              	.L242:
 474:src/console.c ****         {
 2533              		.loc 1 474 0
 2534 0034 0A4B     		ldr	r3, .L252+12	@ tmp129,
 2535 0036 013F     		subs	r7, r7, #1	@ D.8635,
 2536              	.LVL335:
 2537 0038 1B5D     		ldrb	r3, [r3, r4]	@ D.8634, nargs
 2538 003a BB42     		cmp	r3, r7	@ D.8634, D.8635
 2539 003c 03D0     		beq	.L251	@,
 479:src/console.c ****         }
 2540              		.loc 1 479 0
 2541 003e 0948     		ldr	r0, .L252+16	@,
 2542 0040 FFF7FEFF 		bl	Board_Println	@
 2543              	.LVL336:
 2544              		.loc 1 485 0
 2545 0044 F3E7     		b	.L241	@
 2546              	.L251:
ARM GAS  /var/folders/z0/6xlwn_996xz3mwq1cgzkbq4r0000gp/T//ccBgBTlB.s 			page 60


 476:src/console.c ****         }
 2547              		.loc 1 476 0
 2548 0046 084B     		ldr	r3, .L252+20	@ tmp125,
 2549 0048 A400     		lsls	r4, r4, #2	@ tmp126, command_i,
 2550              	.LVL337:
 2551 004a E358     		ldr	r3, [r4, r3]	@ tmp127, handlers
 2552 004c 4046     		mov	r0, r8	@, argv
 2553 004e 9847     		blx	r3	@ tmp127
 2554              	.LVL338:
 2555 0050 EDE7     		b	.L241	@
 2556              	.L253:
 2557 0052 C046     		.align	2
 2558              	.L252:
 2559 0054 00000000 		.word	commands
 2560 0058 50020000 		.word	.LC95
 2561 005c B4020000 		.word	.LC127
 2562 0060 00000000 		.word	.LANCHOR11
 2563 0064 98020000 		.word	.LC124
 2564 0068 00000000 		.word	.LANCHOR10
 2565              		.cfi_endproc
 2566              	.LFE207:
 2567              		.size	executerl, .-executerl
 2568              		.section	.text.Output_Measurements,"ax",%progbits
 2569              		.align	2
 2570              		.global	Output_Measurements
 2571              		.code	16
 2572              		.thumb_func
 2573              		.type	Output_Measurements, %function
 2574              	Output_Measurements:
 2575              	.LFB208:
 486:src/console.c **** 
 487:src/console.c **** void Output_Measurements(
 488:src/console.c ****         CONSOLE_OUTPUT_T *console_output,
 489:src/console.c ****         CSB_INPUT_T* csb_input,
 490:src/console.c ****         uint32_t msTicks
 491:src/console.c **** ) {
 2576              		.loc 1 491 0
 2577              		.cfi_startproc
 2578              		@ args = 0, pretend = 0, frame = 24
 2579              		@ frame_needed = 0, uses_anonymous_args = 0
 2580              	.LVL339:
 2581 0000 F0B5     		push	{r4, r5, r6, r7, lr}	@
 2582              		.cfi_def_cfa_offset 20
 2583              		.cfi_offset 4, -20
 2584              		.cfi_offset 5, -16
 2585              		.cfi_offset 6, -12
 2586              		.cfi_offset 7, -8
 2587              		.cfi_offset 14, -4
 492:src/console.c **** 
 493:src/console.c ****     char tempstr[20];
 494:src/console.c **** 
 495:src/console.c ****     if(console_output->measure_on) {
 2588              		.loc 1 495 0
 2589 0002 037A     		ldrb	r3, [r0, #8]	@ tmp124,
 491:src/console.c **** 
 2590              		.loc 1 491 0
 2591 0004 87B0     		sub	sp, sp, #28	@,,
ARM GAS  /var/folders/z0/6xlwn_996xz3mwq1cgzkbq4r0000gp/T//ccBgBTlB.s 			page 61


 2592              		.cfi_def_cfa_offset 48
 491:src/console.c **** 
 2593              		.loc 1 491 0
 2594 0006 0400     		movs	r4, r0	@ console_output, console_output
 2595 0008 0E00     		movs	r6, r1	@ csb_input, csb_input
 2596 000a 1500     		movs	r5, r2	@ msTicks, msTicks
 2597              		.loc 1 495 0
 2598 000c 002B     		cmp	r3, #0	@ tmp124,
 2599 000e 13D0     		beq	.L254	@,
 2600              	.LVL340:
 2601              	.LBB143:
 496:src/console.c **** 
 497:src/console.c ****         bool printPackCurrent = (msTicks - lastPackCurrentPrintTime) >
 498:src/console.c ****                 PACK_CURRENT_PRINT_PERIOD_ms;
 499:src/console.c ****         if(console_output->measure_packcurrent && printPackCurrent) {
 2602              		.loc 1 499 0
 2603 0010 437A     		ldrb	r3, [r0, #9]	@ tmp125,
 2604 0012 002B     		cmp	r3, #0	@ tmp125,
 2605 0014 06D0     		beq	.L257	@,
 497:src/console.c ****                 PACK_CURRENT_PRINT_PERIOD_ms;
 2606              		.loc 1 497 0 discriminator 1
 2607 0016 224F     		ldr	r7, .L267	@ tmp126,
 2608              		.loc 1 499 0 discriminator 1
 2609 0018 3B68     		ldr	r3, [r7]	@ tmp155, lastPackCurrentPrintTime
 2610 001a D31A     		subs	r3, r2, r3	@ D.8645, msTicks, tmp155
 2611 001c FA22     		movs	r2, #250	@ tmp129,
 2612              	.LVL341:
 2613 001e 9200     		lsls	r2, r2, #2	@ tmp129, tmp129,
 2614 0020 9342     		cmp	r3, r2	@ D.8645, tmp129
 2615 0022 24D8     		bhi	.L265	@,
 2616              	.LVL342:
 2617              	.L257:
 500:src/console.c ****             utoa(msTicks, tempstr, 10); // print msTicks
 501:src/console.c ****             Board_Print_BLOCKING(tempstr);
 502:src/console.c ****             Board_Print_BLOCKING(",pcurr,");
 503:src/console.c ****             utoa(csb_input->pack_status->pack_current_mA, tempstr, 10);
 504:src/console.c ****             Board_Println_BLOCKING(tempstr); // print pack current
 505:src/console.c ****             Board_Print_BLOCKING("\n");
 506:src/console.c ****             lastPackCurrentPrintTime = msTicks;
 507:src/console.c ****         }
 508:src/console.c **** 
 509:src/console.c ****         bool printPackVoltage = (msTicks - lastPackVoltagePrintTime) >
 510:src/console.c ****                 PACK_VOLTAGE_PRINT_PERIOD_ms;
 511:src/console.c ****         if(console_output->measure_packvoltage && printPackVoltage) {
 2618              		.loc 1 511 0
 2619 0024 A37A     		ldrb	r3, [r4, #10]	@ tmp139,
 2620 0026 002B     		cmp	r3, #0	@ tmp139,
 2621 0028 06D0     		beq	.L254	@,
 2622              		.loc 1 511 0 is_stmt 0 discriminator 1
 2623 002a FA22     		movs	r2, #250	@ tmp143,
 509:src/console.c ****                 PACK_VOLTAGE_PRINT_PERIOD_ms;
 2624              		.loc 1 509 0 is_stmt 1 discriminator 1
 2625 002c 1D4C     		ldr	r4, .L267+4	@ tmp140,
 2626              	.LVL343:
 2627              		.loc 1 511 0 discriminator 1
 2628 002e 9200     		lsls	r2, r2, #2	@ tmp143, tmp143,
 2629 0030 2368     		ldr	r3, [r4]	@ tmp160, lastPackVoltagePrintTime
ARM GAS  /var/folders/z0/6xlwn_996xz3mwq1cgzkbq4r0000gp/T//ccBgBTlB.s 			page 62


 2630 0032 EB1A     		subs	r3, r5, r3	@ D.8645, msTicks, tmp160
 2631 0034 9342     		cmp	r3, r2	@ D.8645, tmp143
 2632 0036 01D8     		bhi	.L266	@,
 2633              	.LVL344:
 2634              	.L254:
 2635              	.LBE143:
 512:src/console.c ****             utoa(msTicks, tempstr, 10); // print msTicks
 513:src/console.c ****             Board_Print_BLOCKING(tempstr);
 514:src/console.c ****             Board_Print_BLOCKING(",pvolt,");
 515:src/console.c ****             utoa(csb_input->pack_status->pack_voltage_mV, tempstr, 10);
 516:src/console.c ****             Board_Println_BLOCKING(tempstr); // print pack voltage
 517:src/console.c ****             Board_Print_BLOCKING("\n");
 518:src/console.c ****             lastPackVoltagePrintTime = msTicks;
 519:src/console.c ****         }
 520:src/console.c ****     }
 521:src/console.c **** }
 2636              		.loc 1 521 0
 2637 0038 07B0     		add	sp, sp, #28	@,,
 2638              		@ sp needed	@
 2639              	.LVL345:
 2640              	.LVL346:
 2641 003a F0BD     		pop	{r4, r5, r6, r7, pc}
 2642              	.LVL347:
 2643              	.L266:
 2644              	.LBB144:
 512:src/console.c ****             utoa(msTicks, tempstr, 10); // print msTicks
 2645              		.loc 1 512 0
 2646 003c 0A22     		movs	r2, #10	@,
 2647 003e 01A9     		add	r1, sp, #4	@ tmp161,,
 2648 0040 2800     		movs	r0, r5	@, msTicks
 2649 0042 FFF7FEFF 		bl	utoa	@
 2650              	.LVL348:
 513:src/console.c ****             Board_Print_BLOCKING(",pvolt,");
 2651              		.loc 1 513 0
 2652 0046 01A8     		add	r0, sp, #4	@ tmp162,,
 2653 0048 FFF7FEFF 		bl	Board_Print_BLOCKING	@
 2654              	.LVL349:
 514:src/console.c ****             utoa(csb_input->pack_status->pack_voltage_mV, tempstr, 10);
 2655              		.loc 1 514 0
 2656 004c 1648     		ldr	r0, .L267+8	@,
 2657 004e FFF7FEFF 		bl	Board_Print_BLOCKING	@
 2658              	.LVL350:
 515:src/console.c ****             Board_Println_BLOCKING(tempstr); // print pack voltage
 2659              		.loc 1 515 0
 2660 0052 3368     		ldr	r3, [r6]	@ csb_input_13(D)->pack_status, csb_input_13(D)->pack_status
 2661 0054 0A22     		movs	r2, #10	@,
 2662 0056 9868     		ldr	r0, [r3, #8]	@ _26->pack_voltage_mV, _26->pack_voltage_mV
 2663 0058 01A9     		add	r1, sp, #4	@ tmp163,,
 2664 005a FFF7FEFF 		bl	utoa	@
 2665              	.LVL351:
 516:src/console.c ****             Board_Print_BLOCKING("\n");
 2666              		.loc 1 516 0
 2667 005e 01A8     		add	r0, sp, #4	@ tmp164,,
 2668 0060 FFF7FEFF 		bl	Board_Println_BLOCKING	@
 2669              	.LVL352:
 517:src/console.c ****             lastPackVoltagePrintTime = msTicks;
 2670              		.loc 1 517 0
ARM GAS  /var/folders/z0/6xlwn_996xz3mwq1cgzkbq4r0000gp/T//ccBgBTlB.s 			page 63


 2671 0064 1148     		ldr	r0, .L267+12	@,
 2672 0066 FFF7FEFF 		bl	Board_Print_BLOCKING	@
 2673              	.LVL353:
 518:src/console.c ****         }
 2674              		.loc 1 518 0
 2675 006a 2560     		str	r5, [r4]	@ msTicks, lastPackVoltagePrintTime
 2676              	.LBE144:
 2677              		.loc 1 521 0
 2678 006c E4E7     		b	.L254	@
 2679              	.LVL354:
 2680              	.L265:
 2681              	.LBB145:
 500:src/console.c ****             Board_Print_BLOCKING(tempstr);
 2682              		.loc 1 500 0
 2683 006e 0A22     		movs	r2, #10	@,
 2684 0070 01A9     		add	r1, sp, #4	@ tmp156,,
 2685              	.LVL355:
 2686 0072 2800     		movs	r0, r5	@, msTicks
 2687              	.LVL356:
 2688 0074 FFF7FEFF 		bl	utoa	@
 2689              	.LVL357:
 501:src/console.c ****             Board_Print_BLOCKING(",pcurr,");
 2690              		.loc 1 501 0
 2691 0078 01A8     		add	r0, sp, #4	@ tmp157,,
 2692 007a FFF7FEFF 		bl	Board_Print_BLOCKING	@
 2693              	.LVL358:
 502:src/console.c ****             utoa(csb_input->pack_status->pack_current_mA, tempstr, 10);
 2694              		.loc 1 502 0
 2695 007e 0C48     		ldr	r0, .L267+16	@,
 2696 0080 FFF7FEFF 		bl	Board_Print_BLOCKING	@
 2697              	.LVL359:
 503:src/console.c ****             Board_Println_BLOCKING(tempstr); // print pack current
 2698              		.loc 1 503 0
 2699 0084 3368     		ldr	r3, [r6]	@ csb_input_13(D)->pack_status, csb_input_13(D)->pack_status
 2700 0086 0A22     		movs	r2, #10	@,
 2701 0088 5868     		ldr	r0, [r3, #4]	@ _14->pack_current_mA, _14->pack_current_mA
 2702 008a 01A9     		add	r1, sp, #4	@ tmp158,,
 2703 008c FFF7FEFF 		bl	utoa	@
 2704              	.LVL360:
 504:src/console.c ****             Board_Print_BLOCKING("\n");
 2705              		.loc 1 504 0
 2706 0090 01A8     		add	r0, sp, #4	@ tmp159,,
 2707 0092 FFF7FEFF 		bl	Board_Println_BLOCKING	@
 2708              	.LVL361:
 505:src/console.c ****             lastPackCurrentPrintTime = msTicks;
 2709              		.loc 1 505 0
 2710 0096 0548     		ldr	r0, .L267+12	@,
 2711 0098 FFF7FEFF 		bl	Board_Print_BLOCKING	@
 2712              	.LVL362:
 506:src/console.c ****         }
 2713              		.loc 1 506 0
 2714 009c 3D60     		str	r5, [r7]	@ msTicks, lastPackCurrentPrintTime
 2715 009e C1E7     		b	.L257	@
 2716              	.L268:
 2717              		.align	2
 2718              	.L267:
 2719 00a0 00000000 		.word	.LANCHOR12
ARM GAS  /var/folders/z0/6xlwn_996xz3mwq1cgzkbq4r0000gp/T//ccBgBTlB.s 			page 64


 2720 00a4 00000000 		.word	.LANCHOR13
 2721 00a8 D8020000 		.word	.LC135
 2722 00ac D4020000 		.word	.LC132
 2723 00b0 CC020000 		.word	.LC130
 2724              	.LBE145:
 2725              		.cfi_endproc
 2726              	.LFE208:
 2727              		.size	Output_Measurements, .-Output_Measurements
 2728              		.set	commands,helpstring
 2729              		.section	.bss.console_output,"aw",%nobits
 2730              		.align	2
 2731              		.set	.LANCHOR0,. + 0
 2732              		.type	console_output, %object
 2733              		.size	console_output, 4
 2734              	console_output:
 2735 0000 00000000 		.space	4
 2736              		.section	.rodata.PACK_NAMES,"a",%progbits
 2737              		.align	2
 2738              		.set	.LANCHOR4,. + 0
 2739              		.type	PACK_NAMES, %object
 2740              		.size	PACK_NAMES, 12
 2741              	PACK_NAMES:
 2742 0000 18060000 		.word	.LC185
 2743 0004 24060000 		.word	.LC186
 2744 0008 30060000 		.word	.LC187
 2745              		.section	.rodata.locstring,"a",%progbits
 2746              		.align	2
 2747              		.set	.LANCHOR2,. + 0
 2748              		.type	locstring, %object
 2749              		.size	locstring, 96
 2750              	locstring:
 2751 0000 88000000 		.word	.LC24
 2752 0004 E0020000 		.word	.LC137
 2753 0008 EC020000 		.word	.LC138
 2754 000c 00030000 		.word	.LC139
 2755 0010 0C030000 		.word	.LC140
 2756 0014 20030000 		.word	.LC141
 2757 0018 38030000 		.word	.LC142
 2758 001c 4C030000 		.word	.LC143
 2759 0020 60030000 		.word	.LC144
 2760 0024 70030000 		.word	.LC145
 2761 0028 84030000 		.word	.LC146
 2762 002c 98030000 		.word	.LC147
 2763 0030 AC030000 		.word	.LC148
 2764 0034 C4030000 		.word	.LC149
 2765 0038 DC030000 		.word	.LC150
 2766 003c F4030000 		.word	.LC151
 2767 0040 0C040000 		.word	.LC152
 2768 0044 94000000 		.word	.LC26
 2769 0048 18040000 		.word	.LC153
 2770 004c 28040000 		.word	.LC154
 2771 0050 34040000 		.word	.LC155
 2772 0054 48040000 		.word	.LC156
 2773 0058 58040000 		.word	.LC157
 2774 005c 68040000 		.word	.LC158
 2775              		.section	.rodata.CSB_SSM_MODE_NAMES,"a",%progbits
 2776              		.align	2
ARM GAS  /var/folders/z0/6xlwn_996xz3mwq1cgzkbq4r0000gp/T//ccBgBTlB.s 			page 65


 2777              		.set	.LANCHOR5,. + 0
 2778              		.type	CSB_SSM_MODE_NAMES, %object
 2779              		.size	CSB_SSM_MODE_NAMES, 16
 2780              	CSB_SSM_MODE_NAMES:
 2781 0000 A8050000 		.word	.LC179
 2782 0004 BC050000 		.word	.LC180
 2783 0008 D0050000 		.word	.LC181
 2784 000c E4050000 		.word	.LC182
 2785              		.section	.rodata.handlers,"a",%progbits
 2786              		.align	2
 2787              		.set	.LANCHOR10,. + 0
 2788              		.type	handlers, %object
 2789              		.size	handlers, 28
 2790              	handlers:
 2791 0000 00000000 		.word	get
 2792 0004 00000000 		.word	set
 2793 0008 00000000 		.word	help
 2794 000c 00000000 		.word	config_def
 2795 0010 00000000 		.word	bal
 2796 0014 00000000 		.word	chrg
 2797 0018 00000000 		.word	measure
 2798              		.section	.bss.lastPackCurrentPrintTime,"aw",%nobits
 2799              		.align	2
 2800              		.set	.LANCHOR12,. + 0
 2801              		.type	lastPackCurrentPrintTime, %object
 2802              		.size	lastPackCurrentPrintTime, 4
 2803              	lastPackCurrentPrintTime:
 2804 0000 00000000 		.space	4
 2805              		.section	.rodata.BMS_COMM_NAMES,"a",%progbits
 2806              		.align	2
 2807              		.set	.LANCHOR3,. + 0
 2808              		.type	BMS_COMM_NAMES, %object
 2809              		.size	BMS_COMM_NAMES, 8
 2810              	BMS_COMM_NAMES:
 2811 0000 FC050000 		.word	.LC183
 2812 0004 08060000 		.word	.LC184
 2813              		.section	.rodata.str1.4,"aMS",%progbits,1
 2814              		.align	2
 2815              	.LC0:
 2816 0000 6F6E00   		.ascii	"on\000"
 2817 0003 00       		.space	1
 2818              	.LC3:
 2819 0004 4D656173 		.ascii	"Measure On!\000"
 2819      75726520 
 2819      4F6E2100 
 2820              	.LC5:
 2821 0010 6F666600 		.ascii	"off\000"
 2822              	.LC7:
 2823 0014 4D656173 		.ascii	"Measure Off!\000"
 2823      75726520 
 2823      4F666621 
 2823      00
 2824 0021 000000   		.space	3
 2825              	.LC9:
 2826 0024 7072696E 		.ascii	"print_flags\000"
 2826      745F666C 
 2826      61677300 
ARM GAS  /var/folders/z0/6xlwn_996xz3mwq1cgzkbq4r0000gp/T//ccBgBTlB.s 			page 66


 2827              	.LC11:
 2828 0030 5061636B 		.ascii	"Pack Current: On\000"
 2828      20437572 
 2828      72656E74 
 2828      3A204F6E 
 2828      00
 2829 0041 000000   		.space	3
 2830              	.LC13:
 2831 0044 5061636B 		.ascii	"Pack Current: Off\000"
 2831      20437572 
 2831      72656E74 
 2831      3A204F66 
 2831      6600
 2832 0056 0000     		.space	2
 2833              	.LC15:
 2834 0058 7061636B 		.ascii	"packcurrent\000"
 2834      63757272 
 2834      656E7400 
 2835              	.LC17:
 2836 0064 7061636B 		.ascii	"packvoltage\000"
 2836      766F6C74 
 2836      61676500 
 2837              	.LC19:
 2838 0070 556E7265 		.ascii	"Unrecognized command!\000"
 2838      636F676E 
 2838      697A6564 
 2838      20636F6D 
 2838      6D616E64 
 2839 0086 0000     		.space	2
 2840              	.LC24:
 2841 0088 63656C6C 		.ascii	"cell_min_mV\000"
 2841      5F6D696E 
 2841      5F6D5600 
 2842              	.LC26:
 2843 0094 73746174 		.ascii	"state\000"
 2843      6500
 2844 009a 0000     		.space	2
 2845              	.LC29:
 2846 009c 53657420 		.ascii	"Set failed (not in standby mode)!\000"
 2846      6661696C 
 2846      65642028 
 2846      6E6F7420 
 2846      696E2073 
 2847 00be 0000     		.space	2
 2848              	.LC32:
 2849 00c0 446F6E65 		.ascii	"Done!\000"
 2849      2100
 2850 00c6 0000     		.space	2
 2851              	.LC34:
 2852 00c8 74686973 		.ascii	"this location is read only\000"
 2852      206C6F63 
 2852      6174696F 
 2852      6E206973 
 2852      20726561 
 2853 00e3 00       		.space	1
 2854              	.LC36:
 2855 00e4 696E7661 		.ascii	"invalid location\000"
ARM GAS  /var/folders/z0/6xlwn_996xz3mwq1cgzkbq4r0000gp/T//ccBgBTlB.s 			page 67


 2855      6C696420 
 2855      6C6F6361 
 2855      74696F6E 
 2855      00
 2856 00f5 000000   		.space	3
 2857              	.LC39:
 2858 00f8 79657300 		.ascii	"yes\000"
 2859              	.LC41:
 2860 00fc 6E6F00   		.ascii	"no\000"
 2861 00ff 00       		.space	1
 2862              	.LC46:
 2863 0100 63687267 		.ascii	"chrg off\000"
 2863      206F6666 
 2863      00
 2864 0109 000000   		.space	3
 2865              	.LC48:
 2866 010c 63687267 		.ascii	"chrg on\000"
 2866      206F6E00 
 2867              	.LC50:
 2868 0114 4D757374 		.ascii	"Must be in standby\000"
 2868      20626520 
 2868      696E2073 
 2868      74616E64 
 2868      627900
 2869 0127 00       		.space	1
 2870              	.LC62:
 2871 0128 6C6F7720 		.ascii	"low side contactor fault \000"
 2871      73696465 
 2871      20636F6E 
 2871      74616374 
 2871      6F722066 
 2872 0142 0000     		.space	2
 2873              	.LC64:
 2874 0144 494D4420 		.ascii	"IMD fault \000"
 2874      6661756C 
 2874      742000
 2875 014f 00       		.space	1
 2876              	.LC66:
 2877 0150 696E7465 		.ascii	"interlock fault \000"
 2877      726C6F63 
 2877      6B206661 
 2877      756C7420 
 2877      00
 2878 0161 000000   		.space	3
 2879              	.LC68:
 2880 0164 424D5320 		.ascii	"BMS fault \000"
 2880      6661756C 
 2880      742000
 2881 016f 00       		.space	1
 2882              	.LC70:
 2883 0170 20206572 		.ascii	"  error \000"
 2883      726F7220 
 2883      00
 2884 0179 000000   		.space	3
 2885              	.LC72:
 2886 017c 656C636F 		.ascii	"elcon on \000"
 2886      6E206F6E 
ARM GAS  /var/folders/z0/6xlwn_996xz3mwq1cgzkbq4r0000gp/T//ccBgBTlB.s 			page 68


 2886      2000
 2887 0186 0000     		.space	2
 2888              	.LC74:
 2889 0188 2020656C 		.ascii	"  elcon has hardware failure\000"
 2889      636F6E20 
 2889      68617320 
 2889      68617264 
 2889      77617265 
 2890 01a5 000000   		.space	3
 2891              	.LC76:
 2892 01a8 2020656C 		.ascii	"  elcon over temp protection on\000"
 2892      636F6E20 
 2892      6F766572 
 2892      2074656D 
 2892      70207072 
 2893              	.LC78:
 2894 01c8 2020656C 		.ascii	"  elcon input voltage is wrong\000"
 2894      636F6E20 
 2894      696E7075 
 2894      7420766F 
 2894      6C746167 
 2895 01e7 00       		.space	1
 2896              	.LC80:
 2897 01e8 2020656C 		.ascii	"  elcon battery voltage not detected\000"
 2897      636F6E20 
 2897      62617474 
 2897      65727920 
 2897      766F6C74 
 2898 020d 000000   		.space	3
 2899              	.LC82:
 2900 0210 2020656C 		.ascii	"  elcon comms is bad\000"
 2900      636F6E20 
 2900      636F6D6D 
 2900      73206973 
 2900      20626164 
 2901 0225 000000   		.space	3
 2902              	.LC86:
 2903 0228 696E7661 		.ascii	"invalid get location\000"
 2903      6C696420 
 2903      67657420 
 2903      6C6F6361 
 2903      74696F6E 
 2904 023d 000000   		.space	3
 2905              	.LC88:
 2906 0240 4D593138 		.ascii	"MY18\000"
 2906      00
 2907 0245 000000   		.space	3
 2908              	.LC90:
 2909 0248 4D593136 		.ascii	"MY16\000"
 2909      00
 2910 024d 000000   		.space	3
 2911              	.LC95:
 2912 0250 67657400 		.ascii	"get\000"
 2913              	.LC101:
 2914 0254 00       		.ascii	"\000"
 2915 0255 000000   		.space	3
 2916              	.LC103:
ARM GAS  /var/folders/z0/6xlwn_996xz3mwq1cgzkbq4r0000gp/T//ccBgBTlB.s 			page 69


 2917 0258 2D2D2D2D 		.ascii	"------r/w entries------\000"
 2917      2D2D722F 
 2917      7720656E 
 2917      74726965 
 2917      732D2D2D 
 2918              	.LC106:
 2919 0270 2D2D2D2D 		.ascii	"------r/o entries------\000"
 2919      2D2D722F 
 2919      6F20656E 
 2919      74726965 
 2919      732D2D2D 
 2920              	.LC113:
 2921 0288 62616C20 		.ascii	"bal off\000"
 2921      6F666600 
 2922              	.LC115:
 2923 0290 62616C20 		.ascii	"bal on\000"
 2923      6F6E00
 2924 0297 00       		.space	1
 2925              	.LC124:
 2926 0298 696E636F 		.ascii	"incorrect number of args\000"
 2926      72726563 
 2926      74206E75 
 2926      6D626572 
 2926      206F6620 
 2927 02b1 000000   		.space	3
 2928              	.LC127:
 2929 02b4 556E7265 		.ascii	"Unrecognized command\000"
 2929      636F676E 
 2929      697A6564 
 2929      20636F6D 
 2929      6D616E64 
 2930 02c9 000000   		.space	3
 2931              	.LC130:
 2932 02cc 2C706375 		.ascii	",pcurr,\000"
 2932      72722C00 
 2933              	.LC132:
 2934 02d4 0A00     		.ascii	"\012\000"
 2935 02d6 0000     		.space	2
 2936              	.LC135:
 2937 02d8 2C70766F 		.ascii	",pvolt,\000"
 2937      6C742C00 
 2938              	.LC137:
 2939 02e0 63656C6C 		.ascii	"cell_max_mV\000"
 2939      5F6D6178 
 2939      5F6D5600 
 2940              	.LC138:
 2941 02ec 63656C6C 		.ascii	"cell_capacity_cAh\000"
 2941      5F636170 
 2941      61636974 
 2941      795F6341 
 2941      6800
 2942 02fe 0000     		.space	2
 2943              	.LC139:
 2944 0300 6E756D5F 		.ascii	"num_modules\000"
 2944      6D6F6475 
 2944      6C657300 
 2945              	.LC140:
ARM GAS  /var/folders/z0/6xlwn_996xz3mwq1cgzkbq4r0000gp/T//ccBgBTlB.s 			page 70


 2946 030c 6D6F6475 		.ascii	"module_cell_count\000"
 2946      6C655F63 
 2946      656C6C5F 
 2946      636F756E 
 2946      7400
 2947 031e 0000     		.space	2
 2948              	.LC141:
 2949 0320 63656C6C 		.ascii	"cell_charge_c_rating_cC\000"
 2949      5F636861 
 2949      7267655F 
 2949      635F7261 
 2949      74696E67 
 2950              	.LC142:
 2951 0338 62616C5F 		.ascii	"bal_on_thresh_mV\000"
 2951      6F6E5F74 
 2951      68726573 
 2951      685F6D56 
 2951      00
 2952 0349 000000   		.space	3
 2953              	.LC143:
 2954 034c 62616C5F 		.ascii	"bal_off_thresh_mV\000"
 2954      6F66665F 
 2954      74687265 
 2954      73685F6D 
 2954      5600
 2955 035e 0000     		.space	2
 2956              	.LC144:
 2957 0360 7061636B 		.ascii	"pack_cells_p\000"
 2957      5F63656C 
 2957      6C735F70 
 2957      00
 2958 036d 000000   		.space	3
 2959              	.LC145:
 2960 0370 63765F6D 		.ascii	"cv_min_current_mA\000"
 2960      696E5F63 
 2960      75727265 
 2960      6E745F6D 
 2960      4100
 2961 0382 0000     		.space	2
 2962              	.LC146:
 2963 0384 63765F6D 		.ascii	"cv_min_current_ms\000"
 2963      696E5F63 
 2963      75727265 
 2963      6E745F6D 
 2963      7300
 2964 0396 0000     		.space	2
 2965              	.LC147:
 2966 0398 63635F63 		.ascii	"cc_cell_voltage_mV\000"
 2966      656C6C5F 
 2966      766F6C74 
 2966      6167655F 
 2966      6D5600
 2967 03ab 00       		.space	1
 2968              	.LC148:
 2969 03ac 63635F63 		.ascii	"cc_charge_voltage_mV\000"
 2969      68617267 
 2969      655F766F 
ARM GAS  /var/folders/z0/6xlwn_996xz3mwq1cgzkbq4r0000gp/T//ccBgBTlB.s 			page 71


 2969      6C746167 
 2969      655F6D56 
 2970 03c1 000000   		.space	3
 2971              	.LC149:
 2972 03c4 63635F63 		.ascii	"cc_charge_current_mA\000"
 2972      68617267 
 2972      655F6375 
 2972      7272656E 
 2972      745F6D41 
 2973 03d9 000000   		.space	3
 2974              	.LC150:
 2975 03dc 63765F63 		.ascii	"cv_charge_voltage_mV\000"
 2975      68617267 
 2975      655F766F 
 2975      6C746167 
 2975      655F6D56 
 2976 03f1 000000   		.space	3
 2977              	.LC151:
 2978 03f4 63765F63 		.ascii	"cv_charge_current_mA\000"
 2978      68617267 
 2978      655F6375 
 2978      7272656E 
 2978      745F6D41 
 2979 0409 000000   		.space	3
 2980              	.LC152:
 2981 040c 626D735F 		.ascii	"bms_comm\000"
 2981      636F6D6D 
 2981      00
 2982 0415 000000   		.space	3
 2983              	.LC153:
 2984 0418 746F7461 		.ascii	"total_num_cells\000"
 2984      6C5F6E75 
 2984      6D5F6365 
 2984      6C6C7300 
 2985              	.LC154:
 2986 0428 7061636B 		.ascii	"pack_name\000"
 2986      5F6E616D 
 2986      6500
 2987 0432 0000     		.space	2
 2988              	.LC155:
 2989 0434 7061636B 		.ascii	"pack_cell_max_mV\000"
 2989      5F63656C 
 2989      6C5F6D61 
 2989      785F6D56 
 2989      00
 2990 0445 000000   		.space	3
 2991              	.LC156:
 2992 0448 7061636B 		.ascii	"pack_current_mA\000"
 2992      5F637572 
 2992      72656E74 
 2992      5F6D4100 
 2993              	.LC157:
 2994 0458 7061636B 		.ascii	"pack_voltage_mV\000"
 2994      5F766F6C 
 2994      74616765 
 2994      5F6D5600 
 2995              	.LC158:
ARM GAS  /var/folders/z0/6xlwn_996xz3mwq1cgzkbq4r0000gp/T//ccBgBTlB.s 			page 72


 2996 0468 6661756C 		.ascii	"fault\000"
 2996      7400
 2997 046e 0000     		.space	2
 2998              	.LC159:
 2999 0470 73657400 		.ascii	"set\000"
 3000              	.LC160:
 3001 0474 68656C70 		.ascii	"help\000"
 3001      00
 3002 0479 000000   		.space	3
 3003              	.LC161:
 3004 047c 636F6E66 		.ascii	"config_def\000"
 3004      69675F64 
 3004      656600
 3005 0487 00       		.space	1
 3006              	.LC162:
 3007 0488 62616C00 		.ascii	"bal\000"
 3008              	.LC163:
 3009 048c 63687267 		.ascii	"chrg\000"
 3009      00
 3010 0491 000000   		.space	3
 3011              	.LC164:
 3012 0494 6D656173 		.ascii	"measure\000"
 3012      75726500 
 3013              	.LC165:
 3014 049c 4353425F 		.ascii	"CSB_INIT_OFF\000"
 3014      494E4954 
 3014      5F4F4646 
 3014      00
 3015 04a9 000000   		.space	3
 3016              	.LC166:
 3017 04ac 4353425F 		.ascii	"CSB_INIT_DONE\000"
 3017      494E4954 
 3017      5F444F4E 
 3017      4500
 3018 04ba 0000     		.space	2
 3019              	.LC167:
 3020 04bc 4353425F 		.ascii	"CSB_CHARGE_OFF\000"
 3020      43484152 
 3020      47455F4F 
 3020      464600
 3021 04cb 00       		.space	1
 3022              	.LC168:
 3023 04cc 4353425F 		.ascii	"CSB_CHARGE_START_SWITCH\000"
 3023      43484152 
 3023      47455F53 
 3023      54415254 
 3023      5F535749 
 3024              	.LC169:
 3025 04e4 4353425F 		.ascii	"CSB_CHARGE_SWITCH_500\000"
 3025      43484152 
 3025      47455F53 
 3025      57495443 
 3025      485F3530 
 3026 04fa 0000     		.space	2
 3027              	.LC170:
 3028 04fc 4353425F 		.ascii	"CSB_CHARGE_SEND_500\000"
 3028      43484152 
ARM GAS  /var/folders/z0/6xlwn_996xz3mwq1cgzkbq4r0000gp/T//ccBgBTlB.s 			page 73


 3028      47455F53 
 3028      454E445F 
 3028      35303000 
 3029              	.LC171:
 3030 0510 4353425F 		.ascii	"CSB_CHARGE_SWITCH_250\000"
 3030      43484152 
 3030      47455F53 
 3030      57495443 
 3030      485F3235 
 3031 0526 0000     		.space	2
 3032              	.LC172:
 3033 0528 4353425F 		.ascii	"CSB_CHARGE_WAIT_250\000"
 3033      43484152 
 3033      47455F57 
 3033      4149545F 
 3033      32353000 
 3034              	.LC173:
 3035 053c 4353425F 		.ascii	"CSB_CHARGE_CLOSE_CNTR\000"
 3035      43484152 
 3035      47455F43 
 3035      4C4F5345 
 3035      5F434E54 
 3036 0552 0000     		.space	2
 3037              	.LC174:
 3038 0554 4353425F 		.ascii	"CSB_CHARGE_CC\000"
 3038      43484152 
 3038      47455F43 
 3038      4300
 3039 0562 0000     		.space	2
 3040              	.LC175:
 3041 0564 4353425F 		.ascii	"CSB_CHARGE_CV\000"
 3041      43484152 
 3041      47455F43 
 3041      5600
 3042 0572 0000     		.space	2
 3043              	.LC176:
 3044 0574 4353425F 		.ascii	"CSB_CHARGE_BAL\000"
 3044      43484152 
 3044      47455F42 
 3044      414C00
 3045 0583 00       		.space	1
 3046              	.LC177:
 3047 0584 4353425F 		.ascii	"CSB_CHARGE_FAULT\000"
 3047      43484152 
 3047      47455F46 
 3047      41554C54 
 3047      00
 3048 0595 000000   		.space	3
 3049              	.LC178:
 3050 0598 4353425F 		.ascii	"CSB_CHARGE_DONE\000"
 3050      43484152 
 3050      47455F44 
 3050      4F4E4500 
 3051              	.LC179:
 3052 05a8 4353425F 		.ascii	"CSB_SSM_MODE_INIT\000"
 3052      53534D5F 
 3052      4D4F4445 
ARM GAS  /var/folders/z0/6xlwn_996xz3mwq1cgzkbq4r0000gp/T//ccBgBTlB.s 			page 74


 3052      5F494E49 
 3052      5400
 3053 05ba 0000     		.space	2
 3054              	.LC180:
 3055 05bc 4353425F 		.ascii	"CSB_SSM_MODE_IDLE\000"
 3055      53534D5F 
 3055      4D4F4445 
 3055      5F49444C 
 3055      4500
 3056 05ce 0000     		.space	2
 3057              	.LC181:
 3058 05d0 4353425F 		.ascii	"CSB_SSM_MODE_CHARGE\000"
 3058      53534D5F 
 3058      4D4F4445 
 3058      5F434841 
 3058      52474500 
 3059              	.LC182:
 3060 05e4 4353425F 		.ascii	"CSB_SSM_MODE_BALANCE\000"
 3060      53534D5F 
 3060      4D4F4445 
 3060      5F42414C 
 3060      414E4345 
 3061 05f9 000000   		.space	3
 3062              	.LC183:
 3063 05fc 424D535F 		.ascii	"BMS_NO_COMM\000"
 3063      4E4F5F43 
 3063      4F4D4D00 
 3064              	.LC184:
 3065 0608 424D535F 		.ascii	"BMS_YES_COMM\000"
 3065      5945535F 
 3065      434F4D4D 
 3065      00
 3066 0615 000000   		.space	3
 3067              	.LC185:
 3068 0618 4D593138 		.ascii	"MY18_PACK\000"
 3068      5F504143 
 3068      4B00
 3069 0622 0000     		.space	2
 3070              	.LC186:
 3071 0624 4D593136 		.ascii	"MY16_PACK\000"
 3071      5F504143 
 3071      4B00
 3072 062e 0000     		.space	2
 3073              	.LC187:
 3074 0630 43555354 		.ascii	"CUSTOM_PACK\000"
 3074      4F4D5F50 
 3074      41434B00 
 3075              		.section	.bss.lastPackVoltagePrintTime,"aw",%nobits
 3076              		.align	2
 3077              		.set	.LANCHOR13,. + 0
 3078              		.type	lastPackVoltagePrintTime, %object
 3079              		.size	lastPackVoltagePrintTime, 4
 3080              	lastPackVoltagePrintTime:
 3081 0000 00000000 		.space	4
 3082              		.section	.bss.csb_input,"aw",%nobits
 3083              		.align	2
 3084              		.set	.LANCHOR8,. + 0
ARM GAS  /var/folders/z0/6xlwn_996xz3mwq1cgzkbq4r0000gp/T//ccBgBTlB.s 			page 75


 3085              		.type	csb_input, %object
 3086              		.size	csb_input, 4
 3087              	csb_input:
 3088 0000 00000000 		.space	4
 3089              		.section	.rodata.helpstring,"a",%progbits
 3090              		.align	2
 3091              		.set	.LANCHOR9,. + 0
 3092              		.type	helpstring, %object
 3093              		.size	helpstring, 28
 3094              	helpstring:
 3095 0000 50020000 		.word	.LC95
 3096 0004 70040000 		.word	.LC159
 3097 0008 74040000 		.word	.LC160
 3098 000c 7C040000 		.word	.LC161
 3099 0010 88040000 		.word	.LC162
 3100 0014 8C040000 		.word	.LC163
 3101 0018 94040000 		.word	.LC164
 3102              		.section	.rodata.nargs,"a",%progbits
 3103              		.align	2
 3104              		.set	.LANCHOR11,. + 0
 3105              		.type	nargs, %object
 3106              		.size	nargs, 7
 3107              	nargs:
 3108 0000 01       		.byte	1
 3109 0001 02       		.byte	2
 3110 0002 01       		.byte	1
 3111 0003 01       		.byte	1
 3112 0004 01       		.byte	1
 3113 0005 00       		.byte	0
 3114 0006 01       		.byte	1
 3115              		.section	.rodata.CSB_INIT_MODE_NAMES,"a",%progbits
 3116              		.align	2
 3117              		.set	.LANCHOR6,. + 0
 3118              		.type	CSB_INIT_MODE_NAMES, %object
 3119              		.size	CSB_INIT_MODE_NAMES, 8
 3120              	CSB_INIT_MODE_NAMES:
 3121 0000 9C040000 		.word	.LC165
 3122 0004 AC040000 		.word	.LC166
 3123              		.section	.bss.csb_state,"aw",%nobits
 3124              		.align	2
 3125              		.set	.LANCHOR1,. + 0
 3126              		.type	csb_state, %object
 3127              		.size	csb_state, 4
 3128              	csb_state:
 3129 0000 00000000 		.space	4
 3130              		.section	.rodata.CSB_CHARGE_MODE_NAMES,"a",%progbits
 3131              		.align	2
 3132              		.set	.LANCHOR7,. + 0
 3133              		.type	CSB_CHARGE_MODE_NAMES, %object
 3134              		.size	CSB_CHARGE_MODE_NAMES, 48
 3135              	CSB_CHARGE_MODE_NAMES:
 3136 0000 BC040000 		.word	.LC167
 3137 0004 CC040000 		.word	.LC168
 3138 0008 E4040000 		.word	.LC169
 3139 000c FC040000 		.word	.LC170
 3140 0010 10050000 		.word	.LC171
 3141 0014 28050000 		.word	.LC172
ARM GAS  /var/folders/z0/6xlwn_996xz3mwq1cgzkbq4r0000gp/T//ccBgBTlB.s 			page 76


 3142 0018 3C050000 		.word	.LC173
 3143 001c 54050000 		.word	.LC174
 3144 0020 64050000 		.word	.LC175
 3145 0024 74050000 		.word	.LC176
 3146 0028 84050000 		.word	.LC177
 3147 002c 98050000 		.word	.LC178
 3148              		.text
 3149              	.Letext0:
 3150              		.file 2 "/usr/local/Cellar/gcc-arm-none-eabi/20160928/arm-none-eabi/include/machine/_default_types
 3151              		.file 3 "/usr/local/Cellar/gcc-arm-none-eabi/20160928/arm-none-eabi/include/sys/_stdint.h"
 3152              		.file 4 "../../lib/CANlib/enum_segments.h"
 3153              		.file 5 "inc/structs.h"
 3154              		.file 6 "inc/console_types.h"
 3155              		.file 7 "inc/console.h"
 3156              		.file 8 "/usr/local/Cellar/gcc-arm-none-eabi/20160928/arm-none-eabi/include/string.h"
 3157              		.file 9 "inc/board.h"
 3158              		.file 10 "inc/ssm.h"
 3159              		.file 11 "/usr/local/Cellar/gcc-arm-none-eabi/20160928/arm-none-eabi/include/stdlib.h"
 3160              		.file 12 "inc/pack_config.h"
 3161              		.file 13 "../../lib/lpc11cx4-library/lpc_chip_11cxx_lib/inc/chip.h"
 3162              		.section	.debug_info,"",%progbits
 3163              	.Ldebug_info0:
 3164 0000 011B0000 		.4byte	0x1b01
 3165 0004 0400     		.2byte	0x4
 3166 0006 00000000 		.4byte	.Ldebug_abbrev0
 3167 000a 04       		.byte	0x4
 3168 000b 01       		.uleb128 0x1
 3169 000c 2C290000 		.4byte	.LASF1791
 3170 0010 01       		.byte	0x1
 3171 0011 B4940000 		.4byte	.LASF1792
 3172 0015 11220000 		.4byte	.LASF1793
 3173 0019 20020000 		.4byte	.Ldebug_ranges0+0x220
 3174 001d 00000000 		.4byte	0
 3175 0021 00000000 		.4byte	.Ldebug_line0
 3176 0025 00000000 		.4byte	.Ldebug_macro0
 3177 0029 02       		.uleb128 0x2
 3178 002a 04       		.byte	0x4
 3179 002b 05       		.byte	0x5
 3180 002c 696E7400 		.ascii	"int\000"
 3181 0030 03       		.uleb128 0x3
 3182 0031 04       		.byte	0x4
 3183 0032 07       		.byte	0x7
 3184 0033 69B90000 		.4byte	.LASF1563
 3185 0037 03       		.uleb128 0x3
 3186 0038 01       		.byte	0x1
 3187 0039 06       		.byte	0x6
 3188 003a F8590000 		.4byte	.LASF1564
 3189 003e 03       		.uleb128 0x3
 3190 003f 01       		.byte	0x1
 3191 0040 08       		.byte	0x8
 3192 0041 0F2F0000 		.4byte	.LASF1565
 3193 0045 03       		.uleb128 0x3
 3194 0046 02       		.byte	0x2
 3195 0047 05       		.byte	0x5
 3196 0048 3ABB0000 		.4byte	.LASF1566
 3197 004c 04       		.uleb128 0x4
 3198 004d C7280000 		.4byte	.LASF1568
ARM GAS  /var/folders/z0/6xlwn_996xz3mwq1cgzkbq4r0000gp/T//ccBgBTlB.s 			page 77


 3199 0051 02       		.byte	0x2
 3200 0052 2B       		.byte	0x2b
 3201 0053 57000000 		.4byte	0x57
 3202 0057 03       		.uleb128 0x3
 3203 0058 02       		.byte	0x2
 3204 0059 07       		.byte	0x7
 3205 005a 0D6A0000 		.4byte	.LASF1567
 3206 005e 04       		.uleb128 0x4
 3207 005f 95980000 		.4byte	.LASF1569
 3208 0063 02       		.byte	0x2
 3209 0064 3F       		.byte	0x3f
 3210 0065 69000000 		.4byte	0x69
 3211 0069 03       		.uleb128 0x3
 3212 006a 04       		.byte	0x4
 3213 006b 05       		.byte	0x5
 3214 006c 49770000 		.4byte	.LASF1570
 3215 0070 04       		.uleb128 0x4
 3216 0071 57300000 		.4byte	.LASF1571
 3217 0075 02       		.byte	0x2
 3218 0076 41       		.byte	0x41
 3219 0077 7B000000 		.4byte	0x7b
 3220 007b 03       		.uleb128 0x3
 3221 007c 04       		.byte	0x4
 3222 007d 07       		.byte	0x7
 3223 007e 1D810000 		.4byte	.LASF1572
 3224 0082 03       		.uleb128 0x3
 3225 0083 08       		.byte	0x8
 3226 0084 05       		.byte	0x5
 3227 0085 88AD0000 		.4byte	.LASF1573
 3228 0089 03       		.uleb128 0x3
 3229 008a 08       		.byte	0x8
 3230 008b 07       		.byte	0x7
 3231 008c 32A20000 		.4byte	.LASF1574
 3232 0090 03       		.uleb128 0x3
 3233 0091 04       		.byte	0x4
 3234 0092 07       		.byte	0x7
 3235 0093 46680000 		.4byte	.LASF1575
 3236 0097 03       		.uleb128 0x3
 3237 0098 01       		.byte	0x1
 3238 0099 08       		.byte	0x8
 3239 009a 7F840000 		.4byte	.LASF714
 3240 009e 05       		.uleb128 0x5
 3241 009f 04       		.byte	0x4
 3242 00a0 A4000000 		.4byte	0xa4
 3243 00a4 06       		.uleb128 0x6
 3244 00a5 97000000 		.4byte	0x97
 3245 00a9 04       		.uleb128 0x4
 3246 00aa 8F0B0000 		.4byte	.LASF1576
 3247 00ae 03       		.byte	0x3
 3248 00af 24       		.byte	0x24
 3249 00b0 4C000000 		.4byte	0x4c
 3250 00b4 04       		.uleb128 0x4
 3251 00b5 C8150000 		.4byte	.LASF1577
 3252 00b9 03       		.byte	0x3
 3253 00ba 2C       		.byte	0x2c
 3254 00bb 5E000000 		.4byte	0x5e
 3255 00bf 04       		.uleb128 0x4
ARM GAS  /var/folders/z0/6xlwn_996xz3mwq1cgzkbq4r0000gp/T//ccBgBTlB.s 			page 78


 3256 00c0 867C0000 		.4byte	.LASF1578
 3257 00c4 03       		.byte	0x3
 3258 00c5 30       		.byte	0x30
 3259 00c6 70000000 		.4byte	0x70
 3260 00ca 05       		.uleb128 0x5
 3261 00cb 04       		.byte	0x4
 3262 00cc D0000000 		.4byte	0xd0
 3263 00d0 06       		.uleb128 0x6
 3264 00d1 9E000000 		.4byte	0x9e
 3265 00d5 07       		.uleb128 0x7
 3266 00d6 01       		.byte	0x1
 3267 00d7 3E000000 		.4byte	0x3e
 3268 00db 04       		.byte	0x4
 3269 00dc 1B       		.byte	0x1b
 3270 00dd 3C010000 		.4byte	0x13c
 3271 00e1 08       		.uleb128 0x8
 3272 00e2 028C0000 		.4byte	.LASF1579
 3273 00e6 0C       		.byte	0xc
 3274 00e7 08       		.uleb128 0x8
 3275 00e8 9F450000 		.4byte	.LASF1580
 3276 00ec 03       		.byte	0x3
 3277 00ed 08       		.uleb128 0x8
 3278 00ee 19260000 		.4byte	.LASF1581
 3279 00f2 0E       		.byte	0xe
 3280 00f3 08       		.uleb128 0x8
 3281 00f4 62AE0000 		.4byte	.LASF1582
 3282 00f8 02       		.byte	0x2
 3283 00f9 08       		.uleb128 0x8
 3284 00fa 151C0000 		.4byte	.LASF1583
 3285 00fe 01       		.byte	0x1
 3286 00ff 08       		.uleb128 0x8
 3287 0100 C7A70000 		.4byte	.LASF1584
 3288 0104 0D       		.byte	0xd
 3289 0105 08       		.uleb128 0x8
 3290 0106 544A0000 		.4byte	.LASF1585
 3291 010a 00       		.byte	0
 3292 010b 08       		.uleb128 0x8
 3293 010c C2530000 		.4byte	.LASF1586
 3294 0110 09       		.byte	0x9
 3295 0111 08       		.uleb128 0x8
 3296 0112 1C960000 		.4byte	.LASF1587
 3297 0116 06       		.byte	0x6
 3298 0117 08       		.uleb128 0x8
 3299 0118 AE260000 		.4byte	.LASF1588
 3300 011c 0A       		.byte	0xa
 3301 011d 08       		.uleb128 0x8
 3302 011e 86620000 		.4byte	.LASF1589
 3303 0122 05       		.byte	0x5
 3304 0123 08       		.uleb128 0x8
 3305 0124 1D630000 		.4byte	.LASF1590
 3306 0128 08       		.byte	0x8
 3307 0129 08       		.uleb128 0x8
 3308 012a 721A0000 		.4byte	.LASF1591
 3309 012e 0B       		.byte	0xb
 3310 012f 08       		.uleb128 0x8
 3311 0130 EC660000 		.4byte	.LASF1592
 3312 0134 07       		.byte	0x7
ARM GAS  /var/folders/z0/6xlwn_996xz3mwq1cgzkbq4r0000gp/T//ccBgBTlB.s 			page 79


 3313 0135 08       		.uleb128 0x8
 3314 0136 6A340000 		.4byte	.LASF1593
 3315 013a 04       		.byte	0x4
 3316 013b 00       		.byte	0
 3317 013c 04       		.uleb128 0x4
 3318 013d EDB50000 		.4byte	.LASF1594
 3319 0141 04       		.byte	0x4
 3320 0142 2B       		.byte	0x2b
 3321 0143 D5000000 		.4byte	0xd5
 3322 0147 03       		.uleb128 0x3
 3323 0148 01       		.byte	0x1
 3324 0149 02       		.byte	0x2
 3325 014a 4E060000 		.4byte	.LASF1595
 3326 014e 09       		.uleb128 0x9
 3327 014f 082D0000 		.4byte	.LASF1607
 3328 0153 0C       		.byte	0xc
 3329 0154 05       		.byte	0x5
 3330 0155 0A       		.byte	0xa
 3331 0156 7F010000 		.4byte	0x17f
 3332 015a 0A       		.uleb128 0xa
 3333 015b 64500000 		.4byte	.LASF1596
 3334 015f 05       		.byte	0x5
 3335 0160 0B       		.byte	0xb
 3336 0161 BF000000 		.4byte	0xbf
 3337 0165 00       		.byte	0
 3338 0166 0A       		.uleb128 0xa
 3339 0167 B6510000 		.4byte	.LASF1597
 3340 016b 05       		.byte	0x5
 3341 016c 0C       		.byte	0xc
 3342 016d BF000000 		.4byte	0xbf
 3343 0171 04       		.byte	0x4
 3344 0172 0A       		.uleb128 0xa
 3345 0173 CB790000 		.4byte	.LASF1598
 3346 0177 05       		.byte	0x5
 3347 0178 0D       		.byte	0xd
 3348 0179 BF000000 		.4byte	0xbf
 3349 017d 08       		.byte	0x8
 3350 017e 00       		.byte	0
 3351 017f 04       		.uleb128 0x4
 3352 0180 C0390000 		.4byte	.LASF1599
 3353 0184 05       		.byte	0x5
 3354 0185 0E       		.byte	0xe
 3355 0186 4E010000 		.4byte	0x14e
 3356 018a 07       		.uleb128 0x7
 3357 018b 01       		.byte	0x1
 3358 018c 3E000000 		.4byte	0x3e
 3359 0190 05       		.byte	0x5
 3360 0191 10       		.byte	0x10
 3361 0192 A9010000 		.4byte	0x1a9
 3362 0196 08       		.uleb128 0x8
 3363 0197 B8810000 		.4byte	.LASF1600
 3364 019b 00       		.byte	0
 3365 019c 08       		.uleb128 0x8
 3366 019d B3310000 		.4byte	.LASF1601
 3367 01a1 01       		.byte	0x1
 3368 01a2 08       		.uleb128 0x8
 3369 01a3 216B0000 		.4byte	.LASF1602
ARM GAS  /var/folders/z0/6xlwn_996xz3mwq1cgzkbq4r0000gp/T//ccBgBTlB.s 			page 80


 3370 01a7 02       		.byte	0x2
 3371 01a8 00       		.byte	0
 3372 01a9 04       		.uleb128 0x4
 3373 01aa D35B0000 		.4byte	.LASF1603
 3374 01ae 05       		.byte	0x5
 3375 01af 14       		.byte	0x14
 3376 01b0 8A010000 		.4byte	0x18a
 3377 01b4 07       		.uleb128 0x7
 3378 01b5 01       		.byte	0x1
 3379 01b6 3E000000 		.4byte	0x3e
 3380 01ba 05       		.byte	0x5
 3381 01bb 1C       		.byte	0x1c
 3382 01bc CD010000 		.4byte	0x1cd
 3383 01c0 08       		.uleb128 0x8
 3384 01c1 579A0000 		.4byte	.LASF1604
 3385 01c5 00       		.byte	0
 3386 01c6 08       		.uleb128 0x8
 3387 01c7 D95E0000 		.4byte	.LASF1605
 3388 01cb 01       		.byte	0x1
 3389 01cc 00       		.byte	0
 3390 01cd 04       		.uleb128 0x4
 3391 01ce 159C0000 		.4byte	.LASF1606
 3392 01d2 05       		.byte	0x5
 3393 01d3 1F       		.byte	0x1f
 3394 01d4 B4010000 		.4byte	0x1b4
 3395 01d8 09       		.uleb128 0x9
 3396 01d9 515C0000 		.4byte	.LASF1608
 3397 01dd 48       		.byte	0x48
 3398 01de 05       		.byte	0x5
 3399 01df 26       		.byte	0x26
 3400 01e0 C9020000 		.4byte	0x2c9
 3401 01e4 0A       		.uleb128 0xa
 3402 01e5 18B20000 		.4byte	.LASF1609
 3403 01e9 05       		.byte	0x5
 3404 01ea 27       		.byte	0x27
 3405 01eb BF000000 		.4byte	0xbf
 3406 01ef 00       		.byte	0
 3407 01f0 0A       		.uleb128 0xa
 3408 01f1 712F0000 		.4byte	.LASF1610
 3409 01f5 05       		.byte	0x5
 3410 01f6 28       		.byte	0x28
 3411 01f7 BF000000 		.4byte	0xbf
 3412 01fb 04       		.byte	0x4
 3413 01fc 0A       		.uleb128 0xa
 3414 01fd D21D0000 		.4byte	.LASF1611
 3415 0201 05       		.byte	0x5
 3416 0202 29       		.byte	0x29
 3417 0203 BF000000 		.4byte	0xbf
 3418 0207 08       		.byte	0x8
 3419 0208 0A       		.uleb128 0xa
 3420 0209 391C0000 		.4byte	.LASF1612
 3421 020d 05       		.byte	0x5
 3422 020e 2A       		.byte	0x2a
 3423 020f BF000000 		.4byte	0xbf
 3424 0213 0C       		.byte	0xc
 3425 0214 0A       		.uleb128 0xa
 3426 0215 C9960000 		.4byte	.LASF1613
ARM GAS  /var/folders/z0/6xlwn_996xz3mwq1cgzkbq4r0000gp/T//ccBgBTlB.s 			page 81


 3427 0219 05       		.byte	0x5
 3428 021a 2B       		.byte	0x2b
 3429 021b BF000000 		.4byte	0xbf
 3430 021f 10       		.byte	0x10
 3431 0220 0A       		.uleb128 0xa
 3432 0221 98210000 		.4byte	.LASF1614
 3433 0225 05       		.byte	0x5
 3434 0226 2C       		.byte	0x2c
 3435 0227 BF000000 		.4byte	0xbf
 3436 022b 14       		.byte	0x14
 3437 022c 0A       		.uleb128 0xa
 3438 022d BD300000 		.4byte	.LASF1615
 3439 0231 05       		.byte	0x5
 3440 0232 2D       		.byte	0x2d
 3441 0233 BF000000 		.4byte	0xbf
 3442 0237 18       		.byte	0x18
 3443 0238 0A       		.uleb128 0xa
 3444 0239 BC660000 		.4byte	.LASF1616
 3445 023d 05       		.byte	0x5
 3446 023e 2E       		.byte	0x2e
 3447 023f BF000000 		.4byte	0xbf
 3448 0243 1C       		.byte	0x1c
 3449 0244 0A       		.uleb128 0xa
 3450 0245 A6100000 		.4byte	.LASF1617
 3451 0249 05       		.byte	0x5
 3452 024a 2F       		.byte	0x2f
 3453 024b BF000000 		.4byte	0xbf
 3454 024f 20       		.byte	0x20
 3455 0250 0A       		.uleb128 0xa
 3456 0251 44130000 		.4byte	.LASF1618
 3457 0255 05       		.byte	0x5
 3458 0256 30       		.byte	0x30
 3459 0257 BF000000 		.4byte	0xbf
 3460 025b 24       		.byte	0x24
 3461 025c 0A       		.uleb128 0xa
 3462 025d 69240000 		.4byte	.LASF1619
 3463 0261 05       		.byte	0x5
 3464 0262 31       		.byte	0x31
 3465 0263 BF000000 		.4byte	0xbf
 3466 0267 28       		.byte	0x28
 3467 0268 0A       		.uleb128 0xa
 3468 0269 91530000 		.4byte	.LASF1620
 3469 026d 05       		.byte	0x5
 3470 026e 32       		.byte	0x32
 3471 026f BF000000 		.4byte	0xbf
 3472 0273 2C       		.byte	0x2c
 3473 0274 0A       		.uleb128 0xa
 3474 0275 99220000 		.4byte	.LASF1621
 3475 0279 05       		.byte	0x5
 3476 027a 33       		.byte	0x33
 3477 027b BF000000 		.4byte	0xbf
 3478 027f 30       		.byte	0x30
 3479 0280 0A       		.uleb128 0xa
 3480 0281 FE4E0000 		.4byte	.LASF1622
 3481 0285 05       		.byte	0x5
 3482 0286 34       		.byte	0x34
 3483 0287 BF000000 		.4byte	0xbf
ARM GAS  /var/folders/z0/6xlwn_996xz3mwq1cgzkbq4r0000gp/T//ccBgBTlB.s 			page 82


 3484 028b 34       		.byte	0x34
 3485 028c 0A       		.uleb128 0xa
 3486 028d A99E0000 		.4byte	.LASF1623
 3487 0291 05       		.byte	0x5
 3488 0292 35       		.byte	0x35
 3489 0293 BF000000 		.4byte	0xbf
 3490 0297 38       		.byte	0x38
 3491 0298 0A       		.uleb128 0xa
 3492 0299 86B40000 		.4byte	.LASF1624
 3493 029d 05       		.byte	0x5
 3494 029e 36       		.byte	0x36
 3495 029f BF000000 		.4byte	0xbf
 3496 02a3 3C       		.byte	0x3c
 3497 02a4 0A       		.uleb128 0xa
 3498 02a5 980B0000 		.4byte	.LASF1625
 3499 02a9 05       		.byte	0x5
 3500 02aa 37       		.byte	0x37
 3501 02ab BF000000 		.4byte	0xbf
 3502 02af 40       		.byte	0x40
 3503 02b0 0A       		.uleb128 0xa
 3504 02b1 724C0000 		.4byte	.LASF1626
 3505 02b5 05       		.byte	0x5
 3506 02b6 38       		.byte	0x38
 3507 02b7 CD010000 		.4byte	0x1cd
 3508 02bb 44       		.byte	0x44
 3509 02bc 0A       		.uleb128 0xa
 3510 02bd 50A40000 		.4byte	.LASF1627
 3511 02c1 05       		.byte	0x5
 3512 02c2 39       		.byte	0x39
 3513 02c3 A9010000 		.4byte	0x1a9
 3514 02c7 45       		.byte	0x45
 3515 02c8 00       		.byte	0
 3516 02c9 04       		.uleb128 0x4
 3517 02ca 598A0000 		.4byte	.LASF1628
 3518 02ce 05       		.byte	0x5
 3519 02cf 3A       		.byte	0x3a
 3520 02d0 D8010000 		.4byte	0x1d8
 3521 02d4 09       		.uleb128 0x9
 3522 02d5 6A4B0000 		.4byte	.LASF1629
 3523 02d9 0C       		.byte	0xc
 3524 02da 05       		.byte	0x5
 3525 02db 3C       		.byte	0x3c
 3526 02dc 4D030000 		.4byte	0x34d
 3527 02e0 0A       		.uleb128 0xa
 3528 02e1 43A90000 		.4byte	.LASF1630
 3529 02e5 05       		.byte	0x5
 3530 02e6 3D       		.byte	0x3d
 3531 02e7 A9000000 		.4byte	0xa9
 3532 02eb 00       		.byte	0
 3533 02ec 0A       		.uleb128 0xa
 3534 02ed 2A750000 		.4byte	.LASF1631
 3535 02f1 05       		.byte	0x5
 3536 02f2 3E       		.byte	0x3e
 3537 02f3 A9000000 		.4byte	0xa9
 3538 02f7 02       		.byte	0x2
 3539 02f8 0A       		.uleb128 0xa
 3540 02f9 1D5F0000 		.4byte	.LASF1632
ARM GAS  /var/folders/z0/6xlwn_996xz3mwq1cgzkbq4r0000gp/T//ccBgBTlB.s 			page 83


 3541 02fd 05       		.byte	0x5
 3542 02fe 3F       		.byte	0x3f
 3543 02ff 47010000 		.4byte	0x147
 3544 0303 04       		.byte	0x4
 3545 0304 0A       		.uleb128 0xa
 3546 0305 EC010000 		.4byte	.LASF1633
 3547 0309 05       		.byte	0x5
 3548 030a 40       		.byte	0x40
 3549 030b 47010000 		.4byte	0x147
 3550 030f 05       		.byte	0x5
 3551 0310 0A       		.uleb128 0xa
 3552 0311 00000000 		.4byte	.LASF1634
 3553 0315 05       		.byte	0x5
 3554 0316 41       		.byte	0x41
 3555 0317 47010000 		.4byte	0x147
 3556 031b 06       		.byte	0x6
 3557 031c 0A       		.uleb128 0xa
 3558 031d C4270000 		.4byte	.LASF1635
 3559 0321 05       		.byte	0x5
 3560 0322 42       		.byte	0x42
 3561 0323 47010000 		.4byte	0x147
 3562 0327 07       		.byte	0x7
 3563 0328 0A       		.uleb128 0xa
 3564 0329 E2AC0000 		.4byte	.LASF1636
 3565 032d 05       		.byte	0x5
 3566 032e 43       		.byte	0x43
 3567 032f 47010000 		.4byte	0x147
 3568 0333 08       		.byte	0x8
 3569 0334 0A       		.uleb128 0xa
 3570 0335 42B80000 		.4byte	.LASF1637
 3571 0339 05       		.byte	0x5
 3572 033a 44       		.byte	0x44
 3573 033b 47010000 		.4byte	0x147
 3574 033f 09       		.byte	0x9
 3575 0340 0A       		.uleb128 0xa
 3576 0341 5D0E0000 		.4byte	.LASF1638
 3577 0345 05       		.byte	0x5
 3578 0346 45       		.byte	0x45
 3579 0347 47010000 		.4byte	0x147
 3580 034b 0A       		.byte	0xa
 3581 034c 00       		.byte	0
 3582 034d 04       		.uleb128 0x4
 3583 034e 258D0000 		.4byte	.LASF1639
 3584 0352 05       		.byte	0x5
 3585 0353 46       		.byte	0x46
 3586 0354 D4020000 		.4byte	0x2d4
 3587 0358 0B       		.uleb128 0xb
 3588 0359 17410000 		.4byte	.LASF1794
 3589 035d 01       		.byte	0x1
 3590 035e 3E000000 		.4byte	0x3e
 3591 0362 05       		.byte	0x5
 3592 0363 48       		.byte	0x48
 3593 0364 81030000 		.4byte	0x381
 3594 0368 08       		.uleb128 0x8
 3595 0369 135B0000 		.4byte	.LASF1640
 3596 036d 00       		.byte	0
 3597 036e 08       		.uleb128 0x8
ARM GAS  /var/folders/z0/6xlwn_996xz3mwq1cgzkbq4r0000gp/T//ccBgBTlB.s 			page 84


 3598 036f B76A0000 		.4byte	.LASF1641
 3599 0373 01       		.byte	0x1
 3600 0374 08       		.uleb128 0x8
 3601 0375 4E720000 		.4byte	.LASF1642
 3602 0379 02       		.byte	0x2
 3603 037a 08       		.uleb128 0x8
 3604 037b 67270000 		.4byte	.LASF1643
 3605 037f 03       		.byte	0x3
 3606 0380 00       		.byte	0
 3607 0381 04       		.uleb128 0x4
 3608 0382 1A680000 		.4byte	.LASF1644
 3609 0386 05       		.byte	0x5
 3610 0387 4D       		.byte	0x4d
 3611 0388 58030000 		.4byte	0x358
 3612 038c 07       		.uleb128 0x7
 3613 038d 01       		.byte	0x1
 3614 038e 3E000000 		.4byte	0x3e
 3615 0392 05       		.byte	0x5
 3616 0393 56       		.byte	0x56
 3617 0394 E1030000 		.4byte	0x3e1
 3618 0398 08       		.uleb128 0x8
 3619 0399 349B0000 		.4byte	.LASF1645
 3620 039d 00       		.byte	0
 3621 039e 08       		.uleb128 0x8
 3622 039f 82B60000 		.4byte	.LASF1646
 3623 03a3 01       		.byte	0x1
 3624 03a4 08       		.uleb128 0x8
 3625 03a5 D0760000 		.4byte	.LASF1647
 3626 03a9 02       		.byte	0x2
 3627 03aa 08       		.uleb128 0x8
 3628 03ab EA490000 		.4byte	.LASF1648
 3629 03af 03       		.byte	0x3
 3630 03b0 08       		.uleb128 0x8
 3631 03b1 B34E0000 		.4byte	.LASF1649
 3632 03b5 04       		.byte	0x4
 3633 03b6 08       		.uleb128 0x8
 3634 03b7 5C090000 		.4byte	.LASF1650
 3635 03bb 05       		.byte	0x5
 3636 03bc 08       		.uleb128 0x8
 3637 03bd F4780000 		.4byte	.LASF1651
 3638 03c1 06       		.byte	0x6
 3639 03c2 08       		.uleb128 0x8
 3640 03c3 03550000 		.4byte	.LASF1652
 3641 03c7 07       		.byte	0x7
 3642 03c8 08       		.uleb128 0x8
 3643 03c9 7C550000 		.4byte	.LASF1653
 3644 03cd 08       		.byte	0x8
 3645 03ce 08       		.uleb128 0x8
 3646 03cf A1590000 		.4byte	.LASF1654
 3647 03d3 09       		.byte	0x9
 3648 03d4 08       		.uleb128 0x8
 3649 03d5 E95A0000 		.4byte	.LASF1655
 3650 03d9 0A       		.byte	0xa
 3651 03da 08       		.uleb128 0x8
 3652 03db 91870000 		.4byte	.LASF1656
 3653 03df 0B       		.byte	0xb
 3654 03e0 00       		.byte	0
ARM GAS  /var/folders/z0/6xlwn_996xz3mwq1cgzkbq4r0000gp/T//ccBgBTlB.s 			page 85


 3655 03e1 04       		.uleb128 0x4
 3656 03e2 92A20000 		.4byte	.LASF1657
 3657 03e6 05       		.byte	0x5
 3658 03e7 63       		.byte	0x63
 3659 03e8 8C030000 		.4byte	0x38c
 3660 03ec 07       		.uleb128 0x7
 3661 03ed 01       		.byte	0x1
 3662 03ee 3E000000 		.4byte	0x3e
 3663 03f2 05       		.byte	0x5
 3664 03f3 74       		.byte	0x74
 3665 03f4 05040000 		.4byte	0x405
 3666 03f8 08       		.uleb128 0x8
 3667 03f9 C40A0000 		.4byte	.LASF1658
 3668 03fd 00       		.byte	0
 3669 03fe 08       		.uleb128 0x8
 3670 03ff ED9B0000 		.4byte	.LASF1659
 3671 0403 01       		.byte	0x1
 3672 0404 00       		.byte	0
 3673 0405 04       		.uleb128 0x4
 3674 0406 C0BA0000 		.4byte	.LASF1660
 3675 040a 05       		.byte	0x5
 3676 040b 77       		.byte	0x77
 3677 040c EC030000 		.4byte	0x3ec
 3678 0410 07       		.uleb128 0x7
 3679 0411 01       		.byte	0x1
 3680 0412 3E000000 		.4byte	0x3e
 3681 0416 05       		.byte	0x5
 3682 0417 7E       		.byte	0x7e
 3683 0418 29040000 		.4byte	0x429
 3684 041c 08       		.uleb128 0x8
 3685 041d AC230000 		.4byte	.LASF1661
 3686 0421 00       		.byte	0
 3687 0422 08       		.uleb128 0x8
 3688 0423 58280000 		.4byte	.LASF1662
 3689 0427 01       		.byte	0x1
 3690 0428 00       		.byte	0
 3691 0429 04       		.uleb128 0x4
 3692 042a BD4F0000 		.4byte	.LASF1663
 3693 042e 05       		.byte	0x5
 3694 042f 81       		.byte	0x81
 3695 0430 10040000 		.4byte	0x410
 3696 0434 09       		.uleb128 0x9
 3697 0435 A8880000 		.4byte	.LASF1664
 3698 0439 1C       		.byte	0x1c
 3699 043a 05       		.byte	0x5
 3700 043b 90       		.byte	0x90
 3701 043c DD040000 		.4byte	0x4dd
 3702 0440 0A       		.uleb128 0xa
 3703 0441 1E980000 		.4byte	.LASF1665
 3704 0445 05       		.byte	0x5
 3705 0446 91       		.byte	0x91
 3706 0447 DD040000 		.4byte	0x4dd
 3707 044b 00       		.byte	0
 3708 044c 0A       		.uleb128 0xa
 3709 044d DB090000 		.4byte	.LASF1666
 3710 0451 05       		.byte	0x5
 3711 0452 92       		.byte	0x92
ARM GAS  /var/folders/z0/6xlwn_996xz3mwq1cgzkbq4r0000gp/T//ccBgBTlB.s 			page 86


 3712 0453 E3040000 		.4byte	0x4e3
 3713 0457 04       		.byte	0x4
 3714 0458 0A       		.uleb128 0xa
 3715 0459 1D2F0000 		.4byte	.LASF1667
 3716 045d 05       		.byte	0x5
 3717 045e 93       		.byte	0x93
 3718 045f 81030000 		.4byte	0x381
 3719 0463 08       		.byte	0x8
 3720 0464 0A       		.uleb128 0xa
 3721 0465 CDB00000 		.4byte	.LASF1668
 3722 0469 05       		.byte	0x5
 3723 046a 94       		.byte	0x94
 3724 046b BF000000 		.4byte	0xbf
 3725 046f 0C       		.byte	0xc
 3726 0470 0A       		.uleb128 0xa
 3727 0471 D68D0000 		.4byte	.LASF1669
 3728 0475 05       		.byte	0x5
 3729 0476 95       		.byte	0x95
 3730 0477 BF000000 		.4byte	0xbf
 3731 047b 10       		.byte	0x10
 3732 047c 0A       		.uleb128 0xa
 3733 047d F6470000 		.4byte	.LASF1670
 3734 0481 05       		.byte	0x5
 3735 0482 96       		.byte	0x96
 3736 0483 47010000 		.4byte	0x147
 3737 0487 14       		.byte	0x14
 3738 0488 0A       		.uleb128 0xa
 3739 0489 60960000 		.4byte	.LASF1671
 3740 048d 05       		.byte	0x5
 3741 048e 97       		.byte	0x97
 3742 048f 47010000 		.4byte	0x147
 3743 0493 15       		.byte	0x15
 3744 0494 0A       		.uleb128 0xa
 3745 0495 89A80000 		.4byte	.LASF1672
 3746 0499 05       		.byte	0x5
 3747 049a 98       		.byte	0x98
 3748 049b 47010000 		.4byte	0x147
 3749 049f 16       		.byte	0x16
 3750 04a0 0A       		.uleb128 0xa
 3751 04a1 AD5A0000 		.4byte	.LASF1673
 3752 04a5 05       		.byte	0x5
 3753 04a6 99       		.byte	0x99
 3754 04a7 47010000 		.4byte	0x147
 3755 04ab 17       		.byte	0x17
 3756 04ac 0A       		.uleb128 0xa
 3757 04ad B9400000 		.4byte	.LASF1674
 3758 04b1 05       		.byte	0x5
 3759 04b2 9A       		.byte	0x9a
 3760 04b3 47010000 		.4byte	0x147
 3761 04b7 18       		.byte	0x18
 3762 04b8 0A       		.uleb128 0xa
 3763 04b9 7C7C0000 		.4byte	.LASF1675
 3764 04bd 05       		.byte	0x5
 3765 04be 9B       		.byte	0x9b
 3766 04bf 47010000 		.4byte	0x147
 3767 04c3 19       		.byte	0x19
 3768 04c4 0A       		.uleb128 0xa
ARM GAS  /var/folders/z0/6xlwn_996xz3mwq1cgzkbq4r0000gp/T//ccBgBTlB.s 			page 87


 3769 04c5 94030000 		.4byte	.LASF1676
 3770 04c9 05       		.byte	0x5
 3771 04ca 9C       		.byte	0x9c
 3772 04cb 47010000 		.4byte	0x147
 3773 04cf 1A       		.byte	0x1a
 3774 04d0 0A       		.uleb128 0xa
 3775 04d1 4E360000 		.4byte	.LASF1677
 3776 04d5 05       		.byte	0x5
 3777 04d6 9D       		.byte	0x9d
 3778 04d7 3C010000 		.4byte	0x13c
 3779 04db 1B       		.byte	0x1b
 3780 04dc 00       		.byte	0
 3781 04dd 05       		.uleb128 0x5
 3782 04de 04       		.byte	0x4
 3783 04df 7F010000 		.4byte	0x17f
 3784 04e3 05       		.uleb128 0x5
 3785 04e4 04       		.byte	0x4
 3786 04e5 4D030000 		.4byte	0x34d
 3787 04e9 04       		.uleb128 0x4
 3788 04ea DB6A0000 		.4byte	.LASF1678
 3789 04ee 05       		.byte	0x5
 3790 04ef 9E       		.byte	0x9e
 3791 04f0 34040000 		.4byte	0x434
 3792 04f4 09       		.uleb128 0x9
 3793 04f5 0B310000 		.4byte	.LASF1679
 3794 04f9 14       		.byte	0x14
 3795 04fa 05       		.byte	0x5
 3796 04fb A0       		.byte	0xa0
 3797 04fc 61050000 		.4byte	0x561
 3798 0500 0A       		.uleb128 0xa
 3799 0501 66BB0000 		.4byte	.LASF1680
 3800 0505 05       		.byte	0x5
 3801 0506 A1       		.byte	0xa1
 3802 0507 61050000 		.4byte	0x561
 3803 050b 00       		.byte	0
 3804 050c 0A       		.uleb128 0xa
 3805 050d F0340000 		.4byte	.LASF1681
 3806 0511 05       		.byte	0x5
 3807 0512 A2       		.byte	0xa2
 3808 0513 81030000 		.4byte	0x381
 3809 0517 04       		.byte	0x4
 3810 0518 0A       		.uleb128 0xa
 3811 0519 142B0000 		.4byte	.LASF1682
 3812 051d 05       		.byte	0x5
 3813 051e A5       		.byte	0xa5
 3814 051f 05040000 		.4byte	0x405
 3815 0523 05       		.byte	0x5
 3816 0524 0A       		.uleb128 0xa
 3817 0525 49370000 		.4byte	.LASF1683
 3818 0529 05       		.byte	0x5
 3819 052a A6       		.byte	0xa6
 3820 052b E1030000 		.4byte	0x3e1
 3821 052f 06       		.byte	0x6
 3822 0530 0A       		.uleb128 0xa
 3823 0531 7D7A0000 		.4byte	.LASF1684
 3824 0535 05       		.byte	0x5
 3825 0536 A7       		.byte	0xa7
ARM GAS  /var/folders/z0/6xlwn_996xz3mwq1cgzkbq4r0000gp/T//ccBgBTlB.s 			page 88


 3826 0537 29040000 		.4byte	0x429
 3827 053b 07       		.byte	0x7
 3828 053c 0A       		.uleb128 0xa
 3829 053d B08C0000 		.4byte	.LASF1685
 3830 0541 05       		.byte	0x5
 3831 0542 A9       		.byte	0xa9
 3832 0543 BF000000 		.4byte	0xbf
 3833 0547 08       		.byte	0x8
 3834 0548 0A       		.uleb128 0xa
 3835 0549 8BB50000 		.4byte	.LASF1686
 3836 054d 05       		.byte	0x5
 3837 054e AA       		.byte	0xaa
 3838 054f 67050000 		.4byte	0x567
 3839 0553 0C       		.byte	0xc
 3840 0554 0A       		.uleb128 0xa
 3841 0555 04230000 		.4byte	.LASF1687
 3842 0559 05       		.byte	0x5
 3843 055a AB       		.byte	0xab
 3844 055b 6D050000 		.4byte	0x56d
 3845 055f 10       		.byte	0x10
 3846 0560 00       		.byte	0
 3847 0561 05       		.uleb128 0x5
 3848 0562 04       		.byte	0x4
 3849 0563 C9020000 		.4byte	0x2c9
 3850 0567 05       		.uleb128 0x5
 3851 0568 04       		.byte	0x4
 3852 0569 BF000000 		.4byte	0xbf
 3853 056d 05       		.uleb128 0x5
 3854 056e 04       		.byte	0x4
 3855 056f 47010000 		.4byte	0x147
 3856 0573 04       		.uleb128 0x4
 3857 0574 C5A00000 		.4byte	.LASF1688
 3858 0578 05       		.byte	0x5
 3859 0579 AC       		.byte	0xac
 3860 057a F4040000 		.4byte	0x4f4
 3861 057e 07       		.uleb128 0x7
 3862 057f 01       		.byte	0x1
 3863 0580 3E000000 		.4byte	0x3e
 3864 0584 06       		.byte	0x6
 3865 0585 04       		.byte	0x4
 3866 0586 BB050000 		.4byte	0x5bb
 3867 058a 08       		.uleb128 0x8
 3868 058b 20850000 		.4byte	.LASF1689
 3869 058f 00       		.byte	0
 3870 0590 08       		.uleb128 0x8
 3871 0591 B7A20000 		.4byte	.LASF1690
 3872 0595 01       		.byte	0x1
 3873 0596 08       		.uleb128 0x8
 3874 0597 CC9F0000 		.4byte	.LASF1691
 3875 059b 02       		.byte	0x2
 3876 059c 08       		.uleb128 0x8
 3877 059d 79620000 		.4byte	.LASF1692
 3878 05a1 03       		.byte	0x3
 3879 05a2 08       		.uleb128 0x8
 3880 05a3 7B190000 		.4byte	.LASF1693
 3881 05a7 04       		.byte	0x4
 3882 05a8 08       		.uleb128 0x8
ARM GAS  /var/folders/z0/6xlwn_996xz3mwq1cgzkbq4r0000gp/T//ccBgBTlB.s 			page 89


 3883 05a9 549B0000 		.4byte	.LASF1694
 3884 05ad 05       		.byte	0x5
 3885 05ae 08       		.uleb128 0x8
 3886 05af E24E0000 		.4byte	.LASF1695
 3887 05b3 06       		.byte	0x6
 3888 05b4 08       		.uleb128 0x8
 3889 05b5 2CA30000 		.4byte	.LASF1696
 3890 05b9 07       		.byte	0x7
 3891 05ba 00       		.byte	0
 3892 05bb 04       		.uleb128 0x4
 3893 05bc 6A020000 		.4byte	.LASF1697
 3894 05c0 06       		.byte	0x6
 3895 05c1 0D       		.byte	0xd
 3896 05c2 7E050000 		.4byte	0x57e
 3897 05c6 07       		.uleb128 0x7
 3898 05c7 01       		.byte	0x1
 3899 05c8 3E000000 		.4byte	0x3e
 3900 05cc 06       		.byte	0x6
 3901 05cd 0F       		.byte	0xf
 3902 05ce 3F060000 		.4byte	0x63f
 3903 05d2 08       		.uleb128 0x8
 3904 05d3 15940000 		.4byte	.LASF1698
 3905 05d7 00       		.byte	0
 3906 05d8 08       		.uleb128 0x8
 3907 05d9 200F0000 		.4byte	.LASF1699
 3908 05dd 01       		.byte	0x1
 3909 05de 08       		.uleb128 0x8
 3910 05df FFB50000 		.4byte	.LASF1700
 3911 05e3 02       		.byte	0x2
 3912 05e4 08       		.uleb128 0x8
 3913 05e5 206A0000 		.4byte	.LASF1701
 3914 05e9 03       		.byte	0x3
 3915 05ea 08       		.uleb128 0x8
 3916 05eb 85810000 		.4byte	.LASF1702
 3917 05ef 04       		.byte	0x4
 3918 05f0 08       		.uleb128 0x8
 3919 05f1 6C0E0000 		.4byte	.LASF1703
 3920 05f5 05       		.byte	0x5
 3921 05f6 08       		.uleb128 0x8
 3922 05f7 2E2B0000 		.4byte	.LASF1704
 3923 05fb 06       		.byte	0x6
 3924 05fc 08       		.uleb128 0x8
 3925 05fd C3B10000 		.4byte	.LASF1705
 3926 0601 07       		.byte	0x7
 3927 0602 08       		.uleb128 0x8
 3928 0603 439B0000 		.4byte	.LASF1706
 3929 0607 08       		.byte	0x8
 3930 0608 08       		.uleb128 0x8
 3931 0609 80940000 		.4byte	.LASF1707
 3932 060d 09       		.byte	0x9
 3933 060e 08       		.uleb128 0x8
 3934 060f B54C0000 		.4byte	.LASF1708
 3935 0613 0A       		.byte	0xa
 3936 0614 08       		.uleb128 0x8
 3937 0615 F4300000 		.4byte	.LASF1709
 3938 0619 0B       		.byte	0xb
 3939 061a 08       		.uleb128 0x8
ARM GAS  /var/folders/z0/6xlwn_996xz3mwq1cgzkbq4r0000gp/T//ccBgBTlB.s 			page 90


 3940 061b BF340000 		.4byte	.LASF1710
 3941 061f 0C       		.byte	0xc
 3942 0620 08       		.uleb128 0x8
 3943 0621 80AB0000 		.4byte	.LASF1711
 3944 0625 0D       		.byte	0xd
 3945 0626 08       		.uleb128 0x8
 3946 0627 8C660000 		.4byte	.LASF1712
 3947 062b 0E       		.byte	0xe
 3948 062c 08       		.uleb128 0x8
 3949 062d EAB30000 		.4byte	.LASF1713
 3950 0631 0F       		.byte	0xf
 3951 0632 08       		.uleb128 0x8
 3952 0633 D75D0000 		.4byte	.LASF1714
 3953 0637 10       		.byte	0x10
 3954 0638 08       		.uleb128 0x8
 3955 0639 7C570000 		.4byte	.LASF1715
 3956 063d 11       		.byte	0x11
 3957 063e 00       		.byte	0
 3958 063f 04       		.uleb128 0x4
 3959 0640 BB2B0000 		.4byte	.LASF1716
 3960 0644 06       		.byte	0x6
 3961 0645 22       		.byte	0x22
 3962 0646 C6050000 		.4byte	0x5c6
 3963 064a 07       		.uleb128 0x7
 3964 064b 01       		.byte	0x1
 3965 064c 3E000000 		.4byte	0x3e
 3966 0650 06       		.byte	0x6
 3967 0651 26       		.byte	0x26
 3968 0652 87060000 		.4byte	0x687
 3969 0656 08       		.uleb128 0x8
 3970 0657 94A40000 		.4byte	.LASF1717
 3971 065b 11       		.byte	0x11
 3972 065c 08       		.uleb128 0x8
 3973 065d 38A30000 		.4byte	.LASF1718
 3974 0661 12       		.byte	0x12
 3975 0662 08       		.uleb128 0x8
 3976 0663 2A4A0000 		.4byte	.LASF1719
 3977 0667 13       		.byte	0x13
 3978 0668 08       		.uleb128 0x8
 3979 0669 98350000 		.4byte	.LASF1720
 3980 066d 14       		.byte	0x14
 3981 066e 08       		.uleb128 0x8
 3982 066f 0C110000 		.4byte	.LASF1721
 3983 0673 15       		.byte	0x15
 3984 0674 08       		.uleb128 0x8
 3985 0675 27150000 		.4byte	.LASF1722
 3986 0679 16       		.byte	0x16
 3987 067a 08       		.uleb128 0x8
 3988 067b 44BD0000 		.4byte	.LASF1723
 3989 067f 17       		.byte	0x17
 3990 0680 08       		.uleb128 0x8
 3991 0681 86530000 		.4byte	.LASF1724
 3992 0685 18       		.byte	0x18
 3993 0686 00       		.byte	0
 3994 0687 04       		.uleb128 0x4
 3995 0688 9A760000 		.4byte	.LASF1725
 3996 068c 06       		.byte	0x6
ARM GAS  /var/folders/z0/6xlwn_996xz3mwq1cgzkbq4r0000gp/T//ccBgBTlB.s 			page 91


 3997 068d 2F       		.byte	0x2f
 3998 068e 4A060000 		.4byte	0x64a
 3999 0692 07       		.uleb128 0x7
 4000 0693 01       		.byte	0x1
 4001 0694 3E000000 		.4byte	0x3e
 4002 0698 06       		.byte	0x6
 4003 0699 31       		.byte	0x31
 4004 069a B1060000 		.4byte	0x6b1
 4005 069e 08       		.uleb128 0x8
 4006 069f 7CB40000 		.4byte	.LASF1726
 4007 06a3 00       		.byte	0
 4008 06a4 08       		.uleb128 0x8
 4009 06a5 72B40000 		.4byte	.LASF1727
 4010 06a9 01       		.byte	0x1
 4011 06aa 08       		.uleb128 0x8
 4012 06ab F5560000 		.4byte	.LASF1728
 4013 06af 02       		.byte	0x2
 4014 06b0 00       		.byte	0
 4015 06b1 04       		.uleb128 0x4
 4016 06b2 A4B00000 		.4byte	.LASF1729
 4017 06b6 06       		.byte	0x6
 4018 06b7 35       		.byte	0x35
 4019 06b8 92060000 		.4byte	0x692
 4020 06bc 07       		.uleb128 0x7
 4021 06bd 01       		.byte	0x1
 4022 06be 3E000000 		.4byte	0x3e
 4023 06c2 06       		.byte	0x6
 4024 06c3 37       		.byte	0x37
 4025 06c4 DB060000 		.4byte	0x6db
 4026 06c8 08       		.uleb128 0x8
 4027 06c9 CB4C0000 		.4byte	.LASF1730
 4028 06cd 00       		.byte	0
 4029 06ce 08       		.uleb128 0x8
 4030 06cf DB8C0000 		.4byte	.LASF1731
 4031 06d3 01       		.byte	0x1
 4032 06d4 08       		.uleb128 0x8
 4033 06d5 FF1B0000 		.4byte	.LASF1732
 4034 06d9 02       		.byte	0x2
 4035 06da 00       		.byte	0
 4036 06db 04       		.uleb128 0x4
 4037 06dc 6D5B0000 		.4byte	.LASF1733
 4038 06e0 06       		.byte	0x6
 4039 06e1 3B       		.byte	0x3b
 4040 06e2 BC060000 		.4byte	0x6bc
 4041 06e6 04       		.uleb128 0x4
 4042 06e7 EE310000 		.4byte	.LASF1734
 4043 06eb 07       		.byte	0x7
 4044 06ec 48       		.byte	0x48
 4045 06ed 02070000 		.4byte	0x702
 4046 06f1 05       		.uleb128 0x5
 4047 06f2 04       		.byte	0x4
 4048 06f3 F7060000 		.4byte	0x6f7
 4049 06f7 0C       		.uleb128 0xc
 4050 06f8 02070000 		.4byte	0x702
 4051 06fc 0D       		.uleb128 0xd
 4052 06fd CA000000 		.4byte	0xca
 4053 0701 00       		.byte	0
ARM GAS  /var/folders/z0/6xlwn_996xz3mwq1cgzkbq4r0000gp/T//ccBgBTlB.s 			page 92


 4054 0702 06       		.uleb128 0x6
 4055 0703 F1060000 		.4byte	0x6f1
 4056 0707 0E       		.uleb128 0xe
 4057 0708 0C       		.byte	0xc
 4058 0709 07       		.byte	0x7
 4059 070a 4A       		.byte	0x4a
 4060 070b 64070000 		.4byte	0x764
 4061 070f 0A       		.uleb128 0xa
 4062 0710 E7830000 		.4byte	.LASF1735
 4063 0714 07       		.byte	0x7
 4064 0715 4B       		.byte	0x4b
 4065 0716 47010000 		.4byte	0x147
 4066 071a 00       		.byte	0
 4067 071b 0A       		.uleb128 0xa
 4068 071c 07860000 		.4byte	.LASF1736
 4069 0720 07       		.byte	0x7
 4070 0721 4C       		.byte	0x4c
 4071 0722 47010000 		.4byte	0x147
 4072 0726 01       		.byte	0x1
 4073 0727 0A       		.uleb128 0xa
 4074 0728 1D2F0000 		.4byte	.LASF1667
 4075 072c 07       		.byte	0x7
 4076 072d 4D       		.byte	0x4d
 4077 072e 81030000 		.4byte	0x381
 4078 0732 02       		.byte	0x2
 4079 0733 0A       		.uleb128 0xa
 4080 0734 CDB00000 		.4byte	.LASF1668
 4081 0738 07       		.byte	0x7
 4082 0739 4E       		.byte	0x4e
 4083 073a BF000000 		.4byte	0xbf
 4084 073e 04       		.byte	0x4
 4085 073f 0A       		.uleb128 0xa
 4086 0740 476F0000 		.4byte	.LASF1737
 4087 0744 07       		.byte	0x7
 4088 0745 4F       		.byte	0x4f
 4089 0746 47010000 		.4byte	0x147
 4090 074a 08       		.byte	0x8
 4091 074b 0A       		.uleb128 0xa
 4092 074c A5370000 		.4byte	.LASF1738
 4093 0750 07       		.byte	0x7
 4094 0751 50       		.byte	0x50
 4095 0752 47010000 		.4byte	0x147
 4096 0756 09       		.byte	0x9
 4097 0757 0A       		.uleb128 0xa
 4098 0758 A9920000 		.4byte	.LASF1739
 4099 075c 07       		.byte	0x7
 4100 075d 51       		.byte	0x51
 4101 075e 47010000 		.4byte	0x147
 4102 0762 0A       		.byte	0xa
 4103 0763 00       		.byte	0
 4104 0764 04       		.uleb128 0x4
 4105 0765 33BD0000 		.4byte	.LASF1740
 4106 0769 07       		.byte	0x7
 4107 076a 52       		.byte	0x52
 4108 076b 07070000 		.4byte	0x707
 4109 076f 06       		.uleb128 0x6
 4110 0770 BF000000 		.4byte	0xbf
ARM GAS  /var/folders/z0/6xlwn_996xz3mwq1cgzkbq4r0000gp/T//ccBgBTlB.s 			page 93


 4111 0774 0F       		.uleb128 0xf
 4112 0775 B4740000 		.4byte	.LASF1743
 4113 0779 01       		.byte	0x1
 4114 077a 6001     		.2byte	0x160
 4115 077c 01       		.byte	0x1
 4116 077d A6070000 		.4byte	0x7a6
 4117 0781 10       		.uleb128 0x10
 4118 0782 E5970000 		.4byte	.LASF1745
 4119 0786 01       		.byte	0x1
 4120 0787 6001     		.2byte	0x160
 4121 0789 CA000000 		.4byte	0xca
 4122 078d 11       		.uleb128 0x11
 4123 078e 40140000 		.4byte	.LASF1741
 4124 0792 01       		.byte	0x1
 4125 0793 6101     		.2byte	0x161
 4126 0795 47010000 		.4byte	0x147
 4127 0799 11       		.uleb128 0x11
 4128 079a 5CA20000 		.4byte	.LASF1742
 4129 079e 01       		.byte	0x1
 4130 079f 6201     		.2byte	0x162
 4131 07a1 B1060000 		.4byte	0x6b1
 4132 07a5 00       		.byte	0
 4133 07a6 0F       		.uleb128 0xf
 4134 07a7 92BB0000 		.4byte	.LASF1744
 4135 07ab 01       		.byte	0x1
 4136 07ac 4501     		.2byte	0x145
 4137 07ae 01       		.byte	0x1
 4138 07af D8070000 		.4byte	0x7d8
 4139 07b3 10       		.uleb128 0x10
 4140 07b4 E5970000 		.4byte	.LASF1745
 4141 07b8 01       		.byte	0x1
 4142 07b9 4501     		.2byte	0x145
 4143 07bb CA000000 		.4byte	0xca
 4144 07bf 11       		.uleb128 0x11
 4145 07c0 0A2E0000 		.4byte	.LASF1746
 4146 07c4 01       		.byte	0x1
 4147 07c5 4601     		.2byte	0x146
 4148 07c7 BB050000 		.4byte	0x5bb
 4149 07cb 12       		.uleb128 0x12
 4150 07cc 13       		.uleb128 0x13
 4151 07cd 6900     		.ascii	"i\000"
 4152 07cf 01       		.byte	0x1
 4153 07d0 5301     		.2byte	0x153
 4154 07d2 3F060000 		.4byte	0x63f
 4155 07d6 00       		.byte	0
 4156 07d7 00       		.byte	0
 4157 07d8 14       		.uleb128 0x14
 4158 07d9 1A7F0000 		.4byte	.LASF1795
 4159 07dd 01       		.byte	0x1
 4160 07de 13       		.byte	0x13
 4161 07df BF000000 		.4byte	0xbf
 4162 07e3 01       		.byte	0x1
 4163 07e4 08080000 		.4byte	0x808
 4164 07e8 15       		.uleb128 0x15
 4165 07e9 73747200 		.ascii	"str\000"
 4166 07ed 01       		.byte	0x1
 4167 07ee 13       		.byte	0x13
ARM GAS  /var/folders/z0/6xlwn_996xz3mwq1cgzkbq4r0000gp/T//ccBgBTlB.s 			page 94


 4168 07ef 9E000000 		.4byte	0x9e
 4169 07f3 16       		.uleb128 0x16
 4170 07f4 72657300 		.ascii	"res\000"
 4171 07f8 01       		.byte	0x1
 4172 07f9 14       		.byte	0x14
 4173 07fa BF000000 		.4byte	0xbf
 4174 07fe 16       		.uleb128 0x16
 4175 07ff 6900     		.ascii	"i\000"
 4176 0801 01       		.byte	0x1
 4177 0802 18       		.byte	0x18
 4178 0803 BF000000 		.4byte	0xbf
 4179 0807 00       		.byte	0
 4180 0808 17       		.uleb128 0x17
 4181 0809 62616C00 		.ascii	"bal\000"
 4182 080d 01       		.byte	0x1
 4183 080e 9E01     		.2byte	0x19e
 4184 0810 01       		.byte	0x1
 4185 0811 22080000 		.4byte	0x822
 4186 0815 10       		.uleb128 0x10
 4187 0816 E5970000 		.4byte	.LASF1745
 4188 081a 01       		.byte	0x1
 4189 081b 9E01     		.2byte	0x19e
 4190 081d CA000000 		.4byte	0xca
 4191 0821 00       		.byte	0
 4192 0822 18       		.uleb128 0x18
 4193 0823 885F0000 		.4byte	.LASF1747
 4194 0827 01       		.byte	0x1
 4195 0828 7B01     		.2byte	0x17b
 4196 082a 00000000 		.4byte	.LFB203
 4197 082e E4000000 		.4byte	.LFE203-.LFB203
 4198 0832 01       		.uleb128 0x1
 4199 0833 9C       		.byte	0x9c
 4200 0834 77090000 		.4byte	0x977
 4201 0838 19       		.uleb128 0x19
 4202 0839 E5970000 		.4byte	.LASF1745
 4203 083d 01       		.byte	0x1
 4204 083e 7B01     		.2byte	0x17b
 4205 0840 CA000000 		.4byte	0xca
 4206 0844 00000000 		.4byte	.LLST0
 4207 0848 1A       		.uleb128 0x1a
 4208 0849 0C000000 		.4byte	.LVL2
 4209 084d A11A0000 		.4byte	0x1aa1
 4210 0851 65080000 		.4byte	0x865
 4211 0855 1B       		.uleb128 0x1b
 4212 0856 01       		.uleb128 0x1
 4213 0857 50       		.byte	0x50
 4214 0858 02       		.uleb128 0x2
 4215 0859 74       		.byte	0x74
 4216 085a 00       		.sleb128 0
 4217 085b 1B       		.uleb128 0x1b
 4218 085c 01       		.uleb128 0x1
 4219 085d 51       		.byte	0x51
 4220 085e 05       		.uleb128 0x5
 4221 085f 03       		.byte	0x3
 4222 0860 00000000 		.4byte	.LC0
 4223 0864 00       		.byte	0
 4224 0865 1A       		.uleb128 0x1a
ARM GAS  /var/folders/z0/6xlwn_996xz3mwq1cgzkbq4r0000gp/T//ccBgBTlB.s 			page 95


 4225 0866 18000000 		.4byte	.LVL3
 4226 086a A11A0000 		.4byte	0x1aa1
 4227 086e 82080000 		.4byte	0x882
 4228 0872 1B       		.uleb128 0x1b
 4229 0873 01       		.uleb128 0x1
 4230 0874 50       		.byte	0x50
 4231 0875 02       		.uleb128 0x2
 4232 0876 74       		.byte	0x74
 4233 0877 00       		.sleb128 0
 4234 0878 1B       		.uleb128 0x1b
 4235 0879 01       		.uleb128 0x1
 4236 087a 51       		.byte	0x51
 4237 087b 05       		.uleb128 0x5
 4238 087c 03       		.byte	0x3
 4239 087d 10000000 		.4byte	.LC5
 4240 0881 00       		.byte	0
 4241 0882 1A       		.uleb128 0x1a
 4242 0883 24000000 		.4byte	.LVL4
 4243 0887 A11A0000 		.4byte	0x1aa1
 4244 088b 9F080000 		.4byte	0x89f
 4245 088f 1B       		.uleb128 0x1b
 4246 0890 01       		.uleb128 0x1
 4247 0891 50       		.byte	0x50
 4248 0892 02       		.uleb128 0x2
 4249 0893 74       		.byte	0x74
 4250 0894 00       		.sleb128 0
 4251 0895 1B       		.uleb128 0x1b
 4252 0896 01       		.uleb128 0x1
 4253 0897 51       		.byte	0x51
 4254 0898 05       		.uleb128 0x5
 4255 0899 03       		.byte	0x3
 4256 089a 24000000 		.4byte	.LC9
 4257 089e 00       		.byte	0
 4258 089f 1A       		.uleb128 0x1a
 4259 08a0 38000000 		.4byte	.LVL5
 4260 08a4 AC1A0000 		.4byte	0x1aac
 4261 08a8 B6080000 		.4byte	0x8b6
 4262 08ac 1B       		.uleb128 0x1b
 4263 08ad 01       		.uleb128 0x1
 4264 08ae 50       		.byte	0x50
 4265 08af 05       		.uleb128 0x5
 4266 08b0 03       		.byte	0x3
 4267 08b1 44000000 		.4byte	.LC13
 4268 08b5 00       		.byte	0
 4269 08b6 1A       		.uleb128 0x1a
 4270 08b7 46000000 		.4byte	.LVL6
 4271 08bb AC1A0000 		.4byte	0x1aac
 4272 08bf CD080000 		.4byte	0x8cd
 4273 08c3 1B       		.uleb128 0x1b
 4274 08c4 01       		.uleb128 0x1
 4275 08c5 50       		.byte	0x50
 4276 08c6 05       		.uleb128 0x5
 4277 08c7 03       		.byte	0x3
 4278 08c8 30000000 		.4byte	.LC11
 4279 08cc 00       		.byte	0
 4280 08cd 1A       		.uleb128 0x1a
 4281 08ce 50000000 		.4byte	.LVL7
ARM GAS  /var/folders/z0/6xlwn_996xz3mwq1cgzkbq4r0000gp/T//ccBgBTlB.s 			page 96


 4282 08d2 A11A0000 		.4byte	0x1aa1
 4283 08d6 EA080000 		.4byte	0x8ea
 4284 08da 1B       		.uleb128 0x1b
 4285 08db 01       		.uleb128 0x1
 4286 08dc 50       		.byte	0x50
 4287 08dd 02       		.uleb128 0x2
 4288 08de 74       		.byte	0x74
 4289 08df 00       		.sleb128 0
 4290 08e0 1B       		.uleb128 0x1b
 4291 08e1 01       		.uleb128 0x1
 4292 08e2 51       		.byte	0x51
 4293 08e3 05       		.uleb128 0x5
 4294 08e4 03       		.byte	0x3
 4295 08e5 58000000 		.4byte	.LC15
 4296 08e9 00       		.byte	0
 4297 08ea 1A       		.uleb128 0x1a
 4298 08eb 5C000000 		.4byte	.LVL8
 4299 08ef A11A0000 		.4byte	0x1aa1
 4300 08f3 07090000 		.4byte	0x907
 4301 08f7 1B       		.uleb128 0x1b
 4302 08f8 01       		.uleb128 0x1
 4303 08f9 50       		.byte	0x50
 4304 08fa 02       		.uleb128 0x2
 4305 08fb 74       		.byte	0x74
 4306 08fc 00       		.sleb128 0
 4307 08fd 1B       		.uleb128 0x1b
 4308 08fe 01       		.uleb128 0x1
 4309 08ff 51       		.byte	0x51
 4310 0900 05       		.uleb128 0x5
 4311 0901 03       		.byte	0x3
 4312 0902 64000000 		.4byte	.LC17
 4313 0906 00       		.byte	0
 4314 0907 1A       		.uleb128 0x1a
 4315 0908 7C000000 		.4byte	.LVL9
 4316 090c AC1A0000 		.4byte	0x1aac
 4317 0910 1E090000 		.4byte	0x91e
 4318 0914 1B       		.uleb128 0x1b
 4319 0915 01       		.uleb128 0x1
 4320 0916 50       		.byte	0x50
 4321 0917 05       		.uleb128 0x5
 4322 0918 03       		.byte	0x3
 4323 0919 04000000 		.4byte	.LC3
 4324 091d 00       		.byte	0
 4325 091e 1A       		.uleb128 0x1a
 4326 091f 84000000 		.4byte	.LVL10
 4327 0923 AC1A0000 		.4byte	0x1aac
 4328 0927 35090000 		.4byte	0x935
 4329 092b 1B       		.uleb128 0x1b
 4330 092c 01       		.uleb128 0x1
 4331 092d 50       		.byte	0x50
 4332 092e 05       		.uleb128 0x5
 4333 092f 03       		.byte	0x3
 4334 0930 30000000 		.4byte	.LC11
 4335 0934 00       		.byte	0
 4336 0935 1A       		.uleb128 0x1a
 4337 0936 92000000 		.4byte	.LVL11
 4338 093a AC1A0000 		.4byte	0x1aac
ARM GAS  /var/folders/z0/6xlwn_996xz3mwq1cgzkbq4r0000gp/T//ccBgBTlB.s 			page 97


 4339 093e 4C090000 		.4byte	0x94c
 4340 0942 1B       		.uleb128 0x1b
 4341 0943 01       		.uleb128 0x1
 4342 0944 50       		.byte	0x50
 4343 0945 05       		.uleb128 0x5
 4344 0946 03       		.byte	0x3
 4345 0947 44000000 		.4byte	.LC13
 4346 094b 00       		.byte	0
 4347 094c 1A       		.uleb128 0x1a
 4348 094d AE000000 		.4byte	.LVL12
 4349 0951 AC1A0000 		.4byte	0x1aac
 4350 0955 63090000 		.4byte	0x963
 4351 0959 1B       		.uleb128 0x1b
 4352 095a 01       		.uleb128 0x1
 4353 095b 50       		.byte	0x50
 4354 095c 05       		.uleb128 0x5
 4355 095d 03       		.byte	0x3
 4356 095e 14000000 		.4byte	.LC7
 4357 0962 00       		.byte	0
 4358 0963 1C       		.uleb128 0x1c
 4359 0964 B6000000 		.4byte	.LVL13
 4360 0968 AC1A0000 		.4byte	0x1aac
 4361 096c 1B       		.uleb128 0x1b
 4362 096d 01       		.uleb128 0x1
 4363 096e 50       		.byte	0x50
 4364 096f 05       		.uleb128 0x5
 4365 0970 03       		.byte	0x3
 4366 0971 70000000 		.4byte	.LC19
 4367 0975 00       		.byte	0
 4368 0976 00       		.byte	0
 4369 0977 1D       		.uleb128 0x1d
 4370 0978 73657400 		.ascii	"set\000"
 4371 097c 01       		.byte	0x1
 4372 097d C8       		.byte	0xc8
 4373 097e 00000000 		.4byte	.LFB200
 4374 0982 24040000 		.4byte	.LFE200-.LFB200
 4375 0986 01       		.uleb128 0x1
 4376 0987 9C       		.byte	0x9c
 4377 0988 890F0000 		.4byte	0xf89
 4378 098c 1E       		.uleb128 0x1e
 4379 098d E5970000 		.4byte	.LASF1745
 4380 0991 01       		.byte	0x1
 4381 0992 C8       		.byte	0xc8
 4382 0993 CA000000 		.4byte	0xca
 4383 0997 21000000 		.4byte	.LLST1
 4384 099b 1F       		.uleb128 0x1f
 4385 099c F8390000 		.4byte	.LASF1748
 4386 09a0 01       		.byte	0x1
 4387 09a1 CE       		.byte	0xce
 4388 09a2 3F060000 		.4byte	0x63f
 4389 09a6 2E030000 		.4byte	.LLST2
 4390 09aa 20       		.uleb128 0x20
 4391 09ab 40140000 		.4byte	.LASF1741
 4392 09af 01       		.byte	0x1
 4393 09b0 D0       		.byte	0xd0
 4394 09b1 47010000 		.4byte	0x147
 4395 09b5 01       		.byte	0x1
ARM GAS  /var/folders/z0/6xlwn_996xz3mwq1cgzkbq4r0000gp/T//ccBgBTlB.s 			page 98


 4396 09b6 1F       		.uleb128 0x1f
 4397 09b7 C8A90000 		.4byte	.LASF1749
 4398 09bb 01       		.byte	0x1
 4399 09bc D1       		.byte	0xd1
 4400 09bd 47010000 		.4byte	0x147
 4401 09c1 57030000 		.4byte	.LLST3
 4402 09c5 21       		.uleb128 0x21
 4403 09c6 00000000 		.4byte	.Ldebug_ranges0+0
 4404 09ca 190A0000 		.4byte	0xa19
 4405 09ce 11       		.uleb128 0x11
 4406 09cf 7BA00000 		.4byte	.LASF1750
 4407 09d3 01       		.byte	0x1
 4408 09d4 3901     		.2byte	0x139
 4409 09d6 87060000 		.4byte	0x687
 4410 09da 1A       		.uleb128 0x1a
 4411 09db 48000000 		.4byte	.LVL22
 4412 09df A11A0000 		.4byte	0x1aa1
 4413 09e3 EE090000 		.4byte	0x9ee
 4414 09e7 1B       		.uleb128 0x1b
 4415 09e8 01       		.uleb128 0x1
 4416 09e9 50       		.byte	0x50
 4417 09ea 02       		.uleb128 0x2
 4418 09eb 76       		.byte	0x76
 4419 09ec 00       		.sleb128 0
 4420 09ed 00       		.byte	0
 4421 09ee 1A       		.uleb128 0x1a
 4422 09ef 58000000 		.4byte	.LVL23
 4423 09f3 AC1A0000 		.4byte	0x1aac
 4424 09f7 050A0000 		.4byte	0xa05
 4425 09fb 1B       		.uleb128 0x1b
 4426 09fc 01       		.uleb128 0x1
 4427 09fd 50       		.byte	0x50
 4428 09fe 05       		.uleb128 0x5
 4429 09ff 03       		.byte	0x3
 4430 0a00 E4000000 		.4byte	.LC36
 4431 0a04 00       		.byte	0
 4432 0a05 1C       		.uleb128 0x1c
 4433 0a06 7A000000 		.4byte	.LVL31
 4434 0a0a AC1A0000 		.4byte	0x1aac
 4435 0a0e 1B       		.uleb128 0x1b
 4436 0a0f 01       		.uleb128 0x1
 4437 0a10 50       		.byte	0x50
 4438 0a11 05       		.uleb128 0x5
 4439 0a12 03       		.byte	0x3
 4440 0a13 C8000000 		.4byte	.LC34
 4441 0a17 00       		.byte	0
 4442 0a18 00       		.byte	0
 4443 0a19 22       		.uleb128 0x22
 4444 0a1a 7C000000 		.4byte	.LBB43
 4445 0a1e A8030000 		.4byte	.LBE43-.LBB43
 4446 0a22 610F0000 		.4byte	0xf61
 4447 0a26 23       		.uleb128 0x23
 4448 0a27 4D6A0000 		.4byte	.LASF1751
 4449 0a2b 01       		.byte	0x1
 4450 0a2c 1C01     		.2byte	0x11c
 4451 0a2e DB060000 		.4byte	0x6db
 4452 0a32 6B030000 		.4byte	.LLST4
ARM GAS  /var/folders/z0/6xlwn_996xz3mwq1cgzkbq4r0000gp/T//ccBgBTlB.s 			page 99


 4453 0a36 24       		.uleb128 0x24
 4454 0a37 D8070000 		.4byte	0x7d8
 4455 0a3b 82000000 		.4byte	.LBB44
 4456 0a3f 18000000 		.4byte	.Ldebug_ranges0+0x18
 4457 0a43 01       		.byte	0x1
 4458 0a44 1701     		.2byte	0x117
 4459 0a46 6C0A0000 		.4byte	0xa6c
 4460 0a4a 25       		.uleb128 0x25
 4461 0a4b E8070000 		.4byte	0x7e8
 4462 0a4f 97030000 		.4byte	.LLST5
 4463 0a53 26       		.uleb128 0x26
 4464 0a54 18000000 		.4byte	.Ldebug_ranges0+0x18
 4465 0a58 27       		.uleb128 0x27
 4466 0a59 F3070000 		.4byte	0x7f3
 4467 0a5d C1030000 		.4byte	.LLST6
 4468 0a61 27       		.uleb128 0x27
 4469 0a62 FE070000 		.4byte	0x7fe
 4470 0a66 F7030000 		.4byte	.LLST7
 4471 0a6a 00       		.byte	0
 4472 0a6b 00       		.byte	0
 4473 0a6c 28       		.uleb128 0x28
 4474 0a6d D8070000 		.4byte	0x7d8
 4475 0a71 B2000000 		.4byte	.LBB47
 4476 0a75 30000000 		.4byte	.Ldebug_ranges0+0x30
 4477 0a79 01       		.byte	0x1
 4478 0a7a DB       		.byte	0xdb
 4479 0a7b A10A0000 		.4byte	0xaa1
 4480 0a7f 25       		.uleb128 0x25
 4481 0a80 E8070000 		.4byte	0x7e8
 4482 0a84 3C040000 		.4byte	.LLST8
 4483 0a88 26       		.uleb128 0x26
 4484 0a89 30000000 		.4byte	.Ldebug_ranges0+0x30
 4485 0a8d 27       		.uleb128 0x27
 4486 0a8e F3070000 		.4byte	0x7f3
 4487 0a92 66040000 		.4byte	.LLST9
 4488 0a96 27       		.uleb128 0x27
 4489 0a97 FE070000 		.4byte	0x7fe
 4490 0a9b 9C040000 		.4byte	.LLST10
 4491 0a9f 00       		.byte	0
 4492 0aa0 00       		.byte	0
 4493 0aa1 28       		.uleb128 0x28
 4494 0aa2 D8070000 		.4byte	0x7d8
 4495 0aa6 E2000000 		.4byte	.LBB50
 4496 0aaa 48000000 		.4byte	.Ldebug_ranges0+0x48
 4497 0aae 01       		.byte	0x1
 4498 0aaf F7       		.byte	0xf7
 4499 0ab0 D60A0000 		.4byte	0xad6
 4500 0ab4 25       		.uleb128 0x25
 4501 0ab5 E8070000 		.4byte	0x7e8
 4502 0ab9 E1040000 		.4byte	.LLST11
 4503 0abd 26       		.uleb128 0x26
 4504 0abe 48000000 		.4byte	.Ldebug_ranges0+0x48
 4505 0ac2 27       		.uleb128 0x27
 4506 0ac3 F3070000 		.4byte	0x7f3
 4507 0ac7 0B050000 		.4byte	.LLST12
 4508 0acb 27       		.uleb128 0x27
 4509 0acc FE070000 		.4byte	0x7fe
ARM GAS  /var/folders/z0/6xlwn_996xz3mwq1cgzkbq4r0000gp/T//ccBgBTlB.s 			page 100


 4510 0ad0 41050000 		.4byte	.LLST13
 4511 0ad4 00       		.byte	0
 4512 0ad5 00       		.byte	0
 4513 0ad6 28       		.uleb128 0x28
 4514 0ad7 D8070000 		.4byte	0x7d8
 4515 0adb 12010000 		.4byte	.LBB53
 4516 0adf 60000000 		.4byte	.Ldebug_ranges0+0x60
 4517 0ae3 01       		.byte	0x1
 4518 0ae4 FB       		.byte	0xfb
 4519 0ae5 0B0B0000 		.4byte	0xb0b
 4520 0ae9 25       		.uleb128 0x25
 4521 0aea E8070000 		.4byte	0x7e8
 4522 0aee 86050000 		.4byte	.LLST14
 4523 0af2 26       		.uleb128 0x26
 4524 0af3 60000000 		.4byte	.Ldebug_ranges0+0x60
 4525 0af7 27       		.uleb128 0x27
 4526 0af8 F3070000 		.4byte	0x7f3
 4527 0afc B0050000 		.4byte	.LLST15
 4528 0b00 27       		.uleb128 0x27
 4529 0b01 FE070000 		.4byte	0x7fe
 4530 0b05 E6050000 		.4byte	.LLST16
 4531 0b09 00       		.byte	0
 4532 0b0a 00       		.byte	0
 4533 0b0b 28       		.uleb128 0x28
 4534 0b0c D8070000 		.4byte	0x7d8
 4535 0b10 42010000 		.4byte	.LBB56
 4536 0b14 78000000 		.4byte	.Ldebug_ranges0+0x78
 4537 0b18 01       		.byte	0x1
 4538 0b19 E7       		.byte	0xe7
 4539 0b1a 400B0000 		.4byte	0xb40
 4540 0b1e 25       		.uleb128 0x25
 4541 0b1f E8070000 		.4byte	0x7e8
 4542 0b23 2B060000 		.4byte	.LLST17
 4543 0b27 26       		.uleb128 0x26
 4544 0b28 78000000 		.4byte	.Ldebug_ranges0+0x78
 4545 0b2c 27       		.uleb128 0x27
 4546 0b2d F3070000 		.4byte	0x7f3
 4547 0b31 55060000 		.4byte	.LLST18
 4548 0b35 27       		.uleb128 0x27
 4549 0b36 FE070000 		.4byte	0x7fe
 4550 0b3a 8B060000 		.4byte	.LLST19
 4551 0b3e 00       		.byte	0
 4552 0b3f 00       		.byte	0
 4553 0b40 28       		.uleb128 0x28
 4554 0b41 D8070000 		.4byte	0x7d8
 4555 0b45 72010000 		.4byte	.LBB59
 4556 0b49 90000000 		.4byte	.Ldebug_ranges0+0x90
 4557 0b4d 01       		.byte	0x1
 4558 0b4e EB       		.byte	0xeb
 4559 0b4f 750B0000 		.4byte	0xb75
 4560 0b53 25       		.uleb128 0x25
 4561 0b54 E8070000 		.4byte	0x7e8
 4562 0b58 D0060000 		.4byte	.LLST20
 4563 0b5c 26       		.uleb128 0x26
 4564 0b5d 90000000 		.4byte	.Ldebug_ranges0+0x90
 4565 0b61 27       		.uleb128 0x27
 4566 0b62 F3070000 		.4byte	0x7f3
ARM GAS  /var/folders/z0/6xlwn_996xz3mwq1cgzkbq4r0000gp/T//ccBgBTlB.s 			page 101


 4567 0b66 FA060000 		.4byte	.LLST21
 4568 0b6a 27       		.uleb128 0x27
 4569 0b6b FE070000 		.4byte	0x7fe
 4570 0b6f 30070000 		.4byte	.LLST22
 4571 0b73 00       		.byte	0
 4572 0b74 00       		.byte	0
 4573 0b75 24       		.uleb128 0x24
 4574 0b76 D8070000 		.4byte	0x7d8
 4575 0b7a A2010000 		.4byte	.LBB62
 4576 0b7e A8000000 		.4byte	.Ldebug_ranges0+0xa8
 4577 0b82 01       		.byte	0x1
 4578 0b83 0701     		.2byte	0x107
 4579 0b85 AB0B0000 		.4byte	0xbab
 4580 0b89 25       		.uleb128 0x25
 4581 0b8a E8070000 		.4byte	0x7e8
 4582 0b8e 75070000 		.4byte	.LLST23
 4583 0b92 26       		.uleb128 0x26
 4584 0b93 A8000000 		.4byte	.Ldebug_ranges0+0xa8
 4585 0b97 27       		.uleb128 0x27
 4586 0b98 F3070000 		.4byte	0x7f3
 4587 0b9c 9F070000 		.4byte	.LLST24
 4588 0ba0 27       		.uleb128 0x27
 4589 0ba1 FE070000 		.4byte	0x7fe
 4590 0ba5 D5070000 		.4byte	.LLST25
 4591 0ba9 00       		.byte	0
 4592 0baa 00       		.byte	0
 4593 0bab 24       		.uleb128 0x24
 4594 0bac D8070000 		.4byte	0x7d8
 4595 0bb0 D2010000 		.4byte	.LBB65
 4596 0bb4 C0000000 		.4byte	.Ldebug_ranges0+0xc0
 4597 0bb8 01       		.byte	0x1
 4598 0bb9 0B01     		.2byte	0x10b
 4599 0bbb E10B0000 		.4byte	0xbe1
 4600 0bbf 25       		.uleb128 0x25
 4601 0bc0 E8070000 		.4byte	0x7e8
 4602 0bc4 1A080000 		.4byte	.LLST26
 4603 0bc8 26       		.uleb128 0x26
 4604 0bc9 C0000000 		.4byte	.Ldebug_ranges0+0xc0
 4605 0bcd 27       		.uleb128 0x27
 4606 0bce F3070000 		.4byte	0x7f3
 4607 0bd2 44080000 		.4byte	.LLST27
 4608 0bd6 27       		.uleb128 0x27
 4609 0bd7 FE070000 		.4byte	0x7fe
 4610 0bdb 7A080000 		.4byte	.LLST28
 4611 0bdf 00       		.byte	0
 4612 0be0 00       		.byte	0
 4613 0be1 28       		.uleb128 0x28
 4614 0be2 D8070000 		.4byte	0x7d8
 4615 0be6 02020000 		.4byte	.LBB68
 4616 0bea D8000000 		.4byte	.Ldebug_ranges0+0xd8
 4617 0bee 01       		.byte	0x1
 4618 0bef DF       		.byte	0xdf
 4619 0bf0 160C0000 		.4byte	0xc16
 4620 0bf4 25       		.uleb128 0x25
 4621 0bf5 E8070000 		.4byte	0x7e8
 4622 0bf9 BF080000 		.4byte	.LLST29
 4623 0bfd 26       		.uleb128 0x26
ARM GAS  /var/folders/z0/6xlwn_996xz3mwq1cgzkbq4r0000gp/T//ccBgBTlB.s 			page 102


 4624 0bfe D8000000 		.4byte	.Ldebug_ranges0+0xd8
 4625 0c02 27       		.uleb128 0x27
 4626 0c03 F3070000 		.4byte	0x7f3
 4627 0c07 E9080000 		.4byte	.LLST30
 4628 0c0b 27       		.uleb128 0x27
 4629 0c0c FE070000 		.4byte	0x7fe
 4630 0c10 1F090000 		.4byte	.LLST31
 4631 0c14 00       		.byte	0
 4632 0c15 00       		.byte	0
 4633 0c16 28       		.uleb128 0x28
 4634 0c17 D8070000 		.4byte	0x7d8
 4635 0c1b 32020000 		.4byte	.LBB71
 4636 0c1f F0000000 		.4byte	.Ldebug_ranges0+0xf0
 4637 0c23 01       		.byte	0x1
 4638 0c24 E3       		.byte	0xe3
 4639 0c25 4B0C0000 		.4byte	0xc4b
 4640 0c29 25       		.uleb128 0x25
 4641 0c2a E8070000 		.4byte	0x7e8
 4642 0c2e 64090000 		.4byte	.LLST32
 4643 0c32 26       		.uleb128 0x26
 4644 0c33 F0000000 		.4byte	.Ldebug_ranges0+0xf0
 4645 0c37 27       		.uleb128 0x27
 4646 0c38 F3070000 		.4byte	0x7f3
 4647 0c3c 8E090000 		.4byte	.LLST33
 4648 0c40 27       		.uleb128 0x27
 4649 0c41 FE070000 		.4byte	0x7fe
 4650 0c45 C4090000 		.4byte	.LLST34
 4651 0c49 00       		.byte	0
 4652 0c4a 00       		.byte	0
 4653 0c4b 28       		.uleb128 0x28
 4654 0c4c D8070000 		.4byte	0x7d8
 4655 0c50 62020000 		.4byte	.LBB74
 4656 0c54 08010000 		.4byte	.Ldebug_ranges0+0x108
 4657 0c58 01       		.byte	0x1
 4658 0c59 FF       		.byte	0xff
 4659 0c5a 800C0000 		.4byte	0xc80
 4660 0c5e 25       		.uleb128 0x25
 4661 0c5f E8070000 		.4byte	0x7e8
 4662 0c63 090A0000 		.4byte	.LLST35
 4663 0c67 26       		.uleb128 0x26
 4664 0c68 08010000 		.4byte	.Ldebug_ranges0+0x108
 4665 0c6c 27       		.uleb128 0x27
 4666 0c6d F3070000 		.4byte	0x7f3
 4667 0c71 330A0000 		.4byte	.LLST36
 4668 0c75 27       		.uleb128 0x27
 4669 0c76 FE070000 		.4byte	0x7fe
 4670 0c7a 690A0000 		.4byte	.LLST37
 4671 0c7e 00       		.byte	0
 4672 0c7f 00       		.byte	0
 4673 0c80 24       		.uleb128 0x24
 4674 0c81 D8070000 		.4byte	0x7d8
 4675 0c85 92020000 		.4byte	.LBB77
 4676 0c89 20010000 		.4byte	.Ldebug_ranges0+0x120
 4677 0c8d 01       		.byte	0x1
 4678 0c8e 0301     		.2byte	0x103
 4679 0c90 B60C0000 		.4byte	0xcb6
 4680 0c94 25       		.uleb128 0x25
ARM GAS  /var/folders/z0/6xlwn_996xz3mwq1cgzkbq4r0000gp/T//ccBgBTlB.s 			page 103


 4681 0c95 E8070000 		.4byte	0x7e8
 4682 0c99 AE0A0000 		.4byte	.LLST38
 4683 0c9d 26       		.uleb128 0x26
 4684 0c9e 20010000 		.4byte	.Ldebug_ranges0+0x120
 4685 0ca2 27       		.uleb128 0x27
 4686 0ca3 F3070000 		.4byte	0x7f3
 4687 0ca7 D80A0000 		.4byte	.LLST39
 4688 0cab 27       		.uleb128 0x27
 4689 0cac FE070000 		.4byte	0x7fe
 4690 0cb0 0E0B0000 		.4byte	.LLST40
 4691 0cb4 00       		.byte	0
 4692 0cb5 00       		.byte	0
 4693 0cb6 28       		.uleb128 0x28
 4694 0cb7 D8070000 		.4byte	0x7d8
 4695 0cbb C2020000 		.4byte	.LBB80
 4696 0cbf 38010000 		.4byte	.Ldebug_ranges0+0x138
 4697 0cc3 01       		.byte	0x1
 4698 0cc4 EF       		.byte	0xef
 4699 0cc5 EB0C0000 		.4byte	0xceb
 4700 0cc9 25       		.uleb128 0x25
 4701 0cca E8070000 		.4byte	0x7e8
 4702 0cce 530B0000 		.4byte	.LLST41
 4703 0cd2 26       		.uleb128 0x26
 4704 0cd3 38010000 		.4byte	.Ldebug_ranges0+0x138
 4705 0cd7 27       		.uleb128 0x27
 4706 0cd8 F3070000 		.4byte	0x7f3
 4707 0cdc 7D0B0000 		.4byte	.LLST42
 4708 0ce0 27       		.uleb128 0x27
 4709 0ce1 FE070000 		.4byte	0x7fe
 4710 0ce5 B30B0000 		.4byte	.LLST43
 4711 0ce9 00       		.byte	0
 4712 0cea 00       		.byte	0
 4713 0ceb 28       		.uleb128 0x28
 4714 0cec D8070000 		.4byte	0x7d8
 4715 0cf0 F2020000 		.4byte	.LBB83
 4716 0cf4 50010000 		.4byte	.Ldebug_ranges0+0x150
 4717 0cf8 01       		.byte	0x1
 4718 0cf9 F3       		.byte	0xf3
 4719 0cfa 200D0000 		.4byte	0xd20
 4720 0cfe 25       		.uleb128 0x25
 4721 0cff E8070000 		.4byte	0x7e8
 4722 0d03 F80B0000 		.4byte	.LLST44
 4723 0d07 26       		.uleb128 0x26
 4724 0d08 50010000 		.4byte	.Ldebug_ranges0+0x150
 4725 0d0c 27       		.uleb128 0x27
 4726 0d0d F3070000 		.4byte	0x7f3
 4727 0d11 220C0000 		.4byte	.LLST45
 4728 0d15 27       		.uleb128 0x27
 4729 0d16 FE070000 		.4byte	0x7fe
 4730 0d1a 580C0000 		.4byte	.LLST46
 4731 0d1e 00       		.byte	0
 4732 0d1f 00       		.byte	0
 4733 0d20 24       		.uleb128 0x24
 4734 0d21 D8070000 		.4byte	0x7d8
 4735 0d25 46030000 		.4byte	.LBB86
 4736 0d29 68010000 		.4byte	.Ldebug_ranges0+0x168
 4737 0d2d 01       		.byte	0x1
ARM GAS  /var/folders/z0/6xlwn_996xz3mwq1cgzkbq4r0000gp/T//ccBgBTlB.s 			page 104


 4738 0d2e 0F01     		.2byte	0x10f
 4739 0d30 560D0000 		.4byte	0xd56
 4740 0d34 25       		.uleb128 0x25
 4741 0d35 E8070000 		.4byte	0x7e8
 4742 0d39 9D0C0000 		.4byte	.LLST47
 4743 0d3d 26       		.uleb128 0x26
 4744 0d3e 68010000 		.4byte	.Ldebug_ranges0+0x168
 4745 0d42 27       		.uleb128 0x27
 4746 0d43 F3070000 		.4byte	0x7f3
 4747 0d47 C70C0000 		.4byte	.LLST48
 4748 0d4b 27       		.uleb128 0x27
 4749 0d4c FE070000 		.4byte	0x7fe
 4750 0d50 FD0C0000 		.4byte	.LLST49
 4751 0d54 00       		.byte	0
 4752 0d55 00       		.byte	0
 4753 0d56 24       		.uleb128 0x24
 4754 0d57 D8070000 		.4byte	0x7d8
 4755 0d5b 74030000 		.4byte	.LBB89
 4756 0d5f 80010000 		.4byte	.Ldebug_ranges0+0x180
 4757 0d63 01       		.byte	0x1
 4758 0d64 1301     		.2byte	0x113
 4759 0d66 8C0D0000 		.4byte	0xd8c
 4760 0d6a 25       		.uleb128 0x25
 4761 0d6b E8070000 		.4byte	0x7e8
 4762 0d6f 420D0000 		.4byte	.LLST50
 4763 0d73 26       		.uleb128 0x26
 4764 0d74 80010000 		.4byte	.Ldebug_ranges0+0x180
 4765 0d78 27       		.uleb128 0x27
 4766 0d79 F3070000 		.4byte	0x7f3
 4767 0d7d 6C0D0000 		.4byte	.LLST51
 4768 0d81 27       		.uleb128 0x27
 4769 0d82 FE070000 		.4byte	0x7fe
 4770 0d86 A20D0000 		.4byte	.LLST52
 4771 0d8a 00       		.byte	0
 4772 0d8b 00       		.byte	0
 4773 0d8c 1A       		.uleb128 0x1a
 4774 0d8d AA000000 		.4byte	.LVL40
 4775 0d91 AC1A0000 		.4byte	0x1aac
 4776 0d95 A30D0000 		.4byte	0xda3
 4777 0d99 1B       		.uleb128 0x1b
 4778 0d9a 01       		.uleb128 0x1
 4779 0d9b 50       		.byte	0x50
 4780 0d9c 05       		.uleb128 0x5
 4781 0d9d 03       		.byte	0x3
 4782 0d9e C0000000 		.4byte	.LC32
 4783 0da2 00       		.byte	0
 4784 0da3 1A       		.uleb128 0x1a
 4785 0da4 DA000000 		.4byte	.LVL49
 4786 0da8 AC1A0000 		.4byte	0x1aac
 4787 0dac BA0D0000 		.4byte	0xdba
 4788 0db0 1B       		.uleb128 0x1b
 4789 0db1 01       		.uleb128 0x1
 4790 0db2 50       		.byte	0x50
 4791 0db3 05       		.uleb128 0x5
 4792 0db4 03       		.byte	0x3
 4793 0db5 C0000000 		.4byte	.LC32
 4794 0db9 00       		.byte	0
ARM GAS  /var/folders/z0/6xlwn_996xz3mwq1cgzkbq4r0000gp/T//ccBgBTlB.s 			page 105


 4795 0dba 1A       		.uleb128 0x1a
 4796 0dbb 0A010000 		.4byte	.LVL58
 4797 0dbf AC1A0000 		.4byte	0x1aac
 4798 0dc3 D10D0000 		.4byte	0xdd1
 4799 0dc7 1B       		.uleb128 0x1b
 4800 0dc8 01       		.uleb128 0x1
 4801 0dc9 50       		.byte	0x50
 4802 0dca 05       		.uleb128 0x5
 4803 0dcb 03       		.byte	0x3
 4804 0dcc C0000000 		.4byte	.LC32
 4805 0dd0 00       		.byte	0
 4806 0dd1 1A       		.uleb128 0x1a
 4807 0dd2 3A010000 		.4byte	.LVL67
 4808 0dd6 AC1A0000 		.4byte	0x1aac
 4809 0dda E80D0000 		.4byte	0xde8
 4810 0dde 1B       		.uleb128 0x1b
 4811 0ddf 01       		.uleb128 0x1
 4812 0de0 50       		.byte	0x50
 4813 0de1 05       		.uleb128 0x5
 4814 0de2 03       		.byte	0x3
 4815 0de3 C0000000 		.4byte	.LC32
 4816 0de7 00       		.byte	0
 4817 0de8 1A       		.uleb128 0x1a
 4818 0de9 6A010000 		.4byte	.LVL76
 4819 0ded AC1A0000 		.4byte	0x1aac
 4820 0df1 FF0D0000 		.4byte	0xdff
 4821 0df5 1B       		.uleb128 0x1b
 4822 0df6 01       		.uleb128 0x1
 4823 0df7 50       		.byte	0x50
 4824 0df8 05       		.uleb128 0x5
 4825 0df9 03       		.byte	0x3
 4826 0dfa C0000000 		.4byte	.LC32
 4827 0dfe 00       		.byte	0
 4828 0dff 1A       		.uleb128 0x1a
 4829 0e00 9A010000 		.4byte	.LVL85
 4830 0e04 AC1A0000 		.4byte	0x1aac
 4831 0e08 160E0000 		.4byte	0xe16
 4832 0e0c 1B       		.uleb128 0x1b
 4833 0e0d 01       		.uleb128 0x1
 4834 0e0e 50       		.byte	0x50
 4835 0e0f 05       		.uleb128 0x5
 4836 0e10 03       		.byte	0x3
 4837 0e11 C0000000 		.4byte	.LC32
 4838 0e15 00       		.byte	0
 4839 0e16 1A       		.uleb128 0x1a
 4840 0e17 CA010000 		.4byte	.LVL94
 4841 0e1b AC1A0000 		.4byte	0x1aac
 4842 0e1f 2D0E0000 		.4byte	0xe2d
 4843 0e23 1B       		.uleb128 0x1b
 4844 0e24 01       		.uleb128 0x1
 4845 0e25 50       		.byte	0x50
 4846 0e26 05       		.uleb128 0x5
 4847 0e27 03       		.byte	0x3
 4848 0e28 C0000000 		.4byte	.LC32
 4849 0e2c 00       		.byte	0
 4850 0e2d 1A       		.uleb128 0x1a
 4851 0e2e FA010000 		.4byte	.LVL103
ARM GAS  /var/folders/z0/6xlwn_996xz3mwq1cgzkbq4r0000gp/T//ccBgBTlB.s 			page 106


 4852 0e32 AC1A0000 		.4byte	0x1aac
 4853 0e36 440E0000 		.4byte	0xe44
 4854 0e3a 1B       		.uleb128 0x1b
 4855 0e3b 01       		.uleb128 0x1
 4856 0e3c 50       		.byte	0x50
 4857 0e3d 05       		.uleb128 0x5
 4858 0e3e 03       		.byte	0x3
 4859 0e3f C0000000 		.4byte	.LC32
 4860 0e43 00       		.byte	0
 4861 0e44 1A       		.uleb128 0x1a
 4862 0e45 2A020000 		.4byte	.LVL112
 4863 0e49 AC1A0000 		.4byte	0x1aac
 4864 0e4d 5B0E0000 		.4byte	0xe5b
 4865 0e51 1B       		.uleb128 0x1b
 4866 0e52 01       		.uleb128 0x1
 4867 0e53 50       		.byte	0x50
 4868 0e54 05       		.uleb128 0x5
 4869 0e55 03       		.byte	0x3
 4870 0e56 C0000000 		.4byte	.LC32
 4871 0e5a 00       		.byte	0
 4872 0e5b 1A       		.uleb128 0x1a
 4873 0e5c 5A020000 		.4byte	.LVL121
 4874 0e60 AC1A0000 		.4byte	0x1aac
 4875 0e64 720E0000 		.4byte	0xe72
 4876 0e68 1B       		.uleb128 0x1b
 4877 0e69 01       		.uleb128 0x1
 4878 0e6a 50       		.byte	0x50
 4879 0e6b 05       		.uleb128 0x5
 4880 0e6c 03       		.byte	0x3
 4881 0e6d C0000000 		.4byte	.LC32
 4882 0e71 00       		.byte	0
 4883 0e72 1A       		.uleb128 0x1a
 4884 0e73 8A020000 		.4byte	.LVL130
 4885 0e77 AC1A0000 		.4byte	0x1aac
 4886 0e7b 890E0000 		.4byte	0xe89
 4887 0e7f 1B       		.uleb128 0x1b
 4888 0e80 01       		.uleb128 0x1
 4889 0e81 50       		.byte	0x50
 4890 0e82 05       		.uleb128 0x5
 4891 0e83 03       		.byte	0x3
 4892 0e84 C0000000 		.4byte	.LC32
 4893 0e88 00       		.byte	0
 4894 0e89 1A       		.uleb128 0x1a
 4895 0e8a BA020000 		.4byte	.LVL139
 4896 0e8e AC1A0000 		.4byte	0x1aac
 4897 0e92 A00E0000 		.4byte	0xea0
 4898 0e96 1B       		.uleb128 0x1b
 4899 0e97 01       		.uleb128 0x1
 4900 0e98 50       		.byte	0x50
 4901 0e99 05       		.uleb128 0x5
 4902 0e9a 03       		.byte	0x3
 4903 0e9b C0000000 		.4byte	.LC32
 4904 0e9f 00       		.byte	0
 4905 0ea0 1A       		.uleb128 0x1a
 4906 0ea1 EA020000 		.4byte	.LVL148
 4907 0ea5 AC1A0000 		.4byte	0x1aac
 4908 0ea9 B70E0000 		.4byte	0xeb7
ARM GAS  /var/folders/z0/6xlwn_996xz3mwq1cgzkbq4r0000gp/T//ccBgBTlB.s 			page 107


 4909 0ead 1B       		.uleb128 0x1b
 4910 0eae 01       		.uleb128 0x1
 4911 0eaf 50       		.byte	0x50
 4912 0eb0 05       		.uleb128 0x5
 4913 0eb1 03       		.byte	0x3
 4914 0eb2 C0000000 		.4byte	.LC32
 4915 0eb6 00       		.byte	0
 4916 0eb7 1A       		.uleb128 0x1a
 4917 0eb8 18030000 		.4byte	.LVL157
 4918 0ebc AC1A0000 		.4byte	0x1aac
 4919 0ec0 CE0E0000 		.4byte	0xece
 4920 0ec4 1B       		.uleb128 0x1b
 4921 0ec5 01       		.uleb128 0x1
 4922 0ec6 50       		.byte	0x50
 4923 0ec7 05       		.uleb128 0x5
 4924 0ec8 03       		.byte	0x3
 4925 0ec9 C0000000 		.4byte	.LC32
 4926 0ecd 00       		.byte	0
 4927 0ece 1A       		.uleb128 0x1a
 4928 0ecf 6C030000 		.4byte	.LVL166
 4929 0ed3 AC1A0000 		.4byte	0x1aac
 4930 0ed7 E50E0000 		.4byte	0xee5
 4931 0edb 1B       		.uleb128 0x1b
 4932 0edc 01       		.uleb128 0x1
 4933 0edd 50       		.byte	0x50
 4934 0ede 05       		.uleb128 0x5
 4935 0edf 03       		.byte	0x3
 4936 0ee0 C0000000 		.4byte	.LC32
 4937 0ee4 00       		.byte	0
 4938 0ee5 1A       		.uleb128 0x1a
 4939 0ee6 9A030000 		.4byte	.LVL175
 4940 0eea AC1A0000 		.4byte	0x1aac
 4941 0eee FC0E0000 		.4byte	0xefc
 4942 0ef2 1B       		.uleb128 0x1b
 4943 0ef3 01       		.uleb128 0x1
 4944 0ef4 50       		.byte	0x50
 4945 0ef5 05       		.uleb128 0x5
 4946 0ef6 03       		.byte	0x3
 4947 0ef7 C0000000 		.4byte	.LC32
 4948 0efb 00       		.byte	0
 4949 0efc 1A       		.uleb128 0x1a
 4950 0efd A8030000 		.4byte	.LVL177
 4951 0f01 A11A0000 		.4byte	0x1aa1
 4952 0f05 190F0000 		.4byte	0xf19
 4953 0f09 1B       		.uleb128 0x1b
 4954 0f0a 01       		.uleb128 0x1
 4955 0f0b 50       		.byte	0x50
 4956 0f0c 02       		.uleb128 0x2
 4957 0f0d 74       		.byte	0x74
 4958 0f0e 00       		.sleb128 0
 4959 0f0f 1B       		.uleb128 0x1b
 4960 0f10 01       		.uleb128 0x1
 4961 0f11 51       		.byte	0x51
 4962 0f12 05       		.uleb128 0x5
 4963 0f13 03       		.byte	0x3
 4964 0f14 F8000000 		.4byte	.LC39
 4965 0f18 00       		.byte	0
ARM GAS  /var/folders/z0/6xlwn_996xz3mwq1cgzkbq4r0000gp/T//ccBgBTlB.s 			page 108


 4966 0f19 1A       		.uleb128 0x1a
 4967 0f1a B4030000 		.4byte	.LVL179
 4968 0f1e A11A0000 		.4byte	0x1aa1
 4969 0f22 360F0000 		.4byte	0xf36
 4970 0f26 1B       		.uleb128 0x1b
 4971 0f27 01       		.uleb128 0x1
 4972 0f28 50       		.byte	0x50
 4973 0f29 02       		.uleb128 0x2
 4974 0f2a 74       		.byte	0x74
 4975 0f2b 00       		.sleb128 0
 4976 0f2c 1B       		.uleb128 0x1b
 4977 0f2d 01       		.uleb128 0x1
 4978 0f2e 51       		.byte	0x51
 4979 0f2f 05       		.uleb128 0x5
 4980 0f30 03       		.byte	0x3
 4981 0f31 FC000000 		.4byte	.LC41
 4982 0f35 00       		.byte	0
 4983 0f36 1A       		.uleb128 0x1a
 4984 0f37 C6030000 		.4byte	.LVL181
 4985 0f3b AC1A0000 		.4byte	0x1aac
 4986 0f3f 4D0F0000 		.4byte	0xf4d
 4987 0f43 1B       		.uleb128 0x1b
 4988 0f44 01       		.uleb128 0x1
 4989 0f45 50       		.byte	0x50
 4990 0f46 05       		.uleb128 0x5
 4991 0f47 03       		.byte	0x3
 4992 0f48 C0000000 		.4byte	.LC32
 4993 0f4c 00       		.byte	0
 4994 0f4d 1C       		.uleb128 0x1c
 4995 0f4e D6030000 		.4byte	.LVL183
 4996 0f52 AC1A0000 		.4byte	0x1aac
 4997 0f56 1B       		.uleb128 0x1b
 4998 0f57 01       		.uleb128 0x1
 4999 0f58 50       		.byte	0x50
 5000 0f59 05       		.uleb128 0x5
 5001 0f5a 03       		.byte	0x3
 5002 0f5b C0000000 		.4byte	.LC32
 5003 0f5f 00       		.byte	0
 5004 0f60 00       		.byte	0
 5005 0f61 1A       		.uleb128 0x1a
 5006 0f62 2A000000 		.4byte	.LVL17
 5007 0f66 A11A0000 		.4byte	0x1aa1
 5008 0f6a 750F0000 		.4byte	0xf75
 5009 0f6e 1B       		.uleb128 0x1b
 5010 0f6f 01       		.uleb128 0x1
 5011 0f70 50       		.byte	0x50
 5012 0f71 02       		.uleb128 0x2
 5013 0f72 76       		.byte	0x76
 5014 0f73 00       		.sleb128 0
 5015 0f74 00       		.byte	0
 5016 0f75 1C       		.uleb128 0x1c
 5017 0f76 60000000 		.4byte	.LVL26
 5018 0f7a AC1A0000 		.4byte	0x1aac
 5019 0f7e 1B       		.uleb128 0x1b
 5020 0f7f 01       		.uleb128 0x1
 5021 0f80 50       		.byte	0x50
 5022 0f81 05       		.uleb128 0x5
ARM GAS  /var/folders/z0/6xlwn_996xz3mwq1cgzkbq4r0000gp/T//ccBgBTlB.s 			page 109


 5023 0f82 03       		.byte	0x3
 5024 0f83 9C000000 		.4byte	.LC29
 5025 0f87 00       		.byte	0
 5026 0f88 00       		.byte	0
 5027 0f89 18       		.uleb128 0x18
 5028 0f8a E7B60000 		.4byte	.LASF1752
 5029 0f8e 01       		.byte	0x1
 5030 0f8f B001     		.2byte	0x1b0
 5031 0f91 00000000 		.4byte	.LFB205
 5032 0f95 58000000 		.4byte	.LFE205-.LFB205
 5033 0f99 01       		.uleb128 0x1
 5034 0f9a 9C       		.byte	0x9c
 5035 0f9b 04100000 		.4byte	0x1004
 5036 0f9f 19       		.uleb128 0x19
 5037 0fa0 E5970000 		.4byte	.LASF1745
 5038 0fa4 01       		.byte	0x1
 5039 0fa5 B001     		.2byte	0x1b0
 5040 0fa7 CA000000 		.4byte	0xca
 5041 0fab E70D0000 		.4byte	.LLST53
 5042 0faf 1A       		.uleb128 0x1a
 5043 0fb0 12000000 		.4byte	.LVL218
 5044 0fb4 B71A0000 		.4byte	0x1ab7
 5045 0fb8 C20F0000 		.4byte	0xfc2
 5046 0fbc 1B       		.uleb128 0x1b
 5047 0fbd 01       		.uleb128 0x1
 5048 0fbe 51       		.byte	0x51
 5049 0fbf 01       		.uleb128 0x1
 5050 0fc0 32       		.byte	0x32
 5051 0fc1 00       		.byte	0
 5052 0fc2 1A       		.uleb128 0x1a
 5053 0fc3 2E000000 		.4byte	.LVL219
 5054 0fc7 AC1A0000 		.4byte	0x1aac
 5055 0fcb D90F0000 		.4byte	0xfd9
 5056 0fcf 1B       		.uleb128 0x1b
 5057 0fd0 01       		.uleb128 0x1
 5058 0fd1 50       		.byte	0x50
 5059 0fd2 05       		.uleb128 0x5
 5060 0fd3 03       		.byte	0x3
 5061 0fd4 0C010000 		.4byte	.LC48
 5062 0fd8 00       		.byte	0
 5063 0fd9 1A       		.uleb128 0x1a
 5064 0fda 3A000000 		.4byte	.LVL220
 5065 0fde AC1A0000 		.4byte	0x1aac
 5066 0fe2 F00F0000 		.4byte	0xff0
 5067 0fe6 1B       		.uleb128 0x1b
 5068 0fe7 01       		.uleb128 0x1
 5069 0fe8 50       		.byte	0x50
 5070 0fe9 05       		.uleb128 0x5
 5071 0fea 03       		.byte	0x3
 5072 0feb 00010000 		.4byte	.LC46
 5073 0fef 00       		.byte	0
 5074 0ff0 1C       		.uleb128 0x1c
 5075 0ff1 42000000 		.4byte	.LVL221
 5076 0ff5 AC1A0000 		.4byte	0x1aac
 5077 0ff9 1B       		.uleb128 0x1b
 5078 0ffa 01       		.uleb128 0x1
 5079 0ffb 50       		.byte	0x50
ARM GAS  /var/folders/z0/6xlwn_996xz3mwq1cgzkbq4r0000gp/T//ccBgBTlB.s 			page 110


 5080 0ffc 05       		.uleb128 0x5
 5081 0ffd 03       		.byte	0x3
 5082 0ffe 14010000 		.4byte	.LC50
 5083 1002 00       		.byte	0
 5084 1003 00       		.byte	0
 5085 1004 1D       		.uleb128 0x1d
 5086 1005 67657400 		.ascii	"get\000"
 5087 1009 01       		.byte	0x1
 5088 100a 20       		.byte	0x20
 5089 100b 00000000 		.4byte	.LFB199
 5090 100f E0020000 		.4byte	.LFE199-.LFB199
 5091 1013 01       		.uleb128 0x1
 5092 1014 9C       		.byte	0x9c
 5093 1015 28130000 		.4byte	0x1328
 5094 1019 1E       		.uleb128 0x1e
 5095 101a E5970000 		.4byte	.LASF1745
 5096 101e 01       		.byte	0x1
 5097 101f 20       		.byte	0x20
 5098 1020 CA000000 		.4byte	0xca
 5099 1024 080E0000 		.4byte	.LLST54
 5100 1028 1F       		.uleb128 0x1f
 5101 1029 F8390000 		.4byte	.LASF1748
 5102 102d 01       		.byte	0x1
 5103 102e 21       		.byte	0x21
 5104 102f 3F060000 		.4byte	0x63f
 5105 1033 290E0000 		.4byte	.LLST55
 5106 1037 1F       		.uleb128 0x1f
 5107 1038 40140000 		.4byte	.LASF1741
 5108 103c 01       		.byte	0x1
 5109 103d 24       		.byte	0x24
 5110 103e 47010000 		.4byte	0x147
 5111 1042 5E0E0000 		.4byte	.LLST56
 5112 1046 21       		.uleb128 0x21
 5113 1047 98010000 		.4byte	.Ldebug_ranges0+0x198
 5114 104b C9120000 		.4byte	0x12c9
 5115 104f 1F       		.uleb128 0x1f
 5116 1050 7BA00000 		.4byte	.LASF1750
 5117 1054 01       		.byte	0x1
 5118 1055 79       		.byte	0x79
 5119 1056 87060000 		.4byte	0x687
 5120 105a 7E0E0000 		.4byte	.LLST57
 5121 105e 21       		.uleb128 0x21
 5122 105f A0010000 		.4byte	.Ldebug_ranges0+0x1a0
 5123 1063 A1120000 		.4byte	0x12a1
 5124 1067 29       		.uleb128 0x29
 5125 1068 DFB80000 		.4byte	.LASF1753
 5126 106c 01       		.byte	0x1
 5127 106d 81       		.byte	0x81
 5128 106e 28130000 		.4byte	0x1328
 5129 1072 02       		.uleb128 0x2
 5130 1073 91       		.byte	0x91
 5131 1074 54       		.sleb128 -44
 5132 1075 2A       		.uleb128 0x2a
 5133 1076 A6000000 		.4byte	.LVL240
 5134 107a AC1A0000 		.4byte	0x1aac
 5135 107e 2A       		.uleb128 0x2a
 5136 107f 72010000 		.4byte	.LVL242
ARM GAS  /var/folders/z0/6xlwn_996xz3mwq1cgzkbq4r0000gp/T//ccBgBTlB.s 			page 111


 5137 1083 AC1A0000 		.4byte	0x1aac
 5138 1087 2A       		.uleb128 0x2a
 5139 1088 80010000 		.4byte	.LVL243
 5140 108c AC1A0000 		.4byte	0x1aac
 5141 1090 2A       		.uleb128 0x2a
 5142 1091 8E010000 		.4byte	.LVL244
 5143 1095 AC1A0000 		.4byte	0x1aac
 5144 1099 1A       		.uleb128 0x1a
 5145 109a 9E010000 		.4byte	.LVL245
 5146 109e C21A0000 		.4byte	0x1ac2
 5147 10a2 B2100000 		.4byte	0x10b2
 5148 10a6 1B       		.uleb128 0x1b
 5149 10a7 01       		.uleb128 0x1
 5150 10a8 51       		.byte	0x51
 5151 10a9 02       		.uleb128 0x2
 5152 10aa 91       		.byte	0x91
 5153 10ab 54       		.sleb128 -44
 5154 10ac 1B       		.uleb128 0x1b
 5155 10ad 01       		.uleb128 0x1
 5156 10ae 52       		.byte	0x52
 5157 10af 01       		.uleb128 0x1
 5158 10b0 3A       		.byte	0x3a
 5159 10b1 00       		.byte	0
 5160 10b2 1A       		.uleb128 0x1a
 5161 10b3 A4010000 		.4byte	.LVL246
 5162 10b7 CD1A0000 		.4byte	0x1acd
 5163 10bb C9100000 		.4byte	0x10c9
 5164 10bf 1B       		.uleb128 0x1b
 5165 10c0 01       		.uleb128 0x1
 5166 10c1 50       		.byte	0x50
 5167 10c2 05       		.uleb128 0x5
 5168 10c3 03       		.byte	0x3
 5169 10c4 28010000 		.4byte	.LC62
 5170 10c8 00       		.byte	0
 5171 10c9 1A       		.uleb128 0x1a
 5172 10ca AA010000 		.4byte	.LVL247
 5173 10ce AC1A0000 		.4byte	0x1aac
 5174 10d2 DD100000 		.4byte	0x10dd
 5175 10d6 1B       		.uleb128 0x1b
 5176 10d7 01       		.uleb128 0x1
 5177 10d8 50       		.byte	0x50
 5178 10d9 02       		.uleb128 0x2
 5179 10da 91       		.byte	0x91
 5180 10db 54       		.sleb128 -44
 5181 10dc 00       		.byte	0
 5182 10dd 1A       		.uleb128 0x1a
 5183 10de B6010000 		.4byte	.LVL248
 5184 10e2 C21A0000 		.4byte	0x1ac2
 5185 10e6 F6100000 		.4byte	0x10f6
 5186 10ea 1B       		.uleb128 0x1b
 5187 10eb 01       		.uleb128 0x1
 5188 10ec 51       		.byte	0x51
 5189 10ed 02       		.uleb128 0x2
 5190 10ee 91       		.byte	0x91
 5191 10ef 54       		.sleb128 -44
 5192 10f0 1B       		.uleb128 0x1b
 5193 10f1 01       		.uleb128 0x1
ARM GAS  /var/folders/z0/6xlwn_996xz3mwq1cgzkbq4r0000gp/T//ccBgBTlB.s 			page 112


 5194 10f2 52       		.byte	0x52
 5195 10f3 01       		.uleb128 0x1
 5196 10f4 3A       		.byte	0x3a
 5197 10f5 00       		.byte	0
 5198 10f6 1A       		.uleb128 0x1a
 5199 10f7 BC010000 		.4byte	.LVL249
 5200 10fb CD1A0000 		.4byte	0x1acd
 5201 10ff 0D110000 		.4byte	0x110d
 5202 1103 1B       		.uleb128 0x1b
 5203 1104 01       		.uleb128 0x1
 5204 1105 50       		.byte	0x50
 5205 1106 05       		.uleb128 0x5
 5206 1107 03       		.byte	0x3
 5207 1108 44010000 		.4byte	.LC64
 5208 110c 00       		.byte	0
 5209 110d 1A       		.uleb128 0x1a
 5210 110e C2010000 		.4byte	.LVL250
 5211 1112 AC1A0000 		.4byte	0x1aac
 5212 1116 21110000 		.4byte	0x1121
 5213 111a 1B       		.uleb128 0x1b
 5214 111b 01       		.uleb128 0x1
 5215 111c 50       		.byte	0x50
 5216 111d 02       		.uleb128 0x2
 5217 111e 91       		.byte	0x91
 5218 111f 54       		.sleb128 -44
 5219 1120 00       		.byte	0
 5220 1121 1A       		.uleb128 0x1a
 5221 1122 CE010000 		.4byte	.LVL251
 5222 1126 C21A0000 		.4byte	0x1ac2
 5223 112a 3A110000 		.4byte	0x113a
 5224 112e 1B       		.uleb128 0x1b
 5225 112f 01       		.uleb128 0x1
 5226 1130 51       		.byte	0x51
 5227 1131 02       		.uleb128 0x2
 5228 1132 91       		.byte	0x91
 5229 1133 54       		.sleb128 -44
 5230 1134 1B       		.uleb128 0x1b
 5231 1135 01       		.uleb128 0x1
 5232 1136 52       		.byte	0x52
 5233 1137 01       		.uleb128 0x1
 5234 1138 3A       		.byte	0x3a
 5235 1139 00       		.byte	0
 5236 113a 1A       		.uleb128 0x1a
 5237 113b D4010000 		.4byte	.LVL252
 5238 113f CD1A0000 		.4byte	0x1acd
 5239 1143 51110000 		.4byte	0x1151
 5240 1147 1B       		.uleb128 0x1b
 5241 1148 01       		.uleb128 0x1
 5242 1149 50       		.byte	0x50
 5243 114a 05       		.uleb128 0x5
 5244 114b 03       		.byte	0x3
 5245 114c 50010000 		.4byte	.LC66
 5246 1150 00       		.byte	0
 5247 1151 1A       		.uleb128 0x1a
 5248 1152 DA010000 		.4byte	.LVL253
 5249 1156 AC1A0000 		.4byte	0x1aac
 5250 115a 65110000 		.4byte	0x1165
ARM GAS  /var/folders/z0/6xlwn_996xz3mwq1cgzkbq4r0000gp/T//ccBgBTlB.s 			page 113


 5251 115e 1B       		.uleb128 0x1b
 5252 115f 01       		.uleb128 0x1
 5253 1160 50       		.byte	0x50
 5254 1161 02       		.uleb128 0x2
 5255 1162 91       		.byte	0x91
 5256 1163 54       		.sleb128 -44
 5257 1164 00       		.byte	0
 5258 1165 1A       		.uleb128 0x1a
 5259 1166 E6010000 		.4byte	.LVL254
 5260 116a C21A0000 		.4byte	0x1ac2
 5261 116e 7E110000 		.4byte	0x117e
 5262 1172 1B       		.uleb128 0x1b
 5263 1173 01       		.uleb128 0x1
 5264 1174 51       		.byte	0x51
 5265 1175 02       		.uleb128 0x2
 5266 1176 91       		.byte	0x91
 5267 1177 54       		.sleb128 -44
 5268 1178 1B       		.uleb128 0x1b
 5269 1179 01       		.uleb128 0x1
 5270 117a 52       		.byte	0x52
 5271 117b 01       		.uleb128 0x1
 5272 117c 3A       		.byte	0x3a
 5273 117d 00       		.byte	0
 5274 117e 1A       		.uleb128 0x1a
 5275 117f EC010000 		.4byte	.LVL255
 5276 1183 CD1A0000 		.4byte	0x1acd
 5277 1187 95110000 		.4byte	0x1195
 5278 118b 1B       		.uleb128 0x1b
 5279 118c 01       		.uleb128 0x1
 5280 118d 50       		.byte	0x50
 5281 118e 05       		.uleb128 0x5
 5282 118f 03       		.byte	0x3
 5283 1190 64010000 		.4byte	.LC68
 5284 1194 00       		.byte	0
 5285 1195 1A       		.uleb128 0x1a
 5286 1196 F2010000 		.4byte	.LVL256
 5287 119a AC1A0000 		.4byte	0x1aac
 5288 119e A9110000 		.4byte	0x11a9
 5289 11a2 1B       		.uleb128 0x1b
 5290 11a3 01       		.uleb128 0x1
 5291 11a4 50       		.byte	0x50
 5292 11a5 02       		.uleb128 0x2
 5293 11a6 91       		.byte	0x91
 5294 11a7 54       		.sleb128 -44
 5295 11a8 00       		.byte	0
 5296 11a9 1A       		.uleb128 0x1a
 5297 11aa 06020000 		.4byte	.LVL257
 5298 11ae C21A0000 		.4byte	0x1ac2
 5299 11b2 C2110000 		.4byte	0x11c2
 5300 11b6 1B       		.uleb128 0x1b
 5301 11b7 01       		.uleb128 0x1
 5302 11b8 51       		.byte	0x51
 5303 11b9 02       		.uleb128 0x2
 5304 11ba 91       		.byte	0x91
 5305 11bb 54       		.sleb128 -44
 5306 11bc 1B       		.uleb128 0x1b
 5307 11bd 01       		.uleb128 0x1
ARM GAS  /var/folders/z0/6xlwn_996xz3mwq1cgzkbq4r0000gp/T//ccBgBTlB.s 			page 114


 5308 11be 52       		.byte	0x52
 5309 11bf 01       		.uleb128 0x1
 5310 11c0 3A       		.byte	0x3a
 5311 11c1 00       		.byte	0
 5312 11c2 1A       		.uleb128 0x1a
 5313 11c3 0C020000 		.4byte	.LVL258
 5314 11c7 CD1A0000 		.4byte	0x1acd
 5315 11cb D9110000 		.4byte	0x11d9
 5316 11cf 1B       		.uleb128 0x1b
 5317 11d0 01       		.uleb128 0x1
 5318 11d1 50       		.byte	0x50
 5319 11d2 05       		.uleb128 0x5
 5320 11d3 03       		.byte	0x3
 5321 11d4 7C010000 		.4byte	.LC72
 5322 11d8 00       		.byte	0
 5323 11d9 1A       		.uleb128 0x1a
 5324 11da 12020000 		.4byte	.LVL259
 5325 11de AC1A0000 		.4byte	0x1aac
 5326 11e2 ED110000 		.4byte	0x11ed
 5327 11e6 1B       		.uleb128 0x1b
 5328 11e7 01       		.uleb128 0x1
 5329 11e8 50       		.byte	0x50
 5330 11e9 02       		.uleb128 0x2
 5331 11ea 91       		.byte	0x91
 5332 11eb 54       		.sleb128 -44
 5333 11ec 00       		.byte	0
 5334 11ed 1A       		.uleb128 0x1a
 5335 11ee 44020000 		.4byte	.LVL260
 5336 11f2 AC1A0000 		.4byte	0x1aac
 5337 11f6 04120000 		.4byte	0x1204
 5338 11fa 1B       		.uleb128 0x1b
 5339 11fb 01       		.uleb128 0x1
 5340 11fc 50       		.byte	0x50
 5341 11fd 05       		.uleb128 0x5
 5342 11fe 03       		.byte	0x3
 5343 11ff 10020000 		.4byte	.LC82
 5344 1203 00       		.byte	0
 5345 1204 1A       		.uleb128 0x1a
 5346 1205 50020000 		.4byte	.LVL261
 5347 1209 C21A0000 		.4byte	0x1ac2
 5348 120d 1D120000 		.4byte	0x121d
 5349 1211 1B       		.uleb128 0x1b
 5350 1212 01       		.uleb128 0x1
 5351 1213 51       		.byte	0x51
 5352 1214 02       		.uleb128 0x2
 5353 1215 91       		.byte	0x91
 5354 1216 54       		.sleb128 -44
 5355 1217 1B       		.uleb128 0x1b
 5356 1218 01       		.uleb128 0x1
 5357 1219 52       		.byte	0x52
 5358 121a 01       		.uleb128 0x1
 5359 121b 3A       		.byte	0x3a
 5360 121c 00       		.byte	0
 5361 121d 1A       		.uleb128 0x1a
 5362 121e 56020000 		.4byte	.LVL262
 5363 1222 CD1A0000 		.4byte	0x1acd
 5364 1226 34120000 		.4byte	0x1234
ARM GAS  /var/folders/z0/6xlwn_996xz3mwq1cgzkbq4r0000gp/T//ccBgBTlB.s 			page 115


 5365 122a 1B       		.uleb128 0x1b
 5366 122b 01       		.uleb128 0x1
 5367 122c 50       		.byte	0x50
 5368 122d 05       		.uleb128 0x5
 5369 122e 03       		.byte	0x3
 5370 122f 70010000 		.4byte	.LC70
 5371 1233 00       		.byte	0
 5372 1234 1A       		.uleb128 0x1a
 5373 1235 5C020000 		.4byte	.LVL263
 5374 1239 AC1A0000 		.4byte	0x1aac
 5375 123d 48120000 		.4byte	0x1248
 5376 1241 1B       		.uleb128 0x1b
 5377 1242 01       		.uleb128 0x1
 5378 1243 50       		.byte	0x50
 5379 1244 02       		.uleb128 0x2
 5380 1245 91       		.byte	0x91
 5381 1246 54       		.sleb128 -44
 5382 1247 00       		.byte	0
 5383 1248 1A       		.uleb128 0x1a
 5384 1249 66020000 		.4byte	.LVL264
 5385 124d AC1A0000 		.4byte	0x1aac
 5386 1251 5F120000 		.4byte	0x125f
 5387 1255 1B       		.uleb128 0x1b
 5388 1256 01       		.uleb128 0x1
 5389 1257 50       		.byte	0x50
 5390 1258 05       		.uleb128 0x5
 5391 1259 03       		.byte	0x3
 5392 125a 88010000 		.4byte	.LC74
 5393 125e 00       		.byte	0
 5394 125f 1A       		.uleb128 0x1a
 5395 1260 6E020000 		.4byte	.LVL265
 5396 1264 AC1A0000 		.4byte	0x1aac
 5397 1268 76120000 		.4byte	0x1276
 5398 126c 1B       		.uleb128 0x1b
 5399 126d 01       		.uleb128 0x1
 5400 126e 50       		.byte	0x50
 5401 126f 05       		.uleb128 0x5
 5402 1270 03       		.byte	0x3
 5403 1271 A8010000 		.4byte	.LC76
 5404 1275 00       		.byte	0
 5405 1276 1A       		.uleb128 0x1a
 5406 1277 76020000 		.4byte	.LVL266
 5407 127b AC1A0000 		.4byte	0x1aac
 5408 127f 8D120000 		.4byte	0x128d
 5409 1283 1B       		.uleb128 0x1b
 5410 1284 01       		.uleb128 0x1
 5411 1285 50       		.byte	0x50
 5412 1286 05       		.uleb128 0x5
 5413 1287 03       		.byte	0x3
 5414 1288 C8010000 		.4byte	.LC78
 5415 128c 00       		.byte	0
 5416 128d 1C       		.uleb128 0x1c
 5417 128e 7E020000 		.4byte	.LVL267
 5418 1292 AC1A0000 		.4byte	0x1aac
 5419 1296 1B       		.uleb128 0x1b
 5420 1297 01       		.uleb128 0x1
 5421 1298 50       		.byte	0x50
ARM GAS  /var/folders/z0/6xlwn_996xz3mwq1cgzkbq4r0000gp/T//ccBgBTlB.s 			page 116


 5422 1299 05       		.uleb128 0x5
 5423 129a 03       		.byte	0x3
 5424 129b E8010000 		.4byte	.LC80
 5425 129f 00       		.byte	0
 5426 12a0 00       		.byte	0
 5427 12a1 1A       		.uleb128 0x1a
 5428 12a2 30000000 		.4byte	.LVL230
 5429 12a6 A11A0000 		.4byte	0x1aa1
 5430 12aa B5120000 		.4byte	0x12b5
 5431 12ae 1B       		.uleb128 0x1b
 5432 12af 01       		.uleb128 0x1
 5433 12b0 50       		.byte	0x50
 5434 12b1 02       		.uleb128 0x2
 5435 12b2 76       		.byte	0x76
 5436 12b3 00       		.sleb128 0
 5437 12b4 00       		.byte	0
 5438 12b5 1C       		.uleb128 0x1c
 5439 12b6 44000000 		.4byte	.LVL233
 5440 12ba AC1A0000 		.4byte	0x1aac
 5441 12be 1B       		.uleb128 0x1b
 5442 12bf 01       		.uleb128 0x1
 5443 12c0 50       		.byte	0x50
 5444 12c1 05       		.uleb128 0x5
 5445 12c2 03       		.byte	0x3
 5446 12c3 28020000 		.4byte	.LC86
 5447 12c7 00       		.byte	0
 5448 12c8 00       		.byte	0
 5449 12c9 21       		.uleb128 0x21
 5450 12ca C8010000 		.4byte	.Ldebug_ranges0+0x1c8
 5451 12ce 17130000 		.4byte	0x1317
 5452 12d2 29       		.uleb128 0x29
 5453 12d3 DFB80000 		.4byte	.LASF1753
 5454 12d7 01       		.byte	0x1
 5455 12d8 2D       		.byte	0x2d
 5456 12d9 28130000 		.4byte	0x1328
 5457 12dd 02       		.uleb128 0x2
 5458 12de 91       		.byte	0x91
 5459 12df 54       		.sleb128 -44
 5460 12e0 1A       		.uleb128 0x1a
 5461 12e1 76000000 		.4byte	.LVL238
 5462 12e5 C21A0000 		.4byte	0x1ac2
 5463 12e9 F9120000 		.4byte	0x12f9
 5464 12ed 1B       		.uleb128 0x1b
 5465 12ee 01       		.uleb128 0x1
 5466 12ef 51       		.byte	0x51
 5467 12f0 02       		.uleb128 0x2
 5468 12f1 91       		.byte	0x91
 5469 12f2 54       		.sleb128 -44
 5470 12f3 1B       		.uleb128 0x1b
 5471 12f4 01       		.uleb128 0x1
 5472 12f5 52       		.byte	0x52
 5473 12f6 01       		.uleb128 0x1
 5474 12f7 3A       		.byte	0x3a
 5475 12f8 00       		.byte	0
 5476 12f9 1A       		.uleb128 0x1a
 5477 12fa 7C000000 		.4byte	.LVL239
 5478 12fe AC1A0000 		.4byte	0x1aac
ARM GAS  /var/folders/z0/6xlwn_996xz3mwq1cgzkbq4r0000gp/T//ccBgBTlB.s 			page 117


 5479 1302 0D130000 		.4byte	0x130d
 5480 1306 1B       		.uleb128 0x1b
 5481 1307 01       		.uleb128 0x1
 5482 1308 50       		.byte	0x50
 5483 1309 02       		.uleb128 0x2
 5484 130a 91       		.byte	0x91
 5485 130b 54       		.sleb128 -44
 5486 130c 00       		.byte	0
 5487 130d 2A       		.uleb128 0x2a
 5488 130e 60010000 		.4byte	.LVL241
 5489 1312 AC1A0000 		.4byte	0x1aac
 5490 1316 00       		.byte	0
 5491 1317 1C       		.uleb128 0x1c
 5492 1318 18000000 		.4byte	.LVL225
 5493 131c A11A0000 		.4byte	0x1aa1
 5494 1320 1B       		.uleb128 0x1b
 5495 1321 01       		.uleb128 0x1
 5496 1322 50       		.byte	0x50
 5497 1323 02       		.uleb128 0x2
 5498 1324 76       		.byte	0x76
 5499 1325 00       		.sleb128 0
 5500 1326 00       		.byte	0
 5501 1327 00       		.byte	0
 5502 1328 2B       		.uleb128 0x2b
 5503 1329 97000000 		.4byte	0x97
 5504 132d 38130000 		.4byte	0x1338
 5505 1331 2C       		.uleb128 0x2c
 5506 1332 90000000 		.4byte	0x90
 5507 1336 13       		.byte	0x13
 5508 1337 00       		.byte	0
 5509 1338 2D       		.uleb128 0x2d
 5510 1339 74070000 		.4byte	0x774
 5511 133d 00000000 		.4byte	.LFB202
 5512 1341 58000000 		.4byte	.LFE202-.LFB202
 5513 1345 01       		.uleb128 0x1
 5514 1346 9C       		.byte	0x9c
 5515 1347 1B140000 		.4byte	0x141b
 5516 134b 25       		.uleb128 0x25
 5517 134c 81070000 		.4byte	0x781
 5518 1350 A70E0000 		.4byte	.LLST58
 5519 1354 27       		.uleb128 0x27
 5520 1355 8D070000 		.4byte	0x78d
 5521 1359 C80E0000 		.4byte	.LLST59
 5522 135d 27       		.uleb128 0x27
 5523 135e 99070000 		.4byte	0x799
 5524 1362 E80E0000 		.4byte	.LLST60
 5525 1366 22       		.uleb128 0x22
 5526 1367 24000000 		.4byte	.LBB122
 5527 136b 10000000 		.4byte	.LBE122-.LBB122
 5528 136f AD130000 		.4byte	0x13ad
 5529 1373 25       		.uleb128 0x25
 5530 1374 81070000 		.4byte	0x781
 5531 1378 2C0F0000 		.4byte	.LLST61
 5532 137c 2E       		.uleb128 0x2e
 5533 137d 24000000 		.4byte	.LBB123
 5534 1381 10000000 		.4byte	.LBE123-.LBB123
 5535 1385 2F       		.uleb128 0x2f
ARM GAS  /var/folders/z0/6xlwn_996xz3mwq1cgzkbq4r0000gp/T//ccBgBTlB.s 			page 118


 5536 1386 8D070000 		.4byte	0x78d
 5537 138a 2F       		.uleb128 0x2f
 5538 138b 99070000 		.4byte	0x799
 5539 138f 2A       		.uleb128 0x2a
 5540 1390 2C000000 		.4byte	.LVL276
 5541 1394 D81A0000 		.4byte	0x1ad8
 5542 1398 1C       		.uleb128 0x1c
 5543 1399 32000000 		.4byte	.LVL277
 5544 139d AC1A0000 		.4byte	0x1aac
 5545 13a1 1B       		.uleb128 0x1b
 5546 13a2 01       		.uleb128 0x1
 5547 13a3 50       		.byte	0x50
 5548 13a4 05       		.uleb128 0x5
 5549 13a5 03       		.byte	0x3
 5550 13a6 C0000000 		.4byte	.LC32
 5551 13aa 00       		.byte	0
 5552 13ab 00       		.byte	0
 5553 13ac 00       		.byte	0
 5554 13ad 1A       		.uleb128 0x1a
 5555 13ae 0C000000 		.4byte	.LVL270
 5556 13b2 A11A0000 		.4byte	0x1aa1
 5557 13b6 CA130000 		.4byte	0x13ca
 5558 13ba 1B       		.uleb128 0x1b
 5559 13bb 01       		.uleb128 0x1
 5560 13bc 50       		.byte	0x50
 5561 13bd 02       		.uleb128 0x2
 5562 13be 74       		.byte	0x74
 5563 13bf 00       		.sleb128 0
 5564 13c0 1B       		.uleb128 0x1b
 5565 13c1 01       		.uleb128 0x1
 5566 13c2 51       		.byte	0x51
 5567 13c3 05       		.uleb128 0x5
 5568 13c4 03       		.byte	0x3
 5569 13c5 40020000 		.4byte	.LC88
 5570 13c9 00       		.byte	0
 5571 13ca 1A       		.uleb128 0x1a
 5572 13cb 18000000 		.4byte	.LVL272
 5573 13cf A11A0000 		.4byte	0x1aa1
 5574 13d3 E7130000 		.4byte	0x13e7
 5575 13d7 1B       		.uleb128 0x1b
 5576 13d8 01       		.uleb128 0x1
 5577 13d9 50       		.byte	0x50
 5578 13da 02       		.uleb128 0x2
 5579 13db 74       		.byte	0x74
 5580 13dc 00       		.sleb128 0
 5581 13dd 1B       		.uleb128 0x1b
 5582 13de 01       		.uleb128 0x1
 5583 13df 51       		.byte	0x51
 5584 13e0 05       		.uleb128 0x5
 5585 13e1 03       		.byte	0x3
 5586 13e2 48020000 		.4byte	.LC90
 5587 13e6 00       		.byte	0
 5588 13e7 1A       		.uleb128 0x1a
 5589 13e8 22000000 		.4byte	.LVL274
 5590 13ec AC1A0000 		.4byte	0x1aac
 5591 13f0 FE130000 		.4byte	0x13fe
 5592 13f4 1B       		.uleb128 0x1b
ARM GAS  /var/folders/z0/6xlwn_996xz3mwq1cgzkbq4r0000gp/T//ccBgBTlB.s 			page 119


 5593 13f5 01       		.uleb128 0x1
 5594 13f6 50       		.byte	0x50
 5595 13f7 05       		.uleb128 0x5
 5596 13f8 03       		.byte	0x3
 5597 13f9 E4000000 		.4byte	.LC36
 5598 13fd 00       		.byte	0
 5599 13fe 2A       		.uleb128 0x2a
 5600 13ff 3C000000 		.4byte	.LVL279
 5601 1403 E31A0000 		.4byte	0x1ae3
 5602 1407 1C       		.uleb128 0x1c
 5603 1408 42000000 		.4byte	.LVL280
 5604 140c AC1A0000 		.4byte	0x1aac
 5605 1410 1B       		.uleb128 0x1b
 5606 1411 01       		.uleb128 0x1
 5607 1412 50       		.byte	0x50
 5608 1413 05       		.uleb128 0x5
 5609 1414 03       		.byte	0x3
 5610 1415 C0000000 		.4byte	.LC32
 5611 1419 00       		.byte	0
 5612 141a 00       		.byte	0
 5613 141b 2D       		.uleb128 0x2d
 5614 141c A6070000 		.4byte	0x7a6
 5615 1420 00000000 		.4byte	.LFB201
 5616 1424 9C000000 		.4byte	.LFE201-.LFB201
 5617 1428 01       		.uleb128 0x1
 5618 1429 9C       		.byte	0x9c
 5619 142a 16150000 		.4byte	0x1516
 5620 142e 25       		.uleb128 0x25
 5621 142f B3070000 		.4byte	0x7b3
 5622 1433 420F0000 		.4byte	.LLST62
 5623 1437 27       		.uleb128 0x27
 5624 1438 BF070000 		.4byte	0x7bf
 5625 143c 630F0000 		.4byte	.LLST63
 5626 1440 22       		.uleb128 0x22
 5627 1441 3E000000 		.4byte	.LBB128
 5628 1445 5E000000 		.4byte	.LBE128-.LBB128
 5629 1449 BA140000 		.4byte	0x14ba
 5630 144d 30       		.uleb128 0x30
 5631 144e B3070000 		.4byte	0x7b3
 5632 1452 04       		.uleb128 0x4
 5633 1453 F3       		.byte	0xf3
 5634 1454 01       		.uleb128 0x1
 5635 1455 50       		.byte	0x50
 5636 1456 9F       		.byte	0x9f
 5637 1457 2E       		.uleb128 0x2e
 5638 1458 3E000000 		.4byte	.LBB129
 5639 145c 5E000000 		.4byte	.LBE129-.LBB129
 5640 1460 2F       		.uleb128 0x2f
 5641 1461 BF070000 		.4byte	0x7bf
 5642 1465 2E       		.uleb128 0x2e
 5643 1466 3E000000 		.4byte	.LBB130
 5644 146a 5E000000 		.4byte	.LBE130-.LBB130
 5645 146e 27       		.uleb128 0x27
 5646 146f CC070000 		.4byte	0x7cc
 5647 1473 980F0000 		.4byte	.LLST64
 5648 1477 1A       		.uleb128 0x1a
 5649 1478 44000000 		.4byte	.LVL292
ARM GAS  /var/folders/z0/6xlwn_996xz3mwq1cgzkbq4r0000gp/T//ccBgBTlB.s 			page 120


 5650 147c EE1A0000 		.4byte	0x1aee
 5651 1480 8E140000 		.4byte	0x148e
 5652 1484 1B       		.uleb128 0x1b
 5653 1485 01       		.uleb128 0x1
 5654 1486 50       		.byte	0x50
 5655 1487 05       		.uleb128 0x5
 5656 1488 03       		.byte	0x3
 5657 1489 58020000 		.4byte	.LC103
 5658 148d 00       		.byte	0
 5659 148e 2A       		.uleb128 0x2a
 5660 148f 56000000 		.4byte	.LVL295
 5661 1493 EE1A0000 		.4byte	0x1aee
 5662 1497 1A       		.uleb128 0x1a
 5663 1498 60000000 		.4byte	.LVL296
 5664 149c EE1A0000 		.4byte	0x1aee
 5665 14a0 AE140000 		.4byte	0x14ae
 5666 14a4 1B       		.uleb128 0x1b
 5667 14a5 01       		.uleb128 0x1
 5668 14a6 50       		.byte	0x50
 5669 14a7 05       		.uleb128 0x5
 5670 14a8 03       		.byte	0x3
 5671 14a9 70020000 		.4byte	.LC106
 5672 14ad 00       		.byte	0
 5673 14ae 2A       		.uleb128 0x2a
 5674 14af 70000000 		.4byte	.LVL298
 5675 14b3 EE1A0000 		.4byte	0x1aee
 5676 14b7 00       		.byte	0
 5677 14b8 00       		.byte	0
 5678 14b9 00       		.byte	0
 5679 14ba 1A       		.uleb128 0x1a
 5680 14bb 14000000 		.4byte	.LVL284
 5681 14bf A11A0000 		.4byte	0x1aa1
 5682 14c3 CE140000 		.4byte	0x14ce
 5683 14c7 1B       		.uleb128 0x1b
 5684 14c8 01       		.uleb128 0x1
 5685 14c9 50       		.byte	0x50
 5686 14ca 02       		.uleb128 0x2
 5687 14cb 76       		.byte	0x76
 5688 14cc 00       		.sleb128 0
 5689 14cd 00       		.byte	0
 5690 14ce 1A       		.uleb128 0x1a
 5691 14cf 28000000 		.4byte	.LVL287
 5692 14d3 CD1A0000 		.4byte	0x1acd
 5693 14d7 E5140000 		.4byte	0x14e5
 5694 14db 1B       		.uleb128 0x1b
 5695 14dc 01       		.uleb128 0x1
 5696 14dd 50       		.byte	0x50
 5697 14de 05       		.uleb128 0x5
 5698 14df 03       		.byte	0x3
 5699 14e0 54020000 		.4byte	.LC101
 5700 14e4 00       		.byte	0
 5701 14e5 1A       		.uleb128 0x1a
 5702 14e6 34000000 		.4byte	.LVL289
 5703 14ea EE1A0000 		.4byte	0x1aee
 5704 14ee 02150000 		.4byte	0x1502
 5705 14f2 1B       		.uleb128 0x1b
 5706 14f3 01       		.uleb128 0x1
ARM GAS  /var/folders/z0/6xlwn_996xz3mwq1cgzkbq4r0000gp/T//ccBgBTlB.s 			page 121


 5707 14f4 50       		.byte	0x50
 5708 14f5 0B       		.uleb128 0xb
 5709 14f6 74       		.byte	0x74
 5710 14f7 00       		.sleb128 0
 5711 14f8 32       		.byte	0x32
 5712 14f9 24       		.byte	0x24
 5713 14fa 03       		.byte	0x3
 5714 14fb 00000000 		.4byte	.LANCHOR9
 5715 14ff 22       		.byte	0x22
 5716 1500 06       		.byte	0x6
 5717 1501 00       		.byte	0
 5718 1502 1C       		.uleb128 0x1c
 5719 1503 3A000000 		.4byte	.LVL290
 5720 1507 CD1A0000 		.4byte	0x1acd
 5721 150b 1B       		.uleb128 0x1b
 5722 150c 01       		.uleb128 0x1
 5723 150d 50       		.byte	0x50
 5724 150e 05       		.uleb128 0x5
 5725 150f 03       		.byte	0x3
 5726 1510 54020000 		.4byte	.LC101
 5727 1514 00       		.byte	0
 5728 1515 00       		.byte	0
 5729 1516 2D       		.uleb128 0x2d
 5730 1517 08080000 		.4byte	0x808
 5731 151b 00000000 		.4byte	.LFB204
 5732 151f 94000000 		.4byte	.LFE204-.LFB204
 5733 1523 01       		.uleb128 0x1
 5734 1524 9C       		.byte	0x9c
 5735 1525 ED150000 		.4byte	0x15ed
 5736 1529 25       		.uleb128 0x25
 5737 152a 15080000 		.4byte	0x815
 5738 152e B80F0000 		.4byte	.LLST65
 5739 1532 24       		.uleb128 0x24
 5740 1533 D8070000 		.4byte	0x7d8
 5741 1537 32000000 		.4byte	.LBB137
 5742 153b E8010000 		.4byte	.Ldebug_ranges0+0x1e8
 5743 153f 01       		.byte	0x1
 5744 1540 A801     		.2byte	0x1a8
 5745 1542 68150000 		.4byte	0x1568
 5746 1546 25       		.uleb128 0x25
 5747 1547 E8070000 		.4byte	0x7e8
 5748 154b FD0F0000 		.4byte	.LLST66
 5749 154f 26       		.uleb128 0x26
 5750 1550 E8010000 		.4byte	.Ldebug_ranges0+0x1e8
 5751 1554 27       		.uleb128 0x27
 5752 1555 F3070000 		.4byte	0x7f3
 5753 1559 1B100000 		.4byte	.LLST67
 5754 155d 27       		.uleb128 0x27
 5755 155e FE070000 		.4byte	0x7fe
 5756 1562 51100000 		.4byte	.LLST68
 5757 1566 00       		.byte	0
 5758 1567 00       		.byte	0
 5759 1568 22       		.uleb128 0x22
 5760 1569 62000000 		.4byte	.LBB140
 5761 156d 14000000 		.4byte	.LBE140-.LBB140
 5762 1571 92150000 		.4byte	0x1592
 5763 1575 25       		.uleb128 0x25
ARM GAS  /var/folders/z0/6xlwn_996xz3mwq1cgzkbq4r0000gp/T//ccBgBTlB.s 			page 122


 5764 1576 15080000 		.4byte	0x815
 5765 157a 94100000 		.4byte	.LLST69
 5766 157e 1C       		.uleb128 0x1c
 5767 157f 74000000 		.4byte	.LVL314
 5768 1583 AC1A0000 		.4byte	0x1aac
 5769 1587 1B       		.uleb128 0x1b
 5770 1588 01       		.uleb128 0x1
 5771 1589 50       		.byte	0x50
 5772 158a 05       		.uleb128 0x5
 5773 158b 03       		.byte	0x3
 5774 158c 88020000 		.4byte	.LC113
 5775 1590 00       		.byte	0
 5776 1591 00       		.byte	0
 5777 1592 1A       		.uleb128 0x1a
 5778 1593 14000000 		.4byte	.LVL301
 5779 1597 B71A0000 		.4byte	0x1ab7
 5780 159b A5150000 		.4byte	0x15a5
 5781 159f 1B       		.uleb128 0x1b
 5782 15a0 01       		.uleb128 0x1
 5783 15a1 51       		.byte	0x51
 5784 15a2 01       		.uleb128 0x1
 5785 15a3 33       		.byte	0x33
 5786 15a4 00       		.byte	0
 5787 15a5 1A       		.uleb128 0x1a
 5788 15a6 22000000 		.4byte	.LVL303
 5789 15aa A11A0000 		.4byte	0x1aa1
 5790 15ae C2150000 		.4byte	0x15c2
 5791 15b2 1B       		.uleb128 0x1b
 5792 15b3 01       		.uleb128 0x1
 5793 15b4 50       		.byte	0x50
 5794 15b5 02       		.uleb128 0x2
 5795 15b6 74       		.byte	0x74
 5796 15b7 00       		.sleb128 0
 5797 15b8 1B       		.uleb128 0x1b
 5798 15b9 01       		.uleb128 0x1
 5799 15ba 51       		.byte	0x51
 5800 15bb 05       		.uleb128 0x5
 5801 15bc 03       		.byte	0x3
 5802 15bd 10000000 		.4byte	.LC5
 5803 15c1 00       		.byte	0
 5804 15c2 1A       		.uleb128 0x1a
 5805 15c3 58000000 		.4byte	.LVL310
 5806 15c7 AC1A0000 		.4byte	0x1aac
 5807 15cb D9150000 		.4byte	0x15d9
 5808 15cf 1B       		.uleb128 0x1b
 5809 15d0 01       		.uleb128 0x1
 5810 15d1 50       		.byte	0x50
 5811 15d2 05       		.uleb128 0x5
 5812 15d3 03       		.byte	0x3
 5813 15d4 90020000 		.4byte	.LC115
 5814 15d8 00       		.byte	0
 5815 15d9 1C       		.uleb128 0x1c
 5816 15da 60000000 		.4byte	.LVL312
 5817 15de AC1A0000 		.4byte	0x1aac
 5818 15e2 1B       		.uleb128 0x1b
 5819 15e3 01       		.uleb128 0x1
 5820 15e4 50       		.byte	0x50
ARM GAS  /var/folders/z0/6xlwn_996xz3mwq1cgzkbq4r0000gp/T//ccBgBTlB.s 			page 123


 5821 15e5 05       		.uleb128 0x5
 5822 15e6 03       		.byte	0x3
 5823 15e7 14010000 		.4byte	.LC50
 5824 15eb 00       		.byte	0
 5825 15ec 00       		.byte	0
 5826 15ed 2D       		.uleb128 0x2d
 5827 15ee D8070000 		.4byte	0x7d8
 5828 15f2 00000000 		.4byte	.LFB198
 5829 15f6 24000000 		.4byte	.LFE198-.LFB198
 5830 15fa 01       		.uleb128 0x1
 5831 15fb 9C       		.byte	0x9c
 5832 15fc 1C160000 		.4byte	0x161c
 5833 1600 25       		.uleb128 0x25
 5834 1601 E8070000 		.4byte	0x7e8
 5835 1605 AA100000 		.4byte	.LLST70
 5836 1609 27       		.uleb128 0x27
 5837 160a F3070000 		.4byte	0x7f3
 5838 160e E4100000 		.4byte	.LLST71
 5839 1612 27       		.uleb128 0x27
 5840 1613 FE070000 		.4byte	0x7fe
 5841 1617 1A110000 		.4byte	.LLST72
 5842 161b 00       		.byte	0
 5843 161c 31       		.uleb128 0x31
 5844 161d 5B010000 		.4byte	.LASF1757
 5845 1621 01       		.byte	0x1
 5846 1622 C201     		.2byte	0x1c2
 5847 1624 00000000 		.4byte	.LFB206
 5848 1628 2C000000 		.4byte	.LFE206-.LFB206
 5849 162c 01       		.uleb128 0x1
 5850 162d 9C       		.byte	0x9c
 5851 162e 5F160000 		.4byte	0x165f
 5852 1632 32       		.uleb128 0x32
 5853 1633 98700000 		.4byte	.LASF1754
 5854 1637 01       		.byte	0x1
 5855 1638 C201     		.2byte	0x1c2
 5856 163a 5F160000 		.4byte	0x165f
 5857 163e 01       		.uleb128 0x1
 5858 163f 50       		.byte	0x50
 5859 1640 19       		.uleb128 0x19
 5860 1641 776F0000 		.4byte	.LASF1755
 5861 1645 01       		.byte	0x1
 5862 1646 C201     		.2byte	0x1c2
 5863 1648 65160000 		.4byte	0x1665
 5864 164c 5F110000 		.4byte	.LLST73
 5865 1650 32       		.uleb128 0x32
 5866 1651 08A10000 		.4byte	.LASF1756
 5867 1655 01       		.byte	0x1
 5868 1656 C201     		.2byte	0x1c2
 5869 1658 6B160000 		.4byte	0x166b
 5870 165c 01       		.uleb128 0x1
 5871 165d 52       		.byte	0x52
 5872 165e 00       		.byte	0
 5873 165f 05       		.uleb128 0x5
 5874 1660 04       		.byte	0x4
 5875 1661 E9040000 		.4byte	0x4e9
 5876 1665 05       		.uleb128 0x5
 5877 1666 04       		.byte	0x4
ARM GAS  /var/folders/z0/6xlwn_996xz3mwq1cgzkbq4r0000gp/T//ccBgBTlB.s 			page 124


 5878 1667 73050000 		.4byte	0x573
 5879 166b 05       		.uleb128 0x5
 5880 166c 04       		.byte	0x4
 5881 166d 64070000 		.4byte	0x764
 5882 1671 31       		.uleb128 0x31
 5883 1672 C91A0000 		.4byte	.LASF1758
 5884 1676 01       		.byte	0x1
 5885 1677 CF01     		.2byte	0x1cf
 5886 1679 00000000 		.4byte	.LFB207
 5887 167d 6C000000 		.4byte	.LFE207-.LFB207
 5888 1681 01       		.uleb128 0x1
 5889 1682 9C       		.byte	0x9c
 5890 1683 20170000 		.4byte	0x1720
 5891 1687 19       		.uleb128 0x19
 5892 1688 60970000 		.4byte	.LASF1759
 5893 168c 01       		.byte	0x1
 5894 168d CF01     		.2byte	0x1cf
 5895 168f B4000000 		.4byte	0xb4
 5896 1693 81110000 		.4byte	.LLST74
 5897 1697 19       		.uleb128 0x19
 5898 1698 E5970000 		.4byte	.LASF1745
 5899 169c 01       		.byte	0x1
 5900 169d CF01     		.2byte	0x1cf
 5901 169f CA000000 		.4byte	0xca
 5902 16a3 C5110000 		.4byte	.LLST75
 5903 16a7 23       		.uleb128 0x23
 5904 16a8 0A2E0000 		.4byte	.LASF1746
 5905 16ac 01       		.byte	0x1
 5906 16ad D001     		.2byte	0x1d0
 5907 16af BF000000 		.4byte	0xbf
 5908 16b3 FC110000 		.4byte	.LLST76
 5909 16b7 23       		.uleb128 0x23
 5910 16b8 64280000 		.4byte	.LASF1760
 5911 16bc 01       		.byte	0x1
 5912 16bd D101     		.2byte	0x1d1
 5913 16bf 47010000 		.4byte	0x147
 5914 16c3 26120000 		.4byte	.LLST77
 5915 16c7 1A       		.uleb128 0x1a
 5916 16c8 1C000000 		.4byte	.LVL330
 5917 16cc A11A0000 		.4byte	0x1aa1
 5918 16d0 DB160000 		.4byte	0x16db
 5919 16d4 1B       		.uleb128 0x1b
 5920 16d5 01       		.uleb128 0x1
 5921 16d6 50       		.byte	0x50
 5922 16d7 02       		.uleb128 0x2
 5923 16d8 76       		.byte	0x76
 5924 16d9 00       		.sleb128 0
 5925 16da 00       		.byte	0
 5926 16db 1A       		.uleb128 0x1a
 5927 16dc 2E000000 		.4byte	.LVL332
 5928 16e0 AC1A0000 		.4byte	0x1aac
 5929 16e4 F2160000 		.4byte	0x16f2
 5930 16e8 1B       		.uleb128 0x1b
 5931 16e9 01       		.uleb128 0x1
 5932 16ea 50       		.byte	0x50
 5933 16eb 05       		.uleb128 0x5
 5934 16ec 03       		.byte	0x3
ARM GAS  /var/folders/z0/6xlwn_996xz3mwq1cgzkbq4r0000gp/T//ccBgBTlB.s 			page 125


 5935 16ed B4020000 		.4byte	.LC127
 5936 16f1 00       		.byte	0
 5937 16f2 1A       		.uleb128 0x1a
 5938 16f3 44000000 		.4byte	.LVL336
 5939 16f7 AC1A0000 		.4byte	0x1aac
 5940 16fb 09170000 		.4byte	0x1709
 5941 16ff 1B       		.uleb128 0x1b
 5942 1700 01       		.uleb128 0x1
 5943 1701 50       		.byte	0x50
 5944 1702 05       		.uleb128 0x5
 5945 1703 03       		.byte	0x3
 5946 1704 98020000 		.4byte	.LC124
 5947 1708 00       		.byte	0
 5948 1709 33       		.uleb128 0x33
 5949 170a 50000000 		.4byte	.LVL338
 5950 170e 09       		.uleb128 0x9
 5951 170f 74       		.byte	0x74
 5952 1710 00       		.sleb128 0
 5953 1711 03       		.byte	0x3
 5954 1712 00000000 		.4byte	.LANCHOR10
 5955 1716 22       		.byte	0x22
 5956 1717 06       		.byte	0x6
 5957 1718 1B       		.uleb128 0x1b
 5958 1719 01       		.uleb128 0x1
 5959 171a 50       		.byte	0x50
 5960 171b 02       		.uleb128 0x2
 5961 171c 78       		.byte	0x78
 5962 171d 00       		.sleb128 0
 5963 171e 00       		.byte	0
 5964 171f 00       		.byte	0
 5965 1720 31       		.uleb128 0x31
 5966 1721 B0690000 		.4byte	.LASF1761
 5967 1725 01       		.byte	0x1
 5968 1726 E701     		.2byte	0x1e7
 5969 1728 00000000 		.4byte	.LFB208
 5970 172c B4000000 		.4byte	.LFE208-.LFB208
 5971 1730 01       		.uleb128 0x1
 5972 1731 9C       		.byte	0x9c
 5973 1732 B4180000 		.4byte	0x18b4
 5974 1736 19       		.uleb128 0x19
 5975 1737 98060000 		.4byte	.LASF1762
 5976 173b 01       		.byte	0x1
 5977 173c E801     		.2byte	0x1e8
 5978 173e 6B160000 		.4byte	0x166b
 5979 1742 46120000 		.4byte	.LLST78
 5980 1746 19       		.uleb128 0x19
 5981 1747 AF050000 		.4byte	.LASF1763
 5982 174b 01       		.byte	0x1
 5983 174c E901     		.2byte	0x1e9
 5984 174e 5F160000 		.4byte	0x165f
 5985 1752 88120000 		.4byte	.LLST79
 5986 1756 19       		.uleb128 0x19
 5987 1757 D68D0000 		.4byte	.LASF1669
 5988 175b 01       		.byte	0x1
 5989 175c EA01     		.2byte	0x1ea
 5990 175e BF000000 		.4byte	0xbf
 5991 1762 D5120000 		.4byte	.LLST80
ARM GAS  /var/folders/z0/6xlwn_996xz3mwq1cgzkbq4r0000gp/T//ccBgBTlB.s 			page 126


 5992 1766 34       		.uleb128 0x34
 5993 1767 DFB80000 		.4byte	.LASF1753
 5994 176b 01       		.byte	0x1
 5995 176c ED01     		.2byte	0x1ed
 5996 176e 28130000 		.4byte	0x1328
 5997 1772 02       		.uleb128 0x2
 5998 1773 91       		.byte	0x91
 5999 1774 54       		.sleb128 -44
 6000 1775 26       		.uleb128 0x26
 6001 1776 00020000 		.4byte	.Ldebug_ranges0+0x200
 6002 177a 23       		.uleb128 0x23
 6003 177b CC640000 		.4byte	.LASF1764
 6004 177f 01       		.byte	0x1
 6005 1780 F101     		.2byte	0x1f1
 6006 1782 47010000 		.4byte	0x147
 6007 1786 0C130000 		.4byte	.LLST81
 6008 178a 23       		.uleb128 0x23
 6009 178b 132C0000 		.4byte	.LASF1765
 6010 178f 01       		.byte	0x1
 6011 1790 FD01     		.2byte	0x1fd
 6012 1792 47010000 		.4byte	0x147
 6013 1796 6E130000 		.4byte	.LLST82
 6014 179a 1A       		.uleb128 0x1a
 6015 179b 46000000 		.4byte	.LVL348
 6016 179f C21A0000 		.4byte	0x1ac2
 6017 17a3 B9170000 		.4byte	0x17b9
 6018 17a7 1B       		.uleb128 0x1b
 6019 17a8 01       		.uleb128 0x1
 6020 17a9 50       		.byte	0x50
 6021 17aa 02       		.uleb128 0x2
 6022 17ab 75       		.byte	0x75
 6023 17ac 00       		.sleb128 0
 6024 17ad 1B       		.uleb128 0x1b
 6025 17ae 01       		.uleb128 0x1
 6026 17af 51       		.byte	0x51
 6027 17b0 02       		.uleb128 0x2
 6028 17b1 91       		.byte	0x91
 6029 17b2 54       		.sleb128 -44
 6030 17b3 1B       		.uleb128 0x1b
 6031 17b4 01       		.uleb128 0x1
 6032 17b5 52       		.byte	0x52
 6033 17b6 01       		.uleb128 0x1
 6034 17b7 3A       		.byte	0x3a
 6035 17b8 00       		.byte	0
 6036 17b9 1A       		.uleb128 0x1a
 6037 17ba 4C000000 		.4byte	.LVL349
 6038 17be F91A0000 		.4byte	0x1af9
 6039 17c2 CD170000 		.4byte	0x17cd
 6040 17c6 1B       		.uleb128 0x1b
 6041 17c7 01       		.uleb128 0x1
 6042 17c8 50       		.byte	0x50
 6043 17c9 02       		.uleb128 0x2
 6044 17ca 91       		.byte	0x91
 6045 17cb 54       		.sleb128 -44
 6046 17cc 00       		.byte	0
 6047 17cd 1A       		.uleb128 0x1a
 6048 17ce 52000000 		.4byte	.LVL350
ARM GAS  /var/folders/z0/6xlwn_996xz3mwq1cgzkbq4r0000gp/T//ccBgBTlB.s 			page 127


 6049 17d2 F91A0000 		.4byte	0x1af9
 6050 17d6 E4170000 		.4byte	0x17e4
 6051 17da 1B       		.uleb128 0x1b
 6052 17db 01       		.uleb128 0x1
 6053 17dc 50       		.byte	0x50
 6054 17dd 05       		.uleb128 0x5
 6055 17de 03       		.byte	0x3
 6056 17df D8020000 		.4byte	.LC135
 6057 17e3 00       		.byte	0
 6058 17e4 1A       		.uleb128 0x1a
 6059 17e5 5E000000 		.4byte	.LVL351
 6060 17e9 C21A0000 		.4byte	0x1ac2
 6061 17ed FD170000 		.4byte	0x17fd
 6062 17f1 1B       		.uleb128 0x1b
 6063 17f2 01       		.uleb128 0x1
 6064 17f3 51       		.byte	0x51
 6065 17f4 02       		.uleb128 0x2
 6066 17f5 91       		.byte	0x91
 6067 17f6 54       		.sleb128 -44
 6068 17f7 1B       		.uleb128 0x1b
 6069 17f8 01       		.uleb128 0x1
 6070 17f9 52       		.byte	0x52
 6071 17fa 01       		.uleb128 0x1
 6072 17fb 3A       		.byte	0x3a
 6073 17fc 00       		.byte	0
 6074 17fd 1A       		.uleb128 0x1a
 6075 17fe 64000000 		.4byte	.LVL352
 6076 1802 EE1A0000 		.4byte	0x1aee
 6077 1806 11180000 		.4byte	0x1811
 6078 180a 1B       		.uleb128 0x1b
 6079 180b 01       		.uleb128 0x1
 6080 180c 50       		.byte	0x50
 6081 180d 02       		.uleb128 0x2
 6082 180e 91       		.byte	0x91
 6083 180f 54       		.sleb128 -44
 6084 1810 00       		.byte	0
 6085 1811 1A       		.uleb128 0x1a
 6086 1812 6A000000 		.4byte	.LVL353
 6087 1816 F91A0000 		.4byte	0x1af9
 6088 181a 28180000 		.4byte	0x1828
 6089 181e 1B       		.uleb128 0x1b
 6090 181f 01       		.uleb128 0x1
 6091 1820 50       		.byte	0x50
 6092 1821 05       		.uleb128 0x5
 6093 1822 03       		.byte	0x3
 6094 1823 D4020000 		.4byte	.LC132
 6095 1827 00       		.byte	0
 6096 1828 1A       		.uleb128 0x1a
 6097 1829 78000000 		.4byte	.LVL357
 6098 182d C21A0000 		.4byte	0x1ac2
 6099 1831 47180000 		.4byte	0x1847
 6100 1835 1B       		.uleb128 0x1b
 6101 1836 01       		.uleb128 0x1
 6102 1837 50       		.byte	0x50
 6103 1838 02       		.uleb128 0x2
 6104 1839 75       		.byte	0x75
 6105 183a 00       		.sleb128 0
ARM GAS  /var/folders/z0/6xlwn_996xz3mwq1cgzkbq4r0000gp/T//ccBgBTlB.s 			page 128


 6106 183b 1B       		.uleb128 0x1b
 6107 183c 01       		.uleb128 0x1
 6108 183d 51       		.byte	0x51
 6109 183e 02       		.uleb128 0x2
 6110 183f 91       		.byte	0x91
 6111 1840 54       		.sleb128 -44
 6112 1841 1B       		.uleb128 0x1b
 6113 1842 01       		.uleb128 0x1
 6114 1843 52       		.byte	0x52
 6115 1844 01       		.uleb128 0x1
 6116 1845 3A       		.byte	0x3a
 6117 1846 00       		.byte	0
 6118 1847 1A       		.uleb128 0x1a
 6119 1848 7E000000 		.4byte	.LVL358
 6120 184c F91A0000 		.4byte	0x1af9
 6121 1850 5B180000 		.4byte	0x185b
 6122 1854 1B       		.uleb128 0x1b
 6123 1855 01       		.uleb128 0x1
 6124 1856 50       		.byte	0x50
 6125 1857 02       		.uleb128 0x2
 6126 1858 91       		.byte	0x91
 6127 1859 54       		.sleb128 -44
 6128 185a 00       		.byte	0
 6129 185b 1A       		.uleb128 0x1a
 6130 185c 84000000 		.4byte	.LVL359
 6131 1860 F91A0000 		.4byte	0x1af9
 6132 1864 72180000 		.4byte	0x1872
 6133 1868 1B       		.uleb128 0x1b
 6134 1869 01       		.uleb128 0x1
 6135 186a 50       		.byte	0x50
 6136 186b 05       		.uleb128 0x5
 6137 186c 03       		.byte	0x3
 6138 186d CC020000 		.4byte	.LC130
 6139 1871 00       		.byte	0
 6140 1872 1A       		.uleb128 0x1a
 6141 1873 90000000 		.4byte	.LVL360
 6142 1877 C21A0000 		.4byte	0x1ac2
 6143 187b 8B180000 		.4byte	0x188b
 6144 187f 1B       		.uleb128 0x1b
 6145 1880 01       		.uleb128 0x1
 6146 1881 51       		.byte	0x51
 6147 1882 02       		.uleb128 0x2
 6148 1883 91       		.byte	0x91
 6149 1884 54       		.sleb128 -44
 6150 1885 1B       		.uleb128 0x1b
 6151 1886 01       		.uleb128 0x1
 6152 1887 52       		.byte	0x52
 6153 1888 01       		.uleb128 0x1
 6154 1889 3A       		.byte	0x3a
 6155 188a 00       		.byte	0
 6156 188b 1A       		.uleb128 0x1a
 6157 188c 96000000 		.4byte	.LVL361
 6158 1890 EE1A0000 		.4byte	0x1aee
 6159 1894 9F180000 		.4byte	0x189f
 6160 1898 1B       		.uleb128 0x1b
 6161 1899 01       		.uleb128 0x1
 6162 189a 50       		.byte	0x50
ARM GAS  /var/folders/z0/6xlwn_996xz3mwq1cgzkbq4r0000gp/T//ccBgBTlB.s 			page 129


 6163 189b 02       		.uleb128 0x2
 6164 189c 91       		.byte	0x91
 6165 189d 54       		.sleb128 -44
 6166 189e 00       		.byte	0
 6167 189f 1C       		.uleb128 0x1c
 6168 18a0 9C000000 		.4byte	.LVL362
 6169 18a4 F91A0000 		.4byte	0x1af9
 6170 18a8 1B       		.uleb128 0x1b
 6171 18a9 01       		.uleb128 0x1
 6172 18aa 50       		.byte	0x50
 6173 18ab 05       		.uleb128 0x5
 6174 18ac 03       		.byte	0x3
 6175 18ad D4020000 		.4byte	.LC132
 6176 18b1 00       		.byte	0
 6177 18b2 00       		.byte	0
 6178 18b3 00       		.byte	0
 6179 18b4 2B       		.uleb128 0x2b
 6180 18b5 D0000000 		.4byte	0xd0
 6181 18b9 C4180000 		.4byte	0x18c4
 6182 18bd 2C       		.uleb128 0x2c
 6183 18be 90000000 		.4byte	0x90
 6184 18c2 02       		.byte	0x2
 6185 18c3 00       		.byte	0
 6186 18c4 29       		.uleb128 0x29
 6187 18c5 1B8B0000 		.4byte	.LASF1766
 6188 18c9 05       		.byte	0x5
 6189 18ca 16       		.byte	0x16
 6190 18cb D5180000 		.4byte	0x18d5
 6191 18cf 05       		.uleb128 0x5
 6192 18d0 03       		.byte	0x3
 6193 18d1 00000000 		.4byte	PACK_NAMES
 6194 18d5 06       		.uleb128 0x6
 6195 18d6 B4180000 		.4byte	0x18b4
 6196 18da 2B       		.uleb128 0x2b
 6197 18db D0000000 		.4byte	0xd0
 6198 18df EA180000 		.4byte	0x18ea
 6199 18e3 2C       		.uleb128 0x2c
 6200 18e4 90000000 		.4byte	0x90
 6201 18e8 01       		.byte	0x1
 6202 18e9 00       		.byte	0
 6203 18ea 29       		.uleb128 0x29
 6204 18eb 91340000 		.4byte	.LASF1767
 6205 18ef 05       		.byte	0x5
 6206 18f0 21       		.byte	0x21
 6207 18f1 FB180000 		.4byte	0x18fb
 6208 18f5 05       		.uleb128 0x5
 6209 18f6 03       		.byte	0x3
 6210 18f7 00000000 		.4byte	BMS_COMM_NAMES
 6211 18fb 06       		.uleb128 0x6
 6212 18fc DA180000 		.4byte	0x18da
 6213 1900 2B       		.uleb128 0x2b
 6214 1901 D0000000 		.4byte	0xd0
 6215 1905 10190000 		.4byte	0x1910
 6216 1909 2C       		.uleb128 0x2c
 6217 190a 90000000 		.4byte	0x90
 6218 190e 03       		.byte	0x3
 6219 190f 00       		.byte	0
ARM GAS  /var/folders/z0/6xlwn_996xz3mwq1cgzkbq4r0000gp/T//ccBgBTlB.s 			page 130


 6220 1910 29       		.uleb128 0x29
 6221 1911 255B0000 		.4byte	.LASF1768
 6222 1915 05       		.byte	0x5
 6223 1916 4F       		.byte	0x4f
 6224 1917 21190000 		.4byte	0x1921
 6225 191b 05       		.uleb128 0x5
 6226 191c 03       		.byte	0x3
 6227 191d 00000000 		.4byte	CSB_SSM_MODE_NAMES
 6228 1921 06       		.uleb128 0x6
 6229 1922 00190000 		.4byte	0x1900
 6230 1926 2B       		.uleb128 0x2b
 6231 1927 D0000000 		.4byte	0xd0
 6232 192b 36190000 		.4byte	0x1936
 6233 192f 2C       		.uleb128 0x2c
 6234 1930 90000000 		.4byte	0x90
 6235 1934 0B       		.byte	0xb
 6236 1935 00       		.byte	0
 6237 1936 29       		.uleb128 0x29
 6238 1937 674A0000 		.4byte	.LASF1769
 6239 193b 05       		.byte	0x5
 6240 193c 65       		.byte	0x65
 6241 193d 47190000 		.4byte	0x1947
 6242 1941 05       		.uleb128 0x5
 6243 1942 03       		.byte	0x3
 6244 1943 00000000 		.4byte	CSB_CHARGE_MODE_NAMES
 6245 1947 06       		.uleb128 0x6
 6246 1948 26190000 		.4byte	0x1926
 6247 194c 29       		.uleb128 0x29
 6248 194d FE080000 		.4byte	.LASF1770
 6249 1951 05       		.byte	0x5
 6250 1952 79       		.byte	0x79
 6251 1953 5D190000 		.4byte	0x195d
 6252 1957 05       		.uleb128 0x5
 6253 1958 03       		.byte	0x3
 6254 1959 00000000 		.4byte	CSB_INIT_MODE_NAMES
 6255 195d 06       		.uleb128 0x6
 6256 195e DA180000 		.4byte	0x18da
 6257 1962 35       		.uleb128 0x35
 6258 1963 1B370000 		.4byte	.LASF1771
 6259 1967 05       		.byte	0x5
 6260 1968 83       		.byte	0x83
 6261 1969 6D190000 		.4byte	0x196d
 6262 196d 06       		.uleb128 0x6
 6263 196e DA180000 		.4byte	0x18da
 6264 1972 2B       		.uleb128 0x2b
 6265 1973 D0000000 		.4byte	0xd0
 6266 1977 82190000 		.4byte	0x1982
 6267 197b 2C       		.uleb128 0x2c
 6268 197c 90000000 		.4byte	0x90
 6269 1980 06       		.byte	0x6
 6270 1981 00       		.byte	0
 6271 1982 29       		.uleb128 0x29
 6272 1983 D2560000 		.4byte	.LASF1772
 6273 1987 07       		.byte	0x7
 6274 1988 08       		.byte	0x8
 6275 1989 93190000 		.4byte	0x1993
 6276 198d 05       		.uleb128 0x5
ARM GAS  /var/folders/z0/6xlwn_996xz3mwq1cgzkbq4r0000gp/T//ccBgBTlB.s 			page 131


 6277 198e 03       		.byte	0x3
 6278 198f 00000000 		.4byte	commands
 6279 1993 06       		.uleb128 0x6
 6280 1994 72190000 		.4byte	0x1972
 6281 1998 2B       		.uleb128 0x2b
 6282 1999 A4000000 		.4byte	0xa4
 6283 199d A8190000 		.4byte	0x19a8
 6284 19a1 2C       		.uleb128 0x2c
 6285 19a2 90000000 		.4byte	0x90
 6286 19a6 06       		.byte	0x6
 6287 19a7 00       		.byte	0
 6288 19a8 29       		.uleb128 0x29
 6289 19a9 66A20000 		.4byte	.LASF1773
 6290 19ad 07       		.byte	0x7
 6291 19ae 11       		.byte	0x11
 6292 19af B9190000 		.4byte	0x19b9
 6293 19b3 05       		.uleb128 0x5
 6294 19b4 03       		.byte	0x3
 6295 19b5 00000000 		.4byte	nargs
 6296 19b9 06       		.uleb128 0x6
 6297 19ba 98190000 		.4byte	0x1998
 6298 19be 29       		.uleb128 0x29
 6299 19bf 15730000 		.4byte	.LASF1774
 6300 19c3 07       		.byte	0x7
 6301 19c4 1A       		.byte	0x1a
 6302 19c5 CF190000 		.4byte	0x19cf
 6303 19c9 05       		.uleb128 0x5
 6304 19ca 03       		.byte	0x3
 6305 19cb 00000000 		.4byte	helpstring
 6306 19cf 06       		.uleb128 0x6
 6307 19d0 72190000 		.4byte	0x1972
 6308 19d4 2B       		.uleb128 0x2b
 6309 19d5 D0000000 		.4byte	0xd0
 6310 19d9 E4190000 		.4byte	0x19e4
 6311 19dd 2C       		.uleb128 0x2c
 6312 19de 90000000 		.4byte	0x90
 6313 19e2 17       		.byte	0x17
 6314 19e3 00       		.byte	0
 6315 19e4 29       		.uleb128 0x29
 6316 19e5 7D110000 		.4byte	.LASF1775
 6317 19e9 07       		.byte	0x7
 6318 19ea 23       		.byte	0x23
 6319 19eb F5190000 		.4byte	0x19f5
 6320 19ef 05       		.uleb128 0x5
 6321 19f0 03       		.byte	0x3
 6322 19f1 00000000 		.4byte	locstring
 6323 19f5 06       		.uleb128 0x6
 6324 19f6 D4190000 		.4byte	0x19d4
 6325 19fa 35       		.uleb128 0x35
 6326 19fb 739E0000 		.4byte	.LASF1776
 6327 19ff 07       		.byte	0x7
 6328 1a00 3E       		.byte	0x3e
 6329 1a01 051A0000 		.4byte	0x1a05
 6330 1a05 06       		.uleb128 0x6
 6331 1a06 DA180000 		.4byte	0x18da
 6332 1a0a 35       		.uleb128 0x35
 6333 1a0b 58360000 		.4byte	.LASF1777
ARM GAS  /var/folders/z0/6xlwn_996xz3mwq1cgzkbq4r0000gp/T//ccBgBTlB.s 			page 132


 6334 1a0f 07       		.byte	0x7
 6335 1a10 43       		.byte	0x43
 6336 1a11 151A0000 		.4byte	0x1a15
 6337 1a15 06       		.uleb128 0x6
 6338 1a16 DA180000 		.4byte	0x18da
 6339 1a1a 29       		.uleb128 0x29
 6340 1a1b AF050000 		.4byte	.LASF1763
 6341 1a1f 01       		.byte	0x1
 6342 1a20 0B       		.byte	0xb
 6343 1a21 5F160000 		.4byte	0x165f
 6344 1a25 05       		.uleb128 0x5
 6345 1a26 03       		.byte	0x3
 6346 1a27 00000000 		.4byte	csb_input
 6347 1a2b 29       		.uleb128 0x29
 6348 1a2c 7F710000 		.4byte	.LASF1778
 6349 1a30 01       		.byte	0x1
 6350 1a31 0C       		.byte	0xc
 6351 1a32 65160000 		.4byte	0x1665
 6352 1a36 05       		.uleb128 0x5
 6353 1a37 03       		.byte	0x3
 6354 1a38 00000000 		.4byte	csb_state
 6355 1a3c 29       		.uleb128 0x29
 6356 1a3d 98060000 		.4byte	.LASF1762
 6357 1a41 01       		.byte	0x1
 6358 1a42 0D       		.byte	0xd
 6359 1a43 6B160000 		.4byte	0x166b
 6360 1a47 05       		.uleb128 0x5
 6361 1a48 03       		.byte	0x3
 6362 1a49 00000000 		.4byte	console_output
 6363 1a4d 29       		.uleb128 0x29
 6364 1a4e 81990000 		.4byte	.LASF1779
 6365 1a52 01       		.byte	0x1
 6366 1a53 0F       		.byte	0xf
 6367 1a54 BF000000 		.4byte	0xbf
 6368 1a58 05       		.uleb128 0x5
 6369 1a59 03       		.byte	0x3
 6370 1a5a 00000000 		.4byte	lastPackCurrentPrintTime
 6371 1a5e 29       		.uleb128 0x29
 6372 1a5f 045A0000 		.4byte	.LASF1780
 6373 1a63 01       		.byte	0x1
 6374 1a64 10       		.byte	0x10
 6375 1a65 BF000000 		.4byte	0xbf
 6376 1a69 05       		.uleb128 0x5
 6377 1a6a 03       		.byte	0x3
 6378 1a6b 00000000 		.4byte	lastPackVoltagePrintTime
 6379 1a6f 2B       		.uleb128 0x2b
 6380 1a70 E6060000 		.4byte	0x6e6
 6381 1a74 7F1A0000 		.4byte	0x1a7f
 6382 1a78 2C       		.uleb128 0x2c
 6383 1a79 90000000 		.4byte	0x90
 6384 1a7d 06       		.byte	0x6
 6385 1a7e 00       		.byte	0
 6386 1a7f 34       		.uleb128 0x34
 6387 1a80 940A0000 		.4byte	.LASF1781
 6388 1a84 01       		.byte	0x1
 6389 1a85 C001     		.2byte	0x1c0
 6390 1a87 911A0000 		.4byte	0x1a91
ARM GAS  /var/folders/z0/6xlwn_996xz3mwq1cgzkbq4r0000gp/T//ccBgBTlB.s 			page 133


 6391 1a8b 05       		.uleb128 0x5
 6392 1a8c 03       		.byte	0x3
 6393 1a8d 00000000 		.4byte	handlers
 6394 1a91 06       		.uleb128 0x6
 6395 1a92 6F1A0000 		.4byte	0x1a6f
 6396 1a96 36       		.uleb128 0x36
 6397 1a97 662C0000 		.4byte	.LASF1796
 6398 1a9b 0D       		.byte	0xd
 6399 1a9c D4       		.byte	0xd4
 6400 1a9d 6F070000 		.4byte	0x76f
 6401 1aa1 37       		.uleb128 0x37
 6402 1aa2 5EBA0000 		.4byte	.LASF1782
 6403 1aa6 5EBA0000 		.4byte	.LASF1782
 6404 1aaa 08       		.byte	0x8
 6405 1aab 20       		.byte	0x20
 6406 1aac 37       		.uleb128 0x37
 6407 1aad C3A40000 		.4byte	.LASF1783
 6408 1ab1 C3A40000 		.4byte	.LASF1783
 6409 1ab5 09       		.byte	0x9
 6410 1ab6 19       		.byte	0x19
 6411 1ab7 37       		.uleb128 0x37
 6412 1ab8 F7B00000 		.4byte	.LASF1784
 6413 1abc F7B00000 		.4byte	.LASF1784
 6414 1ac0 0A       		.byte	0xa
 6415 1ac1 09       		.byte	0x9
 6416 1ac2 37       		.uleb128 0x37
 6417 1ac3 17230000 		.4byte	.LASF1785
 6418 1ac7 17230000 		.4byte	.LASF1785
 6419 1acb 0B       		.byte	0xb
 6420 1acc DF       		.byte	0xdf
 6421 1acd 37       		.uleb128 0x37
 6422 1ace 218E0000 		.4byte	.LASF1786
 6423 1ad2 218E0000 		.4byte	.LASF1786
 6424 1ad6 09       		.byte	0x9
 6425 1ad7 17       		.byte	0x17
 6426 1ad8 37       		.uleb128 0x37
 6427 1ad9 134F0000 		.4byte	.LASF1787
 6428 1add 134F0000 		.4byte	.LASF1787
 6429 1ae1 0C       		.byte	0xc
 6430 1ae2 06       		.byte	0x6
 6431 1ae3 37       		.uleb128 0x37
 6432 1ae4 4EA00000 		.4byte	.LASF1788
 6433 1ae8 4EA00000 		.4byte	.LASF1788
 6434 1aec 0C       		.byte	0xc
 6435 1aed 07       		.byte	0x7
 6436 1aee 37       		.uleb128 0x37
 6437 1aef 6BB60000 		.4byte	.LASF1789
 6438 1af3 6BB60000 		.4byte	.LASF1789
 6439 1af7 09       		.byte	0x9
 6440 1af8 23       		.byte	0x23
 6441 1af9 37       		.uleb128 0x37
 6442 1afa 2F810000 		.4byte	.LASF1790
 6443 1afe 2F810000 		.4byte	.LASF1790
 6444 1b02 09       		.byte	0x9
 6445 1b03 21       		.byte	0x21
 6446 1b04 00       		.byte	0
 6447              		.section	.debug_abbrev,"",%progbits
ARM GAS  /var/folders/z0/6xlwn_996xz3mwq1cgzkbq4r0000gp/T//ccBgBTlB.s 			page 134


 6448              	.Ldebug_abbrev0:
 6449 0000 01       		.uleb128 0x1
 6450 0001 11       		.uleb128 0x11
 6451 0002 01       		.byte	0x1
 6452 0003 25       		.uleb128 0x25
 6453 0004 0E       		.uleb128 0xe
 6454 0005 13       		.uleb128 0x13
 6455 0006 0B       		.uleb128 0xb
 6456 0007 03       		.uleb128 0x3
 6457 0008 0E       		.uleb128 0xe
 6458 0009 1B       		.uleb128 0x1b
 6459 000a 0E       		.uleb128 0xe
 6460 000b 55       		.uleb128 0x55
 6461 000c 17       		.uleb128 0x17
 6462 000d 11       		.uleb128 0x11
 6463 000e 01       		.uleb128 0x1
 6464 000f 10       		.uleb128 0x10
 6465 0010 17       		.uleb128 0x17
 6466 0011 9942     		.uleb128 0x2119
 6467 0013 17       		.uleb128 0x17
 6468 0014 00       		.byte	0
 6469 0015 00       		.byte	0
 6470 0016 02       		.uleb128 0x2
 6471 0017 24       		.uleb128 0x24
 6472 0018 00       		.byte	0
 6473 0019 0B       		.uleb128 0xb
 6474 001a 0B       		.uleb128 0xb
 6475 001b 3E       		.uleb128 0x3e
 6476 001c 0B       		.uleb128 0xb
 6477 001d 03       		.uleb128 0x3
 6478 001e 08       		.uleb128 0x8
 6479 001f 00       		.byte	0
 6480 0020 00       		.byte	0
 6481 0021 03       		.uleb128 0x3
 6482 0022 24       		.uleb128 0x24
 6483 0023 00       		.byte	0
 6484 0024 0B       		.uleb128 0xb
 6485 0025 0B       		.uleb128 0xb
 6486 0026 3E       		.uleb128 0x3e
 6487 0027 0B       		.uleb128 0xb
 6488 0028 03       		.uleb128 0x3
 6489 0029 0E       		.uleb128 0xe
 6490 002a 00       		.byte	0
 6491 002b 00       		.byte	0
 6492 002c 04       		.uleb128 0x4
 6493 002d 16       		.uleb128 0x16
 6494 002e 00       		.byte	0
 6495 002f 03       		.uleb128 0x3
 6496 0030 0E       		.uleb128 0xe
 6497 0031 3A       		.uleb128 0x3a
 6498 0032 0B       		.uleb128 0xb
 6499 0033 3B       		.uleb128 0x3b
 6500 0034 0B       		.uleb128 0xb
 6501 0035 49       		.uleb128 0x49
 6502 0036 13       		.uleb128 0x13
 6503 0037 00       		.byte	0
 6504 0038 00       		.byte	0
ARM GAS  /var/folders/z0/6xlwn_996xz3mwq1cgzkbq4r0000gp/T//ccBgBTlB.s 			page 135


 6505 0039 05       		.uleb128 0x5
 6506 003a 0F       		.uleb128 0xf
 6507 003b 00       		.byte	0
 6508 003c 0B       		.uleb128 0xb
 6509 003d 0B       		.uleb128 0xb
 6510 003e 49       		.uleb128 0x49
 6511 003f 13       		.uleb128 0x13
 6512 0040 00       		.byte	0
 6513 0041 00       		.byte	0
 6514 0042 06       		.uleb128 0x6
 6515 0043 26       		.uleb128 0x26
 6516 0044 00       		.byte	0
 6517 0045 49       		.uleb128 0x49
 6518 0046 13       		.uleb128 0x13
 6519 0047 00       		.byte	0
 6520 0048 00       		.byte	0
 6521 0049 07       		.uleb128 0x7
 6522 004a 04       		.uleb128 0x4
 6523 004b 01       		.byte	0x1
 6524 004c 0B       		.uleb128 0xb
 6525 004d 0B       		.uleb128 0xb
 6526 004e 49       		.uleb128 0x49
 6527 004f 13       		.uleb128 0x13
 6528 0050 3A       		.uleb128 0x3a
 6529 0051 0B       		.uleb128 0xb
 6530 0052 3B       		.uleb128 0x3b
 6531 0053 0B       		.uleb128 0xb
 6532 0054 01       		.uleb128 0x1
 6533 0055 13       		.uleb128 0x13
 6534 0056 00       		.byte	0
 6535 0057 00       		.byte	0
 6536 0058 08       		.uleb128 0x8
 6537 0059 28       		.uleb128 0x28
 6538 005a 00       		.byte	0
 6539 005b 03       		.uleb128 0x3
 6540 005c 0E       		.uleb128 0xe
 6541 005d 1C       		.uleb128 0x1c
 6542 005e 0B       		.uleb128 0xb
 6543 005f 00       		.byte	0
 6544 0060 00       		.byte	0
 6545 0061 09       		.uleb128 0x9
 6546 0062 13       		.uleb128 0x13
 6547 0063 01       		.byte	0x1
 6548 0064 03       		.uleb128 0x3
 6549 0065 0E       		.uleb128 0xe
 6550 0066 0B       		.uleb128 0xb
 6551 0067 0B       		.uleb128 0xb
 6552 0068 3A       		.uleb128 0x3a
 6553 0069 0B       		.uleb128 0xb
 6554 006a 3B       		.uleb128 0x3b
 6555 006b 0B       		.uleb128 0xb
 6556 006c 01       		.uleb128 0x1
 6557 006d 13       		.uleb128 0x13
 6558 006e 00       		.byte	0
 6559 006f 00       		.byte	0
 6560 0070 0A       		.uleb128 0xa
 6561 0071 0D       		.uleb128 0xd
ARM GAS  /var/folders/z0/6xlwn_996xz3mwq1cgzkbq4r0000gp/T//ccBgBTlB.s 			page 136


 6562 0072 00       		.byte	0
 6563 0073 03       		.uleb128 0x3
 6564 0074 0E       		.uleb128 0xe
 6565 0075 3A       		.uleb128 0x3a
 6566 0076 0B       		.uleb128 0xb
 6567 0077 3B       		.uleb128 0x3b
 6568 0078 0B       		.uleb128 0xb
 6569 0079 49       		.uleb128 0x49
 6570 007a 13       		.uleb128 0x13
 6571 007b 38       		.uleb128 0x38
 6572 007c 0B       		.uleb128 0xb
 6573 007d 00       		.byte	0
 6574 007e 00       		.byte	0
 6575 007f 0B       		.uleb128 0xb
 6576 0080 04       		.uleb128 0x4
 6577 0081 01       		.byte	0x1
 6578 0082 03       		.uleb128 0x3
 6579 0083 0E       		.uleb128 0xe
 6580 0084 0B       		.uleb128 0xb
 6581 0085 0B       		.uleb128 0xb
 6582 0086 49       		.uleb128 0x49
 6583 0087 13       		.uleb128 0x13
 6584 0088 3A       		.uleb128 0x3a
 6585 0089 0B       		.uleb128 0xb
 6586 008a 3B       		.uleb128 0x3b
 6587 008b 0B       		.uleb128 0xb
 6588 008c 01       		.uleb128 0x1
 6589 008d 13       		.uleb128 0x13
 6590 008e 00       		.byte	0
 6591 008f 00       		.byte	0
 6592 0090 0C       		.uleb128 0xc
 6593 0091 15       		.uleb128 0x15
 6594 0092 01       		.byte	0x1
 6595 0093 27       		.uleb128 0x27
 6596 0094 19       		.uleb128 0x19
 6597 0095 01       		.uleb128 0x1
 6598 0096 13       		.uleb128 0x13
 6599 0097 00       		.byte	0
 6600 0098 00       		.byte	0
 6601 0099 0D       		.uleb128 0xd
 6602 009a 05       		.uleb128 0x5
 6603 009b 00       		.byte	0
 6604 009c 49       		.uleb128 0x49
 6605 009d 13       		.uleb128 0x13
 6606 009e 00       		.byte	0
 6607 009f 00       		.byte	0
 6608 00a0 0E       		.uleb128 0xe
 6609 00a1 13       		.uleb128 0x13
 6610 00a2 01       		.byte	0x1
 6611 00a3 0B       		.uleb128 0xb
 6612 00a4 0B       		.uleb128 0xb
 6613 00a5 3A       		.uleb128 0x3a
 6614 00a6 0B       		.uleb128 0xb
 6615 00a7 3B       		.uleb128 0x3b
 6616 00a8 0B       		.uleb128 0xb
 6617 00a9 01       		.uleb128 0x1
 6618 00aa 13       		.uleb128 0x13
ARM GAS  /var/folders/z0/6xlwn_996xz3mwq1cgzkbq4r0000gp/T//ccBgBTlB.s 			page 137


 6619 00ab 00       		.byte	0
 6620 00ac 00       		.byte	0
 6621 00ad 0F       		.uleb128 0xf
 6622 00ae 2E       		.uleb128 0x2e
 6623 00af 01       		.byte	0x1
 6624 00b0 03       		.uleb128 0x3
 6625 00b1 0E       		.uleb128 0xe
 6626 00b2 3A       		.uleb128 0x3a
 6627 00b3 0B       		.uleb128 0xb
 6628 00b4 3B       		.uleb128 0x3b
 6629 00b5 05       		.uleb128 0x5
 6630 00b6 27       		.uleb128 0x27
 6631 00b7 19       		.uleb128 0x19
 6632 00b8 20       		.uleb128 0x20
 6633 00b9 0B       		.uleb128 0xb
 6634 00ba 01       		.uleb128 0x1
 6635 00bb 13       		.uleb128 0x13
 6636 00bc 00       		.byte	0
 6637 00bd 00       		.byte	0
 6638 00be 10       		.uleb128 0x10
 6639 00bf 05       		.uleb128 0x5
 6640 00c0 00       		.byte	0
 6641 00c1 03       		.uleb128 0x3
 6642 00c2 0E       		.uleb128 0xe
 6643 00c3 3A       		.uleb128 0x3a
 6644 00c4 0B       		.uleb128 0xb
 6645 00c5 3B       		.uleb128 0x3b
 6646 00c6 05       		.uleb128 0x5
 6647 00c7 49       		.uleb128 0x49
 6648 00c8 13       		.uleb128 0x13
 6649 00c9 00       		.byte	0
 6650 00ca 00       		.byte	0
 6651 00cb 11       		.uleb128 0x11
 6652 00cc 34       		.uleb128 0x34
 6653 00cd 00       		.byte	0
 6654 00ce 03       		.uleb128 0x3
 6655 00cf 0E       		.uleb128 0xe
 6656 00d0 3A       		.uleb128 0x3a
 6657 00d1 0B       		.uleb128 0xb
 6658 00d2 3B       		.uleb128 0x3b
 6659 00d3 05       		.uleb128 0x5
 6660 00d4 49       		.uleb128 0x49
 6661 00d5 13       		.uleb128 0x13
 6662 00d6 00       		.byte	0
 6663 00d7 00       		.byte	0
 6664 00d8 12       		.uleb128 0x12
 6665 00d9 0B       		.uleb128 0xb
 6666 00da 01       		.byte	0x1
 6667 00db 00       		.byte	0
 6668 00dc 00       		.byte	0
 6669 00dd 13       		.uleb128 0x13
 6670 00de 34       		.uleb128 0x34
 6671 00df 00       		.byte	0
 6672 00e0 03       		.uleb128 0x3
 6673 00e1 08       		.uleb128 0x8
 6674 00e2 3A       		.uleb128 0x3a
 6675 00e3 0B       		.uleb128 0xb
ARM GAS  /var/folders/z0/6xlwn_996xz3mwq1cgzkbq4r0000gp/T//ccBgBTlB.s 			page 138


 6676 00e4 3B       		.uleb128 0x3b
 6677 00e5 05       		.uleb128 0x5
 6678 00e6 49       		.uleb128 0x49
 6679 00e7 13       		.uleb128 0x13
 6680 00e8 00       		.byte	0
 6681 00e9 00       		.byte	0
 6682 00ea 14       		.uleb128 0x14
 6683 00eb 2E       		.uleb128 0x2e
 6684 00ec 01       		.byte	0x1
 6685 00ed 3F       		.uleb128 0x3f
 6686 00ee 19       		.uleb128 0x19
 6687 00ef 03       		.uleb128 0x3
 6688 00f0 0E       		.uleb128 0xe
 6689 00f1 3A       		.uleb128 0x3a
 6690 00f2 0B       		.uleb128 0xb
 6691 00f3 3B       		.uleb128 0x3b
 6692 00f4 0B       		.uleb128 0xb
 6693 00f5 27       		.uleb128 0x27
 6694 00f6 19       		.uleb128 0x19
 6695 00f7 49       		.uleb128 0x49
 6696 00f8 13       		.uleb128 0x13
 6697 00f9 20       		.uleb128 0x20
 6698 00fa 0B       		.uleb128 0xb
 6699 00fb 01       		.uleb128 0x1
 6700 00fc 13       		.uleb128 0x13
 6701 00fd 00       		.byte	0
 6702 00fe 00       		.byte	0
 6703 00ff 15       		.uleb128 0x15
 6704 0100 05       		.uleb128 0x5
 6705 0101 00       		.byte	0
 6706 0102 03       		.uleb128 0x3
 6707 0103 08       		.uleb128 0x8
 6708 0104 3A       		.uleb128 0x3a
 6709 0105 0B       		.uleb128 0xb
 6710 0106 3B       		.uleb128 0x3b
 6711 0107 0B       		.uleb128 0xb
 6712 0108 49       		.uleb128 0x49
 6713 0109 13       		.uleb128 0x13
 6714 010a 00       		.byte	0
 6715 010b 00       		.byte	0
 6716 010c 16       		.uleb128 0x16
 6717 010d 34       		.uleb128 0x34
 6718 010e 00       		.byte	0
 6719 010f 03       		.uleb128 0x3
 6720 0110 08       		.uleb128 0x8
 6721 0111 3A       		.uleb128 0x3a
 6722 0112 0B       		.uleb128 0xb
 6723 0113 3B       		.uleb128 0x3b
 6724 0114 0B       		.uleb128 0xb
 6725 0115 49       		.uleb128 0x49
 6726 0116 13       		.uleb128 0x13
 6727 0117 00       		.byte	0
 6728 0118 00       		.byte	0
 6729 0119 17       		.uleb128 0x17
 6730 011a 2E       		.uleb128 0x2e
 6731 011b 01       		.byte	0x1
 6732 011c 03       		.uleb128 0x3
ARM GAS  /var/folders/z0/6xlwn_996xz3mwq1cgzkbq4r0000gp/T//ccBgBTlB.s 			page 139


 6733 011d 08       		.uleb128 0x8
 6734 011e 3A       		.uleb128 0x3a
 6735 011f 0B       		.uleb128 0xb
 6736 0120 3B       		.uleb128 0x3b
 6737 0121 05       		.uleb128 0x5
 6738 0122 27       		.uleb128 0x27
 6739 0123 19       		.uleb128 0x19
 6740 0124 20       		.uleb128 0x20
 6741 0125 0B       		.uleb128 0xb
 6742 0126 01       		.uleb128 0x1
 6743 0127 13       		.uleb128 0x13
 6744 0128 00       		.byte	0
 6745 0129 00       		.byte	0
 6746 012a 18       		.uleb128 0x18
 6747 012b 2E       		.uleb128 0x2e
 6748 012c 01       		.byte	0x1
 6749 012d 03       		.uleb128 0x3
 6750 012e 0E       		.uleb128 0xe
 6751 012f 3A       		.uleb128 0x3a
 6752 0130 0B       		.uleb128 0xb
 6753 0131 3B       		.uleb128 0x3b
 6754 0132 05       		.uleb128 0x5
 6755 0133 27       		.uleb128 0x27
 6756 0134 19       		.uleb128 0x19
 6757 0135 11       		.uleb128 0x11
 6758 0136 01       		.uleb128 0x1
 6759 0137 12       		.uleb128 0x12
 6760 0138 06       		.uleb128 0x6
 6761 0139 40       		.uleb128 0x40
 6762 013a 18       		.uleb128 0x18
 6763 013b 9742     		.uleb128 0x2117
 6764 013d 19       		.uleb128 0x19
 6765 013e 01       		.uleb128 0x1
 6766 013f 13       		.uleb128 0x13
 6767 0140 00       		.byte	0
 6768 0141 00       		.byte	0
 6769 0142 19       		.uleb128 0x19
 6770 0143 05       		.uleb128 0x5
 6771 0144 00       		.byte	0
 6772 0145 03       		.uleb128 0x3
 6773 0146 0E       		.uleb128 0xe
 6774 0147 3A       		.uleb128 0x3a
 6775 0148 0B       		.uleb128 0xb
 6776 0149 3B       		.uleb128 0x3b
 6777 014a 05       		.uleb128 0x5
 6778 014b 49       		.uleb128 0x49
 6779 014c 13       		.uleb128 0x13
 6780 014d 02       		.uleb128 0x2
 6781 014e 17       		.uleb128 0x17
 6782 014f 00       		.byte	0
 6783 0150 00       		.byte	0
 6784 0151 1A       		.uleb128 0x1a
 6785 0152 898201   		.uleb128 0x4109
 6786 0155 01       		.byte	0x1
 6787 0156 11       		.uleb128 0x11
 6788 0157 01       		.uleb128 0x1
 6789 0158 31       		.uleb128 0x31
ARM GAS  /var/folders/z0/6xlwn_996xz3mwq1cgzkbq4r0000gp/T//ccBgBTlB.s 			page 140


 6790 0159 13       		.uleb128 0x13
 6791 015a 01       		.uleb128 0x1
 6792 015b 13       		.uleb128 0x13
 6793 015c 00       		.byte	0
 6794 015d 00       		.byte	0
 6795 015e 1B       		.uleb128 0x1b
 6796 015f 8A8201   		.uleb128 0x410a
 6797 0162 00       		.byte	0
 6798 0163 02       		.uleb128 0x2
 6799 0164 18       		.uleb128 0x18
 6800 0165 9142     		.uleb128 0x2111
 6801 0167 18       		.uleb128 0x18
 6802 0168 00       		.byte	0
 6803 0169 00       		.byte	0
 6804 016a 1C       		.uleb128 0x1c
 6805 016b 898201   		.uleb128 0x4109
 6806 016e 01       		.byte	0x1
 6807 016f 11       		.uleb128 0x11
 6808 0170 01       		.uleb128 0x1
 6809 0171 31       		.uleb128 0x31
 6810 0172 13       		.uleb128 0x13
 6811 0173 00       		.byte	0
 6812 0174 00       		.byte	0
 6813 0175 1D       		.uleb128 0x1d
 6814 0176 2E       		.uleb128 0x2e
 6815 0177 01       		.byte	0x1
 6816 0178 03       		.uleb128 0x3
 6817 0179 08       		.uleb128 0x8
 6818 017a 3A       		.uleb128 0x3a
 6819 017b 0B       		.uleb128 0xb
 6820 017c 3B       		.uleb128 0x3b
 6821 017d 0B       		.uleb128 0xb
 6822 017e 27       		.uleb128 0x27
 6823 017f 19       		.uleb128 0x19
 6824 0180 11       		.uleb128 0x11
 6825 0181 01       		.uleb128 0x1
 6826 0182 12       		.uleb128 0x12
 6827 0183 06       		.uleb128 0x6
 6828 0184 40       		.uleb128 0x40
 6829 0185 18       		.uleb128 0x18
 6830 0186 9742     		.uleb128 0x2117
 6831 0188 19       		.uleb128 0x19
 6832 0189 01       		.uleb128 0x1
 6833 018a 13       		.uleb128 0x13
 6834 018b 00       		.byte	0
 6835 018c 00       		.byte	0
 6836 018d 1E       		.uleb128 0x1e
 6837 018e 05       		.uleb128 0x5
 6838 018f 00       		.byte	0
 6839 0190 03       		.uleb128 0x3
 6840 0191 0E       		.uleb128 0xe
 6841 0192 3A       		.uleb128 0x3a
 6842 0193 0B       		.uleb128 0xb
 6843 0194 3B       		.uleb128 0x3b
 6844 0195 0B       		.uleb128 0xb
 6845 0196 49       		.uleb128 0x49
 6846 0197 13       		.uleb128 0x13
ARM GAS  /var/folders/z0/6xlwn_996xz3mwq1cgzkbq4r0000gp/T//ccBgBTlB.s 			page 141


 6847 0198 02       		.uleb128 0x2
 6848 0199 17       		.uleb128 0x17
 6849 019a 00       		.byte	0
 6850 019b 00       		.byte	0
 6851 019c 1F       		.uleb128 0x1f
 6852 019d 34       		.uleb128 0x34
 6853 019e 00       		.byte	0
 6854 019f 03       		.uleb128 0x3
 6855 01a0 0E       		.uleb128 0xe
 6856 01a1 3A       		.uleb128 0x3a
 6857 01a2 0B       		.uleb128 0xb
 6858 01a3 3B       		.uleb128 0x3b
 6859 01a4 0B       		.uleb128 0xb
 6860 01a5 49       		.uleb128 0x49
 6861 01a6 13       		.uleb128 0x13
 6862 01a7 02       		.uleb128 0x2
 6863 01a8 17       		.uleb128 0x17
 6864 01a9 00       		.byte	0
 6865 01aa 00       		.byte	0
 6866 01ab 20       		.uleb128 0x20
 6867 01ac 34       		.uleb128 0x34
 6868 01ad 00       		.byte	0
 6869 01ae 03       		.uleb128 0x3
 6870 01af 0E       		.uleb128 0xe
 6871 01b0 3A       		.uleb128 0x3a
 6872 01b1 0B       		.uleb128 0xb
 6873 01b2 3B       		.uleb128 0x3b
 6874 01b3 0B       		.uleb128 0xb
 6875 01b4 49       		.uleb128 0x49
 6876 01b5 13       		.uleb128 0x13
 6877 01b6 1C       		.uleb128 0x1c
 6878 01b7 0B       		.uleb128 0xb
 6879 01b8 00       		.byte	0
 6880 01b9 00       		.byte	0
 6881 01ba 21       		.uleb128 0x21
 6882 01bb 0B       		.uleb128 0xb
 6883 01bc 01       		.byte	0x1
 6884 01bd 55       		.uleb128 0x55
 6885 01be 17       		.uleb128 0x17
 6886 01bf 01       		.uleb128 0x1
 6887 01c0 13       		.uleb128 0x13
 6888 01c1 00       		.byte	0
 6889 01c2 00       		.byte	0
 6890 01c3 22       		.uleb128 0x22
 6891 01c4 0B       		.uleb128 0xb
 6892 01c5 01       		.byte	0x1
 6893 01c6 11       		.uleb128 0x11
 6894 01c7 01       		.uleb128 0x1
 6895 01c8 12       		.uleb128 0x12
 6896 01c9 06       		.uleb128 0x6
 6897 01ca 01       		.uleb128 0x1
 6898 01cb 13       		.uleb128 0x13
 6899 01cc 00       		.byte	0
 6900 01cd 00       		.byte	0
 6901 01ce 23       		.uleb128 0x23
 6902 01cf 34       		.uleb128 0x34
 6903 01d0 00       		.byte	0
ARM GAS  /var/folders/z0/6xlwn_996xz3mwq1cgzkbq4r0000gp/T//ccBgBTlB.s 			page 142


 6904 01d1 03       		.uleb128 0x3
 6905 01d2 0E       		.uleb128 0xe
 6906 01d3 3A       		.uleb128 0x3a
 6907 01d4 0B       		.uleb128 0xb
 6908 01d5 3B       		.uleb128 0x3b
 6909 01d6 05       		.uleb128 0x5
 6910 01d7 49       		.uleb128 0x49
 6911 01d8 13       		.uleb128 0x13
 6912 01d9 02       		.uleb128 0x2
 6913 01da 17       		.uleb128 0x17
 6914 01db 00       		.byte	0
 6915 01dc 00       		.byte	0
 6916 01dd 24       		.uleb128 0x24
 6917 01de 1D       		.uleb128 0x1d
 6918 01df 01       		.byte	0x1
 6919 01e0 31       		.uleb128 0x31
 6920 01e1 13       		.uleb128 0x13
 6921 01e2 52       		.uleb128 0x52
 6922 01e3 01       		.uleb128 0x1
 6923 01e4 55       		.uleb128 0x55
 6924 01e5 17       		.uleb128 0x17
 6925 01e6 58       		.uleb128 0x58
 6926 01e7 0B       		.uleb128 0xb
 6927 01e8 59       		.uleb128 0x59
 6928 01e9 05       		.uleb128 0x5
 6929 01ea 01       		.uleb128 0x1
 6930 01eb 13       		.uleb128 0x13
 6931 01ec 00       		.byte	0
 6932 01ed 00       		.byte	0
 6933 01ee 25       		.uleb128 0x25
 6934 01ef 05       		.uleb128 0x5
 6935 01f0 00       		.byte	0
 6936 01f1 31       		.uleb128 0x31
 6937 01f2 13       		.uleb128 0x13
 6938 01f3 02       		.uleb128 0x2
 6939 01f4 17       		.uleb128 0x17
 6940 01f5 00       		.byte	0
 6941 01f6 00       		.byte	0
 6942 01f7 26       		.uleb128 0x26
 6943 01f8 0B       		.uleb128 0xb
 6944 01f9 01       		.byte	0x1
 6945 01fa 55       		.uleb128 0x55
 6946 01fb 17       		.uleb128 0x17
 6947 01fc 00       		.byte	0
 6948 01fd 00       		.byte	0
 6949 01fe 27       		.uleb128 0x27
 6950 01ff 34       		.uleb128 0x34
 6951 0200 00       		.byte	0
 6952 0201 31       		.uleb128 0x31
 6953 0202 13       		.uleb128 0x13
 6954 0203 02       		.uleb128 0x2
 6955 0204 17       		.uleb128 0x17
 6956 0205 00       		.byte	0
 6957 0206 00       		.byte	0
 6958 0207 28       		.uleb128 0x28
 6959 0208 1D       		.uleb128 0x1d
 6960 0209 01       		.byte	0x1
ARM GAS  /var/folders/z0/6xlwn_996xz3mwq1cgzkbq4r0000gp/T//ccBgBTlB.s 			page 143


 6961 020a 31       		.uleb128 0x31
 6962 020b 13       		.uleb128 0x13
 6963 020c 52       		.uleb128 0x52
 6964 020d 01       		.uleb128 0x1
 6965 020e 55       		.uleb128 0x55
 6966 020f 17       		.uleb128 0x17
 6967 0210 58       		.uleb128 0x58
 6968 0211 0B       		.uleb128 0xb
 6969 0212 59       		.uleb128 0x59
 6970 0213 0B       		.uleb128 0xb
 6971 0214 01       		.uleb128 0x1
 6972 0215 13       		.uleb128 0x13
 6973 0216 00       		.byte	0
 6974 0217 00       		.byte	0
 6975 0218 29       		.uleb128 0x29
 6976 0219 34       		.uleb128 0x34
 6977 021a 00       		.byte	0
 6978 021b 03       		.uleb128 0x3
 6979 021c 0E       		.uleb128 0xe
 6980 021d 3A       		.uleb128 0x3a
 6981 021e 0B       		.uleb128 0xb
 6982 021f 3B       		.uleb128 0x3b
 6983 0220 0B       		.uleb128 0xb
 6984 0221 49       		.uleb128 0x49
 6985 0222 13       		.uleb128 0x13
 6986 0223 02       		.uleb128 0x2
 6987 0224 18       		.uleb128 0x18
 6988 0225 00       		.byte	0
 6989 0226 00       		.byte	0
 6990 0227 2A       		.uleb128 0x2a
 6991 0228 898201   		.uleb128 0x4109
 6992 022b 00       		.byte	0
 6993 022c 11       		.uleb128 0x11
 6994 022d 01       		.uleb128 0x1
 6995 022e 31       		.uleb128 0x31
 6996 022f 13       		.uleb128 0x13
 6997 0230 00       		.byte	0
 6998 0231 00       		.byte	0
 6999 0232 2B       		.uleb128 0x2b
 7000 0233 01       		.uleb128 0x1
 7001 0234 01       		.byte	0x1
 7002 0235 49       		.uleb128 0x49
 7003 0236 13       		.uleb128 0x13
 7004 0237 01       		.uleb128 0x1
 7005 0238 13       		.uleb128 0x13
 7006 0239 00       		.byte	0
 7007 023a 00       		.byte	0
 7008 023b 2C       		.uleb128 0x2c
 7009 023c 21       		.uleb128 0x21
 7010 023d 00       		.byte	0
 7011 023e 49       		.uleb128 0x49
 7012 023f 13       		.uleb128 0x13
 7013 0240 2F       		.uleb128 0x2f
 7014 0241 0B       		.uleb128 0xb
 7015 0242 00       		.byte	0
 7016 0243 00       		.byte	0
 7017 0244 2D       		.uleb128 0x2d
ARM GAS  /var/folders/z0/6xlwn_996xz3mwq1cgzkbq4r0000gp/T//ccBgBTlB.s 			page 144


 7018 0245 2E       		.uleb128 0x2e
 7019 0246 01       		.byte	0x1
 7020 0247 31       		.uleb128 0x31
 7021 0248 13       		.uleb128 0x13
 7022 0249 11       		.uleb128 0x11
 7023 024a 01       		.uleb128 0x1
 7024 024b 12       		.uleb128 0x12
 7025 024c 06       		.uleb128 0x6
 7026 024d 40       		.uleb128 0x40
 7027 024e 18       		.uleb128 0x18
 7028 024f 9742     		.uleb128 0x2117
 7029 0251 19       		.uleb128 0x19
 7030 0252 01       		.uleb128 0x1
 7031 0253 13       		.uleb128 0x13
 7032 0254 00       		.byte	0
 7033 0255 00       		.byte	0
 7034 0256 2E       		.uleb128 0x2e
 7035 0257 0B       		.uleb128 0xb
 7036 0258 01       		.byte	0x1
 7037 0259 11       		.uleb128 0x11
 7038 025a 01       		.uleb128 0x1
 7039 025b 12       		.uleb128 0x12
 7040 025c 06       		.uleb128 0x6
 7041 025d 00       		.byte	0
 7042 025e 00       		.byte	0
 7043 025f 2F       		.uleb128 0x2f
 7044 0260 34       		.uleb128 0x34
 7045 0261 00       		.byte	0
 7046 0262 31       		.uleb128 0x31
 7047 0263 13       		.uleb128 0x13
 7048 0264 00       		.byte	0
 7049 0265 00       		.byte	0
 7050 0266 30       		.uleb128 0x30
 7051 0267 05       		.uleb128 0x5
 7052 0268 00       		.byte	0
 7053 0269 31       		.uleb128 0x31
 7054 026a 13       		.uleb128 0x13
 7055 026b 02       		.uleb128 0x2
 7056 026c 18       		.uleb128 0x18
 7057 026d 00       		.byte	0
 7058 026e 00       		.byte	0
 7059 026f 31       		.uleb128 0x31
 7060 0270 2E       		.uleb128 0x2e
 7061 0271 01       		.byte	0x1
 7062 0272 3F       		.uleb128 0x3f
 7063 0273 19       		.uleb128 0x19
 7064 0274 03       		.uleb128 0x3
 7065 0275 0E       		.uleb128 0xe
 7066 0276 3A       		.uleb128 0x3a
 7067 0277 0B       		.uleb128 0xb
 7068 0278 3B       		.uleb128 0x3b
 7069 0279 05       		.uleb128 0x5
 7070 027a 27       		.uleb128 0x27
 7071 027b 19       		.uleb128 0x19
 7072 027c 11       		.uleb128 0x11
 7073 027d 01       		.uleb128 0x1
 7074 027e 12       		.uleb128 0x12
ARM GAS  /var/folders/z0/6xlwn_996xz3mwq1cgzkbq4r0000gp/T//ccBgBTlB.s 			page 145


 7075 027f 06       		.uleb128 0x6
 7076 0280 40       		.uleb128 0x40
 7077 0281 18       		.uleb128 0x18
 7078 0282 9742     		.uleb128 0x2117
 7079 0284 19       		.uleb128 0x19
 7080 0285 01       		.uleb128 0x1
 7081 0286 13       		.uleb128 0x13
 7082 0287 00       		.byte	0
 7083 0288 00       		.byte	0
 7084 0289 32       		.uleb128 0x32
 7085 028a 05       		.uleb128 0x5
 7086 028b 00       		.byte	0
 7087 028c 03       		.uleb128 0x3
 7088 028d 0E       		.uleb128 0xe
 7089 028e 3A       		.uleb128 0x3a
 7090 028f 0B       		.uleb128 0xb
 7091 0290 3B       		.uleb128 0x3b
 7092 0291 05       		.uleb128 0x5
 7093 0292 49       		.uleb128 0x49
 7094 0293 13       		.uleb128 0x13
 7095 0294 02       		.uleb128 0x2
 7096 0295 18       		.uleb128 0x18
 7097 0296 00       		.byte	0
 7098 0297 00       		.byte	0
 7099 0298 33       		.uleb128 0x33
 7100 0299 898201   		.uleb128 0x4109
 7101 029c 01       		.byte	0x1
 7102 029d 11       		.uleb128 0x11
 7103 029e 01       		.uleb128 0x1
 7104 029f 9342     		.uleb128 0x2113
 7105 02a1 18       		.uleb128 0x18
 7106 02a2 00       		.byte	0
 7107 02a3 00       		.byte	0
 7108 02a4 34       		.uleb128 0x34
 7109 02a5 34       		.uleb128 0x34
 7110 02a6 00       		.byte	0
 7111 02a7 03       		.uleb128 0x3
 7112 02a8 0E       		.uleb128 0xe
 7113 02a9 3A       		.uleb128 0x3a
 7114 02aa 0B       		.uleb128 0xb
 7115 02ab 3B       		.uleb128 0x3b
 7116 02ac 05       		.uleb128 0x5
 7117 02ad 49       		.uleb128 0x49
 7118 02ae 13       		.uleb128 0x13
 7119 02af 02       		.uleb128 0x2
 7120 02b0 18       		.uleb128 0x18
 7121 02b1 00       		.byte	0
 7122 02b2 00       		.byte	0
 7123 02b3 35       		.uleb128 0x35
 7124 02b4 34       		.uleb128 0x34
 7125 02b5 00       		.byte	0
 7126 02b6 03       		.uleb128 0x3
 7127 02b7 0E       		.uleb128 0xe
 7128 02b8 3A       		.uleb128 0x3a
 7129 02b9 0B       		.uleb128 0xb
 7130 02ba 3B       		.uleb128 0x3b
 7131 02bb 0B       		.uleb128 0xb
ARM GAS  /var/folders/z0/6xlwn_996xz3mwq1cgzkbq4r0000gp/T//ccBgBTlB.s 			page 146


 7132 02bc 49       		.uleb128 0x49
 7133 02bd 13       		.uleb128 0x13
 7134 02be 00       		.byte	0
 7135 02bf 00       		.byte	0
 7136 02c0 36       		.uleb128 0x36
 7137 02c1 34       		.uleb128 0x34
 7138 02c2 00       		.byte	0
 7139 02c3 03       		.uleb128 0x3
 7140 02c4 0E       		.uleb128 0xe
 7141 02c5 3A       		.uleb128 0x3a
 7142 02c6 0B       		.uleb128 0xb
 7143 02c7 3B       		.uleb128 0x3b
 7144 02c8 0B       		.uleb128 0xb
 7145 02c9 49       		.uleb128 0x49
 7146 02ca 13       		.uleb128 0x13
 7147 02cb 3F       		.uleb128 0x3f
 7148 02cc 19       		.uleb128 0x19
 7149 02cd 3C       		.uleb128 0x3c
 7150 02ce 19       		.uleb128 0x19
 7151 02cf 00       		.byte	0
 7152 02d0 00       		.byte	0
 7153 02d1 37       		.uleb128 0x37
 7154 02d2 2E       		.uleb128 0x2e
 7155 02d3 00       		.byte	0
 7156 02d4 3F       		.uleb128 0x3f
 7157 02d5 19       		.uleb128 0x19
 7158 02d6 3C       		.uleb128 0x3c
 7159 02d7 19       		.uleb128 0x19
 7160 02d8 6E       		.uleb128 0x6e
 7161 02d9 0E       		.uleb128 0xe
 7162 02da 03       		.uleb128 0x3
 7163 02db 0E       		.uleb128 0xe
 7164 02dc 3A       		.uleb128 0x3a
 7165 02dd 0B       		.uleb128 0xb
 7166 02de 3B       		.uleb128 0x3b
 7167 02df 0B       		.uleb128 0xb
 7168 02e0 00       		.byte	0
 7169 02e1 00       		.byte	0
 7170 02e2 00       		.byte	0
 7171              		.section	.debug_loc,"",%progbits
 7172              	.Ldebug_loc0:
 7173              	.LLST0:
 7174 0000 00000000 		.4byte	.LVL0
 7175 0004 08000000 		.4byte	.LVL1
 7176 0008 0100     		.2byte	0x1
 7177 000a 50       		.byte	0x50
 7178 000b 08000000 		.4byte	.LVL1
 7179 000f E4000000 		.4byte	.LFE203
 7180 0013 0400     		.2byte	0x4
 7181 0015 F3       		.byte	0xf3
 7182 0016 01       		.uleb128 0x1
 7183 0017 50       		.byte	0x50
 7184 0018 9F       		.byte	0x9f
 7185 0019 00000000 		.4byte	0
 7186 001d 00000000 		.4byte	0
 7187              	.LLST1:
 7188 0021 00000000 		.4byte	.LVL14
ARM GAS  /var/folders/z0/6xlwn_996xz3mwq1cgzkbq4r0000gp/T//ccBgBTlB.s 			page 147


 7189 0025 22000000 		.4byte	.LVL15
 7190 0029 0100     		.2byte	0x1
 7191 002b 50       		.byte	0x50
 7192 002c 22000000 		.4byte	.LVL15
 7193 0030 5A000000 		.4byte	.LVL24
 7194 0034 0100     		.2byte	0x1
 7195 0036 58       		.byte	0x58
 7196 0037 5A000000 		.4byte	.LVL24
 7197 003b 5C000000 		.4byte	.LVL25
 7198 003f 0100     		.2byte	0x1
 7199 0041 50       		.byte	0x50
 7200 0042 5C000000 		.4byte	.LVL25
 7201 0046 60000000 		.4byte	.LVL27
 7202 004a 0100     		.2byte	0x1
 7203 004c 58       		.byte	0x58
 7204 004d 60000000 		.4byte	.LVL27
 7205 0051 68000000 		.4byte	.LVL28
 7206 0055 0400     		.2byte	0x4
 7207 0057 F3       		.byte	0xf3
 7208 0058 01       		.uleb128 0x1
 7209 0059 50       		.byte	0x50
 7210 005a 9F       		.byte	0x9f
 7211 005b 68000000 		.4byte	.LVL28
 7212 005f 8A000000 		.4byte	.LVL33
 7213 0063 0100     		.2byte	0x1
 7214 0065 58       		.byte	0x58
 7215 0066 8A000000 		.4byte	.LVL33
 7216 006a 8C000000 		.4byte	.LVL34
 7217 006e 0100     		.2byte	0x1
 7218 0070 53       		.byte	0x53
 7219 0071 8C000000 		.4byte	.LVL34
 7220 0075 BA000000 		.4byte	.LVL42
 7221 0079 0100     		.2byte	0x1
 7222 007b 58       		.byte	0x58
 7223 007c BA000000 		.4byte	.LVL42
 7224 0080 BC000000 		.4byte	.LVL43
 7225 0084 0100     		.2byte	0x1
 7226 0086 53       		.byte	0x53
 7227 0087 BC000000 		.4byte	.LVL43
 7228 008b EA000000 		.4byte	.LVL51
 7229 008f 0100     		.2byte	0x1
 7230 0091 58       		.byte	0x58
 7231 0092 EA000000 		.4byte	.LVL51
 7232 0096 EC000000 		.4byte	.LVL52
 7233 009a 0100     		.2byte	0x1
 7234 009c 53       		.byte	0x53
 7235 009d EC000000 		.4byte	.LVL52
 7236 00a1 1A010000 		.4byte	.LVL60
 7237 00a5 0100     		.2byte	0x1
 7238 00a7 58       		.byte	0x58
 7239 00a8 1A010000 		.4byte	.LVL60
 7240 00ac 1C010000 		.4byte	.LVL61
 7241 00b0 0100     		.2byte	0x1
 7242 00b2 53       		.byte	0x53
 7243 00b3 1C010000 		.4byte	.LVL61
 7244 00b7 4A010000 		.4byte	.LVL69
 7245 00bb 0100     		.2byte	0x1
ARM GAS  /var/folders/z0/6xlwn_996xz3mwq1cgzkbq4r0000gp/T//ccBgBTlB.s 			page 148


 7246 00bd 58       		.byte	0x58
 7247 00be 4A010000 		.4byte	.LVL69
 7248 00c2 4C010000 		.4byte	.LVL70
 7249 00c6 0100     		.2byte	0x1
 7250 00c8 53       		.byte	0x53
 7251 00c9 4C010000 		.4byte	.LVL70
 7252 00cd 7A010000 		.4byte	.LVL78
 7253 00d1 0100     		.2byte	0x1
 7254 00d3 58       		.byte	0x58
 7255 00d4 7A010000 		.4byte	.LVL78
 7256 00d8 7C010000 		.4byte	.LVL79
 7257 00dc 0100     		.2byte	0x1
 7258 00de 53       		.byte	0x53
 7259 00df 7C010000 		.4byte	.LVL79
 7260 00e3 AA010000 		.4byte	.LVL87
 7261 00e7 0100     		.2byte	0x1
 7262 00e9 58       		.byte	0x58
 7263 00ea AA010000 		.4byte	.LVL87
 7264 00ee AC010000 		.4byte	.LVL88
 7265 00f2 0100     		.2byte	0x1
 7266 00f4 53       		.byte	0x53
 7267 00f5 AC010000 		.4byte	.LVL88
 7268 00f9 DA010000 		.4byte	.LVL96
 7269 00fd 0100     		.2byte	0x1
 7270 00ff 58       		.byte	0x58
 7271 0100 DA010000 		.4byte	.LVL96
 7272 0104 DC010000 		.4byte	.LVL97
 7273 0108 0100     		.2byte	0x1
 7274 010a 53       		.byte	0x53
 7275 010b DC010000 		.4byte	.LVL97
 7276 010f 0A020000 		.4byte	.LVL105
 7277 0113 0100     		.2byte	0x1
 7278 0115 58       		.byte	0x58
 7279 0116 0A020000 		.4byte	.LVL105
 7280 011a 0C020000 		.4byte	.LVL106
 7281 011e 0100     		.2byte	0x1
 7282 0120 53       		.byte	0x53
 7283 0121 0C020000 		.4byte	.LVL106
 7284 0125 3A020000 		.4byte	.LVL114
 7285 0129 0100     		.2byte	0x1
 7286 012b 58       		.byte	0x58
 7287 012c 3A020000 		.4byte	.LVL114
 7288 0130 3C020000 		.4byte	.LVL115
 7289 0134 0100     		.2byte	0x1
 7290 0136 53       		.byte	0x53
 7291 0137 3C020000 		.4byte	.LVL115
 7292 013b 6A020000 		.4byte	.LVL123
 7293 013f 0100     		.2byte	0x1
 7294 0141 58       		.byte	0x58
 7295 0142 6A020000 		.4byte	.LVL123
 7296 0146 6C020000 		.4byte	.LVL124
 7297 014a 0100     		.2byte	0x1
 7298 014c 53       		.byte	0x53
 7299 014d 6C020000 		.4byte	.LVL124
 7300 0151 9A020000 		.4byte	.LVL132
 7301 0155 0100     		.2byte	0x1
 7302 0157 58       		.byte	0x58
ARM GAS  /var/folders/z0/6xlwn_996xz3mwq1cgzkbq4r0000gp/T//ccBgBTlB.s 			page 149


 7303 0158 9A020000 		.4byte	.LVL132
 7304 015c 9C020000 		.4byte	.LVL133
 7305 0160 0100     		.2byte	0x1
 7306 0162 53       		.byte	0x53
 7307 0163 9C020000 		.4byte	.LVL133
 7308 0167 CA020000 		.4byte	.LVL141
 7309 016b 0100     		.2byte	0x1
 7310 016d 58       		.byte	0x58
 7311 016e CA020000 		.4byte	.LVL141
 7312 0172 CC020000 		.4byte	.LVL142
 7313 0176 0100     		.2byte	0x1
 7314 0178 53       		.byte	0x53
 7315 0179 CC020000 		.4byte	.LVL142
 7316 017d F8020000 		.4byte	.LVL150
 7317 0181 0100     		.2byte	0x1
 7318 0183 58       		.byte	0x58
 7319 0184 F8020000 		.4byte	.LVL150
 7320 0188 FA020000 		.4byte	.LVL151
 7321 018c 0100     		.2byte	0x1
 7322 018e 53       		.byte	0x53
 7323 018f FA020000 		.4byte	.LVL151
 7324 0193 4C030000 		.4byte	.LVL159
 7325 0197 0100     		.2byte	0x1
 7326 0199 58       		.byte	0x58
 7327 019a 4C030000 		.4byte	.LVL159
 7328 019e 4E030000 		.4byte	.LVL160
 7329 01a2 0100     		.2byte	0x1
 7330 01a4 53       		.byte	0x53
 7331 01a5 4E030000 		.4byte	.LVL160
 7332 01a9 7A030000 		.4byte	.LVL168
 7333 01ad 0100     		.2byte	0x1
 7334 01af 58       		.byte	0x58
 7335 01b0 7A030000 		.4byte	.LVL168
 7336 01b4 7C030000 		.4byte	.LVL169
 7337 01b8 0100     		.2byte	0x1
 7338 01ba 53       		.byte	0x53
 7339 01bb 7C030000 		.4byte	.LVL169
 7340 01bf D8030000 		.4byte	.LVL184
 7341 01c3 0100     		.2byte	0x1
 7342 01c5 58       		.byte	0x58
 7343 01c6 D8030000 		.4byte	.LVL184
 7344 01ca DA030000 		.4byte	.LVL185
 7345 01ce 0100     		.2byte	0x1
 7346 01d0 53       		.byte	0x53
 7347 01d1 DA030000 		.4byte	.LVL185
 7348 01d5 DC030000 		.4byte	.LVL186
 7349 01d9 0100     		.2byte	0x1
 7350 01db 58       		.byte	0x58
 7351 01dc DC030000 		.4byte	.LVL186
 7352 01e0 DE030000 		.4byte	.LVL187
 7353 01e4 0100     		.2byte	0x1
 7354 01e6 53       		.byte	0x53
 7355 01e7 DE030000 		.4byte	.LVL187
 7356 01eb E0030000 		.4byte	.LVL188
 7357 01ef 0100     		.2byte	0x1
 7358 01f1 58       		.byte	0x58
 7359 01f2 E0030000 		.4byte	.LVL188
ARM GAS  /var/folders/z0/6xlwn_996xz3mwq1cgzkbq4r0000gp/T//ccBgBTlB.s 			page 150


 7360 01f6 E2030000 		.4byte	.LVL189
 7361 01fa 0100     		.2byte	0x1
 7362 01fc 53       		.byte	0x53
 7363 01fd E2030000 		.4byte	.LVL189
 7364 0201 E4030000 		.4byte	.LVL190
 7365 0205 0100     		.2byte	0x1
 7366 0207 58       		.byte	0x58
 7367 0208 E4030000 		.4byte	.LVL190
 7368 020c E6030000 		.4byte	.LVL191
 7369 0210 0100     		.2byte	0x1
 7370 0212 53       		.byte	0x53
 7371 0213 E6030000 		.4byte	.LVL191
 7372 0217 E8030000 		.4byte	.LVL192
 7373 021b 0100     		.2byte	0x1
 7374 021d 58       		.byte	0x58
 7375 021e E8030000 		.4byte	.LVL192
 7376 0222 EA030000 		.4byte	.LVL193
 7377 0226 0100     		.2byte	0x1
 7378 0228 53       		.byte	0x53
 7379 0229 EA030000 		.4byte	.LVL193
 7380 022d EC030000 		.4byte	.LVL194
 7381 0231 0100     		.2byte	0x1
 7382 0233 58       		.byte	0x58
 7383 0234 EC030000 		.4byte	.LVL194
 7384 0238 EE030000 		.4byte	.LVL195
 7385 023c 0100     		.2byte	0x1
 7386 023e 53       		.byte	0x53
 7387 023f EE030000 		.4byte	.LVL195
 7388 0243 F0030000 		.4byte	.LVL196
 7389 0247 0100     		.2byte	0x1
 7390 0249 58       		.byte	0x58
 7391 024a F0030000 		.4byte	.LVL196
 7392 024e F2030000 		.4byte	.LVL197
 7393 0252 0100     		.2byte	0x1
 7394 0254 53       		.byte	0x53
 7395 0255 F2030000 		.4byte	.LVL197
 7396 0259 F4030000 		.4byte	.LVL198
 7397 025d 0100     		.2byte	0x1
 7398 025f 58       		.byte	0x58
 7399 0260 F4030000 		.4byte	.LVL198
 7400 0264 F6030000 		.4byte	.LVL199
 7401 0268 0100     		.2byte	0x1
 7402 026a 53       		.byte	0x53
 7403 026b F6030000 		.4byte	.LVL199
 7404 026f F8030000 		.4byte	.LVL200
 7405 0273 0100     		.2byte	0x1
 7406 0275 58       		.byte	0x58
 7407 0276 F8030000 		.4byte	.LVL200
 7408 027a FA030000 		.4byte	.LVL201
 7409 027e 0100     		.2byte	0x1
 7410 0280 53       		.byte	0x53
 7411 0281 FA030000 		.4byte	.LVL201
 7412 0285 FC030000 		.4byte	.LVL202
 7413 0289 0100     		.2byte	0x1
 7414 028b 58       		.byte	0x58
 7415 028c FC030000 		.4byte	.LVL202
 7416 0290 FE030000 		.4byte	.LVL203
ARM GAS  /var/folders/z0/6xlwn_996xz3mwq1cgzkbq4r0000gp/T//ccBgBTlB.s 			page 151


 7417 0294 0100     		.2byte	0x1
 7418 0296 53       		.byte	0x53
 7419 0297 FE030000 		.4byte	.LVL203
 7420 029b 00040000 		.4byte	.LVL204
 7421 029f 0100     		.2byte	0x1
 7422 02a1 58       		.byte	0x58
 7423 02a2 00040000 		.4byte	.LVL204
 7424 02a6 02040000 		.4byte	.LVL205
 7425 02aa 0100     		.2byte	0x1
 7426 02ac 53       		.byte	0x53
 7427 02ad 02040000 		.4byte	.LVL205
 7428 02b1 04040000 		.4byte	.LVL206
 7429 02b5 0100     		.2byte	0x1
 7430 02b7 58       		.byte	0x58
 7431 02b8 04040000 		.4byte	.LVL206
 7432 02bc 06040000 		.4byte	.LVL207
 7433 02c0 0100     		.2byte	0x1
 7434 02c2 53       		.byte	0x53
 7435 02c3 06040000 		.4byte	.LVL207
 7436 02c7 08040000 		.4byte	.LVL208
 7437 02cb 0100     		.2byte	0x1
 7438 02cd 58       		.byte	0x58
 7439 02ce 08040000 		.4byte	.LVL208
 7440 02d2 0A040000 		.4byte	.LVL209
 7441 02d6 0100     		.2byte	0x1
 7442 02d8 53       		.byte	0x53
 7443 02d9 0A040000 		.4byte	.LVL209
 7444 02dd 0C040000 		.4byte	.LVL210
 7445 02e1 0100     		.2byte	0x1
 7446 02e3 58       		.byte	0x58
 7447 02e4 0C040000 		.4byte	.LVL210
 7448 02e8 0E040000 		.4byte	.LVL211
 7449 02ec 0100     		.2byte	0x1
 7450 02ee 53       		.byte	0x53
 7451 02ef 0E040000 		.4byte	.LVL211
 7452 02f3 10040000 		.4byte	.LVL212
 7453 02f7 0100     		.2byte	0x1
 7454 02f9 58       		.byte	0x58
 7455 02fa 10040000 		.4byte	.LVL212
 7456 02fe 12040000 		.4byte	.LVL213
 7457 0302 0100     		.2byte	0x1
 7458 0304 53       		.byte	0x53
 7459 0305 12040000 		.4byte	.LVL213
 7460 0309 14040000 		.4byte	.LVL214
 7461 030d 0100     		.2byte	0x1
 7462 030f 58       		.byte	0x58
 7463 0310 14040000 		.4byte	.LVL214
 7464 0314 16040000 		.4byte	.LVL215
 7465 0318 0100     		.2byte	0x1
 7466 031a 53       		.byte	0x53
 7467 031b 16040000 		.4byte	.LVL215
 7468 031f 24040000 		.4byte	.LFE200
 7469 0323 0100     		.2byte	0x1
 7470 0325 58       		.byte	0x58
 7471 0326 00000000 		.4byte	0
 7472 032a 00000000 		.4byte	0
 7473              	.LLST2:
ARM GAS  /var/folders/z0/6xlwn_996xz3mwq1cgzkbq4r0000gp/T//ccBgBTlB.s 			page 152


 7474 032e 22000000 		.4byte	.LVL15
 7475 0332 30000000 		.4byte	.LVL18
 7476 0336 0100     		.2byte	0x1
 7477 0338 54       		.byte	0x54
 7478 0339 32000000 		.4byte	.LVL19
 7479 033d 3A000000 		.4byte	.LVL20
 7480 0341 0100     		.2byte	0x1
 7481 0343 54       		.byte	0x54
 7482 0344 68000000 		.4byte	.LVL28
 7483 0348 70000000 		.4byte	.LVL29
 7484 034c 0100     		.2byte	0x1
 7485 034e 54       		.byte	0x54
 7486 034f 00000000 		.4byte	0
 7487 0353 00000000 		.4byte	0
 7488              	.LLST3:
 7489 0357 BA030000 		.4byte	.LVL180
 7490 035b D8030000 		.4byte	.LVL184
 7491 035f 0200     		.2byte	0x2
 7492 0361 31       		.byte	0x31
 7493 0362 9F       		.byte	0x9f
 7494 0363 00000000 		.4byte	0
 7495 0367 00000000 		.4byte	0
 7496              	.LLST4:
 7497 036b A0030000 		.4byte	.LVL176
 7498 036f AC030000 		.4byte	.LVL178
 7499 0373 0200     		.2byte	0x2
 7500 0375 30       		.byte	0x30
 7501 0376 9F       		.byte	0x9f
 7502 0377 AC030000 		.4byte	.LVL178
 7503 037b C8030000 		.4byte	.LVL182
 7504 037f 0200     		.2byte	0x2
 7505 0381 31       		.byte	0x31
 7506 0382 9F       		.byte	0x9f
 7507 0383 C8030000 		.4byte	.LVL182
 7508 0387 D8030000 		.4byte	.LVL184
 7509 038b 0200     		.2byte	0x2
 7510 038d 30       		.byte	0x30
 7511 038e 9F       		.byte	0x9f
 7512 038f 00000000 		.4byte	0
 7513 0393 00000000 		.4byte	0
 7514              	.LLST5:
 7515 0397 82000000 		.4byte	.LVL32
 7516 039b 8E000000 		.4byte	.LVL35
 7517 039f 0100     		.2byte	0x1
 7518 03a1 51       		.byte	0x51
 7519 03a2 8E000000 		.4byte	.LVL35
 7520 03a6 A2000000 		.4byte	.LVL39
 7521 03aa 0200     		.2byte	0x2
 7522 03ac 78       		.byte	0x78
 7523 03ad 08       		.sleb128 8
 7524 03ae 0C040000 		.4byte	.LVL210
 7525 03b2 10040000 		.4byte	.LVL212
 7526 03b6 0100     		.2byte	0x1
 7527 03b8 51       		.byte	0x51
 7528 03b9 00000000 		.4byte	0
 7529 03bd 00000000 		.4byte	0
 7530              	.LLST6:
ARM GAS  /var/folders/z0/6xlwn_996xz3mwq1cgzkbq4r0000gp/T//ccBgBTlB.s 			page 153


 7531 03c1 82000000 		.4byte	.LVL32
 7532 03c5 8E000000 		.4byte	.LVL35
 7533 03c9 0200     		.2byte	0x2
 7534 03cb 30       		.byte	0x30
 7535 03cc 9F       		.byte	0x9f
 7536 03cd 8E000000 		.4byte	.LVL35
 7537 03d1 92000000 		.4byte	.LVL36
 7538 03d5 0100     		.2byte	0x1
 7539 03d7 53       		.byte	0x53
 7540 03d8 9E000000 		.4byte	.LVL38
 7541 03dc A2000000 		.4byte	.LVL39
 7542 03e0 0100     		.2byte	0x1
 7543 03e2 53       		.byte	0x53
 7544 03e3 0C040000 		.4byte	.LVL210
 7545 03e7 10040000 		.4byte	.LVL212
 7546 03eb 0200     		.2byte	0x2
 7547 03ed 30       		.byte	0x30
 7548 03ee 9F       		.byte	0x9f
 7549 03ef 00000000 		.4byte	0
 7550 03f3 00000000 		.4byte	0
 7551              	.LLST7:
 7552 03f7 82000000 		.4byte	.LVL32
 7553 03fb 8E000000 		.4byte	.LVL35
 7554 03ff 0200     		.2byte	0x2
 7555 0401 30       		.byte	0x30
 7556 0402 9F       		.byte	0x9f
 7557 0403 8E000000 		.4byte	.LVL35
 7558 0407 96000000 		.4byte	.LVL37
 7559 040b 0800     		.2byte	0x8
 7560 040d 78       		.byte	0x78
 7561 040e 08       		.sleb128 8
 7562 040f 06       		.byte	0x6
 7563 0410 20       		.byte	0x20
 7564 0411 71       		.byte	0x71
 7565 0412 00       		.sleb128 0
 7566 0413 22       		.byte	0x22
 7567 0414 9F       		.byte	0x9f
 7568 0415 96000000 		.4byte	.LVL37
 7569 0419 9E000000 		.4byte	.LVL38
 7570 041d 0900     		.2byte	0x9
 7571 041f 71       		.byte	0x71
 7572 0420 00       		.sleb128 0
 7573 0421 78       		.byte	0x78
 7574 0422 08       		.sleb128 8
 7575 0423 06       		.byte	0x6
 7576 0424 1C       		.byte	0x1c
 7577 0425 32       		.byte	0x32
 7578 0426 1C       		.byte	0x1c
 7579 0427 9F       		.byte	0x9f
 7580 0428 0C040000 		.4byte	.LVL210
 7581 042c 10040000 		.4byte	.LVL212
 7582 0430 0200     		.2byte	0x2
 7583 0432 30       		.byte	0x30
 7584 0433 9F       		.byte	0x9f
 7585 0434 00000000 		.4byte	0
 7586 0438 00000000 		.4byte	0
 7587              	.LLST8:
ARM GAS  /var/folders/z0/6xlwn_996xz3mwq1cgzkbq4r0000gp/T//ccBgBTlB.s 			page 154


 7588 043c B2000000 		.4byte	.LVL41
 7589 0440 BE000000 		.4byte	.LVL44
 7590 0444 0100     		.2byte	0x1
 7591 0446 51       		.byte	0x51
 7592 0447 BE000000 		.4byte	.LVL44
 7593 044b D2000000 		.4byte	.LVL48
 7594 044f 0200     		.2byte	0x2
 7595 0451 78       		.byte	0x78
 7596 0452 08       		.sleb128 8
 7597 0453 FC030000 		.4byte	.LVL202
 7598 0457 00040000 		.4byte	.LVL204
 7599 045b 0100     		.2byte	0x1
 7600 045d 51       		.byte	0x51
 7601 045e 00000000 		.4byte	0
 7602 0462 00000000 		.4byte	0
 7603              	.LLST9:
 7604 0466 B2000000 		.4byte	.LVL41
 7605 046a BE000000 		.4byte	.LVL44
 7606 046e 0200     		.2byte	0x2
 7607 0470 30       		.byte	0x30
 7608 0471 9F       		.byte	0x9f
 7609 0472 BE000000 		.4byte	.LVL44
 7610 0476 C2000000 		.4byte	.LVL45
 7611 047a 0100     		.2byte	0x1
 7612 047c 53       		.byte	0x53
 7613 047d CE000000 		.4byte	.LVL47
 7614 0481 D2000000 		.4byte	.LVL48
 7615 0485 0100     		.2byte	0x1
 7616 0487 53       		.byte	0x53
 7617 0488 FC030000 		.4byte	.LVL202
 7618 048c 00040000 		.4byte	.LVL204
 7619 0490 0200     		.2byte	0x2
 7620 0492 30       		.byte	0x30
 7621 0493 9F       		.byte	0x9f
 7622 0494 00000000 		.4byte	0
 7623 0498 00000000 		.4byte	0
 7624              	.LLST10:
 7625 049c B2000000 		.4byte	.LVL41
 7626 04a0 BE000000 		.4byte	.LVL44
 7627 04a4 0200     		.2byte	0x2
 7628 04a6 30       		.byte	0x30
 7629 04a7 9F       		.byte	0x9f
 7630 04a8 BE000000 		.4byte	.LVL44
 7631 04ac C6000000 		.4byte	.LVL46
 7632 04b0 0800     		.2byte	0x8
 7633 04b2 78       		.byte	0x78
 7634 04b3 08       		.sleb128 8
 7635 04b4 06       		.byte	0x6
 7636 04b5 20       		.byte	0x20
 7637 04b6 71       		.byte	0x71
 7638 04b7 00       		.sleb128 0
 7639 04b8 22       		.byte	0x22
 7640 04b9 9F       		.byte	0x9f
 7641 04ba C6000000 		.4byte	.LVL46
 7642 04be CE000000 		.4byte	.LVL47
 7643 04c2 0900     		.2byte	0x9
 7644 04c4 71       		.byte	0x71
ARM GAS  /var/folders/z0/6xlwn_996xz3mwq1cgzkbq4r0000gp/T//ccBgBTlB.s 			page 155


 7645 04c5 00       		.sleb128 0
 7646 04c6 78       		.byte	0x78
 7647 04c7 08       		.sleb128 8
 7648 04c8 06       		.byte	0x6
 7649 04c9 1C       		.byte	0x1c
 7650 04ca 32       		.byte	0x32
 7651 04cb 1C       		.byte	0x1c
 7652 04cc 9F       		.byte	0x9f
 7653 04cd FC030000 		.4byte	.LVL202
 7654 04d1 00040000 		.4byte	.LVL204
 7655 04d5 0200     		.2byte	0x2
 7656 04d7 30       		.byte	0x30
 7657 04d8 9F       		.byte	0x9f
 7658 04d9 00000000 		.4byte	0
 7659 04dd 00000000 		.4byte	0
 7660              	.LLST11:
 7661 04e1 E2000000 		.4byte	.LVL50
 7662 04e5 EE000000 		.4byte	.LVL53
 7663 04e9 0100     		.2byte	0x1
 7664 04eb 51       		.byte	0x51
 7665 04ec EE000000 		.4byte	.LVL53
 7666 04f0 02010000 		.4byte	.LVL57
 7667 04f4 0200     		.2byte	0x2
 7668 04f6 78       		.byte	0x78
 7669 04f7 08       		.sleb128 8
 7670 04f8 EC030000 		.4byte	.LVL194
 7671 04fc F0030000 		.4byte	.LVL196
 7672 0500 0100     		.2byte	0x1
 7673 0502 51       		.byte	0x51
 7674 0503 00000000 		.4byte	0
 7675 0507 00000000 		.4byte	0
 7676              	.LLST12:
 7677 050b E2000000 		.4byte	.LVL50
 7678 050f EE000000 		.4byte	.LVL53
 7679 0513 0200     		.2byte	0x2
 7680 0515 30       		.byte	0x30
 7681 0516 9F       		.byte	0x9f
 7682 0517 EE000000 		.4byte	.LVL53
 7683 051b F2000000 		.4byte	.LVL54
 7684 051f 0100     		.2byte	0x1
 7685 0521 53       		.byte	0x53
 7686 0522 FE000000 		.4byte	.LVL56
 7687 0526 02010000 		.4byte	.LVL57
 7688 052a 0100     		.2byte	0x1
 7689 052c 53       		.byte	0x53
 7690 052d EC030000 		.4byte	.LVL194
 7691 0531 F0030000 		.4byte	.LVL196
 7692 0535 0200     		.2byte	0x2
 7693 0537 30       		.byte	0x30
 7694 0538 9F       		.byte	0x9f
 7695 0539 00000000 		.4byte	0
 7696 053d 00000000 		.4byte	0
 7697              	.LLST13:
 7698 0541 E2000000 		.4byte	.LVL50
 7699 0545 EE000000 		.4byte	.LVL53
 7700 0549 0200     		.2byte	0x2
 7701 054b 30       		.byte	0x30
ARM GAS  /var/folders/z0/6xlwn_996xz3mwq1cgzkbq4r0000gp/T//ccBgBTlB.s 			page 156


 7702 054c 9F       		.byte	0x9f
 7703 054d EE000000 		.4byte	.LVL53
 7704 0551 F6000000 		.4byte	.LVL55
 7705 0555 0800     		.2byte	0x8
 7706 0557 78       		.byte	0x78
 7707 0558 08       		.sleb128 8
 7708 0559 06       		.byte	0x6
 7709 055a 20       		.byte	0x20
 7710 055b 71       		.byte	0x71
 7711 055c 00       		.sleb128 0
 7712 055d 22       		.byte	0x22
 7713 055e 9F       		.byte	0x9f
 7714 055f F6000000 		.4byte	.LVL55
 7715 0563 FE000000 		.4byte	.LVL56
 7716 0567 0900     		.2byte	0x9
 7717 0569 71       		.byte	0x71
 7718 056a 00       		.sleb128 0
 7719 056b 78       		.byte	0x78
 7720 056c 08       		.sleb128 8
 7721 056d 06       		.byte	0x6
 7722 056e 1C       		.byte	0x1c
 7723 056f 32       		.byte	0x32
 7724 0570 1C       		.byte	0x1c
 7725 0571 9F       		.byte	0x9f
 7726 0572 EC030000 		.4byte	.LVL194
 7727 0576 F0030000 		.4byte	.LVL196
 7728 057a 0200     		.2byte	0x2
 7729 057c 30       		.byte	0x30
 7730 057d 9F       		.byte	0x9f
 7731 057e 00000000 		.4byte	0
 7732 0582 00000000 		.4byte	0
 7733              	.LLST14:
 7734 0586 12010000 		.4byte	.LVL59
 7735 058a 1E010000 		.4byte	.LVL62
 7736 058e 0100     		.2byte	0x1
 7737 0590 51       		.byte	0x51
 7738 0591 1E010000 		.4byte	.LVL62
 7739 0595 32010000 		.4byte	.LVL66
 7740 0599 0200     		.2byte	0x2
 7741 059b 78       		.byte	0x78
 7742 059c 08       		.sleb128 8
 7743 059d 14040000 		.4byte	.LVL214
 7744 05a1 24040000 		.4byte	.LFE200
 7745 05a5 0100     		.2byte	0x1
 7746 05a7 51       		.byte	0x51
 7747 05a8 00000000 		.4byte	0
 7748 05ac 00000000 		.4byte	0
 7749              	.LLST15:
 7750 05b0 12010000 		.4byte	.LVL59
 7751 05b4 1E010000 		.4byte	.LVL62
 7752 05b8 0200     		.2byte	0x2
 7753 05ba 30       		.byte	0x30
 7754 05bb 9F       		.byte	0x9f
 7755 05bc 1E010000 		.4byte	.LVL62
 7756 05c0 22010000 		.4byte	.LVL63
 7757 05c4 0100     		.2byte	0x1
 7758 05c6 53       		.byte	0x53
ARM GAS  /var/folders/z0/6xlwn_996xz3mwq1cgzkbq4r0000gp/T//ccBgBTlB.s 			page 157


 7759 05c7 2E010000 		.4byte	.LVL65
 7760 05cb 32010000 		.4byte	.LVL66
 7761 05cf 0100     		.2byte	0x1
 7762 05d1 53       		.byte	0x53
 7763 05d2 14040000 		.4byte	.LVL214
 7764 05d6 24040000 		.4byte	.LFE200
 7765 05da 0200     		.2byte	0x2
 7766 05dc 30       		.byte	0x30
 7767 05dd 9F       		.byte	0x9f
 7768 05de 00000000 		.4byte	0
 7769 05e2 00000000 		.4byte	0
 7770              	.LLST16:
 7771 05e6 12010000 		.4byte	.LVL59
 7772 05ea 1E010000 		.4byte	.LVL62
 7773 05ee 0200     		.2byte	0x2
 7774 05f0 30       		.byte	0x30
 7775 05f1 9F       		.byte	0x9f
 7776 05f2 1E010000 		.4byte	.LVL62
 7777 05f6 26010000 		.4byte	.LVL64
 7778 05fa 0800     		.2byte	0x8
 7779 05fc 78       		.byte	0x78
 7780 05fd 08       		.sleb128 8
 7781 05fe 06       		.byte	0x6
 7782 05ff 20       		.byte	0x20
 7783 0600 71       		.byte	0x71
 7784 0601 00       		.sleb128 0
 7785 0602 22       		.byte	0x22
 7786 0603 9F       		.byte	0x9f
 7787 0604 26010000 		.4byte	.LVL64
 7788 0608 2E010000 		.4byte	.LVL65
 7789 060c 0900     		.2byte	0x9
 7790 060e 71       		.byte	0x71
 7791 060f 00       		.sleb128 0
 7792 0610 78       		.byte	0x78
 7793 0611 08       		.sleb128 8
 7794 0612 06       		.byte	0x6
 7795 0613 1C       		.byte	0x1c
 7796 0614 32       		.byte	0x32
 7797 0615 1C       		.byte	0x1c
 7798 0616 9F       		.byte	0x9f
 7799 0617 14040000 		.4byte	.LVL214
 7800 061b 24040000 		.4byte	.LFE200
 7801 061f 0200     		.2byte	0x2
 7802 0621 30       		.byte	0x30
 7803 0622 9F       		.byte	0x9f
 7804 0623 00000000 		.4byte	0
 7805 0627 00000000 		.4byte	0
 7806              	.LLST17:
 7807 062b 42010000 		.4byte	.LVL68
 7808 062f 4E010000 		.4byte	.LVL71
 7809 0633 0100     		.2byte	0x1
 7810 0635 51       		.byte	0x51
 7811 0636 4E010000 		.4byte	.LVL71
 7812 063a 62010000 		.4byte	.LVL75
 7813 063e 0200     		.2byte	0x2
 7814 0640 78       		.byte	0x78
 7815 0641 08       		.sleb128 8
ARM GAS  /var/folders/z0/6xlwn_996xz3mwq1cgzkbq4r0000gp/T//ccBgBTlB.s 			page 158


 7816 0642 F0030000 		.4byte	.LVL196
 7817 0646 F4030000 		.4byte	.LVL198
 7818 064a 0100     		.2byte	0x1
 7819 064c 51       		.byte	0x51
 7820 064d 00000000 		.4byte	0
 7821 0651 00000000 		.4byte	0
 7822              	.LLST18:
 7823 0655 42010000 		.4byte	.LVL68
 7824 0659 4E010000 		.4byte	.LVL71
 7825 065d 0200     		.2byte	0x2
 7826 065f 30       		.byte	0x30
 7827 0660 9F       		.byte	0x9f
 7828 0661 4E010000 		.4byte	.LVL71
 7829 0665 52010000 		.4byte	.LVL72
 7830 0669 0100     		.2byte	0x1
 7831 066b 53       		.byte	0x53
 7832 066c 5E010000 		.4byte	.LVL74
 7833 0670 62010000 		.4byte	.LVL75
 7834 0674 0100     		.2byte	0x1
 7835 0676 53       		.byte	0x53
 7836 0677 F0030000 		.4byte	.LVL196
 7837 067b F4030000 		.4byte	.LVL198
 7838 067f 0200     		.2byte	0x2
 7839 0681 30       		.byte	0x30
 7840 0682 9F       		.byte	0x9f
 7841 0683 00000000 		.4byte	0
 7842 0687 00000000 		.4byte	0
 7843              	.LLST19:
 7844 068b 42010000 		.4byte	.LVL68
 7845 068f 4E010000 		.4byte	.LVL71
 7846 0693 0200     		.2byte	0x2
 7847 0695 30       		.byte	0x30
 7848 0696 9F       		.byte	0x9f
 7849 0697 4E010000 		.4byte	.LVL71
 7850 069b 56010000 		.4byte	.LVL73
 7851 069f 0800     		.2byte	0x8
 7852 06a1 78       		.byte	0x78
 7853 06a2 08       		.sleb128 8
 7854 06a3 06       		.byte	0x6
 7855 06a4 20       		.byte	0x20
 7856 06a5 71       		.byte	0x71
 7857 06a6 00       		.sleb128 0
 7858 06a7 22       		.byte	0x22
 7859 06a8 9F       		.byte	0x9f
 7860 06a9 56010000 		.4byte	.LVL73
 7861 06ad 5E010000 		.4byte	.LVL74
 7862 06b1 0900     		.2byte	0x9
 7863 06b3 71       		.byte	0x71
 7864 06b4 00       		.sleb128 0
 7865 06b5 78       		.byte	0x78
 7866 06b6 08       		.sleb128 8
 7867 06b7 06       		.byte	0x6
 7868 06b8 1C       		.byte	0x1c
 7869 06b9 32       		.byte	0x32
 7870 06ba 1C       		.byte	0x1c
 7871 06bb 9F       		.byte	0x9f
 7872 06bc F0030000 		.4byte	.LVL196
ARM GAS  /var/folders/z0/6xlwn_996xz3mwq1cgzkbq4r0000gp/T//ccBgBTlB.s 			page 159


 7873 06c0 F4030000 		.4byte	.LVL198
 7874 06c4 0200     		.2byte	0x2
 7875 06c6 30       		.byte	0x30
 7876 06c7 9F       		.byte	0x9f
 7877 06c8 00000000 		.4byte	0
 7878 06cc 00000000 		.4byte	0
 7879              	.LLST20:
 7880 06d0 72010000 		.4byte	.LVL77
 7881 06d4 7E010000 		.4byte	.LVL80
 7882 06d8 0100     		.2byte	0x1
 7883 06da 51       		.byte	0x51
 7884 06db 7E010000 		.4byte	.LVL80
 7885 06df 92010000 		.4byte	.LVL84
 7886 06e3 0200     		.2byte	0x2
 7887 06e5 78       		.byte	0x78
 7888 06e6 08       		.sleb128 8
 7889 06e7 04040000 		.4byte	.LVL206
 7890 06eb 08040000 		.4byte	.LVL208
 7891 06ef 0100     		.2byte	0x1
 7892 06f1 51       		.byte	0x51
 7893 06f2 00000000 		.4byte	0
 7894 06f6 00000000 		.4byte	0
 7895              	.LLST21:
 7896 06fa 72010000 		.4byte	.LVL77
 7897 06fe 7E010000 		.4byte	.LVL80
 7898 0702 0200     		.2byte	0x2
 7899 0704 30       		.byte	0x30
 7900 0705 9F       		.byte	0x9f
 7901 0706 7E010000 		.4byte	.LVL80
 7902 070a 82010000 		.4byte	.LVL81
 7903 070e 0100     		.2byte	0x1
 7904 0710 53       		.byte	0x53
 7905 0711 8E010000 		.4byte	.LVL83
 7906 0715 92010000 		.4byte	.LVL84
 7907 0719 0100     		.2byte	0x1
 7908 071b 53       		.byte	0x53
 7909 071c 04040000 		.4byte	.LVL206
 7910 0720 08040000 		.4byte	.LVL208
 7911 0724 0200     		.2byte	0x2
 7912 0726 30       		.byte	0x30
 7913 0727 9F       		.byte	0x9f
 7914 0728 00000000 		.4byte	0
 7915 072c 00000000 		.4byte	0
 7916              	.LLST22:
 7917 0730 72010000 		.4byte	.LVL77
 7918 0734 7E010000 		.4byte	.LVL80
 7919 0738 0200     		.2byte	0x2
 7920 073a 30       		.byte	0x30
 7921 073b 9F       		.byte	0x9f
 7922 073c 7E010000 		.4byte	.LVL80
 7923 0740 86010000 		.4byte	.LVL82
 7924 0744 0800     		.2byte	0x8
 7925 0746 78       		.byte	0x78
 7926 0747 08       		.sleb128 8
 7927 0748 06       		.byte	0x6
 7928 0749 20       		.byte	0x20
 7929 074a 71       		.byte	0x71
ARM GAS  /var/folders/z0/6xlwn_996xz3mwq1cgzkbq4r0000gp/T//ccBgBTlB.s 			page 160


 7930 074b 00       		.sleb128 0
 7931 074c 22       		.byte	0x22
 7932 074d 9F       		.byte	0x9f
 7933 074e 86010000 		.4byte	.LVL82
 7934 0752 8E010000 		.4byte	.LVL83
 7935 0756 0900     		.2byte	0x9
 7936 0758 71       		.byte	0x71
 7937 0759 00       		.sleb128 0
 7938 075a 78       		.byte	0x78
 7939 075b 08       		.sleb128 8
 7940 075c 06       		.byte	0x6
 7941 075d 1C       		.byte	0x1c
 7942 075e 32       		.byte	0x32
 7943 075f 1C       		.byte	0x1c
 7944 0760 9F       		.byte	0x9f
 7945 0761 04040000 		.4byte	.LVL206
 7946 0765 08040000 		.4byte	.LVL208
 7947 0769 0200     		.2byte	0x2
 7948 076b 30       		.byte	0x30
 7949 076c 9F       		.byte	0x9f
 7950 076d 00000000 		.4byte	0
 7951 0771 00000000 		.4byte	0
 7952              	.LLST23:
 7953 0775 A2010000 		.4byte	.LVL86
 7954 0779 AE010000 		.4byte	.LVL89
 7955 077d 0100     		.2byte	0x1
 7956 077f 51       		.byte	0x51
 7957 0780 AE010000 		.4byte	.LVL89
 7958 0784 C2010000 		.4byte	.LVL93
 7959 0788 0200     		.2byte	0x2
 7960 078a 78       		.byte	0x78
 7961 078b 08       		.sleb128 8
 7962 078c F4030000 		.4byte	.LVL198
 7963 0790 F8030000 		.4byte	.LVL200
 7964 0794 0100     		.2byte	0x1
 7965 0796 51       		.byte	0x51
 7966 0797 00000000 		.4byte	0
 7967 079b 00000000 		.4byte	0
 7968              	.LLST24:
 7969 079f A2010000 		.4byte	.LVL86
 7970 07a3 AE010000 		.4byte	.LVL89
 7971 07a7 0200     		.2byte	0x2
 7972 07a9 30       		.byte	0x30
 7973 07aa 9F       		.byte	0x9f
 7974 07ab AE010000 		.4byte	.LVL89
 7975 07af B2010000 		.4byte	.LVL90
 7976 07b3 0100     		.2byte	0x1
 7977 07b5 53       		.byte	0x53
 7978 07b6 BE010000 		.4byte	.LVL92
 7979 07ba C2010000 		.4byte	.LVL93
 7980 07be 0100     		.2byte	0x1
 7981 07c0 53       		.byte	0x53
 7982 07c1 F4030000 		.4byte	.LVL198
 7983 07c5 F8030000 		.4byte	.LVL200
 7984 07c9 0200     		.2byte	0x2
 7985 07cb 30       		.byte	0x30
 7986 07cc 9F       		.byte	0x9f
ARM GAS  /var/folders/z0/6xlwn_996xz3mwq1cgzkbq4r0000gp/T//ccBgBTlB.s 			page 161


 7987 07cd 00000000 		.4byte	0
 7988 07d1 00000000 		.4byte	0
 7989              	.LLST25:
 7990 07d5 A2010000 		.4byte	.LVL86
 7991 07d9 AE010000 		.4byte	.LVL89
 7992 07dd 0200     		.2byte	0x2
 7993 07df 30       		.byte	0x30
 7994 07e0 9F       		.byte	0x9f
 7995 07e1 AE010000 		.4byte	.LVL89
 7996 07e5 B6010000 		.4byte	.LVL91
 7997 07e9 0800     		.2byte	0x8
 7998 07eb 78       		.byte	0x78
 7999 07ec 08       		.sleb128 8
 8000 07ed 06       		.byte	0x6
 8001 07ee 20       		.byte	0x20
 8002 07ef 71       		.byte	0x71
 8003 07f0 00       		.sleb128 0
 8004 07f1 22       		.byte	0x22
 8005 07f2 9F       		.byte	0x9f
 8006 07f3 B6010000 		.4byte	.LVL91
 8007 07f7 BE010000 		.4byte	.LVL92
 8008 07fb 0900     		.2byte	0x9
 8009 07fd 71       		.byte	0x71
 8010 07fe 00       		.sleb128 0
 8011 07ff 78       		.byte	0x78
 8012 0800 08       		.sleb128 8
 8013 0801 06       		.byte	0x6
 8014 0802 1C       		.byte	0x1c
 8015 0803 32       		.byte	0x32
 8016 0804 1C       		.byte	0x1c
 8017 0805 9F       		.byte	0x9f
 8018 0806 F4030000 		.4byte	.LVL198
 8019 080a F8030000 		.4byte	.LVL200
 8020 080e 0200     		.2byte	0x2
 8021 0810 30       		.byte	0x30
 8022 0811 9F       		.byte	0x9f
 8023 0812 00000000 		.4byte	0
 8024 0816 00000000 		.4byte	0
 8025              	.LLST26:
 8026 081a D2010000 		.4byte	.LVL95
 8027 081e DE010000 		.4byte	.LVL98
 8028 0822 0100     		.2byte	0x1
 8029 0824 51       		.byte	0x51
 8030 0825 DE010000 		.4byte	.LVL98
 8031 0829 F2010000 		.4byte	.LVL102
 8032 082d 0200     		.2byte	0x2
 8033 082f 78       		.byte	0x78
 8034 0830 08       		.sleb128 8
 8035 0831 10040000 		.4byte	.LVL212
 8036 0835 14040000 		.4byte	.LVL214
 8037 0839 0100     		.2byte	0x1
 8038 083b 51       		.byte	0x51
 8039 083c 00000000 		.4byte	0
 8040 0840 00000000 		.4byte	0
 8041              	.LLST27:
 8042 0844 D2010000 		.4byte	.LVL95
 8043 0848 DE010000 		.4byte	.LVL98
ARM GAS  /var/folders/z0/6xlwn_996xz3mwq1cgzkbq4r0000gp/T//ccBgBTlB.s 			page 162


 8044 084c 0200     		.2byte	0x2
 8045 084e 30       		.byte	0x30
 8046 084f 9F       		.byte	0x9f
 8047 0850 DE010000 		.4byte	.LVL98
 8048 0854 E2010000 		.4byte	.LVL99
 8049 0858 0100     		.2byte	0x1
 8050 085a 53       		.byte	0x53
 8051 085b EE010000 		.4byte	.LVL101
 8052 085f F2010000 		.4byte	.LVL102
 8053 0863 0100     		.2byte	0x1
 8054 0865 53       		.byte	0x53
 8055 0866 10040000 		.4byte	.LVL212
 8056 086a 14040000 		.4byte	.LVL214
 8057 086e 0200     		.2byte	0x2
 8058 0870 30       		.byte	0x30
 8059 0871 9F       		.byte	0x9f
 8060 0872 00000000 		.4byte	0
 8061 0876 00000000 		.4byte	0
 8062              	.LLST28:
 8063 087a D2010000 		.4byte	.LVL95
 8064 087e DE010000 		.4byte	.LVL98
 8065 0882 0200     		.2byte	0x2
 8066 0884 30       		.byte	0x30
 8067 0885 9F       		.byte	0x9f
 8068 0886 DE010000 		.4byte	.LVL98
 8069 088a E6010000 		.4byte	.LVL100
 8070 088e 0800     		.2byte	0x8
 8071 0890 78       		.byte	0x78
 8072 0891 08       		.sleb128 8
 8073 0892 06       		.byte	0x6
 8074 0893 20       		.byte	0x20
 8075 0894 71       		.byte	0x71
 8076 0895 00       		.sleb128 0
 8077 0896 22       		.byte	0x22
 8078 0897 9F       		.byte	0x9f
 8079 0898 E6010000 		.4byte	.LVL100
 8080 089c EE010000 		.4byte	.LVL101
 8081 08a0 0900     		.2byte	0x9
 8082 08a2 71       		.byte	0x71
 8083 08a3 00       		.sleb128 0
 8084 08a4 78       		.byte	0x78
 8085 08a5 08       		.sleb128 8
 8086 08a6 06       		.byte	0x6
 8087 08a7 1C       		.byte	0x1c
 8088 08a8 32       		.byte	0x32
 8089 08a9 1C       		.byte	0x1c
 8090 08aa 9F       		.byte	0x9f
 8091 08ab 10040000 		.4byte	.LVL212
 8092 08af 14040000 		.4byte	.LVL214
 8093 08b3 0200     		.2byte	0x2
 8094 08b5 30       		.byte	0x30
 8095 08b6 9F       		.byte	0x9f
 8096 08b7 00000000 		.4byte	0
 8097 08bb 00000000 		.4byte	0
 8098              	.LLST29:
 8099 08bf 02020000 		.4byte	.LVL104
 8100 08c3 0E020000 		.4byte	.LVL107
ARM GAS  /var/folders/z0/6xlwn_996xz3mwq1cgzkbq4r0000gp/T//ccBgBTlB.s 			page 163


 8101 08c7 0100     		.2byte	0x1
 8102 08c9 51       		.byte	0x51
 8103 08ca 0E020000 		.4byte	.LVL107
 8104 08ce 22020000 		.4byte	.LVL111
 8105 08d2 0200     		.2byte	0x2
 8106 08d4 78       		.byte	0x78
 8107 08d5 08       		.sleb128 8
 8108 08d6 08040000 		.4byte	.LVL208
 8109 08da 0C040000 		.4byte	.LVL210
 8110 08de 0100     		.2byte	0x1
 8111 08e0 51       		.byte	0x51
 8112 08e1 00000000 		.4byte	0
 8113 08e5 00000000 		.4byte	0
 8114              	.LLST30:
 8115 08e9 02020000 		.4byte	.LVL104
 8116 08ed 0E020000 		.4byte	.LVL107
 8117 08f1 0200     		.2byte	0x2
 8118 08f3 30       		.byte	0x30
 8119 08f4 9F       		.byte	0x9f
 8120 08f5 0E020000 		.4byte	.LVL107
 8121 08f9 12020000 		.4byte	.LVL108
 8122 08fd 0100     		.2byte	0x1
 8123 08ff 53       		.byte	0x53
 8124 0900 1E020000 		.4byte	.LVL110
 8125 0904 22020000 		.4byte	.LVL111
 8126 0908 0100     		.2byte	0x1
 8127 090a 53       		.byte	0x53
 8128 090b 08040000 		.4byte	.LVL208
 8129 090f 0C040000 		.4byte	.LVL210
 8130 0913 0200     		.2byte	0x2
 8131 0915 30       		.byte	0x30
 8132 0916 9F       		.byte	0x9f
 8133 0917 00000000 		.4byte	0
 8134 091b 00000000 		.4byte	0
 8135              	.LLST31:
 8136 091f 02020000 		.4byte	.LVL104
 8137 0923 0E020000 		.4byte	.LVL107
 8138 0927 0200     		.2byte	0x2
 8139 0929 30       		.byte	0x30
 8140 092a 9F       		.byte	0x9f
 8141 092b 0E020000 		.4byte	.LVL107
 8142 092f 16020000 		.4byte	.LVL109
 8143 0933 0800     		.2byte	0x8
 8144 0935 78       		.byte	0x78
 8145 0936 08       		.sleb128 8
 8146 0937 06       		.byte	0x6
 8147 0938 20       		.byte	0x20
 8148 0939 71       		.byte	0x71
 8149 093a 00       		.sleb128 0
 8150 093b 22       		.byte	0x22
 8151 093c 9F       		.byte	0x9f
 8152 093d 16020000 		.4byte	.LVL109
 8153 0941 1E020000 		.4byte	.LVL110
 8154 0945 0900     		.2byte	0x9
 8155 0947 71       		.byte	0x71
 8156 0948 00       		.sleb128 0
 8157 0949 78       		.byte	0x78
ARM GAS  /var/folders/z0/6xlwn_996xz3mwq1cgzkbq4r0000gp/T//ccBgBTlB.s 			page 164


 8158 094a 08       		.sleb128 8
 8159 094b 06       		.byte	0x6
 8160 094c 1C       		.byte	0x1c
 8161 094d 32       		.byte	0x32
 8162 094e 1C       		.byte	0x1c
 8163 094f 9F       		.byte	0x9f
 8164 0950 08040000 		.4byte	.LVL208
 8165 0954 0C040000 		.4byte	.LVL210
 8166 0958 0200     		.2byte	0x2
 8167 095a 30       		.byte	0x30
 8168 095b 9F       		.byte	0x9f
 8169 095c 00000000 		.4byte	0
 8170 0960 00000000 		.4byte	0
 8171              	.LLST32:
 8172 0964 32020000 		.4byte	.LVL113
 8173 0968 3E020000 		.4byte	.LVL116
 8174 096c 0100     		.2byte	0x1
 8175 096e 51       		.byte	0x51
 8176 096f 3E020000 		.4byte	.LVL116
 8177 0973 52020000 		.4byte	.LVL120
 8178 0977 0200     		.2byte	0x2
 8179 0979 78       		.byte	0x78
 8180 097a 08       		.sleb128 8
 8181 097b 00040000 		.4byte	.LVL204
 8182 097f 04040000 		.4byte	.LVL206
 8183 0983 0100     		.2byte	0x1
 8184 0985 51       		.byte	0x51
 8185 0986 00000000 		.4byte	0
 8186 098a 00000000 		.4byte	0
 8187              	.LLST33:
 8188 098e 32020000 		.4byte	.LVL113
 8189 0992 3E020000 		.4byte	.LVL116
 8190 0996 0200     		.2byte	0x2
 8191 0998 30       		.byte	0x30
 8192 0999 9F       		.byte	0x9f
 8193 099a 3E020000 		.4byte	.LVL116
 8194 099e 42020000 		.4byte	.LVL117
 8195 09a2 0100     		.2byte	0x1
 8196 09a4 53       		.byte	0x53
 8197 09a5 4E020000 		.4byte	.LVL119
 8198 09a9 52020000 		.4byte	.LVL120
 8199 09ad 0100     		.2byte	0x1
 8200 09af 53       		.byte	0x53
 8201 09b0 00040000 		.4byte	.LVL204
 8202 09b4 04040000 		.4byte	.LVL206
 8203 09b8 0200     		.2byte	0x2
 8204 09ba 30       		.byte	0x30
 8205 09bb 9F       		.byte	0x9f
 8206 09bc 00000000 		.4byte	0
 8207 09c0 00000000 		.4byte	0
 8208              	.LLST34:
 8209 09c4 32020000 		.4byte	.LVL113
 8210 09c8 3E020000 		.4byte	.LVL116
 8211 09cc 0200     		.2byte	0x2
 8212 09ce 30       		.byte	0x30
 8213 09cf 9F       		.byte	0x9f
 8214 09d0 3E020000 		.4byte	.LVL116
ARM GAS  /var/folders/z0/6xlwn_996xz3mwq1cgzkbq4r0000gp/T//ccBgBTlB.s 			page 165


 8215 09d4 46020000 		.4byte	.LVL118
 8216 09d8 0800     		.2byte	0x8
 8217 09da 78       		.byte	0x78
 8218 09db 08       		.sleb128 8
 8219 09dc 06       		.byte	0x6
 8220 09dd 20       		.byte	0x20
 8221 09de 71       		.byte	0x71
 8222 09df 00       		.sleb128 0
 8223 09e0 22       		.byte	0x22
 8224 09e1 9F       		.byte	0x9f
 8225 09e2 46020000 		.4byte	.LVL118
 8226 09e6 4E020000 		.4byte	.LVL119
 8227 09ea 0900     		.2byte	0x9
 8228 09ec 71       		.byte	0x71
 8229 09ed 00       		.sleb128 0
 8230 09ee 78       		.byte	0x78
 8231 09ef 08       		.sleb128 8
 8232 09f0 06       		.byte	0x6
 8233 09f1 1C       		.byte	0x1c
 8234 09f2 32       		.byte	0x32
 8235 09f3 1C       		.byte	0x1c
 8236 09f4 9F       		.byte	0x9f
 8237 09f5 00040000 		.4byte	.LVL204
 8238 09f9 04040000 		.4byte	.LVL206
 8239 09fd 0200     		.2byte	0x2
 8240 09ff 30       		.byte	0x30
 8241 0a00 9F       		.byte	0x9f
 8242 0a01 00000000 		.4byte	0
 8243 0a05 00000000 		.4byte	0
 8244              	.LLST35:
 8245 0a09 62020000 		.4byte	.LVL122
 8246 0a0d 6E020000 		.4byte	.LVL125
 8247 0a11 0100     		.2byte	0x1
 8248 0a13 51       		.byte	0x51
 8249 0a14 6E020000 		.4byte	.LVL125
 8250 0a18 82020000 		.4byte	.LVL129
 8251 0a1c 0200     		.2byte	0x2
 8252 0a1e 78       		.byte	0x78
 8253 0a1f 08       		.sleb128 8
 8254 0a20 E4030000 		.4byte	.LVL190
 8255 0a24 E8030000 		.4byte	.LVL192
 8256 0a28 0100     		.2byte	0x1
 8257 0a2a 51       		.byte	0x51
 8258 0a2b 00000000 		.4byte	0
 8259 0a2f 00000000 		.4byte	0
 8260              	.LLST36:
 8261 0a33 62020000 		.4byte	.LVL122
 8262 0a37 6E020000 		.4byte	.LVL125
 8263 0a3b 0200     		.2byte	0x2
 8264 0a3d 30       		.byte	0x30
 8265 0a3e 9F       		.byte	0x9f
 8266 0a3f 6E020000 		.4byte	.LVL125
 8267 0a43 72020000 		.4byte	.LVL126
 8268 0a47 0100     		.2byte	0x1
 8269 0a49 53       		.byte	0x53
 8270 0a4a 7E020000 		.4byte	.LVL128
 8271 0a4e 82020000 		.4byte	.LVL129
ARM GAS  /var/folders/z0/6xlwn_996xz3mwq1cgzkbq4r0000gp/T//ccBgBTlB.s 			page 166


 8272 0a52 0100     		.2byte	0x1
 8273 0a54 53       		.byte	0x53
 8274 0a55 E4030000 		.4byte	.LVL190
 8275 0a59 E8030000 		.4byte	.LVL192
 8276 0a5d 0200     		.2byte	0x2
 8277 0a5f 30       		.byte	0x30
 8278 0a60 9F       		.byte	0x9f
 8279 0a61 00000000 		.4byte	0
 8280 0a65 00000000 		.4byte	0
 8281              	.LLST37:
 8282 0a69 62020000 		.4byte	.LVL122
 8283 0a6d 6E020000 		.4byte	.LVL125
 8284 0a71 0200     		.2byte	0x2
 8285 0a73 30       		.byte	0x30
 8286 0a74 9F       		.byte	0x9f
 8287 0a75 6E020000 		.4byte	.LVL125
 8288 0a79 76020000 		.4byte	.LVL127
 8289 0a7d 0800     		.2byte	0x8
 8290 0a7f 78       		.byte	0x78
 8291 0a80 08       		.sleb128 8
 8292 0a81 06       		.byte	0x6
 8293 0a82 20       		.byte	0x20
 8294 0a83 71       		.byte	0x71
 8295 0a84 00       		.sleb128 0
 8296 0a85 22       		.byte	0x22
 8297 0a86 9F       		.byte	0x9f
 8298 0a87 76020000 		.4byte	.LVL127
 8299 0a8b 7E020000 		.4byte	.LVL128
 8300 0a8f 0900     		.2byte	0x9
 8301 0a91 71       		.byte	0x71
 8302 0a92 00       		.sleb128 0
 8303 0a93 78       		.byte	0x78
 8304 0a94 08       		.sleb128 8
 8305 0a95 06       		.byte	0x6
 8306 0a96 1C       		.byte	0x1c
 8307 0a97 32       		.byte	0x32
 8308 0a98 1C       		.byte	0x1c
 8309 0a99 9F       		.byte	0x9f
 8310 0a9a E4030000 		.4byte	.LVL190
 8311 0a9e E8030000 		.4byte	.LVL192
 8312 0aa2 0200     		.2byte	0x2
 8313 0aa4 30       		.byte	0x30
 8314 0aa5 9F       		.byte	0x9f
 8315 0aa6 00000000 		.4byte	0
 8316 0aaa 00000000 		.4byte	0
 8317              	.LLST38:
 8318 0aae 92020000 		.4byte	.LVL131
 8319 0ab2 9E020000 		.4byte	.LVL134
 8320 0ab6 0100     		.2byte	0x1
 8321 0ab8 51       		.byte	0x51
 8322 0ab9 9E020000 		.4byte	.LVL134
 8323 0abd B2020000 		.4byte	.LVL138
 8324 0ac1 0200     		.2byte	0x2
 8325 0ac3 78       		.byte	0x78
 8326 0ac4 08       		.sleb128 8
 8327 0ac5 F8030000 		.4byte	.LVL200
 8328 0ac9 FC030000 		.4byte	.LVL202
ARM GAS  /var/folders/z0/6xlwn_996xz3mwq1cgzkbq4r0000gp/T//ccBgBTlB.s 			page 167


 8329 0acd 0100     		.2byte	0x1
 8330 0acf 51       		.byte	0x51
 8331 0ad0 00000000 		.4byte	0
 8332 0ad4 00000000 		.4byte	0
 8333              	.LLST39:
 8334 0ad8 92020000 		.4byte	.LVL131
 8335 0adc 9E020000 		.4byte	.LVL134
 8336 0ae0 0200     		.2byte	0x2
 8337 0ae2 30       		.byte	0x30
 8338 0ae3 9F       		.byte	0x9f
 8339 0ae4 9E020000 		.4byte	.LVL134
 8340 0ae8 A2020000 		.4byte	.LVL135
 8341 0aec 0100     		.2byte	0x1
 8342 0aee 53       		.byte	0x53
 8343 0aef AE020000 		.4byte	.LVL137
 8344 0af3 B2020000 		.4byte	.LVL138
 8345 0af7 0100     		.2byte	0x1
 8346 0af9 53       		.byte	0x53
 8347 0afa F8030000 		.4byte	.LVL200
 8348 0afe FC030000 		.4byte	.LVL202
 8349 0b02 0200     		.2byte	0x2
 8350 0b04 30       		.byte	0x30
 8351 0b05 9F       		.byte	0x9f
 8352 0b06 00000000 		.4byte	0
 8353 0b0a 00000000 		.4byte	0
 8354              	.LLST40:
 8355 0b0e 92020000 		.4byte	.LVL131
 8356 0b12 9E020000 		.4byte	.LVL134
 8357 0b16 0200     		.2byte	0x2
 8358 0b18 30       		.byte	0x30
 8359 0b19 9F       		.byte	0x9f
 8360 0b1a 9E020000 		.4byte	.LVL134
 8361 0b1e A6020000 		.4byte	.LVL136
 8362 0b22 0800     		.2byte	0x8
 8363 0b24 78       		.byte	0x78
 8364 0b25 08       		.sleb128 8
 8365 0b26 06       		.byte	0x6
 8366 0b27 20       		.byte	0x20
 8367 0b28 71       		.byte	0x71
 8368 0b29 00       		.sleb128 0
 8369 0b2a 22       		.byte	0x22
 8370 0b2b 9F       		.byte	0x9f
 8371 0b2c A6020000 		.4byte	.LVL136
 8372 0b30 AE020000 		.4byte	.LVL137
 8373 0b34 0900     		.2byte	0x9
 8374 0b36 71       		.byte	0x71
 8375 0b37 00       		.sleb128 0
 8376 0b38 78       		.byte	0x78
 8377 0b39 08       		.sleb128 8
 8378 0b3a 06       		.byte	0x6
 8379 0b3b 1C       		.byte	0x1c
 8380 0b3c 32       		.byte	0x32
 8381 0b3d 1C       		.byte	0x1c
 8382 0b3e 9F       		.byte	0x9f
 8383 0b3f F8030000 		.4byte	.LVL200
 8384 0b43 FC030000 		.4byte	.LVL202
 8385 0b47 0200     		.2byte	0x2
ARM GAS  /var/folders/z0/6xlwn_996xz3mwq1cgzkbq4r0000gp/T//ccBgBTlB.s 			page 168


 8386 0b49 30       		.byte	0x30
 8387 0b4a 9F       		.byte	0x9f
 8388 0b4b 00000000 		.4byte	0
 8389 0b4f 00000000 		.4byte	0
 8390              	.LLST41:
 8391 0b53 C2020000 		.4byte	.LVL140
 8392 0b57 CE020000 		.4byte	.LVL143
 8393 0b5b 0100     		.2byte	0x1
 8394 0b5d 51       		.byte	0x51
 8395 0b5e CE020000 		.4byte	.LVL143
 8396 0b62 E2020000 		.4byte	.LVL147
 8397 0b66 0200     		.2byte	0x2
 8398 0b68 78       		.byte	0x78
 8399 0b69 08       		.sleb128 8
 8400 0b6a E8030000 		.4byte	.LVL192
 8401 0b6e EC030000 		.4byte	.LVL194
 8402 0b72 0100     		.2byte	0x1
 8403 0b74 51       		.byte	0x51
 8404 0b75 00000000 		.4byte	0
 8405 0b79 00000000 		.4byte	0
 8406              	.LLST42:
 8407 0b7d C2020000 		.4byte	.LVL140
 8408 0b81 CE020000 		.4byte	.LVL143
 8409 0b85 0200     		.2byte	0x2
 8410 0b87 30       		.byte	0x30
 8411 0b88 9F       		.byte	0x9f
 8412 0b89 CE020000 		.4byte	.LVL143
 8413 0b8d D2020000 		.4byte	.LVL144
 8414 0b91 0100     		.2byte	0x1
 8415 0b93 53       		.byte	0x53
 8416 0b94 DE020000 		.4byte	.LVL146
 8417 0b98 E2020000 		.4byte	.LVL147
 8418 0b9c 0100     		.2byte	0x1
 8419 0b9e 53       		.byte	0x53
 8420 0b9f E8030000 		.4byte	.LVL192
 8421 0ba3 EC030000 		.4byte	.LVL194
 8422 0ba7 0200     		.2byte	0x2
 8423 0ba9 30       		.byte	0x30
 8424 0baa 9F       		.byte	0x9f
 8425 0bab 00000000 		.4byte	0
 8426 0baf 00000000 		.4byte	0
 8427              	.LLST43:
 8428 0bb3 C2020000 		.4byte	.LVL140
 8429 0bb7 CE020000 		.4byte	.LVL143
 8430 0bbb 0200     		.2byte	0x2
 8431 0bbd 30       		.byte	0x30
 8432 0bbe 9F       		.byte	0x9f
 8433 0bbf CE020000 		.4byte	.LVL143
 8434 0bc3 D6020000 		.4byte	.LVL145
 8435 0bc7 0800     		.2byte	0x8
 8436 0bc9 78       		.byte	0x78
 8437 0bca 08       		.sleb128 8
 8438 0bcb 06       		.byte	0x6
 8439 0bcc 20       		.byte	0x20
 8440 0bcd 71       		.byte	0x71
 8441 0bce 00       		.sleb128 0
 8442 0bcf 22       		.byte	0x22
ARM GAS  /var/folders/z0/6xlwn_996xz3mwq1cgzkbq4r0000gp/T//ccBgBTlB.s 			page 169


 8443 0bd0 9F       		.byte	0x9f
 8444 0bd1 D6020000 		.4byte	.LVL145
 8445 0bd5 DE020000 		.4byte	.LVL146
 8446 0bd9 0900     		.2byte	0x9
 8447 0bdb 71       		.byte	0x71
 8448 0bdc 00       		.sleb128 0
 8449 0bdd 78       		.byte	0x78
 8450 0bde 08       		.sleb128 8
 8451 0bdf 06       		.byte	0x6
 8452 0be0 1C       		.byte	0x1c
 8453 0be1 32       		.byte	0x32
 8454 0be2 1C       		.byte	0x1c
 8455 0be3 9F       		.byte	0x9f
 8456 0be4 E8030000 		.4byte	.LVL192
 8457 0be8 EC030000 		.4byte	.LVL194
 8458 0bec 0200     		.2byte	0x2
 8459 0bee 30       		.byte	0x30
 8460 0bef 9F       		.byte	0x9f
 8461 0bf0 00000000 		.4byte	0
 8462 0bf4 00000000 		.4byte	0
 8463              	.LLST44:
 8464 0bf8 F2020000 		.4byte	.LVL149
 8465 0bfc FC020000 		.4byte	.LVL152
 8466 0c00 0100     		.2byte	0x1
 8467 0c02 51       		.byte	0x51
 8468 0c03 FC020000 		.4byte	.LVL152
 8469 0c07 10030000 		.4byte	.LVL156
 8470 0c0b 0200     		.2byte	0x2
 8471 0c0d 78       		.byte	0x78
 8472 0c0e 08       		.sleb128 8
 8473 0c0f D8030000 		.4byte	.LVL184
 8474 0c13 DC030000 		.4byte	.LVL186
 8475 0c17 0100     		.2byte	0x1
 8476 0c19 51       		.byte	0x51
 8477 0c1a 00000000 		.4byte	0
 8478 0c1e 00000000 		.4byte	0
 8479              	.LLST45:
 8480 0c22 F2020000 		.4byte	.LVL149
 8481 0c26 FC020000 		.4byte	.LVL152
 8482 0c2a 0200     		.2byte	0x2
 8483 0c2c 30       		.byte	0x30
 8484 0c2d 9F       		.byte	0x9f
 8485 0c2e FC020000 		.4byte	.LVL152
 8486 0c32 00030000 		.4byte	.LVL153
 8487 0c36 0100     		.2byte	0x1
 8488 0c38 53       		.byte	0x53
 8489 0c39 0C030000 		.4byte	.LVL155
 8490 0c3d 10030000 		.4byte	.LVL156
 8491 0c41 0100     		.2byte	0x1
 8492 0c43 53       		.byte	0x53
 8493 0c44 D8030000 		.4byte	.LVL184
 8494 0c48 DC030000 		.4byte	.LVL186
 8495 0c4c 0200     		.2byte	0x2
 8496 0c4e 30       		.byte	0x30
 8497 0c4f 9F       		.byte	0x9f
 8498 0c50 00000000 		.4byte	0
 8499 0c54 00000000 		.4byte	0
ARM GAS  /var/folders/z0/6xlwn_996xz3mwq1cgzkbq4r0000gp/T//ccBgBTlB.s 			page 170


 8500              	.LLST46:
 8501 0c58 F2020000 		.4byte	.LVL149
 8502 0c5c FC020000 		.4byte	.LVL152
 8503 0c60 0200     		.2byte	0x2
 8504 0c62 30       		.byte	0x30
 8505 0c63 9F       		.byte	0x9f
 8506 0c64 FC020000 		.4byte	.LVL152
 8507 0c68 04030000 		.4byte	.LVL154
 8508 0c6c 0800     		.2byte	0x8
 8509 0c6e 78       		.byte	0x78
 8510 0c6f 08       		.sleb128 8
 8511 0c70 06       		.byte	0x6
 8512 0c71 20       		.byte	0x20
 8513 0c72 71       		.byte	0x71
 8514 0c73 00       		.sleb128 0
 8515 0c74 22       		.byte	0x22
 8516 0c75 9F       		.byte	0x9f
 8517 0c76 04030000 		.4byte	.LVL154
 8518 0c7a 0C030000 		.4byte	.LVL155
 8519 0c7e 0900     		.2byte	0x9
 8520 0c80 71       		.byte	0x71
 8521 0c81 00       		.sleb128 0
 8522 0c82 78       		.byte	0x78
 8523 0c83 08       		.sleb128 8
 8524 0c84 06       		.byte	0x6
 8525 0c85 1C       		.byte	0x1c
 8526 0c86 32       		.byte	0x32
 8527 0c87 1C       		.byte	0x1c
 8528 0c88 9F       		.byte	0x9f
 8529 0c89 D8030000 		.4byte	.LVL184
 8530 0c8d DC030000 		.4byte	.LVL186
 8531 0c91 0200     		.2byte	0x2
 8532 0c93 30       		.byte	0x30
 8533 0c94 9F       		.byte	0x9f
 8534 0c95 00000000 		.4byte	0
 8535 0c99 00000000 		.4byte	0
 8536              	.LLST47:
 8537 0c9d 46030000 		.4byte	.LVL158
 8538 0ca1 50030000 		.4byte	.LVL161
 8539 0ca5 0100     		.2byte	0x1
 8540 0ca7 51       		.byte	0x51
 8541 0ca8 50030000 		.4byte	.LVL161
 8542 0cac 64030000 		.4byte	.LVL165
 8543 0cb0 0200     		.2byte	0x2
 8544 0cb2 78       		.byte	0x78
 8545 0cb3 08       		.sleb128 8
 8546 0cb4 E0030000 		.4byte	.LVL188
 8547 0cb8 E4030000 		.4byte	.LVL190
 8548 0cbc 0100     		.2byte	0x1
 8549 0cbe 51       		.byte	0x51
 8550 0cbf 00000000 		.4byte	0
 8551 0cc3 00000000 		.4byte	0
 8552              	.LLST48:
 8553 0cc7 46030000 		.4byte	.LVL158
 8554 0ccb 50030000 		.4byte	.LVL161
 8555 0ccf 0200     		.2byte	0x2
 8556 0cd1 30       		.byte	0x30
ARM GAS  /var/folders/z0/6xlwn_996xz3mwq1cgzkbq4r0000gp/T//ccBgBTlB.s 			page 171


 8557 0cd2 9F       		.byte	0x9f
 8558 0cd3 50030000 		.4byte	.LVL161
 8559 0cd7 54030000 		.4byte	.LVL162
 8560 0cdb 0100     		.2byte	0x1
 8561 0cdd 53       		.byte	0x53
 8562 0cde 60030000 		.4byte	.LVL164
 8563 0ce2 64030000 		.4byte	.LVL165
 8564 0ce6 0100     		.2byte	0x1
 8565 0ce8 53       		.byte	0x53
 8566 0ce9 E0030000 		.4byte	.LVL188
 8567 0ced E4030000 		.4byte	.LVL190
 8568 0cf1 0200     		.2byte	0x2
 8569 0cf3 30       		.byte	0x30
 8570 0cf4 9F       		.byte	0x9f
 8571 0cf5 00000000 		.4byte	0
 8572 0cf9 00000000 		.4byte	0
 8573              	.LLST49:
 8574 0cfd 46030000 		.4byte	.LVL158
 8575 0d01 50030000 		.4byte	.LVL161
 8576 0d05 0200     		.2byte	0x2
 8577 0d07 30       		.byte	0x30
 8578 0d08 9F       		.byte	0x9f
 8579 0d09 50030000 		.4byte	.LVL161
 8580 0d0d 58030000 		.4byte	.LVL163
 8581 0d11 0800     		.2byte	0x8
 8582 0d13 78       		.byte	0x78
 8583 0d14 08       		.sleb128 8
 8584 0d15 06       		.byte	0x6
 8585 0d16 20       		.byte	0x20
 8586 0d17 71       		.byte	0x71
 8587 0d18 00       		.sleb128 0
 8588 0d19 22       		.byte	0x22
 8589 0d1a 9F       		.byte	0x9f
 8590 0d1b 58030000 		.4byte	.LVL163
 8591 0d1f 60030000 		.4byte	.LVL164
 8592 0d23 0900     		.2byte	0x9
 8593 0d25 71       		.byte	0x71
 8594 0d26 00       		.sleb128 0
 8595 0d27 78       		.byte	0x78
 8596 0d28 08       		.sleb128 8
 8597 0d29 06       		.byte	0x6
 8598 0d2a 1C       		.byte	0x1c
 8599 0d2b 32       		.byte	0x32
 8600 0d2c 1C       		.byte	0x1c
 8601 0d2d 9F       		.byte	0x9f
 8602 0d2e E0030000 		.4byte	.LVL188
 8603 0d32 E4030000 		.4byte	.LVL190
 8604 0d36 0200     		.2byte	0x2
 8605 0d38 30       		.byte	0x30
 8606 0d39 9F       		.byte	0x9f
 8607 0d3a 00000000 		.4byte	0
 8608 0d3e 00000000 		.4byte	0
 8609              	.LLST50:
 8610 0d42 74030000 		.4byte	.LVL167
 8611 0d46 7E030000 		.4byte	.LVL170
 8612 0d4a 0100     		.2byte	0x1
 8613 0d4c 51       		.byte	0x51
ARM GAS  /var/folders/z0/6xlwn_996xz3mwq1cgzkbq4r0000gp/T//ccBgBTlB.s 			page 172


 8614 0d4d 7E030000 		.4byte	.LVL170
 8615 0d51 92030000 		.4byte	.LVL174
 8616 0d55 0200     		.2byte	0x2
 8617 0d57 78       		.byte	0x78
 8618 0d58 08       		.sleb128 8
 8619 0d59 DC030000 		.4byte	.LVL186
 8620 0d5d E0030000 		.4byte	.LVL188
 8621 0d61 0100     		.2byte	0x1
 8622 0d63 51       		.byte	0x51
 8623 0d64 00000000 		.4byte	0
 8624 0d68 00000000 		.4byte	0
 8625              	.LLST51:
 8626 0d6c 74030000 		.4byte	.LVL167
 8627 0d70 7E030000 		.4byte	.LVL170
 8628 0d74 0200     		.2byte	0x2
 8629 0d76 30       		.byte	0x30
 8630 0d77 9F       		.byte	0x9f
 8631 0d78 7E030000 		.4byte	.LVL170
 8632 0d7c 82030000 		.4byte	.LVL171
 8633 0d80 0100     		.2byte	0x1
 8634 0d82 53       		.byte	0x53
 8635 0d83 8E030000 		.4byte	.LVL173
 8636 0d87 92030000 		.4byte	.LVL174
 8637 0d8b 0100     		.2byte	0x1
 8638 0d8d 53       		.byte	0x53
 8639 0d8e DC030000 		.4byte	.LVL186
 8640 0d92 E0030000 		.4byte	.LVL188
 8641 0d96 0200     		.2byte	0x2
 8642 0d98 30       		.byte	0x30
 8643 0d99 9F       		.byte	0x9f
 8644 0d9a 00000000 		.4byte	0
 8645 0d9e 00000000 		.4byte	0
 8646              	.LLST52:
 8647 0da2 74030000 		.4byte	.LVL167
 8648 0da6 7E030000 		.4byte	.LVL170
 8649 0daa 0200     		.2byte	0x2
 8650 0dac 30       		.byte	0x30
 8651 0dad 9F       		.byte	0x9f
 8652 0dae 7E030000 		.4byte	.LVL170
 8653 0db2 86030000 		.4byte	.LVL172
 8654 0db6 0800     		.2byte	0x8
 8655 0db8 78       		.byte	0x78
 8656 0db9 08       		.sleb128 8
 8657 0dba 06       		.byte	0x6
 8658 0dbb 20       		.byte	0x20
 8659 0dbc 71       		.byte	0x71
 8660 0dbd 00       		.sleb128 0
 8661 0dbe 22       		.byte	0x22
 8662 0dbf 9F       		.byte	0x9f
 8663 0dc0 86030000 		.4byte	.LVL172
 8664 0dc4 8E030000 		.4byte	.LVL173
 8665 0dc8 0900     		.2byte	0x9
 8666 0dca 71       		.byte	0x71
 8667 0dcb 00       		.sleb128 0
 8668 0dcc 78       		.byte	0x78
 8669 0dcd 08       		.sleb128 8
 8670 0dce 06       		.byte	0x6
ARM GAS  /var/folders/z0/6xlwn_996xz3mwq1cgzkbq4r0000gp/T//ccBgBTlB.s 			page 173


 8671 0dcf 1C       		.byte	0x1c
 8672 0dd0 32       		.byte	0x32
 8673 0dd1 1C       		.byte	0x1c
 8674 0dd2 9F       		.byte	0x9f
 8675 0dd3 DC030000 		.4byte	.LVL186
 8676 0dd7 E0030000 		.4byte	.LVL188
 8677 0ddb 0200     		.2byte	0x2
 8678 0ddd 30       		.byte	0x30
 8679 0dde 9F       		.byte	0x9f
 8680 0ddf 00000000 		.4byte	0
 8681 0de3 00000000 		.4byte	0
 8682              	.LLST53:
 8683 0de7 00000000 		.4byte	.LVL216
 8684 0deb 08000000 		.4byte	.LVL217
 8685 0def 0100     		.2byte	0x1
 8686 0df1 50       		.byte	0x50
 8687 0df2 08000000 		.4byte	.LVL217
 8688 0df6 58000000 		.4byte	.LFE205
 8689 0dfa 0400     		.2byte	0x4
 8690 0dfc F3       		.byte	0xf3
 8691 0dfd 01       		.uleb128 0x1
 8692 0dfe 50       		.byte	0x50
 8693 0dff 9F       		.byte	0x9f
 8694 0e00 00000000 		.4byte	0
 8695 0e04 00000000 		.4byte	0
 8696              	.LLST54:
 8697 0e08 00000000 		.4byte	.LVL222
 8698 0e0c 10000000 		.4byte	.LVL223
 8699 0e10 0100     		.2byte	0x1
 8700 0e12 50       		.byte	0x50
 8701 0e13 10000000 		.4byte	.LVL223
 8702 0e17 E0020000 		.4byte	.LFE199
 8703 0e1b 0400     		.2byte	0x4
 8704 0e1d F3       		.byte	0xf3
 8705 0e1e 01       		.uleb128 0x1
 8706 0e1f 50       		.byte	0x50
 8707 0e20 9F       		.byte	0x9f
 8708 0e21 00000000 		.4byte	0
 8709 0e25 00000000 		.4byte	0
 8710              	.LLST55:
 8711 0e29 00000000 		.4byte	.LVL222
 8712 0e2d 10000000 		.4byte	.LVL223
 8713 0e31 0200     		.2byte	0x2
 8714 0e33 30       		.byte	0x30
 8715 0e34 9F       		.byte	0x9f
 8716 0e35 10000000 		.4byte	.LVL223
 8717 0e39 1E000000 		.4byte	.LVL226
 8718 0e3d 0100     		.2byte	0x1
 8719 0e3f 54       		.byte	0x54
 8720 0e40 20000000 		.4byte	.LVL227
 8721 0e44 28000000 		.4byte	.LVL228
 8722 0e48 0100     		.2byte	0x1
 8723 0e4a 54       		.byte	0x54
 8724 0e4b 48000000 		.4byte	.LVL234
 8725 0e4f 50000000 		.4byte	.LVL235
 8726 0e53 0100     		.2byte	0x1
 8727 0e55 54       		.byte	0x54
ARM GAS  /var/folders/z0/6xlwn_996xz3mwq1cgzkbq4r0000gp/T//ccBgBTlB.s 			page 174


 8728 0e56 00000000 		.4byte	0
 8729 0e5a 00000000 		.4byte	0
 8730              	.LLST56:
 8731 0e5e 00000000 		.4byte	.LVL222
 8732 0e62 44000000 		.4byte	.LVL233
 8733 0e66 0200     		.2byte	0x2
 8734 0e68 30       		.byte	0x30
 8735 0e69 9F       		.byte	0x9f
 8736 0e6a 48000000 		.4byte	.LVL234
 8737 0e6e E0020000 		.4byte	.LFE199
 8738 0e72 0200     		.2byte	0x2
 8739 0e74 31       		.byte	0x31
 8740 0e75 9F       		.byte	0x9f
 8741 0e76 00000000 		.4byte	0
 8742 0e7a 00000000 		.4byte	0
 8743              	.LLST57:
 8744 0e7e 28000000 		.4byte	.LVL228
 8745 0e82 36000000 		.4byte	.LVL231
 8746 0e86 0100     		.2byte	0x1
 8747 0e88 54       		.byte	0x54
 8748 0e89 38000000 		.4byte	.LVL232
 8749 0e8d 44000000 		.4byte	.LVL233
 8750 0e91 0100     		.2byte	0x1
 8751 0e93 54       		.byte	0x54
 8752 0e94 54000000 		.4byte	.LVL236
 8753 0e98 56000000 		.4byte	.LVL237
 8754 0e9c 0100     		.2byte	0x1
 8755 0e9e 54       		.byte	0x54
 8756 0e9f 00000000 		.4byte	0
 8757 0ea3 00000000 		.4byte	0
 8758              	.LLST58:
 8759 0ea7 00000000 		.4byte	.LVL268
 8760 0eab 08000000 		.4byte	.LVL269
 8761 0eaf 0100     		.2byte	0x1
 8762 0eb1 50       		.byte	0x50
 8763 0eb2 08000000 		.4byte	.LVL269
 8764 0eb6 58000000 		.4byte	.LFE202
 8765 0eba 0400     		.2byte	0x4
 8766 0ebc F3       		.byte	0xf3
 8767 0ebd 01       		.uleb128 0x1
 8768 0ebe 50       		.byte	0x50
 8769 0ebf 9F       		.byte	0x9f
 8770 0ec0 00000000 		.4byte	0
 8771 0ec4 00000000 		.4byte	0
 8772              	.LLST59:
 8773 0ec8 00000000 		.4byte	.LVL268
 8774 0ecc 22000000 		.4byte	.LVL274
 8775 0ed0 0200     		.2byte	0x2
 8776 0ed2 30       		.byte	0x30
 8777 0ed3 9F       		.byte	0x9f
 8778 0ed4 24000000 		.4byte	.LVL275
 8779 0ed8 58000000 		.4byte	.LFE202
 8780 0edc 0200     		.2byte	0x2
 8781 0ede 31       		.byte	0x31
 8782 0edf 9F       		.byte	0x9f
 8783 0ee0 00000000 		.4byte	0
 8784 0ee4 00000000 		.4byte	0
ARM GAS  /var/folders/z0/6xlwn_996xz3mwq1cgzkbq4r0000gp/T//ccBgBTlB.s 			page 175


 8785              	.LLST60:
 8786 0ee8 00000000 		.4byte	.LVL268
 8787 0eec 10000000 		.4byte	.LVL271
 8788 0ef0 0200     		.2byte	0x2
 8789 0ef2 30       		.byte	0x30
 8790 0ef3 9F       		.byte	0x9f
 8791 0ef4 10000000 		.4byte	.LVL271
 8792 0ef8 1C000000 		.4byte	.LVL273
 8793 0efc 0200     		.2byte	0x2
 8794 0efe 31       		.byte	0x31
 8795 0eff 9F       		.byte	0x9f
 8796 0f00 1C000000 		.4byte	.LVL273
 8797 0f04 22000000 		.4byte	.LVL274
 8798 0f08 0200     		.2byte	0x2
 8799 0f0a 32       		.byte	0x32
 8800 0f0b 9F       		.byte	0x9f
 8801 0f0c 24000000 		.4byte	.LVL275
 8802 0f10 34000000 		.4byte	.LVL278
 8803 0f14 0200     		.2byte	0x2
 8804 0f16 30       		.byte	0x30
 8805 0f17 9F       		.byte	0x9f
 8806 0f18 34000000 		.4byte	.LVL278
 8807 0f1c 58000000 		.4byte	.LFE202
 8808 0f20 0200     		.2byte	0x2
 8809 0f22 31       		.byte	0x31
 8810 0f23 9F       		.byte	0x9f
 8811 0f24 00000000 		.4byte	0
 8812 0f28 00000000 		.4byte	0
 8813              	.LLST61:
 8814 0f2c 24000000 		.4byte	.LVL275
 8815 0f30 34000000 		.4byte	.LVL278
 8816 0f34 0400     		.2byte	0x4
 8817 0f36 F3       		.byte	0xf3
 8818 0f37 01       		.uleb128 0x1
 8819 0f38 50       		.byte	0x50
 8820 0f39 9F       		.byte	0x9f
 8821 0f3a 00000000 		.4byte	0
 8822 0f3e 00000000 		.4byte	0
 8823              	.LLST62:
 8824 0f42 00000000 		.4byte	.LVL281
 8825 0f46 0C000000 		.4byte	.LVL282
 8826 0f4a 0100     		.2byte	0x1
 8827 0f4c 50       		.byte	0x50
 8828 0f4d 0C000000 		.4byte	.LVL282
 8829 0f51 9C000000 		.4byte	.LFE201
 8830 0f55 0400     		.2byte	0x4
 8831 0f57 F3       		.byte	0xf3
 8832 0f58 01       		.uleb128 0x1
 8833 0f59 50       		.byte	0x50
 8834 0f5a 9F       		.byte	0x9f
 8835 0f5b 00000000 		.4byte	0
 8836 0f5f 00000000 		.4byte	0
 8837              	.LLST63:
 8838 0f63 00000000 		.4byte	.LVL281
 8839 0f67 0C000000 		.4byte	.LVL282
 8840 0f6b 0200     		.2byte	0x2
 8841 0f6d 30       		.byte	0x30
ARM GAS  /var/folders/z0/6xlwn_996xz3mwq1cgzkbq4r0000gp/T//ccBgBTlB.s 			page 176


 8842 0f6e 9F       		.byte	0x9f
 8843 0f6f 0C000000 		.4byte	.LVL282
 8844 0f73 1A000000 		.4byte	.LVL285
 8845 0f77 0100     		.2byte	0x1
 8846 0f79 54       		.byte	0x54
 8847 0f7a 1C000000 		.4byte	.LVL286
 8848 0f7e 28000000 		.4byte	.LVL287
 8849 0f82 0100     		.2byte	0x1
 8850 0f84 54       		.byte	0x54
 8851 0f85 2A000000 		.4byte	.LVL288
 8852 0f89 4C000000 		.4byte	.LVL293
 8853 0f8d 0100     		.2byte	0x1
 8854 0f8f 54       		.byte	0x54
 8855 0f90 00000000 		.4byte	0
 8856 0f94 00000000 		.4byte	0
 8857              	.LLST64:
 8858 0f98 44000000 		.4byte	.LVL292
 8859 0f9c 50000000 		.4byte	.LVL294
 8860 0fa0 0200     		.2byte	0x2
 8861 0fa2 30       		.byte	0x30
 8862 0fa3 9F       		.byte	0x9f
 8863 0fa4 60000000 		.4byte	.LVL296
 8864 0fa8 68000000 		.4byte	.LVL297
 8865 0fac 0200     		.2byte	0x2
 8866 0fae 41       		.byte	0x41
 8867 0faf 9F       		.byte	0x9f
 8868 0fb0 00000000 		.4byte	0
 8869 0fb4 00000000 		.4byte	0
 8870              	.LLST65:
 8871 0fb8 00000000 		.4byte	.LVL299
 8872 0fbc 0A000000 		.4byte	.LVL300
 8873 0fc0 0100     		.2byte	0x1
 8874 0fc2 50       		.byte	0x50
 8875 0fc3 0A000000 		.4byte	.LVL300
 8876 0fc7 1A000000 		.4byte	.LVL302
 8877 0fcb 0100     		.2byte	0x1
 8878 0fcd 54       		.byte	0x54
 8879 0fce 1A000000 		.4byte	.LVL302
 8880 0fd2 5A000000 		.4byte	.LVL311
 8881 0fd6 0400     		.2byte	0x4
 8882 0fd8 F3       		.byte	0xf3
 8883 0fd9 01       		.uleb128 0x1
 8884 0fda 50       		.byte	0x50
 8885 0fdb 9F       		.byte	0x9f
 8886 0fdc 5A000000 		.4byte	.LVL311
 8887 0fe0 62000000 		.4byte	.LVL313
 8888 0fe4 0100     		.2byte	0x1
 8889 0fe6 54       		.byte	0x54
 8890 0fe7 62000000 		.4byte	.LVL313
 8891 0feb 94000000 		.4byte	.LFE204
 8892 0fef 0400     		.2byte	0x4
 8893 0ff1 F3       		.byte	0xf3
 8894 0ff2 01       		.uleb128 0x1
 8895 0ff3 50       		.byte	0x50
 8896 0ff4 9F       		.byte	0x9f
 8897 0ff5 00000000 		.4byte	0
 8898 0ff9 00000000 		.4byte	0
ARM GAS  /var/folders/z0/6xlwn_996xz3mwq1cgzkbq4r0000gp/T//ccBgBTlB.s 			page 177


 8899              	.LLST66:
 8900 0ffd 32000000 		.4byte	.LVL304
 8901 1001 50000000 		.4byte	.LVL309
 8902 1005 0100     		.2byte	0x1
 8903 1007 54       		.byte	0x54
 8904 1008 76000000 		.4byte	.LVL315
 8905 100c 94000000 		.4byte	.LFE204
 8906 1010 0100     		.2byte	0x1
 8907 1012 54       		.byte	0x54
 8908 1013 00000000 		.4byte	0
 8909 1017 00000000 		.4byte	0
 8910              	.LLST67:
 8911 101b 32000000 		.4byte	.LVL304
 8912 101f 3C000000 		.4byte	.LVL305
 8913 1023 0200     		.2byte	0x2
 8914 1025 30       		.byte	0x30
 8915 1026 9F       		.byte	0x9f
 8916 1027 3C000000 		.4byte	.LVL305
 8917 102b 40000000 		.4byte	.LVL306
 8918 102f 0100     		.2byte	0x1
 8919 1031 53       		.byte	0x53
 8920 1032 4C000000 		.4byte	.LVL308
 8921 1036 50000000 		.4byte	.LVL309
 8922 103a 0100     		.2byte	0x1
 8923 103c 53       		.byte	0x53
 8924 103d 76000000 		.4byte	.LVL315
 8925 1041 94000000 		.4byte	.LFE204
 8926 1045 0200     		.2byte	0x2
 8927 1047 30       		.byte	0x30
 8928 1048 9F       		.byte	0x9f
 8929 1049 00000000 		.4byte	0
 8930 104d 00000000 		.4byte	0
 8931              	.LLST68:
 8932 1051 32000000 		.4byte	.LVL304
 8933 1055 3C000000 		.4byte	.LVL305
 8934 1059 0200     		.2byte	0x2
 8935 105b 30       		.byte	0x30
 8936 105c 9F       		.byte	0x9f
 8937 105d 3C000000 		.4byte	.LVL305
 8938 1061 44000000 		.4byte	.LVL307
 8939 1065 0700     		.2byte	0x7
 8940 1067 74       		.byte	0x74
 8941 1068 00       		.sleb128 0
 8942 1069 20       		.byte	0x20
 8943 106a 70       		.byte	0x70
 8944 106b 00       		.sleb128 0
 8945 106c 22       		.byte	0x22
 8946 106d 9F       		.byte	0x9f
 8947 106e 44000000 		.4byte	.LVL307
 8948 1072 4C000000 		.4byte	.LVL308
 8949 1076 0800     		.2byte	0x8
 8950 1078 70       		.byte	0x70
 8951 1079 00       		.sleb128 0
 8952 107a 74       		.byte	0x74
 8953 107b 00       		.sleb128 0
 8954 107c 1C       		.byte	0x1c
 8955 107d 32       		.byte	0x32
ARM GAS  /var/folders/z0/6xlwn_996xz3mwq1cgzkbq4r0000gp/T//ccBgBTlB.s 			page 178


 8956 107e 1C       		.byte	0x1c
 8957 107f 9F       		.byte	0x9f
 8958 1080 76000000 		.4byte	.LVL315
 8959 1084 94000000 		.4byte	.LFE204
 8960 1088 0200     		.2byte	0x2
 8961 108a 30       		.byte	0x30
 8962 108b 9F       		.byte	0x9f
 8963 108c 00000000 		.4byte	0
 8964 1090 00000000 		.4byte	0
 8965              	.LLST69:
 8966 1094 62000000 		.4byte	.LVL313
 8967 1098 76000000 		.4byte	.LVL315
 8968 109c 0400     		.2byte	0x4
 8969 109e F3       		.byte	0xf3
 8970 109f 01       		.uleb128 0x1
 8971 10a0 50       		.byte	0x50
 8972 10a1 9F       		.byte	0x9f
 8973 10a2 00000000 		.4byte	0
 8974 10a6 00000000 		.4byte	0
 8975              	.LLST70:
 8976 10aa 00000000 		.4byte	.LVL316
 8977 10ae 0A000000 		.4byte	.LVL317
 8978 10b2 0100     		.2byte	0x1
 8979 10b4 50       		.byte	0x50
 8980 10b5 0A000000 		.4byte	.LVL317
 8981 10b9 20000000 		.4byte	.LVL322
 8982 10bd 0400     		.2byte	0x4
 8983 10bf F3       		.byte	0xf3
 8984 10c0 01       		.uleb128 0x1
 8985 10c1 50       		.byte	0x50
 8986 10c2 9F       		.byte	0x9f
 8987 10c3 20000000 		.4byte	.LVL322
 8988 10c7 22000000 		.4byte	.LVL323
 8989 10cb 0100     		.2byte	0x1
 8990 10cd 50       		.byte	0x50
 8991 10ce 22000000 		.4byte	.LVL323
 8992 10d2 24000000 		.4byte	.LFE198
 8993 10d6 0400     		.2byte	0x4
 8994 10d8 F3       		.byte	0xf3
 8995 10d9 01       		.uleb128 0x1
 8996 10da 50       		.byte	0x50
 8997 10db 9F       		.byte	0x9f
 8998 10dc 00000000 		.4byte	0
 8999 10e0 00000000 		.4byte	0
 9000              	.LLST71:
 9001 10e4 00000000 		.4byte	.LVL316
 9002 10e8 0A000000 		.4byte	.LVL317
 9003 10ec 0200     		.2byte	0x2
 9004 10ee 30       		.byte	0x30
 9005 10ef 9F       		.byte	0x9f
 9006 10f0 0A000000 		.4byte	.LVL317
 9007 10f4 0E000000 		.4byte	.LVL318
 9008 10f8 0100     		.2byte	0x1
 9009 10fa 50       		.byte	0x50
 9010 10fb 1A000000 		.4byte	.LVL320
 9011 10ff 1E000000 		.4byte	.LVL321
 9012 1103 0100     		.2byte	0x1
ARM GAS  /var/folders/z0/6xlwn_996xz3mwq1cgzkbq4r0000gp/T//ccBgBTlB.s 			page 179


 9013 1105 50       		.byte	0x50
 9014 1106 20000000 		.4byte	.LVL322
 9015 110a 24000000 		.4byte	.LFE198
 9016 110e 0200     		.2byte	0x2
 9017 1110 30       		.byte	0x30
 9018 1111 9F       		.byte	0x9f
 9019 1112 00000000 		.4byte	0
 9020 1116 00000000 		.4byte	0
 9021              	.LLST72:
 9022 111a 00000000 		.4byte	.LVL316
 9023 111e 0A000000 		.4byte	.LVL317
 9024 1122 0200     		.2byte	0x2
 9025 1124 30       		.byte	0x30
 9026 1125 9F       		.byte	0x9f
 9027 1126 0A000000 		.4byte	.LVL317
 9028 112a 12000000 		.4byte	.LVL319
 9029 112e 0800     		.2byte	0x8
 9030 1130 F3       		.byte	0xf3
 9031 1131 01       		.uleb128 0x1
 9032 1132 50       		.byte	0x50
 9033 1133 20       		.byte	0x20
 9034 1134 72       		.byte	0x72
 9035 1135 00       		.sleb128 0
 9036 1136 22       		.byte	0x22
 9037 1137 9F       		.byte	0x9f
 9038 1138 12000000 		.4byte	.LVL319
 9039 113c 1A000000 		.4byte	.LVL320
 9040 1140 0900     		.2byte	0x9
 9041 1142 72       		.byte	0x72
 9042 1143 00       		.sleb128 0
 9043 1144 F3       		.byte	0xf3
 9044 1145 01       		.uleb128 0x1
 9045 1146 50       		.byte	0x50
 9046 1147 1C       		.byte	0x1c
 9047 1148 32       		.byte	0x32
 9048 1149 1C       		.byte	0x1c
 9049 114a 9F       		.byte	0x9f
 9050 114b 20000000 		.4byte	.LVL322
 9051 114f 24000000 		.4byte	.LFE198
 9052 1153 0200     		.2byte	0x2
 9053 1155 30       		.byte	0x30
 9054 1156 9F       		.byte	0x9f
 9055 1157 00000000 		.4byte	0
 9056 115b 00000000 		.4byte	0
 9057              	.LLST73:
 9058 115f 00000000 		.4byte	.LVL324
 9059 1163 0C000000 		.4byte	.LVL325
 9060 1167 0100     		.2byte	0x1
 9061 1169 51       		.byte	0x51
 9062 116a 0C000000 		.4byte	.LVL325
 9063 116e 2C000000 		.4byte	.LFE206
 9064 1172 0500     		.2byte	0x5
 9065 1174 03       		.byte	0x3
 9066 1175 00000000 		.4byte	csb_state
 9067 1179 00000000 		.4byte	0
 9068 117d 00000000 		.4byte	0
 9069              	.LLST74:
ARM GAS  /var/folders/z0/6xlwn_996xz3mwq1cgzkbq4r0000gp/T//ccBgBTlB.s 			page 180


 9070 1181 00000000 		.4byte	.LVL326
 9071 1185 14000000 		.4byte	.LVL328
 9072 1189 0100     		.2byte	0x1
 9073 118b 50       		.byte	0x50
 9074 118c 14000000 		.4byte	.LVL328
 9075 1190 2E000000 		.4byte	.LVL332
 9076 1194 0100     		.2byte	0x1
 9077 1196 57       		.byte	0x57
 9078 1197 2E000000 		.4byte	.LVL332
 9079 119b 34000000 		.4byte	.LVL334
 9080 119f 0400     		.2byte	0x4
 9081 11a1 F3       		.byte	0xf3
 9082 11a2 01       		.uleb128 0x1
 9083 11a3 50       		.byte	0x50
 9084 11a4 9F       		.byte	0x9f
 9085 11a5 34000000 		.4byte	.LVL334
 9086 11a9 38000000 		.4byte	.LVL335
 9087 11ad 0100     		.2byte	0x1
 9088 11af 57       		.byte	0x57
 9089 11b0 38000000 		.4byte	.LVL335
 9090 11b4 6C000000 		.4byte	.LFE207
 9091 11b8 0300     		.2byte	0x3
 9092 11ba 77       		.byte	0x77
 9093 11bb 01       		.sleb128 1
 9094 11bc 9F       		.byte	0x9f
 9095 11bd 00000000 		.4byte	0
 9096 11c1 00000000 		.4byte	0
 9097              	.LLST75:
 9098 11c5 00000000 		.4byte	.LVL326
 9099 11c9 10000000 		.4byte	.LVL327
 9100 11cd 0100     		.2byte	0x1
 9101 11cf 51       		.byte	0x51
 9102 11d0 10000000 		.4byte	.LVL327
 9103 11d4 2E000000 		.4byte	.LVL333
 9104 11d8 0100     		.2byte	0x1
 9105 11da 58       		.byte	0x58
 9106 11db 2E000000 		.4byte	.LVL333
 9107 11df 34000000 		.4byte	.LVL334
 9108 11e3 0400     		.2byte	0x4
 9109 11e5 F3       		.byte	0xf3
 9110 11e6 01       		.uleb128 0x1
 9111 11e7 51       		.byte	0x51
 9112 11e8 9F       		.byte	0x9f
 9113 11e9 34000000 		.4byte	.LVL334
 9114 11ed 6C000000 		.4byte	.LFE207
 9115 11f1 0100     		.2byte	0x1
 9116 11f3 58       		.byte	0x58
 9117 11f4 00000000 		.4byte	0
 9118 11f8 00000000 		.4byte	0
 9119              	.LLST76:
 9120 11fc 00000000 		.4byte	.LVL326
 9121 1200 14000000 		.4byte	.LVL328
 9122 1204 0200     		.2byte	0x2
 9123 1206 30       		.byte	0x30
 9124 1207 9F       		.byte	0x9f
 9125 1208 14000000 		.4byte	.LVL328
 9126 120c 2E000000 		.4byte	.LVL332
ARM GAS  /var/folders/z0/6xlwn_996xz3mwq1cgzkbq4r0000gp/T//ccBgBTlB.s 			page 181


 9127 1210 0100     		.2byte	0x1
 9128 1212 54       		.byte	0x54
 9129 1213 34000000 		.4byte	.LVL334
 9130 1217 4A000000 		.4byte	.LVL337
 9131 121b 0100     		.2byte	0x1
 9132 121d 54       		.byte	0x54
 9133 121e 00000000 		.4byte	0
 9134 1222 00000000 		.4byte	0
 9135              	.LLST77:
 9136 1226 00000000 		.4byte	.LVL326
 9137 122a 2E000000 		.4byte	.LVL332
 9138 122e 0200     		.2byte	0x2
 9139 1230 30       		.byte	0x30
 9140 1231 9F       		.byte	0x9f
 9141 1232 34000000 		.4byte	.LVL334
 9142 1236 6C000000 		.4byte	.LFE207
 9143 123a 0200     		.2byte	0x2
 9144 123c 31       		.byte	0x31
 9145 123d 9F       		.byte	0x9f
 9146 123e 00000000 		.4byte	0
 9147 1242 00000000 		.4byte	0
 9148              	.LLST78:
 9149 1246 00000000 		.4byte	.LVL339
 9150 124a 24000000 		.4byte	.LVL342
 9151 124e 0100     		.2byte	0x1
 9152 1250 50       		.byte	0x50
 9153 1251 24000000 		.4byte	.LVL342
 9154 1255 2E000000 		.4byte	.LVL343
 9155 1259 0100     		.2byte	0x1
 9156 125b 54       		.byte	0x54
 9157 125c 2E000000 		.4byte	.LVL343
 9158 1260 6E000000 		.4byte	.LVL354
 9159 1264 0400     		.2byte	0x4
 9160 1266 F3       		.byte	0xf3
 9161 1267 01       		.uleb128 0x1
 9162 1268 50       		.byte	0x50
 9163 1269 9F       		.byte	0x9f
 9164 126a 6E000000 		.4byte	.LVL354
 9165 126e 74000000 		.4byte	.LVL356
 9166 1272 0100     		.2byte	0x1
 9167 1274 50       		.byte	0x50
 9168 1275 74000000 		.4byte	.LVL356
 9169 1279 B4000000 		.4byte	.LFE208
 9170 127d 0100     		.2byte	0x1
 9171 127f 54       		.byte	0x54
 9172 1280 00000000 		.4byte	0
 9173 1284 00000000 		.4byte	0
 9174              	.LLST79:
 9175 1288 00000000 		.4byte	.LVL339
 9176 128c 24000000 		.4byte	.LVL342
 9177 1290 0100     		.2byte	0x1
 9178 1292 51       		.byte	0x51
 9179 1293 24000000 		.4byte	.LVL342
 9180 1297 3A000000 		.4byte	.LVL346
 9181 129b 0100     		.2byte	0x1
 9182 129d 56       		.byte	0x56
 9183 129e 3A000000 		.4byte	.LVL346
ARM GAS  /var/folders/z0/6xlwn_996xz3mwq1cgzkbq4r0000gp/T//ccBgBTlB.s 			page 182


 9184 12a2 3C000000 		.4byte	.LVL347
 9185 12a6 0400     		.2byte	0x4
 9186 12a8 F3       		.byte	0xf3
 9187 12a9 01       		.uleb128 0x1
 9188 12aa 51       		.byte	0x51
 9189 12ab 9F       		.byte	0x9f
 9190 12ac 3C000000 		.4byte	.LVL347
 9191 12b0 6E000000 		.4byte	.LVL354
 9192 12b4 0100     		.2byte	0x1
 9193 12b6 56       		.byte	0x56
 9194 12b7 6E000000 		.4byte	.LVL354
 9195 12bb 72000000 		.4byte	.LVL355
 9196 12bf 0100     		.2byte	0x1
 9197 12c1 51       		.byte	0x51
 9198 12c2 72000000 		.4byte	.LVL355
 9199 12c6 B4000000 		.4byte	.LFE208
 9200 12ca 0100     		.2byte	0x1
 9201 12cc 56       		.byte	0x56
 9202 12cd 00000000 		.4byte	0
 9203 12d1 00000000 		.4byte	0
 9204              	.LLST80:
 9205 12d5 00000000 		.4byte	.LVL339
 9206 12d9 1E000000 		.4byte	.LVL341
 9207 12dd 0100     		.2byte	0x1
 9208 12df 52       		.byte	0x52
 9209 12e0 1E000000 		.4byte	.LVL341
 9210 12e4 3A000000 		.4byte	.LVL345
 9211 12e8 0100     		.2byte	0x1
 9212 12ea 55       		.byte	0x55
 9213 12eb 3A000000 		.4byte	.LVL345
 9214 12ef 3C000000 		.4byte	.LVL347
 9215 12f3 0400     		.2byte	0x4
 9216 12f5 F3       		.byte	0xf3
 9217 12f6 01       		.uleb128 0x1
 9218 12f7 52       		.byte	0x52
 9219 12f8 9F       		.byte	0x9f
 9220 12f9 3C000000 		.4byte	.LVL347
 9221 12fd B4000000 		.4byte	.LFE208
 9222 1301 0100     		.2byte	0x1
 9223 1303 55       		.byte	0x55
 9224 1304 00000000 		.4byte	0
 9225 1308 00000000 		.4byte	0
 9226              	.LLST81:
 9227 130c 10000000 		.4byte	.LVL340
 9228 1310 1E000000 		.4byte	.LVL341
 9229 1314 1400     		.2byte	0x14
 9230 1316 72       		.byte	0x72
 9231 1317 00       		.sleb128 0
 9232 1318 03       		.byte	0x3
 9233 1319 00000000 		.4byte	lastPackCurrentPrintTime
 9234 131d 06       		.byte	0x6
 9235 131e 1C       		.byte	0x1c
 9236 131f 40       		.byte	0x40
 9237 1320 4B       		.byte	0x4b
 9238 1321 24       		.byte	0x24
 9239 1322 22       		.byte	0x22
 9240 1323 0C       		.byte	0xc
ARM GAS  /var/folders/z0/6xlwn_996xz3mwq1cgzkbq4r0000gp/T//ccBgBTlB.s 			page 183


 9241 1324 E8030080 		.4byte	0x800003e8
 9242 1328 2B       		.byte	0x2b
 9243 1329 9F       		.byte	0x9f
 9244 132a 1E000000 		.4byte	.LVL341
 9245 132e 24000000 		.4byte	.LVL342
 9246 1332 1400     		.2byte	0x14
 9247 1334 75       		.byte	0x75
 9248 1335 00       		.sleb128 0
 9249 1336 03       		.byte	0x3
 9250 1337 00000000 		.4byte	lastPackCurrentPrintTime
 9251 133b 06       		.byte	0x6
 9252 133c 1C       		.byte	0x1c
 9253 133d 40       		.byte	0x40
 9254 133e 4B       		.byte	0x4b
 9255 133f 24       		.byte	0x24
 9256 1340 22       		.byte	0x22
 9257 1341 0C       		.byte	0xc
 9258 1342 E8030080 		.4byte	0x800003e8
 9259 1346 2B       		.byte	0x2b
 9260 1347 9F       		.byte	0x9f
 9261 1348 6E000000 		.4byte	.LVL354
 9262 134c 77000000 		.4byte	.LVL357-1
 9263 1350 1400     		.2byte	0x14
 9264 1352 75       		.byte	0x75
 9265 1353 00       		.sleb128 0
 9266 1354 03       		.byte	0x3
 9267 1355 00000000 		.4byte	lastPackCurrentPrintTime
 9268 1359 06       		.byte	0x6
 9269 135a 1C       		.byte	0x1c
 9270 135b 40       		.byte	0x40
 9271 135c 4B       		.byte	0x4b
 9272 135d 24       		.byte	0x24
 9273 135e 22       		.byte	0x22
 9274 135f 0C       		.byte	0xc
 9275 1360 E8030080 		.4byte	0x800003e8
 9276 1364 2B       		.byte	0x2b
 9277 1365 9F       		.byte	0x9f
 9278 1366 00000000 		.4byte	0
 9279 136a 00000000 		.4byte	0
 9280              	.LLST82:
 9281 136e 24000000 		.4byte	.LVL342
 9282 1372 38000000 		.4byte	.LVL344
 9283 1376 1400     		.2byte	0x14
 9284 1378 75       		.byte	0x75
 9285 1379 00       		.sleb128 0
 9286 137a 03       		.byte	0x3
 9287 137b 00000000 		.4byte	lastPackVoltagePrintTime
 9288 137f 06       		.byte	0x6
 9289 1380 1C       		.byte	0x1c
 9290 1381 40       		.byte	0x40
 9291 1382 4B       		.byte	0x4b
 9292 1383 24       		.byte	0x24
 9293 1384 22       		.byte	0x22
 9294 1385 0C       		.byte	0xc
 9295 1386 E8030080 		.4byte	0x800003e8
 9296 138a 2B       		.byte	0x2b
 9297 138b 9F       		.byte	0x9f
ARM GAS  /var/folders/z0/6xlwn_996xz3mwq1cgzkbq4r0000gp/T//ccBgBTlB.s 			page 184


 9298 138c 3C000000 		.4byte	.LVL347
 9299 1390 45000000 		.4byte	.LVL348-1
 9300 1394 1400     		.2byte	0x14
 9301 1396 75       		.byte	0x75
 9302 1397 00       		.sleb128 0
 9303 1398 03       		.byte	0x3
 9304 1399 00000000 		.4byte	lastPackVoltagePrintTime
 9305 139d 06       		.byte	0x6
 9306 139e 1C       		.byte	0x1c
 9307 139f 40       		.byte	0x40
 9308 13a0 4B       		.byte	0x4b
 9309 13a1 24       		.byte	0x24
 9310 13a2 22       		.byte	0x22
 9311 13a3 0C       		.byte	0xc
 9312 13a4 E8030080 		.4byte	0x800003e8
 9313 13a8 2B       		.byte	0x2b
 9314 13a9 9F       		.byte	0x9f
 9315 13aa 00000000 		.4byte	0
 9316 13ae 00000000 		.4byte	0
 9317              		.section	.debug_aranges,"",%progbits
 9318 0000 6C000000 		.4byte	0x6c
 9319 0004 0200     		.2byte	0x2
 9320 0006 00000000 		.4byte	.Ldebug_info0
 9321 000a 04       		.byte	0x4
 9322 000b 00       		.byte	0
 9323 000c 0000     		.2byte	0
 9324 000e 0000     		.2byte	0
 9325 0010 00000000 		.4byte	.LFB203
 9326 0014 E4000000 		.4byte	.LFE203-.LFB203
 9327 0018 00000000 		.4byte	.LFB200
 9328 001c 24040000 		.4byte	.LFE200-.LFB200
 9329 0020 00000000 		.4byte	.LFB205
 9330 0024 58000000 		.4byte	.LFE205-.LFB205
 9331 0028 00000000 		.4byte	.LFB199
 9332 002c E0020000 		.4byte	.LFE199-.LFB199
 9333 0030 00000000 		.4byte	.LFB202
 9334 0034 58000000 		.4byte	.LFE202-.LFB202
 9335 0038 00000000 		.4byte	.LFB201
 9336 003c 9C000000 		.4byte	.LFE201-.LFB201
 9337 0040 00000000 		.4byte	.LFB204
 9338 0044 94000000 		.4byte	.LFE204-.LFB204
 9339 0048 00000000 		.4byte	.LFB198
 9340 004c 24000000 		.4byte	.LFE198-.LFB198
 9341 0050 00000000 		.4byte	.LFB206
 9342 0054 2C000000 		.4byte	.LFE206-.LFB206
 9343 0058 00000000 		.4byte	.LFB207
 9344 005c 6C000000 		.4byte	.LFE207-.LFB207
 9345 0060 00000000 		.4byte	.LFB208
 9346 0064 B4000000 		.4byte	.LFE208-.LFB208
 9347 0068 00000000 		.4byte	0
 9348 006c 00000000 		.4byte	0
 9349              		.section	.debug_ranges,"",%progbits
 9350              	.Ldebug_ranges0:
 9351 0000 42000000 		.4byte	.LBB41
 9352 0004 5A000000 		.4byte	.LBE41
 9353 0008 74000000 		.4byte	.LBB42
 9354 000c 7C000000 		.4byte	.LBE42
ARM GAS  /var/folders/z0/6xlwn_996xz3mwq1cgzkbq4r0000gp/T//ccBgBTlB.s 			page 185


 9355 0010 00000000 		.4byte	0
 9356 0014 00000000 		.4byte	0
 9357 0018 82000000 		.4byte	.LBB44
 9358 001c A2000000 		.4byte	.LBE44
 9359 0020 0C040000 		.4byte	.LBB105
 9360 0024 10040000 		.4byte	.LBE105
 9361 0028 00000000 		.4byte	0
 9362 002c 00000000 		.4byte	0
 9363 0030 B2000000 		.4byte	.LBB47
 9364 0034 D2000000 		.4byte	.LBE47
 9365 0038 FC030000 		.4byte	.LBB101
 9366 003c 00040000 		.4byte	.LBE101
 9367 0040 00000000 		.4byte	0
 9368 0044 00000000 		.4byte	0
 9369 0048 E2000000 		.4byte	.LBB50
 9370 004c 02010000 		.4byte	.LBE50
 9371 0050 EC030000 		.4byte	.LBB97
 9372 0054 F0030000 		.4byte	.LBE97
 9373 0058 00000000 		.4byte	0
 9374 005c 00000000 		.4byte	0
 9375 0060 12010000 		.4byte	.LBB53
 9376 0064 32010000 		.4byte	.LBE53
 9377 0068 14040000 		.4byte	.LBB107
 9378 006c 24040000 		.4byte	.LBE107
 9379 0070 00000000 		.4byte	0
 9380 0074 00000000 		.4byte	0
 9381 0078 42010000 		.4byte	.LBB56
 9382 007c 62010000 		.4byte	.LBE56
 9383 0080 F0030000 		.4byte	.LBB98
 9384 0084 F4030000 		.4byte	.LBE98
 9385 0088 00000000 		.4byte	0
 9386 008c 00000000 		.4byte	0
 9387 0090 72010000 		.4byte	.LBB59
 9388 0094 92010000 		.4byte	.LBE59
 9389 0098 04040000 		.4byte	.LBB103
 9390 009c 08040000 		.4byte	.LBE103
 9391 00a0 00000000 		.4byte	0
 9392 00a4 00000000 		.4byte	0
 9393 00a8 A2010000 		.4byte	.LBB62
 9394 00ac C2010000 		.4byte	.LBE62
 9395 00b0 F4030000 		.4byte	.LBB99
 9396 00b4 F8030000 		.4byte	.LBE99
 9397 00b8 00000000 		.4byte	0
 9398 00bc 00000000 		.4byte	0
 9399 00c0 D2010000 		.4byte	.LBB65
 9400 00c4 F2010000 		.4byte	.LBE65
 9401 00c8 10040000 		.4byte	.LBB106
 9402 00cc 14040000 		.4byte	.LBE106
 9403 00d0 00000000 		.4byte	0
 9404 00d4 00000000 		.4byte	0
 9405 00d8 02020000 		.4byte	.LBB68
 9406 00dc 22020000 		.4byte	.LBE68
 9407 00e0 08040000 		.4byte	.LBB104
 9408 00e4 0C040000 		.4byte	.LBE104
 9409 00e8 00000000 		.4byte	0
 9410 00ec 00000000 		.4byte	0
 9411 00f0 32020000 		.4byte	.LBB71
ARM GAS  /var/folders/z0/6xlwn_996xz3mwq1cgzkbq4r0000gp/T//ccBgBTlB.s 			page 186


 9412 00f4 52020000 		.4byte	.LBE71
 9413 00f8 00040000 		.4byte	.LBB102
 9414 00fc 04040000 		.4byte	.LBE102
 9415 0100 00000000 		.4byte	0
 9416 0104 00000000 		.4byte	0
 9417 0108 62020000 		.4byte	.LBB74
 9418 010c 82020000 		.4byte	.LBE74
 9419 0110 E4030000 		.4byte	.LBB95
 9420 0114 E8030000 		.4byte	.LBE95
 9421 0118 00000000 		.4byte	0
 9422 011c 00000000 		.4byte	0
 9423 0120 92020000 		.4byte	.LBB77
 9424 0124 B2020000 		.4byte	.LBE77
 9425 0128 F8030000 		.4byte	.LBB100
 9426 012c FC030000 		.4byte	.LBE100
 9427 0130 00000000 		.4byte	0
 9428 0134 00000000 		.4byte	0
 9429 0138 C2020000 		.4byte	.LBB80
 9430 013c E2020000 		.4byte	.LBE80
 9431 0140 E8030000 		.4byte	.LBB96
 9432 0144 EC030000 		.4byte	.LBE96
 9433 0148 00000000 		.4byte	0
 9434 014c 00000000 		.4byte	0
 9435 0150 F2020000 		.4byte	.LBB83
 9436 0154 10030000 		.4byte	.LBE83
 9437 0158 D8030000 		.4byte	.LBB92
 9438 015c DC030000 		.4byte	.LBE92
 9439 0160 00000000 		.4byte	0
 9440 0164 00000000 		.4byte	0
 9441 0168 46030000 		.4byte	.LBB86
 9442 016c 64030000 		.4byte	.LBE86
 9443 0170 E0030000 		.4byte	.LBB94
 9444 0174 E4030000 		.4byte	.LBE94
 9445 0178 00000000 		.4byte	0
 9446 017c 00000000 		.4byte	0
 9447 0180 74030000 		.4byte	.LBB89
 9448 0184 92030000 		.4byte	.LBE89
 9449 0188 DC030000 		.4byte	.LBB93
 9450 018c E0030000 		.4byte	.LBE93
 9451 0190 00000000 		.4byte	0
 9452 0194 00000000 		.4byte	0
 9453 0198 2A000000 		.4byte	.LBB108
 9454 019c 44000000 		.4byte	.LBE108
 9455 01a0 54000000 		.4byte	.LBB114
 9456 01a4 68000000 		.4byte	.LBE114
 9457 01a8 7E000000 		.4byte	.LBB116
 9458 01ac B2000000 		.4byte	.LBE116
 9459 01b0 62010000 		.4byte	.LBB118
 9460 01b4 44020000 		.4byte	.LBE118
 9461 01b8 46020000 		.4byte	.LBB119
 9462 01bc E0020000 		.4byte	.LBE119
 9463 01c0 00000000 		.4byte	0
 9464 01c4 00000000 		.4byte	0
 9465 01c8 48000000 		.4byte	.LBB113
 9466 01cc 54000000 		.4byte	.LBE113
 9467 01d0 68000000 		.4byte	.LBB115
 9468 01d4 7E000000 		.4byte	.LBE115
ARM GAS  /var/folders/z0/6xlwn_996xz3mwq1cgzkbq4r0000gp/T//ccBgBTlB.s 			page 187


 9469 01d8 B2000000 		.4byte	.LBB117
 9470 01dc 62010000 		.4byte	.LBE117
 9471 01e0 00000000 		.4byte	0
 9472 01e4 00000000 		.4byte	0
 9473 01e8 32000000 		.4byte	.LBB137
 9474 01ec 50000000 		.4byte	.LBE137
 9475 01f0 76000000 		.4byte	.LBB142
 9476 01f4 94000000 		.4byte	.LBE142
 9477 01f8 00000000 		.4byte	0
 9478 01fc 00000000 		.4byte	0
 9479 0200 10000000 		.4byte	.LBB143
 9480 0204 38000000 		.4byte	.LBE143
 9481 0208 3C000000 		.4byte	.LBB144
 9482 020c 6C000000 		.4byte	.LBE144
 9483 0210 6E000000 		.4byte	.LBB145
 9484 0214 B4000000 		.4byte	.LBE145
 9485 0218 00000000 		.4byte	0
 9486 021c 00000000 		.4byte	0
 9487 0220 00000000 		.4byte	.LFB203
 9488 0224 E4000000 		.4byte	.LFE203
 9489 0228 00000000 		.4byte	.LFB200
 9490 022c 24040000 		.4byte	.LFE200
 9491 0230 00000000 		.4byte	.LFB205
 9492 0234 58000000 		.4byte	.LFE205
 9493 0238 00000000 		.4byte	.LFB199
 9494 023c E0020000 		.4byte	.LFE199
 9495 0240 00000000 		.4byte	.LFB202
 9496 0244 58000000 		.4byte	.LFE202
 9497 0248 00000000 		.4byte	.LFB201
 9498 024c 9C000000 		.4byte	.LFE201
 9499 0250 00000000 		.4byte	.LFB204
 9500 0254 94000000 		.4byte	.LFE204
 9501 0258 00000000 		.4byte	.LFB198
 9502 025c 24000000 		.4byte	.LFE198
 9503 0260 00000000 		.4byte	.LFB206
 9504 0264 2C000000 		.4byte	.LFE206
 9505 0268 00000000 		.4byte	.LFB207
 9506 026c 6C000000 		.4byte	.LFE207
 9507 0270 00000000 		.4byte	.LFB208
 9508 0274 B4000000 		.4byte	.LFE208
 9509 0278 00000000 		.4byte	0
 9510 027c 00000000 		.4byte	0
 9511              		.section	.debug_macro,"",%progbits
 9512              	.Ldebug_macro0:
 9513 0000 0400     		.2byte	0x4
 9514 0002 02       		.byte	0x2
 9515 0003 00000000 		.4byte	.Ldebug_line0
 9516 0007 07       		.byte	0x7
 9517 0008 00000000 		.4byte	.Ldebug_macro1
 9518 000c 03       		.byte	0x3
 9519 000d 00       		.uleb128 0
 9520 000e 01       		.uleb128 0x1
 9521 000f 03       		.byte	0x3
 9522 0010 01       		.uleb128 0x1
 9523 0011 08       		.uleb128 0x8
 9524 0012 05       		.byte	0x5
 9525 0013 08       		.uleb128 0x8
ARM GAS  /var/folders/z0/6xlwn_996xz3mwq1cgzkbq4r0000gp/T//ccBgBTlB.s 			page 188


 9526 0014 20730000 		.4byte	.LASF347
 9527              		.file 14 "/usr/local/Cellar/gcc-arm-none-eabi/20160928/arm-none-eabi/include/_ansi.h"
 9528 0018 03       		.byte	0x3
 9529 0019 0A       		.uleb128 0xa
 9530 001a 0E       		.uleb128 0xe
 9531 001b 05       		.byte	0x5
 9532 001c 0D       		.uleb128 0xd
 9533 001d 8B1B0000 		.4byte	.LASF348
 9534              		.file 15 "/usr/local/Cellar/gcc-arm-none-eabi/20160928/arm-none-eabi/include/newlib.h"
 9535 0021 03       		.byte	0x3
 9536 0022 0F       		.uleb128 0xf
 9537 0023 0F       		.uleb128 0xf
 9538 0024 05       		.byte	0x5
 9539 0025 08       		.uleb128 0x8
 9540 0026 AD840000 		.4byte	.LASF349
 9541              		.file 16 "/usr/local/Cellar/gcc-arm-none-eabi/20160928/arm-none-eabi/include/_newlib_version.h"
 9542 002a 03       		.byte	0x3
 9543 002b 0E       		.uleb128 0xe
 9544 002c 10       		.uleb128 0x10
 9545 002d 07       		.byte	0x7
 9546 002e 00000000 		.4byte	.Ldebug_macro2
 9547 0032 04       		.byte	0x4
 9548 0033 07       		.byte	0x7
 9549 0034 00000000 		.4byte	.Ldebug_macro3
 9550 0038 04       		.byte	0x4
 9551              		.file 17 "/usr/local/Cellar/gcc-arm-none-eabi/20160928/arm-none-eabi/include/sys/config.h"
 9552 0039 03       		.byte	0x3
 9553 003a 10       		.uleb128 0x10
 9554 003b 11       		.uleb128 0x11
 9555 003c 05       		.byte	0x5
 9556 003d 02       		.uleb128 0x2
 9557 003e C96A0000 		.4byte	.LASF367
 9558              		.file 18 "/usr/local/Cellar/gcc-arm-none-eabi/20160928/arm-none-eabi/include/machine/ieeefp.h"
 9559 0042 03       		.byte	0x3
 9560 0043 04       		.uleb128 0x4
 9561 0044 12       		.uleb128 0x12
 9562 0045 05       		.byte	0x5
 9563 0046 3C       		.uleb128 0x3c
 9564 0047 C4690000 		.4byte	.LASF368
 9565 004b 04       		.byte	0x4
 9566              		.file 19 "/usr/local/Cellar/gcc-arm-none-eabi/20160928/arm-none-eabi/include/sys/features.h"
 9567 004c 03       		.byte	0x3
 9568 004d 05       		.uleb128 0x5
 9569 004e 13       		.uleb128 0x13
 9570 004f 07       		.byte	0x7
 9571 0050 00000000 		.4byte	.Ldebug_macro4
 9572 0054 04       		.byte	0x4
 9573 0055 07       		.byte	0x7
 9574 0056 00000000 		.4byte	.Ldebug_macro5
 9575 005a 04       		.byte	0x4
 9576 005b 07       		.byte	0x7
 9577 005c 00000000 		.4byte	.Ldebug_macro6
 9578 0060 04       		.byte	0x4
 9579              		.file 20 "/usr/local/Cellar/gcc-arm-none-eabi/20160928/arm-none-eabi/include/sys/reent.h"
 9580 0061 03       		.byte	0x3
 9581 0062 0B       		.uleb128 0xb
 9582 0063 14       		.uleb128 0x14
ARM GAS  /var/folders/z0/6xlwn_996xz3mwq1cgzkbq4r0000gp/T//ccBgBTlB.s 			page 189


 9583 0064 05       		.byte	0x5
 9584 0065 0B       		.uleb128 0xb
 9585 0066 7D2F0000 		.4byte	.LASF421
 9586 006a 03       		.byte	0x3
 9587 006b 0D       		.uleb128 0xd
 9588 006c 0E       		.uleb128 0xe
 9589 006d 04       		.byte	0x4
 9590              		.file 21 "/usr/local/Cellar/gcc-arm-none-eabi/20160928/lib/gcc/arm-none-eabi/5.4.1/include/stddef.
 9591 006e 03       		.byte	0x3
 9592 006f 0E       		.uleb128 0xe
 9593 0070 15       		.uleb128 0x15
 9594 0071 07       		.byte	0x7
 9595 0072 00000000 		.4byte	.Ldebug_macro7
 9596 0076 04       		.byte	0x4
 9597              		.file 22 "/usr/local/Cellar/gcc-arm-none-eabi/20160928/arm-none-eabi/include/sys/_types.h"
 9598 0077 03       		.byte	0x3
 9599 0078 0F       		.uleb128 0xf
 9600 0079 16       		.uleb128 0x16
 9601 007a 05       		.byte	0x5
 9602 007b 14       		.uleb128 0x14
 9603 007c 48670000 		.4byte	.LASF474
 9604              		.file 23 "/usr/local/Cellar/gcc-arm-none-eabi/20160928/arm-none-eabi/include/machine/_types.h"
 9605 0080 03       		.byte	0x3
 9606 0081 18       		.uleb128 0x18
 9607 0082 17       		.uleb128 0x17
 9608 0083 05       		.byte	0x5
 9609 0084 06       		.uleb128 0x6
 9610 0085 72BB0000 		.4byte	.LASF475
 9611 0089 03       		.byte	0x3
 9612 008a 07       		.uleb128 0x7
 9613 008b 02       		.uleb128 0x2
 9614 008c 07       		.byte	0x7
 9615 008d 00000000 		.4byte	.Ldebug_macro8
 9616 0091 04       		.byte	0x4
 9617 0092 04       		.byte	0x4
 9618              		.file 24 "/usr/local/Cellar/gcc-arm-none-eabi/20160928/arm-none-eabi/include/sys/lock.h"
 9619 0093 03       		.byte	0x3
 9620 0094 19       		.uleb128 0x19
 9621 0095 18       		.uleb128 0x18
 9622 0096 07       		.byte	0x7
 9623 0097 00000000 		.4byte	.Ldebug_macro9
 9624 009b 04       		.byte	0x4
 9625 009c 07       		.byte	0x7
 9626 009d 00000000 		.4byte	.Ldebug_macro10
 9627 00a1 03       		.byte	0x3
 9628 00a2 9F01     		.uleb128 0x9f
 9629 00a4 15       		.uleb128 0x15
 9630 00a5 07       		.byte	0x7
 9631 00a6 00000000 		.4byte	.Ldebug_macro11
 9632 00aa 04       		.byte	0x4
 9633 00ab 07       		.byte	0x7
 9634 00ac 00000000 		.4byte	.Ldebug_macro12
 9635 00b0 04       		.byte	0x4
 9636 00b1 07       		.byte	0x7
 9637 00b2 00000000 		.4byte	.Ldebug_macro13
 9638 00b6 04       		.byte	0x4
 9639              		.file 25 "/usr/local/Cellar/gcc-arm-none-eabi/20160928/arm-none-eabi/include/sys/cdefs.h"
ARM GAS  /var/folders/z0/6xlwn_996xz3mwq1cgzkbq4r0000gp/T//ccBgBTlB.s 			page 190


 9640 00b7 03       		.byte	0x3
 9641 00b8 0C       		.uleb128 0xc
 9642 00b9 19       		.uleb128 0x19
 9643 00ba 05       		.byte	0x5
 9644 00bb 29       		.uleb128 0x29
 9645 00bc 92830000 		.4byte	.LASF566
 9646 00c0 03       		.byte	0x3
 9647 00c1 2D       		.uleb128 0x2d
 9648 00c2 15       		.uleb128 0x15
 9649 00c3 04       		.byte	0x4
 9650 00c4 07       		.byte	0x7
 9651 00c5 00000000 		.4byte	.Ldebug_macro14
 9652 00c9 04       		.byte	0x4
 9653 00ca 07       		.byte	0x7
 9654 00cb 00000000 		.4byte	.Ldebug_macro15
 9655 00cf 03       		.byte	0x3
 9656 00d0 11       		.uleb128 0x11
 9657 00d1 15       		.uleb128 0x15
 9658 00d2 07       		.byte	0x7
 9659 00d3 00000000 		.4byte	.Ldebug_macro16
 9660 00d7 04       		.byte	0x4
 9661              		.file 26 "/usr/local/Cellar/gcc-arm-none-eabi/20160928/arm-none-eabi/include/sys/_locale.h"
 9662 00d8 03       		.byte	0x3
 9663 00d9 14       		.uleb128 0x14
 9664 00da 1A       		.uleb128 0x1a
 9665 00db 05       		.byte	0x5
 9666 00dc 04       		.uleb128 0x4
 9667 00dd 19470000 		.4byte	.LASF689
 9668 00e1 04       		.byte	0x4
 9669              		.file 27 "/usr/local/Cellar/gcc-arm-none-eabi/20160928/arm-none-eabi/include/sys/string.h"
 9670 00e2 03       		.byte	0x3
 9671 00e3 C001     		.uleb128 0xc0
 9672 00e5 1B       		.uleb128 0x1b
 9673 00e6 04       		.byte	0x4
 9674 00e7 04       		.byte	0x4
 9675 00e8 03       		.byte	0x3
 9676 00e9 02       		.uleb128 0x2
 9677 00ea 0B       		.uleb128 0xb
 9678 00eb 05       		.byte	0x5
 9679 00ec 08       		.uleb128 0x8
 9680 00ed E35F0000 		.4byte	.LASF690
 9681 00f1 03       		.byte	0x3
 9682 00f2 0A       		.uleb128 0xa
 9683 00f3 12       		.uleb128 0x12
 9684 00f4 04       		.byte	0x4
 9685 00f5 07       		.byte	0x7
 9686 00f6 00000000 		.4byte	.Ldebug_macro17
 9687 00fa 03       		.byte	0x3
 9688 00fb 10       		.uleb128 0x10
 9689 00fc 15       		.uleb128 0x15
 9690 00fd 07       		.byte	0x7
 9691 00fe 00000000 		.4byte	.Ldebug_macro16
 9692 0102 04       		.byte	0x4
 9693              		.file 28 "/usr/local/Cellar/gcc-arm-none-eabi/20160928/arm-none-eabi/include/machine/stdlib.h"
 9694 0103 03       		.byte	0x3
 9695 0104 14       		.uleb128 0x14
 9696 0105 1C       		.uleb128 0x1c
ARM GAS  /var/folders/z0/6xlwn_996xz3mwq1cgzkbq4r0000gp/T//ccBgBTlB.s 			page 191


 9697 0106 05       		.byte	0x5
 9698 0107 02       		.uleb128 0x2
 9699 0108 B91A0000 		.4byte	.LASF692
 9700 010c 04       		.byte	0x4
 9701              		.file 29 "/usr/local/Cellar/gcc-arm-none-eabi/20160928/arm-none-eabi/include/alloca.h"
 9702 010d 03       		.byte	0x3
 9703 010e 16       		.uleb128 0x16
 9704 010f 1D       		.uleb128 0x1d
 9705 0110 07       		.byte	0x7
 9706 0111 00000000 		.4byte	.Ldebug_macro18
 9707 0115 04       		.byte	0x4
 9708 0116 07       		.byte	0x7
 9709 0117 00000000 		.4byte	.Ldebug_macro19
 9710 011b 04       		.byte	0x4
 9711 011c 03       		.byte	0x3
 9712 011d 03       		.uleb128 0x3
 9713 011e 07       		.uleb128 0x7
 9714              		.file 30 "inc/microrl.h"
 9715 011f 03       		.byte	0x3
 9716 0120 01       		.uleb128 0x1
 9717 0121 1E       		.uleb128 0x1e
 9718 0122 05       		.byte	0x5
 9719 0123 02       		.uleb128 0x2
 9720 0124 B7070000 		.4byte	.LASF702
 9721              		.file 31 "/usr/local/Cellar/gcc-arm-none-eabi/20160928/lib/gcc/arm-none-eabi/5.4.1/include/stdbool
 9722 0128 03       		.byte	0x3
 9723 0129 04       		.uleb128 0x4
 9724 012a 1F       		.uleb128 0x1f
 9725 012b 07       		.byte	0x7
 9726 012c 00000000 		.4byte	.Ldebug_macro20
 9727 0130 04       		.byte	0x4
 9728              		.file 32 "/usr/local/Cellar/gcc-arm-none-eabi/20160928/lib/gcc/arm-none-eabi/5.4.1/include/stdint.
 9729 0131 03       		.byte	0x3
 9730 0132 05       		.uleb128 0x5
 9731 0133 20       		.uleb128 0x20
 9732              		.file 33 "/usr/local/Cellar/gcc-arm-none-eabi/20160928/arm-none-eabi/include/stdint.h"
 9733 0134 03       		.byte	0x3
 9734 0135 09       		.uleb128 0x9
 9735 0136 21       		.uleb128 0x21
 9736 0137 05       		.byte	0x5
 9737 0138 0A       		.uleb128 0xa
 9738 0139 A4950000 		.4byte	.LASF708
 9739              		.file 34 "/usr/local/Cellar/gcc-arm-none-eabi/20160928/arm-none-eabi/include/sys/_intsup.h"
 9740 013d 03       		.byte	0x3
 9741 013e 0D       		.uleb128 0xd
 9742 013f 22       		.uleb128 0x22
 9743 0140 07       		.byte	0x7
 9744 0141 00000000 		.4byte	.Ldebug_macro21
 9745 0145 04       		.byte	0x4
 9746 0146 03       		.byte	0x3
 9747 0147 0E       		.uleb128 0xe
 9748 0148 03       		.uleb128 0x3
 9749 0149 07       		.byte	0x7
 9750 014a 00000000 		.4byte	.Ldebug_macro22
 9751 014e 04       		.byte	0x4
 9752 014f 07       		.byte	0x7
 9753 0150 00000000 		.4byte	.Ldebug_macro23
ARM GAS  /var/folders/z0/6xlwn_996xz3mwq1cgzkbq4r0000gp/T//ccBgBTlB.s 			page 192


 9754 0154 04       		.byte	0x4
 9755 0155 05       		.byte	0x5
 9756 0156 0D       		.uleb128 0xd
 9757 0157 9F4E0000 		.4byte	.LASF823
 9758 015b 04       		.byte	0x4
 9759              		.file 35 "inc/microrl_config.h"
 9760 015c 03       		.byte	0x3
 9761 015d 06       		.uleb128 0x6
 9762 015e 23       		.uleb128 0x23
 9763 015f 07       		.byte	0x7
 9764 0160 00000000 		.4byte	.Ldebug_macro24
 9765 0164 04       		.byte	0x4
 9766 0165 07       		.byte	0x7
 9767 0166 00000000 		.4byte	.Ldebug_macro25
 9768 016a 04       		.byte	0x4
 9769 016b 03       		.byte	0x3
 9770 016c 02       		.uleb128 0x2
 9771 016d 05       		.uleb128 0x5
 9772 016e 05       		.byte	0x5
 9773 016f 02       		.uleb128 0x2
 9774 0170 FC820000 		.4byte	.LASF875
 9775              		.file 36 "../../lib/CANlib/CAN_Library.h"
 9776 0174 03       		.byte	0x3
 9777 0175 06       		.uleb128 0x6
 9778 0176 24       		.uleb128 0x24
 9779 0177 05       		.byte	0x5
 9780 0178 02       		.uleb128 0x2
 9781 0179 CB090000 		.4byte	.LASF876
 9782              		.file 37 "../../lib/CANlib/static_can.h"
 9783 017d 03       		.byte	0x3
 9784 017e 22       		.uleb128 0x22
 9785 017f 25       		.uleb128 0x25
 9786 0180 05       		.byte	0x5
 9787 0181 02       		.uleb128 0x2
 9788 0182 5F9E0000 		.4byte	.LASF877
 9789              		.file 38 "../../lib/CANlib/can_raw.h"
 9790 0186 03       		.byte	0x3
 9791 0187 04       		.uleb128 0x4
 9792 0188 26       		.uleb128 0x26
 9793 0189 05       		.byte	0x5
 9794 018a 02       		.uleb128 0x2
 9795 018b DE700000 		.4byte	.LASF878
 9796 018f 04       		.byte	0x4
 9797 0190 07       		.byte	0x7
 9798 0191 00000000 		.4byte	.Ldebug_macro26
 9799 0195 04       		.byte	0x4
 9800              		.file 39 "../../lib/CANlib/boards/rear_can_node.h"
 9801 0196 03       		.byte	0x3
 9802 0197 24       		.uleb128 0x24
 9803 0198 27       		.uleb128 0x27
 9804 0199 05       		.byte	0x5
 9805 019a 02       		.uleb128 0x2
 9806 019b 3D540000 		.4byte	.LASF882
 9807              		.file 40 "../../lib/CANlib/constants.h"
 9808 019f 03       		.byte	0x3
 9809 01a0 04       		.uleb128 0x4
 9810 01a1 28       		.uleb128 0x28
ARM GAS  /var/folders/z0/6xlwn_996xz3mwq1cgzkbq4r0000gp/T//ccBgBTlB.s 			page 193


 9811 01a2 07       		.byte	0x7
 9812 01a3 00000000 		.4byte	.Ldebug_macro27
 9813 01a7 04       		.byte	0x4
 9814 01a8 03       		.byte	0x3
 9815 01a9 09       		.uleb128 0x9
 9816 01aa 04       		.uleb128 0x4
 9817 01ab 05       		.byte	0x5
 9818 01ac 02       		.uleb128 0x2
 9819 01ad 63990000 		.4byte	.LASF957
 9820 01b1 03       		.byte	0x3
 9821 01b2 04       		.uleb128 0x4
 9822 01b3 28       		.uleb128 0x28
 9823 01b4 04       		.byte	0x4
 9824 01b5 04       		.byte	0x4
 9825 01b6 04       		.byte	0x4
 9826              		.file 41 "../../lib/CANlib/boards/elcon.h"
 9827 01b7 03       		.byte	0x3
 9828 01b8 25       		.uleb128 0x25
 9829 01b9 29       		.uleb128 0x29
 9830 01ba 05       		.byte	0x5
 9831 01bb 02       		.uleb128 0x2
 9832 01bc 0A3C0000 		.4byte	.LASF958
 9833 01c0 04       		.byte	0x4
 9834              		.file 42 "../../lib/CANlib/boards/dash.h"
 9835 01c1 03       		.byte	0x3
 9836 01c2 26       		.uleb128 0x26
 9837 01c3 2A       		.uleb128 0x2a
 9838 01c4 05       		.byte	0x5
 9839 01c5 02       		.uleb128 0x2
 9840 01c6 EE380000 		.4byte	.LASF959
 9841 01ca 04       		.byte	0x4
 9842              		.file 43 "../../lib/CANlib/boards/csb.h"
 9843 01cb 03       		.byte	0x3
 9844 01cc 27       		.uleb128 0x27
 9845 01cd 2B       		.uleb128 0x2b
 9846 01ce 05       		.byte	0x5
 9847 01cf 02       		.uleb128 0x2
 9848 01d0 0A670000 		.4byte	.LASF960
 9849 01d4 04       		.byte	0x4
 9850              		.file 44 "../../lib/CANlib/boards/mc.h"
 9851 01d5 03       		.byte	0x3
 9852 01d6 28       		.uleb128 0x28
 9853 01d7 2C       		.uleb128 0x2c
 9854 01d8 05       		.byte	0x5
 9855 01d9 02       		.uleb128 0x2
 9856 01da 3E6C0000 		.4byte	.LASF961
 9857 01de 04       		.byte	0x4
 9858              		.file 45 "../../lib/CANlib/boards/can_node.h"
 9859 01df 03       		.byte	0x3
 9860 01e0 29       		.uleb128 0x29
 9861 01e1 2D       		.uleb128 0x2d
 9862 01e2 05       		.byte	0x5
 9863 01e3 02       		.uleb128 0x2
 9864 01e4 A9210000 		.4byte	.LASF962
 9865 01e8 04       		.byte	0x4
 9866              		.file 46 "../../lib/CANlib/boards/current_sensor.h"
 9867 01e9 03       		.byte	0x3
ARM GAS  /var/folders/z0/6xlwn_996xz3mwq1cgzkbq4r0000gp/T//ccBgBTlB.s 			page 194


 9868 01ea 2A       		.uleb128 0x2a
 9869 01eb 2E       		.uleb128 0x2e
 9870 01ec 05       		.byte	0x5
 9871 01ed 02       		.uleb128 0x2
 9872 01ee D1A00000 		.4byte	.LASF963
 9873 01f2 04       		.byte	0x4
 9874              		.file 47 "../../lib/CANlib/boards/vcu.h"
 9875 01f3 03       		.byte	0x3
 9876 01f4 2B       		.uleb128 0x2b
 9877 01f5 2F       		.uleb128 0x2f
 9878 01f6 05       		.byte	0x5
 9879 01f7 02       		.uleb128 0x2
 9880 01f8 1C720000 		.4byte	.LASF964
 9881 01fc 04       		.byte	0x4
 9882              		.file 48 "../../lib/CANlib/boards/bms.h"
 9883 01fd 03       		.byte	0x3
 9884 01fe 2C       		.uleb128 0x2c
 9885 01ff 30       		.uleb128 0x30
 9886 0200 05       		.byte	0x5
 9887 0201 02       		.uleb128 0x2
 9888 0202 A2510000 		.4byte	.LASF965
 9889 0206 04       		.byte	0x4
 9890 0207 04       		.byte	0x4
 9891 0208 04       		.byte	0x4
 9892 0209 03       		.byte	0x3
 9893 020a 03       		.uleb128 0x3
 9894 020b 06       		.uleb128 0x6
 9895 020c 07       		.byte	0x7
 9896 020d 00000000 		.4byte	.Ldebug_macro28
 9897 0211 04       		.byte	0x4
 9898 0212 05       		.byte	0x5
 9899 0213 06       		.uleb128 0x6
 9900 0214 02540000 		.4byte	.LASF968
 9901 0218 04       		.byte	0x4
 9902 0219 03       		.byte	0x3
 9903 021a 04       		.uleb128 0x4
 9904 021b 1E       		.uleb128 0x1e
 9905 021c 04       		.byte	0x4
 9906 021d 03       		.byte	0x3
 9907 021e 05       		.uleb128 0x5
 9908 021f 09       		.uleb128 0x9
 9909 0220 05       		.byte	0x5
 9910 0221 02       		.uleb128 0x2
 9911 0222 5C070000 		.4byte	.LASF969
 9912 0226 03       		.byte	0x3
 9913 0227 05       		.uleb128 0x5
 9914 0228 0D       		.uleb128 0xd
 9915 0229 05       		.byte	0x5
 9916 022a 1E       		.uleb128 0x1e
 9917 022b 285D0000 		.4byte	.LASF970
 9918              		.file 49 "../../lib/lpc11cx4-library/lpc_chip_11cxx_lib/inc/lpc_types.h"
 9919 022f 03       		.byte	0x3
 9920 0230 20       		.uleb128 0x20
 9921 0231 31       		.uleb128 0x31
 9922 0232 07       		.byte	0x7
 9923 0233 00000000 		.4byte	.Ldebug_macro29
 9924 0237 04       		.byte	0x4
ARM GAS  /var/folders/z0/6xlwn_996xz3mwq1cgzkbq4r0000gp/T//ccBgBTlB.s 			page 195


 9925              		.file 50 "../../lib/lpc11cx4-library/lpc_chip_11cxx_lib/inc/sys_config.h"
 9926 0238 03       		.byte	0x3
 9927 0239 21       		.uleb128 0x21
 9928 023a 32       		.uleb128 0x32
 9929 023b 07       		.byte	0x7
 9930 023c 00000000 		.4byte	.Ldebug_macro30
 9931 0240 04       		.byte	0x4
 9932              		.file 51 "../../lib/lpc11cx4-library/lpc_chip_11cxx_lib/inc/cmsis.h"
 9933 0241 03       		.byte	0x3
 9934 0242 22       		.uleb128 0x22
 9935 0243 33       		.uleb128 0x33
 9936 0244 05       		.byte	0x5
 9937 0245 1E       		.uleb128 0x1e
 9938 0246 4E9F0000 		.4byte	.LASF989
 9939              		.file 52 "../../lib/lpc11cx4-library/lpc_chip_11cxx_lib/inc/cmsis_11cxx.h"
 9940 024a 03       		.byte	0x3
 9941 024b 2E       		.uleb128 0x2e
 9942 024c 34       		.uleb128 0x34
 9943 024d 07       		.byte	0x7
 9944 024e 00000000 		.4byte	.Ldebug_macro31
 9945 0252 04       		.byte	0x4
 9946              		.file 53 "../../lib/lpc11cx4-library/lpc_chip_11cxx_lib/inc/core_cm0.h"
 9947 0253 03       		.byte	0x3
 9948 0254 3E       		.uleb128 0x3e
 9949 0255 35       		.uleb128 0x35
 9950 0256 07       		.byte	0x7
 9951 0257 00000000 		.4byte	.Ldebug_macro32
 9952              		.file 54 "../../lib/lpc11cx4-library/lpc_chip_11cxx_lib/inc/core_cmInstr.h"
 9953 025b 03       		.byte	0x3
 9954 025c 70       		.uleb128 0x70
 9955 025d 36       		.uleb128 0x36
 9956 025e 05       		.byte	0x5
 9957 025f 19       		.uleb128 0x19
 9958 0260 15BE0000 		.4byte	.LASF1003
 9959 0264 04       		.byte	0x4
 9960              		.file 55 "../../lib/lpc11cx4-library/lpc_chip_11cxx_lib/inc/core_cmFunc.h"
 9961 0265 03       		.byte	0x3
 9962 0266 71       		.uleb128 0x71
 9963 0267 37       		.uleb128 0x37
 9964 0268 05       		.byte	0x5
 9965 0269 19       		.uleb128 0x19
 9966 026a 3E090000 		.4byte	.LASF1004
 9967 026e 04       		.byte	0x4
 9968 026f 07       		.byte	0x7
 9969 0270 00000000 		.4byte	.Ldebug_macro33
 9970 0274 04       		.byte	0x4
 9971 0275 04       		.byte	0x4
 9972 0276 07       		.byte	0x7
 9973 0277 00000000 		.4byte	.Ldebug_macro34
 9974              		.file 56 "../../lib/lpc11cx4-library/lpc_chip_11cxx_lib/inc/pmu_11xx.h"
 9975 027b 03       		.byte	0x3
 9976 027c E901     		.uleb128 0xe9
 9977 027e 38       		.uleb128 0x38
 9978 027f 07       		.byte	0x7
 9979 0280 00000000 		.4byte	.Ldebug_macro35
 9980 0284 04       		.byte	0x4
 9981              		.file 57 "../../lib/lpc11cx4-library/lpc_chip_11cxx_lib/inc/fmc_11xx.h"
ARM GAS  /var/folders/z0/6xlwn_996xz3mwq1cgzkbq4r0000gp/T//ccBgBTlB.s 			page 196


 9982 0285 03       		.byte	0x3
 9983 0286 EA01     		.uleb128 0xea
 9984 0288 39       		.uleb128 0x39
 9985 0289 05       		.byte	0x5
 9986 028a 21       		.uleb128 0x21
 9987 028b 1F2B0000 		.4byte	.LASF1134
 9988 028f 04       		.byte	0x4
 9989              		.file 58 "../../lib/lpc11cx4-library/lpc_chip_11cxx_lib/inc/sysctl_11xx.h"
 9990 0290 03       		.byte	0x3
 9991 0291 EB01     		.uleb128 0xeb
 9992 0293 3A       		.uleb128 0x3a
 9993 0294 07       		.byte	0x7
 9994 0295 00000000 		.4byte	.Ldebug_macro36
 9995 0299 04       		.byte	0x4
 9996              		.file 59 "../../lib/lpc11cx4-library/lpc_chip_11cxx_lib/inc/clock_11xx.h"
 9997 029a 03       		.byte	0x3
 9998 029b EC01     		.uleb128 0xec
 9999 029d 3B       		.uleb128 0x3b
 10000 029e 07       		.byte	0x7
 10001 029f 00000000 		.4byte	.Ldebug_macro37
 10002 02a3 04       		.byte	0x4
 10003              		.file 60 "../../lib/lpc11cx4-library/lpc_chip_11cxx_lib/inc/iocon_11xx.h"
 10004 02a4 03       		.byte	0x3
 10005 02a5 ED01     		.uleb128 0xed
 10006 02a7 3C       		.uleb128 0x3c
 10007 02a8 07       		.byte	0x7
 10008 02a9 00000000 		.4byte	.Ldebug_macro38
 10009 02ad 04       		.byte	0x4
 10010              		.file 61 "../../lib/lpc11cx4-library/lpc_chip_11cxx_lib/inc/timer_11xx.h"
 10011 02ae 03       		.byte	0x3
 10012 02af EE01     		.uleb128 0xee
 10013 02b1 3D       		.uleb128 0x3d
 10014 02b2 07       		.byte	0x7
 10015 02b3 00000000 		.4byte	.Ldebug_macro39
 10016 02b7 04       		.byte	0x4
 10017              		.file 62 "../../lib/lpc11cx4-library/lpc_chip_11cxx_lib/inc/uart_11xx.h"
 10018 02b8 03       		.byte	0x3
 10019 02b9 EF01     		.uleb128 0xef
 10020 02bb 3E       		.uleb128 0x3e
 10021 02bc 05       		.byte	0x5
 10022 02bd 21       		.uleb128 0x21
 10023 02be E5400000 		.4byte	.LASF1218
 10024              		.file 63 "../../lib/lpc11cx4-library/lpc_chip_11cxx_lib/inc/ring_buffer.h"
 10025 02c2 03       		.byte	0x3
 10026 02c3 23       		.uleb128 0x23
 10027 02c4 3F       		.uleb128 0x3f
 10028 02c5 07       		.byte	0x7
 10029 02c6 00000000 		.4byte	.Ldebug_macro40
 10030 02ca 04       		.byte	0x4
 10031 02cb 07       		.byte	0x7
 10032 02cc 00000000 		.4byte	.Ldebug_macro41
 10033 02d0 04       		.byte	0x4
 10034              		.file 64 "../../lib/lpc11cx4-library/lpc_chip_11cxx_lib/inc/wwdt_11xx.h"
 10035 02d1 03       		.byte	0x3
 10036 02d2 F001     		.uleb128 0xf0
 10037 02d4 40       		.uleb128 0x40
 10038 02d5 07       		.byte	0x7
ARM GAS  /var/folders/z0/6xlwn_996xz3mwq1cgzkbq4r0000gp/T//ccBgBTlB.s 			page 197


 10039 02d6 00000000 		.4byte	.Ldebug_macro42
 10040 02da 04       		.byte	0x4
 10041              		.file 65 "../../lib/lpc11cx4-library/lpc_chip_11cxx_lib/inc/ssp_11xx.h"
 10042 02db 03       		.byte	0x3
 10043 02dc F101     		.uleb128 0xf1
 10044 02de 41       		.uleb128 0x41
 10045 02df 07       		.byte	0x7
 10046 02e0 00000000 		.4byte	.Ldebug_macro43
 10047 02e4 04       		.byte	0x4
 10048              		.file 66 "../../lib/lpc11cx4-library/lpc_chip_11cxx_lib/inc/romapi_11xx.h"
 10049 02e5 03       		.byte	0x3
 10050 02e6 F201     		.uleb128 0xf2
 10051 02e8 42       		.uleb128 0x42
 10052 02e9 05       		.byte	0x5
 10053 02ea 21       		.uleb128 0x21
 10054 02eb C56C0000 		.4byte	.LASF1371
 10055              		.file 67 "../../lib/lpc11cx4-library/lpc_chip_11cxx_lib/inc/error.h"
 10056 02ef 03       		.byte	0x3
 10057 02f0 23       		.uleb128 0x23
 10058 02f1 43       		.uleb128 0x43
 10059 02f2 07       		.byte	0x7
 10060 02f3 00000000 		.4byte	.Ldebug_macro44
 10061 02f7 04       		.byte	0x4
 10062 02f8 04       		.byte	0x4
 10063              		.file 68 "../../lib/lpc11cx4-library/lpc_chip_11cxx_lib/inc/adc_11xx.h"
 10064 02f9 03       		.byte	0x3
 10065 02fa F601     		.uleb128 0xf6
 10066 02fc 44       		.uleb128 0x44
 10067 02fd 07       		.byte	0x7
 10068 02fe 00000000 		.4byte	.Ldebug_macro45
 10069 0302 04       		.byte	0x4
 10070              		.file 69 "../../lib/lpc11cx4-library/lpc_chip_11cxx_lib/inc/gpio_11xx_2.h"
 10071 0303 03       		.byte	0x3
 10072 0304 FF01     		.uleb128 0xff
 10073 0306 45       		.uleb128 0x45
 10074 0307 05       		.byte	0x5
 10075 0308 22       		.uleb128 0x22
 10076 0309 42980000 		.4byte	.LASF1394
 10077 030d 04       		.byte	0x4
 10078              		.file 70 "../../lib/lpc11cx4-library/lpc_chip_11cxx_lib/inc/i2c_11xx.h"
 10079 030e 03       		.byte	0x3
 10080 030f 8C02     		.uleb128 0x10c
 10081 0311 46       		.uleb128 0x46
 10082 0312 07       		.byte	0x7
 10083 0313 00000000 		.4byte	.Ldebug_macro46
 10084 0317 04       		.byte	0x4
 10085              		.file 71 "../../lib/lpc11cx4-library/lpc_chip_11cxx_lib/inc/ccand_11xx.h"
 10086 0318 03       		.byte	0x3
 10087 0319 8F02     		.uleb128 0x10f
 10088 031b 47       		.uleb128 0x47
 10089 031c 07       		.byte	0x7
 10090 031d 00000000 		.4byte	.Ldebug_macro47
 10091 0321 04       		.byte	0x4
 10092 0322 04       		.byte	0x4
 10093              		.file 72 "../../lib/lpc11cx4-library/evt_lib/inc/can.h"
 10094 0323 03       		.byte	0x3
 10095 0324 06       		.uleb128 0x6
ARM GAS  /var/folders/z0/6xlwn_996xz3mwq1cgzkbq4r0000gp/T//ccBgBTlB.s 			page 198


 10096 0325 48       		.uleb128 0x48
 10097 0326 05       		.byte	0x5
 10098 0327 03       		.uleb128 0x3
 10099 0328 30030000 		.4byte	.LASF1519
 10100 032c 04       		.byte	0x4
 10101 032d 03       		.byte	0x3
 10102 032e 07       		.uleb128 0x7
 10103 032f 07       		.uleb128 0x7
 10104 0330 04       		.byte	0x4
 10105 0331 05       		.byte	0x5
 10106 0332 09       		.uleb128 0x9
 10107 0333 36420000 		.4byte	.LASF1520
 10108 0337 04       		.byte	0x4
 10109 0338 03       		.byte	0x3
 10110 0339 06       		.uleb128 0x6
 10111 033a 06       		.uleb128 0x6
 10112 033b 04       		.byte	0x4
 10113              		.file 73 "inc/config.h"
 10114 033c 03       		.byte	0x3
 10115 033d 07       		.uleb128 0x7
 10116 033e 49       		.uleb128 0x49
 10117 033f 07       		.byte	0x7
 10118 0340 00000000 		.4byte	.Ldebug_macro48
 10119 0344 04       		.byte	0x4
 10120 0345 03       		.byte	0x3
 10121 0346 08       		.uleb128 0x8
 10122 0347 0C       		.uleb128 0xc
 10123 0348 05       		.byte	0x5
 10124 0349 04       		.uleb128 0x4
 10125 034a 9A9F0000 		.4byte	.LASF1561
 10126 034e 04       		.byte	0x4
 10127 034f 03       		.byte	0x3
 10128 0350 09       		.uleb128 0x9
 10129 0351 0A       		.uleb128 0xa
 10130 0352 05       		.byte	0x5
 10131 0353 02       		.uleb128 0x2
 10132 0354 F7A70000 		.4byte	.LASF1562
 10133 0358 03       		.byte	0x3
 10134 0359 05       		.uleb128 0x5
 10135 035a 49       		.uleb128 0x49
 10136 035b 04       		.byte	0x4
 10137 035c 04       		.byte	0x4
 10138 035d 04       		.byte	0x4
 10139 035e 00       		.byte	0
 10140              		.section	.debug_macro,"G",%progbits,wm4.0.875846967d3f9b39cda0d496d1540481,comdat
 10141              	.Ldebug_macro1:
 10142 0000 0400     		.2byte	0x4
 10143 0002 00       		.byte	0
 10144 0003 05       		.byte	0x5
 10145 0004 00       		.uleb128 0
 10146 0005 39060000 		.4byte	.LASF0
 10147 0009 05       		.byte	0x5
 10148 000a 00       		.uleb128 0
 10149 000b EC4E0000 		.4byte	.LASF1
 10150 000f 05       		.byte	0x5
 10151 0010 00       		.uleb128 0
 10152 0011 A6BC0000 		.4byte	.LASF2
ARM GAS  /var/folders/z0/6xlwn_996xz3mwq1cgzkbq4r0000gp/T//ccBgBTlB.s 			page 199


 10153 0015 05       		.byte	0x5
 10154 0016 00       		.uleb128 0
 10155 0017 97BB0000 		.4byte	.LASF3
 10156 001b 05       		.byte	0x5
 10157 001c 00       		.uleb128 0
 10158 001d 66250000 		.4byte	.LASF4
 10159 0021 05       		.byte	0x5
 10160 0022 00       		.uleb128 0
 10161 0023 56370000 		.4byte	.LASF5
 10162 0027 05       		.byte	0x5
 10163 0028 00       		.uleb128 0
 10164 0029 5B540000 		.4byte	.LASF6
 10165 002d 05       		.byte	0x5
 10166 002e 00       		.uleb128 0
 10167 002f 591E0000 		.4byte	.LASF7
 10168 0033 05       		.byte	0x5
 10169 0034 00       		.uleb128 0
 10170 0035 09500000 		.4byte	.LASF8
 10171 0039 05       		.byte	0x5
 10172 003a 00       		.uleb128 0
 10173 003b 35AD0000 		.4byte	.LASF9
 10174 003f 05       		.byte	0x5
 10175 0040 00       		.uleb128 0
 10176 0041 DA9B0000 		.4byte	.LASF10
 10177 0045 05       		.byte	0x5
 10178 0046 00       		.uleb128 0
 10179 0047 65A50000 		.4byte	.LASF11
 10180 004b 05       		.byte	0x5
 10181 004c 00       		.uleb128 0
 10182 004d 1E9A0000 		.4byte	.LASF12
 10183 0051 05       		.byte	0x5
 10184 0052 00       		.uleb128 0
 10185 0053 85900000 		.4byte	.LASF13
 10186 0057 05       		.byte	0x5
 10187 0058 00       		.uleb128 0
 10188 0059 49140000 		.4byte	.LASF14
 10189 005d 05       		.byte	0x5
 10190 005e 00       		.uleb128 0
 10191 005f A7080000 		.4byte	.LASF15
 10192 0063 05       		.byte	0x5
 10193 0064 00       		.uleb128 0
 10194 0065 17560000 		.4byte	.LASF16
 10195 0069 05       		.byte	0x5
 10196 006a 00       		.uleb128 0
 10197 006b 49A20000 		.4byte	.LASF17
 10198 006f 05       		.byte	0x5
 10199 0070 00       		.uleb128 0
 10200 0071 BCB60000 		.4byte	.LASF18
 10201 0075 05       		.byte	0x5
 10202 0076 00       		.uleb128 0
 10203 0077 65970000 		.4byte	.LASF19
 10204 007b 05       		.byte	0x5
 10205 007c 00       		.uleb128 0
 10206 007d B1B40000 		.4byte	.LASF20
 10207 0081 05       		.byte	0x5
 10208 0082 00       		.uleb128 0
 10209 0083 FE310000 		.4byte	.LASF21
ARM GAS  /var/folders/z0/6xlwn_996xz3mwq1cgzkbq4r0000gp/T//ccBgBTlB.s 			page 200


 10210 0087 05       		.byte	0x5
 10211 0088 00       		.uleb128 0
 10212 0089 5A6B0000 		.4byte	.LASF22
 10213 008d 05       		.byte	0x5
 10214 008e 00       		.uleb128 0
 10215 008f 64180000 		.4byte	.LASF23
 10216 0093 05       		.byte	0x5
 10217 0094 00       		.uleb128 0
 10218 0095 C42F0000 		.4byte	.LASF24
 10219 0099 05       		.byte	0x5
 10220 009a 00       		.uleb128 0
 10221 009b 968C0000 		.4byte	.LASF25
 10222 009f 05       		.byte	0x5
 10223 00a0 00       		.uleb128 0
 10224 00a1 CD4F0000 		.4byte	.LASF26
 10225 00a5 05       		.byte	0x5
 10226 00a6 00       		.uleb128 0
 10227 00a7 203C0000 		.4byte	.LASF27
 10228 00ab 05       		.byte	0x5
 10229 00ac 00       		.uleb128 0
 10230 00ad EA000000 		.4byte	.LASF28
 10231 00b1 05       		.byte	0x5
 10232 00b2 00       		.uleb128 0
 10233 00b3 417E0000 		.4byte	.LASF29
 10234 00b7 05       		.byte	0x5
 10235 00b8 00       		.uleb128 0
 10236 00b9 13B70000 		.4byte	.LASF30
 10237 00bd 05       		.byte	0x5
 10238 00be 00       		.uleb128 0
 10239 00bf 8B780000 		.4byte	.LASF31
 10240 00c3 05       		.byte	0x5
 10241 00c4 00       		.uleb128 0
 10242 00c5 C4070000 		.4byte	.LASF32
 10243 00c9 05       		.byte	0x5
 10244 00ca 00       		.uleb128 0
 10245 00cb CD360000 		.4byte	.LASF33
 10246 00cf 05       		.byte	0x5
 10247 00d0 00       		.uleb128 0
 10248 00d1 696B0000 		.4byte	.LASF34
 10249 00d5 05       		.byte	0x5
 10250 00d6 00       		.uleb128 0
 10251 00d7 DC7E0000 		.4byte	.LASF35
 10252 00db 05       		.byte	0x5
 10253 00dc 00       		.uleb128 0
 10254 00dd 196D0000 		.4byte	.LASF36
 10255 00e1 05       		.byte	0x5
 10256 00e2 00       		.uleb128 0
 10257 00e3 397D0000 		.4byte	.LASF37
 10258 00e7 05       		.byte	0x5
 10259 00e8 00       		.uleb128 0
 10260 00e9 D6140000 		.4byte	.LASF38
 10261 00ed 05       		.byte	0x5
 10262 00ee 00       		.uleb128 0
 10263 00ef 8A9C0000 		.4byte	.LASF39
 10264 00f3 05       		.byte	0x5
 10265 00f4 00       		.uleb128 0
 10266 00f5 DA420000 		.4byte	.LASF40
ARM GAS  /var/folders/z0/6xlwn_996xz3mwq1cgzkbq4r0000gp/T//ccBgBTlB.s 			page 201


 10267 00f9 05       		.byte	0x5
 10268 00fa 00       		.uleb128 0
 10269 00fb 6A8E0000 		.4byte	.LASF41
 10270 00ff 05       		.byte	0x5
 10271 0100 00       		.uleb128 0
 10272 0101 38AB0000 		.4byte	.LASF42
 10273 0105 05       		.byte	0x5
 10274 0106 00       		.uleb128 0
 10275 0107 9B180000 		.4byte	.LASF43
 10276 010b 05       		.byte	0x5
 10277 010c 00       		.uleb128 0
 10278 010d 991B0000 		.4byte	.LASF44
 10279 0111 05       		.byte	0x5
 10280 0112 00       		.uleb128 0
 10281 0113 E74F0000 		.4byte	.LASF45
 10282 0117 05       		.byte	0x5
 10283 0118 00       		.uleb128 0
 10284 0119 10070000 		.4byte	.LASF46
 10285 011d 05       		.byte	0x5
 10286 011e 00       		.uleb128 0
 10287 011f EF5C0000 		.4byte	.LASF47
 10288 0123 05       		.byte	0x5
 10289 0124 00       		.uleb128 0
 10290 0125 C1A50000 		.4byte	.LASF48
 10291 0129 05       		.byte	0x5
 10292 012a 00       		.uleb128 0
 10293 012b F60F0000 		.4byte	.LASF49
 10294 012f 05       		.byte	0x5
 10295 0130 00       		.uleb128 0
 10296 0131 A5150000 		.4byte	.LASF50
 10297 0135 05       		.byte	0x5
 10298 0136 00       		.uleb128 0
 10299 0137 C1B70000 		.4byte	.LASF51
 10300 013b 05       		.byte	0x5
 10301 013c 00       		.uleb128 0
 10302 013d 8F850000 		.4byte	.LASF52
 10303 0141 05       		.byte	0x5
 10304 0142 00       		.uleb128 0
 10305 0143 EAAB0000 		.4byte	.LASF53
 10306 0147 05       		.byte	0x5
 10307 0148 00       		.uleb128 0
 10308 0149 E0A50000 		.4byte	.LASF54
 10309 014d 05       		.byte	0x5
 10310 014e 00       		.uleb128 0
 10311 014f F7740000 		.4byte	.LASF55
 10312 0153 05       		.byte	0x5
 10313 0154 00       		.uleb128 0
 10314 0155 7B5A0000 		.4byte	.LASF56
 10315 0159 05       		.byte	0x5
 10316 015a 00       		.uleb128 0
 10317 015b D19D0000 		.4byte	.LASF57
 10318 015f 05       		.byte	0x5
 10319 0160 00       		.uleb128 0
 10320 0161 75500000 		.4byte	.LASF58
 10321 0165 05       		.byte	0x5
 10322 0166 00       		.uleb128 0
 10323 0167 321F0000 		.4byte	.LASF59
ARM GAS  /var/folders/z0/6xlwn_996xz3mwq1cgzkbq4r0000gp/T//ccBgBTlB.s 			page 202


 10324 016b 05       		.byte	0x5
 10325 016c 00       		.uleb128 0
 10326 016d 9B130000 		.4byte	.LASF60
 10327 0171 05       		.byte	0x5
 10328 0172 00       		.uleb128 0
 10329 0173 348D0000 		.4byte	.LASF61
 10330 0177 05       		.byte	0x5
 10331 0178 00       		.uleb128 0
 10332 0179 EC600000 		.4byte	.LASF62
 10333 017d 05       		.byte	0x5
 10334 017e 00       		.uleb128 0
 10335 017f B00A0000 		.4byte	.LASF63
 10336 0183 05       		.byte	0x5
 10337 0184 00       		.uleb128 0
 10338 0185 3A900000 		.4byte	.LASF64
 10339 0189 05       		.byte	0x5
 10340 018a 00       		.uleb128 0
 10341 018b 48920000 		.4byte	.LASF65
 10342 018f 05       		.byte	0x5
 10343 0190 00       		.uleb128 0
 10344 0191 D76C0000 		.4byte	.LASF66
 10345 0195 05       		.byte	0x5
 10346 0196 00       		.uleb128 0
 10347 0197 BF590000 		.4byte	.LASF67
 10348 019b 05       		.byte	0x5
 10349 019c 00       		.uleb128 0
 10350 019d A14B0000 		.4byte	.LASF68
 10351 01a1 05       		.byte	0x5
 10352 01a2 00       		.uleb128 0
 10353 01a3 F8100000 		.4byte	.LASF69
 10354 01a7 05       		.byte	0x5
 10355 01a8 00       		.uleb128 0
 10356 01a9 3A5C0000 		.4byte	.LASF70
 10357 01ad 05       		.byte	0x5
 10358 01ae 00       		.uleb128 0
 10359 01af A7670000 		.4byte	.LASF71
 10360 01b3 05       		.byte	0x5
 10361 01b4 00       		.uleb128 0
 10362 01b5 5E810000 		.4byte	.LASF72
 10363 01b9 05       		.byte	0x5
 10364 01ba 00       		.uleb128 0
 10365 01bb BF860000 		.4byte	.LASF73
 10366 01bf 05       		.byte	0x5
 10367 01c0 00       		.uleb128 0
 10368 01c1 09480000 		.4byte	.LASF74
 10369 01c5 05       		.byte	0x5
 10370 01c6 00       		.uleb128 0
 10371 01c7 8F2B0000 		.4byte	.LASF75
 10372 01cb 05       		.byte	0x5
 10373 01cc 00       		.uleb128 0
 10374 01cd 61770000 		.4byte	.LASF76
 10375 01d1 05       		.byte	0x5
 10376 01d2 00       		.uleb128 0
 10377 01d3 10050000 		.4byte	.LASF77
 10378 01d7 05       		.byte	0x5
 10379 01d8 00       		.uleb128 0
 10380 01d9 A7620000 		.4byte	.LASF78
ARM GAS  /var/folders/z0/6xlwn_996xz3mwq1cgzkbq4r0000gp/T//ccBgBTlB.s 			page 203


 10381 01dd 05       		.byte	0x5
 10382 01de 00       		.uleb128 0
 10383 01df F4980000 		.4byte	.LASF79
 10384 01e3 05       		.byte	0x5
 10385 01e4 00       		.uleb128 0
 10386 01e5 6F600000 		.4byte	.LASF80
 10387 01e9 05       		.byte	0x5
 10388 01ea 00       		.uleb128 0
 10389 01eb 9D3E0000 		.4byte	.LASF81
 10390 01ef 05       		.byte	0x5
 10391 01f0 00       		.uleb128 0
 10392 01f1 26760000 		.4byte	.LASF82
 10393 01f5 05       		.byte	0x5
 10394 01f6 00       		.uleb128 0
 10395 01f7 FD960000 		.4byte	.LASF83
 10396 01fb 05       		.byte	0x5
 10397 01fc 00       		.uleb128 0
 10398 01fd 568D0000 		.4byte	.LASF84
 10399 0201 05       		.byte	0x5
 10400 0202 00       		.uleb128 0
 10401 0203 625E0000 		.4byte	.LASF85
 10402 0207 05       		.byte	0x5
 10403 0208 00       		.uleb128 0
 10404 0209 F7370000 		.4byte	.LASF86
 10405 020d 05       		.byte	0x5
 10406 020e 00       		.uleb128 0
 10407 020f AC4A0000 		.4byte	.LASF87
 10408 0213 05       		.byte	0x5
 10409 0214 00       		.uleb128 0
 10410 0215 1D1E0000 		.4byte	.LASF88
 10411 0219 05       		.byte	0x5
 10412 021a 00       		.uleb128 0
 10413 021b A4A20000 		.4byte	.LASF89
 10414 021f 05       		.byte	0x5
 10415 0220 00       		.uleb128 0
 10416 0221 B7B00000 		.4byte	.LASF90
 10417 0225 05       		.byte	0x5
 10418 0226 00       		.uleb128 0
 10419 0227 27BE0000 		.4byte	.LASF91
 10420 022b 05       		.byte	0x5
 10421 022c 00       		.uleb128 0
 10422 022d ED130000 		.4byte	.LASF92
 10423 0231 05       		.byte	0x5
 10424 0232 00       		.uleb128 0
 10425 0233 43BE0000 		.4byte	.LASF93
 10426 0237 05       		.byte	0x5
 10427 0238 00       		.uleb128 0
 10428 0239 AE1C0000 		.4byte	.LASF94
 10429 023d 05       		.byte	0x5
 10430 023e 00       		.uleb128 0
 10431 023f 041A0000 		.4byte	.LASF95
 10432 0243 05       		.byte	0x5
 10433 0244 00       		.uleb128 0
 10434 0245 71A10000 		.4byte	.LASF96
 10435 0249 05       		.byte	0x5
 10436 024a 00       		.uleb128 0
 10437 024b B95E0000 		.4byte	.LASF97
ARM GAS  /var/folders/z0/6xlwn_996xz3mwq1cgzkbq4r0000gp/T//ccBgBTlB.s 			page 204


 10438 024f 05       		.byte	0x5
 10439 0250 00       		.uleb128 0
 10440 0251 F2670000 		.4byte	.LASF98
 10441 0255 05       		.byte	0x5
 10442 0256 00       		.uleb128 0
 10443 0257 11510000 		.4byte	.LASF99
 10444 025b 05       		.byte	0x5
 10445 025c 00       		.uleb128 0
 10446 025d 6F930000 		.4byte	.LASF100
 10447 0261 05       		.byte	0x5
 10448 0262 00       		.uleb128 0
 10449 0263 75BD0000 		.4byte	.LASF101
 10450 0267 05       		.byte	0x5
 10451 0268 00       		.uleb128 0
 10452 0269 3B2D0000 		.4byte	.LASF102
 10453 026d 05       		.byte	0x5
 10454 026e 00       		.uleb128 0
 10455 026f 28310000 		.4byte	.LASF103
 10456 0273 05       		.byte	0x5
 10457 0274 00       		.uleb128 0
 10458 0275 8D820000 		.4byte	.LASF104
 10459 0279 05       		.byte	0x5
 10460 027a 00       		.uleb128 0
 10461 027b E08B0000 		.4byte	.LASF105
 10462 027f 05       		.byte	0x5
 10463 0280 00       		.uleb128 0
 10464 0281 6D510000 		.4byte	.LASF106
 10465 0285 05       		.byte	0x5
 10466 0286 00       		.uleb128 0
 10467 0287 C4320000 		.4byte	.LASF107
 10468 028b 05       		.byte	0x5
 10469 028c 00       		.uleb128 0
 10470 028d 8A3C0000 		.4byte	.LASF108
 10471 0291 05       		.byte	0x5
 10472 0292 00       		.uleb128 0
 10473 0293 90250000 		.4byte	.LASF109
 10474 0297 05       		.byte	0x5
 10475 0298 00       		.uleb128 0
 10476 0299 FB020000 		.4byte	.LASF110
 10477 029d 05       		.byte	0x5
 10478 029e 00       		.uleb128 0
 10479 029f E8940000 		.4byte	.LASF111
 10480 02a3 05       		.byte	0x5
 10481 02a4 00       		.uleb128 0
 10482 02a5 E6120000 		.4byte	.LASF112
 10483 02a9 05       		.byte	0x5
 10484 02aa 00       		.uleb128 0
 10485 02ab 7B630000 		.4byte	.LASF113
 10486 02af 05       		.byte	0x5
 10487 02b0 00       		.uleb128 0
 10488 02b1 CC600000 		.4byte	.LASF114
 10489 02b5 05       		.byte	0x5
 10490 02b6 00       		.uleb128 0
 10491 02b7 79970000 		.4byte	.LASF115
 10492 02bb 05       		.byte	0x5
 10493 02bc 00       		.uleb128 0
 10494 02bd 8D070000 		.4byte	.LASF116
ARM GAS  /var/folders/z0/6xlwn_996xz3mwq1cgzkbq4r0000gp/T//ccBgBTlB.s 			page 205


 10495 02c1 05       		.byte	0x5
 10496 02c2 00       		.uleb128 0
 10497 02c3 596D0000 		.4byte	.LASF117
 10498 02c7 05       		.byte	0x5
 10499 02c8 00       		.uleb128 0
 10500 02c9 34A40000 		.4byte	.LASF118
 10501 02cd 05       		.byte	0x5
 10502 02ce 00       		.uleb128 0
 10503 02cf 55560000 		.4byte	.LASF119
 10504 02d3 05       		.byte	0x5
 10505 02d4 00       		.uleb128 0
 10506 02d5 80210000 		.4byte	.LASF120
 10507 02d9 05       		.byte	0x5
 10508 02da 00       		.uleb128 0
 10509 02db B8AD0000 		.4byte	.LASF121
 10510 02df 05       		.byte	0x5
 10511 02e0 00       		.uleb128 0
 10512 02e1 25B30000 		.4byte	.LASF122
 10513 02e5 05       		.byte	0x5
 10514 02e6 00       		.uleb128 0
 10515 02e7 CA3C0000 		.4byte	.LASF123
 10516 02eb 05       		.byte	0x5
 10517 02ec 00       		.uleb128 0
 10518 02ed 94300000 		.4byte	.LASF124
 10519 02f1 05       		.byte	0x5
 10520 02f2 00       		.uleb128 0
 10521 02f3 62300000 		.4byte	.LASF125
 10522 02f7 05       		.byte	0x5
 10523 02f8 00       		.uleb128 0
 10524 02f9 D0BA0000 		.4byte	.LASF126
 10525 02fd 05       		.byte	0x5
 10526 02fe 00       		.uleb128 0
 10527 02ff 3F280000 		.4byte	.LASF127
 10528 0303 05       		.byte	0x5
 10529 0304 00       		.uleb128 0
 10530 0305 091E0000 		.4byte	.LASF128
 10531 0309 05       		.byte	0x5
 10532 030a 00       		.uleb128 0
 10533 030b 7E030000 		.4byte	.LASF129
 10534 030f 05       		.byte	0x5
 10535 0310 00       		.uleb128 0
 10536 0311 3C8E0000 		.4byte	.LASF130
 10537 0315 05       		.byte	0x5
 10538 0316 00       		.uleb128 0
 10539 0317 9F5C0000 		.4byte	.LASF131
 10540 031b 05       		.byte	0x5
 10541 031c 00       		.uleb128 0
 10542 031d 9DA50000 		.4byte	.LASF132
 10543 0321 05       		.byte	0x5
 10544 0322 00       		.uleb128 0
 10545 0323 BF2C0000 		.4byte	.LASF133
 10546 0327 05       		.byte	0x5
 10547 0328 00       		.uleb128 0
 10548 0329 08BD0000 		.4byte	.LASF134
 10549 032d 05       		.byte	0x5
 10550 032e 00       		.uleb128 0
 10551 032f 53B50000 		.4byte	.LASF135
ARM GAS  /var/folders/z0/6xlwn_996xz3mwq1cgzkbq4r0000gp/T//ccBgBTlB.s 			page 206


 10552 0333 05       		.byte	0x5
 10553 0334 00       		.uleb128 0
 10554 0335 5D0B0000 		.4byte	.LASF136
 10555 0339 05       		.byte	0x5
 10556 033a 00       		.uleb128 0
 10557 033b 744E0000 		.4byte	.LASF137
 10558 033f 05       		.byte	0x5
 10559 0340 00       		.uleb128 0
 10560 0341 F6280000 		.4byte	.LASF138
 10561 0345 05       		.byte	0x5
 10562 0346 00       		.uleb128 0
 10563 0347 7F3E0000 		.4byte	.LASF139
 10564 034b 05       		.byte	0x5
 10565 034c 00       		.uleb128 0
 10566 034d E6BD0000 		.4byte	.LASF140
 10567 0351 05       		.byte	0x5
 10568 0352 00       		.uleb128 0
 10569 0353 7F730000 		.4byte	.LASF141
 10570 0357 05       		.byte	0x5
 10571 0358 00       		.uleb128 0
 10572 0359 A8300000 		.4byte	.LASF142
 10573 035d 05       		.byte	0x5
 10574 035e 00       		.uleb128 0
 10575 035f 37070000 		.4byte	.LASF143
 10576 0363 05       		.byte	0x5
 10577 0364 00       		.uleb128 0
 10578 0365 25350000 		.4byte	.LASF144
 10579 0369 05       		.byte	0x5
 10580 036a 00       		.uleb128 0
 10581 036b EA6D0000 		.4byte	.LASF145
 10582 036f 05       		.byte	0x5
 10583 0370 00       		.uleb128 0
 10584 0371 18250000 		.4byte	.LASF146
 10585 0375 05       		.byte	0x5
 10586 0376 00       		.uleb128 0
 10587 0377 BA010000 		.4byte	.LASF147
 10588 037b 05       		.byte	0x5
 10589 037c 00       		.uleb128 0
 10590 037d 1DB50000 		.4byte	.LASF148
 10591 0381 05       		.byte	0x5
 10592 0382 00       		.uleb128 0
 10593 0383 D2280000 		.4byte	.LASF149
 10594 0387 05       		.byte	0x5
 10595 0388 00       		.uleb128 0
 10596 0389 43100000 		.4byte	.LASF150
 10597 038d 05       		.byte	0x5
 10598 038e 00       		.uleb128 0
 10599 038f 7BB10000 		.4byte	.LASF151
 10600 0393 05       		.byte	0x5
 10601 0394 00       		.uleb128 0
 10602 0395 04880000 		.4byte	.LASF152
 10603 0399 05       		.byte	0x5
 10604 039a 00       		.uleb128 0
 10605 039b 297D0000 		.4byte	.LASF153
 10606 039f 05       		.byte	0x5
 10607 03a0 00       		.uleb128 0
 10608 03a1 25270000 		.4byte	.LASF154
ARM GAS  /var/folders/z0/6xlwn_996xz3mwq1cgzkbq4r0000gp/T//ccBgBTlB.s 			page 207


 10609 03a5 05       		.byte	0x5
 10610 03a6 00       		.uleb128 0
 10611 03a7 93B10000 		.4byte	.LASF155
 10612 03ab 05       		.byte	0x5
 10613 03ac 00       		.uleb128 0
 10614 03ad 99970000 		.4byte	.LASF156
 10615 03b1 05       		.byte	0x5
 10616 03b2 00       		.uleb128 0
 10617 03b3 72AA0000 		.4byte	.LASF157
 10618 03b7 05       		.byte	0x5
 10619 03b8 00       		.uleb128 0
 10620 03b9 0D200000 		.4byte	.LASF158
 10621 03bd 05       		.byte	0x5
 10622 03be 00       		.uleb128 0
 10623 03bf 6A260000 		.4byte	.LASF159
 10624 03c3 05       		.byte	0x5
 10625 03c4 00       		.uleb128 0
 10626 03c5 81540000 		.4byte	.LASF160
 10627 03c9 05       		.byte	0x5
 10628 03ca 00       		.uleb128 0
 10629 03cb 6B3D0000 		.4byte	.LASF161
 10630 03cf 05       		.byte	0x5
 10631 03d0 00       		.uleb128 0
 10632 03d1 42600000 		.4byte	.LASF162
 10633 03d5 05       		.byte	0x5
 10634 03d6 00       		.uleb128 0
 10635 03d7 E13E0000 		.4byte	.LASF163
 10636 03db 05       		.byte	0x5
 10637 03dc 00       		.uleb128 0
 10638 03dd 3BB30000 		.4byte	.LASF164
 10639 03e1 05       		.byte	0x5
 10640 03e2 00       		.uleb128 0
 10641 03e3 16860000 		.4byte	.LASF165
 10642 03e7 05       		.byte	0x5
 10643 03e8 00       		.uleb128 0
 10644 03e9 AEB10000 		.4byte	.LASF166
 10645 03ed 05       		.byte	0x5
 10646 03ee 00       		.uleb128 0
 10647 03ef C6650000 		.4byte	.LASF167
 10648 03f3 05       		.byte	0x5
 10649 03f4 00       		.uleb128 0
 10650 03f5 59690000 		.4byte	.LASF168
 10651 03f9 05       		.byte	0x5
 10652 03fa 00       		.uleb128 0
 10653 03fb 993B0000 		.4byte	.LASF169
 10654 03ff 05       		.byte	0x5
 10655 0400 00       		.uleb128 0
 10656 0401 64AB0000 		.4byte	.LASF170
 10657 0405 05       		.byte	0x5
 10658 0406 00       		.uleb128 0
 10659 0407 FB2A0000 		.4byte	.LASF171
 10660 040b 05       		.byte	0x5
 10661 040c 00       		.uleb128 0
 10662 040d B23F0000 		.4byte	.LASF172
 10663 0411 05       		.byte	0x5
 10664 0412 00       		.uleb128 0
 10665 0413 5E4E0000 		.4byte	.LASF173
ARM GAS  /var/folders/z0/6xlwn_996xz3mwq1cgzkbq4r0000gp/T//ccBgBTlB.s 			page 208


 10666 0417 05       		.byte	0x5
 10667 0418 00       		.uleb128 0
 10668 0419 730D0000 		.4byte	.LASF174
 10669 041d 05       		.byte	0x5
 10670 041e 00       		.uleb128 0
 10671 041f 616F0000 		.4byte	.LASF175
 10672 0423 05       		.byte	0x5
 10673 0424 00       		.uleb128 0
 10674 0425 05B10000 		.4byte	.LASF176
 10675 0429 05       		.byte	0x5
 10676 042a 00       		.uleb128 0
 10677 042b C2940000 		.4byte	.LASF177
 10678 042f 05       		.byte	0x5
 10679 0430 00       		.uleb128 0
 10680 0431 6A680000 		.4byte	.LASF178
 10681 0435 05       		.byte	0x5
 10682 0436 00       		.uleb128 0
 10683 0437 3E760000 		.4byte	.LASF179
 10684 043b 05       		.byte	0x5
 10685 043c 00       		.uleb128 0
 10686 043d B8100000 		.4byte	.LASF180
 10687 0441 05       		.byte	0x5
 10688 0442 00       		.uleb128 0
 10689 0443 A7060000 		.4byte	.LASF181
 10690 0447 05       		.byte	0x5
 10691 0448 00       		.uleb128 0
 10692 0449 3E3F0000 		.4byte	.LASF182
 10693 044d 05       		.byte	0x5
 10694 044e 00       		.uleb128 0
 10695 044f B7A30000 		.4byte	.LASF183
 10696 0453 05       		.byte	0x5
 10697 0454 00       		.uleb128 0
 10698 0455 12320000 		.4byte	.LASF184
 10699 0459 05       		.byte	0x5
 10700 045a 00       		.uleb128 0
 10701 045b ECB60000 		.4byte	.LASF185
 10702 045f 05       		.byte	0x5
 10703 0460 00       		.uleb128 0
 10704 0461 9EAE0000 		.4byte	.LASF186
 10705 0465 05       		.byte	0x5
 10706 0466 00       		.uleb128 0
 10707 0467 7F340000 		.4byte	.LASF187
 10708 046b 05       		.byte	0x5
 10709 046c 00       		.uleb128 0
 10710 046d A5410000 		.4byte	.LASF188
 10711 0471 05       		.byte	0x5
 10712 0472 00       		.uleb128 0
 10713 0473 31660000 		.4byte	.LASF189
 10714 0477 05       		.byte	0x5
 10715 0478 00       		.uleb128 0
 10716 0479 213D0000 		.4byte	.LASF190
 10717 047d 05       		.byte	0x5
 10718 047e 00       		.uleb128 0
 10719 047f 49A50000 		.4byte	.LASF191
 10720 0483 05       		.byte	0x5
 10721 0484 00       		.uleb128 0
 10722 0485 5AA60000 		.4byte	.LASF192
ARM GAS  /var/folders/z0/6xlwn_996xz3mwq1cgzkbq4r0000gp/T//ccBgBTlB.s 			page 209


 10723 0489 05       		.byte	0x5
 10724 048a 00       		.uleb128 0
 10725 048b 8DB20000 		.4byte	.LASF193
 10726 048f 05       		.byte	0x5
 10727 0490 00       		.uleb128 0
 10728 0491 840F0000 		.4byte	.LASF194
 10729 0495 05       		.byte	0x5
 10730 0496 00       		.uleb128 0
 10731 0497 9F720000 		.4byte	.LASF195
 10732 049b 05       		.byte	0x5
 10733 049c 00       		.uleb128 0
 10734 049d 4A8C0000 		.4byte	.LASF196
 10735 04a1 05       		.byte	0x5
 10736 04a2 00       		.uleb128 0
 10737 04a3 FE490000 		.4byte	.LASF197
 10738 04a7 05       		.byte	0x5
 10739 04a8 00       		.uleb128 0
 10740 04a9 B93C0000 		.4byte	.LASF198
 10741 04ad 05       		.byte	0x5
 10742 04ae 00       		.uleb128 0
 10743 04af 54450000 		.4byte	.LASF199
 10744 04b3 05       		.byte	0x5
 10745 04b4 00       		.uleb128 0
 10746 04b5 8A550000 		.4byte	.LASF200
 10747 04b9 05       		.byte	0x5
 10748 04ba 00       		.uleb128 0
 10749 04bb 16400000 		.4byte	.LASF201
 10750 04bf 05       		.byte	0x5
 10751 04c0 00       		.uleb128 0
 10752 04c1 2EB90000 		.4byte	.LASF202
 10753 04c5 05       		.byte	0x5
 10754 04c6 00       		.uleb128 0
 10755 04c7 E5B00000 		.4byte	.LASF203
 10756 04cb 05       		.byte	0x5
 10757 04cc 00       		.uleb128 0
 10758 04cd A4270000 		.4byte	.LASF204
 10759 04d1 05       		.byte	0x5
 10760 04d2 00       		.uleb128 0
 10761 04d3 BF8C0000 		.4byte	.LASF205
 10762 04d7 05       		.byte	0x5
 10763 04d8 00       		.uleb128 0
 10764 04d9 43620000 		.4byte	.LASF206
 10765 04dd 05       		.byte	0x5
 10766 04de 00       		.uleb128 0
 10767 04df 335D0000 		.4byte	.LASF207
 10768 04e3 05       		.byte	0x5
 10769 04e4 00       		.uleb128 0
 10770 04e5 E3220000 		.4byte	.LASF208
 10771 04e9 05       		.byte	0x5
 10772 04ea 00       		.uleb128 0
 10773 04eb 13820000 		.4byte	.LASF209
 10774 04ef 05       		.byte	0x5
 10775 04f0 00       		.uleb128 0
 10776 04f1 11BF0000 		.4byte	.LASF210
 10777 04f5 05       		.byte	0x5
 10778 04f6 00       		.uleb128 0
 10779 04f7 CD000000 		.4byte	.LASF211
ARM GAS  /var/folders/z0/6xlwn_996xz3mwq1cgzkbq4r0000gp/T//ccBgBTlB.s 			page 210


 10780 04fb 05       		.byte	0x5
 10781 04fc 00       		.uleb128 0
 10782 04fd 6F450000 		.4byte	.LASF212
 10783 0501 05       		.byte	0x5
 10784 0502 00       		.uleb128 0
 10785 0503 642B0000 		.4byte	.LASF213
 10786 0507 05       		.byte	0x5
 10787 0508 00       		.uleb128 0
 10788 0509 928F0000 		.4byte	.LASF214
 10789 050d 05       		.byte	0x5
 10790 050e 00       		.uleb128 0
 10791 050f 392E0000 		.4byte	.LASF215
 10792 0513 05       		.byte	0x5
 10793 0514 00       		.uleb128 0
 10794 0515 A6830000 		.4byte	.LASF216
 10795 0519 05       		.byte	0x5
 10796 051a 00       		.uleb128 0
 10797 051b 22A70000 		.4byte	.LASF217
 10798 051f 05       		.byte	0x5
 10799 0520 00       		.uleb128 0
 10800 0521 15310000 		.4byte	.LASF218
 10801 0525 05       		.byte	0x5
 10802 0526 00       		.uleb128 0
 10803 0527 558F0000 		.4byte	.LASF219
 10804 052b 05       		.byte	0x5
 10805 052c 00       		.uleb128 0
 10806 052d 2D170000 		.4byte	.LASF220
 10807 0531 05       		.byte	0x5
 10808 0532 00       		.uleb128 0
 10809 0533 AF6D0000 		.4byte	.LASF221
 10810 0537 05       		.byte	0x5
 10811 0538 00       		.uleb128 0
 10812 0539 19880000 		.4byte	.LASF222
 10813 053d 05       		.byte	0x5
 10814 053e 00       		.uleb128 0
 10815 053f 12090000 		.4byte	.LASF223
 10816 0543 05       		.byte	0x5
 10817 0544 00       		.uleb128 0
 10818 0545 B92E0000 		.4byte	.LASF224
 10819 0549 05       		.byte	0x5
 10820 054a 00       		.uleb128 0
 10821 054b 894C0000 		.4byte	.LASF225
 10822 054f 05       		.byte	0x5
 10823 0550 00       		.uleb128 0
 10824 0551 7DAE0000 		.4byte	.LASF226
 10825 0555 05       		.byte	0x5
 10826 0556 00       		.uleb128 0
 10827 0557 287C0000 		.4byte	.LASF227
 10828 055b 05       		.byte	0x5
 10829 055c 00       		.uleb128 0
 10830 055d 791B0000 		.4byte	.LASF228
 10831 0561 05       		.byte	0x5
 10832 0562 00       		.uleb128 0
 10833 0563 0A290000 		.4byte	.LASF229
 10834 0567 05       		.byte	0x5
 10835 0568 00       		.uleb128 0
 10836 0569 A7540000 		.4byte	.LASF230
ARM GAS  /var/folders/z0/6xlwn_996xz3mwq1cgzkbq4r0000gp/T//ccBgBTlB.s 			page 211


 10837 056d 05       		.byte	0x5
 10838 056e 00       		.uleb128 0
 10839 056f 564C0000 		.4byte	.LASF231
 10840 0573 05       		.byte	0x5
 10841 0574 00       		.uleb128 0
 10842 0575 242C0000 		.4byte	.LASF232
 10843 0579 05       		.byte	0x5
 10844 057a 00       		.uleb128 0
 10845 057b 0D8F0000 		.4byte	.LASF233
 10846 057f 05       		.byte	0x5
 10847 0580 00       		.uleb128 0
 10848 0581 0BA70000 		.4byte	.LASF234
 10849 0585 05       		.byte	0x5
 10850 0586 00       		.uleb128 0
 10851 0587 BA5D0000 		.4byte	.LASF235
 10852 058b 05       		.byte	0x5
 10853 058c 00       		.uleb128 0
 10854 058d 905F0000 		.4byte	.LASF236
 10855 0591 05       		.byte	0x5
 10856 0592 00       		.uleb128 0
 10857 0593 BC500000 		.4byte	.LASF237
 10858 0597 05       		.byte	0x5
 10859 0598 00       		.uleb128 0
 10860 0599 99520000 		.4byte	.LASF238
 10861 059d 05       		.byte	0x5
 10862 059e 00       		.uleb128 0
 10863 059f 298C0000 		.4byte	.LASF239
 10864 05a3 05       		.byte	0x5
 10865 05a4 00       		.uleb128 0
 10866 05a5 A79D0000 		.4byte	.LASF240
 10867 05a9 05       		.byte	0x5
 10868 05aa 00       		.uleb128 0
 10869 05ab 073F0000 		.4byte	.LASF241
 10870 05af 05       		.byte	0x5
 10871 05b0 00       		.uleb128 0
 10872 05b1 8E000000 		.4byte	.LASF242
 10873 05b5 05       		.byte	0x5
 10874 05b6 00       		.uleb128 0
 10875 05b7 34020000 		.4byte	.LASF243
 10876 05bb 05       		.byte	0x5
 10877 05bc 00       		.uleb128 0
 10878 05bd 4A4D0000 		.4byte	.LASF244
 10879 05c1 05       		.byte	0x5
 10880 05c2 00       		.uleb128 0
 10881 05c3 AF970000 		.4byte	.LASF245
 10882 05c7 05       		.byte	0x5
 10883 05c8 00       		.uleb128 0
 10884 05c9 100B0000 		.4byte	.LASF246
 10885 05cd 05       		.byte	0x5
 10886 05ce 00       		.uleb128 0
 10887 05cf 61660000 		.4byte	.LASF247
 10888 05d3 05       		.byte	0x5
 10889 05d4 00       		.uleb128 0
 10890 05d5 AD190000 		.4byte	.LASF248
 10891 05d9 05       		.byte	0x5
 10892 05da 00       		.uleb128 0
 10893 05db 85600000 		.4byte	.LASF249
ARM GAS  /var/folders/z0/6xlwn_996xz3mwq1cgzkbq4r0000gp/T//ccBgBTlB.s 			page 212


 10894 05df 05       		.byte	0x5
 10895 05e0 00       		.uleb128 0
 10896 05e1 563F0000 		.4byte	.LASF250
 10897 05e5 05       		.byte	0x5
 10898 05e6 00       		.uleb128 0
 10899 05e7 65000000 		.4byte	.LASF251
 10900 05eb 05       		.byte	0x5
 10901 05ec 00       		.uleb128 0
 10902 05ed D7480000 		.4byte	.LASF252
 10903 05f1 05       		.byte	0x5
 10904 05f2 00       		.uleb128 0
 10905 05f3 363B0000 		.4byte	.LASF253
 10906 05f7 05       		.byte	0x5
 10907 05f8 00       		.uleb128 0
 10908 05f9 A5660000 		.4byte	.LASF254
 10909 05fd 05       		.byte	0x5
 10910 05fe 00       		.uleb128 0
 10911 05ff 359E0000 		.4byte	.LASF255
 10912 0603 05       		.byte	0x5
 10913 0604 00       		.uleb128 0
 10914 0605 0C380000 		.4byte	.LASF256
 10915 0609 05       		.byte	0x5
 10916 060a 00       		.uleb128 0
 10917 060b 157B0000 		.4byte	.LASF257
 10918 060f 05       		.byte	0x5
 10919 0610 00       		.uleb128 0
 10920 0611 687C0000 		.4byte	.LASF258
 10921 0615 05       		.byte	0x5
 10922 0616 00       		.uleb128 0
 10923 0617 56130000 		.4byte	.LASF259
 10924 061b 05       		.byte	0x5
 10925 061c 00       		.uleb128 0
 10926 061d C0260000 		.4byte	.LASF260
 10927 0621 05       		.byte	0x5
 10928 0622 00       		.uleb128 0
 10929 0623 A0340000 		.4byte	.LASF261
 10930 0627 05       		.byte	0x5
 10931 0628 00       		.uleb128 0
 10932 0629 2D0E0000 		.4byte	.LASF262
 10933 062d 05       		.byte	0x5
 10934 062e 00       		.uleb128 0
 10935 062f A1870000 		.4byte	.LASF263
 10936 0633 05       		.byte	0x5
 10937 0634 00       		.uleb128 0
 10938 0635 4C2A0000 		.4byte	.LASF264
 10939 0639 05       		.byte	0x5
 10940 063a 00       		.uleb128 0
 10941 063b 81190000 		.4byte	.LASF265
 10942 063f 05       		.byte	0x5
 10943 0640 00       		.uleb128 0
 10944 0641 396B0000 		.4byte	.LASF266
 10945 0645 05       		.byte	0x5
 10946 0646 00       		.uleb128 0
 10947 0647 AA170000 		.4byte	.LASF267
 10948 064b 05       		.byte	0x5
 10949 064c 00       		.uleb128 0
 10950 064d 40240000 		.4byte	.LASF268
ARM GAS  /var/folders/z0/6xlwn_996xz3mwq1cgzkbq4r0000gp/T//ccBgBTlB.s 			page 213


 10951 0651 05       		.byte	0x5
 10952 0652 00       		.uleb128 0
 10953 0653 3A7C0000 		.4byte	.LASF269
 10954 0657 05       		.byte	0x5
 10955 0658 00       		.uleb128 0
 10956 0659 48AD0000 		.4byte	.LASF270
 10957 065d 05       		.byte	0x5
 10958 065e 00       		.uleb128 0
 10959 065f 8E3E0000 		.4byte	.LASF271
 10960 0663 05       		.byte	0x5
 10961 0664 00       		.uleb128 0
 10962 0665 3A640000 		.4byte	.LASF272
 10963 0669 05       		.byte	0x5
 10964 066a 00       		.uleb128 0
 10965 066b 7A480000 		.4byte	.LASF273
 10966 066f 05       		.byte	0x5
 10967 0670 00       		.uleb128 0
 10968 0671 FD4C0000 		.4byte	.LASF274
 10969 0675 05       		.byte	0x5
 10970 0676 00       		.uleb128 0
 10971 0677 75950000 		.4byte	.LASF275
 10972 067b 05       		.byte	0x5
 10973 067c 00       		.uleb128 0
 10974 067d 5DB60000 		.4byte	.LASF276
 10975 0681 05       		.byte	0x5
 10976 0682 00       		.uleb128 0
 10977 0683 FB7B0000 		.4byte	.LASF277
 10978 0687 05       		.byte	0x5
 10979 0688 00       		.uleb128 0
 10980 0689 33890000 		.4byte	.LASF278
 10981 068d 05       		.byte	0x5
 10982 068e 00       		.uleb128 0
 10983 068f F9460000 		.4byte	.LASF279
 10984 0693 05       		.byte	0x5
 10985 0694 00       		.uleb128 0
 10986 0695 3A510000 		.4byte	.LASF280
 10987 0699 05       		.byte	0x5
 10988 069a 00       		.uleb128 0
 10989 069b BF740000 		.4byte	.LASF281
 10990 069f 05       		.byte	0x5
 10991 06a0 00       		.uleb128 0
 10992 06a1 16350000 		.4byte	.LASF282
 10993 06a5 05       		.byte	0x5
 10994 06a6 00       		.uleb128 0
 10995 06a7 61410000 		.4byte	.LASF283
 10996 06ab 05       		.byte	0x5
 10997 06ac 00       		.uleb128 0
 10998 06ad E7280000 		.4byte	.LASF284
 10999 06b1 05       		.byte	0x5
 11000 06b2 00       		.uleb128 0
 11001 06b3 660F0000 		.4byte	.LASF285
 11002 06b7 05       		.byte	0x5
 11003 06b8 00       		.uleb128 0
 11004 06b9 EE4C0000 		.4byte	.LASF286
 11005 06bd 05       		.byte	0x5
 11006 06be 00       		.uleb128 0
 11007 06bf 0B4D0000 		.4byte	.LASF287
ARM GAS  /var/folders/z0/6xlwn_996xz3mwq1cgzkbq4r0000gp/T//ccBgBTlB.s 			page 214


 11008 06c3 05       		.byte	0x5
 11009 06c4 00       		.uleb128 0
 11010 06c5 AAAC0000 		.4byte	.LASF288
 11011 06c9 05       		.byte	0x5
 11012 06ca 00       		.uleb128 0
 11013 06cb 07A20000 		.4byte	.LASF289
 11014 06cf 05       		.byte	0x5
 11015 06d0 00       		.uleb128 0
 11016 06d1 F6070000 		.4byte	.LASF290
 11017 06d5 05       		.byte	0x5
 11018 06d6 00       		.uleb128 0
 11019 06d7 E0930000 		.4byte	.LASF291
 11020 06db 05       		.byte	0x5
 11021 06dc 00       		.uleb128 0
 11022 06dd 526F0000 		.4byte	.LASF292
 11023 06e1 05       		.byte	0x5
 11024 06e2 00       		.uleb128 0
 11025 06e3 55AB0000 		.4byte	.LASF293
 11026 06e7 05       		.byte	0x5
 11027 06e8 00       		.uleb128 0
 11028 06e9 D3AC0000 		.4byte	.LASF294
 11029 06ed 05       		.byte	0x5
 11030 06ee 00       		.uleb128 0
 11031 06ef 53AE0000 		.4byte	.LASF295
 11032 06f3 05       		.byte	0x5
 11033 06f4 00       		.uleb128 0
 11034 06f5 A5BA0000 		.4byte	.LASF296
 11035 06f9 05       		.byte	0x5
 11036 06fa 00       		.uleb128 0
 11037 06fb 113D0000 		.4byte	.LASF297
 11038 06ff 05       		.byte	0x5
 11039 0700 00       		.uleb128 0
 11040 0701 F73E0000 		.4byte	.LASF298
 11041 0705 05       		.byte	0x5
 11042 0706 00       		.uleb128 0
 11043 0707 C2060000 		.4byte	.LASF299
 11044 070b 05       		.byte	0x5
 11045 070c 00       		.uleb128 0
 11046 070d 1D080000 		.4byte	.LASF300
 11047 0711 05       		.byte	0x5
 11048 0712 00       		.uleb128 0
 11049 0713 8D1F0000 		.4byte	.LASF301
 11050 0717 05       		.byte	0x5
 11051 0718 00       		.uleb128 0
 11052 0719 955B0000 		.4byte	.LASF302
 11053 071d 05       		.byte	0x5
 11054 071e 00       		.uleb128 0
 11055 071f 07720000 		.4byte	.LASF303
 11056 0723 05       		.byte	0x5
 11057 0724 00       		.uleb128 0
 11058 0725 1C230000 		.4byte	.LASF304
 11059 0729 05       		.byte	0x5
 11060 072a 00       		.uleb128 0
 11061 072b 38A00000 		.4byte	.LASF305
 11062 072f 05       		.byte	0x5
 11063 0730 00       		.uleb128 0
 11064 0731 DA4A0000 		.4byte	.LASF306
ARM GAS  /var/folders/z0/6xlwn_996xz3mwq1cgzkbq4r0000gp/T//ccBgBTlB.s 			page 215


 11065 0735 05       		.byte	0x5
 11066 0736 00       		.uleb128 0
 11067 0737 96940000 		.4byte	.LASF307
 11068 073b 05       		.byte	0x5
 11069 073c 00       		.uleb128 0
 11070 073d 7D130000 		.4byte	.LASF308
 11071 0741 05       		.byte	0x5
 11072 0742 00       		.uleb128 0
 11073 0743 D2780000 		.4byte	.LASF309
 11074 0747 05       		.byte	0x5
 11075 0748 00       		.uleb128 0
 11076 0749 AE420000 		.4byte	.LASF310
 11077 074d 05       		.byte	0x5
 11078 074e 00       		.uleb128 0
 11079 074f EAA60000 		.4byte	.LASF311
 11080 0753 05       		.byte	0x5
 11081 0754 00       		.uleb128 0
 11082 0755 817D0000 		.4byte	.LASF312
 11083 0759 05       		.byte	0x5
 11084 075a 00       		.uleb128 0
 11085 075b 2B710000 		.4byte	.LASF313
 11086 075f 05       		.byte	0x5
 11087 0760 00       		.uleb128 0
 11088 0761 4D460000 		.4byte	.LASF314
 11089 0765 05       		.byte	0x5
 11090 0766 00       		.uleb128 0
 11091 0767 73830000 		.4byte	.LASF315
 11092 076b 05       		.byte	0x5
 11093 076c 00       		.uleb128 0
 11094 076d 702C0000 		.4byte	.LASF316
 11095 0771 05       		.byte	0x5
 11096 0772 00       		.uleb128 0
 11097 0773 8E6D0000 		.4byte	.LASF317
 11098 0777 05       		.byte	0x5
 11099 0778 00       		.uleb128 0
 11100 0779 B44B0000 		.4byte	.LASF318
 11101 077d 05       		.byte	0x5
 11102 077e 00       		.uleb128 0
 11103 077f 89150000 		.4byte	.LASF319
 11104 0783 05       		.byte	0x5
 11105 0784 00       		.uleb128 0
 11106 0785 835D0000 		.4byte	.LASF320
 11107 0789 05       		.byte	0x5
 11108 078a 00       		.uleb128 0
 11109 078b A55B0000 		.4byte	.LASF321
 11110 078f 05       		.byte	0x5
 11111 0790 00       		.uleb128 0
 11112 0791 4EA70000 		.4byte	.LASF322
 11113 0795 05       		.byte	0x5
 11114 0796 00       		.uleb128 0
 11115 0797 53930000 		.4byte	.LASF323
 11116 079b 05       		.byte	0x5
 11117 079c 00       		.uleb128 0
 11118 079d 1B970000 		.4byte	.LASF324
 11119 07a1 05       		.byte	0x5
 11120 07a2 00       		.uleb128 0
 11121 07a3 FE390000 		.4byte	.LASF325
ARM GAS  /var/folders/z0/6xlwn_996xz3mwq1cgzkbq4r0000gp/T//ccBgBTlB.s 			page 216


 11122 07a7 05       		.byte	0x5
 11123 07a8 00       		.uleb128 0
 11124 07a9 E79A0000 		.4byte	.LASF326
 11125 07ad 05       		.byte	0x5
 11126 07ae 00       		.uleb128 0
 11127 07af D8B00000 		.4byte	.LASF327
 11128 07b3 05       		.byte	0x5
 11129 07b4 00       		.uleb128 0
 11130 07b5 A1000000 		.4byte	.LASF328
 11131 07b9 05       		.byte	0x5
 11132 07ba 00       		.uleb128 0
 11133 07bb 82000000 		.4byte	.LASF329
 11134 07bf 05       		.byte	0x5
 11135 07c0 00       		.uleb128 0
 11136 07c1 FEBD0000 		.4byte	.LASF330
 11137 07c5 05       		.byte	0x5
 11138 07c6 00       		.uleb128 0
 11139 07c7 5A140000 		.4byte	.LASF331
 11140 07cb 05       		.byte	0x5
 11141 07cc 00       		.uleb128 0
 11142 07cd DFB50000 		.4byte	.LASF332
 11143 07d1 05       		.byte	0x5
 11144 07d2 00       		.uleb128 0
 11145 07d3 81460000 		.4byte	.LASF333
 11146 07d7 05       		.byte	0x5
 11147 07d8 00       		.uleb128 0
 11148 07d9 85950000 		.4byte	.LASF334
 11149 07dd 05       		.byte	0x5
 11150 07de 00       		.uleb128 0
 11151 07df 28210000 		.4byte	.LASF335
 11152 07e3 05       		.byte	0x5
 11153 07e4 00       		.uleb128 0
 11154 07e5 9C5E0000 		.4byte	.LASF336
 11155 07e9 05       		.byte	0x5
 11156 07ea 00       		.uleb128 0
 11157 07eb C59D0000 		.4byte	.LASF337
 11158 07ef 05       		.byte	0x5
 11159 07f0 00       		.uleb128 0
 11160 07f1 DF1C0000 		.4byte	.LASF338
 11161 07f5 05       		.byte	0x5
 11162 07f6 00       		.uleb128 0
 11163 07f7 A7460000 		.4byte	.LASF339
 11164 07fb 05       		.byte	0x5
 11165 07fc 00       		.uleb128 0
 11166 07fd 7E080000 		.4byte	.LASF340
 11167 0801 05       		.byte	0x5
 11168 0802 00       		.uleb128 0
 11169 0803 17710000 		.4byte	.LASF341
 11170 0807 05       		.byte	0x5
 11171 0808 00       		.uleb128 0
 11172 0809 09470000 		.4byte	.LASF342
 11173 080d 05       		.byte	0x5
 11174 080e 00       		.uleb128 0
 11175 080f 12960000 		.4byte	.LASF343
 11176 0813 05       		.byte	0x5
 11177 0814 00       		.uleb128 0
 11178 0815 9E840000 		.4byte	.LASF344
ARM GAS  /var/folders/z0/6xlwn_996xz3mwq1cgzkbq4r0000gp/T//ccBgBTlB.s 			page 217


 11179 0819 05       		.byte	0x5
 11180 081a 00       		.uleb128 0
 11181 081b 39030000 		.4byte	.LASF345
 11182 081f 05       		.byte	0x5
 11183 0820 00       		.uleb128 0
 11184 0821 4C530000 		.4byte	.LASF346
 11185 0825 00       		.byte	0
 11186              		.section	.debug_macro,"G",%progbits,wm4._newlib_version.h.4.ad342815780c8db09778091a421b5b5b,comda
 11187              	.Ldebug_macro2:
 11188 0000 0400     		.2byte	0x4
 11189 0002 00       		.byte	0
 11190 0003 05       		.byte	0x5
 11191 0004 04       		.uleb128 0x4
 11192 0005 D39F0000 		.4byte	.LASF350
 11193 0009 05       		.byte	0x5
 11194 000a 06       		.uleb128 0x6
 11195 000b 74660000 		.4byte	.LASF351
 11196 000f 05       		.byte	0x5
 11197 0010 07       		.uleb128 0x7
 11198 0011 6F550000 		.4byte	.LASF352
 11199 0015 05       		.byte	0x5
 11200 0016 08       		.uleb128 0x8
 11201 0017 26360000 		.4byte	.LASF353
 11202 001b 05       		.byte	0x5
 11203 001c 09       		.uleb128 0x9
 11204 001d 31400000 		.4byte	.LASF354
 11205 0021 00       		.byte	0
 11206              		.section	.debug_macro,"G",%progbits,wm4.newlib.h.21.0b9fc973bddc8b940a18de2b6ea6adc7,comdat
 11207              	.Ldebug_macro3:
 11208 0000 0400     		.2byte	0x4
 11209 0002 00       		.byte	0
 11210 0003 05       		.byte	0x5
 11211 0004 15       		.uleb128 0x15
 11212 0005 C7950000 		.4byte	.LASF355
 11213 0009 05       		.byte	0x5
 11214 000a 18       		.uleb128 0x18
 11215 000b E00F0000 		.4byte	.LASF356
 11216 000f 05       		.byte	0x5
 11217 0010 28       		.uleb128 0x28
 11218 0011 5A100000 		.4byte	.LASF357
 11219 0015 05       		.byte	0x5
 11220 0016 32       		.uleb128 0x32
 11221 0017 1D890000 		.4byte	.LASF358
 11222 001b 05       		.byte	0x5
 11223 001c 36       		.uleb128 0x36
 11224 001d B9370000 		.4byte	.LASF359
 11225 0021 05       		.byte	0x5
 11226 0022 39       		.uleb128 0x39
 11227 0023 FD500000 		.4byte	.LASF360
 11228 0027 05       		.byte	0x5
 11229 0028 3C       		.uleb128 0x3c
 11230 0029 31820000 		.4byte	.LASF361
 11231 002d 05       		.byte	0x5
 11232 002e 3F       		.uleb128 0x3f
 11233 002f 71BC0000 		.4byte	.LASF362
 11234 0033 05       		.byte	0x5
 11235 0034 42       		.uleb128 0x42
ARM GAS  /var/folders/z0/6xlwn_996xz3mwq1cgzkbq4r0000gp/T//ccBgBTlB.s 			page 218


 11236 0035 459C0000 		.4byte	.LASF363
 11237 0039 05       		.byte	0x5
 11238 003a 45       		.uleb128 0x45
 11239 003b 53B30000 		.4byte	.LASF364
 11240 003f 05       		.byte	0x5
 11241 0040 48       		.uleb128 0x48
 11242 0041 30AE0000 		.4byte	.LASF365
 11243 0045 05       		.byte	0x5
 11244 0046 4B       		.uleb128 0x4b
 11245 0047 62590000 		.4byte	.LASF366
 11246 004b 00       		.byte	0
 11247              		.section	.debug_macro,"G",%progbits,wm4.features.h.22.692cd1f2e947ca7b8fea300222f5f1f2,comdat
 11248              	.Ldebug_macro4:
 11249 0000 0400     		.2byte	0x4
 11250 0002 00       		.byte	0
 11251 0003 05       		.byte	0x5
 11252 0004 16       		.uleb128 0x16
 11253 0005 A39A0000 		.4byte	.LASF369
 11254 0009 05       		.byte	0x5
 11255 000a 21       		.uleb128 0x21
 11256 000b 69800000 		.4byte	.LASF370
 11257 000f 05       		.byte	0x5
 11258 0010 28       		.uleb128 0x28
 11259 0011 7A9D0000 		.4byte	.LASF371
 11260 0015 06       		.byte	0x6
 11261 0016 8001     		.uleb128 0x80
 11262 0018 03340000 		.4byte	.LASF372
 11263 001c 05       		.byte	0x5
 11264 001d 8101     		.uleb128 0x81
 11265 001f 65360000 		.4byte	.LASF373
 11266 0023 06       		.byte	0x6
 11267 0024 8501     		.uleb128 0x85
 11268 0026 772B0000 		.4byte	.LASF374
 11269 002a 05       		.byte	0x5
 11270 002b 8601     		.uleb128 0x86
 11271 002d C9AA0000 		.4byte	.LASF375
 11272 0031 06       		.byte	0x6
 11273 0032 8701     		.uleb128 0x87
 11274 0034 83560000 		.4byte	.LASF376
 11275 0038 05       		.byte	0x5
 11276 0039 8801     		.uleb128 0x88
 11277 003b 10870000 		.4byte	.LASF377
 11278 003f 06       		.byte	0x6
 11279 0040 9B01     		.uleb128 0x9b
 11280 0042 7AA80000 		.4byte	.LASF378
 11281 0046 05       		.byte	0x5
 11282 0047 9C01     		.uleb128 0x9c
 11283 0049 5E9D0000 		.4byte	.LASF379
 11284 004d 05       		.byte	0x5
 11285 004e F201     		.uleb128 0xf2
 11286 0050 E7770000 		.4byte	.LASF380
 11287 0054 05       		.byte	0x5
 11288 0055 F801     		.uleb128 0xf8
 11289 0057 A48A0000 		.4byte	.LASF381
 11290 005b 05       		.byte	0x5
 11291 005c 8002     		.uleb128 0x100
 11292 005e F9970000 		.4byte	.LASF382
ARM GAS  /var/folders/z0/6xlwn_996xz3mwq1cgzkbq4r0000gp/T//ccBgBTlB.s 			page 219


 11293 0062 05       		.byte	0x5
 11294 0063 8802     		.uleb128 0x108
 11295 0065 30830000 		.4byte	.LASF383
 11296 0069 05       		.byte	0x5
 11297 006a 9002     		.uleb128 0x110
 11298 006c F9750000 		.4byte	.LASF384
 11299 0070 05       		.byte	0x5
 11300 0071 9402     		.uleb128 0x114
 11301 0073 32A90000 		.4byte	.LASF385
 11302 0077 05       		.byte	0x5
 11303 0078 9A02     		.uleb128 0x11a
 11304 007a 58550000 		.4byte	.LASF386
 11305 007e 05       		.byte	0x5
 11306 007f AA02     		.uleb128 0x12a
 11307 0081 E5470000 		.4byte	.LASF387
 11308 0085 05       		.byte	0x5
 11309 0086 BA02     		.uleb128 0x13a
 11310 0088 84840000 		.4byte	.LASF388
 11311 008c 00       		.byte	0
 11312              		.section	.debug_macro,"G",%progbits,wm4.config.h.219.65a553ab5bef5482f0d7880b0d33015e,comdat
 11313              	.Ldebug_macro5:
 11314 0000 0400     		.2byte	0x4
 11315 0002 00       		.byte	0
 11316 0003 05       		.byte	0x5
 11317 0004 DB01     		.uleb128 0xdb
 11318 0006 B16B0000 		.4byte	.LASF389
 11319 000a 06       		.byte	0x6
 11320 000b E101     		.uleb128 0xe1
 11321 000d 6F9D0000 		.4byte	.LASF390
 11322 0011 05       		.byte	0x5
 11323 0012 E501     		.uleb128 0xe5
 11324 0014 553D0000 		.4byte	.LASF391
 11325 0018 05       		.byte	0x5
 11326 0019 F401     		.uleb128 0xf4
 11327 001b 176B0000 		.4byte	.LASF392
 11328 001f 05       		.byte	0x5
 11329 0020 F801     		.uleb128 0xf8
 11330 0022 BFAA0000 		.4byte	.LASF393
 11331 0026 05       		.byte	0x5
 11332 0027 FF01     		.uleb128 0xff
 11333 0029 768F0000 		.4byte	.LASF394
 11334 002d 05       		.byte	0x5
 11335 002e 8502     		.uleb128 0x105
 11336 0030 7B060000 		.4byte	.LASF395
 11337 0034 00       		.byte	0
 11338              		.section	.debug_macro,"G",%progbits,wm4._ansi.h.23.84af8eb8cd468d25cc5f45f5eb13ec51,comdat
 11339              	.Ldebug_macro6:
 11340 0000 0400     		.2byte	0x4
 11341 0002 00       		.byte	0
 11342 0003 05       		.byte	0x5
 11343 0004 17       		.uleb128 0x17
 11344 0005 451C0000 		.4byte	.LASF396
 11345 0009 05       		.byte	0x5
 11346 000a 2C       		.uleb128 0x2c
 11347 000b 32240000 		.4byte	.LASF397
 11348 000f 05       		.byte	0x5
 11349 0010 2D       		.uleb128 0x2d
ARM GAS  /var/folders/z0/6xlwn_996xz3mwq1cgzkbq4r0000gp/T//ccBgBTlB.s 			page 220


 11350 0011 9B570000 		.4byte	.LASF398
 11351 0015 05       		.byte	0x5
 11352 0016 2E       		.uleb128 0x2e
 11353 0017 9F9E0000 		.4byte	.LASF399
 11354 001b 05       		.byte	0x5
 11355 001c 32       		.uleb128 0x32
 11356 001d 2D6B0000 		.4byte	.LASF400
 11357 0021 05       		.byte	0x5
 11358 0022 33       		.uleb128 0x33
 11359 0023 06680000 		.4byte	.LASF401
 11360 0027 05       		.byte	0x5
 11361 0028 34       		.uleb128 0x34
 11362 0029 DE810000 		.4byte	.LASF402
 11363 002d 05       		.byte	0x5
 11364 002e 35       		.uleb128 0x35
 11365 002f D6220000 		.4byte	.LASF403
 11366 0033 05       		.byte	0x5
 11367 0034 36       		.uleb128 0x36
 11368 0035 8C2F0000 		.4byte	.LASF404
 11369 0039 05       		.byte	0x5
 11370 003a 37       		.uleb128 0x37
 11371 003b 52770000 		.4byte	.LASF405
 11372 003f 05       		.byte	0x5
 11373 0040 38       		.uleb128 0x38
 11374 0041 01360000 		.4byte	.LASF406
 11375 0045 05       		.byte	0x5
 11376 0046 39       		.uleb128 0x39
 11377 0047 47040000 		.4byte	.LASF407
 11378 004b 05       		.byte	0x5
 11379 004c 40       		.uleb128 0x40
 11380 004d 9C090000 		.4byte	.LASF408
 11381 0051 05       		.byte	0x5
 11382 0052 41       		.uleb128 0x41
 11383 0053 91050000 		.4byte	.LASF409
 11384 0057 05       		.byte	0x5
 11385 0058 42       		.uleb128 0x42
 11386 0059 0D930000 		.4byte	.LASF410
 11387 005d 05       		.byte	0x5
 11388 005e 43       		.uleb128 0x43
 11389 005f 43880000 		.4byte	.LASF411
 11390 0063 05       		.byte	0x5
 11391 0064 45       		.uleb128 0x45
 11392 0065 A4550000 		.4byte	.LASF412
 11393 0069 05       		.byte	0x5
 11394 006a 46       		.uleb128 0x46
 11395 006b D0150000 		.4byte	.LASF413
 11396 006f 05       		.byte	0x5
 11397 0070 47       		.uleb128 0x47
 11398 0071 8F7C0000 		.4byte	.LASF414
 11399 0075 05       		.byte	0x5
 11400 0076 49       		.uleb128 0x49
 11401 0077 44AC0000 		.4byte	.LASF415
 11402 007b 05       		.byte	0x5
 11403 007c 4C       		.uleb128 0x4c
 11404 007d 12770000 		.4byte	.LASF416
 11405 0081 05       		.byte	0x5
 11406 0082 65       		.uleb128 0x65
ARM GAS  /var/folders/z0/6xlwn_996xz3mwq1cgzkbq4r0000gp/T//ccBgBTlB.s 			page 221


 11407 0083 FEA70000 		.4byte	.LASF417
 11408 0087 05       		.byte	0x5
 11409 0088 7B       		.uleb128 0x7b
 11410 0089 79120000 		.4byte	.LASF418
 11411 008d 05       		.byte	0x5
 11412 008e 8301     		.uleb128 0x83
 11413 0090 BD120000 		.4byte	.LASF419
 11414 0094 05       		.byte	0x5
 11415 0095 8401     		.uleb128 0x84
 11416 0097 12AC0000 		.4byte	.LASF420
 11417 009b 00       		.byte	0
 11418              		.section	.debug_macro,"G",%progbits,wm4.stddef.h.39.99b5021e28f91cdb161c889e07266673,comdat
 11419              	.Ldebug_macro7:
 11420 0000 0400     		.2byte	0x4
 11421 0002 00       		.byte	0
 11422 0003 05       		.byte	0x5
 11423 0004 27       		.uleb128 0x27
 11424 0005 EB4D0000 		.4byte	.LASF422
 11425 0009 05       		.byte	0x5
 11426 000a 28       		.uleb128 0x28
 11427 000b 529D0000 		.4byte	.LASF423
 11428 000f 05       		.byte	0x5
 11429 0010 2A       		.uleb128 0x2a
 11430 0011 10700000 		.4byte	.LASF424
 11431 0015 05       		.byte	0x5
 11432 0016 8901     		.uleb128 0x89
 11433 0018 9C320000 		.4byte	.LASF425
 11434 001c 05       		.byte	0x5
 11435 001d 8A01     		.uleb128 0x8a
 11436 001f 3E0F0000 		.4byte	.LASF426
 11437 0023 05       		.byte	0x5
 11438 0024 8B01     		.uleb128 0x8b
 11439 0026 828E0000 		.4byte	.LASF427
 11440 002a 05       		.byte	0x5
 11441 002b 8C01     		.uleb128 0x8c
 11442 002d C97A0000 		.4byte	.LASF428
 11443 0031 05       		.byte	0x5
 11444 0032 8D01     		.uleb128 0x8d
 11445 0034 F8790000 		.4byte	.LASF429
 11446 0038 05       		.byte	0x5
 11447 0039 8E01     		.uleb128 0x8e
 11448 003b 5FA00000 		.4byte	.LASF430
 11449 003f 05       		.byte	0x5
 11450 0040 8F01     		.uleb128 0x8f
 11451 0042 A4AB0000 		.4byte	.LASF431
 11452 0046 05       		.byte	0x5
 11453 0047 9001     		.uleb128 0x90
 11454 0049 C58F0000 		.4byte	.LASF432
 11455 004d 05       		.byte	0x5
 11456 004e 9101     		.uleb128 0x91
 11457 0050 E12F0000 		.4byte	.LASF433
 11458 0054 06       		.byte	0x6
 11459 0055 A101     		.uleb128 0xa1
 11460 0057 89760000 		.4byte	.LASF434
 11461 005b 05       		.byte	0x5
 11462 005c BB01     		.uleb128 0xbb
 11463 005e AB6A0000 		.4byte	.LASF435
ARM GAS  /var/folders/z0/6xlwn_996xz3mwq1cgzkbq4r0000gp/T//ccBgBTlB.s 			page 222


 11464 0062 05       		.byte	0x5
 11465 0063 BC01     		.uleb128 0xbc
 11466 0065 07B70000 		.4byte	.LASF436
 11467 0069 05       		.byte	0x5
 11468 006a BD01     		.uleb128 0xbd
 11469 006c 07870000 		.4byte	.LASF437
 11470 0070 05       		.byte	0x5
 11471 0071 BE01     		.uleb128 0xbe
 11472 0073 33600000 		.4byte	.LASF438
 11473 0077 05       		.byte	0x5
 11474 0078 BF01     		.uleb128 0xbf
 11475 007a 2F1C0000 		.4byte	.LASF439
 11476 007e 05       		.byte	0x5
 11477 007f C001     		.uleb128 0xc0
 11478 0081 047F0000 		.4byte	.LASF440
 11479 0085 05       		.byte	0x5
 11480 0086 C101     		.uleb128 0xc1
 11481 0088 A17C0000 		.4byte	.LASF441
 11482 008c 05       		.byte	0x5
 11483 008d C201     		.uleb128 0xc2
 11484 008f 4C4C0000 		.4byte	.LASF442
 11485 0093 05       		.byte	0x5
 11486 0094 C301     		.uleb128 0xc3
 11487 0096 B76C0000 		.4byte	.LASF443
 11488 009a 05       		.byte	0x5
 11489 009b C401     		.uleb128 0xc4
 11490 009d 3B460000 		.4byte	.LASF444
 11491 00a1 05       		.byte	0x5
 11492 00a2 C501     		.uleb128 0xc5
 11493 00a4 DA880000 		.4byte	.LASF445
 11494 00a8 05       		.byte	0x5
 11495 00a9 C601     		.uleb128 0xc6
 11496 00ab EE140000 		.4byte	.LASF446
 11497 00af 05       		.byte	0x5
 11498 00b0 C701     		.uleb128 0xc7
 11499 00b2 85230000 		.4byte	.LASF447
 11500 00b6 05       		.byte	0x5
 11501 00b7 C801     		.uleb128 0xc8
 11502 00b9 B9450000 		.4byte	.LASF448
 11503 00bd 05       		.byte	0x5
 11504 00be C901     		.uleb128 0xc9
 11505 00c0 871E0000 		.4byte	.LASF449
 11506 00c4 05       		.byte	0x5
 11507 00c5 CA01     		.uleb128 0xca
 11508 00c7 5C9C0000 		.4byte	.LASF450
 11509 00cb 05       		.byte	0x5
 11510 00cc D201     		.uleb128 0xd2
 11511 00ce 852B0000 		.4byte	.LASF451
 11512 00d2 06       		.byte	0x6
 11513 00d3 EE01     		.uleb128 0xee
 11514 00d5 7B4C0000 		.4byte	.LASF452
 11515 00d9 05       		.byte	0x5
 11516 00da 8B02     		.uleb128 0x10b
 11517 00dc 2B580000 		.4byte	.LASF453
 11518 00e0 05       		.byte	0x5
 11519 00e1 8C02     		.uleb128 0x10c
 11520 00e3 4F090000 		.4byte	.LASF454
ARM GAS  /var/folders/z0/6xlwn_996xz3mwq1cgzkbq4r0000gp/T//ccBgBTlB.s 			page 223


 11521 00e7 05       		.byte	0x5
 11522 00e8 8D02     		.uleb128 0x10d
 11523 00ea AD250000 		.4byte	.LASF455
 11524 00ee 05       		.byte	0x5
 11525 00ef 8E02     		.uleb128 0x10e
 11526 00f1 D3810000 		.4byte	.LASF456
 11527 00f5 05       		.byte	0x5
 11528 00f6 8F02     		.uleb128 0x10f
 11529 00f8 209C0000 		.4byte	.LASF457
 11530 00fc 05       		.byte	0x5
 11531 00fd 9002     		.uleb128 0x110
 11532 00ff 70A00000 		.4byte	.LASF458
 11533 0103 05       		.byte	0x5
 11534 0104 9102     		.uleb128 0x111
 11535 0106 AE5E0000 		.4byte	.LASF459
 11536 010a 05       		.byte	0x5
 11537 010b 9202     		.uleb128 0x112
 11538 010d EA970000 		.4byte	.LASF460
 11539 0111 05       		.byte	0x5
 11540 0112 9302     		.uleb128 0x113
 11541 0114 77360000 		.4byte	.LASF461
 11542 0118 05       		.byte	0x5
 11543 0119 9402     		.uleb128 0x114
 11544 011b 41780000 		.4byte	.LASF462
 11545 011f 05       		.byte	0x5
 11546 0120 9502     		.uleb128 0x115
 11547 0122 8D3B0000 		.4byte	.LASF463
 11548 0126 05       		.byte	0x5
 11549 0127 9602     		.uleb128 0x116
 11550 0129 40860000 		.4byte	.LASF464
 11551 012d 05       		.byte	0x5
 11552 012e 9702     		.uleb128 0x117
 11553 0130 8A360000 		.4byte	.LASF465
 11554 0134 05       		.byte	0x5
 11555 0135 9802     		.uleb128 0x118
 11556 0137 3D490000 		.4byte	.LASF466
 11557 013b 05       		.byte	0x5
 11558 013c 9902     		.uleb128 0x119
 11559 013e E0580000 		.4byte	.LASF467
 11560 0142 06       		.byte	0x6
 11561 0143 A602     		.uleb128 0x126
 11562 0145 934B0000 		.4byte	.LASF468
 11563 0149 06       		.byte	0x6
 11564 014a DB02     		.uleb128 0x15b
 11565 014c 2D8E0000 		.4byte	.LASF469
 11566 0150 06       		.byte	0x6
 11567 0151 9103     		.uleb128 0x191
 11568 0153 91470000 		.4byte	.LASF470
 11569 0157 05       		.byte	0x5
 11570 0158 9603     		.uleb128 0x196
 11571 015a 594B0000 		.4byte	.LASF471
 11572 015e 06       		.byte	0x6
 11573 015f 9C03     		.uleb128 0x19c
 11574 0161 B8680000 		.4byte	.LASF472
 11575 0165 05       		.byte	0x5
 11576 0166 A103     		.uleb128 0x1a1
 11577 0168 097E0000 		.4byte	.LASF473
ARM GAS  /var/folders/z0/6xlwn_996xz3mwq1cgzkbq4r0000gp/T//ccBgBTlB.s 			page 224


 11578 016c 00       		.byte	0
 11579              		.section	.debug_macro,"G",%progbits,wm4._default_types.h.6.35ee9e747940367bf2a634907d1c2382,comdat
 11580              	.Ldebug_macro8:
 11581 0000 0400     		.2byte	0x4
 11582 0002 00       		.byte	0
 11583 0003 05       		.byte	0x5
 11584 0004 06       		.uleb128 0x6
 11585 0005 0A8D0000 		.4byte	.LASF476
 11586 0009 05       		.byte	0x5
 11587 000a 0F       		.uleb128 0xf
 11588 000b D41F0000 		.4byte	.LASF477
 11589 000f 05       		.byte	0x5
 11590 0010 21       		.uleb128 0x21
 11591 0011 54890000 		.4byte	.LASF478
 11592 0015 05       		.byte	0x5
 11593 0016 2F       		.uleb128 0x2f
 11594 0017 97230000 		.4byte	.LASF479
 11595 001b 05       		.byte	0x5
 11596 001c 45       		.uleb128 0x45
 11597 001d E2A70000 		.4byte	.LASF480
 11598 0021 05       		.byte	0x5
 11599 0022 5F       		.uleb128 0x5f
 11600 0023 5F420000 		.4byte	.LASF481
 11601 0027 05       		.byte	0x5
 11602 0028 7E       		.uleb128 0x7e
 11603 0029 2F370000 		.4byte	.LASF482
 11604 002d 05       		.byte	0x5
 11605 002e 9801     		.uleb128 0x98
 11606 0030 AE5F0000 		.4byte	.LASF483
 11607 0034 05       		.byte	0x5
 11608 0035 AE01     		.uleb128 0xae
 11609 0037 DE460000 		.4byte	.LASF484
 11610 003b 05       		.byte	0x5
 11611 003c C001     		.uleb128 0xc0
 11612 003e 4F680000 		.4byte	.LASF485
 11613 0042 06       		.byte	0x6
 11614 0043 D601     		.uleb128 0xd6
 11615 0045 C61B0000 		.4byte	.LASF486
 11616 0049 00       		.byte	0
 11617              		.section	.debug_macro,"G",%progbits,wm4.lock.h.2.9bc98482741e5e2a9450b12934a684ea,comdat
 11618              	.Ldebug_macro9:
 11619 0000 0400     		.2byte	0x4
 11620 0002 00       		.byte	0
 11621 0003 05       		.byte	0x5
 11622 0004 02       		.uleb128 0x2
 11623 0005 57170000 		.4byte	.LASF487
 11624 0009 05       		.byte	0x5
 11625 000a 0B       		.uleb128 0xb
 11626 000b 91490000 		.4byte	.LASF488
 11627 000f 05       		.byte	0x5
 11628 0010 0C       		.uleb128 0xc
 11629 0011 1F1A0000 		.4byte	.LASF489
 11630 0015 05       		.byte	0x5
 11631 0016 0D       		.uleb128 0xd
 11632 0017 29470000 		.4byte	.LASF490
 11633 001b 05       		.byte	0x5
 11634 001c 0E       		.uleb128 0xe
ARM GAS  /var/folders/z0/6xlwn_996xz3mwq1cgzkbq4r0000gp/T//ccBgBTlB.s 			page 225


 11635 001d E99D0000 		.4byte	.LASF491
 11636 0021 05       		.byte	0x5
 11637 0022 0F       		.uleb128 0xf
 11638 0023 3C4E0000 		.4byte	.LASF492
 11639 0027 05       		.byte	0x5
 11640 0028 10       		.uleb128 0x10
 11641 0029 FD7C0000 		.4byte	.LASF493
 11642 002d 05       		.byte	0x5
 11643 002e 11       		.uleb128 0x11
 11644 002f B50E0000 		.4byte	.LASF494
 11645 0033 05       		.byte	0x5
 11646 0034 12       		.uleb128 0x12
 11647 0035 536A0000 		.4byte	.LASF495
 11648 0039 05       		.byte	0x5
 11649 003a 13       		.uleb128 0x13
 11650 003b 745E0000 		.4byte	.LASF496
 11651 003f 05       		.byte	0x5
 11652 0040 14       		.uleb128 0x14
 11653 0041 B8AB0000 		.4byte	.LASF497
 11654 0045 05       		.byte	0x5
 11655 0046 15       		.uleb128 0x15
 11656 0047 64400000 		.4byte	.LASF498
 11657 004b 05       		.byte	0x5
 11658 004c 16       		.uleb128 0x16
 11659 004d 5AAF0000 		.4byte	.LASF499
 11660 0051 00       		.byte	0
 11661              		.section	.debug_macro,"G",%progbits,wm4._types.h.125.5cf8a495f1f7ef36777ad868a1e32068,comdat
 11662              	.Ldebug_macro10:
 11663 0000 0400     		.2byte	0x4
 11664 0002 00       		.byte	0
 11665 0003 06       		.byte	0x6
 11666 0004 7D       		.uleb128 0x7d
 11667 0005 819B0000 		.4byte	.LASF500
 11668 0009 05       		.byte	0x5
 11669 000a 9001     		.uleb128 0x90
 11670 000c 096D0000 		.4byte	.LASF501
 11671 0010 06       		.byte	0x6
 11672 0011 9201     		.uleb128 0x92
 11673 0013 D2750000 		.4byte	.LASF502
 11674 0017 05       		.byte	0x5
 11675 0018 9E01     		.uleb128 0x9e
 11676 001a C6080000 		.4byte	.LASF503
 11677 001e 00       		.byte	0
 11678              		.section	.debug_macro,"G",%progbits,wm4.stddef.h.161.5349cb105733e8777bfb0cf53c4e3f34,comdat
 11679              	.Ldebug_macro11:
 11680 0000 0400     		.2byte	0x4
 11681 0002 00       		.byte	0
 11682 0003 06       		.byte	0x6
 11683 0004 A101     		.uleb128 0xa1
 11684 0006 89760000 		.4byte	.LASF434
 11685 000a 06       		.byte	0x6
 11686 000b EE01     		.uleb128 0xee
 11687 000d 7B4C0000 		.4byte	.LASF452
 11688 0011 06       		.byte	0x6
 11689 0012 DB02     		.uleb128 0x15b
 11690 0014 2D8E0000 		.4byte	.LASF469
 11691 0018 05       		.byte	0x5
ARM GAS  /var/folders/z0/6xlwn_996xz3mwq1cgzkbq4r0000gp/T//ccBgBTlB.s 			page 226


 11692 0019 E002     		.uleb128 0x160
 11693 001b A8030000 		.4byte	.LASF504
 11694 001f 06       		.byte	0x6
 11695 0020 E702     		.uleb128 0x167
 11696 0022 B7A00000 		.4byte	.LASF505
 11697 0026 06       		.byte	0x6
 11698 0027 9103     		.uleb128 0x191
 11699 0029 91470000 		.4byte	.LASF470
 11700 002d 05       		.byte	0x5
 11701 002e 9603     		.uleb128 0x196
 11702 0030 594B0000 		.4byte	.LASF471
 11703 0034 06       		.byte	0x6
 11704 0035 9C03     		.uleb128 0x19c
 11705 0037 B8680000 		.4byte	.LASF472
 11706 003b 05       		.byte	0x5
 11707 003c A103     		.uleb128 0x1a1
 11708 003e 097E0000 		.4byte	.LASF473
 11709 0042 00       		.byte	0
 11710              		.section	.debug_macro,"G",%progbits,wm4._types.h.183.c226d164ceca1f2ecb9ae9360c54a098,comdat
 11711              	.Ldebug_macro12:
 11712 0000 0400     		.2byte	0x4
 11713 0002 00       		.byte	0
 11714 0003 05       		.byte	0x5
 11715 0004 B701     		.uleb128 0xb7
 11716 0006 E4040000 		.4byte	.LASF506
 11717 000a 05       		.byte	0x5
 11718 000b BA01     		.uleb128 0xba
 11719 000d 63BC0000 		.4byte	.LASF507
 11720 0011 05       		.byte	0x5
 11721 0012 BD01     		.uleb128 0xbd
 11722 0014 BD310000 		.4byte	.LASF508
 11723 0018 05       		.byte	0x5
 11724 0019 C001     		.uleb128 0xc0
 11725 001b 7E3F0000 		.4byte	.LASF509
 11726 001f 00       		.byte	0
 11727              		.section	.debug_macro,"G",%progbits,wm4.reent.h.17.23b059516345f8f5abfa01ddc379570f,comdat
 11728              	.Ldebug_macro13:
 11729 0000 0400     		.2byte	0x4
 11730 0002 00       		.byte	0
 11731 0003 05       		.byte	0x5
 11732 0004 11       		.uleb128 0x11
 11733 0005 CC570000 		.4byte	.LASF510
 11734 0009 05       		.byte	0x5
 11735 000a 15       		.uleb128 0x15
 11736 000b 757D0000 		.4byte	.LASF511
 11737 000f 05       		.byte	0x5
 11738 0010 48       		.uleb128 0x48
 11739 0011 511C0000 		.4byte	.LASF512
 11740 0015 05       		.byte	0x5
 11741 0016 64       		.uleb128 0x64
 11742 0017 C3900000 		.4byte	.LASF513
 11743 001b 05       		.byte	0x5
 11744 001c 6A       		.uleb128 0x6a
 11745 001d FA9F0000 		.4byte	.LASF514
 11746 0021 05       		.byte	0x5
 11747 0022 B201     		.uleb128 0xb2
 11748 0024 16A40000 		.4byte	.LASF515
ARM GAS  /var/folders/z0/6xlwn_996xz3mwq1cgzkbq4r0000gp/T//ccBgBTlB.s 			page 227


 11749 0028 05       		.byte	0x5
 11750 0029 B802     		.uleb128 0x138
 11751 002b 2A980000 		.4byte	.LASF516
 11752 002f 05       		.byte	0x5
 11753 0030 B902     		.uleb128 0x139
 11754 0032 E4B70000 		.4byte	.LASF517
 11755 0036 05       		.byte	0x5
 11756 0037 BA02     		.uleb128 0x13a
 11757 0039 72670000 		.4byte	.LASF518
 11758 003d 05       		.byte	0x5
 11759 003e BB02     		.uleb128 0x13b
 11760 0040 DC620000 		.4byte	.LASF519
 11761 0044 05       		.byte	0x5
 11762 0045 BC02     		.uleb128 0x13c
 11763 0047 BA720000 		.4byte	.LASF520
 11764 004b 05       		.byte	0x5
 11765 004c BD02     		.uleb128 0x13d
 11766 004e B3700000 		.4byte	.LASF521
 11767 0052 05       		.byte	0x5
 11768 0053 BE02     		.uleb128 0x13e
 11769 0055 09980000 		.4byte	.LASF522
 11770 0059 05       		.byte	0x5
 11771 005a CA02     		.uleb128 0x14a
 11772 005c 5B210000 		.4byte	.LASF523
 11773 0060 05       		.byte	0x5
 11774 0061 CB02     		.uleb128 0x14b
 11775 0063 0EB30000 		.4byte	.LASF524
 11776 0067 05       		.byte	0x5
 11777 0068 CC02     		.uleb128 0x14c
 11778 006a 22A00000 		.4byte	.LASF525
 11779 006e 05       		.byte	0x5
 11780 006f F404     		.uleb128 0x274
 11781 0071 53780000 		.4byte	.LASF526
 11782 0075 05       		.byte	0x5
 11783 0076 8A05     		.uleb128 0x28a
 11784 0078 AD0B0000 		.4byte	.LASF527
 11785 007c 05       		.byte	0x5
 11786 007d BA05     		.uleb128 0x2ba
 11787 007f 4E430000 		.4byte	.LASF528
 11788 0083 05       		.byte	0x5
 11789 0084 C805     		.uleb128 0x2c8
 11790 0086 48030000 		.4byte	.LASF529
 11791 008a 05       		.byte	0x5
 11792 008b C905     		.uleb128 0x2c9
 11793 008d A2480000 		.4byte	.LASF530
 11794 0091 05       		.byte	0x5
 11795 0092 CA05     		.uleb128 0x2ca
 11796 0094 AE140000 		.4byte	.LASF531
 11797 0098 05       		.byte	0x5
 11798 0099 CB05     		.uleb128 0x2cb
 11799 009b 7C040000 		.4byte	.LASF532
 11800 009f 05       		.byte	0x5
 11801 00a0 CC05     		.uleb128 0x2cc
 11802 00a2 45590000 		.4byte	.LASF533
 11803 00a6 05       		.byte	0x5
 11804 00a7 CD05     		.uleb128 0x2cd
 11805 00a9 AF950000 		.4byte	.LASF534
ARM GAS  /var/folders/z0/6xlwn_996xz3mwq1cgzkbq4r0000gp/T//ccBgBTlB.s 			page 228


 11806 00ad 05       		.byte	0x5
 11807 00ae CE05     		.uleb128 0x2ce
 11808 00b0 941E0000 		.4byte	.LASF535
 11809 00b4 05       		.byte	0x5
 11810 00b5 D005     		.uleb128 0x2d0
 11811 00b7 F62F0000 		.4byte	.LASF536
 11812 00bb 05       		.byte	0x5
 11813 00bc D105     		.uleb128 0x2d1
 11814 00be 5C610000 		.4byte	.LASF537
 11815 00c2 05       		.byte	0x5
 11816 00c3 D205     		.uleb128 0x2d2
 11817 00c5 16430000 		.4byte	.LASF538
 11818 00c9 05       		.byte	0x5
 11819 00ca D305     		.uleb128 0x2d3
 11820 00cc 0F6F0000 		.4byte	.LASF539
 11821 00d0 05       		.byte	0x5
 11822 00d1 D405     		.uleb128 0x2d4
 11823 00d3 81A00000 		.4byte	.LASF540
 11824 00d7 05       		.byte	0x5
 11825 00d8 D505     		.uleb128 0x2d5
 11826 00da 2E560000 		.4byte	.LASF541
 11827 00de 05       		.byte	0x5
 11828 00df D605     		.uleb128 0x2d6
 11829 00e1 4D4F0000 		.4byte	.LASF542
 11830 00e5 05       		.byte	0x5
 11831 00e6 D705     		.uleb128 0x2d7
 11832 00e8 C3A10000 		.4byte	.LASF543
 11833 00ec 05       		.byte	0x5
 11834 00ed D805     		.uleb128 0x2d8
 11835 00ef F3990000 		.4byte	.LASF544
 11836 00f3 05       		.byte	0x5
 11837 00f4 D905     		.uleb128 0x2d9
 11838 00f6 10740000 		.4byte	.LASF545
 11839 00fa 05       		.byte	0x5
 11840 00fb DA05     		.uleb128 0x2da
 11841 00fd 93A70000 		.4byte	.LASF546
 11842 0101 05       		.byte	0x5
 11843 0102 DB05     		.uleb128 0x2db
 11844 0104 51630000 		.4byte	.LASF547
 11845 0108 05       		.byte	0x5
 11846 0109 DC05     		.uleb128 0x2dc
 11847 010b 8D7F0000 		.4byte	.LASF548
 11848 010f 05       		.byte	0x5
 11849 0110 DD05     		.uleb128 0x2dd
 11850 0112 41190000 		.4byte	.LASF549
 11851 0116 05       		.byte	0x5
 11852 0117 DE05     		.uleb128 0x2de
 11853 0119 F2B80000 		.4byte	.LASF550
 11854 011d 05       		.byte	0x5
 11855 011e DF05     		.uleb128 0x2df
 11856 0120 E4630000 		.4byte	.LASF551
 11857 0124 05       		.byte	0x5
 11858 0125 E005     		.uleb128 0x2e0
 11859 0127 42080000 		.4byte	.LASF552
 11860 012b 05       		.byte	0x5
 11861 012c E105     		.uleb128 0x2e1
 11862 012e 986F0000 		.4byte	.LASF553
ARM GAS  /var/folders/z0/6xlwn_996xz3mwq1cgzkbq4r0000gp/T//ccBgBTlB.s 			page 229


 11863 0132 05       		.byte	0x5
 11864 0133 E205     		.uleb128 0x2e2
 11865 0135 1A480000 		.4byte	.LASF554
 11866 0139 05       		.byte	0x5
 11867 013a E305     		.uleb128 0x2e3
 11868 013c 79A30000 		.4byte	.LASF555
 11869 0140 05       		.byte	0x5
 11870 0141 E405     		.uleb128 0x2e4
 11871 0143 C9110000 		.4byte	.LASF556
 11872 0147 05       		.byte	0x5
 11873 0148 E505     		.uleb128 0x2e5
 11874 014a 86010000 		.4byte	.LASF557
 11875 014e 05       		.byte	0x5
 11876 014f E605     		.uleb128 0x2e6
 11877 0151 26B10000 		.4byte	.LASF558
 11878 0155 05       		.byte	0x5
 11879 0156 E705     		.uleb128 0x2e7
 11880 0158 3D570000 		.4byte	.LASF559
 11881 015c 05       		.byte	0x5
 11882 015d EB05     		.uleb128 0x2eb
 11883 015f 8EBD0000 		.4byte	.LASF560
 11884 0163 05       		.byte	0x5
 11885 0164 F305     		.uleb128 0x2f3
 11886 0166 B4630000 		.4byte	.LASF561
 11887 016a 05       		.byte	0x5
 11888 016b FB05     		.uleb128 0x2fb
 11889 016d 3D950000 		.4byte	.LASF562
 11890 0171 05       		.byte	0x5
 11891 0172 8B06     		.uleb128 0x30b
 11892 0174 D1630000 		.4byte	.LASF563
 11893 0178 05       		.byte	0x5
 11894 0179 8E06     		.uleb128 0x30e
 11895 017b FA770000 		.4byte	.LASF564
 11896 017f 05       		.byte	0x5
 11897 0180 9406     		.uleb128 0x314
 11898 0182 516C0000 		.4byte	.LASF565
 11899 0186 00       		.byte	0
 11900              		.section	.debug_macro,"G",%progbits,wm4.cdefs.h.47.d0af77d4010113800282e6476aca9724,comdat
 11901              	.Ldebug_macro14:
 11902 0000 0400     		.2byte	0x4
 11903 0002 00       		.byte	0
 11904 0003 05       		.byte	0x5
 11905 0004 2F       		.uleb128 0x2f
 11906 0005 BA790000 		.4byte	.LASF567
 11907 0009 05       		.byte	0x5
 11908 000a 30       		.uleb128 0x30
 11909 000b A9760000 		.4byte	.LASF568
 11910 000f 05       		.byte	0x5
 11911 0010 31       		.uleb128 0x31
 11912 0011 DFB90000 		.4byte	.LASF569
 11913 0015 05       		.byte	0x5
 11914 0016 34       		.uleb128 0x34
 11915 0017 385F0000 		.4byte	.LASF570
 11916 001b 05       		.byte	0x5
 11917 001c 37       		.uleb128 0x37
 11918 001d 55750000 		.4byte	.LASF571
 11919 0021 05       		.byte	0x5
ARM GAS  /var/folders/z0/6xlwn_996xz3mwq1cgzkbq4r0000gp/T//ccBgBTlB.s 			page 230


 11920 0022 38       		.uleb128 0x38
 11921 0023 3C200000 		.4byte	.LASF572
 11922 0027 05       		.byte	0x5
 11923 0028 3A       		.uleb128 0x3a
 11924 0029 33230000 		.4byte	.LASF573
 11925 002d 05       		.byte	0x5
 11926 002e 3B       		.uleb128 0x3b
 11927 002f E9500000 		.4byte	.LASF574
 11928 0033 05       		.byte	0x5
 11929 0034 3C       		.uleb128 0x3c
 11930 0035 E4A10000 		.4byte	.LASF575
 11931 0039 05       		.byte	0x5
 11932 003a 3D       		.uleb128 0x3d
 11933 003b 832E0000 		.4byte	.LASF576
 11934 003f 05       		.byte	0x5
 11935 0040 40       		.uleb128 0x40
 11936 0041 C2360000 		.4byte	.LASF577
 11937 0045 05       		.byte	0x5
 11938 0046 41       		.uleb128 0x41
 11939 0047 770F0000 		.4byte	.LASF578
 11940 004b 05       		.byte	0x5
 11941 004c 42       		.uleb128 0x42
 11942 004d 8D520000 		.4byte	.LASF579
 11943 0051 05       		.byte	0x5
 11944 0052 4C       		.uleb128 0x4c
 11945 0053 E9710000 		.4byte	.LASF580
 11946 0057 05       		.byte	0x5
 11947 0058 4F       		.uleb128 0x4f
 11948 0059 661B0000 		.4byte	.LASF581
 11949 005d 05       		.byte	0x5
 11950 005e 55       		.uleb128 0x55
 11951 005f 2B6C0000 		.4byte	.LASF582
 11952 0063 05       		.byte	0x5
 11953 0064 5C       		.uleb128 0x5c
 11954 0065 D0A30000 		.4byte	.LASF583
 11955 0069 05       		.byte	0x5
 11956 006a 5D       		.uleb128 0x5d
 11957 006b 0D680000 		.4byte	.LASF584
 11958 006f 05       		.byte	0x5
 11959 0070 69       		.uleb128 0x69
 11960 0071 2B4E0000 		.4byte	.LASF585
 11961 0075 05       		.byte	0x5
 11962 0076 6A       		.uleb128 0x6a
 11963 0077 68B50000 		.4byte	.LASF586
 11964 007b 05       		.byte	0x5
 11965 007c 6E       		.uleb128 0x6e
 11966 007d E0070000 		.4byte	.LASF587
 11967 0081 05       		.byte	0x5
 11968 0082 6F       		.uleb128 0x6f
 11969 0083 E62C0000 		.4byte	.LASF588
 11970 0087 05       		.byte	0x5
 11971 0088 70       		.uleb128 0x70
 11972 0089 D7310000 		.4byte	.LASF589
 11973 008d 05       		.byte	0x5
 11974 008e 73       		.uleb128 0x73
 11975 008f 04150000 		.4byte	.LASF590
 11976 0093 05       		.byte	0x5
ARM GAS  /var/folders/z0/6xlwn_996xz3mwq1cgzkbq4r0000gp/T//ccBgBTlB.s 			page 231


 11977 0094 76       		.uleb128 0x76
 11978 0095 71050000 		.4byte	.LASF591
 11979 0099 05       		.byte	0x5
 11980 009a 7D       		.uleb128 0x7d
 11981 009b E65E0000 		.4byte	.LASF592
 11982 009f 05       		.byte	0x5
 11983 00a0 7E       		.uleb128 0x7e
 11984 00a1 EA680000 		.4byte	.LASF593
 11985 00a5 05       		.byte	0x5
 11986 00a6 7F       		.uleb128 0x7f
 11987 00a7 BF990000 		.4byte	.LASF594
 11988 00ab 05       		.byte	0x5
 11989 00ac 8301     		.uleb128 0x83
 11990 00ae 4F390000 		.4byte	.LASF595
 11991 00b2 05       		.byte	0x5
 11992 00b3 8A01     		.uleb128 0x8a
 11993 00b5 AC470000 		.4byte	.LASF596
 11994 00b9 05       		.byte	0x5
 11995 00ba 8E01     		.uleb128 0x8e
 11996 00bc 74420000 		.4byte	.LASF597
 11997 00c0 05       		.byte	0x5
 11998 00c1 8F01     		.uleb128 0x8f
 11999 00c3 143A0000 		.4byte	.LASF598
 12000 00c7 05       		.byte	0x5
 12001 00c8 9201     		.uleb128 0x92
 12002 00ca 83450000 		.4byte	.LASF599
 12003 00ce 05       		.byte	0x5
 12004 00cf 9501     		.uleb128 0x95
 12005 00d1 9A2D0000 		.4byte	.LASF600
 12006 00d5 05       		.byte	0x5
 12007 00d6 9601     		.uleb128 0x96
 12008 00d8 401E0000 		.4byte	.LASF601
 12009 00dc 05       		.byte	0x5
 12010 00dd 9701     		.uleb128 0x97
 12011 00df BE9E0000 		.4byte	.LASF602
 12012 00e3 05       		.byte	0x5
 12013 00e4 9901     		.uleb128 0x99
 12014 00e6 FA5A0000 		.4byte	.LASF603
 12015 00ea 05       		.byte	0x5
 12016 00eb 9A01     		.uleb128 0x9a
 12017 00ed 1A1F0000 		.4byte	.LASF604
 12018 00f1 05       		.byte	0x5
 12019 00f2 9C01     		.uleb128 0x9c
 12020 00f4 FB700000 		.4byte	.LASF605
 12021 00f8 05       		.byte	0x5
 12022 00f9 9E01     		.uleb128 0x9e
 12023 00fb 2AAA0000 		.4byte	.LASF606
 12024 00ff 05       		.byte	0x5
 12025 0100 AF01     		.uleb128 0xaf
 12026 0102 9D0A0000 		.4byte	.LASF607
 12027 0106 05       		.byte	0x5
 12028 0107 B001     		.uleb128 0xb0
 12029 0109 F1860000 		.4byte	.LASF608
 12030 010d 05       		.byte	0x5
 12031 010e B101     		.uleb128 0xb1
 12032 0110 5EB10000 		.4byte	.LASF609
 12033 0114 05       		.byte	0x5
ARM GAS  /var/folders/z0/6xlwn_996xz3mwq1cgzkbq4r0000gp/T//ccBgBTlB.s 			page 232


 12034 0115 B201     		.uleb128 0xb2
 12035 0117 71B80000 		.4byte	.LASF610
 12036 011b 05       		.byte	0x5
 12037 011c B301     		.uleb128 0xb3
 12038 011e 35940000 		.4byte	.LASF611
 12039 0122 05       		.byte	0x5
 12040 0123 B501     		.uleb128 0xb5
 12041 0125 4E070000 		.4byte	.LASF612
 12042 0129 05       		.byte	0x5
 12043 012a B601     		.uleb128 0xb6
 12044 012c 2D9A0000 		.4byte	.LASF613
 12045 0130 05       		.byte	0x5
 12046 0131 B701     		.uleb128 0xb7
 12047 0133 C64A0000 		.4byte	.LASF614
 12048 0137 05       		.byte	0x5
 12049 0138 EF01     		.uleb128 0xef
 12050 013a 5B2E0000 		.4byte	.LASF615
 12051 013e 05       		.byte	0x5
 12052 013f FC01     		.uleb128 0xfc
 12053 0141 057A0000 		.4byte	.LASF616
 12054 0145 05       		.byte	0x5
 12055 0146 FD01     		.uleb128 0xfd
 12056 0148 FE8D0000 		.4byte	.LASF617
 12057 014c 05       		.byte	0x5
 12058 014d FE01     		.uleb128 0xfe
 12059 014f 78A50000 		.4byte	.LASF618
 12060 0153 05       		.byte	0x5
 12061 0154 FF01     		.uleb128 0xff
 12062 0156 5DAC0000 		.4byte	.LASF619
 12063 015a 05       		.byte	0x5
 12064 015b 8002     		.uleb128 0x100
 12065 015d A1650000 		.4byte	.LASF620
 12066 0161 05       		.byte	0x5
 12067 0162 8102     		.uleb128 0x101
 12068 0164 880E0000 		.4byte	.LASF621
 12069 0168 05       		.byte	0x5
 12070 0169 8202     		.uleb128 0x102
 12071 016b E0510000 		.4byte	.LASF622
 12072 016f 05       		.byte	0x5
 12073 0170 8502     		.uleb128 0x105
 12074 0172 F3580000 		.4byte	.LASF623
 12075 0176 05       		.byte	0x5
 12076 0177 8A02     		.uleb128 0x10a
 12077 0179 3CA10000 		.4byte	.LASF624
 12078 017d 05       		.byte	0x5
 12079 017e A002     		.uleb128 0x120
 12080 0180 530A0000 		.4byte	.LASF625
 12081 0184 05       		.byte	0x5
 12082 0185 A702     		.uleb128 0x127
 12083 0187 69B70000 		.4byte	.LASF626
 12084 018b 05       		.byte	0x5
 12085 018c AF02     		.uleb128 0x12f
 12086 018e BCBB0000 		.4byte	.LASF627
 12087 0192 05       		.byte	0x5
 12088 0193 B502     		.uleb128 0x135
 12089 0195 A8890000 		.4byte	.LASF628
 12090 0199 05       		.byte	0x5
ARM GAS  /var/folders/z0/6xlwn_996xz3mwq1cgzkbq4r0000gp/T//ccBgBTlB.s 			page 233


 12091 019a D202     		.uleb128 0x152
 12092 019c 715F0000 		.4byte	.LASF629
 12093 01a0 05       		.byte	0x5
 12094 01a1 E602     		.uleb128 0x166
 12095 01a3 4A740000 		.4byte	.LASF630
 12096 01a7 05       		.byte	0x5
 12097 01a8 EC02     		.uleb128 0x16c
 12098 01aa 76B90000 		.4byte	.LASF631
 12099 01ae 05       		.byte	0x5
 12100 01af ED02     		.uleb128 0x16d
 12101 01b1 7D7E0000 		.4byte	.LASF632
 12102 01b5 05       		.byte	0x5
 12103 01b6 F402     		.uleb128 0x174
 12104 01b8 15650000 		.4byte	.LASF633
 12105 01bc 05       		.byte	0x5
 12106 01bd FA02     		.uleb128 0x17a
 12107 01bf 5AA40000 		.4byte	.LASF634
 12108 01c3 05       		.byte	0x5
 12109 01c4 8003     		.uleb128 0x180
 12110 01c6 9B0F0000 		.4byte	.LASF635
 12111 01ca 05       		.byte	0x5
 12112 01cb 8103     		.uleb128 0x181
 12113 01cd F2B40000 		.4byte	.LASF636
 12114 01d1 05       		.byte	0x5
 12115 01d2 8803     		.uleb128 0x188
 12116 01d4 0B120000 		.4byte	.LASF637
 12117 01d8 05       		.byte	0x5
 12118 01d9 8903     		.uleb128 0x189
 12119 01db F77F0000 		.4byte	.LASF638
 12120 01df 05       		.byte	0x5
 12121 01e0 9003     		.uleb128 0x190
 12122 01e2 E4550000 		.4byte	.LASF639
 12123 01e6 05       		.byte	0x5
 12124 01e7 9603     		.uleb128 0x196
 12125 01e9 FCB70000 		.4byte	.LASF640
 12126 01ed 05       		.byte	0x5
 12127 01ee A803     		.uleb128 0x1a8
 12128 01f0 6FA70000 		.4byte	.LASF641
 12129 01f4 05       		.byte	0x5
 12130 01f5 CB03     		.uleb128 0x1cb
 12131 01f7 FE0D0000 		.4byte	.LASF642
 12132 01fb 05       		.byte	0x5
 12133 01fc CC03     		.uleb128 0x1cc
 12134 01fe E76A0000 		.4byte	.LASF643
 12135 0202 05       		.byte	0x5
 12136 0203 D303     		.uleb128 0x1d3
 12137 0205 0D390000 		.4byte	.LASF644
 12138 0209 05       		.byte	0x5
 12139 020a D403     		.uleb128 0x1d4
 12140 020c FCA80000 		.4byte	.LASF645
 12141 0210 05       		.byte	0x5
 12142 0211 D503     		.uleb128 0x1d5
 12143 0213 A86E0000 		.4byte	.LASF646
 12144 0217 05       		.byte	0x5
 12145 0218 DC03     		.uleb128 0x1dc
 12146 021a 82B70000 		.4byte	.LASF647
 12147 021e 05       		.byte	0x5
ARM GAS  /var/folders/z0/6xlwn_996xz3mwq1cgzkbq4r0000gp/T//ccBgBTlB.s 			page 234


 12148 021f DD03     		.uleb128 0x1dd
 12149 0221 52860000 		.4byte	.LASF648
 12150 0225 05       		.byte	0x5
 12151 0226 E703     		.uleb128 0x1e7
 12152 0228 5F4D0000 		.4byte	.LASF649
 12153 022c 05       		.byte	0x5
 12154 022d FD03     		.uleb128 0x1fd
 12155 022f B9050000 		.4byte	.LASF650
 12156 0233 05       		.byte	0x5
 12157 0234 FF03     		.uleb128 0x1ff
 12158 0236 6C960000 		.4byte	.LASF651
 12159 023a 05       		.byte	0x5
 12160 023b 8104     		.uleb128 0x201
 12161 023d 35330000 		.4byte	.LASF652
 12162 0241 05       		.byte	0x5
 12163 0242 8204     		.uleb128 0x202
 12164 0244 707B0000 		.4byte	.LASF653
 12165 0248 05       		.byte	0x5
 12166 0249 8404     		.uleb128 0x204
 12167 024b 64750000 		.4byte	.LASF654
 12168 024f 05       		.byte	0x5
 12169 0250 9004     		.uleb128 0x210
 12170 0252 F5230000 		.4byte	.LASF655
 12171 0256 05       		.byte	0x5
 12172 0257 9E04     		.uleb128 0x21e
 12173 0259 0A1D0000 		.4byte	.LASF656
 12174 025d 05       		.byte	0x5
 12175 025e A304     		.uleb128 0x223
 12176 0260 E45D0000 		.4byte	.LASF657
 12177 0264 05       		.byte	0x5
 12178 0265 A804     		.uleb128 0x228
 12179 0267 B7410000 		.4byte	.LASF658
 12180 026b 05       		.byte	0x5
 12181 026c AB04     		.uleb128 0x22b
 12182 026e 99730000 		.4byte	.LASF659
 12183 0272 05       		.byte	0x5
 12184 0273 AF04     		.uleb128 0x22f
 12185 0275 5D160000 		.4byte	.LASF660
 12186 0279 05       		.byte	0x5
 12187 027a B104     		.uleb128 0x231
 12188 027c CA450000 		.4byte	.LASF661
 12189 0280 05       		.byte	0x5
 12190 0281 D404     		.uleb128 0x254
 12191 0283 D1290000 		.4byte	.LASF662
 12192 0287 05       		.byte	0x5
 12193 0288 D804     		.uleb128 0x258
 12194 028a D9670000 		.4byte	.LASF663
 12195 028e 05       		.byte	0x5
 12196 028f DC04     		.uleb128 0x25c
 12197 0291 C0820000 		.4byte	.LASF664
 12198 0295 05       		.byte	0x5
 12199 0296 E004     		.uleb128 0x260
 12200 0298 66940000 		.4byte	.LASF665
 12201 029c 05       		.byte	0x5
 12202 029d E404     		.uleb128 0x264
 12203 029f 13AE0000 		.4byte	.LASF666
 12204 02a3 05       		.byte	0x5
ARM GAS  /var/folders/z0/6xlwn_996xz3mwq1cgzkbq4r0000gp/T//ccBgBTlB.s 			page 235


 12205 02a4 E804     		.uleb128 0x268
 12206 02a6 BE240000 		.4byte	.LASF667
 12207 02aa 05       		.byte	0x5
 12208 02ab EC04     		.uleb128 0x26c
 12209 02ad C67D0000 		.4byte	.LASF668
 12210 02b1 05       		.byte	0x5
 12211 02b2 F004     		.uleb128 0x270
 12212 02b4 E0200000 		.4byte	.LASF669
 12213 02b8 05       		.byte	0x5
 12214 02b9 8105     		.uleb128 0x281
 12215 02bb 8E8E0000 		.4byte	.LASF670
 12216 02bf 05       		.byte	0x5
 12217 02c0 8205     		.uleb128 0x282
 12218 02c2 AC640000 		.4byte	.LASF671
 12219 02c6 05       		.byte	0x5
 12220 02c7 9405     		.uleb128 0x294
 12221 02c9 7C250000 		.4byte	.LASF672
 12222 02cd 05       		.byte	0x5
 12223 02ce 9805     		.uleb128 0x298
 12224 02d0 A4710000 		.4byte	.LASF673
 12225 02d4 05       		.byte	0x5
 12226 02d5 9B05     		.uleb128 0x29b
 12227 02d7 0DA60000 		.4byte	.LASF674
 12228 02db 05       		.byte	0x5
 12229 02dc 9D05     		.uleb128 0x29d
 12230 02de DE610000 		.4byte	.LASF675
 12231 02e2 05       		.byte	0x5
 12232 02e3 A105     		.uleb128 0x2a1
 12233 02e5 E7BA0000 		.4byte	.LASF676
 12234 02e9 05       		.byte	0x5
 12235 02ea A305     		.uleb128 0x2a3
 12236 02ec 407F0000 		.4byte	.LASF677
 12237 02f0 05       		.byte	0x5
 12238 02f1 A705     		.uleb128 0x2a7
 12239 02f3 62720000 		.4byte	.LASF678
 12240 02f7 05       		.byte	0x5
 12241 02f8 AA05     		.uleb128 0x2aa
 12242 02fa 97380000 		.4byte	.LASF679
 12243 02fe 05       		.byte	0x5
 12244 02ff AC05     		.uleb128 0x2ac
 12245 0301 23340000 		.4byte	.LASF680
 12246 0305 05       		.byte	0x5
 12247 0306 B005     		.uleb128 0x2b0
 12248 0308 8F200000 		.4byte	.LASF681
 12249 030c 05       		.byte	0x5
 12250 030d B205     		.uleb128 0x2b2
 12251 030f 18990000 		.4byte	.LASF682
 12252 0313 05       		.byte	0x5
 12253 0314 B405     		.uleb128 0x2b4
 12254 0316 A9160000 		.4byte	.LASF683
 12255 031a 05       		.byte	0x5
 12256 031b B805     		.uleb128 0x2b8
 12257 031d 68100000 		.4byte	.LASF684
 12258 0321 05       		.byte	0x5
 12259 0322 BB05     		.uleb128 0x2bb
 12260 0324 58790000 		.4byte	.LASF685
 12261 0328 05       		.byte	0x5
ARM GAS  /var/folders/z0/6xlwn_996xz3mwq1cgzkbq4r0000gp/T//ccBgBTlB.s 			page 236


 12262 0329 BC05     		.uleb128 0x2bc
 12263 032b AB580000 		.4byte	.LASF686
 12264 032f 00       		.byte	0
 12265              		.section	.debug_macro,"G",%progbits,wm4.string.h.15.dab3980bf35408a4c507182805e2de3a,comdat
 12266              	.Ldebug_macro15:
 12267 0000 0400     		.2byte	0x4
 12268 0002 00       		.byte	0
 12269 0003 05       		.byte	0x5
 12270 0004 0F       		.uleb128 0xf
 12271 0005 7D4A0000 		.4byte	.LASF687
 12272 0009 05       		.byte	0x5
 12273 000a 10       		.uleb128 0x10
 12274 000b B48A0000 		.4byte	.LASF688
 12275 000f 00       		.byte	0
 12276              		.section	.debug_macro,"G",%progbits,wm4.stddef.h.161.19e15733342b50ead2919490b095303e,comdat
 12277              	.Ldebug_macro16:
 12278 0000 0400     		.2byte	0x4
 12279 0002 00       		.byte	0
 12280 0003 06       		.byte	0x6
 12281 0004 A101     		.uleb128 0xa1
 12282 0006 89760000 		.4byte	.LASF434
 12283 000a 06       		.byte	0x6
 12284 000b EE01     		.uleb128 0xee
 12285 000d 7B4C0000 		.4byte	.LASF452
 12286 0011 06       		.byte	0x6
 12287 0012 DB02     		.uleb128 0x15b
 12288 0014 2D8E0000 		.4byte	.LASF469
 12289 0018 06       		.byte	0x6
 12290 0019 9103     		.uleb128 0x191
 12291 001b 91470000 		.4byte	.LASF470
 12292 001f 05       		.byte	0x5
 12293 0020 9603     		.uleb128 0x196
 12294 0022 594B0000 		.4byte	.LASF471
 12295 0026 06       		.byte	0x6
 12296 0027 9C03     		.uleb128 0x19c
 12297 0029 B8680000 		.4byte	.LASF472
 12298 002d 05       		.byte	0x5
 12299 002e A103     		.uleb128 0x1a1
 12300 0030 097E0000 		.4byte	.LASF473
 12301 0034 00       		.byte	0
 12302              		.section	.debug_macro,"G",%progbits,wm4.stdlib.h.13.4ed386f5c1a80d71e72172885d946ef2,comdat
 12303              	.Ldebug_macro17:
 12304 0000 0400     		.2byte	0x4
 12305 0002 00       		.byte	0
 12306 0003 05       		.byte	0x5
 12307 0004 0D       		.uleb128 0xd
 12308 0005 7D4A0000 		.4byte	.LASF687
 12309 0009 05       		.byte	0x5
 12310 000a 0E       		.uleb128 0xe
 12311 000b 719B0000 		.4byte	.LASF691
 12312 000f 05       		.byte	0x5
 12313 0010 0F       		.uleb128 0xf
 12314 0011 B48A0000 		.4byte	.LASF688
 12315 0015 00       		.byte	0
 12316              		.section	.debug_macro,"G",%progbits,wm4.alloca.h.8.dfc0c703c47ec3e69746825b17d9e66d,comdat
 12317              	.Ldebug_macro18:
 12318 0000 0400     		.2byte	0x4
ARM GAS  /var/folders/z0/6xlwn_996xz3mwq1cgzkbq4r0000gp/T//ccBgBTlB.s 			page 237


 12319 0002 00       		.byte	0
 12320 0003 05       		.byte	0x5
 12321 0004 08       		.uleb128 0x8
 12322 0005 4F660000 		.4byte	.LASF693
 12323 0009 06       		.byte	0x6
 12324 000a 0D       		.uleb128 0xd
 12325 000b 20010000 		.4byte	.LASF694
 12326 000f 05       		.byte	0x5
 12327 0010 10       		.uleb128 0x10
 12328 0011 49510000 		.4byte	.LASF695
 12329 0015 00       		.byte	0
 12330              		.section	.debug_macro,"G",%progbits,wm4.stdlib.h.56.f7bb76d8eb43fb7e79a949819dbf4bda,comdat
 12331              	.Ldebug_macro19:
 12332 0000 0400     		.2byte	0x4
 12333 0002 00       		.byte	0
 12334 0003 05       		.byte	0x5
 12335 0004 38       		.uleb128 0x38
 12336 0005 1B780000 		.4byte	.LASF696
 12337 0009 05       		.byte	0x5
 12338 000a 3C       		.uleb128 0x3c
 12339 000b 3FAE0000 		.4byte	.LASF697
 12340 000f 05       		.byte	0x5
 12341 0010 3D       		.uleb128 0x3d
 12342 0011 E17A0000 		.4byte	.LASF698
 12343 0015 05       		.byte	0x5
 12344 0016 3F       		.uleb128 0x3f
 12345 0017 7B850000 		.4byte	.LASF699
 12346 001b 05       		.byte	0x5
 12347 001c 43       		.uleb128 0x43
 12348 001d 14100000 		.4byte	.LASF700
 12349 0021 05       		.byte	0x5
 12350 0022 A301     		.uleb128 0xa3
 12351 0024 AB790000 		.4byte	.LASF701
 12352 0028 00       		.byte	0
 12353              		.section	.debug_macro,"G",%progbits,wm4.stdbool.h.29.07dce69c3b78884144b7f7bd19483461,comdat
 12354              	.Ldebug_macro20:
 12355 0000 0400     		.2byte	0x4
 12356 0002 00       		.byte	0
 12357 0003 05       		.byte	0x5
 12358 0004 1D       		.uleb128 0x1d
 12359 0005 470A0000 		.4byte	.LASF703
 12360 0009 05       		.byte	0x5
 12361 000a 21       		.uleb128 0x21
 12362 000b 99AB0000 		.4byte	.LASF704
 12363 000f 05       		.byte	0x5
 12364 0010 22       		.uleb128 0x22
 12365 0011 988D0000 		.4byte	.LASF705
 12366 0015 05       		.byte	0x5
 12367 0016 23       		.uleb128 0x23
 12368 0017 011E0000 		.4byte	.LASF706
 12369 001b 05       		.byte	0x5
 12370 001c 34       		.uleb128 0x34
 12371 001d 108A0000 		.4byte	.LASF707
 12372 0021 00       		.byte	0
 12373              		.section	.debug_macro,"G",%progbits,wm4._intsup.h.10.b82bf99f69d6a5c085fc866de0d3eb9b,comdat
 12374              	.Ldebug_macro21:
 12375 0000 0400     		.2byte	0x4
ARM GAS  /var/folders/z0/6xlwn_996xz3mwq1cgzkbq4r0000gp/T//ccBgBTlB.s 			page 238


 12376 0002 00       		.byte	0
 12377 0003 05       		.byte	0x5
 12378 0004 0A       		.uleb128 0xa
 12379 0005 CFB80000 		.4byte	.LASF709
 12380 0009 05       		.byte	0x5
 12381 000a 10       		.uleb128 0x10
 12382 000b AD930000 		.4byte	.LASF710
 12383 000f 05       		.byte	0x5
 12384 0010 1A       		.uleb128 0x1a
 12385 0011 FC040000 		.4byte	.LASF711
 12386 0015 05       		.byte	0x5
 12387 0016 21       		.uleb128 0x21
 12388 0017 6CA20000 		.4byte	.LASF712
 12389 001b 06       		.byte	0x6
 12390 001c 38       		.uleb128 0x38
 12391 001d CA290000 		.4byte	.LASF713
 12392 0021 06       		.byte	0x6
 12393 0022 39       		.uleb128 0x39
 12394 0023 D2750000 		.4byte	.LASF502
 12395 0027 06       		.byte	0x6
 12396 0028 3A       		.uleb128 0x3a
 12397 0029 7F840000 		.4byte	.LASF714
 12398 002d 06       		.byte	0x6
 12399 002e 3B       		.uleb128 0x3b
 12400 002f 5A150000 		.4byte	.LASF715
 12401 0033 02       		.byte	0x2
 12402 0034 3C       		.uleb128 0x3c
 12403 0035 696E7400 		.ascii	"int\000"
 12404 0039 06       		.byte	0x6
 12405 003a 3D       		.uleb128 0x3d
 12406 003b A6420000 		.4byte	.LASF716
 12407 003f 06       		.byte	0x6
 12408 0040 3E       		.uleb128 0x3e
 12409 0041 4EAE0000 		.4byte	.LASF717
 12410 0045 05       		.byte	0x5
 12411 0046 3F       		.uleb128 0x3f
 12412 0047 67B80000 		.4byte	.LASF718
 12413 004b 05       		.byte	0x5
 12414 004c 40       		.uleb128 0x40
 12415 004d 670D0000 		.4byte	.LASF719
 12416 0051 05       		.byte	0x5
 12417 0052 41       		.uleb128 0x41
 12418 0053 46A80000 		.4byte	.LASF720
 12419 0057 05       		.byte	0x5
 12420 0058 42       		.uleb128 0x42
 12421 0059 20700000 		.4byte	.LASF721
 12422 005d 05       		.byte	0x5
 12423 005e 43       		.uleb128 0x43
 12424 005f B9270000 		.4byte	.LASF722
 12425 0063 05       		.byte	0x5
 12426 0064 44       		.uleb128 0x44
 12427 0065 3A3D0000 		.4byte	.LASF723
 12428 0069 05       		.byte	0x5
 12429 006a 45       		.uleb128 0x45
 12430 006b 9C950000 		.4byte	.LASF724
 12431 006f 05       		.byte	0x5
 12432 0070 4E       		.uleb128 0x4e
ARM GAS  /var/folders/z0/6xlwn_996xz3mwq1cgzkbq4r0000gp/T//ccBgBTlB.s 			page 239


 12433 0071 688C0000 		.4byte	.LASF725
 12434 0075 05       		.byte	0x5
 12435 0076 55       		.uleb128 0x55
 12436 0077 198C0000 		.4byte	.LASF726
 12437 007b 05       		.byte	0x5
 12438 007c 5D       		.uleb128 0x5d
 12439 007d BE490000 		.4byte	.LASF727
 12440 0081 05       		.byte	0x5
 12441 0082 68       		.uleb128 0x68
 12442 0083 84930000 		.4byte	.LASF728
 12443 0087 05       		.byte	0x5
 12444 0088 73       		.uleb128 0x73
 12445 0089 99BA0000 		.4byte	.LASF729
 12446 008d 05       		.byte	0x5
 12447 008e 7C       		.uleb128 0x7c
 12448 008f B9080000 		.4byte	.LASF730
 12449 0093 05       		.byte	0x5
 12450 0094 8301     		.uleb128 0x83
 12451 0096 8B300000 		.4byte	.LASF731
 12452 009a 05       		.byte	0x5
 12453 009b 8C01     		.uleb128 0x8c
 12454 009d 75A90000 		.4byte	.LASF732
 12455 00a1 05       		.byte	0x5
 12456 00a2 9301     		.uleb128 0x93
 12457 00a4 635B0000 		.4byte	.LASF733
 12458 00a8 05       		.byte	0x5
 12459 00a9 9E01     		.uleb128 0x9e
 12460 00ab 8F890000 		.4byte	.LASF734
 12461 00af 05       		.byte	0x5
 12462 00b0 A201     		.uleb128 0xa2
 12463 00b2 627B0000 		.4byte	.LASF735
 12464 00b6 05       		.byte	0x5
 12465 00b7 AD01     		.uleb128 0xad
 12466 00b9 816A0000 		.4byte	.LASF736
 12467 00bd 05       		.byte	0x5
 12468 00be B801     		.uleb128 0xb8
 12469 00c0 F22D0000 		.4byte	.LASF737
 12470 00c4 05       		.byte	0x5
 12471 00c5 C101     		.uleb128 0xc1
 12472 00c7 88AF0000 		.4byte	.LASF738
 12473 00cb 06       		.byte	0x6
 12474 00cc C301     		.uleb128 0xc3
 12475 00ce CA290000 		.4byte	.LASF713
 12476 00d2 06       		.byte	0x6
 12477 00d3 C401     		.uleb128 0xc4
 12478 00d5 D2750000 		.4byte	.LASF502
 12479 00d9 06       		.byte	0x6
 12480 00da C501     		.uleb128 0xc5
 12481 00dc 7F840000 		.4byte	.LASF714
 12482 00e0 06       		.byte	0x6
 12483 00e1 C601     		.uleb128 0xc6
 12484 00e3 5A150000 		.4byte	.LASF715
 12485 00e7 02       		.byte	0x2
 12486 00e8 C701     		.uleb128 0xc7
 12487 00ea 696E7400 		.ascii	"int\000"
 12488 00ee 06       		.byte	0x6
 12489 00ef C801     		.uleb128 0xc8
ARM GAS  /var/folders/z0/6xlwn_996xz3mwq1cgzkbq4r0000gp/T//ccBgBTlB.s 			page 240


 12490 00f1 4EAE0000 		.4byte	.LASF717
 12491 00f5 06       		.byte	0x6
 12492 00f6 CD01     		.uleb128 0xcd
 12493 00f8 A6420000 		.4byte	.LASF716
 12494 00fc 00       		.byte	0
 12495              		.section	.debug_macro,"G",%progbits,wm4._stdint.h.10.7a5f60e6741af4a5594a3867d347e1f9,comdat
 12496              	.Ldebug_macro22:
 12497 0000 0400     		.2byte	0x4
 12498 0002 00       		.byte	0
 12499 0003 05       		.byte	0x5
 12500 0004 0A       		.uleb128 0xa
 12501 0005 25940000 		.4byte	.LASF739
 12502 0009 05       		.byte	0x5
 12503 000a 15       		.uleb128 0x15
 12504 000b AFB70000 		.4byte	.LASF740
 12505 000f 05       		.byte	0x5
 12506 0010 19       		.uleb128 0x19
 12507 0011 EB290000 		.4byte	.LASF741
 12508 0015 05       		.byte	0x5
 12509 0016 1B       		.uleb128 0x1b
 12510 0017 F93F0000 		.4byte	.LASF742
 12511 001b 05       		.byte	0x5
 12512 001c 21       		.uleb128 0x21
 12513 001d 2A950000 		.4byte	.LASF743
 12514 0021 05       		.byte	0x5
 12515 0022 25       		.uleb128 0x25
 12516 0023 763A0000 		.4byte	.LASF744
 12517 0027 05       		.byte	0x5
 12518 0028 27       		.uleb128 0x27
 12519 0029 35500000 		.4byte	.LASF745
 12520 002d 05       		.byte	0x5
 12521 002e 2D       		.uleb128 0x2d
 12522 002f A6400000 		.4byte	.LASF746
 12523 0033 05       		.byte	0x5
 12524 0034 31       		.uleb128 0x31
 12525 0035 66A80000 		.4byte	.LASF747
 12526 0039 05       		.byte	0x5
 12527 003a 33       		.uleb128 0x33
 12528 003b A8BB0000 		.4byte	.LASF748
 12529 003f 05       		.byte	0x5
 12530 0040 39       		.uleb128 0x39
 12531 0041 98B80000 		.4byte	.LASF749
 12532 0045 05       		.byte	0x5
 12533 0046 3D       		.uleb128 0x3d
 12534 0047 92420000 		.4byte	.LASF750
 12535 004b 05       		.byte	0x5
 12536 004c 3F       		.uleb128 0x3f
 12537 004d 87570000 		.4byte	.LASF751
 12538 0051 05       		.byte	0x5
 12539 0052 44       		.uleb128 0x44
 12540 0053 708B0000 		.4byte	.LASF752
 12541 0057 05       		.byte	0x5
 12542 0058 49       		.uleb128 0x49
 12543 0059 A7570000 		.4byte	.LASF753
 12544 005d 00       		.byte	0
 12545              		.section	.debug_macro,"G",%progbits,wm4.stdint.h.23.373a9d32a9e4c2e88fd347156532d281,comdat
 12546              	.Ldebug_macro23:
ARM GAS  /var/folders/z0/6xlwn_996xz3mwq1cgzkbq4r0000gp/T//ccBgBTlB.s 			page 241


 12547 0000 0400     		.2byte	0x4
 12548 0002 00       		.byte	0
 12549 0003 05       		.byte	0x5
 12550 0004 17       		.uleb128 0x17
 12551 0005 06690000 		.4byte	.LASF754
 12552 0009 05       		.byte	0x5
 12553 000a 1D       		.uleb128 0x1d
 12554 000b 56AD0000 		.4byte	.LASF755
 12555 000f 05       		.byte	0x5
 12556 0010 23       		.uleb128 0x23
 12557 0011 3C350000 		.4byte	.LASF756
 12558 0015 05       		.byte	0x5
 12559 0016 29       		.uleb128 0x29
 12560 0017 70920000 		.4byte	.LASF757
 12561 001b 05       		.byte	0x5
 12562 001c 35       		.uleb128 0x35
 12563 001d 71410000 		.4byte	.LASF758
 12564 0021 05       		.byte	0x5
 12565 0022 3F       		.uleb128 0x3f
 12566 0023 FD420000 		.4byte	.LASF759
 12567 0027 05       		.byte	0x5
 12568 0028 49       		.uleb128 0x49
 12569 0029 8E460000 		.4byte	.LASF760
 12570 002d 05       		.byte	0x5
 12571 002e 53       		.uleb128 0x53
 12572 002f 819F0000 		.4byte	.LASF761
 12573 0033 05       		.byte	0x5
 12574 0034 9301     		.uleb128 0x93
 12575 0036 149E0000 		.4byte	.LASF762
 12576 003a 05       		.byte	0x5
 12577 003b 9401     		.uleb128 0x94
 12578 003d A07D0000 		.4byte	.LASF763
 12579 0041 05       		.byte	0x5
 12580 0042 9501     		.uleb128 0x95
 12581 0044 1F540000 		.4byte	.LASF764
 12582 0048 05       		.byte	0x5
 12583 0049 AB01     		.uleb128 0xab
 12584 004b 9B810000 		.4byte	.LASF765
 12585 004f 05       		.byte	0x5
 12586 0050 AC01     		.uleb128 0xac
 12587 0052 FC880000 		.4byte	.LASF766
 12588 0056 05       		.byte	0x5
 12589 0057 AD01     		.uleb128 0xad
 12590 0059 2F770000 		.4byte	.LASF767
 12591 005d 05       		.byte	0x5
 12592 005e B501     		.uleb128 0xb5
 12593 0060 268B0000 		.4byte	.LASF768
 12594 0064 05       		.byte	0x5
 12595 0065 B601     		.uleb128 0xb6
 12596 0067 C2540000 		.4byte	.LASF769
 12597 006b 05       		.byte	0x5
 12598 006c B701     		.uleb128 0xb7
 12599 006e D1370000 		.4byte	.LASF770
 12600 0072 05       		.byte	0x5
 12601 0073 C101     		.uleb128 0xc1
 12602 0075 B72A0000 		.4byte	.LASF771
 12603 0079 05       		.byte	0x5
ARM GAS  /var/folders/z0/6xlwn_996xz3mwq1cgzkbq4r0000gp/T//ccBgBTlB.s 			page 242


 12604 007a C201     		.uleb128 0xc2
 12605 007c 935A0000 		.4byte	.LASF772
 12606 0080 05       		.byte	0x5
 12607 0081 C301     		.uleb128 0xc3
 12608 0083 20200000 		.4byte	.LASF773
 12609 0087 05       		.byte	0x5
 12610 0088 CB01     		.uleb128 0xcb
 12611 008a 942C0000 		.4byte	.LASF774
 12612 008e 05       		.byte	0x5
 12613 008f CC01     		.uleb128 0xcc
 12614 0091 66B00000 		.4byte	.LASF775
 12615 0095 05       		.byte	0x5
 12616 0096 CD01     		.uleb128 0xcd
 12617 0098 B2880000 		.4byte	.LASF776
 12618 009c 05       		.byte	0x5
 12619 009d D701     		.uleb128 0xd7
 12620 009f 2B4D0000 		.4byte	.LASF777
 12621 00a3 05       		.byte	0x5
 12622 00a4 D801     		.uleb128 0xd8
 12623 00a6 4EBF0000 		.4byte	.LASF778
 12624 00aa 05       		.byte	0x5
 12625 00ab D901     		.uleb128 0xd9
 12626 00ad BA8D0000 		.4byte	.LASF779
 12627 00b1 05       		.byte	0x5
 12628 00b2 E701     		.uleb128 0xe7
 12629 00b4 E5060000 		.4byte	.LASF780
 12630 00b8 05       		.byte	0x5
 12631 00b9 E801     		.uleb128 0xe8
 12632 00bb 57110000 		.4byte	.LASF781
 12633 00bf 05       		.byte	0x5
 12634 00c0 E901     		.uleb128 0xe9
 12635 00c2 F8180000 		.4byte	.LASF782
 12636 00c6 05       		.byte	0x5
 12637 00c7 F901     		.uleb128 0xf9
 12638 00c9 0D180000 		.4byte	.LASF783
 12639 00cd 05       		.byte	0x5
 12640 00ce FA01     		.uleb128 0xfa
 12641 00d0 C2210000 		.4byte	.LASF784
 12642 00d4 05       		.byte	0x5
 12643 00d5 FB01     		.uleb128 0xfb
 12644 00d7 465D0000 		.4byte	.LASF785
 12645 00db 05       		.byte	0x5
 12646 00dc 8902     		.uleb128 0x109
 12647 00de 7FA90000 		.4byte	.LASF786
 12648 00e2 05       		.byte	0x5
 12649 00e3 8A02     		.uleb128 0x10a
 12650 00e5 03280000 		.4byte	.LASF787
 12651 00e9 05       		.byte	0x5
 12652 00ea 8B02     		.uleb128 0x10b
 12653 00ec E28C0000 		.4byte	.LASF788
 12654 00f0 05       		.byte	0x5
 12655 00f1 9902     		.uleb128 0x119
 12656 00f3 0F420000 		.4byte	.LASF789
 12657 00f7 05       		.byte	0x5
 12658 00f8 9A02     		.uleb128 0x11a
 12659 00fa F5400000 		.4byte	.LASF790
 12660 00fe 05       		.byte	0x5
ARM GAS  /var/folders/z0/6xlwn_996xz3mwq1cgzkbq4r0000gp/T//ccBgBTlB.s 			page 243


 12661 00ff 9B02     		.uleb128 0x11b
 12662 0101 D9AA0000 		.4byte	.LASF791
 12663 0105 05       		.byte	0x5
 12664 0106 A902     		.uleb128 0x129
 12665 0108 18610000 		.4byte	.LASF792
 12666 010c 05       		.byte	0x5
 12667 010d AA02     		.uleb128 0x12a
 12668 010f C1250000 		.4byte	.LASF793
 12669 0113 05       		.byte	0x5
 12670 0114 AB02     		.uleb128 0x12b
 12671 0116 D66F0000 		.4byte	.LASF794
 12672 011a 05       		.byte	0x5
 12673 011b B902     		.uleb128 0x139
 12674 011d CF100000 		.4byte	.LASF795
 12675 0121 05       		.byte	0x5
 12676 0122 BA02     		.uleb128 0x13a
 12677 0124 ABB80000 		.4byte	.LASF796
 12678 0128 05       		.byte	0x5
 12679 0129 BB02     		.uleb128 0x13b
 12680 012b FA840000 		.4byte	.LASF797
 12681 012f 05       		.byte	0x5
 12682 0130 C902     		.uleb128 0x149
 12683 0132 BD0D0000 		.4byte	.LASF798
 12684 0136 05       		.byte	0x5
 12685 0137 CA02     		.uleb128 0x14a
 12686 0139 4B490000 		.4byte	.LASF799
 12687 013d 05       		.byte	0x5
 12688 013e CB02     		.uleb128 0x14b
 12689 0140 8A9B0000 		.4byte	.LASF800
 12690 0144 05       		.byte	0x5
 12691 0145 D902     		.uleb128 0x159
 12692 0147 55050000 		.4byte	.LASF801
 12693 014b 05       		.byte	0x5
 12694 014c DA02     		.uleb128 0x15a
 12695 014e 3A110000 		.4byte	.LASF802
 12696 0152 05       		.byte	0x5
 12697 0153 E202     		.uleb128 0x162
 12698 0155 2EB70000 		.4byte	.LASF803
 12699 0159 05       		.byte	0x5
 12700 015a EA02     		.uleb128 0x16a
 12701 015c FA950000 		.4byte	.LASF804
 12702 0160 05       		.byte	0x5
 12703 0161 F002     		.uleb128 0x170
 12704 0163 80A10000 		.4byte	.LASF805
 12705 0167 05       		.byte	0x5
 12706 0168 F102     		.uleb128 0x171
 12707 016a 03AA0000 		.4byte	.LASF806
 12708 016e 05       		.byte	0x5
 12709 016f F502     		.uleb128 0x175
 12710 0171 2A920000 		.4byte	.LASF807
 12711 0175 05       		.byte	0x5
 12712 0176 F902     		.uleb128 0x179
 12713 0178 244B0000 		.4byte	.LASF808
 12714 017c 05       		.byte	0x5
 12715 017d FE02     		.uleb128 0x17e
 12716 017f E8B90000 		.4byte	.LASF809
 12717 0183 05       		.byte	0x5
ARM GAS  /var/folders/z0/6xlwn_996xz3mwq1cgzkbq4r0000gp/T//ccBgBTlB.s 			page 244


 12718 0184 8903     		.uleb128 0x189
 12719 0186 E8520000 		.4byte	.LASF810
 12720 018a 05       		.byte	0x5
 12721 018b 9303     		.uleb128 0x193
 12722 018d 67BE0000 		.4byte	.LASF811
 12723 0191 05       		.byte	0x5
 12724 0192 9803     		.uleb128 0x198
 12725 0194 29700000 		.4byte	.LASF812
 12726 0198 05       		.byte	0x5
 12727 0199 9F03     		.uleb128 0x19f
 12728 019b 677E0000 		.4byte	.LASF813
 12729 019f 05       		.byte	0x5
 12730 01a0 A003     		.uleb128 0x1a0
 12731 01a2 CFB60000 		.4byte	.LASF814
 12732 01a6 05       		.byte	0x5
 12733 01a7 AB03     		.uleb128 0x1ab
 12734 01a9 D8340000 		.4byte	.LASF815
 12735 01ad 05       		.byte	0x5
 12736 01ae AC03     		.uleb128 0x1ac
 12737 01b0 20640000 		.4byte	.LASF816
 12738 01b4 05       		.byte	0x5
 12739 01b5 B703     		.uleb128 0x1b7
 12740 01b7 05080000 		.4byte	.LASF817
 12741 01bb 05       		.byte	0x5
 12742 01bc B803     		.uleb128 0x1b8
 12743 01be 035F0000 		.4byte	.LASF818
 12744 01c2 05       		.byte	0x5
 12745 01c3 C403     		.uleb128 0x1c4
 12746 01c5 26090000 		.4byte	.LASF819
 12747 01c9 05       		.byte	0x5
 12748 01ca C503     		.uleb128 0x1c5
 12749 01cc 6F760000 		.4byte	.LASF820
 12750 01d0 05       		.byte	0x5
 12751 01d1 D403     		.uleb128 0x1d4
 12752 01d3 5F780000 		.4byte	.LASF821
 12753 01d7 05       		.byte	0x5
 12754 01d8 D503     		.uleb128 0x1d5
 12755 01da 0E750000 		.4byte	.LASF822
 12756 01de 00       		.byte	0
 12757              		.section	.debug_macro,"G",%progbits,wm4.microrl_config.h.6.70661e8aebc9ea06396eb640138e525a,comdat
 12758              	.Ldebug_macro24:
 12759 0000 0400     		.2byte	0x4
 12760 0002 00       		.byte	0
 12761 0003 05       		.byte	0x5
 12762 0004 06       		.uleb128 0x6
 12763 0005 8AAA0000 		.4byte	.LASF824
 12764 0009 05       		.byte	0x5
 12765 000a 08       		.uleb128 0x8
 12766 000b 964F0000 		.4byte	.LASF825
 12767 000f 05       		.byte	0x5
 12768 0010 10       		.uleb128 0x10
 12769 0011 2B380000 		.4byte	.LASF826
 12770 0015 05       		.byte	0x5
 12771 0016 18       		.uleb128 0x18
 12772 0017 C4330000 		.4byte	.LASF827
 12773 001b 05       		.byte	0x5
 12774 001c 1F       		.uleb128 0x1f
ARM GAS  /var/folders/z0/6xlwn_996xz3mwq1cgzkbq4r0000gp/T//ccBgBTlB.s 			page 245


 12775 001d D5B30000 		.4byte	.LASF828
 12776 0021 05       		.byte	0x5
 12777 0022 24       		.uleb128 0x24
 12778 0023 8A330000 		.4byte	.LASF829
 12779 0027 05       		.byte	0x5
 12780 0028 2F       		.uleb128 0x2f
 12781 0029 9A6E0000 		.4byte	.LASF830
 12782 002d 05       		.byte	0x5
 12783 002e 37       		.uleb128 0x37
 12784 002f B2280000 		.4byte	.LASF831
 12785 0033 06       		.byte	0x6
 12786 0034 3C       		.uleb128 0x3c
 12787 0035 23830000 		.4byte	.LASF832
 12788 0039 05       		.byte	0x5
 12789 003a 4F       		.uleb128 0x4f
 12790 003b BA890000 		.4byte	.LASF833
 12791 003f 05       		.byte	0x5
 12792 0040 53       		.uleb128 0x53
 12793 0041 5FB90000 		.4byte	.LASF834
 12794 0045 05       		.byte	0x5
 12795 0046 5A       		.uleb128 0x5a
 12796 0047 F41E0000 		.4byte	.LASF835
 12797 004b 00       		.byte	0
 12798              		.section	.debug_macro,"G",%progbits,wm4.microrl.h.9.b0be5a31302c3975bc49057dcebb5e35,comdat
 12799              	.Ldebug_macro25:
 12800 0000 0400     		.2byte	0x4
 12801 0002 00       		.byte	0
 12802 0003 05       		.byte	0x5
 12803 0004 09       		.uleb128 0x9
 12804 0005 9CBC0000 		.4byte	.LASF836
 12805 0009 05       		.byte	0x5
 12806 000a 0A       		.uleb128 0xa
 12807 000b DA330000 		.4byte	.LASF837
 12808 000f 05       		.byte	0x5
 12809 0010 0B       		.uleb128 0xb
 12810 0011 FE2C0000 		.4byte	.LASF838
 12811 0015 05       		.byte	0x5
 12812 0016 0C       		.uleb128 0xc
 12813 0017 D5A20000 		.4byte	.LASF839
 12814 001b 05       		.byte	0x5
 12815 001c 0D       		.uleb128 0xd
 12816 001d F4080000 		.4byte	.LASF840
 12817 0021 05       		.byte	0x5
 12818 0022 0E       		.uleb128 0xe
 12819 0023 BC7D0000 		.4byte	.LASF841
 12820 0027 05       		.byte	0x5
 12821 0028 0F       		.uleb128 0xf
 12822 0029 D0420000 		.4byte	.LASF842
 12823 002d 05       		.byte	0x5
 12824 002e 10       		.uleb128 0x10
 12825 002f 8D640000 		.4byte	.LASF843
 12826 0033 05       		.byte	0x5
 12827 0034 11       		.uleb128 0x11
 12828 0035 F2020000 		.4byte	.LASF844
 12829 0039 05       		.byte	0x5
 12830 003a 12       		.uleb128 0x12
 12831 003b 17010000 		.4byte	.LASF845
ARM GAS  /var/folders/z0/6xlwn_996xz3mwq1cgzkbq4r0000gp/T//ccBgBTlB.s 			page 246


 12832 003f 05       		.byte	0x5
 12833 0040 13       		.uleb128 0x13
 12834 0041 BC1B0000 		.4byte	.LASF846
 12835 0045 05       		.byte	0x5
 12836 0046 14       		.uleb128 0x14
 12837 0047 44060000 		.4byte	.LASF847
 12838 004b 05       		.byte	0x5
 12839 004c 15       		.uleb128 0x15
 12840 004d 11330000 		.4byte	.LASF848
 12841 0051 05       		.byte	0x5
 12842 0052 16       		.uleb128 0x16
 12843 0053 16160000 		.4byte	.LASF849
 12844 0057 05       		.byte	0x5
 12845 0058 17       		.uleb128 0x17
 12846 0059 94840000 		.4byte	.LASF850
 12847 005d 05       		.byte	0x5
 12848 005e 18       		.uleb128 0x18
 12849 005f 8B980000 		.4byte	.LASF851
 12850 0063 05       		.byte	0x5
 12851 0064 19       		.uleb128 0x19
 12852 0065 71770000 		.4byte	.LASF852
 12853 0069 05       		.byte	0x5
 12854 006a 1A       		.uleb128 0x1a
 12855 006b 0A1C0000 		.4byte	.LASF853
 12856 006f 05       		.byte	0x5
 12857 0070 1B       		.uleb128 0x1b
 12858 0071 D67A0000 		.4byte	.LASF854
 12859 0075 05       		.byte	0x5
 12860 0076 1C       		.uleb128 0x1c
 12861 0077 7E150000 		.4byte	.LASF855
 12862 007b 05       		.byte	0x5
 12863 007c 1D       		.uleb128 0x1d
 12864 007d E6760000 		.4byte	.LASF856
 12865 0081 05       		.byte	0x5
 12866 0082 1E       		.uleb128 0x1e
 12867 0083 9D890000 		.4byte	.LASF857
 12868 0087 05       		.byte	0x5
 12869 0088 1F       		.uleb128 0x1f
 12870 0089 7B010000 		.4byte	.LASF858
 12871 008d 05       		.byte	0x5
 12872 008e 20       		.uleb128 0x20
 12873 008f C7750000 		.4byte	.LASF859
 12874 0093 05       		.byte	0x5
 12875 0094 21       		.uleb128 0x21
 12876 0095 026A0000 		.4byte	.LASF860
 12877 0099 05       		.byte	0x5
 12878 009a 22       		.uleb128 0x22
 12879 009b F3420000 		.4byte	.LASF861
 12880 009f 05       		.byte	0x5
 12881 00a0 23       		.uleb128 0x23
 12882 00a1 02BA0000 		.4byte	.LASF862
 12883 00a5 05       		.byte	0x5
 12884 00a6 24       		.uleb128 0x24
 12885 00a7 8D350000 		.4byte	.LASF863
 12886 00ab 05       		.byte	0x5
 12887 00ac 25       		.uleb128 0x25
 12888 00ad 92950000 		.4byte	.LASF864
ARM GAS  /var/folders/z0/6xlwn_996xz3mwq1cgzkbq4r0000gp/T//ccBgBTlB.s 			page 247


 12889 00b1 05       		.byte	0x5
 12890 00b2 26       		.uleb128 0x26
 12891 00b3 65A70000 		.4byte	.LASF865
 12892 00b7 05       		.byte	0x5
 12893 00b8 27       		.uleb128 0x27
 12894 00b9 0C400000 		.4byte	.LASF866
 12895 00bd 05       		.byte	0x5
 12896 00be 28       		.uleb128 0x28
 12897 00bf 03390000 		.4byte	.LASF867
 12898 00c3 05       		.byte	0x5
 12899 00c4 2A       		.uleb128 0x2a
 12900 00c5 74210000 		.4byte	.LASF868
 12901 00c9 05       		.byte	0x5
 12902 00ca 2C       		.uleb128 0x2c
 12903 00cb CC1B0000 		.4byte	.LASF869
 12904 00cf 05       		.byte	0x5
 12905 00d0 2F       		.uleb128 0x2f
 12906 00d1 E7B80000 		.4byte	.LASF870
 12907 00d5 05       		.byte	0x5
 12908 00d6 30       		.uleb128 0x30
 12909 00d7 85BB0000 		.4byte	.LASF871
 12910 00db 05       		.byte	0x5
 12911 00dc 32       		.uleb128 0x32
 12912 00dd 9F140000 		.4byte	.LASF872
 12913 00e1 05       		.byte	0x5
 12914 00e2 33       		.uleb128 0x33
 12915 00e3 8F6A0000 		.4byte	.LASF873
 12916 00e7 05       		.byte	0x5
 12917 00e8 34       		.uleb128 0x34
 12918 00e9 73320000 		.4byte	.LASF874
 12919 00ed 00       		.byte	0
 12920              		.section	.debug_macro,"G",%progbits,wm4.static_can.h.10.6902ce59c9a3d8563e23a7f670a57664,comdat
 12921              	.Ldebug_macro26:
 12922 0000 0400     		.2byte	0x4
 12923 0002 00       		.byte	0
 12924 0003 05       		.byte	0x5
 12925 0004 0A       		.uleb128 0xa
 12926 0005 D04B0000 		.4byte	.LASF879
 12927 0009 05       		.byte	0x5
 12928 000a 0D       		.uleb128 0xd
 12929 000b 163E0000 		.4byte	.LASF880
 12930 000f 05       		.byte	0x5
 12931 0010 10       		.uleb128 0x10
 12932 0011 8A3A0000 		.4byte	.LASF881
 12933 0015 00       		.byte	0
 12934              		.section	.debug_macro,"G",%progbits,wm4.constants.h.2.6d37ff5986ed2580365117b03c267631,comdat
 12935              	.Ldebug_macro27:
 12936 0000 0400     		.2byte	0x4
 12937 0002 00       		.byte	0
 12938 0003 05       		.byte	0x5
 12939 0004 02       		.uleb128 0x2
 12940 0005 42890000 		.4byte	.LASF883
 12941 0009 05       		.byte	0x5
 12942 000a 04       		.uleb128 0x4
 12943 000b F0A00000 		.4byte	.LASF884
 12944 000f 05       		.byte	0x5
 12945 0010 05       		.uleb128 0x5
ARM GAS  /var/folders/z0/6xlwn_996xz3mwq1cgzkbq4r0000gp/T//ccBgBTlB.s 			page 248


 12946 0011 C9930000 		.4byte	.LASF885
 12947 0015 05       		.byte	0x5
 12948 0016 06       		.uleb128 0x6
 12949 0017 9A1A0000 		.4byte	.LASF886
 12950 001b 05       		.byte	0x5
 12951 001c 07       		.uleb128 0x7
 12952 001d 28870000 		.4byte	.LASF887
 12953 0021 05       		.byte	0x5
 12954 0022 08       		.uleb128 0x8
 12955 0023 E4330000 		.4byte	.LASF888
 12956 0027 05       		.byte	0x5
 12957 0028 09       		.uleb128 0x9
 12958 0029 7C180000 		.4byte	.LASF889
 12959 002d 05       		.byte	0x5
 12960 002e 0A       		.uleb128 0xa
 12961 002f 58900000 		.4byte	.LASF890
 12962 0033 05       		.byte	0x5
 12963 0034 0B       		.uleb128 0xb
 12964 0035 1D5A0000 		.4byte	.LASF891
 12965 0039 05       		.byte	0x5
 12966 003a 0C       		.uleb128 0xc
 12967 003b 58200000 		.4byte	.LASF892
 12968 003f 05       		.byte	0x5
 12969 0040 0D       		.uleb128 0xd
 12970 0041 DF190000 		.4byte	.LASF893
 12971 0045 05       		.byte	0x5
 12972 0046 0E       		.uleb128 0xe
 12973 0047 308A0000 		.4byte	.LASF894
 12974 004b 05       		.byte	0x5
 12975 004c 0F       		.uleb128 0xf
 12976 004d 68010000 		.4byte	.LASF895
 12977 0051 05       		.byte	0x5
 12978 0052 10       		.uleb128 0x10
 12979 0053 FBB10000 		.4byte	.LASF896
 12980 0057 05       		.byte	0x5
 12981 0058 11       		.uleb128 0x11
 12982 0059 BD800000 		.4byte	.LASF897
 12983 005d 05       		.byte	0x5
 12984 005e 12       		.uleb128 0x12
 12985 005f 31BF0000 		.4byte	.LASF898
 12986 0063 05       		.byte	0x5
 12987 0064 13       		.uleb128 0x13
 12988 0065 F4BE0000 		.4byte	.LASF899
 12989 0069 05       		.byte	0x5
 12990 006a 14       		.uleb128 0x14
 12991 006b 887A0000 		.4byte	.LASF900
 12992 006f 05       		.byte	0x5
 12993 0070 15       		.uleb128 0x15
 12994 0071 EF160000 		.4byte	.LASF901
 12995 0075 05       		.byte	0x5
 12996 0076 16       		.uleb128 0x16
 12997 0077 97640000 		.4byte	.LASF902
 12998 007b 05       		.byte	0x5
 12999 007c 17       		.uleb128 0x17
 13000 007d D4350000 		.4byte	.LASF903
 13001 0081 05       		.byte	0x5
 13002 0082 18       		.uleb128 0x18
ARM GAS  /var/folders/z0/6xlwn_996xz3mwq1cgzkbq4r0000gp/T//ccBgBTlB.s 			page 249


 13003 0083 C35C0000 		.4byte	.LASF904
 13004 0087 05       		.byte	0x5
 13005 0088 19       		.uleb128 0x19
 13006 0089 E52B0000 		.4byte	.LASF905
 13007 008d 05       		.byte	0x5
 13008 008e 1A       		.uleb128 0x1a
 13009 008f 54060000 		.4byte	.LASF906
 13010 0093 05       		.byte	0x5
 13011 0094 1B       		.uleb128 0x1b
 13012 0095 9EA40000 		.4byte	.LASF907
 13013 0099 05       		.byte	0x5
 13014 009a 1C       		.uleb128 0x1c
 13015 009b A0780000 		.4byte	.LASF908
 13016 009f 05       		.byte	0x5
 13017 00a0 1D       		.uleb128 0x1d
 13018 00a1 659C0000 		.4byte	.LASF909
 13019 00a5 05       		.byte	0x5
 13020 00a6 1E       		.uleb128 0x1e
 13021 00a7 E2720000 		.4byte	.LASF910
 13022 00ab 05       		.byte	0x5
 13023 00ac 1F       		.uleb128 0x1f
 13024 00ad 76590000 		.4byte	.LASF911
 13025 00b1 05       		.byte	0x5
 13026 00b2 20       		.uleb128 0x20
 13027 00b3 2D1D0000 		.4byte	.LASF912
 13028 00b7 05       		.byte	0x5
 13029 00b8 21       		.uleb128 0x21
 13030 00b9 54980000 		.4byte	.LASF913
 13031 00bd 05       		.byte	0x5
 13032 00be 22       		.uleb128 0x22
 13033 00bf 611C0000 		.4byte	.LASF914
 13034 00c3 05       		.byte	0x5
 13035 00c4 23       		.uleb128 0x23
 13036 00c5 C4140000 		.4byte	.LASF915
 13037 00c9 05       		.byte	0x5
 13038 00ca 24       		.uleb128 0x24
 13039 00cb E93B0000 		.4byte	.LASF916
 13040 00cf 05       		.byte	0x5
 13041 00d0 25       		.uleb128 0x25
 13042 00d1 8D690000 		.4byte	.LASF917
 13043 00d5 05       		.byte	0x5
 13044 00d6 26       		.uleb128 0x26
 13045 00d7 88400000 		.4byte	.LASF918
 13046 00db 05       		.byte	0x5
 13047 00dc 27       		.uleb128 0x27
 13048 00dd 3C960000 		.4byte	.LASF919
 13049 00e1 05       		.byte	0x5
 13050 00e2 28       		.uleb128 0x28
 13051 00e3 C9660000 		.4byte	.LASF920
 13052 00e7 05       		.byte	0x5
 13053 00e8 29       		.uleb128 0x29
 13054 00e9 5A730000 		.4byte	.LASF921
 13055 00ed 05       		.byte	0x5
 13056 00ee 2A       		.uleb128 0x2a
 13057 00ef 2B910000 		.4byte	.LASF922
 13058 00f3 05       		.byte	0x5
 13059 00f4 2B       		.uleb128 0x2b
ARM GAS  /var/folders/z0/6xlwn_996xz3mwq1cgzkbq4r0000gp/T//ccBgBTlB.s 			page 250


 13060 00f5 03B40000 		.4byte	.LASF923
 13061 00f9 05       		.byte	0x5
 13062 00fa 2C       		.uleb128 0x2c
 13063 00fb 20A50000 		.4byte	.LASF924
 13064 00ff 05       		.byte	0x5
 13065 0100 2D       		.uleb128 0x2d
 13066 0101 EE1C0000 		.4byte	.LASF925
 13067 0105 05       		.byte	0x5
 13068 0106 2E       		.uleb128 0x2e
 13069 0107 66140000 		.4byte	.LASF926
 13070 010b 05       		.byte	0x5
 13071 010c 2F       		.uleb128 0x2f
 13072 010d F0150000 		.4byte	.LASF927
 13073 0111 05       		.byte	0x5
 13074 0112 30       		.uleb128 0x30
 13075 0113 02530000 		.4byte	.LASF928
 13076 0117 05       		.byte	0x5
 13077 0118 31       		.uleb128 0x31
 13078 0119 652A0000 		.4byte	.LASF929
 13079 011d 05       		.byte	0x5
 13080 011e 32       		.uleb128 0x32
 13081 011f 75B30000 		.4byte	.LASF930
 13082 0123 05       		.byte	0x5
 13083 0124 33       		.uleb128 0x33
 13084 0125 A82B0000 		.4byte	.LASF931
 13085 0129 05       		.byte	0x5
 13086 012a 34       		.uleb128 0x34
 13087 012b 29550000 		.4byte	.LASF932
 13088 012f 05       		.byte	0x5
 13089 0130 35       		.uleb128 0x35
 13090 0131 6E540000 		.4byte	.LASF933
 13091 0135 05       		.byte	0x5
 13092 0136 36       		.uleb128 0x36
 13093 0137 26590000 		.4byte	.LASF934
 13094 013b 05       		.byte	0x5
 13095 013c 37       		.uleb128 0x37
 13096 013d 8A920000 		.4byte	.LASF935
 13097 0141 05       		.byte	0x5
 13098 0142 38       		.uleb128 0x38
 13099 0143 05A50000 		.4byte	.LASF936
 13100 0147 05       		.byte	0x5
 13101 0148 39       		.uleb128 0x39
 13102 0149 C0620000 		.4byte	.LASF937
 13103 014d 05       		.byte	0x5
 13104 014e 3A       		.uleb128 0x3a
 13105 014f 2D0B0000 		.4byte	.LASF938
 13106 0153 05       		.byte	0x5
 13107 0154 3B       		.uleb128 0x3b
 13108 0155 9BB40000 		.4byte	.LASF939
 13109 0159 05       		.byte	0x5
 13110 015a 3C       		.uleb128 0x3c
 13111 015b 6B460000 		.4byte	.LASF940
 13112 015f 05       		.byte	0x5
 13113 0160 3D       		.uleb128 0x3d
 13114 0161 CF740000 		.4byte	.LASF941
 13115 0165 05       		.byte	0x5
 13116 0166 3E       		.uleb128 0x3e
ARM GAS  /var/folders/z0/6xlwn_996xz3mwq1cgzkbq4r0000gp/T//ccBgBTlB.s 			page 251


 13117 0167 63310000 		.4byte	.LASF942
 13118 016b 05       		.byte	0x5
 13119 016c 3F       		.uleb128 0x3f
 13120 016d F4620000 		.4byte	.LASF943
 13121 0171 05       		.byte	0x5
 13122 0172 40       		.uleb128 0x40
 13123 0173 19030000 		.4byte	.LASF944
 13124 0177 05       		.byte	0x5
 13125 0178 41       		.uleb128 0x41
 13126 0179 70090000 		.4byte	.LASF945
 13127 017d 05       		.byte	0x5
 13128 017e 42       		.uleb128 0x42
 13129 017f DA690000 		.4byte	.LASF946
 13130 0183 05       		.byte	0x5
 13131 0184 43       		.uleb128 0x43
 13132 0185 65BA0000 		.4byte	.LASF947
 13133 0189 05       		.byte	0x5
 13134 018a 44       		.uleb128 0x44
 13135 018b 420E0000 		.4byte	.LASF948
 13136 018f 05       		.byte	0x5
 13137 0190 45       		.uleb128 0x45
 13138 0191 2D260000 		.4byte	.LASF949
 13139 0195 05       		.byte	0x5
 13140 0196 46       		.uleb128 0x46
 13141 0197 BC1C0000 		.4byte	.LASF950
 13142 019b 05       		.byte	0x5
 13143 019c 47       		.uleb128 0x47
 13144 019d A42E0000 		.4byte	.LASF951
 13145 01a1 05       		.byte	0x5
 13146 01a2 48       		.uleb128 0x48
 13147 01a3 0F5C0000 		.4byte	.LASF952
 13148 01a7 05       		.byte	0x5
 13149 01a8 49       		.uleb128 0x49
 13150 01a9 775C0000 		.4byte	.LASF953
 13151 01ad 05       		.byte	0x5
 13152 01ae 4A       		.uleb128 0x4a
 13153 01af D62A0000 		.4byte	.LASF954
 13154 01b3 05       		.byte	0x5
 13155 01b4 4B       		.uleb128 0x4b
 13156 01b5 AD1F0000 		.4byte	.LASF955
 13157 01b9 05       		.byte	0x5
 13158 01ba 4C       		.uleb128 0x4c
 13159 01bb 567E0000 		.4byte	.LASF956
 13160 01bf 00       		.byte	0
 13161              		.section	.debug_macro,"G",%progbits,wm4.console_types.h.2.73a14d0218d5f7ce15f71b7c1c1a3626,comdat
 13162              	.Ldebug_macro28:
 13163 0000 0400     		.2byte	0x4
 13164 0002 00       		.byte	0
 13165 0003 05       		.byte	0x5
 13166 0004 02       		.uleb128 0x2
 13167 0005 7B640000 		.4byte	.LASF966
 13168 0009 05       		.byte	0x5
 13169 000a 24       		.uleb128 0x24
 13170 000b 385B0000 		.4byte	.LASF967
 13171 000f 00       		.byte	0
 13172              		.section	.debug_macro,"G",%progbits,wm4.lpc_types.h.33.09204c429b0b339113f4a0f79041fbe5,comdat
 13173              	.Ldebug_macro29:
ARM GAS  /var/folders/z0/6xlwn_996xz3mwq1cgzkbq4r0000gp/T//ccBgBTlB.s 			page 252


 13174 0000 0400     		.2byte	0x4
 13175 0002 00       		.byte	0
 13176 0003 05       		.byte	0x5
 13177 0004 21       		.uleb128 0x21
 13178 0005 D2720000 		.4byte	.LASF971
 13179 0009 05       		.byte	0x5
 13180 000a 3F       		.uleb128 0x3f
 13181 000b AF910000 		.4byte	.LASF972
 13182 000f 05       		.byte	0x5
 13183 0010 45       		.uleb128 0x45
 13184 0011 2A2F0000 		.4byte	.LASF973
 13185 0015 06       		.byte	0x6
 13186 0016 66       		.uleb128 0x66
 13187 0017 A1830000 		.4byte	.LASF974
 13188 001b 05       		.byte	0x5
 13189 001c 68       		.uleb128 0x68
 13190 001d CB700000 		.4byte	.LASF975
 13191 0021 06       		.byte	0x6
 13192 0022 6E       		.uleb128 0x6e
 13193 0023 A9260000 		.4byte	.LASF976
 13194 0027 05       		.byte	0x5
 13195 0028 70       		.uleb128 0x70
 13196 0029 0F760000 		.4byte	.LASF977
 13197 002d 06       		.byte	0x6
 13198 002e 7F       		.uleb128 0x7f
 13199 002f 14890000 		.4byte	.LASF978
 13200 0033 05       		.byte	0x5
 13201 0034 8101     		.uleb128 0x81
 13202 0036 45B20000 		.4byte	.LASF979
 13203 003a 05       		.byte	0x5
 13204 003b 8901     		.uleb128 0x89
 13205 003d 84680000 		.4byte	.LASF980
 13206 0041 05       		.byte	0x5
 13207 0042 8C01     		.uleb128 0x8c
 13208 0044 BB770000 		.4byte	.LASF981
 13209 0048 05       		.byte	0x5
 13210 0049 8E01     		.uleb128 0x8e
 13211 004b 35100000 		.4byte	.LASF982
 13212 004f 05       		.byte	0x5
 13213 0050 9101     		.uleb128 0x91
 13214 0052 697A0000 		.4byte	.LASF983
 13215 0056 05       		.byte	0x5
 13216 0057 9401     		.uleb128 0x94
 13217 0059 7C770000 		.4byte	.LASF984
 13218 005d 05       		.byte	0x5
 13219 005e 9701     		.uleb128 0x97
 13220 0060 76BA0000 		.4byte	.LASF985
 13221 0064 05       		.byte	0x5
 13222 0065 D001     		.uleb128 0xd0
 13223 0067 683A0000 		.4byte	.LASF986
 13224 006b 00       		.byte	0
 13225              		.section	.debug_macro,"G",%progbits,wm4.sys_config.h.31.9f234e9c90333d233c7e647ebe63e928,comdat
 13226              	.Ldebug_macro30:
 13227 0000 0400     		.2byte	0x4
 13228 0002 00       		.byte	0
 13229 0003 05       		.byte	0x5
 13230 0004 1F       		.uleb128 0x1f
ARM GAS  /var/folders/z0/6xlwn_996xz3mwq1cgzkbq4r0000gp/T//ccBgBTlB.s 			page 253


 13231 0005 C2810000 		.4byte	.LASF987
 13232 0009 05       		.byte	0x5
 13233 000a 26       		.uleb128 0x26
 13234 000b 90140000 		.4byte	.LASF988
 13235 000f 00       		.byte	0
 13236              		.section	.debug_macro,"G",%progbits,wm4.cmsis_11cxx.h.33.407e9bbb5d170cd1552d3f7dc3fd5c42,comdat
 13237              	.Ldebug_macro31:
 13238 0000 0400     		.2byte	0x4
 13239 0002 00       		.byte	0
 13240 0003 05       		.byte	0x5
 13241 0004 21       		.uleb128 0x21
 13242 0005 7D200000 		.4byte	.LASF990
 13243 0009 05       		.byte	0x5
 13244 000a 8801     		.uleb128 0x88
 13245 000c CAB40000 		.4byte	.LASF991
 13246 0010 05       		.byte	0x5
 13247 0011 8901     		.uleb128 0x89
 13248 0013 D7490000 		.4byte	.LASF992
 13249 0017 05       		.byte	0x5
 13250 0018 8A01     		.uleb128 0x8a
 13251 001a C0670000 		.4byte	.LASF993
 13252 001e 00       		.byte	0
 13253              		.section	.debug_macro,"G",%progbits,wm4.core_cm0.h.32.192d13cfa8b31e63c86621de62eb153f,comdat
 13254              	.Ldebug_macro32:
 13255 0000 0400     		.2byte	0x4
 13256 0002 00       		.byte	0
 13257 0003 05       		.byte	0x5
 13258 0004 20       		.uleb128 0x20
 13259 0005 C8460000 		.4byte	.LASF994
 13260 0009 05       		.byte	0x5
 13261 000a 38       		.uleb128 0x38
 13262 000b 1F690000 		.4byte	.LASF995
 13263 000f 05       		.byte	0x5
 13264 0010 39       		.uleb128 0x39
 13265 0011 44310000 		.4byte	.LASF996
 13266 0015 05       		.byte	0x5
 13267 0016 3A       		.uleb128 0x3a
 13268 0017 EB480000 		.4byte	.LASF997
 13269 001b 05       		.byte	0x5
 13270 001c 3D       		.uleb128 0x3d
 13271 001d 18460000 		.4byte	.LASF998
 13272 0021 05       		.byte	0x5
 13273 0022 4B       		.uleb128 0x4b
 13274 0023 69B30000 		.4byte	.LASF999
 13275 0027 05       		.byte	0x5
 13276 0028 4C       		.uleb128 0x4c
 13277 0029 F18F0000 		.4byte	.LASF1000
 13278 002d 05       		.byte	0x5
 13279 002e 4D       		.uleb128 0x4d
 13280 002f 41B90000 		.4byte	.LASF1001
 13281 0033 05       		.byte	0x5
 13282 0034 58       		.uleb128 0x58
 13283 0035 0D7F0000 		.4byte	.LASF1002
 13284 0039 00       		.byte	0
 13285              		.section	.debug_macro,"G",%progbits,wm4.core_cm0.h.120.f4257ea7d0bce0cbabffe223e23b2fd4,comdat
 13286              	.Ldebug_macro33:
 13287 0000 0400     		.2byte	0x4
ARM GAS  /var/folders/z0/6xlwn_996xz3mwq1cgzkbq4r0000gp/T//ccBgBTlB.s 			page 254


 13288 0002 00       		.byte	0
 13289 0003 05       		.byte	0x5
 13290 0004 78       		.uleb128 0x78
 13291 0005 4BBC0000 		.4byte	.LASF1005
 13292 0009 05       		.byte	0x5
 13293 000a 9701     		.uleb128 0x97
 13294 000c D2060000 		.4byte	.LASF1006
 13295 0010 05       		.byte	0x5
 13296 0011 9901     		.uleb128 0x99
 13297 0013 2FB60000 		.4byte	.LASF1007
 13298 0017 05       		.byte	0x5
 13299 0018 9A01     		.uleb128 0x9a
 13300 001a 300F0000 		.4byte	.LASF1008
 13301 001e 05       		.byte	0x5
 13302 001f B002     		.uleb128 0x130
 13303 0021 8A670000 		.4byte	.LASF1009
 13304 0025 05       		.byte	0x5
 13305 0026 B102     		.uleb128 0x131
 13306 0028 91020000 		.4byte	.LASF1010
 13307 002c 05       		.byte	0x5
 13308 002d B302     		.uleb128 0x133
 13309 002f 0D360000 		.4byte	.LASF1011
 13310 0033 05       		.byte	0x5
 13311 0034 B402     		.uleb128 0x134
 13312 0036 48840000 		.4byte	.LASF1012
 13313 003a 05       		.byte	0x5
 13314 003b B602     		.uleb128 0x136
 13315 003d 3A790000 		.4byte	.LASF1013
 13316 0041 05       		.byte	0x5
 13317 0042 B702     		.uleb128 0x137
 13318 0044 CF890000 		.4byte	.LASF1014
 13319 0048 05       		.byte	0x5
 13320 0049 B902     		.uleb128 0x139
 13321 004b F85B0000 		.4byte	.LASF1015
 13322 004f 05       		.byte	0x5
 13323 0050 BA02     		.uleb128 0x13a
 13324 0052 56350000 		.4byte	.LASF1016
 13325 0056 05       		.byte	0x5
 13326 0057 BC02     		.uleb128 0x13c
 13327 0059 2C730000 		.4byte	.LASF1017
 13328 005d 05       		.byte	0x5
 13329 005e BD02     		.uleb128 0x13d
 13330 0060 E3AE0000 		.4byte	.LASF1018
 13331 0064 05       		.byte	0x5
 13332 0065 C002     		.uleb128 0x140
 13333 0067 849E0000 		.4byte	.LASF1019
 13334 006b 05       		.byte	0x5
 13335 006c C102     		.uleb128 0x141
 13336 006e BB980000 		.4byte	.LASF1020
 13337 0072 05       		.byte	0x5
 13338 0073 C302     		.uleb128 0x143
 13339 0075 104A0000 		.4byte	.LASF1021
 13340 0079 05       		.byte	0x5
 13341 007a C402     		.uleb128 0x144
 13342 007c DA3C0000 		.4byte	.LASF1022
 13343 0080 05       		.byte	0x5
 13344 0081 C602     		.uleb128 0x146
ARM GAS  /var/folders/z0/6xlwn_996xz3mwq1cgzkbq4r0000gp/T//ccBgBTlB.s 			page 255


 13345 0083 F9AD0000 		.4byte	.LASF1023
 13346 0087 05       		.byte	0x5
 13347 0088 C702     		.uleb128 0x147
 13348 008a 32800000 		.4byte	.LASF1024
 13349 008e 05       		.byte	0x5
 13350 008f C902     		.uleb128 0x149
 13351 0091 0F0A0000 		.4byte	.LASF1025
 13352 0095 05       		.byte	0x5
 13353 0096 CA02     		.uleb128 0x14a
 13354 0098 A49C0000 		.4byte	.LASF1026
 13355 009c 05       		.byte	0x5
 13356 009d CC02     		.uleb128 0x14c
 13357 009f 6A650000 		.4byte	.LASF1027
 13358 00a3 05       		.byte	0x5
 13359 00a4 CD02     		.uleb128 0x14d
 13360 00a6 771C0000 		.4byte	.LASF1028
 13361 00aa 05       		.byte	0x5
 13362 00ab CF02     		.uleb128 0x14f
 13363 00ad 49400000 		.4byte	.LASF1029
 13364 00b1 05       		.byte	0x5
 13365 00b2 D002     		.uleb128 0x150
 13366 00b4 416E0000 		.4byte	.LASF1030
 13367 00b8 05       		.byte	0x5
 13368 00b9 D202     		.uleb128 0x152
 13369 00bb D34C0000 		.4byte	.LASF1031
 13370 00bf 05       		.byte	0x5
 13371 00c0 D302     		.uleb128 0x153
 13372 00c2 0D520000 		.4byte	.LASF1032
 13373 00c6 05       		.byte	0x5
 13374 00c7 D502     		.uleb128 0x155
 13375 00c9 473C0000 		.4byte	.LASF1033
 13376 00cd 05       		.byte	0x5
 13377 00ce D602     		.uleb128 0x156
 13378 00d0 D10A0000 		.4byte	.LASF1034
 13379 00d4 05       		.byte	0x5
 13380 00d5 D802     		.uleb128 0x158
 13381 00d7 1B330000 		.4byte	.LASF1035
 13382 00db 05       		.byte	0x5
 13383 00dc D902     		.uleb128 0x159
 13384 00de D22E0000 		.4byte	.LASF1036
 13385 00e2 05       		.byte	0x5
 13386 00e3 DC02     		.uleb128 0x15c
 13387 00e5 36390000 		.4byte	.LASF1037
 13388 00e9 05       		.byte	0x5
 13389 00ea DD02     		.uleb128 0x15d
 13390 00ec 531F0000 		.4byte	.LASF1038
 13391 00f0 05       		.byte	0x5
 13392 00f1 DF02     		.uleb128 0x15f
 13393 00f3 97BE0000 		.4byte	.LASF1039
 13394 00f7 05       		.byte	0x5
 13395 00f8 E002     		.uleb128 0x160
 13396 00fa FFBB0000 		.4byte	.LASF1040
 13397 00fe 05       		.byte	0x5
 13398 00ff E202     		.uleb128 0x162
 13399 0101 DFA20000 		.4byte	.LASF1041
 13400 0105 05       		.byte	0x5
 13401 0106 E302     		.uleb128 0x163
ARM GAS  /var/folders/z0/6xlwn_996xz3mwq1cgzkbq4r0000gp/T//ccBgBTlB.s 			page 256


 13402 0108 DD3D0000 		.4byte	.LASF1042
 13403 010c 05       		.byte	0x5
 13404 010d E502     		.uleb128 0x165
 13405 010f 16A20000 		.4byte	.LASF1043
 13406 0113 05       		.byte	0x5
 13407 0114 E602     		.uleb128 0x166
 13408 0116 AB520000 		.4byte	.LASF1044
 13409 011a 05       		.byte	0x5
 13410 011b E802     		.uleb128 0x168
 13411 011d 7E320000 		.4byte	.LASF1045
 13412 0121 05       		.byte	0x5
 13413 0122 E902     		.uleb128 0x169
 13414 0124 848B0000 		.4byte	.LASF1046
 13415 0128 05       		.byte	0x5
 13416 0129 EC02     		.uleb128 0x16c
 13417 012b 528E0000 		.4byte	.LASF1047
 13418 012f 05       		.byte	0x5
 13419 0130 ED02     		.uleb128 0x16d
 13420 0132 D8920000 		.4byte	.LASF1048
 13421 0136 05       		.byte	0x5
 13422 0137 EF02     		.uleb128 0x16f
 13423 0139 7FBE0000 		.4byte	.LASF1049
 13424 013d 05       		.byte	0x5
 13425 013e F002     		.uleb128 0x170
 13426 0140 F64D0000 		.4byte	.LASF1050
 13427 0144 05       		.byte	0x5
 13428 0145 F202     		.uleb128 0x172
 13429 0147 3F690000 		.4byte	.LASF1051
 13430 014b 05       		.byte	0x5
 13431 014c F302     		.uleb128 0x173
 13432 014e 54820000 		.4byte	.LASF1052
 13433 0152 05       		.byte	0x5
 13434 0153 F602     		.uleb128 0x176
 13435 0155 3A630000 		.4byte	.LASF1053
 13436 0159 05       		.byte	0x5
 13437 015a F702     		.uleb128 0x177
 13438 015c D31A0000 		.4byte	.LASF1054
 13439 0160 05       		.byte	0x5
 13440 0161 F902     		.uleb128 0x179
 13441 0163 324C0000 		.4byte	.LASF1055
 13442 0167 05       		.byte	0x5
 13443 0168 FA02     		.uleb128 0x17a
 13444 016a 01900000 		.4byte	.LASF1056
 13445 016e 05       		.byte	0x5
 13446 016f FD02     		.uleb128 0x17d
 13447 0171 859A0000 		.4byte	.LASF1057
 13448 0175 05       		.byte	0x5
 13449 0176 FE02     		.uleb128 0x17e
 13450 0178 74310000 		.4byte	.LASF1058
 13451 017c 05       		.byte	0x5
 13452 017d 9403     		.uleb128 0x194
 13453 017f 788C0000 		.4byte	.LASF1059
 13454 0183 05       		.byte	0x5
 13455 0184 9503     		.uleb128 0x195
 13456 0186 93560000 		.4byte	.LASF1060
 13457 018a 05       		.byte	0x5
 13458 018b 9703     		.uleb128 0x197
ARM GAS  /var/folders/z0/6xlwn_996xz3mwq1cgzkbq4r0000gp/T//ccBgBTlB.s 			page 257


 13459 018d 306A0000 		.4byte	.LASF1061
 13460 0191 05       		.byte	0x5
 13461 0192 9803     		.uleb128 0x198
 13462 0194 C9BC0000 		.4byte	.LASF1062
 13463 0198 05       		.byte	0x5
 13464 0199 9A03     		.uleb128 0x19a
 13465 019b 9F8D0000 		.4byte	.LASF1063
 13466 019f 05       		.byte	0x5
 13467 01a0 9B03     		.uleb128 0x19b
 13468 01a2 A0B20000 		.4byte	.LASF1064
 13469 01a6 05       		.byte	0x5
 13470 01a7 9D03     		.uleb128 0x19d
 13471 01a9 9A630000 		.4byte	.LASF1065
 13472 01ad 05       		.byte	0x5
 13473 01ae 9E03     		.uleb128 0x19e
 13474 01b0 F8650000 		.4byte	.LASF1066
 13475 01b4 05       		.byte	0x5
 13476 01b5 A103     		.uleb128 0x1a1
 13477 01b7 5B7D0000 		.4byte	.LASF1067
 13478 01bb 05       		.byte	0x5
 13479 01bc A203     		.uleb128 0x1a2
 13480 01be B8180000 		.4byte	.LASF1068
 13481 01c2 05       		.byte	0x5
 13482 01c3 A503     		.uleb128 0x1a5
 13483 01c5 3B8F0000 		.4byte	.LASF1069
 13484 01c9 05       		.byte	0x5
 13485 01ca A603     		.uleb128 0x1a6
 13486 01cc B4BE0000 		.4byte	.LASF1070
 13487 01d0 05       		.byte	0x5
 13488 01d1 A903     		.uleb128 0x1a9
 13489 01d3 60640000 		.4byte	.LASF1071
 13490 01d7 05       		.byte	0x5
 13491 01d8 AA03     		.uleb128 0x1aa
 13492 01da 297B0000 		.4byte	.LASF1072
 13493 01de 05       		.byte	0x5
 13494 01df AC03     		.uleb128 0x1ac
 13495 01e1 343A0000 		.4byte	.LASF1073
 13496 01e5 05       		.byte	0x5
 13497 01e6 AD03     		.uleb128 0x1ad
 13498 01e8 48710000 		.4byte	.LASF1074
 13499 01ec 05       		.byte	0x5
 13500 01ed AF03     		.uleb128 0x1af
 13501 01ef C95F0000 		.4byte	.LASF1075
 13502 01f3 05       		.byte	0x5
 13503 01f4 B003     		.uleb128 0x1b0
 13504 01f6 72280000 		.4byte	.LASF1076
 13505 01fa 05       		.byte	0x5
 13506 01fb C603     		.uleb128 0x1c6
 13507 01fd 36A70000 		.4byte	.LASF1077
 13508 0201 05       		.byte	0x5
 13509 0202 C703     		.uleb128 0x1c7
 13510 0204 9D820000 		.4byte	.LASF1078
 13511 0208 05       		.byte	0x5
 13512 0209 C803     		.uleb128 0x1c8
 13513 020b D93F0000 		.4byte	.LASF1079
 13514 020f 05       		.byte	0x5
 13515 0210 C903     		.uleb128 0x1c9
ARM GAS  /var/folders/z0/6xlwn_996xz3mwq1cgzkbq4r0000gp/T//ccBgBTlB.s 			page 258


 13516 0212 D6230000 		.4byte	.LASF1080
 13517 0216 05       		.byte	0x5
 13518 0217 CB03     		.uleb128 0x1cb
 13519 0219 58A90000 		.4byte	.LASF1081
 13520 021d 05       		.byte	0x5
 13521 021e CC03     		.uleb128 0x1cc
 13522 0220 1F840000 		.4byte	.LASF1082
 13523 0224 05       		.byte	0x5
 13524 0225 CD03     		.uleb128 0x1cd
 13525 0227 DB9C0000 		.4byte	.LASF1083
 13526 022b 05       		.byte	0x5
 13527 022c E903     		.uleb128 0x1e9
 13528 022e EE4A0000 		.4byte	.LASF1084
 13529 0232 05       		.byte	0x5
 13530 0233 EA03     		.uleb128 0x1ea
 13531 0235 DD640000 		.4byte	.LASF1085
 13532 0239 05       		.byte	0x5
 13533 023a EB03     		.uleb128 0x1eb
 13534 023c B09B0000 		.4byte	.LASF1086
 13535 0240 00       		.byte	0
 13536              		.section	.debug_macro,"G",%progbits,wm4.chip.h.116.857da603c399e979152c31968de4baae,comdat
 13537              	.Ldebug_macro34:
 13538 0000 0400     		.2byte	0x4
 13539 0002 00       		.byte	0
 13540 0003 05       		.byte	0x5
 13541 0004 74       		.uleb128 0x74
 13542 0005 6E390000 		.4byte	.LASF1087
 13543 0009 05       		.byte	0x5
 13544 000a 75       		.uleb128 0x75
 13545 000b 215C0000 		.4byte	.LASF1088
 13546 000f 05       		.byte	0x5
 13547 0010 76       		.uleb128 0x76
 13548 0011 20110000 		.4byte	.LASF1089
 13549 0015 05       		.byte	0x5
 13550 0016 77       		.uleb128 0x77
 13551 0017 73470000 		.4byte	.LASF1090
 13552 001b 05       		.byte	0x5
 13553 001c 78       		.uleb128 0x78
 13554 001d 65560000 		.4byte	.LASF1091
 13555 0021 05       		.byte	0x5
 13556 0022 79       		.uleb128 0x79
 13557 0023 7A1D0000 		.4byte	.LASF1092
 13558 0027 05       		.byte	0x5
 13559 0028 7A       		.uleb128 0x7a
 13560 0029 30720000 		.4byte	.LASF1093
 13561 002d 05       		.byte	0x5
 13562 002e 7B       		.uleb128 0x7b
 13563 002f 7BA70000 		.4byte	.LASF1094
 13564 0033 05       		.byte	0x5
 13565 0034 7C       		.uleb128 0x7c
 13566 0035 C77F0000 		.4byte	.LASF1095
 13567 0039 05       		.byte	0x5
 13568 003a 7D       		.uleb128 0x7d
 13569 003b 1C500000 		.4byte	.LASF1096
 13570 003f 05       		.byte	0x5
 13571 0040 7E       		.uleb128 0x7e
 13572 0041 80B80000 		.4byte	.LASF1097
ARM GAS  /var/folders/z0/6xlwn_996xz3mwq1cgzkbq4r0000gp/T//ccBgBTlB.s 			page 259


 13573 0045 05       		.byte	0x5
 13574 0046 7F       		.uleb128 0x7f
 13575 0047 8C0D0000 		.4byte	.LASF1098
 13576 004b 05       		.byte	0x5
 13577 004c 8001     		.uleb128 0x80
 13578 004e B49A0000 		.4byte	.LASF1099
 13579 0052 05       		.byte	0x5
 13580 0053 8101     		.uleb128 0x81
 13581 0055 DE650000 		.4byte	.LASF1100
 13582 0059 05       		.byte	0x5
 13583 005a 8201     		.uleb128 0x82
 13584 005c 4E240000 		.4byte	.LASF1101
 13585 0060 05       		.byte	0x5
 13586 0061 8301     		.uleb128 0x83
 13587 0063 7C5B0000 		.4byte	.LASF1102
 13588 0067 05       		.byte	0x5
 13589 0068 8401     		.uleb128 0x84
 13590 006a 74B20000 		.4byte	.LASF1103
 13591 006e 05       		.byte	0x5
 13592 006f 8501     		.uleb128 0x85
 13593 0071 D05A0000 		.4byte	.LASF1104
 13594 0075 05       		.byte	0x5
 13595 0076 9001     		.uleb128 0x90
 13596 0078 92610000 		.4byte	.LASF1105
 13597 007c 05       		.byte	0x5
 13598 007d 9101     		.uleb128 0x91
 13599 007f 68910000 		.4byte	.LASF1106
 13600 0083 05       		.byte	0x5
 13601 0084 9301     		.uleb128 0x93
 13602 0086 796C0000 		.4byte	.LASF1107
 13603 008a 05       		.byte	0x5
 13604 008b 9401     		.uleb128 0x94
 13605 008d 67880000 		.4byte	.LASF1108
 13606 0091 05       		.byte	0x5
 13607 0092 9701     		.uleb128 0x97
 13608 0094 AAA90000 		.4byte	.LASF1109
 13609 0098 05       		.byte	0x5
 13610 0099 9801     		.uleb128 0x98
 13611 009b C9710000 		.4byte	.LASF1110
 13612 009f 05       		.byte	0x5
 13613 00a0 9B01     		.uleb128 0x9b
 13614 00a2 CF300000 		.4byte	.LASF1111
 13615 00a6 05       		.byte	0x5
 13616 00a7 9E01     		.uleb128 0x9e
 13617 00a9 196E0000 		.4byte	.LASF1112
 13618 00ad 05       		.byte	0x5
 13619 00ae 9F01     		.uleb128 0x9f
 13620 00b0 C18A0000 		.4byte	.LASF1113
 13621 00b4 05       		.byte	0x5
 13622 00b5 A001     		.uleb128 0xa0
 13623 00b7 D99E0000 		.4byte	.LASF1114
 13624 00bb 05       		.byte	0x5
 13625 00bc A101     		.uleb128 0xa1
 13626 00be E8360000 		.4byte	.LASF1115
 13627 00c2 05       		.byte	0x5
 13628 00c3 A201     		.uleb128 0xa2
 13629 00c5 4D220000 		.4byte	.LASF1116
ARM GAS  /var/folders/z0/6xlwn_996xz3mwq1cgzkbq4r0000gp/T//ccBgBTlB.s 			page 260


 13630 00c9 05       		.byte	0x5
 13631 00ca A301     		.uleb128 0xa3
 13632 00cc 019B0000 		.4byte	.LASF1117
 13633 00d0 05       		.byte	0x5
 13634 00d1 A401     		.uleb128 0xa4
 13635 00d3 97500000 		.4byte	.LASF1118
 13636 00d7 05       		.byte	0x5
 13637 00d8 B101     		.uleb128 0xb1
 13638 00da 4DAA0000 		.4byte	.LASF1119
 13639 00de 05       		.byte	0x5
 13640 00df B201     		.uleb128 0xb2
 13641 00e1 9C900000 		.4byte	.LASF1120
 13642 00e5 05       		.byte	0x5
 13643 00e6 B301     		.uleb128 0xb3
 13644 00e8 E8090000 		.4byte	.LASF1121
 13645 00ec 05       		.byte	0x5
 13646 00ed B401     		.uleb128 0xb4
 13647 00ef 8C2A0000 		.4byte	.LASF1122
 13648 00f3 05       		.byte	0x5
 13649 00f4 B501     		.uleb128 0xb5
 13650 00f6 1E2A0000 		.4byte	.LASF1123
 13651 00fa 05       		.byte	0x5
 13652 00fb B701     		.uleb128 0xb7
 13653 00fd 68890000 		.4byte	.LASF1124
 13654 0101 05       		.byte	0x5
 13655 0102 B801     		.uleb128 0xb8
 13656 0104 B21E0000 		.4byte	.LASF1125
 13657 0108 05       		.byte	0x5
 13658 0109 BA01     		.uleb128 0xba
 13659 010b EF930000 		.4byte	.LASF1126
 13660 010f 05       		.byte	0x5
 13661 0110 C101     		.uleb128 0xc1
 13662 0112 32970000 		.4byte	.LASF1127
 13663 0116 05       		.byte	0x5
 13664 0117 C401     		.uleb128 0xc4
 13665 0119 C37C0000 		.4byte	.LASF1128
 13666 011d 00       		.byte	0
 13667              		.section	.debug_macro,"G",%progbits,wm4.pmu_11xx.h.33.1d6b708881441cb98d19b8bab3caa180,comdat
 13668              	.Ldebug_macro35:
 13669 0000 0400     		.2byte	0x4
 13670 0002 00       		.byte	0
 13671 0003 05       		.byte	0x5
 13672 0004 21       		.uleb128 0x21
 13673 0005 B0590000 		.4byte	.LASF1129
 13674 0009 05       		.byte	0x5
 13675 000a 4D       		.uleb128 0x4d
 13676 000b 48640000 		.4byte	.LASF1130
 13677 000f 05       		.byte	0x5
 13678 0010 53       		.uleb128 0x53
 13679 0011 9BA80000 		.4byte	.LASF1131
 13680 0015 05       		.byte	0x5
 13681 0016 55       		.uleb128 0x55
 13682 0017 A98F0000 		.4byte	.LASF1132
 13683 001b 05       		.byte	0x5
 13684 001c 56       		.uleb128 0x56
 13685 001d BD920000 		.4byte	.LASF1133
 13686 0021 00       		.byte	0
ARM GAS  /var/folders/z0/6xlwn_996xz3mwq1cgzkbq4r0000gp/T//ccBgBTlB.s 			page 261


 13687              		.section	.debug_macro,"G",%progbits,wm4.sysctl_11xx.h.33.ae61a1181e608f8409883008e291930c,comdat
 13688              	.Ldebug_macro36:
 13689 0000 0400     		.2byte	0x4
 13690 0002 00       		.byte	0
 13691 0003 05       		.byte	0x5
 13692 0004 21       		.uleb128 0x21
 13693 0005 194D0000 		.4byte	.LASF1135
 13694 0009 05       		.byte	0x5
 13695 000a BC01     		.uleb128 0xbc
 13696 000c CFAF0000 		.4byte	.LASF1136
 13697 0010 05       		.byte	0x5
 13698 0011 BD01     		.uleb128 0xbd
 13699 0013 898A0000 		.4byte	.LASF1137
 13700 0017 05       		.byte	0x5
 13701 0018 BE01     		.uleb128 0xbe
 13702 001a B8850000 		.4byte	.LASF1138
 13703 001e 05       		.byte	0x5
 13704 001f BF01     		.uleb128 0xbf
 13705 0021 B1BC0000 		.4byte	.LASF1139
 13706 0025 05       		.byte	0x5
 13707 0026 C001     		.uleb128 0xc0
 13708 0028 723B0000 		.4byte	.LASF1140
 13709 002c 05       		.byte	0x5
 13710 002d C501     		.uleb128 0xc5
 13711 002f 1E670000 		.4byte	.LASF1141
 13712 0033 05       		.byte	0x5
 13713 0034 A904     		.uleb128 0x229
 13714 0036 C0190000 		.4byte	.LASF1142
 13715 003a 05       		.byte	0x5
 13716 003b AA04     		.uleb128 0x22a
 13717 003d 48650000 		.4byte	.LASF1143
 13718 0041 05       		.byte	0x5
 13719 0042 C904     		.uleb128 0x249
 13720 0044 D9B10000 		.4byte	.LASF1144
 13721 0048 05       		.byte	0x5
 13722 0049 CA04     		.uleb128 0x24a
 13723 004b 3B150000 		.4byte	.LASF1145
 13724 004f 05       		.byte	0x5
 13725 0050 CB04     		.uleb128 0x24b
 13726 0052 BEB90000 		.4byte	.LASF1146
 13727 0056 05       		.byte	0x5
 13728 0057 CC04     		.uleb128 0x24c
 13729 0059 603E0000 		.4byte	.LASF1147
 13730 005d 05       		.byte	0x5
 13731 005e CD04     		.uleb128 0x24d
 13732 0060 CA3B0000 		.4byte	.LASF1148
 13733 0064 05       		.byte	0x5
 13734 0065 CE04     		.uleb128 0x24e
 13735 0067 6F490000 		.4byte	.LASF1149
 13736 006b 05       		.byte	0x5
 13737 006c CF04     		.uleb128 0x24f
 13738 006e D6590000 		.4byte	.LASF1150
 13739 0072 05       		.byte	0x5
 13740 0073 D004     		.uleb128 0x250
 13741 0075 9AB60000 		.4byte	.LASF1151
 13742 0079 05       		.byte	0x5
 13743 007a F104     		.uleb128 0x271
ARM GAS  /var/folders/z0/6xlwn_996xz3mwq1cgzkbq4r0000gp/T//ccBgBTlB.s 			page 262


 13744 007c 87790000 		.4byte	.LASF1152
 13745 0080 05       		.byte	0x5
 13746 0081 F204     		.uleb128 0x272
 13747 0083 625D0000 		.4byte	.LASF1153
 13748 0087 05       		.byte	0x5
 13749 0088 F304     		.uleb128 0x273
 13750 008a F5AC0000 		.4byte	.LASF1154
 13751 008e 05       		.byte	0x5
 13752 008f F504     		.uleb128 0x275
 13753 0091 9E860000 		.4byte	.LASF1155
 13754 0095 05       		.byte	0x5
 13755 0096 F704     		.uleb128 0x277
 13756 0098 3CB60000 		.4byte	.LASF1156
 13757 009c 05       		.byte	0x5
 13758 009d F804     		.uleb128 0x278
 13759 009f 86170000 		.4byte	.LASF1157
 13760 00a3 05       		.byte	0x5
 13761 00a4 F904     		.uleb128 0x279
 13762 00a6 48870000 		.4byte	.LASF1158
 13763 00aa 05       		.byte	0x5
 13764 00ab FA04     		.uleb128 0x27a
 13765 00ad 49230000 		.4byte	.LASF1159
 13766 00b1 00       		.byte	0
 13767              		.section	.debug_macro,"G",%progbits,wm4.clock_11xx.h.33.23290a9e2ed919e3a6958d25130bc848,comdat
 13768              	.Ldebug_macro37:
 13769 0000 0400     		.2byte	0x4
 13770 0002 00       		.byte	0
 13771 0003 05       		.byte	0x5
 13772 0004 21       		.uleb128 0x21
 13773 0005 AD350000 		.4byte	.LASF1160
 13774 0009 05       		.byte	0x5
 13775 000a 2D       		.uleb128 0x2d
 13776 000b 57670000 		.4byte	.LASF1161
 13777 000f 00       		.byte	0
 13778              		.section	.debug_macro,"G",%progbits,wm4.iocon_11xx.h.33.25e2b3cde122df23fb07b984cb4f3a93,comdat
 13779              	.Ldebug_macro38:
 13780 0000 0400     		.2byte	0x4
 13781 0002 00       		.byte	0
 13782 0003 05       		.byte	0x5
 13783 0004 21       		.uleb128 0x21
 13784 0005 E6740000 		.4byte	.LASF1162
 13785 0009 05       		.byte	0x5
 13786 000a A601     		.uleb128 0xa6
 13787 000c 34AC0000 		.4byte	.LASF1163
 13788 0010 05       		.byte	0x5
 13789 0011 A701     		.uleb128 0xa7
 13790 0013 32B00000 		.4byte	.LASF1164
 13791 0017 05       		.byte	0x5
 13792 0018 A801     		.uleb128 0xa8
 13793 001a 562C0000 		.4byte	.LASF1165
 13794 001e 05       		.byte	0x5
 13795 001f A901     		.uleb128 0xa9
 13796 0021 9B6A0000 		.4byte	.LASF1166
 13797 0025 05       		.byte	0x5
 13798 0026 AA01     		.uleb128 0xaa
 13799 0028 84A40000 		.4byte	.LASF1167
 13800 002c 05       		.byte	0x5
ARM GAS  /var/folders/z0/6xlwn_996xz3mwq1cgzkbq4r0000gp/T//ccBgBTlB.s 			page 263


 13801 002d AB01     		.uleb128 0xab
 13802 002f 9D1F0000 		.4byte	.LASF1168
 13803 0033 05       		.byte	0x5
 13804 0034 AC01     		.uleb128 0xac
 13805 0036 BC570000 		.4byte	.LASF1169
 13806 003a 05       		.byte	0x5
 13807 003b AD01     		.uleb128 0xad
 13808 003d F19A0000 		.4byte	.LASF1170
 13809 0041 05       		.byte	0x5
 13810 0042 AE01     		.uleb128 0xae
 13811 0044 97AF0000 		.4byte	.LASF1171
 13812 0048 05       		.byte	0x5
 13813 0049 AF01     		.uleb128 0xaf
 13814 004b 2F9F0000 		.4byte	.LASF1172
 13815 004f 05       		.byte	0x5
 13816 0050 B001     		.uleb128 0xb0
 13817 0052 29680000 		.4byte	.LASF1173
 13818 0056 05       		.byte	0x5
 13819 0057 B101     		.uleb128 0xb1
 13820 0059 47250000 		.4byte	.LASF1174
 13821 005d 05       		.byte	0x5
 13822 005e B201     		.uleb128 0xb2
 13823 0060 4EA80000 		.4byte	.LASF1175
 13824 0064 05       		.byte	0x5
 13825 0065 B301     		.uleb128 0xb3
 13826 0067 05630000 		.4byte	.LASF1176
 13827 006b 05       		.byte	0x5
 13828 006c B401     		.uleb128 0xb4
 13829 006e E1A80000 		.4byte	.LASF1177
 13830 0072 05       		.byte	0x5
 13831 0073 B501     		.uleb128 0xb5
 13832 0075 FE1E0000 		.4byte	.LASF1178
 13833 0079 05       		.byte	0x5
 13834 007a B601     		.uleb128 0xb6
 13835 007c B6760000 		.4byte	.LASF1179
 13836 0080 05       		.byte	0x5
 13837 0081 B701     		.uleb128 0xb7
 13838 0083 C58B0000 		.4byte	.LASF1180
 13839 0087 05       		.byte	0x5
 13840 0088 B801     		.uleb128 0xb8
 13841 008a 07830000 		.4byte	.LASF1181
 13842 008e 05       		.byte	0x5
 13843 008f B901     		.uleb128 0xb9
 13844 0091 11580000 		.4byte	.LASF1182
 13845 0095 05       		.byte	0x5
 13846 0096 BA01     		.uleb128 0xba
 13847 0098 A3530000 		.4byte	.LASF1183
 13848 009c 05       		.byte	0x5
 13849 009d C001     		.uleb128 0xc0
 13850 009f 79780000 		.4byte	.LASF1184
 13851 00a3 05       		.byte	0x5
 13852 00a4 C101     		.uleb128 0xc1
 13853 00a6 65380000 		.4byte	.LASF1185
 13854 00aa 05       		.byte	0x5
 13855 00ab C201     		.uleb128 0xc2
 13856 00ad 4EBD0000 		.4byte	.LASF1186
 13857 00b1 05       		.byte	0x5
ARM GAS  /var/folders/z0/6xlwn_996xz3mwq1cgzkbq4r0000gp/T//ccBgBTlB.s 			page 264


 13858 00b2 C301     		.uleb128 0xc3
 13859 00b4 42B00000 		.4byte	.LASF1187
 13860 00b8 05       		.byte	0x5
 13861 00b9 C401     		.uleb128 0xc4
 13862 00bb 79980000 		.4byte	.LASF1188
 13863 00bf 05       		.byte	0x5
 13864 00c0 C501     		.uleb128 0xc5
 13865 00c2 27010000 		.4byte	.LASF1189
 13866 00c6 05       		.byte	0x5
 13867 00c7 C601     		.uleb128 0xc6
 13868 00c9 39360000 		.4byte	.LASF1190
 13869 00cd 05       		.byte	0x5
 13870 00ce C701     		.uleb128 0xc7
 13871 00d0 1A9D0000 		.4byte	.LASF1191
 13872 00d4 05       		.byte	0x5
 13873 00d5 C801     		.uleb128 0xc8
 13874 00d7 C1220000 		.4byte	.LASF1192
 13875 00db 05       		.byte	0x5
 13876 00dc C901     		.uleb128 0xc9
 13877 00de FAB20000 		.4byte	.LASF1193
 13878 00e2 05       		.byte	0x5
 13879 00e3 CA01     		.uleb128 0xca
 13880 00e5 FC6F0000 		.4byte	.LASF1194
 13881 00e9 05       		.byte	0x5
 13882 00ea CB01     		.uleb128 0xcb
 13883 00ec 2D080000 		.4byte	.LASF1195
 13884 00f0 05       		.byte	0x5
 13885 00f1 CC01     		.uleb128 0xcc
 13886 00f3 93B30000 		.4byte	.LASF1196
 13887 00f7 05       		.byte	0x5
 13888 00f8 CD01     		.uleb128 0xcd
 13889 00fa B3040000 		.4byte	.LASF1197
 13890 00fe 05       		.byte	0x5
 13891 00ff CE01     		.uleb128 0xce
 13892 0101 34120000 		.4byte	.LASF1198
 13893 0105 05       		.byte	0x5
 13894 0106 CF01     		.uleb128 0xcf
 13895 0108 41BC0000 		.4byte	.LASF1199
 13896 010c 05       		.byte	0x5
 13897 010d D001     		.uleb128 0xd0
 13898 010f E4380000 		.4byte	.LASF1200
 13899 0113 05       		.byte	0x5
 13900 0114 D101     		.uleb128 0xd1
 13901 0116 B7250000 		.4byte	.LASF1201
 13902 011a 05       		.byte	0x5
 13903 011b D201     		.uleb128 0xd2
 13904 011d 1CB10000 		.4byte	.LASF1202
 13905 0121 05       		.byte	0x5
 13906 0122 D301     		.uleb128 0xd3
 13907 0124 002E0000 		.4byte	.LASF1203
 13908 0128 05       		.byte	0x5
 13909 0129 D401     		.uleb128 0xd4
 13910 012b 876B0000 		.4byte	.LASF1204
 13911 012f 05       		.byte	0x5
 13912 0130 D501     		.uleb128 0xd5
 13913 0132 7CA60000 		.4byte	.LASF1205
 13914 0136 00       		.byte	0
ARM GAS  /var/folders/z0/6xlwn_996xz3mwq1cgzkbq4r0000gp/T//ccBgBTlB.s 			page 265


 13915              		.section	.debug_macro,"G",%progbits,wm4.timer_11xx.h.33.c92f50a9325789ee6a8ffd6248980d70,comdat
 13916              	.Ldebug_macro39:
 13917 0000 0400     		.2byte	0x4
 13918 0002 00       		.byte	0
 13919 0003 05       		.byte	0x5
 13920 0004 21       		.uleb128 0x21
 13921 0005 E99F0000 		.4byte	.LASF1206
 13922 0009 05       		.byte	0x5
 13923 000a 40       		.uleb128 0x40
 13924 000b DAB40000 		.4byte	.LASF1207
 13925 000f 05       		.byte	0x5
 13926 0010 43       		.uleb128 0x43
 13927 0011 67070000 		.4byte	.LASF1208
 13928 0015 05       		.byte	0x5
 13929 0016 45       		.uleb128 0x45
 13930 0017 7EAC0000 		.4byte	.LASF1209
 13931 001b 05       		.byte	0x5
 13932 001c 48       		.uleb128 0x48
 13933 001d A67A0000 		.4byte	.LASF1210
 13934 0021 05       		.byte	0x5
 13935 0022 4A       		.uleb128 0x4a
 13936 0023 639A0000 		.4byte	.LASF1211
 13937 0027 05       		.byte	0x5
 13938 0028 4D       		.uleb128 0x4d
 13939 0029 6C0A0000 		.4byte	.LASF1212
 13940 002d 05       		.byte	0x5
 13941 002e 4F       		.uleb128 0x4f
 13942 002f BD130000 		.4byte	.LASF1213
 13943 0033 05       		.byte	0x5
 13944 0034 51       		.uleb128 0x51
 13945 0035 2B7A0000 		.4byte	.LASF1214
 13946 0039 05       		.byte	0x5
 13947 003a 54       		.uleb128 0x54
 13948 003b 24410000 		.4byte	.LASF1215
 13949 003f 05       		.byte	0x5
 13950 0040 56       		.uleb128 0x56
 13951 0041 4CA30000 		.4byte	.LASF1216
 13952 0045 05       		.byte	0x5
 13953 0046 58       		.uleb128 0x58
 13954 0047 D90E0000 		.4byte	.LASF1217
 13955 004b 00       		.byte	0
 13956              		.section	.debug_macro,"G",%progbits,wm4.ring_buffer.h.33.2f271415f1f27d60350fb4738c5cbee6,comdat
 13957              	.Ldebug_macro40:
 13958 0000 0400     		.2byte	0x4
 13959 0002 00       		.byte	0
 13960 0003 05       		.byte	0x5
 13961 0004 21       		.uleb128 0x21
 13962 0005 E5250000 		.4byte	.LASF1219
 13963 0009 05       		.byte	0x5
 13964 000a 3A       		.uleb128 0x3a
 13965 000b 06600000 		.4byte	.LASF1220
 13966 000f 05       		.byte	0x5
 13967 0010 41       		.uleb128 0x41
 13968 0011 FE900000 		.4byte	.LASF1221
 13969 0015 00       		.byte	0
 13970              		.section	.debug_macro,"G",%progbits,wm4.uart_11xx.h.98.fe68b709973730a4fba3f3ce60c5c312,comdat
 13971              	.Ldebug_macro41:
ARM GAS  /var/folders/z0/6xlwn_996xz3mwq1cgzkbq4r0000gp/T//ccBgBTlB.s 			page 266


 13972 0000 0400     		.2byte	0x4
 13973 0002 00       		.byte	0
 13974 0003 05       		.byte	0x5
 13975 0004 62       		.uleb128 0x62
 13976 0005 A13C0000 		.4byte	.LASF1222
 13977 0009 05       		.byte	0x5
 13978 000a 67       		.uleb128 0x67
 13979 000b AA9F0000 		.4byte	.LASF1223
 13980 000f 05       		.byte	0x5
 13981 0010 68       		.uleb128 0x68
 13982 0011 C53D0000 		.4byte	.LASF1224
 13983 0015 05       		.byte	0x5
 13984 0016 6D       		.uleb128 0x6d
 13985 0017 DB870000 		.4byte	.LASF1225
 13986 001b 05       		.byte	0x5
 13987 001c 6E       		.uleb128 0x6e
 13988 001d E60D0000 		.4byte	.LASF1226
 13989 0021 05       		.byte	0x5
 13990 0022 73       		.uleb128 0x73
 13991 0023 86390000 		.4byte	.LASF1227
 13992 0027 05       		.byte	0x5
 13993 0028 74       		.uleb128 0x74
 13994 0029 44810000 		.4byte	.LASF1228
 13995 002d 05       		.byte	0x5
 13996 002e 75       		.uleb128 0x75
 13997 002f 0F5D0000 		.4byte	.LASF1229
 13998 0033 05       		.byte	0x5
 13999 0034 76       		.uleb128 0x76
 14000 0035 9B040000 		.4byte	.LASF1230
 14001 0039 05       		.byte	0x5
 14002 003a 77       		.uleb128 0x77
 14003 003b D4570000 		.4byte	.LASF1231
 14004 003f 05       		.byte	0x5
 14005 0040 78       		.uleb128 0x78
 14006 0041 4E3A0000 		.4byte	.LASF1232
 14007 0045 05       		.byte	0x5
 14008 0046 79       		.uleb128 0x79
 14009 0047 5D5C0000 		.4byte	.LASF1233
 14010 004b 05       		.byte	0x5
 14011 004c 7A       		.uleb128 0x7a
 14012 004d 89480000 		.4byte	.LASF1234
 14013 0051 05       		.byte	0x5
 14014 0052 7B       		.uleb128 0x7b
 14015 0053 B95B0000 		.4byte	.LASF1235
 14016 0057 05       		.byte	0x5
 14017 0058 7C       		.uleb128 0x7c
 14018 0059 01570000 		.4byte	.LASF1236
 14019 005d 05       		.byte	0x5
 14020 005e 8101     		.uleb128 0x81
 14021 0060 B8480000 		.4byte	.LASF1237
 14022 0064 05       		.byte	0x5
 14023 0065 8201     		.uleb128 0x82
 14024 0067 15B60000 		.4byte	.LASF1238
 14025 006b 05       		.byte	0x5
 14026 006c 8301     		.uleb128 0x83
 14027 006e 25140000 		.4byte	.LASF1239
 14028 0072 05       		.byte	0x5
ARM GAS  /var/folders/z0/6xlwn_996xz3mwq1cgzkbq4r0000gp/T//ccBgBTlB.s 			page 267


 14029 0073 8401     		.uleb128 0x84
 14030 0075 CA2B0000 		.4byte	.LASF1240
 14031 0079 05       		.byte	0x5
 14032 007a 8501     		.uleb128 0x85
 14033 007c 90260000 		.4byte	.LASF1241
 14034 0080 05       		.byte	0x5
 14035 0081 8801     		.uleb128 0x88
 14036 0083 3C6D0000 		.4byte	.LASF1242
 14037 0087 05       		.byte	0x5
 14038 0088 8901     		.uleb128 0x89
 14039 008a 89410000 		.4byte	.LASF1243
 14040 008e 05       		.byte	0x5
 14041 008f 8A01     		.uleb128 0x8a
 14042 0091 B3AF0000 		.4byte	.LASF1244
 14043 0095 05       		.byte	0x5
 14044 0096 8B01     		.uleb128 0x8b
 14045 0098 E0820000 		.4byte	.LASF1245
 14046 009c 05       		.byte	0x5
 14047 009d 8C01     		.uleb128 0x8c
 14048 009f 90930000 		.4byte	.LASF1246
 14049 00a3 05       		.byte	0x5
 14050 00a4 8D01     		.uleb128 0x8d
 14051 00a6 227F0000 		.4byte	.LASF1247
 14052 00aa 05       		.byte	0x5
 14053 00ab 9201     		.uleb128 0x92
 14054 00ad 3D9A0000 		.4byte	.LASF1248
 14055 00b1 05       		.byte	0x5
 14056 00b2 9301     		.uleb128 0x93
 14057 00b4 BA1D0000 		.4byte	.LASF1249
 14058 00b8 05       		.byte	0x5
 14059 00b9 9401     		.uleb128 0x94
 14060 00bb D0850000 		.4byte	.LASF1250
 14061 00bf 05       		.byte	0x5
 14062 00c0 9501     		.uleb128 0x95
 14063 00c2 C33E0000 		.4byte	.LASF1251
 14064 00c6 05       		.byte	0x5
 14065 00c7 9601     		.uleb128 0x96
 14066 00c9 EA910000 		.4byte	.LASF1252
 14067 00cd 05       		.byte	0x5
 14068 00ce 9801     		.uleb128 0x98
 14069 00d0 40300000 		.4byte	.LASF1253
 14070 00d4 05       		.byte	0x5
 14071 00d5 9B01     		.uleb128 0x9b
 14072 00d7 434B0000 		.4byte	.LASF1254
 14073 00db 05       		.byte	0x5
 14074 00dc 9C01     		.uleb128 0x9c
 14075 00de 49500000 		.4byte	.LASF1255
 14076 00e2 05       		.byte	0x5
 14077 00e3 9D01     		.uleb128 0x9d
 14078 00e5 2A9C0000 		.4byte	.LASF1256
 14079 00e9 05       		.byte	0x5
 14080 00ea 9E01     		.uleb128 0x9e
 14081 00ec 4F260000 		.4byte	.LASF1257
 14082 00f0 05       		.byte	0x5
 14083 00f1 A401     		.uleb128 0xa4
 14084 00f3 4BB80000 		.4byte	.LASF1258
 14085 00f7 05       		.byte	0x5
ARM GAS  /var/folders/z0/6xlwn_996xz3mwq1cgzkbq4r0000gp/T//ccBgBTlB.s 			page 268


 14086 00f8 A501     		.uleb128 0xa5
 14087 00fa 70AD0000 		.4byte	.LASF1259
 14088 00fe 05       		.byte	0x5
 14089 00ff A601     		.uleb128 0xa6
 14090 0101 D66B0000 		.4byte	.LASF1260
 14091 0105 05       		.byte	0x5
 14092 0106 A701     		.uleb128 0xa7
 14093 0108 D9860000 		.4byte	.LASF1261
 14094 010c 05       		.byte	0x5
 14095 010d A801     		.uleb128 0xa8
 14096 010f C80F0000 		.4byte	.LASF1262
 14097 0113 05       		.byte	0x5
 14098 0114 AB01     		.uleb128 0xab
 14099 0116 475E0000 		.4byte	.LASF1263
 14100 011a 05       		.byte	0x5
 14101 011b AC01     		.uleb128 0xac
 14102 011d 420B0000 		.4byte	.LASF1264
 14103 0121 05       		.byte	0x5
 14104 0122 AD01     		.uleb128 0xad
 14105 0124 740B0000 		.4byte	.LASF1265
 14106 0128 05       		.byte	0x5
 14107 0129 B001     		.uleb128 0xb0
 14108 012b FA340000 		.4byte	.LASF1266
 14109 012f 05       		.byte	0x5
 14110 0130 B101     		.uleb128 0xb1
 14111 0132 08270000 		.4byte	.LASF1267
 14112 0136 05       		.byte	0x5
 14113 0137 B201     		.uleb128 0xb2
 14114 0139 4CB70000 		.4byte	.LASF1268
 14115 013d 05       		.byte	0x5
 14116 013e B301     		.uleb128 0xb3
 14117 0140 57950000 		.4byte	.LASF1269
 14118 0144 05       		.byte	0x5
 14119 0145 B401     		.uleb128 0xb4
 14120 0147 E41D0000 		.4byte	.LASF1270
 14121 014b 05       		.byte	0x5
 14122 014c B501     		.uleb128 0xb5
 14123 014e FB240000 		.4byte	.LASF1271
 14124 0152 05       		.byte	0x5
 14125 0153 B601     		.uleb128 0xb6
 14126 0155 E4BB0000 		.4byte	.LASF1272
 14127 0159 05       		.byte	0x5
 14128 015a B701     		.uleb128 0xb7
 14129 015c C6510000 		.4byte	.LASF1273
 14130 0160 05       		.byte	0x5
 14131 0161 B801     		.uleb128 0xb8
 14132 0163 34530000 		.4byte	.LASF1274
 14133 0167 05       		.byte	0x5
 14134 0168 BD01     		.uleb128 0xbd
 14135 016a 5E120000 		.4byte	.LASF1275
 14136 016e 05       		.byte	0x5
 14137 016f BE01     		.uleb128 0xbe
 14138 0171 41610000 		.4byte	.LASF1276
 14139 0175 05       		.byte	0x5
 14140 0176 BF01     		.uleb128 0xbf
 14141 0178 FDAA0000 		.4byte	.LASF1277
 14142 017c 05       		.byte	0x5
ARM GAS  /var/folders/z0/6xlwn_996xz3mwq1cgzkbq4r0000gp/T//ccBgBTlB.s 			page 269


 14143 017d C001     		.uleb128 0xc0
 14144 017f DB750000 		.4byte	.LASF1278
 14145 0183 05       		.byte	0x5
 14146 0184 C101     		.uleb128 0xc1
 14147 0186 DA5B0000 		.4byte	.LASF1279
 14148 018a 05       		.byte	0x5
 14149 018b C201     		.uleb128 0xc2
 14150 018d 6D230000 		.4byte	.LASF1280
 14151 0191 05       		.byte	0x5
 14152 0192 C701     		.uleb128 0xc7
 14153 0194 96470000 		.4byte	.LASF1281
 14154 0198 05       		.byte	0x5
 14155 0199 C801     		.uleb128 0xc8
 14156 019b 45730000 		.4byte	.LASF1282
 14157 019f 05       		.byte	0x5
 14158 01a0 C901     		.uleb128 0xc9
 14159 01a2 87090000 		.4byte	.LASF1283
 14160 01a6 05       		.byte	0x5
 14161 01a7 CA01     		.uleb128 0xca
 14162 01a9 2E880000 		.4byte	.LASF1284
 14163 01ad 05       		.byte	0x5
 14164 01ae CB01     		.uleb128 0xcb
 14165 01b0 9E700000 		.4byte	.LASF1285
 14166 01b4 05       		.byte	0x5
 14167 01b5 CC01     		.uleb128 0xcc
 14168 01b7 4A410000 		.4byte	.LASF1286
 14169 01bb 05       		.byte	0x5
 14170 01bc CD01     		.uleb128 0xcd
 14171 01be 73330000 		.4byte	.LASF1287
 14172 01c2 05       		.byte	0x5
 14173 01c3 CE01     		.uleb128 0xce
 14174 01c5 7A020000 		.4byte	.LASF1288
 14175 01c9 05       		.byte	0x5
 14176 01ca CF01     		.uleb128 0xcf
 14177 01cc D3A90000 		.4byte	.LASF1289
 14178 01d0 05       		.byte	0x5
 14179 01d1 D001     		.uleb128 0xd0
 14180 01d3 4E940000 		.4byte	.LASF1290
 14181 01d7 05       		.byte	0x5
 14182 01d8 D101     		.uleb128 0xd1
 14183 01da BC840000 		.4byte	.LASF1291
 14184 01de 05       		.byte	0x5
 14185 01df D601     		.uleb128 0xd6
 14186 01e1 9E7E0000 		.4byte	.LASF1292
 14187 01e5 05       		.byte	0x5
 14188 01e6 D701     		.uleb128 0xd7
 14189 01e8 F36E0000 		.4byte	.LASF1293
 14190 01ec 05       		.byte	0x5
 14191 01ed D801     		.uleb128 0xd8
 14192 01ef B8AC0000 		.4byte	.LASF1294
 14193 01f3 05       		.byte	0x5
 14194 01f4 D901     		.uleb128 0xd9
 14195 01f6 A8320000 		.4byte	.LASF1295
 14196 01fa 05       		.byte	0x5
 14197 01fb DA01     		.uleb128 0xda
 14198 01fd 3F750000 		.4byte	.LASF1296
 14199 0201 05       		.byte	0x5
ARM GAS  /var/folders/z0/6xlwn_996xz3mwq1cgzkbq4r0000gp/T//ccBgBTlB.s 			page 270


 14200 0202 DB01     		.uleb128 0xdb
 14201 0204 E91B0000 		.4byte	.LASF1297
 14202 0208 05       		.byte	0x5
 14203 0209 DC01     		.uleb128 0xdc
 14204 020b 60BD0000 		.4byte	.LASF1298
 14205 020f 05       		.byte	0x5
 14206 0210 DD01     		.uleb128 0xdd
 14207 0212 4D5B0000 		.4byte	.LASF1299
 14208 0216 05       		.byte	0x5
 14209 0217 DE01     		.uleb128 0xde
 14210 0219 CC040000 		.4byte	.LASF1300
 14211 021d 05       		.byte	0x5
 14212 021e E301     		.uleb128 0xe3
 14213 0220 EA690000 		.4byte	.LASF1301
 14214 0224 05       		.byte	0x5
 14215 0225 E401     		.uleb128 0xe4
 14216 0227 EF5F0000 		.4byte	.LASF1302
 14217 022b 05       		.byte	0x5
 14218 022c E501     		.uleb128 0xe5
 14219 022e FB9C0000 		.4byte	.LASF1303
 14220 0232 05       		.byte	0x5
 14221 0233 E601     		.uleb128 0xe6
 14222 0235 290A0000 		.4byte	.LASF1304
 14223 0239 05       		.byte	0x5
 14224 023a E701     		.uleb128 0xe7
 14225 023c 0D6C0000 		.4byte	.LASF1305
 14226 0240 05       		.byte	0x5
 14227 0241 E801     		.uleb128 0xe8
 14228 0243 80220000 		.4byte	.LASF1306
 14229 0247 05       		.byte	0x5
 14230 0248 ED01     		.uleb128 0xed
 14231 024a 88080000 		.4byte	.LASF1307
 14232 024e 05       		.byte	0x5
 14233 024f EE01     		.uleb128 0xee
 14234 0251 497C0000 		.4byte	.LASF1308
 14235 0255 05       		.byte	0x5
 14236 0256 EF01     		.uleb128 0xef
 14237 0258 60150000 		.4byte	.LASF1309
 14238 025c 05       		.byte	0x5
 14239 025d F001     		.uleb128 0xf0
 14240 025f DE8D0000 		.4byte	.LASF1310
 14241 0263 05       		.byte	0x5
 14242 0264 F201     		.uleb128 0xf2
 14243 0266 D4170000 		.4byte	.LASF1311
 14244 026a 05       		.byte	0x5
 14245 026b F301     		.uleb128 0xf3
 14246 026d 6E690000 		.4byte	.LASF1312
 14247 0271 05       		.byte	0x5
 14248 0272 F601     		.uleb128 0xf6
 14249 0274 DC950000 		.4byte	.LASF1313
 14250 0278 05       		.byte	0x5
 14251 0279 FB01     		.uleb128 0xfb
 14252 027b 45BA0000 		.4byte	.LASF1314
 14253 027f 05       		.byte	0x5
 14254 0280 FC01     		.uleb128 0xfc
 14255 0282 2A130000 		.4byte	.LASF1315
 14256 0286 05       		.byte	0x5
ARM GAS  /var/folders/z0/6xlwn_996xz3mwq1cgzkbq4r0000gp/T//ccBgBTlB.s 			page 271


 14257 0287 FD01     		.uleb128 0xfd
 14258 0289 C0610000 		.4byte	.LASF1316
 14259 028d 05       		.byte	0x5
 14260 028e FE01     		.uleb128 0xfe
 14261 0290 531D0000 		.4byte	.LASF1317
 14262 0294 05       		.byte	0x5
 14263 0295 FF01     		.uleb128 0xff
 14264 0297 8CB00000 		.4byte	.LASF1318
 14265 029b 05       		.byte	0x5
 14266 029c 8402     		.uleb128 0x104
 14267 029e FB9B0000 		.4byte	.LASF1319
 14268 02a2 05       		.byte	0x5
 14269 02a3 8902     		.uleb128 0x109
 14270 02a5 561A0000 		.4byte	.LASF1320
 14271 02a9 05       		.byte	0x5
 14272 02aa 8A02     		.uleb128 0x10a
 14273 02ac A0B90000 		.4byte	.LASF1321
 14274 02b0 05       		.byte	0x5
 14275 02b1 8B02     		.uleb128 0x10b
 14276 02b3 4F8B0000 		.4byte	.LASF1322
 14277 02b7 05       		.byte	0x5
 14278 02b8 8C02     		.uleb128 0x10c
 14279 02ba 52040000 		.4byte	.LASF1323
 14280 02be 05       		.byte	0x5
 14281 02bf 8D02     		.uleb128 0x10d
 14282 02c1 98330000 		.4byte	.LASF1324
 14283 02c5 05       		.byte	0x5
 14284 02c6 9202     		.uleb128 0x112
 14285 02c8 9EAA0000 		.4byte	.LASF1325
 14286 02cc 05       		.byte	0x5
 14287 02cd 9302     		.uleb128 0x113
 14288 02cf F07A0000 		.4byte	.LASF1326
 14289 02d3 05       		.byte	0x5
 14290 02d4 9402     		.uleb128 0x114
 14291 02d6 2F040000 		.4byte	.LASF1327
 14292 02da 05       		.byte	0x5
 14293 02db 9902     		.uleb128 0x119
 14294 02dd F5170000 		.4byte	.LASF1328
 14295 02e1 05       		.byte	0x5
 14296 02e2 9A02     		.uleb128 0x11a
 14297 02e4 BDA20000 		.4byte	.LASF1329
 14298 02e8 05       		.byte	0x5
 14299 02e9 9F02     		.uleb128 0x11f
 14300 02eb E7270000 		.4byte	.LASF1330
 14301 02ef 05       		.byte	0x5
 14302 02f0 A002     		.uleb128 0x120
 14303 02f2 0FB00000 		.4byte	.LASF1331
 14304 02f6 05       		.byte	0x5
 14305 02f7 A102     		.uleb128 0x121
 14306 02f9 208F0000 		.4byte	.LASF1332
 14307 02fd 05       		.byte	0x5
 14308 02fe A202     		.uleb128 0x122
 14309 0300 3E120000 		.4byte	.LASF1333
 14310 0304 05       		.byte	0x5
 14311 0305 A302     		.uleb128 0x123
 14312 0307 E6540000 		.4byte	.LASF1334
 14313 030b 05       		.byte	0x5
ARM GAS  /var/folders/z0/6xlwn_996xz3mwq1cgzkbq4r0000gp/T//ccBgBTlB.s 			page 272


 14314 030c A402     		.uleb128 0x124
 14315 030e EB810000 		.4byte	.LASF1335
 14316 0312 05       		.byte	0x5
 14317 0313 A502     		.uleb128 0x125
 14318 0315 CDA60000 		.4byte	.LASF1336
 14319 0319 00       		.byte	0
 14320              		.section	.debug_macro,"G",%progbits,wm4.wwdt_11xx.h.33.5768344983cb842df69cc91ea86cabb0,comdat
 14321              	.Ldebug_macro42:
 14322 0000 0400     		.2byte	0x4
 14323 0002 00       		.byte	0
 14324 0003 05       		.byte	0x5
 14325 0004 21       		.uleb128 0x21
 14326 0005 13340000 		.4byte	.LASF1337
 14327 0009 05       		.byte	0x5
 14328 000a 4B       		.uleb128 0x4b
 14329 000b 9F2F0000 		.4byte	.LASF1338
 14330 000f 05       		.byte	0x5
 14331 0010 4D       		.uleb128 0x4d
 14332 0011 C4680000 		.4byte	.LASF1339
 14333 0015 05       		.byte	0x5
 14334 0016 4F       		.uleb128 0x4f
 14335 0017 13A10000 		.4byte	.LASF1340
 14336 001b 05       		.byte	0x5
 14337 001c 51       		.uleb128 0x51
 14338 001d 26850000 		.4byte	.LASF1341
 14339 0021 05       		.byte	0x5
 14340 0022 53       		.uleb128 0x53
 14341 0023 66520000 		.4byte	.LASF1342
 14342 0027 05       		.byte	0x5
 14343 0028 55       		.uleb128 0x55
 14344 0029 6D700000 		.4byte	.LASF1343
 14345 002d 00       		.byte	0
 14346              		.section	.debug_macro,"G",%progbits,wm4.ssp_11xx.h.33.af054d3d65f4cb0c078be40bb872ec37,comdat
 14347              	.Ldebug_macro43:
 14348 0000 0400     		.2byte	0x4
 14349 0002 00       		.byte	0
 14350 0003 05       		.byte	0x5
 14351 0004 21       		.uleb128 0x21
 14352 0005 AE4F0000 		.4byte	.LASF1344
 14353 0009 05       		.byte	0x5
 14354 000a 40       		.uleb128 0x40
 14355 000b 7C270000 		.4byte	.LASF1345
 14356 000f 05       		.byte	0x5
 14357 0010 42       		.uleb128 0x42
 14358 0011 D2390000 		.4byte	.LASF1346
 14359 0015 05       		.byte	0x5
 14360 0016 44       		.uleb128 0x44
 14361 0017 6C870000 		.4byte	.LASF1347
 14362 001b 05       		.byte	0x5
 14363 001c 46       		.uleb128 0x46
 14364 001d A9B30000 		.4byte	.LASF1348
 14365 0021 05       		.byte	0x5
 14366 0022 49       		.uleb128 0x49
 14367 0023 432B0000 		.4byte	.LASF1349
 14368 0027 05       		.byte	0x5
 14369 0028 4A       		.uleb128 0x4a
 14370 0029 1FBA0000 		.4byte	.LASF1350
ARM GAS  /var/folders/z0/6xlwn_996xz3mwq1cgzkbq4r0000gp/T//ccBgBTlB.s 			page 273


 14371 002d 05       		.byte	0x5
 14372 002e 4D       		.uleb128 0x4d
 14373 002f D6840000 		.4byte	.LASF1351
 14374 0033 05       		.byte	0x5
 14375 0034 4E       		.uleb128 0x4e
 14376 0035 D17B0000 		.4byte	.LASF1352
 14377 0039 05       		.byte	0x5
 14378 003a 51       		.uleb128 0x51
 14379 003b 4A2D0000 		.4byte	.LASF1353
 14380 003f 05       		.byte	0x5
 14381 0040 53       		.uleb128 0x53
 14382 0041 BBA80000 		.4byte	.LASF1354
 14383 0045 05       		.byte	0x5
 14384 0046 55       		.uleb128 0x55
 14385 0047 BBA80000 		.4byte	.LASF1354
 14386 004b 05       		.byte	0x5
 14387 004c 58       		.uleb128 0x58
 14388 004d 4A2D0000 		.4byte	.LASF1353
 14389 0051 05       		.byte	0x5
 14390 0052 5F       		.uleb128 0x5f
 14391 0053 142E0000 		.4byte	.LASF1355
 14392 0057 05       		.byte	0x5
 14393 0058 61       		.uleb128 0x61
 14394 0059 DD530000 		.4byte	.LASF1356
 14395 005d 05       		.byte	0x5
 14396 005e 63       		.uleb128 0x63
 14397 005f 633C0000 		.4byte	.LASF1357
 14398 0063 05       		.byte	0x5
 14399 0064 64       		.uleb128 0x64
 14400 0065 30930000 		.4byte	.LASF1358
 14401 0069 05       		.byte	0x5
 14402 006a 67       		.uleb128 0x67
 14403 006b 3E270000 		.4byte	.LASF1359
 14404 006f 05       		.byte	0x5
 14405 0070 69       		.uleb128 0x69
 14406 0071 421B0000 		.4byte	.LASF1360
 14407 0075 05       		.byte	0x5
 14408 0076 6C       		.uleb128 0x6c
 14409 0077 B6870000 		.4byte	.LASF1361
 14410 007b 05       		.byte	0x5
 14411 007c 72       		.uleb128 0x72
 14412 007d 87110000 		.4byte	.LASF1362
 14413 0081 05       		.byte	0x5
 14414 0082 79       		.uleb128 0x79
 14415 0083 47020000 		.4byte	.LASF1363
 14416 0087 05       		.byte	0x5
 14417 0088 7C       		.uleb128 0x7c
 14418 0089 ED570000 		.4byte	.LASF1364
 14419 008d 05       		.byte	0x5
 14420 008e C503     		.uleb128 0x1c5
 14421 0090 1CAF0000 		.4byte	.LASF1365
 14422 0094 05       		.byte	0x5
 14423 0095 C603     		.uleb128 0x1c6
 14424 0097 E91F0000 		.4byte	.LASF1366
 14425 009b 05       		.byte	0x5
 14426 009c CF03     		.uleb128 0x1cf
 14427 009e E1960000 		.4byte	.LASF1367
ARM GAS  /var/folders/z0/6xlwn_996xz3mwq1cgzkbq4r0000gp/T//ccBgBTlB.s 			page 274


 14428 00a2 05       		.byte	0x5
 14429 00a3 D003     		.uleb128 0x1d0
 14430 00a5 384A0000 		.4byte	.LASF1368
 14431 00a9 05       		.byte	0x5
 14432 00aa D303     		.uleb128 0x1d3
 14433 00ac 916B0000 		.4byte	.LASF1369
 14434 00b0 05       		.byte	0x5
 14435 00b1 D403     		.uleb128 0x1d4
 14436 00b3 F7250000 		.4byte	.LASF1370
 14437 00b7 00       		.byte	0
 14438              		.section	.debug_macro,"G",%progbits,wm4.error.h.38.ae74fe1dd9d19c80c505f1fda144fce8,comdat
 14439              	.Ldebug_macro44:
 14440 0000 0400     		.2byte	0x4
 14441 0002 00       		.byte	0
 14442 0003 05       		.byte	0x5
 14443 0004 26       		.uleb128 0x26
 14444 0005 2A460000 		.4byte	.LASF1372
 14445 0009 05       		.byte	0x5
 14446 000a 8401     		.uleb128 0x84
 14447 000c 27B40000 		.4byte	.LASF1373
 14448 0010 00       		.byte	0
 14449              		.section	.debug_macro,"G",%progbits,wm4.adc_11xx.h.33.6ce7433ac6b30df70a6993d01dbd513f,comdat
 14450              	.Ldebug_macro45:
 14451 0000 0400     		.2byte	0x4
 14452 0002 00       		.byte	0
 14453 0003 05       		.byte	0x5
 14454 0004 21       		.uleb128 0x21
 14455 0005 B1610000 		.4byte	.LASF1374
 14456 0009 05       		.byte	0x5
 14457 000a 2F       		.uleb128 0x2f
 14458 000b AF3B0000 		.4byte	.LASF1375
 14459 000f 05       		.byte	0x5
 14460 0010 40       		.uleb128 0x40
 14461 0011 87910000 		.4byte	.LASF1376
 14462 0015 05       		.byte	0x5
 14463 0016 41       		.uleb128 0x41
 14464 0017 9B360000 		.4byte	.LASF1377
 14465 001b 05       		.byte	0x5
 14466 001c 43       		.uleb128 0x43
 14467 001d 84650000 		.4byte	.LASF1378
 14468 0021 05       		.byte	0x5
 14469 0022 44       		.uleb128 0x44
 14470 0023 D4800000 		.4byte	.LASF1379
 14471 0027 05       		.byte	0x5
 14472 0028 45       		.uleb128 0x45
 14473 0029 3D160000 		.4byte	.LASF1380
 14474 002d 05       		.byte	0x5
 14475 002e 46       		.uleb128 0x46
 14476 002f 4C320000 		.4byte	.LASF1381
 14477 0033 05       		.byte	0x5
 14478 0034 47       		.uleb128 0x47
 14479 0035 6C1E0000 		.4byte	.LASF1382
 14480 0039 05       		.byte	0x5
 14481 003a 48       		.uleb128 0x48
 14482 003b C94E0000 		.4byte	.LASF1383
 14483 003f 05       		.byte	0x5
 14484 0040 49       		.uleb128 0x49
ARM GAS  /var/folders/z0/6xlwn_996xz3mwq1cgzkbq4r0000gp/T//ccBgBTlB.s 			page 275


 14485 0041 7A6E0000 		.4byte	.LASF1384
 14486 0045 05       		.byte	0x5
 14487 0046 4A       		.uleb128 0x4a
 14488 0047 4A470000 		.4byte	.LASF1385
 14489 004b 05       		.byte	0x5
 14490 004c 4B       		.uleb128 0x4b
 14491 004d FE800000 		.4byte	.LASF1386
 14492 0051 05       		.byte	0x5
 14493 0052 4C       		.uleb128 0x4c
 14494 0053 182D0000 		.4byte	.LASF1387
 14495 0057 05       		.byte	0x5
 14496 0058 4D       		.uleb128 0x4d
 14497 0059 44BB0000 		.4byte	.LASF1388
 14498 005d 05       		.byte	0x5
 14499 005e 4E       		.uleb128 0x4e
 14500 005f 061B0000 		.4byte	.LASF1389
 14501 0063 05       		.byte	0x5
 14502 0064 4F       		.uleb128 0x4f
 14503 0065 65580000 		.4byte	.LASF1390
 14504 0069 05       		.byte	0x5
 14505 006a 50       		.uleb128 0x50
 14506 006b 44380000 		.4byte	.LASF1391
 14507 006f 05       		.byte	0x5
 14508 0070 51       		.uleb128 0x51
 14509 0071 CD9A0000 		.4byte	.LASF1392
 14510 0075 05       		.byte	0x5
 14511 0076 52       		.uleb128 0x52
 14512 0077 E7030000 		.4byte	.LASF1393
 14513 007b 00       		.byte	0
 14514              		.section	.debug_macro,"G",%progbits,wm4.i2c_11xx.h.33.2b506d1350e00a8c26e8bf006a5f9390,comdat
 14515              	.Ldebug_macro46:
 14516 0000 0400     		.2byte	0x4
 14517 0002 00       		.byte	0
 14518 0003 05       		.byte	0x5
 14519 0004 21       		.uleb128 0x21
 14520 0005 4D850000 		.4byte	.LASF1395
 14521 0009 05       		.byte	0x5
 14522 000a 46       		.uleb128 0x46
 14523 000b 5A7A0000 		.4byte	.LASF1396
 14524 000f 05       		.byte	0x5
 14525 0010 47       		.uleb128 0x47
 14526 0011 A3A60000 		.4byte	.LASF1397
 14527 0015 05       		.byte	0x5
 14528 0016 48       		.uleb128 0x48
 14529 0017 0E540000 		.4byte	.LASF1398
 14530 001b 05       		.byte	0x5
 14531 001c 49       		.uleb128 0x49
 14532 001d EB880000 		.4byte	.LASF1399
 14533 0021 05       		.byte	0x5
 14534 0022 4E       		.uleb128 0x4e
 14535 0023 B1030000 		.4byte	.LASF1400
 14536 0027 05       		.byte	0x5
 14537 0028 53       		.uleb128 0x53
 14538 0029 60620000 		.4byte	.LASF1401
 14539 002d 05       		.byte	0x5
 14540 002e 54       		.uleb128 0x54
 14541 002f B75A0000 		.4byte	.LASF1402
ARM GAS  /var/folders/z0/6xlwn_996xz3mwq1cgzkbq4r0000gp/T//ccBgBTlB.s 			page 276


 14542 0033 05       		.byte	0x5
 14543 0034 55       		.uleb128 0x55
 14544 0035 DA1E0000 		.4byte	.LASF1403
 14545 0039 05       		.byte	0x5
 14546 003a 56       		.uleb128 0x56
 14547 003b DB560000 		.4byte	.LASF1404
 14548 003f 05       		.byte	0x5
 14549 0040 57       		.uleb128 0x57
 14550 0041 CE500000 		.4byte	.LASF1405
 14551 0045 05       		.byte	0x5
 14552 0046 5C       		.uleb128 0x5c
 14553 0047 7C240000 		.4byte	.LASF1406
 14554 004b 05       		.byte	0x5
 14555 004c 5D       		.uleb128 0x5d
 14556 004d 774B0000 		.4byte	.LASF1407
 14557 0051 05       		.byte	0x5
 14558 0052 5E       		.uleb128 0x5e
 14559 0053 F9A30000 		.4byte	.LASF1408
 14560 0057 05       		.byte	0x5
 14561 0058 5F       		.uleb128 0x5f
 14562 0059 3E210000 		.4byte	.LASF1409
 14563 005d 05       		.byte	0x5
 14564 005e 60       		.uleb128 0x60
 14565 005f 0A7C0000 		.4byte	.LASF1410
 14566 0063 05       		.byte	0x5
 14567 0064 65       		.uleb128 0x65
 14568 0065 FAA20000 		.4byte	.LASF1411
 14569 0069 05       		.byte	0x5
 14570 006a 66       		.uleb128 0x66
 14571 006b 7CA20000 		.4byte	.LASF1412
 14572 006f 05       		.byte	0x5
 14573 0070 67       		.uleb128 0x67
 14574 0071 DC990000 		.4byte	.LASF1413
 14575 0075 05       		.byte	0x5
 14576 0076 68       		.uleb128 0x68
 14577 0077 ACA10000 		.4byte	.LASF1414
 14578 007b 05       		.byte	0x5
 14579 007c 69       		.uleb128 0x69
 14580 007d DF7F0000 		.4byte	.LASF1415
 14581 0081 05       		.byte	0x5
 14582 0082 6E       		.uleb128 0x6e
 14583 0083 372C0000 		.4byte	.LASF1416
 14584 0087 05       		.byte	0x5
 14585 0088 6F       		.uleb128 0x6f
 14586 0089 20160000 		.4byte	.LASF1417
 14587 008d 05       		.byte	0x5
 14588 008e 74       		.uleb128 0x74
 14589 008f 3A050000 		.4byte	.LASF1418
 14590 0093 05       		.byte	0x5
 14591 0094 75       		.uleb128 0x75
 14592 0095 5C480000 		.4byte	.LASF1419
 14593 0099 05       		.byte	0x5
 14594 009a 7A       		.uleb128 0x7a
 14595 009b 986C0000 		.4byte	.LASF1420
 14596 009f 05       		.byte	0x5
 14597 00a0 7B       		.uleb128 0x7b
 14598 00a1 20190000 		.4byte	.LASF1421
ARM GAS  /var/folders/z0/6xlwn_996xz3mwq1cgzkbq4r0000gp/T//ccBgBTlB.s 			page 277


 14599 00a5 05       		.byte	0x5
 14600 00a6 7C       		.uleb128 0x7c
 14601 00a7 678A0000 		.4byte	.LASF1422
 14602 00ab 05       		.byte	0x5
 14603 00ac 7D       		.uleb128 0x7d
 14604 00ad 0C9F0000 		.4byte	.LASF1423
 14605 00b1 05       		.byte	0x5
 14606 00b2 7E       		.uleb128 0x7e
 14607 00b3 47910000 		.4byte	.LASF1424
 14608 00b7 05       		.byte	0x5
 14609 00b8 7F       		.uleb128 0x7f
 14610 00b9 89580000 		.4byte	.LASF1425
 14611 00bd 05       		.byte	0x5
 14612 00be 8001     		.uleb128 0x80
 14613 00c0 1B570000 		.4byte	.LASF1426
 14614 00c4 05       		.byte	0x5
 14615 00c5 8501     		.uleb128 0x85
 14616 00c7 E8850000 		.4byte	.LASF1427
 14617 00cb 05       		.byte	0x5
 14618 00cc 8601     		.uleb128 0x86
 14619 00ce D1020000 		.4byte	.LASF1428
 14620 00d2 05       		.byte	0x5
 14621 00d3 8701     		.uleb128 0x87
 14622 00d5 D02D0000 		.4byte	.LASF1429
 14623 00d9 05       		.byte	0x5
 14624 00da 8801     		.uleb128 0x88
 14625 00dc 309D0000 		.4byte	.LASF1430
 14626 00e0 05       		.byte	0x5
 14627 00e1 8901     		.uleb128 0x89
 14628 00e3 63530000 		.4byte	.LASF1431
 14629 00e7 05       		.byte	0x5
 14630 00e8 8A01     		.uleb128 0x8a
 14631 00ea 9F390000 		.4byte	.LASF1432
 14632 00ee 05       		.byte	0x5
 14633 00ef 8B01     		.uleb128 0x8b
 14634 00f1 C5830000 		.4byte	.LASF1433
 14635 00f5 05       		.byte	0x5
 14636 00f6 9001     		.uleb128 0x90
 14637 00f8 86880000 		.4byte	.LASF1434
 14638 00fc 05       		.byte	0x5
 14639 00fd 9101     		.uleb128 0x91
 14640 00ff E7AF0000 		.4byte	.LASF1435
 14641 0103 05       		.byte	0x5
 14642 0104 9301     		.uleb128 0x93
 14643 0106 FA830000 		.4byte	.LASF1436
 14644 010a 05       		.byte	0x5
 14645 010b 9401     		.uleb128 0x94
 14646 010d 41700000 		.4byte	.LASF1437
 14647 0111 05       		.byte	0x5
 14648 0112 9601     		.uleb128 0x96
 14649 0114 244F0000 		.4byte	.LASF1438
 14650 0118 05       		.byte	0x5
 14651 0119 9701     		.uleb128 0x97
 14652 011b 0A020000 		.4byte	.LASF1439
 14653 011f 05       		.byte	0x5
 14654 0120 9801     		.uleb128 0x98
 14655 0122 38580000 		.4byte	.LASF1440
ARM GAS  /var/folders/z0/6xlwn_996xz3mwq1cgzkbq4r0000gp/T//ccBgBTlB.s 			page 278


 14656 0126 05       		.byte	0x5
 14657 0127 9901     		.uleb128 0x99
 14658 0129 45830000 		.4byte	.LASF1441
 14659 012d 05       		.byte	0x5
 14660 012e 9A01     		.uleb128 0x9a
 14661 0130 EC8A0000 		.4byte	.LASF1442
 14662 0134 05       		.byte	0x5
 14663 0135 A001     		.uleb128 0xa0
 14664 0137 39010000 		.4byte	.LASF1443
 14665 013b 05       		.byte	0x5
 14666 013c A101     		.uleb128 0xa1
 14667 013e 02920000 		.4byte	.LASF1444
 14668 0142 05       		.byte	0x5
 14669 0143 A301     		.uleb128 0xa3
 14670 0145 F1760000 		.4byte	.LASF1445
 14671 0149 05       		.byte	0x5
 14672 014a A401     		.uleb128 0xa4
 14673 014c 985D0000 		.4byte	.LASF1446
 14674 0150 05       		.byte	0x5
 14675 0151 A501     		.uleb128 0xa5
 14676 0153 98240000 		.4byte	.LASF1447
 14677 0157 05       		.byte	0x5
 14678 0158 A601     		.uleb128 0xa6
 14679 015a 8C4A0000 		.4byte	.LASF1448
 14680 015e 05       		.byte	0x5
 14681 015f AB01     		.uleb128 0xab
 14682 0161 736D0000 		.4byte	.LASF1449
 14683 0165 05       		.byte	0x5
 14684 0166 AC01     		.uleb128 0xac
 14685 0168 B2A60000 		.4byte	.LASF1450
 14686 016c 05       		.byte	0x5
 14687 016d B201     		.uleb128 0xb2
 14688 016f DBB20000 		.4byte	.LASF1451
 14689 0173 05       		.byte	0x5
 14690 0174 B301     		.uleb128 0xb3
 14691 0176 46520000 		.4byte	.LASF1452
 14692 017a 05       		.byte	0x5
 14693 017b B401     		.uleb128 0xb4
 14694 017d C3400000 		.4byte	.LASF1453
 14695 0181 05       		.byte	0x5
 14696 0182 B501     		.uleb128 0xb5
 14697 0184 C9770000 		.4byte	.LASF1454
 14698 0188 05       		.byte	0x5
 14699 0189 BA01     		.uleb128 0xba
 14700 018b 83510000 		.4byte	.LASF1455
 14701 018f 05       		.byte	0x5
 14702 0190 BF01     		.uleb128 0xbf
 14703 0192 DB6E0000 		.4byte	.LASF1456
 14704 0196 05       		.byte	0x5
 14705 0197 C001     		.uleb128 0xc0
 14706 0199 7D6F0000 		.4byte	.LASF1457
 14707 019d 05       		.byte	0x5
 14708 019e C501     		.uleb128 0xc5
 14709 01a0 ED8E0000 		.4byte	.LASF1458
 14710 01a4 05       		.byte	0x5
 14711 01a5 CA01     		.uleb128 0xca
 14712 01a7 EA260000 		.4byte	.LASF1459
ARM GAS  /var/folders/z0/6xlwn_996xz3mwq1cgzkbq4r0000gp/T//ccBgBTlB.s 			page 279


 14713 01ab 05       		.byte	0x5
 14714 01ac CF01     		.uleb128 0xcf
 14715 01ae 784F0000 		.4byte	.LASF1460
 14716 01b2 05       		.byte	0x5
 14717 01b3 D401     		.uleb128 0xd4
 14718 01b5 0E170000 		.4byte	.LASF1461
 14719 01b9 05       		.byte	0x5
 14720 01ba D501     		.uleb128 0xd5
 14721 01bc A8110000 		.4byte	.LASF1462
 14722 01c0 05       		.byte	0x5
 14723 01c1 D601     		.uleb128 0xd6
 14724 01c3 18AB0000 		.4byte	.LASF1463
 14725 01c7 05       		.byte	0x5
 14726 01c8 DB01     		.uleb128 0xdb
 14727 01ca 5BBE0000 		.4byte	.LASF1464
 14728 01ce 05       		.byte	0x5
 14729 01cf DC01     		.uleb128 0xdc
 14730 01d1 12140000 		.4byte	.LASF1465
 14731 01d5 05       		.byte	0x5
 14732 01d6 DD01     		.uleb128 0xdd
 14733 01d8 912E0000 		.4byte	.LASF1466
 14734 01dc 05       		.byte	0x5
 14735 01dd DE01     		.uleb128 0xde
 14736 01df 11550000 		.4byte	.LASF1467
 14737 01e3 05       		.byte	0x5
 14738 01e4 DF01     		.uleb128 0xdf
 14739 01e6 0DBA0000 		.4byte	.LASF1468
 14740 01ea 05       		.byte	0x5
 14741 01eb E001     		.uleb128 0xe0
 14742 01ed 2E300000 		.4byte	.LASF1469
 14743 01f1 05       		.byte	0x5
 14744 01f2 E101     		.uleb128 0xe1
 14745 01f4 B1030000 		.4byte	.LASF1400
 14746 01f8 05       		.byte	0x5
 14747 01f9 E301     		.uleb128 0xe3
 14748 01fb 50000000 		.4byte	.LASF1470
 14749 01ff 05       		.byte	0x5
 14750 0200 E401     		.uleb128 0xe4
 14751 0202 18060000 		.4byte	.LASF1471
 14752 0206 05       		.byte	0x5
 14753 0207 E601     		.uleb128 0xe6
 14754 0209 1D000000 		.4byte	.LASF1472
 14755 020d 05       		.byte	0x5
 14756 020e EB01     		.uleb128 0xeb
 14757 0210 0A790000 		.4byte	.LASF1473
 14758 0214 05       		.byte	0x5
 14759 0215 EC01     		.uleb128 0xec
 14760 0217 BD8E0000 		.4byte	.LASF1474
 14761 021b 00       		.byte	0
 14762              		.section	.debug_macro,"G",%progbits,wm4.ccand_11xx.h.33.99627f4b529fecdc77b0877ab6fe5266,comdat
 14763              	.Ldebug_macro47:
 14764 0000 0400     		.2byte	0x4
 14765 0002 00       		.byte	0
 14766 0003 05       		.byte	0x5
 14767 0004 21       		.uleb128 0x21
 14768 0005 2F860000 		.4byte	.LASF1475
 14769 0009 05       		.byte	0x5
ARM GAS  /var/folders/z0/6xlwn_996xz3mwq1cgzkbq4r0000gp/T//ccBgBTlB.s 			page 280


 14770 000a 6E       		.uleb128 0x6e
 14771 000b 0E130000 		.4byte	.LASF1476
 14772 000f 05       		.byte	0x5
 14773 0010 6F       		.uleb128 0x6f
 14774 0011 164C0000 		.4byte	.LASF1477
 14775 0015 05       		.byte	0x5
 14776 0016 70       		.uleb128 0x70
 14777 0017 CEAD0000 		.4byte	.LASF1478
 14778 001b 05       		.byte	0x5
 14779 001c 71       		.uleb128 0x71
 14780 001d 223F0000 		.4byte	.LASF1479
 14781 0021 05       		.byte	0x5
 14782 0022 72       		.uleb128 0x72
 14783 0023 62030000 		.4byte	.LASF1480
 14784 0027 05       		.byte	0x5
 14785 0028 73       		.uleb128 0x73
 14786 0029 CE6D0000 		.4byte	.LASF1481
 14787 002d 05       		.byte	0x5
 14788 002e 74       		.uleb128 0x74
 14789 002f C9550000 		.4byte	.LASF1482
 14790 0033 05       		.byte	0x5
 14791 0034 75       		.uleb128 0x75
 14792 0035 9F980000 		.4byte	.LASF1483
 14793 0039 05       		.byte	0x5
 14794 003a 76       		.uleb128 0x76
 14795 003b B8170000 		.4byte	.LASF1484
 14796 003f 05       		.byte	0x5
 14797 0040 77       		.uleb128 0x77
 14798 0041 2C180000 		.4byte	.LASF1485
 14799 0045 05       		.byte	0x5
 14800 0046 7C       		.uleb128 0x7c
 14801 0047 3EAF0000 		.4byte	.LASF1486
 14802 004b 05       		.byte	0x5
 14803 004c 7D       		.uleb128 0x7d
 14804 004d 80BC0000 		.4byte	.LASF1487
 14805 0051 05       		.byte	0x5
 14806 0052 7E       		.uleb128 0x7e
 14807 0053 9F770000 		.4byte	.LASF1488
 14808 0057 05       		.byte	0x5
 14809 0058 7F       		.uleb128 0x7f
 14810 0059 D58F0000 		.4byte	.LASF1489
 14811 005d 05       		.byte	0x5
 14812 005e 9101     		.uleb128 0x91
 14813 0060 25620000 		.4byte	.LASF1490
 14814 0064 05       		.byte	0x5
 14815 0065 9201     		.uleb128 0x92
 14816 0067 BA7E0000 		.4byte	.LASF1491
 14817 006b 05       		.byte	0x5
 14818 006c 9301     		.uleb128 0x93
 14819 006e 5A9F0000 		.4byte	.LASF1492
 14820 0072 05       		.byte	0x5
 14821 0073 9401     		.uleb128 0x94
 14822 0075 A9600000 		.4byte	.LASF1493
 14823 0079 05       		.byte	0x5
 14824 007a 9501     		.uleb128 0x95
 14825 007c 24B20000 		.4byte	.LASF1494
 14826 0080 05       		.byte	0x5
ARM GAS  /var/folders/z0/6xlwn_996xz3mwq1cgzkbq4r0000gp/T//ccBgBTlB.s 			page 281


 14827 0081 9601     		.uleb128 0x96
 14828 0083 FE290000 		.4byte	.LASF1495
 14829 0087 05       		.byte	0x5
 14830 0088 9701     		.uleb128 0x97
 14831 008a 782D0000 		.4byte	.LASF1496
 14832 008e 05       		.byte	0x5
 14833 008f 9801     		.uleb128 0x98
 14834 0091 A33D0000 		.4byte	.LASF1497
 14835 0095 05       		.byte	0x5
 14836 0096 9901     		.uleb128 0x99
 14837 0098 F0210000 		.4byte	.LASF1498
 14838 009c 05       		.byte	0x5
 14839 009d 9A01     		.uleb128 0x9a
 14840 009f 06950000 		.4byte	.LASF1499
 14841 00a3 05       		.byte	0x5
 14842 00a4 9B01     		.uleb128 0x9b
 14843 00a6 96AD0000 		.4byte	.LASF1500
 14844 00aa 05       		.byte	0x5
 14845 00ab 9C01     		.uleb128 0x9c
 14846 00ad 133B0000 		.4byte	.LASF1501
 14847 00b1 05       		.byte	0x5
 14848 00b2 9D01     		.uleb128 0x9d
 14849 00b4 77380000 		.4byte	.LASF1502
 14850 00b8 05       		.byte	0x5
 14851 00b9 9E01     		.uleb128 0x9e
 14852 00bb DB790000 		.4byte	.LASF1503
 14853 00bf 05       		.byte	0x5
 14854 00c0 9F01     		.uleb128 0x9f
 14855 00c2 B12D0000 		.4byte	.LASF1504
 14856 00c6 05       		.byte	0x5
 14857 00c7 A901     		.uleb128 0xa9
 14858 00c9 CA490000 		.4byte	.LASF1505
 14859 00cd 05       		.byte	0x5
 14860 00ce AA01     		.uleb128 0xaa
 14861 00d0 6DA60000 		.4byte	.LASF1506
 14862 00d4 05       		.byte	0x5
 14863 00d5 AB01     		.uleb128 0xab
 14864 00d7 EAAD0000 		.4byte	.LASF1507
 14865 00db 05       		.byte	0x5
 14866 00dc AC01     		.uleb128 0xac
 14867 00de 32780000 		.4byte	.LASF1508
 14868 00e2 05       		.byte	0x5
 14869 00e3 AD01     		.uleb128 0xad
 14870 00e5 F5220000 		.4byte	.LASF1509
 14871 00e9 05       		.byte	0x5
 14872 00ea AE01     		.uleb128 0xae
 14873 00ec 943D0000 		.4byte	.LASF1510
 14874 00f0 05       		.byte	0x5
 14875 00f1 AF01     		.uleb128 0xaf
 14876 00f3 2B050000 		.4byte	.LASF1511
 14877 00f7 05       		.byte	0x5
 14878 00f8 C401     		.uleb128 0xc4
 14879 00fa 2A1B0000 		.4byte	.LASF1512
 14880 00fe 05       		.byte	0x5
 14881 00ff C501     		.uleb128 0xc5
 14882 0101 DFA30000 		.4byte	.LASF1513
 14883 0105 05       		.byte	0x5
ARM GAS  /var/folders/z0/6xlwn_996xz3mwq1cgzkbq4r0000gp/T//ccBgBTlB.s 			page 282


 14884 0106 C601     		.uleb128 0xc6
 14885 0108 10A30000 		.4byte	.LASF1514
 14886 010c 05       		.byte	0x5
 14887 010d C901     		.uleb128 0xc9
 14888 010f 4A3B0000 		.4byte	.LASF1515
 14889 0113 05       		.byte	0x5
 14890 0114 CA01     		.uleb128 0xca
 14891 0116 54B00000 		.4byte	.LASF1516
 14892 011a 05       		.byte	0x5
 14893 011b CB01     		.uleb128 0xcb
 14894 011d 5FB40000 		.4byte	.LASF1517
 14895 0121 05       		.byte	0x5
 14896 0122 E501     		.uleb128 0xe5
 14897 0124 425A0000 		.4byte	.LASF1518
 14898 0128 00       		.byte	0
 14899              		.section	.debug_macro,"G",%progbits,wm4.config.h.2.914c8874abf7e48afe8641d5d520a76b,comdat
 14900              	.Ldebug_macro48:
 14901 0000 0400     		.2byte	0x4
 14902 0002 00       		.byte	0
 14903 0003 05       		.byte	0x5
 14904 0004 02       		.uleb128 0x2
 14905 0005 B4BA0000 		.4byte	.LASF1521
 14906 0009 05       		.byte	0x5
 14907 000a 04       		.uleb128 0x4
 14908 000b 8C4E0000 		.4byte	.LASF1522
 14909 000f 05       		.byte	0x5
 14910 0010 05       		.uleb128 0x5
 14911 0011 A9220000 		.4byte	.LASF1523
 14912 0015 05       		.byte	0x5
 14913 0016 06       		.uleb128 0x6
 14914 0017 AF000000 		.4byte	.LASF1524
 14915 001b 05       		.byte	0x5
 14916 001c 08       		.uleb128 0x8
 14917 001d 24B80000 		.4byte	.LASF1525
 14918 0021 05       		.byte	0x5
 14919 0022 09       		.uleb128 0x9
 14920 0023 EAA90000 		.4byte	.LASF1526
 14921 0027 05       		.byte	0x5
 14922 0028 0A       		.uleb128 0xa
 14923 0029 AB7C0000 		.4byte	.LASF1527
 14924 002d 05       		.byte	0x5
 14925 002e 0B       		.uleb128 0xb
 14926 002f A60D0000 		.4byte	.LASF1528
 14927 0033 05       		.byte	0x5
 14928 0034 0D       		.uleb128 0xd
 14929 0035 981D0000 		.4byte	.LASF1529
 14930 0039 05       		.byte	0x5
 14931 003a 0E       		.uleb128 0xe
 14932 003b EF320000 		.4byte	.LASF1530
 14933 003f 05       		.byte	0x5
 14934 0040 10       		.uleb128 0x10
 14935 0041 413D0000 		.4byte	.LASF1531
 14936 0045 05       		.byte	0x5
 14937 0046 11       		.uleb128 0x11
 14938 0047 DC210000 		.4byte	.LASF1532
 14939 004b 05       		.byte	0x5
 14940 004c 13       		.uleb128 0x13
ARM GAS  /var/folders/z0/6xlwn_996xz3mwq1cgzkbq4r0000gp/T//ccBgBTlB.s 			page 283


 14941 004d CF970000 		.4byte	.LASF1533
 14942 0051 05       		.byte	0x5
 14943 0052 14       		.uleb128 0x14
 14944 0053 29280000 		.4byte	.LASF1534
 14945 0057 05       		.byte	0x5
 14946 0058 15       		.uleb128 0x15
 14947 0059 89710000 		.4byte	.LASF1535
 14948 005d 05       		.byte	0x5
 14949 005e 16       		.uleb128 0x16
 14950 005f C36B0000 		.4byte	.LASF1536
 14951 0063 05       		.byte	0x5
 14952 0064 17       		.uleb128 0x17
 14953 0065 67170000 		.4byte	.LASF1537
 14954 0069 05       		.byte	0x5
 14955 006a 18       		.uleb128 0x18
 14956 006b 5C850000 		.4byte	.LASF1538
 14957 006f 05       		.byte	0x5
 14958 0070 19       		.uleb128 0x19
 14959 0071 26A80000 		.4byte	.LASF1539
 14960 0075 05       		.byte	0x5
 14961 0076 1A       		.uleb128 0x1a
 14962 0077 963F0000 		.4byte	.LASF1540
 14963 007b 05       		.byte	0x5
 14964 007c 1B       		.uleb128 0x1b
 14965 007d 70300000 		.4byte	.LASF1541
 14966 0081 05       		.byte	0x5
 14967 0082 1C       		.uleb128 0x1c
 14968 0083 86A60000 		.4byte	.LASF1542
 14969 0087 05       		.byte	0x5
 14970 0088 1D       		.uleb128 0x1d
 14971 0089 18AD0000 		.4byte	.LASF1543
 14972 008d 05       		.byte	0x5
 14973 008e 1E       		.uleb128 0x1e
 14974 008f D1A40000 		.4byte	.LASF1544
 14975 0093 05       		.byte	0x5
 14976 0094 20       		.uleb128 0x20
 14977 0095 5B9B0000 		.4byte	.LASF1545
 14978 0099 05       		.byte	0x5
 14979 009a 21       		.uleb128 0x21
 14980 009b BE350000 		.4byte	.LASF1546
 14981 009f 05       		.byte	0x5
 14982 00a0 22       		.uleb128 0x22
 14983 00a1 050F0000 		.4byte	.LASF1547
 14984 00a5 05       		.byte	0x5
 14985 00a6 23       		.uleb128 0x23
 14986 00a7 5F3B0000 		.4byte	.LASF1548
 14987 00ab 05       		.byte	0x5
 14988 00ac 24       		.uleb128 0x24
 14989 00ad EE6B0000 		.4byte	.LASF1549
 14990 00b1 05       		.byte	0x5
 14991 00b2 25       		.uleb128 0x25
 14992 00b3 D5080000 		.4byte	.LASF1550
 14993 00b7 05       		.byte	0x5
 14994 00b8 26       		.uleb128 0x26
 14995 00b9 C7030000 		.4byte	.LASF1551
 14996 00bd 05       		.byte	0x5
 14997 00be 27       		.uleb128 0x27
ARM GAS  /var/folders/z0/6xlwn_996xz3mwq1cgzkbq4r0000gp/T//ccBgBTlB.s 			page 284


 14998 00bf 3C550000 		.4byte	.LASF1552
 14999 00c3 05       		.byte	0x5
 15000 00c4 28       		.uleb128 0x28
 15001 00c5 6A900000 		.4byte	.LASF1553
 15002 00c9 05       		.byte	0x5
 15003 00ca 29       		.uleb128 0x29
 15004 00cb 47180000 		.4byte	.LASF1554
 15005 00cf 05       		.byte	0x5
 15006 00d0 2A       		.uleb128 0x2a
 15007 00d1 B9230000 		.4byte	.LASF1555
 15008 00d5 05       		.byte	0x5
 15009 00d6 2B       		.uleb128 0x2b
 15010 00d7 EBA40000 		.4byte	.LASF1556
 15011 00db 05       		.byte	0x5
 15012 00dc 2D       		.uleb128 0x2d
 15013 00dd 4B0F0000 		.4byte	.LASF1557
 15014 00e1 05       		.byte	0x5
 15015 00e2 2E       		.uleb128 0x2e
 15016 00e3 9A990000 		.4byte	.LASF1558
 15017 00e7 05       		.byte	0x5
 15018 00e8 30       		.uleb128 0x30
 15019 00e9 838D0000 		.4byte	.LASF1559
 15020 00ed 05       		.byte	0x5
 15021 00ee 31       		.uleb128 0x31
 15022 00ef 9AB50000 		.4byte	.LASF1560
 15023 00f3 00       		.byte	0
 15024              		.section	.debug_line,"",%progbits
 15025              	.Ldebug_line0:
 15026 0000 1E090000 		.section	.debug_str,"MS",%progbits,1
 15026      0200B005 
 15026      00000201 
 15026      FB0E0D00 
 15026      01010101 
 15027              	.LASF1634:
 15028 0000 656C636F 		.ascii	"elcon_is_input_voltage_wrong\000"
 15028      6E5F6973 
 15028      5F696E70 
 15028      75745F76 
 15028      6F6C7461 
 15029              	.LASF1472:
 15030 001d 4932435F 		.ascii	"I2C_CheckError(ErrorCode) (ErrorCode & 0x10000000)\000"
 15030      43686563 
 15030      6B457272 
 15030      6F722845 
 15030      72726F72 
 15031              	.LASF1470:
 15032 0050 4932435F 		.ascii	"I2C_ERR (0x10000000)\000"
 15032      45525220 
 15032      28307831 
 15032      30303030 
 15032      30303029 
 15033              	.LASF251:
 15034 0065 5F5F4C41 		.ascii	"__LACCUM_EPSILON__ 0x1P-31LK\000"
 15034      4343554D 
 15034      5F455053 
 15034      494C4F4E 
 15034      5F5F2030 
ARM GAS  /var/folders/z0/6xlwn_996xz3mwq1cgzkbq4r0000gp/T//ccBgBTlB.s 			page 285


 15035              	.LASF329:
 15036 0082 5F5F7468 		.ascii	"__thumb__ 1\000"
 15036      756D625F 
 15036      5F203100 
 15037              	.LASF242:
 15038 008e 5F5F5541 		.ascii	"__UACCUM_FBIT__ 16\000"
 15038      4343554D 
 15038      5F464249 
 15038      545F5F20 
 15038      313600
 15039              	.LASF328:
 15040 00a1 5F5F4150 		.ascii	"__APCS_32__ 1\000"
 15040      43535F33 
 15040      325F5F20 
 15040      3100
 15041              	.LASF1524:
 15042 00af 4D41585F 		.ascii	"MAX_THERMISTORS_PER_MODULE 24\000"
 15042      54484552 
 15042      4D495354 
 15042      4F52535F 
 15042      5045525F 
 15043              	.LASF211:
 15044 00cd 5F5F4C46 		.ascii	"__LFRACT_EPSILON__ 0x1P-31LR\000"
 15044      52414354 
 15044      5F455053 
 15044      494C4F4E 
 15044      5F5F2030 
 15045              	.LASF28:
 15046 00ea 5F5F464C 		.ascii	"__FLOAT_WORD_ORDER__ __ORDER_LITTLE_ENDIAN__\000"
 15046      4F41545F 
 15046      574F5244 
 15046      5F4F5244 
 15046      45525F5F 
 15047              	.LASF845:
 15048 0117 4B45595F 		.ascii	"KEY_HT 9\000"
 15048      48542039 
 15048      00
 15049              	.LASF694:
 15050 0120 616C6C6F 		.ascii	"alloca\000"
 15050      636100
 15051              	.LASF1189:
 15052 0127 4D445F49 		.ascii	"MD_INV (0x1 << 6)\000"
 15052      4E562028 
 15052      30783120 
 15052      3C3C2036 
 15052      2900
 15053              	.LASF1443:
 15054 0139 4932435F 		.ascii	"I2C_I2STAT_S_TX_SLAR_ACK ((0xA8))\000"
 15054      49325354 
 15054      41545F53 
 15054      5F54585F 
 15054      534C4152 
 15055              	.LASF1757:
 15056 015b 636F6E73 		.ascii	"console_init\000"
 15056      6F6C655F 
 15056      696E6974 
 15056      00
ARM GAS  /var/folders/z0/6xlwn_996xz3mwq1cgzkbq4r0000gp/T//ccBgBTlB.s 			page 286


 15057              	.LASF895:
 15058 0168 56435554 		.ascii	"VCUTODASH__freq 10\000"
 15058      4F444153 
 15058      485F5F66 
 15058      72657120 
 15058      313000
 15059              	.LASF858:
 15060 017b 4B45595F 		.ascii	"KEY_SYN 22\000"
 15060      53594E20 
 15060      323200
 15061              	.LASF557:
 15062 0186 5F524545 		.ascii	"_REENT_L64A_BUF(ptr) ((ptr)->_new._reent._l64a_buf)"
 15062      4E545F4C 
 15062      3634415F 
 15062      42554628 
 15062      70747229 
 15063 01b9 00       		.ascii	"\000"
 15064              	.LASF147:
 15065 01ba 5F5F4442 		.ascii	"__DBL_EPSILON__ ((double)2.2204460492503131e-16L)\000"
 15065      4C5F4550 
 15065      53494C4F 
 15065      4E5F5F20 
 15065      2828646F 
 15066              	.LASF1633:
 15067 01ec 656C636F 		.ascii	"elcon_over_temp_protection_on\000"
 15067      6E5F6F76 
 15067      65725F74 
 15067      656D705F 
 15067      70726F74 
 15068              	.LASF1439:
 15069 020a 4932435F 		.ascii	"I2C_I2STAT_S_RX_PRE_SLA_DAT_NACK ((0x88))\000"
 15069      49325354 
 15069      41545F53 
 15069      5F52585F 
 15069      5052455F 
 15070              	.LASF243:
 15071 0234 5F5F5541 		.ascii	"__UACCUM_IBIT__ 16\000"
 15071      4343554D 
 15071      5F494249 
 15071      545F5F20 
 15071      313600
 15072              	.LASF1363:
 15073 0247 5353505F 		.ascii	"SSP_SR_BITMASK ((uint32_t) (0x1F))\000"
 15073      53525F42 
 15073      49544D41 
 15073      534B2028 
 15073      2875696E 
 15074              	.LASF1697:
 15075 026a 636F6D6D 		.ascii	"command_label_t\000"
 15075      616E645F 
 15075      6C616265 
 15075      6C5F7400 
 15076              	.LASF1288:
 15077 027a 55415254 		.ascii	"UART_LSR_RXFE (1 << 7)\000"
 15077      5F4C5352 
 15077      5F525846 
 15077      45202831 
ARM GAS  /var/folders/z0/6xlwn_996xz3mwq1cgzkbq4r0000gp/T//ccBgBTlB.s 			page 287


 15077      203C3C20 
 15078              	.LASF1010:
 15079 0291 5343425F 		.ascii	"SCB_CPUID_IMPLEMENTER_Msk (0xFFUL << SCB_CPUID_IMPL"
 15079      43505549 
 15079      445F494D 
 15079      504C454D 
 15079      454E5445 
 15080 02c4 454D454E 		.ascii	"EMENTER_Pos)\000"
 15080      5445525F 
 15080      506F7329 
 15080      00
 15081              	.LASF1428:
 15082 02d1 4932435F 		.ascii	"I2C_I2STAT_M_RX_RESTART ((0x10))\000"
 15082      49325354 
 15082      41545F4D 
 15082      5F52585F 
 15082      52455354 
 15083              	.LASF844:
 15084 02f2 4B45595F 		.ascii	"KEY_BS 8\000"
 15084      42532038 
 15084      00
 15085              	.LASF110:
 15086 02fb 5F5F494E 		.ascii	"__INT_FAST16_MAX__ 0x7fffffff\000"
 15086      545F4641 
 15086      53543136 
 15086      5F4D4158 
 15086      5F5F2030 
 15087              	.LASF944:
 15088 0319 424D535F 		.ascii	"BMS_VCU_SWITCH__id 244\000"
 15088      5643555F 
 15088      53574954 
 15088      43485F5F 
 15088      69642032 
 15089              	.LASF1519:
 15090 0330 5F43414E 		.ascii	"_CAN_H_ \000"
 15090      5F485F20 
 15090      00
 15091              	.LASF345:
 15092 0339 46534145 		.ascii	"FSAE_DRIVERS 1\000"
 15092      5F445249 
 15092      56455253 
 15092      203100
 15093              	.LASF529:
 15094 0348 5F524545 		.ascii	"_REENT_CHECK_RAND48(ptr) \000"
 15094      4E545F43 
 15094      4845434B 
 15094      5F52414E 
 15094      44343828 
 15095              	.LASF1480:
 15096 0362 43414E5F 		.ascii	"CAN_ERROR_STUF 0x00000008UL\000"
 15096      4552524F 
 15096      525F5354 
 15096      55462030 
 15096      78303030 
 15097              	.LASF129:
 15098 037e 5F5F464C 		.ascii	"__FLT_MAX_10_EXP__ 38\000"
 15098      545F4D41 
ARM GAS  /var/folders/z0/6xlwn_996xz3mwq1cgzkbq4r0000gp/T//ccBgBTlB.s 			page 288


 15098      585F3130 
 15098      5F455850 
 15098      5F5F2033 
 15099              	.LASF1676:
 15100 0394 6C6F775F 		.ascii	"low_side_cntr_fault\000"
 15100      73696465 
 15100      5F636E74 
 15100      725F6661 
 15100      756C7400 
 15101              	.LASF504:
 15102 03a8 5F57494E 		.ascii	"_WINT_T \000"
 15102      545F5420 
 15102      00
 15103              	.LASF1400:
 15104 03b1 4932435F 		.ascii	"I2C_STA_STO_RECV 0x20\000"
 15104      5354415F 
 15104      53544F5F 
 15104      52454356 
 15104      20307832 
 15105              	.LASF1551:
 15106 03c7 4D593136 		.ascii	"MY16_BALANCE_OFF_THRESHOLD_mV 1\000"
 15106      5F42414C 
 15106      414E4345 
 15106      5F4F4646 
 15106      5F544852 
 15107              	.LASF1393:
 15108 03e7 4144435F 		.ascii	"ADC_SAMPLE_RATE_CONFIG_MASK (ADC_CR_CLKDIV(0xFF) | "
 15108      53414D50 
 15108      4C455F52 
 15108      4154455F 
 15108      434F4E46 
 15109 041a 4144435F 		.ascii	"ADC_CR_BITACC(0x07))\000"
 15109      43525F42 
 15109      49544143 
 15109      43283078 
 15109      30372929 
 15110              	.LASF1327:
 15111 042f 55415254 		.ascii	"UART_FDR_BITMASK (0xFF)\000"
 15111      5F464452 
 15111      5F424954 
 15111      4D41534B 
 15111      20283078 
 15112              	.LASF407:
 15113 0447 5F564F49 		.ascii	"_VOID void\000"
 15113      4420766F 
 15113      696400
 15114              	.LASF1323:
 15115 0452 55415254 		.ascii	"UART_SCICTRL_TXRETRY(n) ((n & 0x07) << 5)\000"
 15115      5F534349 
 15115      4354524C 
 15115      5F545852 
 15115      45545259 
 15116              	.LASF532:
 15117 047c 5F524545 		.ascii	"_REENT_CHECK_ASCTIME_BUF(ptr) \000"
 15117      4E545F43 
 15117      4845434B 
 15117      5F415343 
ARM GAS  /var/folders/z0/6xlwn_996xz3mwq1cgzkbq4r0000gp/T//ccBgBTlB.s 			page 289


 15117      54494D45 
 15118              	.LASF1230:
 15119 049b 55415254 		.ascii	"UART_IER_MSINT (1 << 3)\000"
 15119      5F494552 
 15119      5F4D5349 
 15119      4E542028 
 15119      31203C3C 
 15120              	.LASF1197:
 15121 04b3 4D445F4F 		.ascii	"MD_OPENDRAIN (0x1 << 10)\000"
 15121      50454E44 
 15121      5241494E 
 15121      20283078 
 15121      31203C3C 
 15122              	.LASF1300:
 15123 04cc 55415254 		.ascii	"UART_MSR_BITMASK (0xFF)\000"
 15123      5F4D5352 
 15123      5F424954 
 15123      4D41534B 
 15123      20283078 
 15124              	.LASF506:
 15125 04e4 5F434C4F 		.ascii	"_CLOCK_T_ unsigned long\000"
 15125      434B5F54 
 15125      5F20756E 
 15125      7369676E 
 15125      6564206C 
 15126              	.LASF711:
 15127 04fc 5F5F6861 		.ascii	"__have_longlong64 1\000"
 15127      76655F6C 
 15127      6F6E676C 
 15127      6F6E6736 
 15127      34203100 
 15128              	.LASF77:
 15129 0510 5F5F5054 		.ascii	"__PTRDIFF_MAX__ 0x7fffffff\000"
 15129      52444946 
 15129      465F4D41 
 15129      585F5F20 
 15129      30783766 
 15130              	.LASF1511:
 15131 052b 4F445F53 		.ascii	"OD_SEG_RW 0x60\000"
 15131      45475F52 
 15131      57203078 
 15131      363000
 15132              	.LASF1418:
 15133 053a 4932435F 		.ascii	"I2C_I2STAT_NO_INF ((0xF8))\000"
 15133      49325354 
 15133      41545F4E 
 15133      4F5F494E 
 15133      46202828 
 15134              	.LASF801:
 15135 0555 494E544D 		.ascii	"INTMAX_MAX (__INTMAX_MAX__)\000"
 15135      41585F4D 
 15135      41582028 
 15135      5F5F494E 
 15135      544D4158 
 15136              	.LASF591:
 15137 0571 5F5F474E 		.ascii	"__GNUCLIKE_BUILTIN_CONSTANT_P 1\000"
 15137      55434C49 
ARM GAS  /var/folders/z0/6xlwn_996xz3mwq1cgzkbq4r0000gp/T//ccBgBTlB.s 			page 290


 15137      4B455F42 
 15137      55494C54 
 15137      494E5F43 
 15138              	.LASF409:
 15139 0591 5F455846 		.ascii	"_EXFUN(name,proto) name proto\000"
 15139      554E286E 
 15139      616D652C 
 15139      70726F74 
 15139      6F29206E 
 15140              	.LASF1763:
 15141 05af 6373625F 		.ascii	"csb_input\000"
 15141      696E7075 
 15141      7400
 15142              	.LASF650:
 15143 05b9 5F5F7072 		.ascii	"__printflike(fmtarg,firstvararg) __attribute__((__f"
 15143      696E7466 
 15143      6C696B65 
 15143      28666D74 
 15143      6172672C 
 15144 05ec 6F726D61 		.ascii	"ormat__ (__printf__, fmtarg, firstvararg)))\000"
 15144      745F5F20 
 15144      285F5F70 
 15144      72696E74 
 15144      665F5F2C 
 15145              	.LASF1471:
 15146 0618 4932435F 		.ascii	"I2C_NAK_RECV (0x10000000 | 0x01)\000"
 15146      4E414B5F 
 15146      52454356 
 15146      20283078 
 15146      31303030 
 15147              	.LASF0:
 15148 0639 5F5F5354 		.ascii	"__STDC__ 1\000"
 15148      44435F5F 
 15148      203100
 15149              	.LASF847:
 15150 0644 4B45595F 		.ascii	"KEY_VT 11\000"
 15150      56542031 
 15150      3100
 15151              	.LASF1595:
 15152 064e 5F426F6F 		.ascii	"_Bool\000"
 15152      6C00
 15153              	.LASF906:
 15154 0654 5F5F5F5F 		.ascii	"____DASH_REQUEST__TYPE__FAN_DISABLE 10\000"
 15154      44415348 
 15154      5F524551 
 15154      55455354 
 15154      5F5F5459 
 15155              	.LASF395:
 15156 067b 5F524541 		.ascii	"_READ_WRITE_BUFSIZE_TYPE int\000"
 15156      445F5752 
 15156      4954455F 
 15156      42554653 
 15156      495A455F 
 15157              	.LASF1762:
 15158 0698 636F6E73 		.ascii	"console_output\000"
 15158      6F6C655F 
 15158      6F757470 
ARM GAS  /var/folders/z0/6xlwn_996xz3mwq1cgzkbq4r0000gp/T//ccBgBTlB.s 			page 291


 15158      757400
 15159              	.LASF181:
 15160 06a7 5F5F4445 		.ascii	"__DEC128_MIN_EXP__ (-6142)\000"
 15160      43313238 
 15160      5F4D494E 
 15160      5F455850 
 15160      5F5F2028 
 15161              	.LASF299:
 15162 06c2 5F5F5544 		.ascii	"__UDA_FBIT__ 32\000"
 15162      415F4642 
 15162      49545F5F 
 15162      20333200 
 15163              	.LASF1006:
 15164 06d2 5F5F4920 		.ascii	"__I volatile const\000"
 15164      766F6C61 
 15164      74696C65 
 15164      20636F6E 
 15164      737400
 15165              	.LASF780:
 15166 06e5 494E545F 		.ascii	"INT_LEAST32_MIN (-__INT_LEAST32_MAX__ - 1)\000"
 15166      4C454153 
 15166      5433325F 
 15166      4D494E20 
 15166      282D5F5F 
 15167              	.LASF46:
 15168 0710 5F5F5549 		.ascii	"__UINT64_TYPE__ long long unsigned int\000"
 15168      4E543634 
 15168      5F545950 
 15168      455F5F20 
 15168      6C6F6E67 
 15169              	.LASF143:
 15170 0737 5F5F4442 		.ascii	"__DBL_MAX_10_EXP__ 308\000"
 15170      4C5F4D41 
 15170      585F3130 
 15170      5F455850 
 15170      5F5F2033 
 15171              	.LASF612:
 15172 074e 5F5F636F 		.ascii	"__const const\000"
 15172      6E737420 
 15172      636F6E73 
 15172      7400
 15173              	.LASF969:
 15174 075c 5F424F41 		.ascii	"_BOARD_H_ \000"
 15174      52445F48 
 15174      5F2000
 15175              	.LASF1208:
 15176 0767 54494D45 		.ascii	"TIMER_MATCH_INT(n) (_BIT((n) & 0x0F))\000"
 15176      525F4D41 
 15176      5443485F 
 15176      494E5428 
 15176      6E292028 
 15177              	.LASF116:
 15178 078d 5F5F5549 		.ascii	"__UINT_FAST64_MAX__ 0xffffffffffffffffULL\000"
 15178      4E545F46 
 15178      41535436 
 15178      345F4D41 
 15178      585F5F20 
ARM GAS  /var/folders/z0/6xlwn_996xz3mwq1cgzkbq4r0000gp/T//ccBgBTlB.s 			page 292


 15179              	.LASF702:
 15180 07b7 5F4D4943 		.ascii	"_MICRORL_H_ \000"
 15180      524F524C 
 15180      5F485F20 
 15180      00
 15181              	.LASF32:
 15182 07c4 5F5F5743 		.ascii	"__WCHAR_TYPE__ unsigned int\000"
 15182      4841525F 
 15182      54595045 
 15182      5F5F2075 
 15182      6E736967 
 15183              	.LASF587:
 15184 07e0 5F5F474E 		.ascii	"__GNUCLIKE___TYPEOF 1\000"
 15184      55434C49 
 15184      4B455F5F 
 15184      5F545950 
 15184      454F4620 
 15185              	.LASF290:
 15186 07f6 5F5F5341 		.ascii	"__SA_IBIT__ 16\000"
 15186      5F494249 
 15186      545F5F20 
 15186      313600
 15187              	.LASF817:
 15188 0805 494E5433 		.ascii	"INT32_C(x) __INT32_C(x)\000"
 15188      325F4328 
 15188      7829205F 
 15188      5F494E54 
 15188      33325F43 
 15189              	.LASF300:
 15190 081d 5F5F5544 		.ascii	"__UDA_IBIT__ 32\000"
 15190      415F4942 
 15190      49545F5F 
 15190      20333200 
 15191              	.LASF1195:
 15192 082d 4D445F53 		.ascii	"MD_STDI2C (0x1 << 8)\000"
 15192      54444932 
 15192      43202830 
 15192      7831203C 
 15192      3C203829 
 15193              	.LASF552:
 15194 0842 5F524545 		.ascii	"_REENT_MBRLEN_STATE(ptr) ((ptr)->_new._reent._mbrle"
 15194      4E545F4D 
 15194      42524C45 
 15194      4E5F5354 
 15194      41544528 
 15195 0875 6E5F7374 		.ascii	"n_state)\000"
 15195      61746529 
 15195      00
 15196              	.LASF340:
 15197 087e 5F5F454C 		.ascii	"__ELF__ 1\000"
 15197      465F5F20 
 15197      3100
 15198              	.LASF1307:
 15199 0888 55415254 		.ascii	"UART_RS485CTRL_NMM_EN (1 << 0)\000"
 15199      5F525334 
 15199      38354354 
 15199      524C5F4E 
ARM GAS  /var/folders/z0/6xlwn_996xz3mwq1cgzkbq4r0000gp/T//ccBgBTlB.s 			page 293


 15199      4D4D5F45 
 15200              	.LASF15:
 15201 08a7 5F5F5349 		.ascii	"__SIZEOF_LONG__ 4\000"
 15201      5A454F46 
 15201      5F4C4F4E 
 15201      475F5F20 
 15201      3400
 15202              	.LASF730:
 15203 08b9 5F5F494E 		.ascii	"__INT64 \"ll\"\000"
 15203      54363420 
 15203      226C6C22 
 15203      00
 15204              	.LASF503:
 15205 08c6 5F5F6E65 		.ascii	"__need_wint_t \000"
 15205      65645F77 
 15205      696E745F 
 15205      742000
 15206              	.LASF1550:
 15207 08d5 4D593136 		.ascii	"MY16_BALANCE_ON_THRESHOLD_mV 4\000"
 15207      5F42414C 
 15207      414E4345 
 15207      5F4F4E5F 
 15207      54485245 
 15208              	.LASF840:
 15209 08f4 4B45595F 		.ascii	"KEY_EOT 4\000"
 15209      454F5420 
 15209      3400
 15210              	.LASF1770:
 15211 08fe 4353425F 		.ascii	"CSB_INIT_MODE_NAMES\000"
 15211      494E4954 
 15211      5F4D4F44 
 15211      455F4E41 
 15211      4D455300 
 15212              	.LASF223:
 15213 0912 5F5F554C 		.ascii	"__ULLFRACT_IBIT__ 0\000"
 15213      4C465241 
 15213      43545F49 
 15213      4249545F 
 15213      5F203000 
 15214              	.LASF819:
 15215 0926 494E5436 		.ascii	"INT64_C(x) __INT64_C(x)\000"
 15215      345F4328 
 15215      7829205F 
 15215      5F494E54 
 15215      36345F43 
 15216              	.LASF1004:
 15217 093e 5F5F434F 		.ascii	"__CORE_CMFUNC_H \000"
 15217      52455F43 
 15217      4D46554E 
 15217      435F4820 
 15217      00
 15218              	.LASF454:
 15219 094f 5F5F5743 		.ascii	"__WCHAR_T__ \000"
 15219      4841525F 
 15219      545F5F20 
 15219      00
 15220              	.LASF1650:
ARM GAS  /var/folders/z0/6xlwn_996xz3mwq1cgzkbq4r0000gp/T//ccBgBTlB.s 			page 294


 15221 095c 4353425F 		.ascii	"CSB_CHARGE_WAIT_250\000"
 15221      43484152 
 15221      47455F57 
 15221      4149545F 
 15221      32353000 
 15222              	.LASF945:
 15223 0970 424D535F 		.ascii	"BMS_VCU_SWITCH__freq 1\000"
 15223      5643555F 
 15223      53574954 
 15223      43485F5F 
 15223      66726571 
 15224              	.LASF1283:
 15225 0987 55415254 		.ascii	"UART_LSR_PE (1 << 2)\000"
 15225      5F4C5352 
 15225      5F504520 
 15225      2831203C 
 15225      3C203229 
 15226              	.LASF408:
 15227 099c 5F455846 		.ascii	"_EXFUN_NOTHROW(name,proto) name proto _NOTHROW\000"
 15227      554E5F4E 
 15227      4F544852 
 15227      4F57286E 
 15227      616D652C 
 15228              	.LASF876:
 15229 09cb 5F43414E 		.ascii	"_CAN_LIBRARY_H \000"
 15229      5F4C4942 
 15229      52415259 
 15229      5F482000 
 15230              	.LASF1666:
 15231 09db 656C636F 		.ascii	"elcon_status\000"
 15231      6E5F7374 
 15231      61747573 
 15231      00
 15232              	.LASF1121:
 15233 09e8 4C50435F 		.ascii	"LPC_SSP0 ((LPC_SSP_T *) LPC_SSP0_BASE)\000"
 15233      53535030 
 15233      2028284C 
 15233      50435F53 
 15233      53505F54 
 15234              	.LASF1025:
 15235 0a0f 5343425F 		.ascii	"SCB_ICSR_PENDSTSET_Pos 26\000"
 15235      49435352 
 15235      5F50454E 
 15235      44535453 
 15235      45545F50 
 15236              	.LASF1304:
 15237 0a29 55415254 		.ascii	"UART_ACR_ABEOINT_CLR (1 << 8)\000"
 15237      5F414352 
 15237      5F414245 
 15237      4F494E54 
 15237      5F434C52 
 15238              	.LASF703:
 15239 0a47 5F535444 		.ascii	"_STDBOOL_H \000"
 15239      424F4F4C 
 15239      5F482000 
 15240              	.LASF625:
 15241 0a53 5F416C69 		.ascii	"_Alignas(x) __aligned(x)\000"
ARM GAS  /var/folders/z0/6xlwn_996xz3mwq1cgzkbq4r0000gp/T//ccBgBTlB.s 			page 295


 15241      676E6173 
 15241      28782920 
 15241      5F5F616C 
 15241      69676E65 
 15242              	.LASF1212:
 15243 0a6c 54494D45 		.ascii	"TIMER_INT_ON_MATCH(n) (_BIT(((n) * 3)))\000"
 15243      525F494E 
 15243      545F4F4E 
 15243      5F4D4154 
 15243      4348286E 
 15244              	.LASF1781:
 15245 0a94 68616E64 		.ascii	"handlers\000"
 15245      6C657273 
 15245      00
 15246              	.LASF607:
 15247 0a9d 5F5F5028 		.ascii	"__P(protos) protos\000"
 15247      70726F74 
 15247      6F732920 
 15247      70726F74 
 15247      6F7300
 15248              	.LASF63:
 15249 0ab0 5F5F494E 		.ascii	"__INTPTR_TYPE__ int\000"
 15249      54505452 
 15249      5F545950 
 15249      455F5F20 
 15249      696E7400 
 15250              	.LASF1658:
 15251 0ac4 4353425F 		.ascii	"CSB_INIT_OFF\000"
 15251      494E4954 
 15251      5F4F4646 
 15251      00
 15252              	.LASF1034:
 15253 0ad1 5343425F 		.ascii	"SCB_ICSR_VECTPENDING_Msk (0x1FFUL << SCB_ICSR_VECTP"
 15253      49435352 
 15253      5F564543 
 15253      5450454E 
 15253      44494E47 
 15254 0b04 454E4449 		.ascii	"ENDING_Pos)\000"
 15254      4E475F50 
 15254      6F732900 
 15255              	.LASF246:
 15256 0b10 5F5F5541 		.ascii	"__UACCUM_EPSILON__ 0x1P-16UK\000"
 15256      4343554D 
 15256      5F455053 
 15256      494C4F4E 
 15256      5F5F2030 
 15257              	.LASF938:
 15258 0b2d 424D5343 		.ascii	"BMSCELLTEMPS__id 241\000"
 15258      454C4C54 
 15258      454D5053 
 15258      5F5F6964 
 15258      20323431 
 15259              	.LASF1264:
 15260 0b42 55415254 		.ascii	"UART_LCR_SBS_1BIT (0 << 2)\000"
 15260      5F4C4352 
 15260      5F534253 
 15260      5F314249 
ARM GAS  /var/folders/z0/6xlwn_996xz3mwq1cgzkbq4r0000gp/T//ccBgBTlB.s 			page 296


 15260      54202830 
 15261              	.LASF136:
 15262 0b5d 5F5F464C 		.ascii	"__FLT_HAS_INFINITY__ 1\000"
 15262      545F4841 
 15262      535F494E 
 15262      46494E49 
 15262      54595F5F 
 15263              	.LASF1265:
 15264 0b74 55415254 		.ascii	"UART_LCR_SBS_2BIT (1 << 2)\000"
 15264      5F4C4352 
 15264      5F534253 
 15264      5F324249 
 15264      54202831 
 15265              	.LASF1576:
 15266 0b8f 75696E74 		.ascii	"uint16_t\000"
 15266      31365F74 
 15266      00
 15267              	.LASF1625:
 15268 0b98 63765F63 		.ascii	"cv_charge_current_mA\000"
 15268      68617267 
 15268      655F6375 
 15268      7272656E 
 15268      745F6D41 
 15269              	.LASF527:
 15270 0bad 5F524545 		.ascii	"_REENT_INIT(var) { 0, &(var).__sf[0], &(var).__sf[1"
 15270      4E545F49 
 15270      4E495428 
 15270      76617229 
 15270      207B2030 
 15271 0be0 5D2C2026 		.ascii	"], &(var).__sf[2], 0, \"\", 0, _NULL, 0, _NULL, _NU"
 15271      28766172 
 15271      292E5F5F 
 15271      73665B32 
 15271      5D2C2030 
 15272 0c11 4C4C2C20 		.ascii	"LL, 0, _NULL, _NULL, 0, _NULL, { { 0, _NULL, \"\", "
 15272      302C205F 
 15272      4E554C4C 
 15272      2C205F4E 
 15272      554C4C2C 
 15273 0c42 7B302C20 		.ascii	"{0, 0, 0, 0, 0, 0, 0, 0, 0}, 0, 1, { {_RAND48_SEED_"
 15273      302C2030 
 15273      2C20302C 
 15273      20302C20 
 15273      302C2030 
 15274 0c75 302C205F 		.ascii	"0, _RAND48_SEED_1, _RAND48_SEED_2}, {_RAND48_MULT_0"
 15274      52414E44 
 15274      34385F53 
 15274      4545445F 
 15274      312C205F 
 15275 0ca8 2C205F52 		.ascii	", _RAND48_MULT_1, _RAND48_MULT_2}, _RAND48_ADD }, {"
 15275      414E4434 
 15275      385F4D55 
 15275      4C545F31 
 15275      2C205F52 
 15276 0cdb 302C207B 		.ascii	"0, {0}}, {0, {0}}, {0, {0}}, \"\", \"\", 0, {0, {0}"
 15276      307D7D2C 
 15276      207B302C 
ARM GAS  /var/folders/z0/6xlwn_996xz3mwq1cgzkbq4r0000gp/T//ccBgBTlB.s 			page 297


 15276      207B307D 
 15276      7D2C207B 
 15277 0d0a 7D2C207B 		.ascii	"}, {0, {0}}, {0, {0}}, {0, {0}}, {0, {0}} } }, _REE"
 15277      302C207B 
 15277      307D7D2C 
 15277      207B302C 
 15277      207B307D 
 15278 0d3d 4E545F49 		.ascii	"NT_INIT_ATEXIT _NULL, {_NULL, 0, _NULL} }\000"
 15278      4E49545F 
 15278      41544558 
 15278      4954205F 
 15278      4E554C4C 
 15279              	.LASF719:
 15280 0d67 756E7369 		.ascii	"unsigned +0\000"
 15280      676E6564 
 15280      202B3000 
 15281              	.LASF174:
 15282 0d73 5F5F4445 		.ascii	"__DEC64_MIN_EXP__ (-382)\000"
 15282      4336345F 
 15282      4D494E5F 
 15282      4558505F 
 15282      5F20282D 
 15283              	.LASF1098:
 15284 0d8c 4C50435F 		.ascii	"LPC_FLASH_BASE 0x4003C000\000"
 15284      464C4153 
 15284      485F4241 
 15284      53452030 
 15284      78343030 
 15285              	.LASF1528:
 15286 0da6 494E4954 		.ascii	"INIT_SEND_TIME_MAX 500\000"
 15286      5F53454E 
 15286      445F5449 
 15286      4D455F4D 
 15286      41582035 
 15287              	.LASF798:
 15288 0dbd 494E545F 		.ascii	"INT_FAST64_MIN (-__INT_FAST64_MAX__ - 1)\000"
 15288      46415354 
 15288      36345F4D 
 15288      494E2028 
 15288      2D5F5F49 
 15289              	.LASF1226:
 15290 0de6 55415254 		.ascii	"UART_DLM_MASKBIT (0xFF)\000"
 15290      5F444C4D 
 15290      5F4D4153 
 15290      4B424954 
 15290      20283078 
 15291              	.LASF642:
 15292 0dfe 5F5F7072 		.ascii	"__predict_true(exp) __builtin_expect((exp), 1)\000"
 15292      65646963 
 15292      745F7472 
 15292      75652865 
 15292      78702920 
 15293              	.LASF262:
 15294 0e2d 5F5F554C 		.ascii	"__ULLACCUM_FBIT__ 32\000"
 15294      4C414343 
 15294      554D5F46 
 15294      4249545F 
ARM GAS  /var/folders/z0/6xlwn_996xz3mwq1cgzkbq4r0000gp/T//ccBgBTlB.s 			page 298


 15294      5F203332 
 15295              	.LASF948:
 15296 0e42 454C434F 		.ascii	"ELCONCOMMAND__id 403105268\000"
 15296      4E434F4D 
 15296      4D414E44 
 15296      5F5F6964 
 15296      20343033 
 15297              	.LASF1638:
 15298 0e5d 656C636F 		.ascii	"elcon_charging\000"
 15298      6E5F6368 
 15298      61726769 
 15298      6E6700
 15299              	.LASF1703:
 15300 0e6c 52574C5F 		.ascii	"RWL_cell_charge_c_rating_cC\000"
 15300      63656C6C 
 15300      5F636861 
 15300      7267655F 
 15300      635F7261 
 15301              	.LASF621:
 15302 0e88 5F5F616C 		.ascii	"__aligned(x) __attribute__((__aligned__(x)))\000"
 15302      69676E65 
 15302      64287829 
 15302      205F5F61 
 15302      74747269 
 15303              	.LASF494:
 15304 0eb5 5F5F6C6F 		.ascii	"__lock_acquire(lock) (_CAST_VOID 0)\000"
 15304      636B5F61 
 15304      63717569 
 15304      7265286C 
 15304      6F636B29 
 15305              	.LASF1217:
 15306 0ed9 54494D45 		.ascii	"TIMER_INT_ON_CAP(n) (_BIT((((n) * 3) + 2)))\000"
 15306      525F494E 
 15306      545F4F4E 
 15306      5F434150 
 15306      286E2920 
 15307              	.LASF1547:
 15308 0f05 4D593136 		.ascii	"MY16_CELL_CAPACITY_cAh 250\000"
 15308      5F43454C 
 15308      4C5F4341 
 15308      50414349 
 15308      54595F63 
 15309              	.LASF1699:
 15310 0f20 52574C5F 		.ascii	"RWL_cell_max_mV\000"
 15310      63656C6C 
 15310      5F6D6178 
 15310      5F6D5600 
 15311              	.LASF1008:
 15312 0f30 5F5F494F 		.ascii	"__IO volatile\000"
 15312      20766F6C 
 15312      6174696C 
 15312      6500
 15313              	.LASF426:
 15314 0f3e 5F545F50 		.ascii	"_T_PTRDIFF_ \000"
 15314      54524449 
 15314      46465F20 
 15314      00
ARM GAS  /var/folders/z0/6xlwn_996xz3mwq1cgzkbq4r0000gp/T//ccBgBTlB.s 			page 299


 15315              	.LASF1557:
 15316 0f4b 42414C41 		.ascii	"BALANCE_ON_THRESH_MS 41000\000"
 15316      4E43455F 
 15316      4F4E5F54 
 15316      48524553 
 15316      485F4D53 
 15317              	.LASF285:
 15318 0f66 5F5F5554 		.ascii	"__UTQ_FBIT__ 128\000"
 15318      515F4642 
 15318      49545F5F 
 15318      20313238 
 15318      00
 15319              	.LASF578:
 15320 0f77 5F5F756E 		.ascii	"__unbounded \000"
 15320      626F756E 
 15320      64656420 
 15320      00
 15321              	.LASF194:
 15322 0f84 5F5F5553 		.ascii	"__USFRACT_MIN__ 0.0UHR\000"
 15322      46524143 
 15322      545F4D49 
 15322      4E5F5F20 
 15322      302E3055 
 15323              	.LASF635:
 15324 0f9b 5F5F6E6F 		.ascii	"__nonnull(x) __attribute__((__nonnull__(x)))\000"
 15324      6E6E756C 
 15324      6C287829 
 15324      205F5F61 
 15324      74747269 
 15325              	.LASF1262:
 15326 0fc8 55415254 		.ascii	"UART_LCR_WLEN8 (3 << 0)\000"
 15326      5F4C4352 
 15326      5F574C45 
 15326      4E382028 
 15326      33203C3C 
 15327              	.LASF356:
 15328 0fe0 5F57414E 		.ascii	"_WANT_REGISTER_FINI 1\000"
 15328      545F5245 
 15328      47495354 
 15328      45525F46 
 15328      494E4920 
 15329              	.LASF49:
 15330 0ff6 5F5F494E 		.ascii	"__INT_LEAST32_TYPE__ long int\000"
 15330      545F4C45 
 15330      41535433 
 15330      325F5459 
 15330      50455F5F 
 15331              	.LASF700:
 15332 1014 4D425F43 		.ascii	"MB_CUR_MAX __locale_mb_cur_max()\000"
 15332      55525F4D 
 15332      4158205F 
 15332      5F6C6F63 
 15332      616C655F 
 15333              	.LASF982:
 15334 1035 45585445 		.ascii	"EXTERN extern\000"
 15334      524E2065 
 15334      78746572 
ARM GAS  /var/folders/z0/6xlwn_996xz3mwq1cgzkbq4r0000gp/T//ccBgBTlB.s 			page 300


 15334      6E00
 15335              	.LASF150:
 15336 1043 5F5F4442 		.ascii	"__DBL_HAS_INFINITY__ 1\000"
 15336      4C5F4841 
 15336      535F494E 
 15336      46494E49 
 15336      54595F5F 
 15337              	.LASF357:
 15338 105a 5F4D425F 		.ascii	"_MB_LEN_MAX 1\000"
 15338      4C454E5F 
 15338      4D415820 
 15338      3100
 15339              	.LASF684:
 15340 1068 5F5F6E6F 		.ascii	"__no_lock_analysis __lock_annotate(no_thread_safety"
 15340      5F6C6F63 
 15340      6B5F616E 
 15340      616C7973 
 15340      6973205F 
 15341 109b 5F616E61 		.ascii	"_analysis)\000"
 15341      6C797369 
 15341      732900
 15342              	.LASF1617:
 15343 10a6 63765F6D 		.ascii	"cv_min_current_mA\000"
 15343      696E5F63 
 15343      75727265 
 15343      6E745F6D 
 15343      4100
 15344              	.LASF180:
 15345 10b8 5F5F4445 		.ascii	"__DEC128_MANT_DIG__ 34\000"
 15345      43313238 
 15345      5F4D414E 
 15345      545F4449 
 15345      475F5F20 
 15346              	.LASF795:
 15347 10cf 494E545F 		.ascii	"INT_FAST32_MIN (-__INT_FAST32_MAX__ - 1)\000"
 15347      46415354 
 15347      33325F4D 
 15347      494E2028 
 15347      2D5F5F49 
 15348              	.LASF69:
 15349 10f8 5F5F5348 		.ascii	"__SHRT_MAX__ 0x7fff\000"
 15349      52545F4D 
 15349      41585F5F 
 15349      20307837 
 15349      66666600 
 15350              	.LASF1721:
 15351 110c 524F4C5F 		.ascii	"ROL_pack_current_mA\000"
 15351      7061636B 
 15351      5F637572 
 15351      72656E74 
 15351      5F6D4100 
 15352              	.LASF1089:
 15353 1120 4C50435F 		.ascii	"LPC_USART_BASE 0x40008000\000"
 15353      55534152 
 15353      545F4241 
 15353      53452030 
 15353      78343030 
ARM GAS  /var/folders/z0/6xlwn_996xz3mwq1cgzkbq4r0000gp/T//ccBgBTlB.s 			page 301


 15354              	.LASF802:
 15355 113a 494E544D 		.ascii	"INTMAX_MIN (-INTMAX_MAX - 1)\000"
 15355      41585F4D 
 15355      494E2028 
 15355      2D494E54 
 15355      4D41585F 
 15356              	.LASF781:
 15357 1157 494E545F 		.ascii	"INT_LEAST32_MAX (__INT_LEAST32_MAX__)\000"
 15357      4C454153 
 15357      5433325F 
 15357      4D415820 
 15357      285F5F49 
 15358              	.LASF1775:
 15359 117d 6C6F6373 		.ascii	"locstring\000"
 15359      7472696E 
 15359      6700
 15360              	.LASF1362:
 15361 1187 5353505F 		.ascii	"SSP_DR_BITMASK(n) ((n) & 0xFFFF)\000"
 15361      44525F42 
 15361      49544D41 
 15361      534B286E 
 15361      29202828 
 15362              	.LASF1462:
 15363 11a8 4932435F 		.ascii	"I2C_SETUP_STATUS_NOACKF (1 << 9)\000"
 15363      53455455 
 15363      505F5354 
 15363      41545553 
 15363      5F4E4F41 
 15364              	.LASF556:
 15365 11c9 5F524545 		.ascii	"_REENT_WCSRTOMBS_STATE(ptr) ((ptr)->_new._reent._wc"
 15365      4E545F57 
 15365      43535254 
 15365      4F4D4253 
 15365      5F535441 
 15366 11fc 7372746F 		.ascii	"srtombs_state)\000"
 15366      6D62735F 
 15366      73746174 
 15366      652900
 15367              	.LASF637:
 15368 120b 5F5F6661 		.ascii	"__fastcall __attribute__((__fastcall__))\000"
 15368      73746361 
 15368      6C6C205F 
 15368      5F617474 
 15368      72696275 
 15369              	.LASF1198:
 15370 1234 46554E43 		.ascii	"FUNC0 0x0\000"
 15370      30203078 
 15370      3000
 15371              	.LASF1333:
 15372 123e 55415254 		.ascii	"UART_SYNCCTRL_TSBYPASS (1 << 3)\000"
 15372      5F53594E 
 15372      43435452 
 15372      4C5F5453 
 15372      42595041 
 15373              	.LASF1275:
 15374 125e 55415254 		.ascii	"UART_MCR_DTR_CTRL (1 << 0)\000"
 15374      5F4D4352 
ARM GAS  /var/folders/z0/6xlwn_996xz3mwq1cgzkbq4r0000gp/T//ccBgBTlB.s 			page 302


 15374      5F445452 
 15374      5F435452 
 15374      4C202831 
 15375              	.LASF418:
 15376 1279 5F454C49 		.ascii	"_ELIDABLE_INLINE extern __inline__ _ATTRIBUTE ((__a"
 15376      4441424C 
 15376      455F494E 
 15376      4C494E45 
 15376      20657874 
 15377 12ac 6C776179 		.ascii	"lways_inline__))\000"
 15377      735F696E 
 15377      6C696E65 
 15377      5F5F2929 
 15377      00
 15378              	.LASF419:
 15379 12bd 5F4E4F49 		.ascii	"_NOINLINE __attribute__ ((__noinline__))\000"
 15379      4E4C494E 
 15379      45205F5F 
 15379      61747472 
 15379      69627574 
 15380              	.LASF112:
 15381 12e6 5F5F494E 		.ascii	"__INT_FAST64_MAX__ 0x7fffffffffffffffLL\000"
 15381      545F4641 
 15381      53543634 
 15381      5F4D4158 
 15381      5F5F2030 
 15382              	.LASF1476:
 15383 130e 43414E5F 		.ascii	"CAN_ERROR_NONE 0x00000000UL\000"
 15383      4552524F 
 15383      525F4E4F 
 15383      4E452030 
 15383      78303030 
 15384              	.LASF1315:
 15385 132a 55415254 		.ascii	"UART_ICR_IRDAINV (1 << 1)\000"
 15385      5F494352 
 15385      5F495244 
 15385      41494E56 
 15385      20283120 
 15386              	.LASF1618:
 15387 1344 63765F6D 		.ascii	"cv_min_current_ms\000"
 15387      696E5F63 
 15387      75727265 
 15387      6E745F6D 
 15387      7300
 15388              	.LASF259:
 15389 1356 5F5F4C4C 		.ascii	"__LLACCUM_MIN__ (-0X1P31LLK-0X1P31LLK)\000"
 15389      41434355 
 15389      4D5F4D49 
 15389      4E5F5F20 
 15389      282D3058 
 15390              	.LASF308:
 15391 137d 5F5F4743 		.ascii	"__GCC_ATOMIC_CHAR_LOCK_FREE 1\000"
 15391      435F4154 
 15391      4F4D4943 
 15391      5F434841 
 15391      525F4C4F 
 15392              	.LASF60:
ARM GAS  /var/folders/z0/6xlwn_996xz3mwq1cgzkbq4r0000gp/T//ccBgBTlB.s 			page 303


 15393 139b 5F5F5549 		.ascii	"__UINT_FAST16_TYPE__ unsigned int\000"
 15393      4E545F46 
 15393      41535431 
 15393      365F5459 
 15393      50455F5F 
 15394              	.LASF1213:
 15395 13bd 54494D45 		.ascii	"TIMER_RESET_ON_MATCH(n) (_BIT((((n) * 3) + 1)))\000"
 15395      525F5245 
 15395      5345545F 
 15395      4F4E5F4D 
 15395      41544348 
 15396              	.LASF92:
 15397 13ed 5F5F5549 		.ascii	"__UINT64_MAX__ 0xffffffffffffffffULL\000"
 15397      4E543634 
 15397      5F4D4158 
 15397      5F5F2030 
 15397      78666666 
 15398              	.LASF1465:
 15399 1412 4932435F 		.ascii	"I2C_BYTE_SENT 0x01\000"
 15399      42595445 
 15399      5F53454E 
 15399      54203078 
 15399      303100
 15400              	.LASF1239:
 15401 1425 55415254 		.ascii	"UART_IIR_ABEO_INT (1 << 8)\000"
 15401      5F494952 
 15401      5F414245 
 15401      4F5F494E 
 15401      54202831 
 15402              	.LASF1741:
 15403 1440 666F756E 		.ascii	"foundloc\000"
 15403      646C6F63 
 15403      00
 15404              	.LASF14:
 15405 1449 5F5F5349 		.ascii	"__SIZEOF_INT__ 4\000"
 15405      5A454F46 
 15405      5F494E54 
 15405      5F5F2034 
 15405      00
 15406              	.LASF331:
 15407 145a 5F5F4152 		.ascii	"__ARMEL__ 1\000"
 15407      4D454C5F 
 15407      5F203100 
 15408              	.LASF926:
 15409 1466 5F5F5F5F 		.ascii	"____BMSERRORS__TYPE__CELL_UNDER_VOLTAGE 5\000"
 15409      424D5345 
 15409      52524F52 
 15409      535F5F54 
 15409      5950455F 
 15410              	.LASF988:
 15411 1490 43484950 		.ascii	"CHIP_LPC11CXX \000"
 15411      5F4C5043 
 15411      31314358 
 15411      582000
 15412              	.LASF872:
 15413 149f 5F455343 		.ascii	"_ESC_BRACKET 1\000"
 15413      5F425241 
ARM GAS  /var/folders/z0/6xlwn_996xz3mwq1cgzkbq4r0000gp/T//ccBgBTlB.s 			page 304


 15413      434B4554 
 15413      203100
 15414              	.LASF531:
 15415 14ae 5F524545 		.ascii	"_REENT_CHECK_TM(ptr) \000"
 15415      4E545F43 
 15415      4845434B 
 15415      5F544D28 
 15415      70747229 
 15416              	.LASF915:
 15417 14c4 424D5345 		.ascii	"BMSERRORS__id 212\000"
 15417      52524F52 
 15417      535F5F69 
 15417      64203231 
 15417      3200
 15418              	.LASF38:
 15419 14d6 5F5F5349 		.ascii	"__SIG_ATOMIC_TYPE__ int\000"
 15419      475F4154 
 15419      4F4D4943 
 15419      5F545950 
 15419      455F5F20 
 15420              	.LASF446:
 15421 14ee 5F425344 		.ascii	"_BSD_SIZE_T_DEFINED_ \000"
 15421      5F53495A 
 15421      455F545F 
 15421      44454649 
 15421      4E45445F 
 15422              	.LASF590:
 15423 1504 5F5F474E 		.ascii	"__GNUCLIKE_CTOR_SECTION_HANDLING 1\000"
 15423      55434C49 
 15423      4B455F43 
 15423      544F525F 
 15423      53454354 
 15424              	.LASF1722:
 15425 1527 524F4C5F 		.ascii	"ROL_pack_voltage_mV\000"
 15425      7061636B 
 15425      5F766F6C 
 15425      74616765 
 15425      5F6D5600 
 15426              	.LASF1145:
 15427 153b 53595343 		.ascii	"SYSCTL_SLPWAKE_IRC_PD (1 << 1)\000"
 15427      544C5F53 
 15427      4C505741 
 15427      4B455F49 
 15427      52435F50 
 15428              	.LASF715:
 15429 155a 73686F72 		.ascii	"short\000"
 15429      7400
 15430              	.LASF1309:
 15431 1560 55415254 		.ascii	"UART_RS485CTRL_AADEN (1 << 2)\000"
 15431      5F525334 
 15431      38354354 
 15431      524C5F41 
 15431      4144454E 
 15432              	.LASF855:
 15433 157e 4B45595F 		.ascii	"KEY_DC3 19\000"
 15433      44433320 
 15433      313900
ARM GAS  /var/folders/z0/6xlwn_996xz3mwq1cgzkbq4r0000gp/T//ccBgBTlB.s 			page 305


 15434              	.LASF319:
 15435 1589 5F5F5052 		.ascii	"__PRAGMA_REDEFINE_EXTNAME 1\000"
 15435      41474D41 
 15435      5F524544 
 15435      4546494E 
 15435      455F4558 
 15436              	.LASF50:
 15437 15a5 5F5F494E 		.ascii	"__INT_LEAST64_TYPE__ long long int\000"
 15437      545F4C45 
 15437      41535436 
 15437      345F5459 
 15437      50455F5F 
 15438              	.LASF1577:
 15439 15c8 696E7433 		.ascii	"int32_t\000"
 15439      325F7400 
 15440              	.LASF413:
 15441 15d0 5F444546 		.ascii	"_DEFUN_VOID(name) name(_NOARGS)\000"
 15441      554E5F56 
 15441      4F494428 
 15441      6E616D65 
 15441      29206E61 
 15442              	.LASF927:
 15443 15f0 5F5F5F5F 		.ascii	"____BMSERRORS__TYPE__CELL_OVER_TEMP 8\000"
 15443      424D5345 
 15443      52524F52 
 15443      535F5F54 
 15443      5950455F 
 15444              	.LASF849:
 15445 1616 4B45595F 		.ascii	"KEY_CR 13\000"
 15445      43522031 
 15445      3300
 15446              	.LASF1417:
 15447 1620 4932435F 		.ascii	"I2C_STAT_CODE_ERROR ((0xFF))\000"
 15447      53544154 
 15447      5F434F44 
 15447      455F4552 
 15447      524F5220 
 15448              	.LASF1380:
 15449 163d 4144435F 		.ascii	"ADC_CR_CH_SEL(n) ((1UL << (n)))\000"
 15449      43525F43 
 15449      485F5345 
 15449      4C286E29 
 15449      20282831 
 15450              	.LASF660:
 15451 165d 5F5F7379 		.ascii	"__sym_compat(sym,impl,verid) __asm__(\".symver \" #"
 15451      6D5F636F 
 15451      6D706174 
 15451      2873796D 
 15451      2C696D70 
 15452 168e 696D706C 		.ascii	"impl \", \" #sym \"@\" #verid)\000"
 15452      20222C20 
 15452      22202373 
 15452      796D2022 
 15452      40222023 
 15453              	.LASF683:
 15454 16a9 5F5F7265 		.ascii	"__requires_unlocked(...) __lock_annotate(locks_excl"
 15454      71756972 
ARM GAS  /var/folders/z0/6xlwn_996xz3mwq1cgzkbq4r0000gp/T//ccBgBTlB.s 			page 306


 15454      65735F75 
 15454      6E6C6F63 
 15454      6B656428 
 15455 16dc 75646564 		.ascii	"uded(__VA_ARGS__))\000"
 15455      285F5F56 
 15455      415F4152 
 15455      47535F5F 
 15455      292900
 15456              	.LASF901:
 15457 16ef 52454152 		.ascii	"REARCANNODEWHEELSPEED__freq 50\000"
 15457      43414E4E 
 15457      4F444557 
 15457      4845454C 
 15457      53504545 
 15458              	.LASF1461:
 15459 170e 4932435F 		.ascii	"I2C_SETUP_STATUS_ARBF (1 << 8)\000"
 15459      53455455 
 15459      505F5354 
 15459      41545553 
 15459      5F415242 
 15460              	.LASF220:
 15461 172d 5F5F4C4C 		.ascii	"__LLFRACT_MAX__ 0X7FFFFFFFFFFFFFFFP-63LLR\000"
 15461      46524143 
 15461      545F4D41 
 15461      585F5F20 
 15461      30583746 
 15462              	.LASF487:
 15463 1757 5F5F5359 		.ascii	"__SYS_LOCK_H__ \000"
 15463      535F4C4F 
 15463      434B5F48 
 15463      5F5F2000 
 15464              	.LASF1537:
 15465 1767 4D593138 		.ascii	"MY18_CELL_CHARGE_C_RATING_cC 5\000"
 15465      5F43454C 
 15465      4C5F4348 
 15465      41524745 
 15465      5F435F52 
 15466              	.LASF1157:
 15467 1786 53595343 		.ascii	"SYSCTL_POWERDOWN_SYSOSC_PD (1 << 5)\000"
 15467      544C5F50 
 15467      4F574552 
 15467      444F574E 
 15467      5F535953 
 15468              	.LASF267:
 15469 17aa 5F5F5151 		.ascii	"__QQ_FBIT__ 7\000"
 15469      5F464249 
 15469      545F5F20 
 15469      3700
 15470              	.LASF1484:
 15471 17b8 43414E5F 		.ascii	"CAN_ERROR_BIT0 0x00000080UL\000"
 15471      4552524F 
 15471      525F4249 
 15471      54302030 
 15471      78303030 
 15472              	.LASF1311:
 15473 17d4 55415254 		.ascii	"UART_RS485CTRL_DCTRL_EN (1 << 4)\000"
 15473      5F525334 
ARM GAS  /var/folders/z0/6xlwn_996xz3mwq1cgzkbq4r0000gp/T//ccBgBTlB.s 			page 307


 15473      38354354 
 15473      524C5F44 
 15473      4354524C 
 15474              	.LASF1328:
 15475 17f5 55415254 		.ascii	"UART_TER1_TXEN (1 << 7)\000"
 15475      5F544552 
 15475      315F5458 
 15475      454E2028 
 15475      31203C3C 
 15476              	.LASF783:
 15477 180d 494E5436 		.ascii	"INT64_MIN (-__INT64_MAX__ - 1)\000"
 15477      345F4D49 
 15477      4E20282D 
 15477      5F5F494E 
 15477      5436345F 
 15478              	.LASF1485:
 15479 182c 43414E5F 		.ascii	"CAN_ERROR_CRC 0x00000100UL\000"
 15479      4552524F 
 15479      525F4352 
 15479      43203078 
 15479      30303030 
 15480              	.LASF1554:
 15481 1847 4D593136 		.ascii	"MY16_CV_MIN_CURRENT_ms 60000\000"
 15481      5F43565F 
 15481      4D494E5F 
 15481      43555252 
 15481      454E545F 
 15482              	.LASF23:
 15483 1864 5F5F4249 		.ascii	"__BIGGEST_ALIGNMENT__ 8\000"
 15483      47474553 
 15483      545F414C 
 15483      49474E4D 
 15483      454E545F 
 15484              	.LASF889:
 15485 187c 43555252 		.ascii	"CURRENTSENSOR_VOLTAGE__freq 20\000"
 15485      454E5453 
 15485      454E534F 
 15485      525F564F 
 15485      4C544147 
 15486              	.LASF43:
 15487 189b 5F5F5549 		.ascii	"__UINT8_TYPE__ unsigned char\000"
 15487      4E54385F 
 15487      54595045 
 15487      5F5F2075 
 15487      6E736967 
 15488              	.LASF1068:
 15489 18b8 53797354 		.ascii	"SysTick_LOAD_RELOAD_Msk (0xFFFFFFUL << SysTick_LOAD"
 15489      69636B5F 
 15489      4C4F4144 
 15489      5F52454C 
 15489      4F41445F 
 15490 18eb 5F52454C 		.ascii	"_RELOAD_Pos)\000"
 15490      4F41445F 
 15490      506F7329 
 15490      00
 15491              	.LASF782:
 15492 18f8 55494E54 		.ascii	"UINT_LEAST32_MAX (__UINT_LEAST32_MAX__)\000"
ARM GAS  /var/folders/z0/6xlwn_996xz3mwq1cgzkbq4r0000gp/T//ccBgBTlB.s 			page 308


 15492      5F4C4541 
 15492      53543332 
 15492      5F4D4158 
 15492      20285F5F 
 15493              	.LASF1421:
 15494 1920 4932435F 		.ascii	"I2C_I2STAT_M_TX_RESTART ((0x10))\000"
 15494      49325354 
 15494      41545F4D 
 15494      5F54585F 
 15494      52455354 
 15495              	.LASF549:
 15496 1941 5F524545 		.ascii	"_REENT_MBLEN_STATE(ptr) ((ptr)->_new._reent._mblen_"
 15496      4E545F4D 
 15496      424C454E 
 15496      5F535441 
 15496      54452870 
 15497 1974 73746174 		.ascii	"state)\000"
 15497      652900
 15498              	.LASF1693:
 15499 197b 435F4241 		.ascii	"C_BAL\000"
 15499      4C00
 15500              	.LASF265:
 15501 1981 5F5F554C 		.ascii	"__ULLACCUM_MAX__ 0XFFFFFFFFFFFFFFFFP-32ULLK\000"
 15501      4C414343 
 15501      554D5F4D 
 15501      41585F5F 
 15501      20305846 
 15502              	.LASF248:
 15503 19ad 5F5F4C41 		.ascii	"__LACCUM_IBIT__ 32\000"
 15503      4343554D 
 15503      5F494249 
 15503      545F5F20 
 15503      333200
 15504              	.LASF1142:
 15505 19c0 53595343 		.ascii	"SYSCTL_DEEPSLP_BOD_PD (1 << 3)\000"
 15505      544C5F44 
 15505      45455053 
 15505      4C505F42 
 15505      4F445F50 
 15506              	.LASF893:
 15507 19df 5F5F5F5F 		.ascii	"____VCUTODASH__LIMP_STATE__LIMP_50 1\000"
 15507      56435554 
 15507      4F444153 
 15507      485F5F4C 
 15507      494D505F 
 15508              	.LASF95:
 15509 1a04 5F5F494E 		.ascii	"__INT_LEAST16_MAX__ 0x7fff\000"
 15509      545F4C45 
 15509      41535431 
 15509      365F4D41 
 15509      585F5F20 
 15510              	.LASF489:
 15511 1a1f 5F5F4C4F 		.ascii	"__LOCK_INIT_RECURSIVE(class,lock) static int lock ="
 15511      434B5F49 
 15511      4E49545F 
 15511      52454355 
 15511      52534956 
ARM GAS  /var/folders/z0/6xlwn_996xz3mwq1cgzkbq4r0000gp/T//ccBgBTlB.s 			page 309


 15512 1a52 20303B00 		.ascii	" 0;\000"
 15513              	.LASF1320:
 15514 1a56 55415254 		.ascii	"UART_SCICTRL_SCIEN (1 << 0)\000"
 15514      5F534349 
 15514      4354524C 
 15514      5F534349 
 15514      454E2028 
 15515              	.LASF1591:
 15516 1a72 43414E5F 		.ascii	"CAN_BMSERRORS_CONFLICTING_MODE_REQUESTS\000"
 15516      424D5345 
 15516      52524F52 
 15516      535F434F 
 15516      4E464C49 
 15517              	.LASF886:
 15518 1a9a 46524F4E 		.ascii	"FRONTCANNODEWHEELSPEED__id 240\000"
 15518      5443414E 
 15518      4E4F4445 
 15518      57484545 
 15518      4C535045 
 15519              	.LASF692:
 15520 1ab9 5F4D4143 		.ascii	"_MACHSTDLIB_H_ \000"
 15520      48535444 
 15520      4C49425F 
 15520      485F2000 
 15521              	.LASF1758:
 15522 1ac9 65786563 		.ascii	"executerl\000"
 15522      75746572 
 15522      6C00
 15523              	.LASF1054:
 15524 1ad3 5343425F 		.ascii	"SCB_CCR_STKALIGN_Msk (1UL << SCB_CCR_STKALIGN_Pos)\000"
 15524      4343525F 
 15524      53544B41 
 15524      4C49474E 
 15524      5F4D736B 
 15525              	.LASF1389:
 15526 1b06 4144435F 		.ascii	"ADC_CR_START_ADCTRIG0 ((4UL << 24))\000"
 15526      43525F53 
 15526      54415254 
 15526      5F414443 
 15526      54524947 
 15527              	.LASF1512:
 15528 1b2a 43414E5F 		.ascii	"CAN_SDOREQ_NOTHANDLED 0\000"
 15528      53444F52 
 15528      45515F4E 
 15528      4F544841 
 15528      4E444C45 
 15529              	.LASF1360:
 15530 1b42 5353505F 		.ascii	"SSP_CR1_BITMASK ((uint32_t) (0x0F))\000"
 15530      4352315F 
 15530      4249544D 
 15530      41534B20 
 15530      28287569 
 15531              	.LASF581:
 15532 1b66 5F5F6861 		.ascii	"__has_feature(x) 0\000"
 15532      735F6665 
 15532      61747572 
 15532      65287829 
ARM GAS  /var/folders/z0/6xlwn_996xz3mwq1cgzkbq4r0000gp/T//ccBgBTlB.s 			page 310


 15532      203000
 15533              	.LASF228:
 15534 1b79 5F5F5341 		.ascii	"__SACCUM_IBIT__ 8\000"
 15534      4343554D 
 15534      5F494249 
 15534      545F5F20 
 15534      3800
 15535              	.LASF348:
 15536 1b8b 5F414E53 		.ascii	"_ANSIDECL_H_ \000"
 15536      49444543 
 15536      4C5F485F 
 15536      2000
 15537              	.LASF44:
 15538 1b99 5F5F5549 		.ascii	"__UINT16_TYPE__ short unsigned int\000"
 15538      4E543136 
 15538      5F545950 
 15538      455F5F20 
 15538      73686F72 
 15539              	.LASF846:
 15540 1bbc 4B45595F 		.ascii	"KEY_LF 10\000"
 15540      4C462031 
 15540      3000
 15541              	.LASF486:
 15542 1bc6 5F5F4558 		.ascii	"__EXP\000"
 15542      5000
 15543              	.LASF869:
 15544 1bcc 49535F43 		.ascii	"IS_CONTROL_CHAR(x) ((x)<=31)\000"
 15544      4F4E5452 
 15544      4F4C5F43 
 15544      48415228 
 15544      78292028 
 15545              	.LASF1297:
 15546 1be9 55415254 		.ascii	"UART_MSR_DSR (1 << 5)\000"
 15546      5F4D5352 
 15546      5F445352 
 15546      20283120 
 15546      3C3C2035 
 15547              	.LASF1732:
 15548 1bff 594E4C5F 		.ascii	"YNL_LENGTH\000"
 15548      4C454E47 
 15548      544800
 15549              	.LASF853:
 15550 1c0a 4B45595F 		.ascii	"KEY_DC1 17\000"
 15550      44433120 
 15550      313700
 15551              	.LASF1583:
 15552 1c15 43414E5F 		.ascii	"CAN_BMSERRORS_LTC6804_PEC\000"
 15552      424D5345 
 15552      52524F52 
 15552      535F4C54 
 15552      43363830 
 15553              	.LASF439:
 15554 1c2f 5F545F53 		.ascii	"_T_SIZE_ \000"
 15554      495A455F 
 15554      2000
 15555              	.LASF1612:
 15556 1c39 6E756D5F 		.ascii	"num_modules\000"
ARM GAS  /var/folders/z0/6xlwn_996xz3mwq1cgzkbq4r0000gp/T//ccBgBTlB.s 			page 311


 15556      6D6F6475 
 15556      6C657300 
 15557              	.LASF396:
 15558 1c45 5F484156 		.ascii	"_HAVE_STDC \000"
 15558      455F5354 
 15558      44432000 
 15559              	.LASF512:
 15560 1c51 5F415445 		.ascii	"_ATEXIT_SIZE 32\000"
 15560      5849545F 
 15560      53495A45 
 15560      20333200 
 15561              	.LASF914:
 15562 1c61 44415348 		.ascii	"DASH_REQUEST__freq 50\000"
 15562      5F524551 
 15562      55455354 
 15562      5F5F6672 
 15562      65712035 
 15563              	.LASF1028:
 15564 1c77 5343425F 		.ascii	"SCB_ICSR_PENDSTCLR_Msk (1UL << SCB_ICSR_PENDSTCLR_P"
 15564      49435352 
 15564      5F50454E 
 15564      44535443 
 15564      4C525F4D 
 15565 1caa 6F732900 		.ascii	"os)\000"
 15566              	.LASF94:
 15567 1cae 5F5F494E 		.ascii	"__INT8_C(c) c\000"
 15567      54385F43 
 15567      28632920 
 15567      6300
 15568              	.LASF950:
 15569 1cbc 5F5F5F5F 		.ascii	"____ELCONCOMMAND__CONTROL__start 1\000"
 15569      454C434F 
 15569      4E434F4D 
 15569      4D414E44 
 15569      5F5F434F 
 15570              	.LASF338:
 15571 1cdf 5F5F4152 		.ascii	"__ARM_EABI__ 1\000"
 15571      4D5F4541 
 15571      42495F5F 
 15571      203100
 15572              	.LASF925:
 15573 1cee 5F5F5F5F 		.ascii	"____BMSERRORS__TYPE__CAN 10\000"
 15573      424D5345 
 15573      52524F52 
 15573      535F5F54 
 15573      5950455F 
 15574              	.LASF656:
 15575 1d0a 5F5F7072 		.ascii	"__printf0like(fmtarg,firstvararg) \000"
 15575      696E7466 
 15575      306C696B 
 15575      6528666D 
 15575      74617267 
 15576              	.LASF912:
 15577 1d2d 5F5F5F5F 		.ascii	"____DASH_REQUEST__TYPE__RTD_DISABLE 2\000"
 15577      44415348 
 15577      5F524551 
 15577      55455354 
ARM GAS  /var/folders/z0/6xlwn_996xz3mwq1cgzkbq4r0000gp/T//ccBgBTlB.s 			page 312


 15577      5F5F5459 
 15578              	.LASF1317:
 15579 1d53 55415254 		.ascii	"UART_ICR_PULSEDIV(n) ((n & 0x07) << 3)\000"
 15579      5F494352 
 15579      5F50554C 
 15579      53454449 
 15579      56286E29 
 15580              	.LASF1092:
 15581 1d7a 4C50435F 		.ascii	"LPC_TIMER32_0_BASE 0x40014000\000"
 15581      54494D45 
 15581      5233325F 
 15581      305F4241 
 15581      53452030 
 15582              	.LASF1529:
 15583 1d98 5041434B 		.ascii	"PACK_CURRENT_PRINT_PERIOD_ms 1000\000"
 15583      5F435552 
 15583      52454E54 
 15583      5F505249 
 15583      4E545F50 
 15584              	.LASF1249:
 15585 1dba 55415254 		.ascii	"UART_FCR_RX_RS (1 << 1)\000"
 15585      5F464352 
 15585      5F52585F 
 15585      52532028 
 15585      31203C3C 
 15586              	.LASF1611:
 15587 1dd2 63656C6C 		.ascii	"cell_capacity_cAh\000"
 15587      5F636170 
 15587      61636974 
 15587      795F6341 
 15587      6800
 15588              	.LASF1270:
 15589 1de4 55415254 		.ascii	"UART_LCR_PARITY_F_1 (2 << 4)\000"
 15589      5F4C4352 
 15589      5F504152 
 15589      4954595F 
 15589      465F3120 
 15590              	.LASF706:
 15591 1e01 66616C73 		.ascii	"false 0\000"
 15591      65203000 
 15592              	.LASF128:
 15593 1e09 5F5F464C 		.ascii	"__FLT_MAX_EXP__ 128\000"
 15593      545F4D41 
 15593      585F4558 
 15593      505F5F20 
 15593      31323800 
 15594              	.LASF88:
 15595 1e1d 5F5F494E 		.ascii	"__INT64_MAX__ 0x7fffffffffffffffLL\000"
 15595      5436345F 
 15595      4D41585F 
 15595      5F203078 
 15595      37666666 
 15596              	.LASF601:
 15597 1e40 5F5F4343 		.ascii	"__CC_SUPPORTS___INLINE 1\000"
 15597      5F535550 
 15597      504F5254 
 15597      535F5F5F 
ARM GAS  /var/folders/z0/6xlwn_996xz3mwq1cgzkbq4r0000gp/T//ccBgBTlB.s 			page 313


 15597      494E4C49 
 15598              	.LASF7:
 15599 1e59 5F5F4154 		.ascii	"__ATOMIC_SEQ_CST 5\000"
 15599      4F4D4943 
 15599      5F534551 
 15599      5F435354 
 15599      203500
 15600              	.LASF1382:
 15601 1e6c 4144435F 		.ascii	"ADC_CR_BURST ((1UL << 16))\000"
 15601      43525F42 
 15601      55525354 
 15601      20282831 
 15601      554C203C 
 15602              	.LASF449:
 15603 1e87 5F474343 		.ascii	"_GCC_SIZE_T \000"
 15603      5F53495A 
 15603      455F5420 
 15603      00
 15604              	.LASF535:
 15605 1e94 5F524545 		.ascii	"_REENT_CHECK_SIGNAL_BUF(ptr) \000"
 15605      4E545F43 
 15605      4845434B 
 15605      5F534947 
 15605      4E414C5F 
 15606              	.LASF1125:
 15607 1eb2 4C50435F 		.ascii	"LPC_CCAN ((LPC_CCAN_T *) LPC_CAN0_BASE)\000"
 15607      4343414E 
 15607      2028284C 
 15607      50435F43 
 15607      43414E5F 
 15608              	.LASF1403:
 15609 1eda 4932435F 		.ascii	"I2C_I2CONSET_STO ((0x10))\000"
 15609      4932434F 
 15609      4E534554 
 15609      5F53544F 
 15609      20282830 
 15610              	.LASF835:
 15611 1ef4 454E444C 		.ascii	"ENDL \"\\n\"\000"
 15611      20225C6E 
 15611      2200
 15612              	.LASF1178:
 15613 1efe 494F434F 		.ascii	"IOCON_DIGMODE_EN (0x1 << 7)\000"
 15613      4E5F4449 
 15613      474D4F44 
 15613      455F454E 
 15613      20283078 
 15614              	.LASF604:
 15615 1f1a 5F5F4343 		.ascii	"__CC_SUPPORTS_WARNING 1\000"
 15615      5F535550 
 15615      504F5254 
 15615      535F5741 
 15615      524E494E 
 15616              	.LASF59:
 15617 1f32 5F5F5549 		.ascii	"__UINT_FAST8_TYPE__ unsigned int\000"
 15617      4E545F46 
 15617      41535438 
 15617      5F545950 
ARM GAS  /var/folders/z0/6xlwn_996xz3mwq1cgzkbq4r0000gp/T//ccBgBTlB.s 			page 314


 15617      455F5F20 
 15618              	.LASF1038:
 15619 1f53 5343425F 		.ascii	"SCB_AIRCR_VECTKEY_Msk (0xFFFFUL << SCB_AIRCR_VECTKE"
 15619      41495243 
 15619      525F5645 
 15619      43544B45 
 15619      595F4D73 
 15620 1f86 595F506F 		.ascii	"Y_Pos)\000"
 15620      732900
 15621              	.LASF301:
 15622 1f8d 5F5F5554 		.ascii	"__UTA_FBIT__ 64\000"
 15622      415F4642 
 15622      49545F5F 
 15622      20363400 
 15623              	.LASF1168:
 15624 1f9d 494F434F 		.ascii	"IOCON_FUNC5 0x5\000"
 15624      4E5F4655 
 15624      4E433520 
 15624      30783500 
 15625              	.LASF955:
 15626 1fad 5F5F5F5F 		.ascii	"____BMS_MODE__REQUESTED_MODE__CHARGE 0\000"
 15626      424D535F 
 15626      4D4F4445 
 15626      5F5F5245 
 15626      51554553 
 15627              	.LASF477:
 15628 1fd4 5F5F4558 		.ascii	"__EXP(x) __ ##x ##__\000"
 15628      50287829 
 15628      205F5F20 
 15628      23237820 
 15628      23235F5F 
 15629              	.LASF1366:
 15630 1fe9 5353505F 		.ascii	"SSP_CPHA_SECOND SSP_CR0_CPHA_SECOND\000"
 15630      43504841 
 15630      5F534543 
 15630      4F4E4420 
 15630      5353505F 
 15631              	.LASF158:
 15632 200d 5F5F4445 		.ascii	"__DECIMAL_DIG__ 17\000"
 15632      43494D41 
 15632      4C5F4449 
 15632      475F5F20 
 15632      313700
 15633              	.LASF773:
 15634 2020 55494E54 		.ascii	"UINT16_MAX (__UINT16_MAX__)\000"
 15634      31365F4D 
 15634      41582028 
 15634      5F5F5549 
 15634      4E543136 
 15635              	.LASF572:
 15636 203c 5F5F6C6F 		.ascii	"__long_double_t long double\000"
 15636      6E675F64 
 15636      6F75626C 
 15636      655F7420 
 15636      6C6F6E67 
 15637              	.LASF892:
 15638 2058 5F5F5F5F 		.ascii	"____VCUTODASH__LIMP_STATE__LIMP_25 3\000"
ARM GAS  /var/folders/z0/6xlwn_996xz3mwq1cgzkbq4r0000gp/T//ccBgBTlB.s 			page 315


 15638      56435554 
 15638      4F444153 
 15638      485F5F4C 
 15638      494D505F 
 15639              	.LASF990:
 15640 207d 5F5F434D 		.ascii	"__CMSIS_11CXX_H_ \000"
 15640      5349535F 
 15640      31314358 
 15640      585F485F 
 15640      2000
 15641              	.LASF681:
 15642 208f 5F5F7265 		.ascii	"__requires_exclusive(...) __lock_annotate(exclusive"
 15642      71756972 
 15642      65735F65 
 15642      78636C75 
 15642      73697665 
 15643 20c2 5F6C6F63 		.ascii	"_locks_required(__VA_ARGS__))\000"
 15643      6B735F72 
 15643      65717569 
 15643      72656428 
 15643      5F5F5641 
 15644              	.LASF669:
 15645 20e0 5F5F4445 		.ascii	"__DEQUALIFY(type,var) ((type)(__uintptr_t)(const vo"
 15645      5155414C 
 15645      49465928 
 15645      74797065 
 15645      2C766172 
 15646 2113 6C617469 		.ascii	"latile void *)(var))\000"
 15646      6C652076 
 15646      6F696420 
 15646      2A292876 
 15646      61722929 
 15647              	.LASF335:
 15648 2128 5F5F5448 		.ascii	"__THUMB_INTERWORK__ 1\000"
 15648      554D425F 
 15648      494E5445 
 15648      52574F52 
 15648      4B5F5F20 
 15649              	.LASF1409:
 15650 213e 4932435F 		.ascii	"I2C_I2CONCLR_STAC ((1 << 5))\000"
 15650      4932434F 
 15650      4E434C52 
 15650      5F535441 
 15650      43202828 
 15651              	.LASF523:
 15652 215b 5F524545 		.ascii	"_REENT_EMERGENCY_SIZE 25\000"
 15652      4E545F45 
 15652      4D455247 
 15652      454E4359 
 15652      5F53495A 
 15653              	.LASF868:
 15654 2174 4B45595F 		.ascii	"KEY_DEL 127\000"
 15654      44454C20 
 15654      31323700 
 15655              	.LASF120:
 15656 2180 5F5F4743 		.ascii	"__GCC_IEC_559_COMPLEX 0\000"
 15656      435F4945 
ARM GAS  /var/folders/z0/6xlwn_996xz3mwq1cgzkbq4r0000gp/T//ccBgBTlB.s 			page 316


 15656      435F3535 
 15656      395F434F 
 15656      4D504C45 
 15657              	.LASF1614:
 15658 2198 62616C5F 		.ascii	"bal_on_thresh_mV\000"
 15658      6F6E5F74 
 15658      68726573 
 15658      685F6D56 
 15658      00
 15659              	.LASF962:
 15660 21a9 5F43414E 		.ascii	"_CAN_LIBRARY_CAN_NODE_H \000"
 15660      5F4C4942 
 15660      52415259 
 15660      5F43414E 
 15660      5F4E4F44 
 15661              	.LASF784:
 15662 21c2 494E5436 		.ascii	"INT64_MAX (__INT64_MAX__)\000"
 15662      345F4D41 
 15662      5820285F 
 15662      5F494E54 
 15662      36345F4D 
 15663              	.LASF1532:
 15664 21dc 4353425F 		.ascii	"CSB_CAN_BAUD 250000\000"
 15664      43414E5F 
 15664      42415544 
 15664      20323530 
 15664      30303000 
 15665              	.LASF1498:
 15666 21f0 53444F5F 		.ascii	"SDO_ABORT_ACCINCOMP 0x06040047UL\000"
 15666      41424F52 
 15666      545F4143 
 15666      43494E43 
 15666      4F4D5020 
 15667              	.LASF1793:
 15668 2211 2F557365 		.ascii	"/Users/tukyab/Documents/MIT/FSAE/csb/charger_shutdo"
 15668      72732F74 
 15668      756B7961 
 15668      622F446F 
 15668      63756D65 
 15669 2244 776E5F62 		.ascii	"wn_board\000"
 15669      6F617264 
 15669      00
 15670              	.LASF1116:
 15671 224d 4C50435F 		.ascii	"LPC_TIMER32_0 ((LPC_TIMER_T *) LPC_TIMER32_0_BASE)\000"
 15671      54494D45 
 15671      5233325F 
 15671      30202828 
 15671      4C50435F 
 15672              	.LASF1306:
 15673 2280 55415254 		.ascii	"UART_ACR_BITMASK (0x307)\000"
 15673      5F414352 
 15673      5F424954 
 15673      4D41534B 
 15673      20283078 
 15674              	.LASF1621:
 15675 2299 746F7461 		.ascii	"total_num_cells\000"
 15675      6C5F6E75 
ARM GAS  /var/folders/z0/6xlwn_996xz3mwq1cgzkbq4r0000gp/T//ccBgBTlB.s 			page 317


 15675      6D5F6365 
 15675      6C6C7300 
 15676              	.LASF1523:
 15677 22a9 4D41585F 		.ascii	"MAX_CELLS_PER_MODULE 12\000"
 15677      43454C4C 
 15677      535F5045 
 15677      525F4D4F 
 15677      44554C45 
 15678              	.LASF1192:
 15679 22c1 4D445F44 		.ascii	"MD_DISFIL (0x0 << 8)\000"
 15679      49534649 
 15679      4C202830 
 15679      7830203C 
 15679      3C203829 
 15680              	.LASF403:
 15681 22d6 5F434F4E 		.ascii	"_CONST const\000"
 15681      53542063 
 15681      6F6E7374 
 15681      00
 15682              	.LASF208:
 15683 22e3 5F5F4C46 		.ascii	"__LFRACT_IBIT__ 0\000"
 15683      52414354 
 15683      5F494249 
 15683      545F5F20 
 15683      3000
 15684              	.LASF1509:
 15685 22f5 4F445F53 		.ascii	"OD_SEG_RO 0x40\000"
 15685      45475F52 
 15685      4F203078 
 15685      343000
 15686              	.LASF1687:
 15687 2304 62616C61 		.ascii	"balance_waitingoff\000"
 15687      6E63655F 
 15687      77616974 
 15687      696E676F 
 15687      666600
 15688              	.LASF1785:
 15689 2317 75746F61 		.ascii	"utoa\000"
 15689      00
 15690              	.LASF304:
 15691 231c 5F5F5553 		.ascii	"__USER_LABEL_PREFIX__ \000"
 15691      45525F4C 
 15691      4142454C 
 15691      5F505245 
 15691      4649585F 
 15692              	.LASF573:
 15693 2333 5F5F6174 		.ascii	"__attribute_malloc__ \000"
 15693      74726962 
 15693      7574655F 
 15693      6D616C6C 
 15693      6F635F5F 
 15694              	.LASF1159:
 15695 2349 53595343 		.ascii	"SYSCTL_POWERDOWN_SYSPLL_PD (1 << 7)\000"
 15695      544C5F50 
 15695      4F574552 
 15695      444F574E 
 15695      5F535953 
ARM GAS  /var/folders/z0/6xlwn_996xz3mwq1cgzkbq4r0000gp/T//ccBgBTlB.s 			page 318


 15696              	.LASF1280:
 15697 236d 55415254 		.ascii	"UART_MCR_BITMASK (0xD3)\000"
 15697      5F4D4352 
 15697      5F424954 
 15697      4D41534B 
 15697      20283078 
 15698              	.LASF447:
 15699 2385 5F53495A 		.ascii	"_SIZE_T_DECLARED \000"
 15699      455F545F 
 15699      4445434C 
 15699      41524544 
 15699      2000
 15700              	.LASF479:
 15701 2397 5F5F5F69 		.ascii	"___int16_t_defined 1\000"
 15701      6E743136 
 15701      5F745F64 
 15701      6566696E 
 15701      65642031 
 15702              	.LASF1661:
 15703 23ac 4353425F 		.ascii	"CSB_IDLE_OFF\000"
 15703      49444C45 
 15703      5F4F4646 
 15703      00
 15704              	.LASF1555:
 15705 23b9 4D593136 		.ascii	"MY16_CC_CELL_VOLTAGE_mV 4300\000"
 15705      5F43435F 
 15705      43454C4C 
 15705      5F564F4C 
 15705      54414745 
 15706              	.LASF1080:
 15707 23d6 5343425F 		.ascii	"SCB_BASE (SCS_BASE + 0x0D00UL)\000"
 15707      42415345 
 15707      20285343 
 15707      535F4241 
 15707      5345202B 
 15708              	.LASF655:
 15709 23f5 5F5F676E 		.ascii	"__gnu_inline __attribute__((__gnu_inline__, __artif"
 15709      755F696E 
 15709      6C696E65 
 15709      205F5F61 
 15709      74747269 
 15710 2428 69636961 		.ascii	"icial__))\000"
 15710      6C5F5F29 
 15710      2900
 15711              	.LASF397:
 15712 2432 5F424547 		.ascii	"_BEGIN_STD_C \000"
 15712      494E5F53 
 15712      54445F43 
 15712      2000
 15713              	.LASF268:
 15714 2440 5F5F5151 		.ascii	"__QQ_IBIT__ 0\000"
 15714      5F494249 
 15714      545F5F20 
 15714      3000
 15715              	.LASF1101:
 15716 244e 4C50435F 		.ascii	"LPC_SYSCTL_BASE 0x40048000\000"
 15716      53595343 
ARM GAS  /var/folders/z0/6xlwn_996xz3mwq1cgzkbq4r0000gp/T//ccBgBTlB.s 			page 319


 15716      544C5F42 
 15716      41534520 
 15716      30783430 
 15717              	.LASF1619:
 15718 2469 63635F63 		.ascii	"cc_cell_voltage_mV\000"
 15718      656C6C5F 
 15718      766F6C74 
 15718      6167655F 
 15718      6D5600
 15719              	.LASF1406:
 15720 247c 4932435F 		.ascii	"I2C_I2CONCLR_AAC ((1 << 2))\000"
 15720      4932434F 
 15720      4E434C52 
 15720      5F414143 
 15720      20282831 
 15721              	.LASF1447:
 15722 2498 4932435F 		.ascii	"I2C_I2STAT_S_TX_LAST_DAT_ACK ((0xC8))\000"
 15722      49325354 
 15722      41545F53 
 15722      5F54585F 
 15722      4C415354 
 15723              	.LASF667:
 15724 24be 5F5F4445 		.ascii	"__DECONST(type,var) ((type)(__uintptr_t)(const void"
 15724      434F4E53 
 15724      54287479 
 15724      70652C76 
 15724      61722920 
 15725 24f1 202A2928 		.ascii	" *)(var))\000"
 15725      76617229 
 15725      2900
 15726              	.LASF1271:
 15727 24fb 55415254 		.ascii	"UART_LCR_PARITY_F_0 (3 << 4)\000"
 15727      5F4C4352 
 15727      5F504152 
 15727      4954595F 
 15727      465F3020 
 15728              	.LASF146:
 15729 2518 5F5F4442 		.ascii	"__DBL_MIN__ ((double)2.2250738585072014e-308L)\000"
 15729      4C5F4D49 
 15729      4E5F5F20 
 15729      2828646F 
 15729      75626C65 
 15730              	.LASF1174:
 15731 2547 494F434F 		.ascii	"IOCON_MODE_REPEATER (0x3 << 3)\000"
 15731      4E5F4D4F 
 15731      44455F52 
 15731      45504541 
 15731      54455220 
 15732              	.LASF4:
 15733 2566 5F5F474E 		.ascii	"__GNUC_PATCHLEVEL__ 1\000"
 15733      55435F50 
 15733      41544348 
 15733      4C455645 
 15733      4C5F5F20 
 15734              	.LASF672:
 15735 257c 5F5F6C6F 		.ascii	"__lock_annotate(x) \000"
 15735      636B5F61 
ARM GAS  /var/folders/z0/6xlwn_996xz3mwq1cgzkbq4r0000gp/T//ccBgBTlB.s 			page 320


 15735      6E6E6F74 
 15735      61746528 
 15735      78292000 
 15736              	.LASF109:
 15737 2590 5F5F494E 		.ascii	"__INT_FAST8_MAX__ 0x7fffffff\000"
 15737      545F4641 
 15737      5354385F 
 15737      4D41585F 
 15737      5F203078 
 15738              	.LASF455:
 15739 25ad 5F574348 		.ascii	"_WCHAR_T \000"
 15739      41525F54 
 15739      2000
 15740              	.LASF1201:
 15741 25b7 46554E43 		.ascii	"FUNC3 0x3\000"
 15741      33203078 
 15741      3300
 15742              	.LASF793:
 15743 25c1 494E545F 		.ascii	"INT_FAST16_MAX (__INT_FAST16_MAX__)\000"
 15743      46415354 
 15743      31365F4D 
 15743      41582028 
 15743      5F5F494E 
 15744              	.LASF1219:
 15745 25e5 5F5F5249 		.ascii	"__RING_BUFFER_H_ \000"
 15745      4E475F42 
 15745      55464645 
 15745      525F485F 
 15745      2000
 15746              	.LASF1370:
 15747 25f7 5353505F 		.ascii	"SSP_MASTER_MODE SSP_CR1_MASTER_EN\000"
 15747      4D415354 
 15747      45525F4D 
 15747      4F444520 
 15747      5353505F 
 15748              	.LASF1581:
 15749 2619 43414E5F 		.ascii	"CAN_BMSERRORS_OTHER\000"
 15749      424D5345 
 15749      52524F52 
 15749      535F4F54 
 15749      48455200 
 15750              	.LASF949:
 15751 262d 5F5F5F5F 		.ascii	"____ELCONCOMMAND__CONTROL__stop 0\000"
 15751      454C434F 
 15751      4E434F4D 
 15751      4D414E44 
 15751      5F5F434F 
 15752              	.LASF1257:
 15753 264f 55415254 		.ascii	"UART_FCR_TRG_LEV3 (3 << 6)\000"
 15753      5F464352 
 15753      5F545247 
 15753      5F4C4556 
 15753      33202833 
 15754              	.LASF159:
 15755 266a 5F5F4C44 		.ascii	"__LDBL_MAX__ 1.7976931348623157e+308L\000"
 15755      424C5F4D 
 15755      41585F5F 
ARM GAS  /var/folders/z0/6xlwn_996xz3mwq1cgzkbq4r0000gp/T//ccBgBTlB.s 			page 321


 15755      20312E37 
 15755      39373639 
 15756              	.LASF1241:
 15757 2690 55415254 		.ascii	"UART_IIR_BITMASK (0x3CF)\000"
 15757      5F494952 
 15757      5F424954 
 15757      4D41534B 
 15757      20283078 
 15758              	.LASF976:
 15759 26a9 5F534246 		.ascii	"_SBF\000"
 15759      00
 15760              	.LASF1588:
 15761 26ae 43414E5F 		.ascii	"CAN_BMSERRORS_CAN\000"
 15761      424D5345 
 15761      52524F52 
 15761      535F4341 
 15761      4E00
 15762              	.LASF260:
 15763 26c0 5F5F4C4C 		.ascii	"__LLACCUM_MAX__ 0X7FFFFFFFFFFFFFFFP-31LLK\000"
 15763      41434355 
 15763      4D5F4D41 
 15763      585F5F20 
 15763      30583746 
 15764              	.LASF1459:
 15765 26ea 4932435F 		.ascii	"I2C_I2SCLH_BITMASK ((0xFFFF))\000"
 15765      49325343 
 15765      4C485F42 
 15765      49544D41 
 15765      534B2028 
 15766              	.LASF1267:
 15767 2708 55415254 		.ascii	"UART_LCR_PARITY_DIS (0 << 3)\000"
 15767      5F4C4352 
 15767      5F504152 
 15767      4954595F 
 15767      44495320 
 15768              	.LASF154:
 15769 2725 5F5F4C44 		.ascii	"__LDBL_MIN_EXP__ (-1021)\000"
 15769      424C5F4D 
 15769      494E5F45 
 15769      58505F5F 
 15769      20282D31 
 15770              	.LASF1359:
 15771 273e 5353505F 		.ascii	"SSP_CR1_SO_DISABLE ((uint32_t) (1 << 3))\000"
 15771      4352315F 
 15771      534F5F44 
 15771      49534142 
 15771      4C452028 
 15772              	.LASF1643:
 15773 2767 4353425F 		.ascii	"CSB_SSM_MODE_BALANCE\000"
 15773      53534D5F 
 15773      4D4F4445 
 15773      5F42414C 
 15773      414E4345 
 15774              	.LASF1345:
 15775 277c 5353505F 		.ascii	"SSP_CR0_DSS(n) ((uint32_t) ((n) & 0xF))\000"
 15775      4352305F 
 15775      44535328 
ARM GAS  /var/folders/z0/6xlwn_996xz3mwq1cgzkbq4r0000gp/T//ccBgBTlB.s 			page 322


 15775      6E292028 
 15775      2875696E 
 15776              	.LASF204:
 15777 27a4 5F5F5546 		.ascii	"__UFRACT_MIN__ 0.0UR\000"
 15777      52414354 
 15777      5F4D494E 
 15777      5F5F2030 
 15777      2E305552 
 15778              	.LASF722:
 15779 27b9 5F5F696E 		.ascii	"__int20 +2\000"
 15779      74323020 
 15779      2B3200
 15780              	.LASF1635:
 15781 27c4 656C636F 		.ascii	"elcon_battery_voltage_not_detected\000"
 15781      6E5F6261 
 15781      74746572 
 15781      795F766F 
 15781      6C746167 
 15782              	.LASF1330:
 15783 27e7 55415254 		.ascii	"UART_SYNCCTRL_SYNC (1 << 0)\000"
 15783      5F53594E 
 15783      43435452 
 15783      4C5F5359 
 15783      4E432028 
 15784              	.LASF787:
 15785 2803 494E545F 		.ascii	"INT_LEAST64_MAX (__INT_LEAST64_MAX__)\000"
 15785      4C454153 
 15785      5436345F 
 15785      4D415820 
 15785      285F5F49 
 15786              	.LASF1534:
 15787 2829 4D593138 		.ascii	"MY18_CELL_MAX_mV 4250\000"
 15787      5F43454C 
 15787      4C5F4D41 
 15787      585F6D56 
 15787      20343235 
 15788              	.LASF127:
 15789 283f 5F5F464C 		.ascii	"__FLT_MIN_10_EXP__ (-37)\000"
 15789      545F4D49 
 15789      4E5F3130 
 15789      5F455850 
 15789      5F5F2028 
 15790              	.LASF1662:
 15791 2858 4353425F 		.ascii	"CSB_IDLE_ON\000"
 15791      49444C45 
 15791      5F4F4E00 
 15792              	.LASF1760:
 15793 2864 666F756E 		.ascii	"found_command\000"
 15793      645F636F 
 15793      6D6D616E 
 15793      6400
 15794              	.LASF1076:
 15795 2872 53797354 		.ascii	"SysTick_CALIB_TENMS_Msk (0xFFFFFFUL << SysTick_VAL_"
 15795      69636B5F 
 15795      43414C49 
 15795      425F5445 
 15795      4E4D535F 
ARM GAS  /var/folders/z0/6xlwn_996xz3mwq1cgzkbq4r0000gp/T//ccBgBTlB.s 			page 323


 15796 28a5 43555252 		.ascii	"CURRENT_Pos)\000"
 15796      454E545F 
 15796      506F7329 
 15796      00
 15797              	.LASF831:
 15798 28b2 5F52494E 		.ascii	"_RING_HISTORY_LEN 64\000"
 15798      475F4849 
 15798      53544F52 
 15798      595F4C45 
 15798      4E203634 
 15799              	.LASF1568:
 15800 28c7 5F5F7569 		.ascii	"__uint16_t\000"
 15800      6E743136 
 15800      5F7400
 15801              	.LASF149:
 15802 28d2 5F5F4442 		.ascii	"__DBL_HAS_DENORM__ 1\000"
 15802      4C5F4841 
 15802      535F4445 
 15802      4E4F524D 
 15802      5F5F2031 
 15803              	.LASF284:
 15804 28e7 5F5F5544 		.ascii	"__UDQ_IBIT__ 0\000"
 15804      515F4942 
 15804      49545F5F 
 15804      203000
 15805              	.LASF138:
 15806 28f6 5F5F4442 		.ascii	"__DBL_MANT_DIG__ 53\000"
 15806      4C5F4D41 
 15806      4E545F44 
 15806      49475F5F 
 15806      20353300 
 15807              	.LASF229:
 15808 290a 5F5F5341 		.ascii	"__SACCUM_MIN__ (-0X1P7HK-0X1P7HK)\000"
 15808      4343554D 
 15808      5F4D494E 
 15808      5F5F2028 
 15808      2D305831 
 15809              	.LASF1791:
 15810 292c 474E5520 		.ascii	"GNU C89 5.4.1 20160919 (release) [ARM/embedded-5-br"
 15810      43383920 
 15810      352E342E 
 15810      31203230 
 15810      31363039 
 15811 295f 616E6368 		.ascii	"anch revision 240496] -mcpu=cortex-m0 -mthumb -g -g"
 15811      20726576 
 15811      6973696F 
 15811      6E203234 
 15811      30343936 
 15812 2992 67646233 		.ascii	"gdb3 -O2 -std=gnu90 -ffunction-sections -fdata-sect"
 15812      202D4F32 
 15812      202D7374 
 15812      643D676E 
 15812      75393020 
 15813 29c5 696F6E73 		.ascii	"ions\000"
 15813      00
 15814              	.LASF713:
 15815 29ca 7369676E 		.ascii	"signed\000"
ARM GAS  /var/folders/z0/6xlwn_996xz3mwq1cgzkbq4r0000gp/T//ccBgBTlB.s 			page 324


 15815      656400
 15816              	.LASF662:
 15817 29d1 5F5F4642 		.ascii	"__FBSDID(s) struct __hack\000"
 15817      53444944 
 15817      28732920 
 15817      73747275 
 15817      6374205F 
 15818              	.LASF741:
 15819 29eb 5F55494E 		.ascii	"_UINT8_T_DECLARED \000"
 15819      54385F54 
 15819      5F444543 
 15819      4C415245 
 15819      442000
 15820              	.LASF1495:
 15821 29fe 53444F5F 		.ascii	"SDO_ABORT_READONLY 0x06010002UL\000"
 15821      41424F52 
 15821      545F5245 
 15821      41444F4E 
 15821      4C592030 
 15822              	.LASF1123:
 15823 2a1e 4C50435F 		.ascii	"LPC_SYSCTL ((LPC_SYSCTL_T *) LPC_SYSCTL_BASE)\000"
 15823      53595343 
 15823      544C2028 
 15823      284C5043 
 15823      5F535953 
 15824              	.LASF264:
 15825 2a4c 5F5F554C 		.ascii	"__ULLACCUM_MIN__ 0.0ULLK\000"
 15825      4C414343 
 15825      554D5F4D 
 15825      494E5F5F 
 15825      20302E30 
 15826              	.LASF929:
 15827 2a65 5F5F5F5F 		.ascii	"____BMSERRORS__TYPE__CELL_UNDER_TEMP 7\000"
 15827      424D5345 
 15827      52524F52 
 15827      535F5F54 
 15827      5950455F 
 15828              	.LASF1122:
 15829 2a8c 4C50435F 		.ascii	"LPC_IOCON ((LPC_IOCON_T *) LPC_IOCON_BASE)\000"
 15829      494F434F 
 15829      4E202828 
 15829      4C50435F 
 15829      494F434F 
 15830              	.LASF771:
 15831 2ab7 494E5431 		.ascii	"INT16_MIN (-__INT16_MAX__ - 1)\000"
 15831      365F4D49 
 15831      4E20282D 
 15831      5F5F494E 
 15831      5431365F 
 15832              	.LASF954:
 15833 2ad6 5F5F5F5F 		.ascii	"____BMS_MODE__REQUESTED_MODE__IDLE 2\000"
 15833      424D535F 
 15833      4D4F4445 
 15833      5F5F5245 
 15833      51554553 
 15834              	.LASF171:
 15835 2afb 5F5F4445 		.ascii	"__DEC32_EPSILON__ 1E-6DF\000"
ARM GAS  /var/folders/z0/6xlwn_996xz3mwq1cgzkbq4r0000gp/T//ccBgBTlB.s 			page 325


 15835      4333325F 
 15835      45505349 
 15835      4C4F4E5F 
 15835      5F203145 
 15836              	.LASF1682:
 15837 2b14 696E6974 		.ascii	"init_state\000"
 15837      5F737461 
 15837      746500
 15838              	.LASF1134:
 15839 2b1f 5F5F464D 		.ascii	"__FMC_11XX_H_ \000"
 15839      435F3131 
 15839      58585F48 
 15839      5F2000
 15840              	.LASF1704:
 15841 2b2e 52574C5F 		.ascii	"RWL_bal_on_thresh_mV\000"
 15841      62616C5F 
 15841      6F6E5F74 
 15841      68726573 
 15841      685F6D56 
 15842              	.LASF1349:
 15843 2b43 5353505F 		.ascii	"SSP_CR0_CPOL_LO ((uint32_t) (0))\000"
 15843      4352305F 
 15843      43504F4C 
 15843      5F4C4F20 
 15843      28287569 
 15844              	.LASF213:
 15845 2b64 5F5F554C 		.ascii	"__ULFRACT_IBIT__ 0\000"
 15845      46524143 
 15845      545F4942 
 15845      49545F5F 
 15845      203000
 15846              	.LASF374:
 15847 2b77 5F504F53 		.ascii	"_POSIX_SOURCE\000"
 15847      49585F53 
 15847      4F555243 
 15847      4500
 15848              	.LASF451:
 15849 2b85 5F5F7369 		.ascii	"__size_t \000"
 15849      7A655F74 
 15849      2000
 15850              	.LASF75:
 15851 2b8f 5F5F5749 		.ascii	"__WINT_MAX__ 0xffffffffU\000"
 15851      4E545F4D 
 15851      41585F5F 
 15851      20307866 
 15851      66666666 
 15852              	.LASF931:
 15853 2ba8 424D5345 		.ascii	"BMSERRORS__freq 50\000"
 15853      52524F52 
 15853      535F5F66 
 15853      72657120 
 15853      353000
 15854              	.LASF1716:
 15855 2bbb 72775F6C 		.ascii	"rw_loc_label_t\000"
 15855      6F635F6C 
 15855      6162656C 
 15855      5F7400
ARM GAS  /var/folders/z0/6xlwn_996xz3mwq1cgzkbq4r0000gp/T//ccBgBTlB.s 			page 326


 15856              	.LASF1240:
 15857 2bca 55415254 		.ascii	"UART_IIR_ABTO_INT (1 << 9)\000"
 15857      5F494952 
 15857      5F414254 
 15857      4F5F494E 
 15857      54202831 
 15858              	.LASF905:
 15859 2be5 5F5F5F5F 		.ascii	"____DASH_REQUEST__TYPE__ACTIVE_AERO_DISABLE 8\000"
 15859      44415348 
 15859      5F524551 
 15859      55455354 
 15859      5F5F5459 
 15860              	.LASF1765:
 15861 2c13 7072696E 		.ascii	"printPackVoltage\000"
 15861      74506163 
 15861      6B566F6C 
 15861      74616765 
 15861      00
 15862              	.LASF232:
 15863 2c24 5F5F5553 		.ascii	"__USACCUM_FBIT__ 8\000"
 15863      41434355 
 15863      4D5F4642 
 15863      49545F5F 
 15863      203800
 15864              	.LASF1416:
 15865 2c37 4932435F 		.ascii	"I2C_STAT_CODE_BITMASK ((0xF8))\000"
 15865      53544154 
 15865      5F434F44 
 15865      455F4249 
 15865      544D4153 
 15866              	.LASF1165:
 15867 2c56 494F434F 		.ascii	"IOCON_FUNC2 0x2\000"
 15867      4E5F4655 
 15867      4E433220 
 15867      30783200 
 15868              	.LASF1796:
 15869 2c66 4F736352 		.ascii	"OscRateIn\000"
 15869      61746549 
 15869      6E00
 15870              	.LASF316:
 15871 2c70 5F5F4743 		.ascii	"__GCC_ATOMIC_TEST_AND_SET_TRUEVAL 1\000"
 15871      435F4154 
 15871      4F4D4943 
 15871      5F544553 
 15871      545F414E 
 15872              	.LASF774:
 15873 2c94 494E545F 		.ascii	"INT_LEAST16_MIN (-__INT_LEAST16_MAX__ - 1)\000"
 15873      4C454153 
 15873      5431365F 
 15873      4D494E20 
 15873      282D5F5F 
 15874              	.LASF133:
 15875 2cbf 5F5F464C 		.ascii	"__FLT_EPSILON__ 1.1920928955078125e-7F\000"
 15875      545F4550 
 15875      53494C4F 
 15875      4E5F5F20 
 15875      312E3139 
ARM GAS  /var/folders/z0/6xlwn_996xz3mwq1cgzkbq4r0000gp/T//ccBgBTlB.s 			page 327


 15876              	.LASF588:
 15877 2ce6 5F5F474E 		.ascii	"__GNUCLIKE___OFFSETOF 1\000"
 15877      55434C49 
 15877      4B455F5F 
 15877      5F4F4646 
 15877      5345544F 
 15878              	.LASF838:
 15879 2cfe 4B45595F 		.ascii	"KEY_STX 2\000"
 15879      53545820 
 15879      3200
 15880              	.LASF1607:
 15881 2d08 424D535F 		.ascii	"BMS_PACK_STATUS\000"
 15881      5041434B 
 15881      5F535441 
 15881      54555300 
 15882              	.LASF1387:
 15883 2d18 4144435F 		.ascii	"ADC_CR_START_CTOUT15 ((2UL << 24))\000"
 15883      43525F53 
 15883      54415254 
 15883      5F43544F 
 15883      55543135 
 15884              	.LASF102:
 15885 2d3b 5F5F5549 		.ascii	"__UINT8_C(c) c\000"
 15885      4E54385F 
 15885      43286329 
 15885      206300
 15886              	.LASF1353:
 15887 2d4a 5353505F 		.ascii	"SSP_CR0_SCR(n) ((uint32_t) ((n & 0xFF) << 8))\000"
 15887      4352305F 
 15887      53435228 
 15887      6E292028 
 15887      2875696E 
 15888              	.LASF1496:
 15889 2d78 53444F5F 		.ascii	"SDO_ABORT_NOT_EXISTS 0x06020000UL\000"
 15889      41424F52 
 15889      545F4E4F 
 15889      545F4558 
 15889      49535453 
 15890              	.LASF600:
 15891 2d9a 5F5F4343 		.ascii	"__CC_SUPPORTS_INLINE 1\000"
 15891      5F535550 
 15891      504F5254 
 15891      535F494E 
 15891      4C494E45 
 15892              	.LASF1504:
 15893 2db1 53444F5F 		.ascii	"SDO_ABORT_DEVSTAT 0x08000022UL\000"
 15893      41424F52 
 15893      545F4445 
 15893      56535441 
 15893      54203078 
 15894              	.LASF1429:
 15895 2dd0 4932435F 		.ascii	"I2C_I2STAT_M_RX_ARB_LOST ((0x38))\000"
 15895      49325354 
 15895      41545F4D 
 15895      5F52585F 
 15895      4152425F 
 15896              	.LASF737:
ARM GAS  /var/folders/z0/6xlwn_996xz3mwq1cgzkbq4r0000gp/T//ccBgBTlB.s 			page 328


 15897 2df2 5F5F4C45 		.ascii	"__LEAST32 \"l\"\000"
 15897      41535433 
 15897      3220226C 
 15897      2200
 15898              	.LASF1203:
 15899 2e00 46554E43 		.ascii	"FUNC5 0x5\000"
 15899      35203078 
 15899      3500
 15900              	.LASF1746:
 15901 2e0a 636F6D6D 		.ascii	"command_i\000"
 15901      616E645F 
 15901      6900
 15902              	.LASF1355:
 15903 2e14 5353505F 		.ascii	"SSP_CR1_LBM_EN ((uint32_t) (1 << 0))\000"
 15903      4352315F 
 15903      4C424D5F 
 15903      454E2028 
 15903      2875696E 
 15904              	.LASF215:
 15905 2e39 5F5F554C 		.ascii	"__ULFRACT_MAX__ 0XFFFFFFFFP-32ULR\000"
 15905      46524143 
 15905      545F4D41 
 15905      585F5F20 
 15905      30584646 
 15906              	.LASF615:
 15907 2e5b 5F5F7765 		.ascii	"__weak_symbol __attribute__((__weak__))\000"
 15907      616B5F73 
 15907      796D626F 
 15907      6C205F5F 
 15907      61747472 
 15908              	.LASF576:
 15909 2e83 5F5F666C 		.ascii	"__flexarr [0]\000"
 15909      65786172 
 15909      72205B30 
 15909      5D00
 15910              	.LASF1466:
 15911 2e91 4932435F 		.ascii	"I2C_BYTE_RECV 0x02\000"
 15911      42595445 
 15911      5F524543 
 15911      56203078 
 15911      303200
 15912              	.LASF951:
 15913 2ea4 454C434F 		.ascii	"ELCONCOMMAND__freq 1\000"
 15913      4E434F4D 
 15913      4D414E44 
 15913      5F5F6672 
 15913      65712031 
 15914              	.LASF224:
 15915 2eb9 5F5F554C 		.ascii	"__ULLFRACT_MIN__ 0.0ULLR\000"
 15915      4C465241 
 15915      43545F4D 
 15915      494E5F5F 
 15915      20302E30 
 15916              	.LASF1036:
 15917 2ed2 5343425F 		.ascii	"SCB_ICSR_VECTACTIVE_Msk (0x1FFUL << SCB_ICSR_VECTAC"
 15917      49435352 
 15917      5F564543 
ARM GAS  /var/folders/z0/6xlwn_996xz3mwq1cgzkbq4r0000gp/T//ccBgBTlB.s 			page 329


 15917      54414354 
 15917      4956455F 
 15918 2f05 54495645 		.ascii	"TIVE_Pos)\000"
 15918      5F506F73 
 15918      2900
 15919              	.LASF1565:
 15920 2f0f 756E7369 		.ascii	"unsigned char\000"
 15920      676E6564 
 15920      20636861 
 15920      7200
 15921              	.LASF1667:
 15922 2f1d 6D6F6465 		.ascii	"mode_request\000"
 15922      5F726571 
 15922      75657374 
 15922      00
 15923              	.LASF973:
 15924 2f2a 50415241 		.ascii	"PARAM_FUNCTIONALSTATE(State) ((State == DISABLE) ||"
 15924      4D5F4655 
 15924      4E435449 
 15924      4F4E414C 
 15924      53544154 
 15925 2f5d 20285374 		.ascii	" (State == ENABLE))\000"
 15925      61746520 
 15925      3D3D2045 
 15925      4E41424C 
 15925      45292900 
 15926              	.LASF1610:
 15927 2f71 63656C6C 		.ascii	"cell_max_mV\000"
 15927      5F6D6178 
 15927      5F6D5600 
 15928              	.LASF421:
 15929 2f7d 5F535953 		.ascii	"_SYS_REENT_H_ \000"
 15929      5F524545 
 15929      4E545F48 
 15929      5F2000
 15930              	.LASF404:
 15931 2f8c 5F564F4C 		.ascii	"_VOLATILE volatile\000"
 15931      4154494C 
 15931      4520766F 
 15931      6C617469 
 15931      6C6500
 15932              	.LASF1338:
 15933 2f9f 57574454 		.ascii	"WWDT_WDMOD_BITMASK ((uint32_t) 0x1F)\000"
 15933      5F57444D 
 15933      4F445F42 
 15933      49544D41 
 15933      534B2028 
 15934              	.LASF24:
 15935 2fc4 5F5F4F52 		.ascii	"__ORDER_LITTLE_ENDIAN__ 1234\000"
 15935      4445525F 
 15935      4C495454 
 15935      4C455F45 
 15935      4E444941 
 15936              	.LASF433:
 15937 2fe1 5F505452 		.ascii	"_PTRDIFF_T_DECLARED \000"
 15937      44494646 
 15937      5F545F44 
ARM GAS  /var/folders/z0/6xlwn_996xz3mwq1cgzkbq4r0000gp/T//ccBgBTlB.s 			page 330


 15937      45434C41 
 15937      52454420 
 15938              	.LASF536:
 15939 2ff6 5F524545 		.ascii	"_REENT_SIGNGAM(ptr) ((ptr)->_new._reent._gamma_sign"
 15939      4E545F53 
 15939      49474E47 
 15939      414D2870 
 15939      74722920 
 15940 3029 67616D29 		.ascii	"gam)\000"
 15940      00
 15941              	.LASF1469:
 15942 302e 4932435F 		.ascii	"I2C_RECV_END 0x10\000"
 15942      52454356 
 15942      5F454E44 
 15942      20307831 
 15942      3000
 15943              	.LASF1253:
 15944 3040 55415254 		.ascii	"UART_TX_FIFO_SIZE (16)\000"
 15944      5F54585F 
 15944      4649464F 
 15944      5F53495A 
 15944      45202831 
 15945              	.LASF1571:
 15946 3057 5F5F7569 		.ascii	"__uint32_t\000"
 15946      6E743332 
 15946      5F7400
 15947              	.LASF125:
 15948 3062 5F5F464C 		.ascii	"__FLT_DIG__ 6\000"
 15948      545F4449 
 15948      475F5F20 
 15948      3600
 15949              	.LASF1541:
 15950 3070 4D593138 		.ascii	"MY18_CV_MIN_CURRENT_mA 100\000"
 15950      5F43565F 
 15950      4D494E5F 
 15950      43555252 
 15950      454E545F 
 15951              	.LASF731:
 15952 308b 5F5F4641 		.ascii	"__FAST8 \000"
 15952      53543820 
 15952      00
 15953              	.LASF124:
 15954 3094 5F5F464C 		.ascii	"__FLT_MANT_DIG__ 24\000"
 15954      545F4D41 
 15954      4E545F44 
 15954      49475F5F 
 15954      20323400 
 15955              	.LASF142:
 15956 30a8 5F5F4442 		.ascii	"__DBL_MAX_EXP__ 1024\000"
 15956      4C5F4D41 
 15956      585F4558 
 15956      505F5F20 
 15956      31303234 
 15957              	.LASF1615:
 15958 30bd 62616C5F 		.ascii	"bal_off_thresh_mV\000"
 15958      6F66665F 
 15958      74687265 
ARM GAS  /var/folders/z0/6xlwn_996xz3mwq1cgzkbq4r0000gp/T//ccBgBTlB.s 			page 331


 15958      73685F6D 
 15958      5600
 15959              	.LASF1111:
 15960 30cf 4C50435F 		.ascii	"LPC_I2C ((LPC_I2C_T *) LPC_I2C_BASE)\000"
 15960      49324320 
 15960      28284C50 
 15960      435F4932 
 15960      435F5420 
 15961              	.LASF1709:
 15962 30f4 52574C5F 		.ascii	"RWL_cc_cell_voltage_mV\000"
 15962      63635F63 
 15962      656C6C5F 
 15962      766F6C74 
 15962      6167655F 
 15963              	.LASF1679:
 15964 310b 4353425F 		.ascii	"CSB_STATE\000"
 15964      53544154 
 15964      4500
 15965              	.LASF218:
 15966 3115 5F5F4C4C 		.ascii	"__LLFRACT_IBIT__ 0\000"
 15966      46524143 
 15966      545F4942 
 15966      49545F5F 
 15966      203000
 15967              	.LASF103:
 15968 3128 5F5F5549 		.ascii	"__UINT_LEAST16_MAX__ 0xffff\000"
 15968      4E545F4C 
 15968      45415354 
 15968      31365F4D 
 15968      41585F5F 
 15969              	.LASF996:
 15970 3144 5F5F434D 		.ascii	"__CM0_CMSIS_VERSION_SUB (0x01)\000"
 15970      305F434D 
 15970      5349535F 
 15970      56455253 
 15970      494F4E5F 
 15971              	.LASF942:
 15972 3163 424D5353 		.ascii	"BMSSTATE__id 211\000"
 15972      54415445 
 15972      5F5F6964 
 15972      20323131 
 15972      00
 15973              	.LASF1058:
 15974 3174 5343425F 		.ascii	"SCB_SHCSR_SVCALLPENDED_Msk (1UL << SCB_SHCSR_SVCALL"
 15974      53484353 
 15974      525F5356 
 15974      43414C4C 
 15974      50454E44 
 15975 31a7 50454E44 		.ascii	"PENDED_Pos)\000"
 15975      45445F50 
 15975      6F732900 
 15976              	.LASF1601:
 15977 31b3 4D593136 		.ascii	"MY16_PACK\000"
 15977      5F504143 
 15977      4B00
 15978              	.LASF508:
 15979 31bd 5F434C4F 		.ascii	"_CLOCKID_T_ unsigned long\000"
ARM GAS  /var/folders/z0/6xlwn_996xz3mwq1cgzkbq4r0000gp/T//ccBgBTlB.s 			page 332


 15979      434B4944 
 15979      5F545F20 
 15979      756E7369 
 15979      676E6564 
 15980              	.LASF589:
 15981 31d7 5F5F474E 		.ascii	"__GNUCLIKE___SECTION 1\000"
 15981      55434C49 
 15981      4B455F5F 
 15981      5F534543 
 15981      54494F4E 
 15982              	.LASF1734:
 15983 31ee 45584543 		.ascii	"EXECUTE_HANDLER\000"
 15983      5554455F 
 15983      48414E44 
 15983      4C455200 
 15984              	.LASF21:
 15985 31fe 5F5F5349 		.ascii	"__SIZEOF_SIZE_T__ 4\000"
 15985      5A454F46 
 15985      5F53495A 
 15985      455F545F 
 15985      5F203400 
 15986              	.LASF184:
 15987 3212 5F5F4445 		.ascii	"__DEC128_MAX__ 9.999999999999999999999999999999999E"
 15987      43313238 
 15987      5F4D4158 
 15987      5F5F2039 
 15987      2E393939 
 15988 3245 36313434 		.ascii	"6144DL\000"
 15988      444C00
 15989              	.LASF1381:
 15990 324c 4144435F 		.ascii	"ADC_CR_CLKDIV(n) ((((n) & 0xFF) << 8))\000"
 15990      43525F43 
 15990      4C4B4449 
 15990      56286E29 
 15990      20282828 
 15991              	.LASF874:
 15992 3273 5F455343 		.ascii	"_ESC_END 3\000"
 15992      5F454E44 
 15992      203300
 15993              	.LASF1045:
 15994 327e 5343425F 		.ascii	"SCB_AIRCR_VECTCLRACTIVE_Pos 1\000"
 15994      41495243 
 15994      525F5645 
 15994      4354434C 
 15994      52414354 
 15995              	.LASF425:
 15996 329c 5F505452 		.ascii	"_PTRDIFF_T \000"
 15996      44494646 
 15996      5F542000 
 15997              	.LASF1295:
 15998 32a8 55415254 		.ascii	"UART_MSR_DELTA_DCD (1 << 3)\000"
 15998      5F4D5352 
 15998      5F44454C 
 15998      54415F44 
 15998      43442028 
 15999              	.LASF107:
 16000 32c4 5F5F5549 		.ascii	"__UINT_LEAST64_MAX__ 0xffffffffffffffffULL\000"
ARM GAS  /var/folders/z0/6xlwn_996xz3mwq1cgzkbq4r0000gp/T//ccBgBTlB.s 			page 333


 16000      4E545F4C 
 16000      45415354 
 16000      36345F4D 
 16000      41585F5F 
 16001              	.LASF1530:
 16002 32ef 5041434B 		.ascii	"PACK_VOLTAGE_PRINT_PERIOD_ms 1000\000"
 16002      5F564F4C 
 16002      54414745 
 16002      5F505249 
 16002      4E545F50 
 16003              	.LASF848:
 16004 3311 4B45595F 		.ascii	"KEY_FF 12\000"
 16004      46462031 
 16004      3200
 16005              	.LASF1035:
 16006 331b 5343425F 		.ascii	"SCB_ICSR_VECTACTIVE_Pos 0\000"
 16006      49435352 
 16006      5F564543 
 16006      54414354 
 16006      4956455F 
 16007              	.LASF652:
 16008 3335 5F5F666F 		.ascii	"__format_arg(fmtarg) __attribute__((__format_arg__ "
 16008      726D6174 
 16008      5F617267 
 16008      28666D74 
 16008      61726729 
 16009 3368 28666D74 		.ascii	"(fmtarg)))\000"
 16009      61726729 
 16009      292900
 16010              	.LASF1287:
 16011 3373 55415254 		.ascii	"UART_LSR_TEMT (1 << 6)\000"
 16011      5F4C5352 
 16011      5F54454D 
 16011      54202831 
 16011      203C3C20 
 16012              	.LASF829:
 16013 338a 5F50524F 		.ascii	"_PROMPT_LEN 3\000"
 16013      4D50545F 
 16013      4C454E20 
 16013      3300
 16014              	.LASF1324:
 16015 3398 55415254 		.ascii	"UART_SCICTRL_GUARDTIME(n) ((n & 0xFF) << 8)\000"
 16015      5F534349 
 16015      4354524C 
 16015      5F475541 
 16015      52445449 
 16016              	.LASF827:
 16017 33c4 5F434F4D 		.ascii	"_COMMAND_TOKEN_NMB 10\000"
 16017      4D414E44 
 16017      5F544F4B 
 16017      454E5F4E 
 16017      4D422031 
 16018              	.LASF837:
 16019 33da 4B45595F 		.ascii	"KEY_SOH 1\000"
 16019      534F4820 
 16019      3100
 16020              	.LASF888:
ARM GAS  /var/folders/z0/6xlwn_996xz3mwq1cgzkbq4r0000gp/T//ccBgBTlB.s 			page 334


 16021 33e4 43555252 		.ascii	"CURRENTSENSOR_VOLTAGE__id 1314\000"
 16021      454E5453 
 16021      454E534F 
 16021      525F564F 
 16021      4C544147 
 16022              	.LASF372:
 16023 3403 5F444546 		.ascii	"_DEFAULT_SOURCE\000"
 16023      41554C54 
 16023      5F534F55 
 16023      52434500 
 16024              	.LASF1337:
 16025 3413 5F5F5757 		.ascii	"__WWDT_11XX_H_ \000"
 16025      44545F31 
 16025      3158585F 
 16025      485F2000 
 16026              	.LASF680:
 16027 3423 5F5F6173 		.ascii	"__asserts_shared(...) __lock_annotate(assert_shared"
 16027      73657274 
 16027      735F7368 
 16027      61726564 
 16027      282E2E2E 
 16028 3456 5F6C6F63 		.ascii	"_lock(__VA_ARGS__))\000"
 16028      6B285F5F 
 16028      56415F41 
 16028      5247535F 
 16028      5F292900 
 16029              	.LASF1593:
 16030 346a 43414E5F 		.ascii	"CAN_BMSERRORS_EEPROM\000"
 16030      424D5345 
 16030      52524F52 
 16030      535F4545 
 16030      50524F4D 
 16031              	.LASF187:
 16032 347f 5F5F5346 		.ascii	"__SFRACT_FBIT__ 7\000"
 16032      52414354 
 16032      5F464249 
 16032      545F5F20 
 16032      3700
 16033              	.LASF1767:
 16034 3491 424D535F 		.ascii	"BMS_COMM_NAMES\000"
 16034      434F4D4D 
 16034      5F4E414D 
 16034      455300
 16035              	.LASF261:
 16036 34a0 5F5F4C4C 		.ascii	"__LLACCUM_EPSILON__ 0x1P-31LLK\000"
 16036      41434355 
 16036      4D5F4550 
 16036      53494C4F 
 16036      4E5F5F20 
 16037              	.LASF1710:
 16038 34bf 52574C5F 		.ascii	"RWL_cc_charge_voltage_mV\000"
 16038      63635F63 
 16038      68617267 
 16038      655F766F 
 16038      6C746167 
 16039              	.LASF815:
 16040 34d8 494E5431 		.ascii	"INT16_C(x) __INT16_C(x)\000"
ARM GAS  /var/folders/z0/6xlwn_996xz3mwq1cgzkbq4r0000gp/T//ccBgBTlB.s 			page 335


 16040      365F4328 
 16040      7829205F 
 16040      5F494E54 
 16040      31365F43 
 16041              	.LASF1681:
 16042 34f0 63757272 		.ascii	"curr_mode\000"
 16042      5F6D6F64 
 16042      6500
 16043              	.LASF1266:
 16044 34fa 55415254 		.ascii	"UART_LCR_PARITY_EN (1 << 3)\000"
 16044      5F4C4352 
 16044      5F504152 
 16044      4954595F 
 16044      454E2028 
 16045              	.LASF282:
 16046 3516 5F5F5553 		.ascii	"__USQ_IBIT__ 0\000"
 16046      515F4942 
 16046      49545F5F 
 16046      203000
 16047              	.LASF144:
 16048 3525 5F5F4442 		.ascii	"__DBL_DECIMAL_DIG__ 17\000"
 16048      4C5F4445 
 16048      43494D41 
 16048      4C5F4449 
 16048      475F5F20 
 16049              	.LASF756:
 16050 353c 5F5F696E 		.ascii	"__int_least32_t_defined 1\000"
 16050      745F6C65 
 16050      61737433 
 16050      325F745F 
 16050      64656669 
 16051              	.LASF1016:
 16052 3556 5343425F 		.ascii	"SCB_CPUID_PARTNO_Msk (0xFFFUL << SCB_CPUID_PARTNO_P"
 16052      43505549 
 16052      445F5041 
 16052      52544E4F 
 16052      5F4D736B 
 16053 3589 6F732900 		.ascii	"os)\000"
 16054              	.LASF863:
 16055 358d 4B45595F 		.ascii	"KEY_ESC 27\000"
 16055      45534320 
 16055      323700
 16056              	.LASF1720:
 16057 3598 524F4C5F 		.ascii	"ROL_pack_cell_max_mV\000"
 16057      7061636B 
 16057      5F63656C 
 16057      6C5F6D61 
 16057      785F6D56 
 16058              	.LASF1160:
 16059 35ad 5F5F434C 		.ascii	"__CLOCK_11XX_H_ \000"
 16059      4F434B5F 
 16059      31315858 
 16059      5F485F20 
 16059      00
 16060              	.LASF1546:
 16061 35be 4D593136 		.ascii	"MY16_CELL_MAX_mV 4250\000"
 16061      5F43454C 
ARM GAS  /var/folders/z0/6xlwn_996xz3mwq1cgzkbq4r0000gp/T//ccBgBTlB.s 			page 336


 16061      4C5F4D41 
 16061      585F6D56 
 16061      20343235 
 16062              	.LASF903:
 16063 35d4 5F5F5F5F 		.ascii	"____DASH_REQUEST__TYPE__ACTIVE_AERO_ENABLE 7\000"
 16063      44415348 
 16063      5F524551 
 16063      55455354 
 16063      5F5F5459 
 16064              	.LASF406:
 16065 3601 5F444F54 		.ascii	"_DOTS , ...\000"
 16065      53202C20 
 16065      2E2E2E00 
 16066              	.LASF1011:
 16067 360d 5343425F 		.ascii	"SCB_CPUID_VARIANT_Pos 20\000"
 16067      43505549 
 16067      445F5641 
 16067      5249414E 
 16067      545F506F 
 16068              	.LASF353:
 16069 3626 5F5F4E45 		.ascii	"__NEWLIB_MINOR__ 4\000"
 16069      574C4942 
 16069      5F4D494E 
 16069      4F525F5F 
 16069      203400
 16070              	.LASF1190:
 16071 3639 4D445F41 		.ascii	"MD_ADMODE (0x0 << 7)\000"
 16071      444D4F44 
 16071      45202830 
 16071      7830203C 
 16071      3C203729 
 16072              	.LASF1677:
 16073 364e 626D735F 		.ascii	"bms_error\000"
 16073      6572726F 
 16073      7200
 16074              	.LASF1777:
 16075 3658 796E5F6C 		.ascii	"yn_locstring\000"
 16075      6F637374 
 16075      72696E67 
 16075      00
 16076              	.LASF373:
 16077 3665 5F444546 		.ascii	"_DEFAULT_SOURCE 1\000"
 16077      41554C54 
 16077      5F534F55 
 16077      52434520 
 16077      3100
 16078              	.LASF461:
 16079 3677 5F574348 		.ascii	"_WCHAR_T_DEFINED_ \000"
 16079      41525F54 
 16079      5F444546 
 16079      494E4544 
 16079      5F2000
 16080              	.LASF465:
 16081 368a 5F5F494E 		.ascii	"__INT_WCHAR_T_H \000"
 16081      545F5743 
 16081      4841525F 
 16081      545F4820 
ARM GAS  /var/folders/z0/6xlwn_996xz3mwq1cgzkbq4r0000gp/T//ccBgBTlB.s 			page 337


 16081      00
 16082              	.LASF1377:
 16083 369b 4144435F 		.ascii	"ADC_CR_BITACC(n) ((((n) & 0x7) << 17))\000"
 16083      43525F42 
 16083      49544143 
 16083      43286E29 
 16083      20282828 
 16084              	.LASF577:
 16085 36c2 5F5F626F 		.ascii	"__bounded \000"
 16085      756E6465 
 16085      642000
 16086              	.LASF33:
 16087 36cd 5F5F5749 		.ascii	"__WINT_TYPE__ unsigned int\000"
 16087      4E545F54 
 16087      5950455F 
 16087      5F20756E 
 16087      7369676E 
 16088              	.LASF1115:
 16089 36e8 4C50435F 		.ascii	"LPC_TIMER16_1 ((LPC_TIMER_T *) LPC_TIMER16_1_BASE)\000"
 16089      54494D45 
 16089      5231365F 
 16089      31202828 
 16089      4C50435F 
 16090              	.LASF1771:
 16091 371b 4353425F 		.ascii	"CSB_IDLE_MODE_NAMES\000"
 16091      49444C45 
 16091      5F4D4F44 
 16091      455F4E41 
 16091      4D455300 
 16092              	.LASF482:
 16093 372f 5F5F5F69 		.ascii	"___int_least8_t_defined 1\000"
 16093      6E745F6C 
 16093      65617374 
 16093      385F745F 
 16093      64656669 
 16094              	.LASF1683:
 16095 3749 63686172 		.ascii	"charge_state\000"
 16095      67655F73 
 16095      74617465 
 16095      00
 16096              	.LASF5:
 16097 3756 5F5F5645 		.ascii	"__VERSION__ \"5.4.1 20160919 (release) [ARM/embedde"
 16097      5253494F 
 16097      4E5F5F20 
 16097      22352E34 
 16097      2E312032 
 16098 3788 642D352D 		.ascii	"d-5-branch revision 240496]\"\000"
 16098      6272616E 
 16098      63682072 
 16098      65766973 
 16098      696F6E20 
 16099              	.LASF1738:
 16100 37a5 6D656173 		.ascii	"measure_packcurrent\000"
 16100      7572655F 
 16100      7061636B 
 16100      63757272 
 16100      656E7400 
ARM GAS  /var/folders/z0/6xlwn_996xz3mwq1cgzkbq4r0000gp/T//ccBgBTlB.s 			page 338


 16101              	.LASF359:
 16102 37b9 5F415445 		.ascii	"_ATEXIT_DYNAMIC_ALLOC 1\000"
 16102      5849545F 
 16102      44594E41 
 16102      4D49435F 
 16102      414C4C4F 
 16103              	.LASF770:
 16104 37d1 55494E54 		.ascii	"UINT_LEAST8_MAX (__UINT_LEAST8_MAX__)\000"
 16104      5F4C4541 
 16104      5354385F 
 16104      4D415820 
 16104      285F5F55 
 16105              	.LASF86:
 16106 37f7 5F5F494E 		.ascii	"__INT16_MAX__ 0x7fff\000"
 16106      5431365F 
 16106      4D41585F 
 16106      5F203078 
 16106      37666666 
 16107              	.LASF256:
 16108 380c 5F5F554C 		.ascii	"__ULACCUM_EPSILON__ 0x1P-32ULK\000"
 16108      41434355 
 16108      4D5F4550 
 16108      53494C4F 
 16108      4E5F5F20 
 16109              	.LASF826:
 16110 382b 5F434F4D 		.ascii	"_COMMAND_LINE_LEN (1+50)\000"
 16110      4D414E44 
 16110      5F4C494E 
 16110      455F4C45 
 16110      4E202831 
 16111              	.LASF1391:
 16112 3844 4144435F 		.ascii	"ADC_CR_START_MCOA2 ((6UL << 24))\000"
 16112      43525F53 
 16112      54415254 
 16112      5F4D434F 
 16112      41322028 
 16113              	.LASF1185:
 16114 3865 4D445F50 		.ascii	"MD_PDN (0x1 << 3)\000"
 16114      444E2028 
 16114      30783120 
 16114      3C3C2033 
 16114      2900
 16115              	.LASF1502:
 16116 3877 53444F5F 		.ascii	"SDO_ABORT_TRANSFER 0x08000020UL\000"
 16116      41424F52 
 16116      545F5452 
 16116      414E5346 
 16116      45522030 
 16117              	.LASF679:
 16118 3897 5F5F6173 		.ascii	"__asserts_exclusive(...) __lock_annotate(assert_exc"
 16118      73657274 
 16118      735F6578 
 16118      636C7573 
 16118      69766528 
 16119 38ca 6C757369 		.ascii	"lusive_lock(__VA_ARGS__))\000"
 16119      76655F6C 
 16119      6F636B28 
ARM GAS  /var/folders/z0/6xlwn_996xz3mwq1cgzkbq4r0000gp/T//ccBgBTlB.s 			page 339


 16119      5F5F5641 
 16119      5F415247 
 16120              	.LASF1200:
 16121 38e4 46554E43 		.ascii	"FUNC2 0x2\000"
 16121      32203078 
 16121      3200
 16122              	.LASF959:
 16123 38ee 5F43414E 		.ascii	"_CAN_LIBRARY_DASH_H \000"
 16123      5F4C4942 
 16123      52415259 
 16123      5F444153 
 16123      485F4820 
 16124              	.LASF867:
 16125 3903 4B45595F 		.ascii	"KEY_US 31\000"
 16125      55532033 
 16125      3100
 16126              	.LASF644:
 16127 390d 5F5F7365 		.ascii	"__sentinel __attribute__((__sentinel__))\000"
 16127      6E74696E 
 16127      656C205F 
 16127      5F617474 
 16127      72696275 
 16128              	.LASF1037:
 16129 3936 5343425F 		.ascii	"SCB_AIRCR_VECTKEY_Pos 16\000"
 16129      41495243 
 16129      525F5645 
 16129      43544B45 
 16129      595F506F 
 16130              	.LASF595:
 16131 394f 5F5F474E 		.ascii	"__GNUC_VA_LIST_COMPATIBILITY 1\000"
 16131      55435F56 
 16131      415F4C49 
 16131      53545F43 
 16131      4F4D5041 
 16132              	.LASF1087:
 16133 396e 4C50435F 		.ascii	"LPC_I2C_BASE 0x40000000\000"
 16133      4932435F 
 16133      42415345 
 16133      20307834 
 16133      30303030 
 16134              	.LASF1227:
 16135 3986 55415254 		.ascii	"UART_IER_RBRINT (1 << 0)\000"
 16135      5F494552 
 16135      5F524252 
 16135      494E5420 
 16135      2831203C 
 16136              	.LASF1432:
 16137 399f 4932435F 		.ascii	"I2C_I2STAT_M_RX_DAT_ACK ((0x50))\000"
 16137      49325354 
 16137      41545F4D 
 16137      5F52585F 
 16137      4441545F 
 16138              	.LASF1599:
 16139 39c0 424D535F 		.ascii	"BMS_PACK_STATUS_T\000"
 16139      5041434B 
 16139      5F535441 
 16139      5455535F 
ARM GAS  /var/folders/z0/6xlwn_996xz3mwq1cgzkbq4r0000gp/T//ccBgBTlB.s 			page 340


 16139      5400
 16140              	.LASF1346:
 16141 39d2 5353505F 		.ascii	"SSP_CR0_FRF_SPI ((uint32_t) (0 << 4))\000"
 16141      4352305F 
 16141      4652465F 
 16141      53504920 
 16141      28287569 
 16142              	.LASF1748:
 16143 39f8 72776C6F 		.ascii	"rwloc\000"
 16143      6300
 16144              	.LASF325:
 16145 39fe 5F5F4152 		.ascii	"__ARM_ARCH_PROFILE 77\000"
 16145      4D5F4152 
 16145      43485F50 
 16145      524F4649 
 16145      4C452037 
 16146              	.LASF598:
 16147 3a14 5F5F474E 		.ascii	"__GNUCLIKE_MATH_BUILTIN_RELOPS \000"
 16147      55434C49 
 16147      4B455F4D 
 16147      4154485F 
 16147      4255494C 
 16148              	.LASF1073:
 16149 3a34 53797354 		.ascii	"SysTick_CALIB_SKEW_Pos 30\000"
 16149      69636B5F 
 16149      43414C49 
 16149      425F534B 
 16149      45575F50 
 16150              	.LASF1232:
 16151 3a4e 55415254 		.ascii	"UART_IER_ABEOINT (1 << 8)\000"
 16151      5F494552 
 16151      5F414245 
 16151      4F494E54 
 16151      20283120 
 16152              	.LASF986:
 16153 3a68 494E4C49 		.ascii	"INLINE inline\000"
 16153      4E452069 
 16153      6E6C696E 
 16153      6500
 16154              	.LASF744:
 16155 3a76 5F55494E 		.ascii	"_UINT16_T_DECLARED \000"
 16155      5431365F 
 16155      545F4445 
 16155      434C4152 
 16155      45442000 
 16156              	.LASF881:
 16157 3a8a 4445434C 		.ascii	"DECLARE(name) Can_ErrorID_T name ##_Read(name ## _T"
 16157      41524528 
 16157      6E616D65 
 16157      29204361 
 16157      6E5F4572 
 16158 3abd 202A7479 		.ascii	" *type); Can_ErrorID_T name ##_Write(name ## _T *ty"
 16158      7065293B 
 16158      2043616E 
 16158      5F457272 
 16158      6F724944 
 16159 3af0 7065293B 		.ascii	"pe); TO_CAN(name); FROM_CAN(name);\000"
ARM GAS  /var/folders/z0/6xlwn_996xz3mwq1cgzkbq4r0000gp/T//ccBgBTlB.s 			page 341


 16159      20544F5F 
 16159      43414E28 
 16159      6E616D65 
 16159      293B2046 
 16160              	.LASF1501:
 16161 3b13 53444F5F 		.ascii	"SDO_ABORT_VALUE_RANGE 0x06090030UL\000"
 16161      41424F52 
 16161      545F5641 
 16161      4C55455F 
 16161      52414E47 
 16162              	.LASF253:
 16163 3b36 5F5F554C 		.ascii	"__ULACCUM_IBIT__ 32\000"
 16163      41434355 
 16163      4D5F4942 
 16163      49545F5F 
 16163      20333200 
 16164              	.LASF1515:
 16165 3b4a 43414E5F 		.ascii	"CAN_SDOSEG_SEGMENT 0\000"
 16165      53444F53 
 16165      45475F53 
 16165      45474D45 
 16165      4E542030 
 16166              	.LASF1548:
 16167 3b5f 4D593136 		.ascii	"MY16_NUM_MODULES 6\000"
 16167      5F4E554D 
 16167      5F4D4F44 
 16167      554C4553 
 16167      203600
 16168              	.LASF1140:
 16169 3b72 53595343 		.ascii	"SYSCTL_RST_SYSRST (1 << 4)\000"
 16169      544C5F52 
 16169      53545F53 
 16169      59535253 
 16169      54202831 
 16170              	.LASF463:
 16171 3b8d 5F574348 		.ascii	"_WCHAR_T_H \000"
 16171      41525F54 
 16171      5F482000 
 16172              	.LASF169:
 16173 3b99 5F5F4445 		.ascii	"__DEC32_MIN__ 1E-95DF\000"
 16173      4333325F 
 16173      4D494E5F 
 16173      5F203145 
 16173      2D393544 
 16174              	.LASF1375:
 16175 3baf 4144435F 		.ascii	"ADC_MAX_SAMPLE_RATE 400000\000"
 16175      4D41585F 
 16175      53414D50 
 16175      4C455F52 
 16175      41544520 
 16176              	.LASF1148:
 16177 3bca 53595343 		.ascii	"SYSCTL_SLPWAKE_ADC_PD (1 << 4)\000"
 16177      544C5F53 
 16177      4C505741 
 16177      4B455F41 
 16177      44435F50 
 16178              	.LASF916:
ARM GAS  /var/folders/z0/6xlwn_996xz3mwq1cgzkbq4r0000gp/T//ccBgBTlB.s 			page 342


 16179 3be9 5F5F5F5F 		.ascii	"____BMSERRORS__TYPE__VCU_DEAD 12\000"
 16179      424D5345 
 16179      52524F52 
 16179      535F5F54 
 16179      5950455F 
 16180              	.LASF958:
 16181 3c0a 5F43414E 		.ascii	"_CAN_LIBRARY_ELCON_H \000"
 16181      5F4C4942 
 16181      52415259 
 16181      5F454C43 
 16181      4F4E5F48 
 16182              	.LASF27:
 16183 3c20 5F5F4259 		.ascii	"__BYTE_ORDER__ __ORDER_LITTLE_ENDIAN__\000"
 16183      54455F4F 
 16183      52444552 
 16183      5F5F205F 
 16183      5F4F5244 
 16184              	.LASF1033:
 16185 3c47 5343425F 		.ascii	"SCB_ICSR_VECTPENDING_Pos 12\000"
 16185      49435352 
 16185      5F564543 
 16185      5450454E 
 16185      44494E47 
 16186              	.LASF1357:
 16187 3c63 5353505F 		.ascii	"SSP_CR1_SLAVE_EN ((uint32_t) (1 << 2))\000"
 16187      4352315F 
 16187      534C4156 
 16187      455F454E 
 16187      20282875 
 16188              	.LASF108:
 16189 3c8a 5F5F5549 		.ascii	"__UINT64_C(c) c ## ULL\000"
 16189      4E543634 
 16189      5F432863 
 16189      29206320 
 16189      23232055 
 16190              	.LASF1222:
 16191 3ca1 55415254 		.ascii	"UART_RBR_MASKBIT (0xFF)\000"
 16191      5F524252 
 16191      5F4D4153 
 16191      4B424954 
 16191      20283078 
 16192              	.LASF198:
 16193 3cb9 5F5F4652 		.ascii	"__FRACT_IBIT__ 0\000"
 16193      4143545F 
 16193      49424954 
 16193      5F5F2030 
 16193      00
 16194              	.LASF123:
 16195 3cca 5F5F464C 		.ascii	"__FLT_RADIX__ 2\000"
 16195      545F5241 
 16195      4449585F 
 16195      5F203200 
 16196              	.LASF1022:
 16197 3cda 5343425F 		.ascii	"SCB_ICSR_PENDSVSET_Msk (1UL << SCB_ICSR_PENDSVSET_P"
 16197      49435352 
 16197      5F50454E 
 16197      44535653 
ARM GAS  /var/folders/z0/6xlwn_996xz3mwq1cgzkbq4r0000gp/T//ccBgBTlB.s 			page 343


 16197      45545F4D 
 16198 3d0d 6F732900 		.ascii	"os)\000"
 16199              	.LASF297:
 16200 3d11 5F5F5553 		.ascii	"__USA_FBIT__ 16\000"
 16200      415F4642 
 16200      49545F5F 
 16200      20313600 
 16201              	.LASF190:
 16202 3d21 5F5F5346 		.ascii	"__SFRACT_MAX__ 0X7FP-7HR\000"
 16202      52414354 
 16202      5F4D4158 
 16202      5F5F2030 
 16202      58374650 
 16203              	.LASF723:
 16204 3d3a 696E7420 		.ascii	"int +2\000"
 16204      2B3200
 16205              	.LASF1531:
 16206 3d41 424D535F 		.ascii	"BMS_CAN_BAUD 500000\000"
 16206      43414E5F 
 16206      42415544 
 16206      20353030 
 16206      30303000 
 16207              	.LASF391:
 16208 3d55 5F5F5241 		.ascii	"__RAND_MAX 0x7fffffff\000"
 16208      4E445F4D 
 16208      41582030 
 16208      78376666 
 16208      66666666 
 16209              	.LASF161:
 16210 3d6b 5F5F4C44 		.ascii	"__LDBL_EPSILON__ 2.2204460492503131e-16L\000"
 16210      424C5F45 
 16210      5053494C 
 16210      4F4E5F5F 
 16210      20322E32 
 16211              	.LASF1510:
 16212 3d94 4F445F53 		.ascii	"OD_SEG_WO 0x50\000"
 16212      45475F57 
 16212      4F203078 
 16212      353000
 16213              	.LASF1497:
 16214 3da3 53444F5F 		.ascii	"SDO_ABORT_PARAINCOMP 0x06040043UL\000"
 16214      41424F52 
 16214      545F5041 
 16214      5241494E 
 16214      434F4D50 
 16215              	.LASF1224:
 16216 3dc5 55415254 		.ascii	"UART_DLL_MASKBIT (0xFF)\000"
 16216      5F444C4C 
 16216      5F4D4153 
 16216      4B424954 
 16216      20283078 
 16217              	.LASF1042:
 16218 3ddd 5343425F 		.ascii	"SCB_AIRCR_ENDIANESS_Msk (1UL << SCB_AIRCR_ENDIANESS"
 16218      41495243 
 16218      525F454E 
 16218      4449414E 
 16218      4553535F 
ARM GAS  /var/folders/z0/6xlwn_996xz3mwq1cgzkbq4r0000gp/T//ccBgBTlB.s 			page 344


 16219 3e10 5F506F73 		.ascii	"_Pos)\000"
 16219      2900
 16220              	.LASF880:
 16221 3e16 46524F4D 		.ascii	"FROM_CAN(name) void name ## _FromCan(Frame *can_in,"
 16221      5F43414E 
 16221      286E616D 
 16221      65292076 
 16221      6F696420 
 16222 3e49 206E616D 		.ascii	" name ## _T *type_out)\000"
 16222      65202323 
 16222      205F5420 
 16222      2A747970 
 16222      655F6F75 
 16223              	.LASF1147:
 16224 3e60 53595343 		.ascii	"SYSCTL_SLPWAKE_BOD_PD (1 << 3)\000"
 16224      544C5F53 
 16224      4C505741 
 16224      4B455F42 
 16224      4F445F50 
 16225              	.LASF139:
 16226 3e7f 5F5F4442 		.ascii	"__DBL_DIG__ 15\000"
 16226      4C5F4449 
 16226      475F5F20 
 16226      313500
 16227              	.LASF271:
 16228 3e8e 5F5F5351 		.ascii	"__SQ_FBIT__ 31\000"
 16228      5F464249 
 16228      545F5F20 
 16228      333100
 16229              	.LASF81:
 16230 3e9d 5F5F5549 		.ascii	"__UINTMAX_MAX__ 0xffffffffffffffffULL\000"
 16230      4E544D41 
 16230      585F4D41 
 16230      585F5F20 
 16230      30786666 
 16231              	.LASF1251:
 16232 3ec3 55415254 		.ascii	"UART_FCR_DMAMODE_SEL (1 << 3)\000"
 16232      5F464352 
 16232      5F444D41 
 16232      4D4F4445 
 16232      5F53454C 
 16233              	.LASF163:
 16234 3ee1 5F5F4C44 		.ascii	"__LDBL_HAS_DENORM__ 1\000"
 16234      424C5F48 
 16234      41535F44 
 16234      454E4F52 
 16234      4D5F5F20 
 16235              	.LASF298:
 16236 3ef7 5F5F5553 		.ascii	"__USA_IBIT__ 16\000"
 16236      415F4942 
 16236      49545F5F 
 16236      20313600 
 16237              	.LASF241:
 16238 3f07 5F5F4143 		.ascii	"__ACCUM_EPSILON__ 0x1P-15K\000"
 16238      43554D5F 
 16238      45505349 
 16238      4C4F4E5F 
ARM GAS  /var/folders/z0/6xlwn_996xz3mwq1cgzkbq4r0000gp/T//ccBgBTlB.s 			page 345


 16238      5F203078 
 16239              	.LASF1479:
 16240 3f22 43414E5F 		.ascii	"CAN_ERROR_BOFF 0x00000004UL\000"
 16240      4552524F 
 16240      525F424F 
 16240      46462030 
 16240      78303030 
 16241              	.LASF182:
 16242 3f3e 5F5F4445 		.ascii	"__DEC128_MAX_EXP__ 6145\000"
 16242      43313238 
 16242      5F4D4158 
 16242      5F455850 
 16242      5F5F2036 
 16243              	.LASF250:
 16244 3f56 5F5F4C41 		.ascii	"__LACCUM_MAX__ 0X7FFFFFFFFFFFFFFFP-31LK\000"
 16244      4343554D 
 16244      5F4D4158 
 16244      5F5F2030 
 16244      58374646 
 16245              	.LASF509:
 16246 3f7e 5F54494D 		.ascii	"_TIMER_T_ unsigned long\000"
 16246      45525F54 
 16246      5F20756E 
 16246      7369676E 
 16246      6564206C 
 16247              	.LASF1540:
 16248 3f96 4D593138 		.ascii	"MY18_PACK_CELLS_PARALLEL 12\000"
 16248      5F504143 
 16248      4B5F4345 
 16248      4C4C535F 
 16248      50415241 
 16249              	.LASF172:
 16250 3fb2 5F5F4445 		.ascii	"__DEC32_SUBNORMAL_MIN__ 0.000001E-95DF\000"
 16250      4333325F 
 16250      5355424E 
 16250      4F524D41 
 16250      4C5F4D49 
 16251              	.LASF1079:
 16252 3fd9 4E564943 		.ascii	"NVIC_BASE (SCS_BASE + 0x0100UL)\000"
 16252      5F424153 
 16252      45202853 
 16252      43535F42 
 16252      41534520 
 16253              	.LASF742:
 16254 3ff9 5F5F696E 		.ascii	"__int8_t_defined 1\000"
 16254      74385F74 
 16254      5F646566 
 16254      696E6564 
 16254      203100
 16255              	.LASF866:
 16256 400c 4B45595F 		.ascii	"KEY_RS 30\000"
 16256      52532033 
 16256      3000
 16257              	.LASF201:
 16258 4016 5F5F4652 		.ascii	"__FRACT_EPSILON__ 0x1P-15R\000"
 16258      4143545F 
 16258      45505349 
ARM GAS  /var/folders/z0/6xlwn_996xz3mwq1cgzkbq4r0000gp/T//ccBgBTlB.s 			page 346


 16258      4C4F4E5F 
 16258      5F203078 
 16259              	.LASF354:
 16260 4031 5F5F4E45 		.ascii	"__NEWLIB_PATCHLEVEL__ 0\000"
 16260      574C4942 
 16260      5F504154 
 16260      43484C45 
 16260      56454C5F 
 16261              	.LASF1029:
 16262 4049 5343425F 		.ascii	"SCB_ICSR_ISRPREEMPT_Pos 23\000"
 16262      49435352 
 16262      5F495352 
 16262      50524545 
 16262      4D50545F 
 16263              	.LASF498:
 16264 4064 5F5F6C6F 		.ascii	"__lock_release(lock) (_CAST_VOID 0)\000"
 16264      636B5F72 
 16264      656C6561 
 16264      7365286C 
 16264      6F636B29 
 16265              	.LASF918:
 16266 4088 5F5F5F5F 		.ascii	"____BMSERRORS__TYPE__OTHER 14\000"
 16266      424D5345 
 16266      52524F52 
 16266      535F5F54 
 16266      5950455F 
 16267              	.LASF746:
 16268 40a6 5F494E54 		.ascii	"_INT32_T_DECLARED \000"
 16268      33325F54 
 16268      5F444543 
 16268      4C415245 
 16268      442000
 16269              	.LASF1674:
 16270 40b9 696E745F 		.ascii	"int_fault\000"
 16270      6661756C 
 16270      7400
 16271              	.LASF1453:
 16272 40c3 4932435F 		.ascii	"I2C_I2MMCTRL_MATCH_ALL ((1 << 2))\000"
 16272      49324D4D 
 16272      4354524C 
 16272      5F4D4154 
 16272      43485F41 
 16273              	.LASF1218:
 16274 40e5 5F5F5541 		.ascii	"__UART_11XX_H_ \000"
 16274      52545F31 
 16274      3158585F 
 16274      485F2000 
 16275              	.LASF790:
 16276 40f5 494E545F 		.ascii	"INT_FAST8_MAX (__INT_FAST8_MAX__)\000"
 16276      46415354 
 16276      385F4D41 
 16276      5820285F 
 16276      5F494E54 
 16277              	.LASF1794:
 16278 4117 4353425F 		.ascii	"CSB_SSM_MODE\000"
 16278      53534D5F 
 16278      4D4F4445 
ARM GAS  /var/folders/z0/6xlwn_996xz3mwq1cgzkbq4r0000gp/T//ccBgBTlB.s 			page 347


 16278      00
 16279              	.LASF1215:
 16280 4124 54494D45 		.ascii	"TIMER_CAP_RISING(n) (_BIT(((n) * 3)))\000"
 16280      525F4341 
 16280      505F5249 
 16280      53494E47 
 16280      286E2920 
 16281              	.LASF1286:
 16282 414a 55415254 		.ascii	"UART_LSR_THRE (1 << 5)\000"
 16282      5F4C5352 
 16282      5F544852 
 16282      45202831 
 16282      203C3C20 
 16283              	.LASF283:
 16284 4161 5F5F5544 		.ascii	"__UDQ_FBIT__ 64\000"
 16284      515F4642 
 16284      49545F5F 
 16284      20363400 
 16285              	.LASF758:
 16286 4171 5F5F696E 		.ascii	"__int_fast8_t_defined 1\000"
 16286      745F6661 
 16286      7374385F 
 16286      745F6465 
 16286      66696E65 
 16287              	.LASF1243:
 16288 4189 55415254 		.ascii	"UART_IIR_INTID_RLS (3 << 1)\000"
 16288      5F494952 
 16288      5F494E54 
 16288      49445F52 
 16288      4C532028 
 16289              	.LASF188:
 16290 41a5 5F5F5346 		.ascii	"__SFRACT_IBIT__ 0\000"
 16290      52414354 
 16290      5F494249 
 16290      545F5F20 
 16290      3000
 16291              	.LASF658:
 16292 41b7 5F5F7765 		.ascii	"__weak_reference(sym,alias) __asm__(\".weak \" #ali"
 16292      616B5F72 
 16292      65666572 
 16292      656E6365 
 16292      2873796D 
 16293 41e8 6173293B 		.ascii	"as); __asm__(\".equ \" #alias \", \" #sym)\000"
 16293      205F5F61 
 16293      736D5F5F 
 16293      28222E65 
 16293      71752022 
 16294              	.LASF789:
 16295 420f 494E545F 		.ascii	"INT_FAST8_MIN (-__INT_FAST8_MAX__ - 1)\000"
 16295      46415354 
 16295      385F4D49 
 16295      4E20282D 
 16295      5F5F494E 
 16296              	.LASF1520:
 16297 4236 48657274 		.ascii	"Hertz2Ticks(freq) SystemCoreClock / freq\000"
 16297      7A325469 
 16297      636B7328 
ARM GAS  /var/folders/z0/6xlwn_996xz3mwq1cgzkbq4r0000gp/T//ccBgBTlB.s 			page 348


 16297      66726571 
 16297      29205379 
 16298              	.LASF481:
 16299 425f 5F5F5F69 		.ascii	"___int64_t_defined 1\000"
 16299      6E743634 
 16299      5F745F64 
 16299      6566696E 
 16299      65642031 
 16300              	.LASF597:
 16301 4274 5F5F474E 		.ascii	"__GNUCLIKE_BUILTIN_NEXT_ARG 1\000"
 16301      55434C49 
 16301      4B455F42 
 16301      55494C54 
 16301      494E5F4E 
 16302              	.LASF750:
 16303 4292 5F55494E 		.ascii	"_UINT64_T_DECLARED \000"
 16303      5436345F 
 16303      545F4445 
 16303      434C4152 
 16303      45442000 
 16304              	.LASF716:
 16305 42a6 5F5F696E 		.ascii	"__int20\000"
 16305      74323000 
 16306              	.LASF310:
 16307 42ae 5F5F4743 		.ascii	"__GCC_ATOMIC_CHAR32_T_LOCK_FREE 1\000"
 16307      435F4154 
 16307      4F4D4943 
 16307      5F434841 
 16307      5233325F 
 16308              	.LASF842:
 16309 42d0 4B45595F 		.ascii	"KEY_ACK 6\000"
 16309      41434B20 
 16309      3600
 16310              	.LASF40:
 16311 42da 5F5F494E 		.ascii	"__INT16_TYPE__ short int\000"
 16311      5431365F 
 16311      54595045 
 16311      5F5F2073 
 16311      686F7274 
 16312              	.LASF861:
 16313 42f3 4B45595F 		.ascii	"KEY_EM 25\000"
 16313      454D2032 
 16313      3500
 16314              	.LASF759:
 16315 42fd 5F5F696E 		.ascii	"__int_fast16_t_defined 1\000"
 16315      745F6661 
 16315      73743136 
 16315      5F745F64 
 16315      6566696E 
 16316              	.LASF538:
 16317 4316 5F524545 		.ascii	"_REENT_RAND48_SEED(ptr) ((ptr)->_new._reent._r48._s"
 16317      4E545F52 
 16317      414E4434 
 16317      385F5345 
 16317      45442870 
 16318 4349 65656429 		.ascii	"eed)\000"
 16318      00
ARM GAS  /var/folders/z0/6xlwn_996xz3mwq1cgzkbq4r0000gp/T//ccBgBTlB.s 			page 349


 16319              	.LASF528:
 16320 434e 5F524545 		.ascii	"_REENT_INIT_PTR_ZEROED(var) { (var)->_stdin = &(var"
 16320      4E545F49 
 16320      4E49545F 
 16320      5054525F 
 16320      5A45524F 
 16321 4381 292D3E5F 		.ascii	")->__sf[0]; (var)->_stdout = &(var)->__sf[1]; (var)"
 16321      5F73665B 
 16321      305D3B20 
 16321      28766172 
 16321      292D3E5F 
 16322 43b4 2D3E5F73 		.ascii	"->_stderr = &(var)->__sf[2]; (var)->_new._reent._ra"
 16322      74646572 
 16322      72203D20 
 16322      26287661 
 16322      72292D3E 
 16323 43e7 6E645F6E 		.ascii	"nd_next = 1; (var)->_new._reent._r48._seed[0] = _RA"
 16323      65787420 
 16323      3D20313B 
 16323      20287661 
 16323      72292D3E 
 16324 441a 4E443438 		.ascii	"ND48_SEED_0; (var)->_new._reent._r48._seed[1] = _RA"
 16324      5F534545 
 16324      445F303B 
 16324      20287661 
 16324      72292D3E 
 16325 444d 4E443438 		.ascii	"ND48_SEED_1; (var)->_new._reent._r48._seed[2] = _RA"
 16325      5F534545 
 16325      445F313B 
 16325      20287661 
 16325      72292D3E 
 16326 4480 4E443438 		.ascii	"ND48_SEED_2; (var)->_new._reent._r48._mult[0] = _RA"
 16326      5F534545 
 16326      445F323B 
 16326      20287661 
 16326      72292D3E 
 16327 44b3 4E443438 		.ascii	"ND48_MULT_0; (var)->_new._reent._r48._mult[1] = _RA"
 16327      5F4D554C 
 16327      545F303B 
 16327      20287661 
 16327      72292D3E 
 16328 44e6 4E443438 		.ascii	"ND48_MULT_1; (var)->_new._reent._r48._mult[2] = _RA"
 16328      5F4D554C 
 16328      545F313B 
 16328      20287661 
 16328      72292D3E 
 16329 4519 4E443438 		.ascii	"ND48_MULT_2; (var)->_new._reent._r48._add = _RAND48"
 16329      5F4D554C 
 16329      545F323B 
 16329      20287661 
 16329      72292D3E 
 16330 454c 5F414444 		.ascii	"_ADD; }\000"
 16330      3B207D00 
 16331              	.LASF199:
 16332 4554 5F5F4652 		.ascii	"__FRACT_MIN__ (-0.5R-0.5R)\000"
 16332      4143545F 
 16332      4D494E5F 
ARM GAS  /var/folders/z0/6xlwn_996xz3mwq1cgzkbq4r0000gp/T//ccBgBTlB.s 			page 350


 16332      5F20282D 
 16332      302E3552 
 16333              	.LASF212:
 16334 456f 5F5F554C 		.ascii	"__ULFRACT_FBIT__ 32\000"
 16334      46524143 
 16334      545F4642 
 16334      49545F5F 
 16334      20333200 
 16335              	.LASF599:
 16336 4583 5F5F474E 		.ascii	"__GNUCLIKE_BUILTIN_MEMCPY 1\000"
 16336      55434C49 
 16336      4B455F42 
 16336      55494C54 
 16336      494E5F4D 
 16337              	.LASF1580:
 16338 459f 43414E5F 		.ascii	"CAN_BMSERRORS_LTC6804_OWT\000"
 16338      424D5345 
 16338      52524F52 
 16338      535F4C54 
 16338      43363830 
 16339              	.LASF448:
 16340 45b9 5F5F5F69 		.ascii	"___int_size_t_h \000"
 16340      6E745F73 
 16340      697A655F 
 16340      745F6820 
 16340      00
 16341              	.LASF661:
 16342 45ca 5F5F7379 		.ascii	"__sym_default(sym,impl,verid) __asm__(\".symver \" "
 16342      6D5F6465 
 16342      6661756C 
 16342      74287379 
 16342      6D2C696D 
 16343 45fb 23696D70 		.ascii	"#impl \", \" #sym \"@@\" #verid)\000"
 16343      6C20222C 
 16343      20222023 
 16343      73796D20 
 16343      22404022 
 16344              	.LASF998:
 16345 4618 5F5F434F 		.ascii	"__CORTEX_M (0x00)\000"
 16345      52544558 
 16345      5F4D2028 
 16345      30783030 
 16345      2900
 16346              	.LASF1372:
 16347 462a 5F5F4C50 		.ascii	"__LPC_ERROR_H__ \000"
 16347      435F4552 
 16347      524F525F 
 16347      485F5F20 
 16347      00
 16348              	.LASF444:
 16349 463b 5F53495A 		.ascii	"_SIZE_T_DEFINED_ \000"
 16349      455F545F 
 16349      44454649 
 16349      4E45445F 
 16349      2000
 16350              	.LASF314:
 16351 464d 5F5F4743 		.ascii	"__GCC_ATOMIC_LONG_LOCK_FREE 1\000"
ARM GAS  /var/folders/z0/6xlwn_996xz3mwq1cgzkbq4r0000gp/T//ccBgBTlB.s 			page 351


 16351      435F4154 
 16351      4F4D4943 
 16351      5F4C4F4E 
 16351      475F4C4F 
 16352              	.LASF940:
 16353 466b 424D5350 		.ascii	"BMSPACKSTATUS__id 242\000"
 16353      41434B53 
 16353      54415455 
 16353      535F5F69 
 16353      64203234 
 16354              	.LASF333:
 16355 4681 5F5F534F 		.ascii	"__SOFTFP__ 1\000"
 16355      46544650 
 16355      5F5F2031 
 16355      00
 16356              	.LASF760:
 16357 468e 5F5F696E 		.ascii	"__int_fast32_t_defined 1\000"
 16357      745F6661 
 16357      73743332 
 16357      5F745F64 
 16357      6566696E 
 16358              	.LASF339:
 16359 46a7 5F5F4758 		.ascii	"__GXX_TYPEINFO_EQUALITY_INLINE 0\000"
 16359      585F5459 
 16359      5045494E 
 16359      464F5F45 
 16359      5155414C 
 16360              	.LASF994:
 16361 46c8 5F5F434F 		.ascii	"__CORE_CM0_H_GENERIC \000"
 16361      52455F43 
 16361      4D305F48 
 16361      5F47454E 
 16361      45524943 
 16362              	.LASF484:
 16363 46de 5F5F5F69 		.ascii	"___int_least32_t_defined 1\000"
 16363      6E745F6C 
 16363      65617374 
 16363      33325F74 
 16363      5F646566 
 16364              	.LASF279:
 16365 46f9 5F5F5548 		.ascii	"__UHQ_FBIT__ 16\000"
 16365      515F4642 
 16365      49545F5F 
 16365      20313600 
 16366              	.LASF342:
 16367 4709 55415254 		.ascii	"UART_BAUD 57600\000"
 16367      5F424155 
 16367      44203537 
 16367      36303000 
 16368              	.LASF689:
 16369 4719 5F535953 		.ascii	"_SYS__LOCALE_H \000"
 16369      5F5F4C4F 
 16369      43414C45 
 16369      5F482000 
 16370              	.LASF490:
 16371 4729 5F5F6C6F 		.ascii	"__lock_init(lock) (_CAST_VOID 0)\000"
 16371      636B5F69 
ARM GAS  /var/folders/z0/6xlwn_996xz3mwq1cgzkbq4r0000gp/T//ccBgBTlB.s 			page 352


 16371      6E697428 
 16371      6C6F636B 
 16371      2920285F 
 16372              	.LASF1385:
 16373 474a 4144435F 		.ascii	"ADC_CR_START_MODE_SEL(SEL) ((SEL << 24))\000"
 16373      43525F53 
 16373      54415254 
 16373      5F4D4F44 
 16373      455F5345 
 16374              	.LASF1090:
 16375 4773 4C50435F 		.ascii	"LPC_TIMER16_0_BASE 0x4000C000\000"
 16375      54494D45 
 16375      5231365F 
 16375      305F4241 
 16375      53452030 
 16376              	.LASF470:
 16377 4791 4E554C4C 		.ascii	"NULL\000"
 16377      00
 16378              	.LASF1281:
 16379 4796 55415254 		.ascii	"UART_LSR_RDR (1 << 0)\000"
 16379      5F4C5352 
 16379      5F524452 
 16379      20283120 
 16379      3C3C2030 
 16380              	.LASF596:
 16381 47ac 5F5F636F 		.ascii	"__compiler_membar() __asm __volatile(\" \" : : : \""
 16381      6D70696C 
 16381      65725F6D 
 16381      656D6261 
 16381      72282920 
 16382 47dc 6D656D6F 		.ascii	"memory\")\000"
 16382      72792229 
 16382      00
 16383              	.LASF387:
 16384 47e5 5F5F5356 		.ascii	"__SVID_VISIBLE 1\000"
 16384      49445F56 
 16384      49534942 
 16384      4C452031 
 16384      00
 16385              	.LASF1670:
 16386 47f6 72656365 		.ascii	"receive_bms_config\000"
 16386      6976655F 
 16386      626D735F 
 16386      636F6E66 
 16386      696700
 16387              	.LASF74:
 16388 4809 5F5F5743 		.ascii	"__WCHAR_MIN__ 0U\000"
 16388      4841525F 
 16388      4D494E5F 
 16388      5F203055 
 16388      00
 16389              	.LASF554:
 16390 481a 5F524545 		.ascii	"_REENT_MBSRTOWCS_STATE(ptr) ((ptr)->_new._reent._mb"
 16390      4E545F4D 
 16390      42535254 
 16390      4F574353 
 16390      5F535441 
ARM GAS  /var/folders/z0/6xlwn_996xz3mwq1cgzkbq4r0000gp/T//ccBgBTlB.s 			page 353


 16391 484d 7372746F 		.ascii	"srtowcs_state)\000"
 16391      7763735F 
 16391      73746174 
 16391      652900
 16392              	.LASF1419:
 16393 485c 4932435F 		.ascii	"I2C_I2STAT_BUS_ERROR ((0x00))\000"
 16393      49325354 
 16393      41545F42 
 16393      55535F45 
 16393      52524F52 
 16394              	.LASF273:
 16395 487a 5F5F4451 		.ascii	"__DQ_FBIT__ 63\000"
 16395      5F464249 
 16395      545F5F20 
 16395      363300
 16396              	.LASF1234:
 16397 4889 55415254 		.ascii	"UART_IER_BITMASK (0x307)\000"
 16397      5F494552 
 16397      5F424954 
 16397      4D41534B 
 16397      20283078 
 16398              	.LASF530:
 16399 48a2 5F524545 		.ascii	"_REENT_CHECK_MP(ptr) \000"
 16399      4E545F43 
 16399      4845434B 
 16399      5F4D5028 
 16399      70747229 
 16400              	.LASF1237:
 16401 48b8 55415254 		.ascii	"UART_IIR_INTSTAT_PEND (1 << 0)\000"
 16401      5F494952 
 16401      5F494E54 
 16401      53544154 
 16401      5F50454E 
 16402              	.LASF252:
 16403 48d7 5F5F554C 		.ascii	"__ULACCUM_FBIT__ 32\000"
 16403      41434355 
 16403      4D5F4642 
 16403      49545F5F 
 16403      20333200 
 16404              	.LASF997:
 16405 48eb 5F5F434D 		.ascii	"__CM0_CMSIS_VERSION ((__CM0_CMSIS_VERSION_MAIN << 1"
 16405      305F434D 
 16405      5349535F 
 16405      56455253 
 16405      494F4E20 
 16406 491e 3629207C 		.ascii	"6) | __CM0_CMSIS_VERSION_SUB )\000"
 16406      205F5F43 
 16406      4D305F43 
 16406      4D534953 
 16406      5F564552 
 16407              	.LASF466:
 16408 493d 5F474343 		.ascii	"_GCC_WCHAR_T \000"
 16408      5F574348 
 16408      41525F54 
 16408      2000
 16409              	.LASF799:
 16410 494b 494E545F 		.ascii	"INT_FAST64_MAX (__INT_FAST64_MAX__)\000"
ARM GAS  /var/folders/z0/6xlwn_996xz3mwq1cgzkbq4r0000gp/T//ccBgBTlB.s 			page 354


 16410      46415354 
 16410      36345F4D 
 16410      41582028 
 16410      5F5F494E 
 16411              	.LASF1149:
 16412 496f 53595343 		.ascii	"SYSCTL_SLPWAKE_SYSOSC_PD (1 << 5)\000"
 16412      544C5F53 
 16412      4C505741 
 16412      4B455F53 
 16412      59534F53 
 16413              	.LASF488:
 16414 4991 5F5F4C4F 		.ascii	"__LOCK_INIT(class,lock) static int lock = 0;\000"
 16414      434B5F49 
 16414      4E495428 
 16414      636C6173 
 16414      732C6C6F 
 16415              	.LASF727:
 16416 49be 5F5F494E 		.ascii	"__INT8 \"hh\"\000"
 16416      54382022 
 16416      68682200 
 16417              	.LASF1505:
 16418 49ca 4F445F4E 		.ascii	"OD_NONE 0x00\000"
 16418      4F4E4520 
 16418      30783030 
 16418      00
 16419              	.LASF992:
 16420 49d7 5F5F4E56 		.ascii	"__NVIC_PRIO_BITS 2\000"
 16420      49435F50 
 16420      52494F5F 
 16420      42495453 
 16420      203200
 16421              	.LASF1648:
 16422 49ea 4353425F 		.ascii	"CSB_CHARGE_SEND_500\000"
 16422      43484152 
 16422      47455F53 
 16422      454E445F 
 16422      35303000 
 16423              	.LASF197:
 16424 49fe 5F5F4652 		.ascii	"__FRACT_FBIT__ 15\000"
 16424      4143545F 
 16424      46424954 
 16424      5F5F2031 
 16424      3500
 16425              	.LASF1021:
 16426 4a10 5343425F 		.ascii	"SCB_ICSR_PENDSVSET_Pos 28\000"
 16426      49435352 
 16426      5F50454E 
 16426      44535653 
 16426      45545F50 
 16427              	.LASF1719:
 16428 4a2a 524F4C5F 		.ascii	"ROL_pack_name\000"
 16428      7061636B 
 16428      5F6E616D 
 16428      6500
 16429              	.LASF1368:
 16430 4a38 5353505F 		.ascii	"SSP_CPOL_LO SSP_CR0_CPOL_HI\000"
 16430      43504F4C 
ARM GAS  /var/folders/z0/6xlwn_996xz3mwq1cgzkbq4r0000gp/T//ccBgBTlB.s 			page 355


 16430      5F4C4F20 
 16430      5353505F 
 16430      4352305F 
 16431              	.LASF1585:
 16432 4a54 43414E5F 		.ascii	"CAN_BMSERRORS_NONE\000"
 16432      424D5345 
 16432      52524F52 
 16432      535F4E4F 
 16432      4E4500
 16433              	.LASF1769:
 16434 4a67 4353425F 		.ascii	"CSB_CHARGE_MODE_NAMES\000"
 16434      43484152 
 16434      47455F4D 
 16434      4F44455F 
 16434      4E414D45 
 16435              	.LASF687:
 16436 4a7d 5F5F6E65 		.ascii	"__need_size_t \000"
 16436      65645F73 
 16436      697A655F 
 16436      742000
 16437              	.LASF1448:
 16438 4a8c 4932435F 		.ascii	"I2C_SLAVE_TIME_OUT 0x10000000UL\000"
 16438      534C4156 
 16438      455F5449 
 16438      4D455F4F 
 16438      55542030 
 16439              	.LASF87:
 16440 4aac 5F5F494E 		.ascii	"__INT32_MAX__ 0x7fffffffL\000"
 16440      5433325F 
 16440      4D41585F 
 16440      5F203078 
 16440      37666666 
 16441              	.LASF614:
 16442 4ac6 5F5F766F 		.ascii	"__volatile volatile\000"
 16442      6C617469 
 16442      6C652076 
 16442      6F6C6174 
 16442      696C6500 
 16443              	.LASF306:
 16444 4ada 5F5F4348 		.ascii	"__CHAR_UNSIGNED__ 1\000"
 16444      41525F55 
 16444      4E534947 
 16444      4E45445F 
 16444      5F203100 
 16445              	.LASF1084:
 16446 4aee 5F424954 		.ascii	"_BIT_SHIFT(IRQn) ( (((uint32_t)(IRQn) ) & 0x03) * 8"
 16446      5F534849 
 16446      46542849 
 16446      52516E29 
 16446      20282028 
 16447 4b21 202900   		.ascii	" )\000"
 16448              	.LASF808:
 16449 4b24 50545244 		.ascii	"PTRDIFF_MIN (-PTRDIFF_MAX - 1)\000"
 16449      4946465F 
 16449      4D494E20 
 16449      282D5054 
 16449      52444946 
ARM GAS  /var/folders/z0/6xlwn_996xz3mwq1cgzkbq4r0000gp/T//ccBgBTlB.s 			page 356


 16450              	.LASF1254:
 16451 4b43 55415254 		.ascii	"UART_FCR_TRG_LEV0 (0)\000"
 16451      5F464352 
 16451      5F545247 
 16451      5F4C4556 
 16451      30202830 
 16452              	.LASF471:
 16453 4b59 4E554C4C 		.ascii	"NULL ((void *)0)\000"
 16453      20282876 
 16453      6F696420 
 16453      2A293029 
 16453      00
 16454              	.LASF1629:
 16455 4b6a 454C434F 		.ascii	"ELCON_STATUS\000"
 16455      4E5F5354 
 16455      41545553 
 16455      00
 16456              	.LASF1407:
 16457 4b77 4932435F 		.ascii	"I2C_I2CONCLR_SIC ((1 << 3))\000"
 16457      4932434F 
 16457      4E434C52 
 16457      5F534943 
 16457      20282831 
 16458              	.LASF468:
 16459 4b93 5F425344 		.ascii	"_BSD_WCHAR_T_\000"
 16459      5F574348 
 16459      41525F54 
 16459      5F00
 16460              	.LASF68:
 16461 4ba1 5F5F5343 		.ascii	"__SCHAR_MAX__ 0x7f\000"
 16461      4841525F 
 16461      4D41585F 
 16461      5F203078 
 16461      376600
 16462              	.LASF318:
 16463 4bb4 5F5F4743 		.ascii	"__GCC_HAVE_DWARF2_CFI_ASM 1\000"
 16463      435F4841 
 16463      56455F44 
 16463      57415246 
 16463      325F4346 
 16464              	.LASF879:
 16465 4bd0 544F5F43 		.ascii	"TO_CAN(name) void name ## _ToCan(name ## _T *type_i"
 16465      414E286E 
 16465      616D6529 
 16465      20766F69 
 16465      64206E61 
 16466 4c03 6E2C2046 		.ascii	"n, Frame *can_out)\000"
 16466      72616D65 
 16466      202A6361 
 16466      6E5F6F75 
 16466      742900
 16467              	.LASF1477:
 16468 4c16 43414E5F 		.ascii	"CAN_ERROR_PASS 0x00000001UL\000"
 16468      4552524F 
 16468      525F5041 
 16468      53532030 
 16468      78303030 
ARM GAS  /var/folders/z0/6xlwn_996xz3mwq1cgzkbq4r0000gp/T//ccBgBTlB.s 			page 357


 16469              	.LASF1055:
 16470 4c32 5343425F 		.ascii	"SCB_CCR_UNALIGN_TRP_Pos 3\000"
 16470      4343525F 
 16470      554E414C 
 16470      49474E5F 
 16470      5452505F 
 16471              	.LASF442:
 16472 4c4c 5F53495A 		.ascii	"_SIZE_T_ \000"
 16472      455F545F 
 16472      2000
 16473              	.LASF231:
 16474 4c56 5F5F5341 		.ascii	"__SACCUM_EPSILON__ 0x1P-7HK\000"
 16474      4343554D 
 16474      5F455053 
 16474      494C4F4E 
 16474      5F5F2030 
 16475              	.LASF1626:
 16476 4c72 626D735F 		.ascii	"bms_comm\000"
 16476      636F6D6D 
 16476      00
 16477              	.LASF452:
 16478 4c7b 5F5F6E65 		.ascii	"__need_size_t\000"
 16478      65645F73 
 16478      697A655F 
 16478      7400
 16479              	.LASF225:
 16480 4c89 5F5F554C 		.ascii	"__ULLFRACT_MAX__ 0XFFFFFFFFFFFFFFFFP-64ULLR\000"
 16480      4C465241 
 16480      43545F4D 
 16480      41585F5F 
 16480      20305846 
 16481              	.LASF1708:
 16482 4cb5 52574C5F 		.ascii	"RWL_cv_min_current_ms\000"
 16482      63765F6D 
 16482      696E5F63 
 16482      75727265 
 16482      6E745F6D 
 16483              	.LASF1730:
 16484 4ccb 594E4C5F 		.ascii	"YNL_YES\000"
 16484      59455300 
 16485              	.LASF1031:
 16486 4cd3 5343425F 		.ascii	"SCB_ICSR_ISRPENDING_Pos 22\000"
 16486      49435352 
 16486      5F495352 
 16486      50454E44 
 16486      494E475F 
 16487              	.LASF286:
 16488 4cee 5F5F5554 		.ascii	"__UTQ_IBIT__ 0\000"
 16488      515F4942 
 16488      49545F5F 
 16488      203000
 16489              	.LASF274:
 16490 4cfd 5F5F4451 		.ascii	"__DQ_IBIT__ 0\000"
 16490      5F494249 
 16490      545F5F20 
 16490      3000
 16491              	.LASF287:
ARM GAS  /var/folders/z0/6xlwn_996xz3mwq1cgzkbq4r0000gp/T//ccBgBTlB.s 			page 358


 16492 4d0b 5F5F4841 		.ascii	"__HA_FBIT__ 7\000"
 16492      5F464249 
 16492      545F5F20 
 16492      3700
 16493              	.LASF1135:
 16494 4d19 5F5F5359 		.ascii	"__SYSCTL_11XX_H_ \000"
 16494      5343544C 
 16494      5F313158 
 16494      585F485F 
 16494      2000
 16495              	.LASF777:
 16496 4d2b 494E5433 		.ascii	"INT32_MIN (-__INT32_MAX__ - 1)\000"
 16496      325F4D49 
 16496      4E20282D 
 16496      5F5F494E 
 16496      5433325F 
 16497              	.LASF244:
 16498 4d4a 5F5F5541 		.ascii	"__UACCUM_MIN__ 0.0UK\000"
 16498      4343554D 
 16498      5F4D494E 
 16498      5F5F2030 
 16498      2E30554B 
 16499              	.LASF649:
 16500 4d5f 5F5F636F 		.ascii	"__containerof(x,s,m) ({ const volatile __typeof(((s"
 16500      6E746169 
 16500      6E65726F 
 16500      6628782C 
 16500      732C6D29 
 16501 4d92 202A2930 		.ascii	" *)0)->m) *__x = (x); __DEQUALIFY(s *, (const volat"
 16501      292D3E6D 
 16501      29202A5F 
 16501      5F78203D 
 16501      20287829 
 16502 4dc5 696C6520 		.ascii	"ile char *)__x - __offsetof(s, m));})\000"
 16502      63686172 
 16502      202A295F 
 16502      5F78202D 
 16502      205F5F6F 
 16503              	.LASF422:
 16504 4deb 5F535444 		.ascii	"_STDDEF_H \000"
 16504      4445465F 
 16504      482000
 16505              	.LASF1050:
 16506 4df6 5343425F 		.ascii	"SCB_SCR_SLEEPDEEP_Msk (1UL << SCB_SCR_SLEEPDEEP_Pos"
 16506      5343525F 
 16506      534C4545 
 16506      50444545 
 16506      505F4D73 
 16507 4e29 2900     		.ascii	")\000"
 16508              	.LASF585:
 16509 4e2b 5F5F474E 		.ascii	"__GNUCLIKE_ASM 3\000"
 16509      55434C49 
 16509      4B455F41 
 16509      534D2033 
 16509      00
 16510              	.LASF492:
 16511 4e3c 5F5F6C6F 		.ascii	"__lock_close(lock) (_CAST_VOID 0)\000"
ARM GAS  /var/folders/z0/6xlwn_996xz3mwq1cgzkbq4r0000gp/T//ccBgBTlB.s 			page 359


 16511      636B5F63 
 16511      6C6F7365 
 16511      286C6F63 
 16511      6B292028 
 16512              	.LASF173:
 16513 4e5e 5F5F4445 		.ascii	"__DEC64_MANT_DIG__ 16\000"
 16513      4336345F 
 16513      4D414E54 
 16513      5F444947 
 16513      5F5F2031 
 16514              	.LASF137:
 16515 4e74 5F5F464C 		.ascii	"__FLT_HAS_QUIET_NAN__ 1\000"
 16515      545F4841 
 16515      535F5155 
 16515      4945545F 
 16515      4E414E5F 
 16516              	.LASF1522:
 16517 4e8c 4D41585F 		.ascii	"MAX_NUM_MODULES 15\000"
 16517      4E554D5F 
 16517      4D4F4455 
 16517      4C455320 
 16517      313500
 16518              	.LASF823:
 16519 4e9f 5F474343 		.ascii	"_GCC_WRAP_STDINT_H \000"
 16519      5F575241 
 16519      505F5354 
 16519      44494E54 
 16519      5F482000 
 16520              	.LASF1649:
 16521 4eb3 4353425F 		.ascii	"CSB_CHARGE_SWITCH_250\000"
 16521      43484152 
 16521      47455F53 
 16521      57495443 
 16521      485F3235 
 16522              	.LASF1383:
 16523 4ec9 4144435F 		.ascii	"ADC_CR_PDN ((1UL << 21))\000"
 16523      43525F50 
 16523      444E2028 
 16523      2831554C 
 16523      203C3C20 
 16524              	.LASF1695:
 16525 4ee2 435F4D45 		.ascii	"C_MEASURE\000"
 16525      41535552 
 16525      4500
 16526              	.LASF1:
 16527 4eec 5F5F5354 		.ascii	"__STDC_HOSTED__ 1\000"
 16527      44435F48 
 16527      4F535445 
 16527      445F5F20 
 16527      3100
 16528              	.LASF1622:
 16529 4efe 63635F63 		.ascii	"cc_charge_voltage_mV\000"
 16529      68617267 
 16529      655F766F 
 16529      6C746167 
 16529      655F6D56 
 16530              	.LASF1787:
ARM GAS  /var/folders/z0/6xlwn_996xz3mwq1cgzkbq4r0000gp/T//ccBgBTlB.s 			page 360


 16531 4f13 4D593138 		.ascii	"MY18_Pack_Config\000"
 16531      5F506163 
 16531      6B5F436F 
 16531      6E666967 
 16531      00
 16532              	.LASF1438:
 16533 4f24 4932435F 		.ascii	"I2C_I2STAT_S_RX_PRE_SLA_DAT_ACK ((0x80))\000"
 16533      49325354 
 16533      41545F53 
 16533      5F52585F 
 16533      5052455F 
 16534              	.LASF542:
 16535 4f4d 5F524545 		.ascii	"_REENT_MP_RESULT_K(ptr) ((ptr)->_result_k)\000"
 16535      4E545F4D 
 16535      505F5245 
 16535      53554C54 
 16535      5F4B2870 
 16536              	.LASF1460:
 16537 4f78 4932435F 		.ascii	"I2C_I2SCLL_BITMASK ((0xFFFF))\000"
 16537      49325343 
 16537      4C4C5F42 
 16537      49544D41 
 16537      534B2028 
 16538              	.LASF825:
 16539 4f96 4D494352 		.ascii	"MICRORL_LIB_VER \"1.5.1\"\000"
 16539      4F524C5F 
 16539      4C49425F 
 16539      56455220 
 16539      22312E35 
 16540              	.LASF1344:
 16541 4fae 5F5F5353 		.ascii	"__SSP_11XX_H_ \000"
 16541      505F3131 
 16541      58585F48 
 16541      5F2000
 16542              	.LASF1663:
 16543 4fbd 4353425F 		.ascii	"CSB_IDLE_MODE_T\000"
 16543      49444C45 
 16543      5F4D4F44 
 16543      455F5400 
 16544              	.LASF26:
 16545 4fcd 5F5F4F52 		.ascii	"__ORDER_PDP_ENDIAN__ 3412\000"
 16545      4445525F 
 16545      5044505F 
 16545      454E4449 
 16545      414E5F5F 
 16546              	.LASF45:
 16547 4fe7 5F5F5549 		.ascii	"__UINT32_TYPE__ long unsigned int\000"
 16547      4E543332 
 16547      5F545950 
 16547      455F5F20 
 16547      6C6F6E67 
 16548              	.LASF8:
 16549 5009 5F5F4154 		.ascii	"__ATOMIC_ACQUIRE 2\000"
 16549      4F4D4943 
 16549      5F414351 
 16549      55495245 
 16549      203200
ARM GAS  /var/folders/z0/6xlwn_996xz3mwq1cgzkbq4r0000gp/T//ccBgBTlB.s 			page 361


 16550              	.LASF1096:
 16551 501c 4C50435F 		.ascii	"LPC_ACMP_BASE 0x40028000\000"
 16551      41434D50 
 16551      5F424153 
 16551      45203078 
 16551      34303032 
 16552              	.LASF745:
 16553 5035 5F5F696E 		.ascii	"__int16_t_defined 1\000"
 16553      7431365F 
 16553      745F6465 
 16553      66696E65 
 16553      64203100 
 16554              	.LASF1255:
 16555 5049 55415254 		.ascii	"UART_FCR_TRG_LEV1 (1 << 6)\000"
 16555      5F464352 
 16555      5F545247 
 16555      5F4C4556 
 16555      31202831 
 16556              	.LASF1596:
 16557 5064 7061636B 		.ascii	"pack_cell_max_mV\000"
 16557      5F63656C 
 16557      6C5F6D61 
 16557      785F6D56 
 16557      00
 16558              	.LASF58:
 16559 5075 5F5F494E 		.ascii	"__INT_FAST64_TYPE__ long long int\000"
 16559      545F4641 
 16559      53543634 
 16559      5F545950 
 16559      455F5F20 
 16560              	.LASF1118:
 16561 5097 4C50435F 		.ascii	"LPC_ADC ((LPC_ADC_T *) LPC_ADC_BASE)\000"
 16561      41444320 
 16561      28284C50 
 16561      435F4144 
 16561      435F5420 
 16562              	.LASF237:
 16563 50bc 5F5F4143 		.ascii	"__ACCUM_FBIT__ 15\000"
 16563      43554D5F 
 16563      46424954 
 16563      5F5F2031 
 16563      3500
 16564              	.LASF1405:
 16565 50ce 4932435F 		.ascii	"I2C_I2CONSET_I2EN ((0x40))\000"
 16565      4932434F 
 16565      4E534554 
 16565      5F493245 
 16565      4E202828 
 16566              	.LASF574:
 16567 50e9 5F5F6174 		.ascii	"__attribute_pure__ \000"
 16567      74726962 
 16567      7574655F 
 16567      70757265 
 16567      5F5F2000 
 16568              	.LASF360:
 16569 50fd 5F484156 		.ascii	"_HAVE_LONG_DOUBLE 1\000"
 16569      455F4C4F 
ARM GAS  /var/folders/z0/6xlwn_996xz3mwq1cgzkbq4r0000gp/T//ccBgBTlB.s 			page 362


 16569      4E475F44 
 16569      4F55424C 
 16569      45203100 
 16570              	.LASF99:
 16571 5111 5F5F494E 		.ascii	"__INT_LEAST64_MAX__ 0x7fffffffffffffffLL\000"
 16571      545F4C45 
 16571      41535436 
 16571      345F4D41 
 16571      585F5F20 
 16572              	.LASF280:
 16573 513a 5F5F5548 		.ascii	"__UHQ_IBIT__ 0\000"
 16573      515F4942 
 16573      49545F5F 
 16573      203000
 16574              	.LASF695:
 16575 5149 616C6C6F 		.ascii	"alloca(size) __builtin_alloca(size)\000"
 16575      63612873 
 16575      697A6529 
 16575      205F5F62 
 16575      75696C74 
 16576              	.LASF106:
 16577 516d 5F5F5549 		.ascii	"__UINT32_C(c) c ## UL\000"
 16577      4E543332 
 16577      5F432863 
 16577      29206320 
 16577      23232055 
 16578              	.LASF1455:
 16579 5183 49324441 		.ascii	"I2DATA_BUFFER_BITMASK ((0xFF))\000"
 16579      54415F42 
 16579      55464645 
 16579      525F4249 
 16579      544D4153 
 16580              	.LASF965:
 16581 51a2 5F43414E 		.ascii	"_CAN_LIBRARY_BMS_H \000"
 16581      5F4C4942 
 16581      52415259 
 16581      5F424D53 
 16581      5F482000 
 16582              	.LASF1597:
 16583 51b6 7061636B 		.ascii	"pack_current_mA\000"
 16583      5F637572 
 16583      72656E74 
 16583      5F6D4100 
 16584              	.LASF1273:
 16585 51c6 55415254 		.ascii	"UART_LCR_DLAB_EN (1 << 7)\000"
 16585      5F4C4352 
 16585      5F444C41 
 16585      425F454E 
 16585      20283120 
 16586              	.LASF622:
 16587 51e0 5F5F7365 		.ascii	"__section(x) __attribute__((__section__(x)))\000"
 16587      6374696F 
 16587      6E287829 
 16587      205F5F61 
 16587      74747269 
 16588              	.LASF1032:
 16589 520d 5343425F 		.ascii	"SCB_ICSR_ISRPENDING_Msk (1UL << SCB_ICSR_ISRPENDING"
ARM GAS  /var/folders/z0/6xlwn_996xz3mwq1cgzkbq4r0000gp/T//ccBgBTlB.s 			page 363


 16589      49435352 
 16589      5F495352 
 16589      50454E44 
 16589      494E475F 
 16590 5240 5F506F73 		.ascii	"_Pos)\000"
 16590      2900
 16591              	.LASF1452:
 16592 5246 4932435F 		.ascii	"I2C_I2MMCTRL_ENA_SCL ((1 << 1))\000"
 16592      49324D4D 
 16592      4354524C 
 16592      5F454E41 
 16592      5F53434C 
 16593              	.LASF1342:
 16594 5266 57574454 		.ascii	"WWDT_WDMOD_WDINT ((uint32_t) (1 << 3))\000"
 16594      5F57444D 
 16594      4F445F57 
 16594      44494E54 
 16594      20282875 
 16595              	.LASF579:
 16596 528d 5F5F7074 		.ascii	"__ptrvalue \000"
 16596      7276616C 
 16596      75652000 
 16597              	.LASF238:
 16598 5299 5F5F4143 		.ascii	"__ACCUM_IBIT__ 16\000"
 16598      43554D5F 
 16598      49424954 
 16598      5F5F2031 
 16598      3600
 16599              	.LASF1044:
 16600 52ab 5343425F 		.ascii	"SCB_AIRCR_SYSRESETREQ_Msk (1UL << SCB_AIRCR_SYSRESE"
 16600      41495243 
 16600      525F5359 
 16600      53524553 
 16600      45545245 
 16601 52de 54524551 		.ascii	"TREQ_Pos)\000"
 16601      5F506F73 
 16601      2900
 16602              	.LASF810:
 16603 52e8 57434841 		.ascii	"WCHAR_MAX (__WCHAR_MAX__)\000"
 16603      525F4D41 
 16603      5820285F 
 16603      5F574348 
 16603      41525F4D 
 16604              	.LASF928:
 16605 5302 5F5F5F5F 		.ascii	"____BMSERRORS__TYPE__CONFLICTING_MODE_REQUESTS 11\000"
 16605      424D5345 
 16605      52524F52 
 16605      535F5F54 
 16605      5950455F 
 16606              	.LASF1274:
 16607 5334 55415254 		.ascii	"UART_LCR_BITMASK (0xFF)\000"
 16607      5F4C4352 
 16607      5F424954 
 16607      4D41534B 
 16607      20283078 
 16608              	.LASF346:
 16609 534c 43414E5F 		.ascii	"CAN_ARCHITECTURE_ARM 1\000"
ARM GAS  /var/folders/z0/6xlwn_996xz3mwq1cgzkbq4r0000gp/T//ccBgBTlB.s 			page 364


 16609      41524348 
 16609      49544543 
 16609      54555245 
 16609      5F41524D 
 16610              	.LASF1431:
 16611 5363 4932435F 		.ascii	"I2C_I2STAT_M_RX_SLAR_NACK ((0x48))\000"
 16611      49325354 
 16611      41545F4D 
 16611      5F52585F 
 16611      534C4152 
 16612              	.LASF1724:
 16613 5386 524F4C5F 		.ascii	"ROL_LENGTH\000"
 16613      4C454E47 
 16613      544800
 16614              	.LASF1620:
 16615 5391 6D6F6475 		.ascii	"module_cell_count\000"
 16615      6C655F63 
 16615      656C6C5F 
 16615      636F756E 
 16615      7400
 16616              	.LASF1183:
 16617 53a3 494F434F 		.ascii	"IOCON_OPENDRAIN_EN (0x1 << 10)\000"
 16617      4E5F4F50 
 16617      454E4452 
 16617      41494E5F 
 16617      454E2028 
 16618              	.LASF1586:
 16619 53c2 43414E5F 		.ascii	"CAN_BMSERRORS_OVER_CURRENT\000"
 16619      424D5345 
 16619      52524F52 
 16619      535F4F56 
 16619      45525F43 
 16620              	.LASF1356:
 16621 53dd 5353505F 		.ascii	"SSP_CR1_SSP_EN ((uint32_t) (1 << 1))\000"
 16621      4352315F 
 16621      5353505F 
 16621      454E2028 
 16621      2875696E 
 16622              	.LASF968:
 16623 5402 5F434F4E 		.ascii	"_CONSOLE_H \000"
 16623      534F4C45 
 16623      5F482000 
 16624              	.LASF1398:
 16625 540e 5245545F 		.ascii	"RET_SLAVE_IDLE 2\000"
 16625      534C4156 
 16625      455F4944 
 16625      4C452032 
 16625      00
 16626              	.LASF764:
 16627 541f 55494E54 		.ascii	"UINTPTR_MAX (__UINTPTR_MAX__)\000"
 16627      5054525F 
 16627      4D415820 
 16627      285F5F55 
 16627      494E5450 
 16628              	.LASF882:
 16629 543d 5F43414E 		.ascii	"_CAN_LIBRARY_REAR_CAN_NODE_H \000"
 16629      5F4C4942 
ARM GAS  /var/folders/z0/6xlwn_996xz3mwq1cgzkbq4r0000gp/T//ccBgBTlB.s 			page 365


 16629      52415259 
 16629      5F524541 
 16629      525F4341 
 16630              	.LASF6:
 16631 545b 5F5F4154 		.ascii	"__ATOMIC_RELAXED 0\000"
 16631      4F4D4943 
 16631      5F52454C 
 16631      41584544 
 16631      203000
 16632              	.LASF933:
 16633 546e 4D435F43 		.ascii	"MC_COMMAND__freq 2\000"
 16633      4F4D4D41 
 16633      4E445F5F 
 16633      66726571 
 16633      203200
 16634              	.LASF160:
 16635 5481 5F5F4C44 		.ascii	"__LDBL_MIN__ 2.2250738585072014e-308L\000"
 16635      424C5F4D 
 16635      494E5F5F 
 16635      20322E32 
 16635      32353037 
 16636              	.LASF230:
 16637 54a7 5F5F5341 		.ascii	"__SACCUM_MAX__ 0X7FFFP-7HK\000"
 16637      4343554D 
 16637      5F4D4158 
 16637      5F5F2030 
 16637      58374646 
 16638              	.LASF769:
 16639 54c2 494E545F 		.ascii	"INT_LEAST8_MAX (__INT_LEAST8_MAX__)\000"
 16639      4C454153 
 16639      54385F4D 
 16639      41582028 
 16639      5F5F494E 
 16640              	.LASF1334:
 16641 54e6 55415254 		.ascii	"UART_SYNCCTRL_CSCEN (1 << 4)\000"
 16641      5F53594E 
 16641      43435452 
 16641      4C5F4353 
 16641      43454E20 
 16642              	.LASF1652:
 16643 5503 4353425F 		.ascii	"CSB_CHARGE_CC\000"
 16643      43484152 
 16643      47455F43 
 16643      4300
 16644              	.LASF1467:
 16645 5511 4932435F 		.ascii	"I2C_LAST_BYTE_RECV 0x04\000"
 16645      4C415354 
 16645      5F425954 
 16645      455F5245 
 16645      43562030 
 16646              	.LASF932:
 16647 5529 4D435F43 		.ascii	"MC_COMMAND__id 192\000"
 16647      4F4D4D41 
 16647      4E445F5F 
 16647      69642031 
 16647      393200
 16648              	.LASF1552:
ARM GAS  /var/folders/z0/6xlwn_996xz3mwq1cgzkbq4r0000gp/T//ccBgBTlB.s 			page 366


 16649 553c 4D593136 		.ascii	"MY16_PACK_CELLS_PARALLEL 12\000"
 16649      5F504143 
 16649      4B5F4345 
 16649      4C4C535F 
 16649      50415241 
 16650              	.LASF386:
 16651 5558 5F5F504F 		.ascii	"__POSIX_VISIBLE 200809\000"
 16651      5349585F 
 16651      56495349 
 16651      424C4520 
 16651      32303038 
 16652              	.LASF352:
 16653 556f 5F5F4E45 		.ascii	"__NEWLIB__ 2\000"
 16653      574C4942 
 16653      5F5F2032 
 16653      00
 16654              	.LASF1653:
 16655 557c 4353425F 		.ascii	"CSB_CHARGE_CV\000"
 16655      43484152 
 16655      47455F43 
 16655      5600
 16656              	.LASF200:
 16657 558a 5F5F4652 		.ascii	"__FRACT_MAX__ 0X7FFFP-15R\000"
 16657      4143545F 
 16657      4D41585F 
 16657      5F203058 
 16657      37464646 
 16658              	.LASF412:
 16659 55a4 5F444546 		.ascii	"_DEFUN(name,arglist,args) name(args)\000"
 16659      554E286E 
 16659      616D652C 
 16659      6172676C 
 16659      6973742C 
 16660              	.LASF1482:
 16661 55c9 43414E5F 		.ascii	"CAN_ERROR_ACK 0x00000020UL\000"
 16661      4552524F 
 16661      525F4143 
 16661      4B203078 
 16661      30303030 
 16662              	.LASF639:
 16663 55e4 5F5F7265 		.ascii	"__returns_twice __attribute__((__returns_twice__))\000"
 16663      7475726E 
 16663      735F7477 
 16663      69636520 
 16663      5F5F6174 
 16664              	.LASF16:
 16665 5617 5F5F5349 		.ascii	"__SIZEOF_LONG_LONG__ 8\000"
 16665      5A454F46 
 16665      5F4C4F4E 
 16665      475F4C4F 
 16665      4E475F5F 
 16666              	.LASF541:
 16667 562e 5F524545 		.ascii	"_REENT_MP_RESULT(ptr) ((ptr)->_result)\000"
 16667      4E545F4D 
 16667      505F5245 
 16667      53554C54 
 16667      28707472 
ARM GAS  /var/folders/z0/6xlwn_996xz3mwq1cgzkbq4r0000gp/T//ccBgBTlB.s 			page 367


 16668              	.LASF119:
 16669 5655 5F5F4743 		.ascii	"__GCC_IEC_559 0\000"
 16669      435F4945 
 16669      435F3535 
 16669      39203000 
 16670              	.LASF1091:
 16671 5665 4C50435F 		.ascii	"LPC_TIMER16_1_BASE 0x40010000\000"
 16671      54494D45 
 16671      5231365F 
 16671      315F4241 
 16671      53452030 
 16672              	.LASF376:
 16673 5683 5F504F53 		.ascii	"_POSIX_C_SOURCE\000"
 16673      49585F43 
 16673      5F534F55 
 16673      52434500 
 16674              	.LASF1060:
 16675 5693 53797354 		.ascii	"SysTick_CTRL_COUNTFLAG_Msk (1UL << SysTick_CTRL_COU"
 16675      69636B5F 
 16675      4354524C 
 16675      5F434F55 
 16675      4E54464C 
 16676 56c6 4E54464C 		.ascii	"NTFLAG_Pos)\000"
 16676      41475F50 
 16676      6F732900 
 16677              	.LASF1772:
 16678 56d2 636F6D6D 		.ascii	"commands\000"
 16678      616E6473 
 16678      00
 16679              	.LASF1404:
 16680 56db 4932435F 		.ascii	"I2C_I2CONSET_STA ((0x20))\000"
 16680      4932434F 
 16680      4E534554 
 16680      5F535441 
 16680      20282830 
 16681              	.LASF1728:
 16682 56f5 434F4E4C 		.ascii	"CONL_LENGTH\000"
 16682      5F4C454E 
 16682      47544800 
 16683              	.LASF1236:
 16684 5701 55415254 		.ascii	"UART2_IER_BITMASK (0x38F)\000"
 16684      325F4945 
 16684      525F4249 
 16684      544D4153 
 16684      4B202830 
 16685              	.LASF1426:
 16686 571b 4932435F 		.ascii	"I2C_I2STAT_M_TX_ARB_LOST ((0x38))\000"
 16686      49325354 
 16686      41545F4D 
 16686      5F54585F 
 16686      4152425F 
 16687              	.LASF559:
 16688 573d 5F524545 		.ascii	"_REENT_GETDATE_ERR_P(ptr) (&((ptr)->_new._reent._ge"
 16688      4E545F47 
 16688      45544441 
 16688      54455F45 
 16688      52525F50 
ARM GAS  /var/folders/z0/6xlwn_996xz3mwq1cgzkbq4r0000gp/T//ccBgBTlB.s 			page 368


 16689 5770 74646174 		.ascii	"tdate_err))\000"
 16689      655F6572 
 16689      72292900 
 16690              	.LASF1715:
 16691 577c 52574C5F 		.ascii	"RWL_LENGTH\000"
 16691      4C454E47 
 16691      544800
 16692              	.LASF751:
 16693 5787 5F5F696E 		.ascii	"__int64_t_defined 1\000"
 16693      7436345F 
 16693      745F6465 
 16693      66696E65 
 16693      64203100 
 16694              	.LASF398:
 16695 579b 5F454E44 		.ascii	"_END_STD_C \000"
 16695      5F535444 
 16695      5F432000 
 16696              	.LASF753:
 16697 57a7 5F55494E 		.ascii	"_UINTPTR_T_DECLARED \000"
 16697      54505452 
 16697      5F545F44 
 16697      45434C41 
 16697      52454420 
 16698              	.LASF1169:
 16699 57bc 494F434F 		.ascii	"IOCON_FUNC6 0x6\000"
 16699      4E5F4655 
 16699      4E433620 
 16699      30783600 
 16700              	.LASF510:
 16701 57cc 5F4E554C 		.ascii	"_NULL 0\000"
 16701      4C203000 
 16702              	.LASF1231:
 16703 57d4 55415254 		.ascii	"UART_IER_CTSINT (1 << 7)\000"
 16703      5F494552 
 16703      5F435453 
 16703      494E5420 
 16703      2831203C 
 16704              	.LASF1364:
 16705 57ed 5353505F 		.ascii	"SSP_ICR_BITMASK ((uint32_t) (0x03))\000"
 16705      4943525F 
 16705      4249544D 
 16705      41534B20 
 16705      28287569 
 16706              	.LASF1182:
 16707 5811 494F434F 		.ascii	"IOCON_FILT_DIS (0x1 << 8)\000"
 16707      4E5F4649 
 16707      4C545F44 
 16707      49532028 
 16707      30783120 
 16708              	.LASF453:
 16709 582b 5F5F7763 		.ascii	"__wchar_t__ \000"
 16709      6861725F 
 16709      745F5F20 
 16709      00
 16710              	.LASF1440:
 16711 5838 4932435F 		.ascii	"I2C_I2STAT_S_RX_PRE_GENCALL_DAT_ACK ((0x90))\000"
 16711      49325354 
ARM GAS  /var/folders/z0/6xlwn_996xz3mwq1cgzkbq4r0000gp/T//ccBgBTlB.s 			page 369


 16711      41545F53 
 16711      5F52585F 
 16711      5052455F 
 16712              	.LASF1390:
 16713 5865 4144435F 		.ascii	"ADC_CR_START_ADCTRIG1 ((5UL << 24))\000"
 16713      43525F53 
 16713      54415254 
 16713      5F414443 
 16713      54524947 
 16714              	.LASF1425:
 16715 5889 4932435F 		.ascii	"I2C_I2STAT_M_TX_DAT_NACK ((0x30))\000"
 16715      49325354 
 16715      41545F4D 
 16715      5F54585F 
 16715      4441545F 
 16716              	.LASF686:
 16717 58ab 5F5F7074 		.ascii	"__pt_guarded_by(x) __lock_annotate(pt_guarded_by(x)"
 16717      5F677561 
 16717      72646564 
 16717      5F627928 
 16717      7829205F 
 16718 58de 2900     		.ascii	")\000"
 16719              	.LASF467:
 16720 58e0 5F574348 		.ascii	"_WCHAR_T_DECLARED \000"
 16720      41525F54 
 16720      5F444543 
 16720      4C415245 
 16720      442000
 16721              	.LASF623:
 16722 58f3 5F5F616C 		.ascii	"__alloc_size(x) __attribute__((__alloc_size__(x)))\000"
 16722      6C6F635F 
 16722      73697A65 
 16722      28782920 
 16722      5F5F6174 
 16723              	.LASF934:
 16724 5926 43555252 		.ascii	"CURRENTSENSOR_CURRENT__id 1313\000"
 16724      454E5453 
 16724      454E534F 
 16724      525F4355 
 16724      5252454E 
 16725              	.LASF533:
 16726 5945 5F524545 		.ascii	"_REENT_CHECK_EMERGENCY(ptr) \000"
 16726      4E545F43 
 16726      4845434B 
 16726      5F454D45 
 16726      5247454E 
 16727              	.LASF366:
 16728 5962 5F554E42 		.ascii	"_UNBUF_STREAM_OPT 1\000"
 16728      55465F53 
 16728      54524541 
 16728      4D5F4F50 
 16728      54203100 
 16729              	.LASF911:
 16730 5976 5F5F5F5F 		.ascii	"____DASH_REQUEST__TYPE__LIMP_MODE_ENABLE 3\000"
 16730      44415348 
 16730      5F524551 
 16730      55455354 
ARM GAS  /var/folders/z0/6xlwn_996xz3mwq1cgzkbq4r0000gp/T//ccBgBTlB.s 			page 370


 16730      5F5F5459 
 16731              	.LASF1654:
 16732 59a1 4353425F 		.ascii	"CSB_CHARGE_BAL\000"
 16732      43484152 
 16732      47455F42 
 16732      414C00
 16733              	.LASF1129:
 16734 59b0 5F5F504D 		.ascii	"__PMU_11XX_H_ \000"
 16734      555F3131 
 16734      58585F48 
 16734      5F2000
 16735              	.LASF67:
 16736 59bf 5F5F4758 		.ascii	"__GXX_ABI_VERSION 1009\000"
 16736      585F4142 
 16736      495F5645 
 16736      5253494F 
 16736      4E203130 
 16737              	.LASF1150:
 16738 59d6 53595343 		.ascii	"SYSCTL_SLPWAKE_WDTOSC_PD (1 << 6)\000"
 16738      544C5F53 
 16738      4C505741 
 16738      4B455F57 
 16738      44544F53 
 16739              	.LASF1564:
 16740 59f8 7369676E 		.ascii	"signed char\000"
 16740      65642063 
 16740      68617200 
 16741              	.LASF1780:
 16742 5a04 6C617374 		.ascii	"lastPackVoltagePrintTime\000"
 16742      5061636B 
 16742      566F6C74 
 16742      61676550 
 16742      72696E74 
 16743              	.LASF891:
 16744 5a1d 5F5F5F5F 		.ascii	"____VCUTODASH__LIMP_STATE__LIMP_33 2\000"
 16744      56435554 
 16744      4F444153 
 16744      485F5F4C 
 16744      494D505F 
 16745              	.LASF1518:
 16746 5a42 4C50435F 		.ascii	"LPC_CCAN_API ((CCAN_API_T *) (LPC_ROM_API->candApiB"
 16746      4343414E 
 16746      5F415049 
 16746      20282843 
 16746      43414E5F 
 16747 5a75 61736529 		.ascii	"ase))\000"
 16747      2900
 16748              	.LASF56:
 16749 5a7b 5F5F494E 		.ascii	"__INT_FAST16_TYPE__ int\000"
 16749      545F4641 
 16749      53543136 
 16749      5F545950 
 16749      455F5F20 
 16750              	.LASF772:
 16751 5a93 494E5431 		.ascii	"INT16_MAX (__INT16_MAX__)\000"
 16751      365F4D41 
 16751      5820285F 
ARM GAS  /var/folders/z0/6xlwn_996xz3mwq1cgzkbq4r0000gp/T//ccBgBTlB.s 			page 371


 16751      5F494E54 
 16751      31365F4D 
 16752              	.LASF1673:
 16753 5aad 696D645F 		.ascii	"imd_fault\000"
 16753      6661756C 
 16753      7400
 16754              	.LASF1402:
 16755 5ab7 4932435F 		.ascii	"I2C_I2CONSET_SI ((0x08))\000"
 16755      4932434F 
 16755      4E534554 
 16755      5F534920 
 16755      28283078 
 16756              	.LASF1104:
 16757 5ad0 4C50435F 		.ascii	"LPC_SSP1_BASE 0x40058000\000"
 16757      53535031 
 16757      5F424153 
 16757      45203078 
 16757      34303035 
 16758              	.LASF1655:
 16759 5ae9 4353425F 		.ascii	"CSB_CHARGE_FAULT\000"
 16759      43484152 
 16759      47455F46 
 16759      41554C54 
 16759      00
 16760              	.LASF603:
 16761 5afa 5F5F4343 		.ascii	"__CC_SUPPORTS___FUNC__ 1\000"
 16761      5F535550 
 16761      504F5254 
 16761      535F5F5F 
 16761      46554E43 
 16762              	.LASF1640:
 16763 5b13 4353425F 		.ascii	"CSB_SSM_MODE_INIT\000"
 16763      53534D5F 
 16763      4D4F4445 
 16763      5F494E49 
 16763      5400
 16764              	.LASF1768:
 16765 5b25 4353425F 		.ascii	"CSB_SSM_MODE_NAMES\000"
 16765      53534D5F 
 16765      4D4F4445 
 16765      5F4E414D 
 16765      455300
 16766              	.LASF967:
 16767 5b38 524F4C5F 		.ascii	"ROL_FIRST RWL_LENGTH\000"
 16767      46495253 
 16767      54205257 
 16767      4C5F4C45 
 16767      4E475448 
 16768              	.LASF1299:
 16769 5b4d 55415254 		.ascii	"UART_MSR_DCD (1 << 7)\000"
 16769      5F4D5352 
 16769      5F444344 
 16769      20283120 
 16769      3C3C2037 
 16770              	.LASF733:
 16771 5b63 5F5F4641 		.ascii	"__FAST32 \000"
 16771      53543332 
ARM GAS  /var/folders/z0/6xlwn_996xz3mwq1cgzkbq4r0000gp/T//ccBgBTlB.s 			page 372


 16771      2000
 16772              	.LASF1733:
 16773 5b6d 796E5F6C 		.ascii	"yn_loc_label_t\000"
 16773      6F635F6C 
 16773      6162656C 
 16773      5F7400
 16774              	.LASF1102:
 16775 5b7c 4C50435F 		.ascii	"LPC_USB0_BASE 0x40080000\000"
 16775      55534230 
 16775      5F424153 
 16775      45203078 
 16775      34303038 
 16776              	.LASF302:
 16777 5b95 5F5F5554 		.ascii	"__UTA_IBIT__ 64\000"
 16777      415F4942 
 16777      49545F5F 
 16777      20363400 
 16778              	.LASF321:
 16779 5ba5 5F5F5349 		.ascii	"__SIZEOF_WINT_T__ 4\000"
 16779      5A454F46 
 16779      5F57494E 
 16779      545F545F 
 16779      5F203400 
 16780              	.LASF1235:
 16781 5bb9 55415254 		.ascii	"UART1_IER_BITMASK (0x30F)\000"
 16781      315F4945 
 16781      525F4249 
 16781      544D4153 
 16781      4B202830 
 16782              	.LASF1603:
 16783 5bd3 5041434B 		.ascii	"PACK_T\000"
 16783      5F5400
 16784              	.LASF1279:
 16785 5bda 55415254 		.ascii	"UART_MCR_AUTO_CTS_EN (1 << 7)\000"
 16785      5F4D4352 
 16785      5F415554 
 16785      4F5F4354 
 16785      535F454E 
 16786              	.LASF1015:
 16787 5bf8 5343425F 		.ascii	"SCB_CPUID_PARTNO_Pos 4\000"
 16787      43505549 
 16787      445F5041 
 16787      52544E4F 
 16787      5F506F73 
 16788              	.LASF952:
 16789 5c0f 424D535F 		.ascii	"BMS_MODE__id 1537\000"
 16789      4D4F4445 
 16789      5F5F6964 
 16789      20313533 
 16789      3700
 16790              	.LASF1088:
 16791 5c21 4C50435F 		.ascii	"LPC_WWDT_BASE 0x40004000\000"
 16791      57574454 
 16791      5F424153 
 16791      45203078 
 16791      34303030 
 16792              	.LASF70:
ARM GAS  /var/folders/z0/6xlwn_996xz3mwq1cgzkbq4r0000gp/T//ccBgBTlB.s 			page 373


 16793 5c3a 5F5F494E 		.ascii	"__INT_MAX__ 0x7fffffff\000"
 16793      545F4D41 
 16793      585F5F20 
 16793      30783766 
 16793      66666666 
 16794              	.LASF1608:
 16795 5c51 5041434B 		.ascii	"PACK_CONFIG\000"
 16795      5F434F4E 
 16795      46494700 
 16796              	.LASF1233:
 16797 5c5d 55415254 		.ascii	"UART_IER_ABTOINT (1 << 9)\000"
 16797      5F494552 
 16797      5F414254 
 16797      4F494E54 
 16797      20283120 
 16798              	.LASF953:
 16799 5c77 5F5F5F5F 		.ascii	"____BMS_MODE__REQUESTED_MODE__BALANCE 1\000"
 16799      424D535F 
 16799      4D4F4445 
 16799      5F5F5245 
 16799      51554553 
 16800              	.LASF131:
 16801 5c9f 5F5F464C 		.ascii	"__FLT_MAX__ 3.4028234663852886e+38F\000"
 16801      545F4D41 
 16801      585F5F20 
 16801      332E3430 
 16801      32383233 
 16802              	.LASF904:
 16803 5cc3 5F5F5F5F 		.ascii	"____DASH_REQUEST__TYPE__LIMP_MODE_DISABLE 4\000"
 16803      44415348 
 16803      5F524551 
 16803      55455354 
 16803      5F5F5459 
 16804              	.LASF47:
 16805 5cef 5F5F494E 		.ascii	"__INT_LEAST8_TYPE__ signed char\000"
 16805      545F4C45 
 16805      41535438 
 16805      5F545950 
 16805      455F5F20 
 16806              	.LASF1229:
 16807 5d0f 55415254 		.ascii	"UART_IER_RLSINT (1 << 2)\000"
 16807      5F494552 
 16807      5F524C53 
 16807      494E5420 
 16807      2831203C 
 16808              	.LASF970:
 16809 5d28 5F5F4348 		.ascii	"__CHIP_H_ \000"
 16809      49505F48 
 16809      5F2000
 16810              	.LASF207:
 16811 5d33 5F5F4C46 		.ascii	"__LFRACT_FBIT__ 31\000"
 16811      52414354 
 16811      5F464249 
 16811      545F5F20 
 16811      333100
 16812              	.LASF785:
 16813 5d46 55494E54 		.ascii	"UINT64_MAX (__UINT64_MAX__)\000"
ARM GAS  /var/folders/z0/6xlwn_996xz3mwq1cgzkbq4r0000gp/T//ccBgBTlB.s 			page 374


 16813      36345F4D 
 16813      41582028 
 16813      5F5F5549 
 16813      4E543634 
 16814              	.LASF1153:
 16815 5d62 53595343 		.ascii	"SYSCTL_POWERDOWN_IRC_PD (1 << 1)\000"
 16815      544C5F50 
 16815      4F574552 
 16815      444F574E 
 16815      5F495243 
 16816              	.LASF320:
 16817 5d83 5F5F5349 		.ascii	"__SIZEOF_WCHAR_T__ 4\000"
 16817      5A454F46 
 16817      5F574348 
 16817      41525F54 
 16817      5F5F2034 
 16818              	.LASF1446:
 16819 5d98 4932435F 		.ascii	"I2C_I2STAT_S_TX_DAT_NACK ((0xC0))\000"
 16819      49325354 
 16819      41545F53 
 16819      5F54585F 
 16819      4441545F 
 16820              	.LASF235:
 16821 5dba 5F5F5553 		.ascii	"__USACCUM_MAX__ 0XFFFFP-8UHK\000"
 16821      41434355 
 16821      4D5F4D41 
 16821      585F5F20 
 16821      30584646 
 16822              	.LASF1714:
 16823 5dd7 52574C5F 		.ascii	"RWL_bms_comm\000"
 16823      626D735F 
 16823      636F6D6D 
 16823      00
 16824              	.LASF657:
 16825 5de4 5F5F7374 		.ascii	"__strong_reference(sym,aliassym) extern __typeof (s"
 16825      726F6E67 
 16825      5F726566 
 16825      6572656E 
 16825      63652873 
 16826 5e17 796D2920 		.ascii	"ym) aliassym __attribute__ ((__alias__ (#sym)))\000"
 16826      616C6961 
 16826      7373796D 
 16826      205F5F61 
 16826      74747269 
 16827              	.LASF1263:
 16828 5e47 55415254 		.ascii	"UART_LCR_SBS_MASK (1 << 2)\000"
 16828      5F4C4352 
 16828      5F534253 
 16828      5F4D4153 
 16828      4B202831 
 16829              	.LASF85:
 16830 5e62 5F5F494E 		.ascii	"__INT8_MAX__ 0x7f\000"
 16830      54385F4D 
 16830      41585F5F 
 16830      20307837 
 16830      6600
 16831              	.LASF496:
ARM GAS  /var/folders/z0/6xlwn_996xz3mwq1cgzkbq4r0000gp/T//ccBgBTlB.s 			page 375


 16832 5e74 5F5F6C6F 		.ascii	"__lock_try_acquire(lock) (_CAST_VOID 0)\000"
 16832      636B5F74 
 16832      72795F61 
 16832      63717569 
 16832      7265286C 
 16833              	.LASF336:
 16834 5e9c 5F5F4152 		.ascii	"__ARM_ARCH_6M__ 1\000"
 16834      4D5F4152 
 16834      43485F36 
 16834      4D5F5F20 
 16834      3100
 16835              	.LASF459:
 16836 5eae 5F574348 		.ascii	"_WCHAR_T_ \000"
 16836      41525F54 
 16836      5F2000
 16837              	.LASF97:
 16838 5eb9 5F5F494E 		.ascii	"__INT_LEAST32_MAX__ 0x7fffffffL\000"
 16838      545F4C45 
 16838      41535433 
 16838      325F4D41 
 16838      585F5F20 
 16839              	.LASF1605:
 16840 5ed9 424D535F 		.ascii	"BMS_YES_COMM\000"
 16840      5945535F 
 16840      434F4D4D 
 16840      00
 16841              	.LASF592:
 16842 5ee6 5F5F474E 		.ascii	"__GNUCLIKE_BUILTIN_VARARGS 1\000"
 16842      55434C49 
 16842      4B455F42 
 16842      55494C54 
 16842      494E5F56 
 16843              	.LASF818:
 16844 5f03 55494E54 		.ascii	"UINT32_C(x) __UINT32_C(x)\000"
 16844      33325F43 
 16844      28782920 
 16844      5F5F5549 
 16844      4E543332 
 16845              	.LASF1632:
 16846 5f1d 656C636F 		.ascii	"elcon_has_hardware_failure\000"
 16846      6E5F6861 
 16846      735F6861 
 16846      72647761 
 16846      72655F66 
 16847              	.LASF570:
 16848 5f38 5F5F4153 		.ascii	"__ASMNAME(cname) __XSTRING (__USER_LABEL_PREFIX__) "
 16848      4D4E414D 
 16848      4528636E 
 16848      616D6529 
 16848      205F5F58 
 16849 5f6b 636E616D 		.ascii	"cname\000"
 16849      6500
 16850              	.LASF629:
 16851 5f71 5F546872 		.ascii	"_Thread_local __thread\000"
 16851      6561645F 
 16851      6C6F6361 
 16851      6C205F5F 
ARM GAS  /var/folders/z0/6xlwn_996xz3mwq1cgzkbq4r0000gp/T//ccBgBTlB.s 			page 376


 16851      74687265 
 16852              	.LASF1747:
 16853 5f88 6D656173 		.ascii	"measure\000"
 16853      75726500 
 16854              	.LASF236:
 16855 5f90 5F5F5553 		.ascii	"__USACCUM_EPSILON__ 0x1P-8UHK\000"
 16855      41434355 
 16855      4D5F4550 
 16855      53494C4F 
 16855      4E5F5F20 
 16856              	.LASF483:
 16857 5fae 5F5F5F69 		.ascii	"___int_least16_t_defined 1\000"
 16857      6E745F6C 
 16857      65617374 
 16857      31365F74 
 16857      5F646566 
 16858              	.LASF1075:
 16859 5fc9 53797354 		.ascii	"SysTick_CALIB_TENMS_Pos 0\000"
 16859      69636B5F 
 16859      43414C49 
 16859      425F5445 
 16859      4E4D535F 
 16860              	.LASF690:
 16861 5fe3 5F535444 		.ascii	"_STDLIB_H_ \000"
 16861      4C49425F 
 16861      485F2000 
 16862              	.LASF1302:
 16863 5fef 55415254 		.ascii	"UART_ACR_MODE (1 << 1)\000"
 16863      5F414352 
 16863      5F4D4F44 
 16863      45202831 
 16863      203C3C20 
 16864              	.LASF1220:
 16865 6006 52425F56 		.ascii	"RB_VHEAD(rb) ((volatile uint32_t)(rb->head))\000"
 16865      48454144 
 16865      28726229 
 16865      20282876 
 16865      6F6C6174 
 16866              	.LASF438:
 16867 6033 5F535953 		.ascii	"_SYS_SIZE_T_H \000"
 16867      5F53495A 
 16867      455F545F 
 16867      482000
 16868              	.LASF162:
 16869 6042 5F5F4C44 		.ascii	"__LDBL_DENORM_MIN__ 4.9406564584124654e-324L\000"
 16869      424C5F44 
 16869      454E4F52 
 16869      4D5F4D49 
 16869      4E5F5F20 
 16870              	.LASF80:
 16871 606f 5F5F494E 		.ascii	"__INTMAX_C(c) c ## LL\000"
 16871      544D4158 
 16871      5F432863 
 16871      29206320 
 16871      2323204C 
 16872              	.LASF249:
 16873 6085 5F5F4C41 		.ascii	"__LACCUM_MIN__ (-0X1P31LK-0X1P31LK)\000"
ARM GAS  /var/folders/z0/6xlwn_996xz3mwq1cgzkbq4r0000gp/T//ccBgBTlB.s 			page 377


 16873      4343554D 
 16873      5F4D494E 
 16873      5F5F2028 
 16873      2D305831 
 16874              	.LASF1493:
 16875 60a9 53444F5F 		.ascii	"SDO_ABORT_UNSUPPORTED 0x06010000UL\000"
 16875      41424F52 
 16875      545F554E 
 16875      53555050 
 16875      4F525445 
 16876              	.LASF114:
 16877 60cc 5F5F5549 		.ascii	"__UINT_FAST16_MAX__ 0xffffffffU\000"
 16877      4E545F46 
 16877      41535431 
 16877      365F4D41 
 16877      585F5F20 
 16878              	.LASF62:
 16879 60ec 5F5F5549 		.ascii	"__UINT_FAST64_TYPE__ long long unsigned int\000"
 16879      4E545F46 
 16879      41535436 
 16879      345F5459 
 16879      50455F5F 
 16880              	.LASF792:
 16881 6118 494E545F 		.ascii	"INT_FAST16_MIN (-__INT_FAST16_MAX__ - 1)\000"
 16881      46415354 
 16881      31365F4D 
 16881      494E2028 
 16881      2D5F5F49 
 16882              	.LASF1276:
 16883 6141 55415254 		.ascii	"UART_MCR_RTS_CTRL (1 << 1)\000"
 16883      5F4D4352 
 16883      5F525453 
 16883      5F435452 
 16883      4C202831 
 16884              	.LASF537:
 16885 615c 5F524545 		.ascii	"_REENT_RAND_NEXT(ptr) ((ptr)->_new._reent._rand_nex"
 16885      4E545F52 
 16885      414E445F 
 16885      4E455854 
 16885      28707472 
 16886 618f 742900   		.ascii	"t)\000"
 16887              	.LASF1105:
 16888 6192 4C50435F 		.ascii	"LPC_GPIO_PORT0_BASE 0x50000000\000"
 16888      4750494F 
 16888      5F504F52 
 16888      54305F42 
 16888      41534520 
 16889              	.LASF1374:
 16890 61b1 5F5F4144 		.ascii	"__ADC_11XX_H_ \000"
 16890      435F3131 
 16890      58585F48 
 16890      5F2000
 16891              	.LASF1316:
 16892 61c0 55415254 		.ascii	"UART_ICR_FIXPULSE_EN (1 << 2)\000"
 16892      5F494352 
 16892      5F464958 
 16892      50554C53 
ARM GAS  /var/folders/z0/6xlwn_996xz3mwq1cgzkbq4r0000gp/T//ccBgBTlB.s 			page 378


 16892      455F454E 
 16893              	.LASF675:
 16894 61de 5F5F6C6F 		.ascii	"__locks_shared(...) __lock_annotate(shared_lock_fun"
 16894      636B735F 
 16894      73686172 
 16894      6564282E 
 16894      2E2E2920 
 16895 6211 6374696F 		.ascii	"ction(__VA_ARGS__))\000"
 16895      6E285F5F 
 16895      56415F41 
 16895      5247535F 
 16895      5F292900 
 16896              	.LASF1490:
 16897 6225 53444F5F 		.ascii	"SDO_ABORT_TOGGLE 0x05030000UL\000"
 16897      41424F52 
 16897      545F544F 
 16897      47474C45 
 16897      20307830 
 16898              	.LASF206:
 16899 6243 5F5F5546 		.ascii	"__UFRACT_EPSILON__ 0x1P-16UR\000"
 16899      52414354 
 16899      5F455053 
 16899      494C4F4E 
 16899      5F5F2030 
 16900              	.LASF1401:
 16901 6260 4932435F 		.ascii	"I2C_I2CONSET_AA ((0x04))\000"
 16901      4932434F 
 16901      4E534554 
 16901      5F414120 
 16901      28283078 
 16902              	.LASF1692:
 16903 6279 435F434F 		.ascii	"C_CONFIG_DEF\000"
 16903      4E464947 
 16903      5F444546 
 16903      00
 16904              	.LASF1589:
 16905 6286 43414E5F 		.ascii	"CAN_BMSERRORS_CELL_UNDER_VOLTAGE\000"
 16905      424D5345 
 16905      52524F52 
 16905      535F4345 
 16905      4C4C5F55 
 16906              	.LASF78:
 16907 62a7 5F5F5349 		.ascii	"__SIZE_MAX__ 0xffffffffU\000"
 16907      5A455F4D 
 16907      41585F5F 
 16907      20307866 
 16907      66666666 
 16908              	.LASF937:
 16909 62c0 46524F4E 		.ascii	"FRONTCANNODEOUTPUT__freq 50\000"
 16909      5443414E 
 16909      4E4F4445 
 16909      4F555450 
 16909      55545F5F 
 16910              	.LASF519:
 16911 62dc 5F52414E 		.ascii	"_RAND48_MULT_0 (0xe66d)\000"
 16911      4434385F 
 16911      4D554C54 
ARM GAS  /var/folders/z0/6xlwn_996xz3mwq1cgzkbq4r0000gp/T//ccBgBTlB.s 			page 379


 16911      5F302028 
 16911      30786536 
 16912              	.LASF943:
 16913 62f4 424D5353 		.ascii	"BMSSTATE__freq 1\000"
 16913      54415445 
 16913      5F5F6672 
 16913      65712031 
 16913      00
 16914              	.LASF1176:
 16915 6305 494F434F 		.ascii	"IOCON_INV_EN (0x1 << 6)\000"
 16915      4E5F494E 
 16915      565F454E 
 16915      20283078 
 16915      31203C3C 
 16916              	.LASF1590:
 16917 631d 43414E5F 		.ascii	"CAN_BMSERRORS_CELL_OVER_TEMP\000"
 16917      424D5345 
 16917      52524F52 
 16917      535F4345 
 16917      4C4C5F4F 
 16918              	.LASF1053:
 16919 633a 5343425F 		.ascii	"SCB_CCR_STKALIGN_Pos 9\000"
 16919      4343525F 
 16919      53544B41 
 16919      4C49474E 
 16919      5F506F73 
 16920              	.LASF547:
 16921 6351 5F524545 		.ascii	"_REENT_EMERGENCY(ptr) ((ptr)->_emergency)\000"
 16921      4E545F45 
 16921      4D455247 
 16921      454E4359 
 16921      28707472 
 16922              	.LASF113:
 16923 637b 5F5F5549 		.ascii	"__UINT_FAST8_MAX__ 0xffffffffU\000"
 16923      4E545F46 
 16923      41535438 
 16923      5F4D4158 
 16923      5F5F2030 
 16924              	.LASF1065:
 16925 639a 53797354 		.ascii	"SysTick_CTRL_ENABLE_Pos 0\000"
 16925      69636B5F 
 16925      4354524C 
 16925      5F454E41 
 16925      424C455F 
 16926              	.LASF561:
 16927 63b4 5F4B6D61 		.ascii	"_Kmax (sizeof (size_t) << 3)\000"
 16927      78202873 
 16927      697A656F 
 16927      66202873 
 16927      697A655F 
 16928              	.LASF563:
 16929 63d1 5F524545 		.ascii	"_REENT _impure_ptr\000"
 16929      4E54205F 
 16929      696D7075 
 16929      72655F70 
 16929      747200
 16930              	.LASF551:
ARM GAS  /var/folders/z0/6xlwn_996xz3mwq1cgzkbq4r0000gp/T//ccBgBTlB.s 			page 380


 16931 63e4 5F524545 		.ascii	"_REENT_WCTOMB_STATE(ptr) ((ptr)->_new._reent._wctom"
 16931      4E545F57 
 16931      43544F4D 
 16931      425F5354 
 16931      41544528 
 16932 6417 625F7374 		.ascii	"b_state)\000"
 16932      61746529 
 16932      00
 16933              	.LASF816:
 16934 6420 55494E54 		.ascii	"UINT16_C(x) __UINT16_C(x)\000"
 16934      31365F43 
 16934      28782920 
 16934      5F5F5549 
 16934      4E543136 
 16935              	.LASF272:
 16936 643a 5F5F5351 		.ascii	"__SQ_IBIT__ 0\000"
 16936      5F494249 
 16936      545F5F20 
 16936      3000
 16937              	.LASF1130:
 16938 6448 504D555F 		.ascii	"PMU_PCON_PM_SLEEP (0x0)\000"
 16938      50434F4E 
 16938      5F504D5F 
 16938      534C4545 
 16938      50202830 
 16939              	.LASF1071:
 16940 6460 53797354 		.ascii	"SysTick_CALIB_NOREF_Pos 31\000"
 16940      69636B5F 
 16940      43414C49 
 16940      425F4E4F 
 16940      5245465F 
 16941              	.LASF966:
 16942 647b 5F434F4E 		.ascii	"_CONSOLE_TYPES_H \000"
 16942      534F4C45 
 16942      5F545950 
 16942      45535F48 
 16942      2000
 16943              	.LASF843:
 16944 648d 4B45595F 		.ascii	"KEY_BEL 7\000"
 16944      42454C20 
 16944      3700
 16945              	.LASF902:
 16946 6497 44415348 		.ascii	"DASH_REQUEST__id 210\000"
 16946      5F524551 
 16946      55455354 
 16946      5F5F6964 
 16946      20323130 
 16947              	.LASF671:
 16948 64ac 5F5F6461 		.ascii	"__datatype_type_tag(kind,type) \000"
 16948      74617479 
 16948      70655F74 
 16948      7970655F 
 16948      74616728 
 16949              	.LASF1764:
 16950 64cc 7072696E 		.ascii	"printPackCurrent\000"
 16950      74506163 
 16950      6B437572 
ARM GAS  /var/folders/z0/6xlwn_996xz3mwq1cgzkbq4r0000gp/T//ccBgBTlB.s 			page 381


 16950      72656E74 
 16950      00
 16951              	.LASF1085:
 16952 64dd 5F534850 		.ascii	"_SHP_IDX(IRQn) ( ((((uint32_t)(IRQn) & 0x0F)-8) >> "
 16952      5F494458 
 16952      28495251 
 16952      6E292028 
 16952      20282828 
 16953 6510 32292029 		.ascii	"2) )\000"
 16953      00
 16954              	.LASF633:
 16955 6515 5F5F616C 		.ascii	"__always_inline __attribute__((__always_inline__))\000"
 16955      77617973 
 16955      5F696E6C 
 16955      696E6520 
 16955      5F5F6174 
 16956              	.LASF1143:
 16957 6548 53595343 		.ascii	"SYSCTL_DEEPSLP_WDTOSC_PD (1 << 6)\000"
 16957      544C5F44 
 16957      45455053 
 16957      4C505F57 
 16957      44544F53 
 16958              	.LASF1027:
 16959 656a 5343425F 		.ascii	"SCB_ICSR_PENDSTCLR_Pos 25\000"
 16959      49435352 
 16959      5F50454E 
 16959      44535443 
 16959      4C525F50 
 16960              	.LASF1378:
 16961 6584 4144435F 		.ascii	"ADC_DR_DONE(n) (((n) >> 31))\000"
 16961      44525F44 
 16961      4F4E4528 
 16961      6E292028 
 16961      28286E29 
 16962              	.LASF620:
 16963 65a1 5F5F7061 		.ascii	"__packed __attribute__((__packed__))\000"
 16963      636B6564 
 16963      205F5F61 
 16963      74747269 
 16963      62757465 
 16964              	.LASF167:
 16965 65c6 5F5F4445 		.ascii	"__DEC32_MIN_EXP__ (-94)\000"
 16965      4333325F 
 16965      4D494E5F 
 16965      4558505F 
 16965      5F20282D 
 16966              	.LASF1100:
 16967 65de 4C50435F 		.ascii	"LPC_IOCON_BASE 0x40044000\000"
 16967      494F434F 
 16967      4E5F4241 
 16967      53452030 
 16967      78343030 
 16968              	.LASF1066:
 16969 65f8 53797354 		.ascii	"SysTick_CTRL_ENABLE_Msk (1UL << SysTick_CTRL_ENABLE"
 16969      69636B5F 
 16969      4354524C 
 16969      5F454E41 
ARM GAS  /var/folders/z0/6xlwn_996xz3mwq1cgzkbq4r0000gp/T//ccBgBTlB.s 			page 382


 16969      424C455F 
 16970 662b 5F506F73 		.ascii	"_Pos)\000"
 16970      2900
 16971              	.LASF189:
 16972 6631 5F5F5346 		.ascii	"__SFRACT_MIN__ (-0.5HR-0.5HR)\000"
 16972      52414354 
 16972      5F4D494E 
 16972      5F5F2028 
 16972      2D302E35 
 16973              	.LASF693:
 16974 664f 5F4E4557 		.ascii	"_NEWLIB_ALLOCA_H \000"
 16974      4C49425F 
 16974      414C4C4F 
 16974      43415F48 
 16974      2000
 16975              	.LASF247:
 16976 6661 5F5F4C41 		.ascii	"__LACCUM_FBIT__ 31\000"
 16976      4343554D 
 16976      5F464249 
 16976      545F5F20 
 16976      333100
 16977              	.LASF351:
 16978 6674 5F4E4557 		.ascii	"_NEWLIB_VERSION \"2.4.0\"\000"
 16978      4C49425F 
 16978      56455253 
 16978      494F4E20 
 16978      22322E34 
 16979              	.LASF1712:
 16980 668c 52574C5F 		.ascii	"RWL_cv_charge_voltage_mV\000"
 16980      63765F63 
 16980      68617267 
 16980      655F766F 
 16980      6C746167 
 16981              	.LASF254:
 16982 66a5 5F5F554C 		.ascii	"__ULACCUM_MIN__ 0.0ULK\000"
 16982      41434355 
 16982      4D5F4D49 
 16982      4E5F5F20 
 16982      302E3055 
 16983              	.LASF1616:
 16984 66bc 7061636B 		.ascii	"pack_cells_p\000"
 16984      5F63656C 
 16984      6C735F70 
 16984      00
 16985              	.LASF920:
 16986 66c9 5F5F5F5F 		.ascii	"____BMSERRORS__TYPE__LTC6804_PEC 1\000"
 16986      424D5345 
 16986      52524F52 
 16986      535F5F54 
 16986      5950455F 
 16987              	.LASF1592:
 16988 66ec 43414E5F 		.ascii	"CAN_BMSERRORS_CELL_UNDER_TEMP\000"
 16988      424D5345 
 16988      52524F52 
 16988      535F4345 
 16988      4C4C5F55 
 16989              	.LASF960:
ARM GAS  /var/folders/z0/6xlwn_996xz3mwq1cgzkbq4r0000gp/T//ccBgBTlB.s 			page 383


 16990 670a 5F43414E 		.ascii	"_CAN_LIBRARY_CSB_H \000"
 16990      5F4C4942 
 16990      52415259 
 16990      5F435342 
 16990      5F482000 
 16991              	.LASF1141:
 16992 671e 53595343 		.ascii	"SYSCTL_NMISRC_ENABLE ((uint32_t) 1 << 31)\000"
 16992      544C5F4E 
 16992      4D495352 
 16992      435F454E 
 16992      41424C45 
 16993              	.LASF474:
 16994 6748 5F535953 		.ascii	"_SYS__TYPES_H \000"
 16994      5F5F5459 
 16994      5045535F 
 16994      482000
 16995              	.LASF1161:
 16996 6757 53595343 		.ascii	"SYSCTL_IRC_FREQ (12000000)\000"
 16996      544C5F49 
 16996      52435F46 
 16996      52455120 
 16996      28313230 
 16997              	.LASF518:
 16998 6772 5F52414E 		.ascii	"_RAND48_SEED_2 (0x1234)\000"
 16998      4434385F 
 16998      53454544 
 16998      5F322028 
 16998      30783132 
 16999              	.LASF1009:
 17000 678a 5343425F 		.ascii	"SCB_CPUID_IMPLEMENTER_Pos 24\000"
 17000      43505549 
 17000      445F494D 
 17000      504C454D 
 17000      454E5445 
 17001              	.LASF71:
 17002 67a7 5F5F4C4F 		.ascii	"__LONG_MAX__ 0x7fffffffL\000"
 17002      4E475F4D 
 17002      41585F5F 
 17002      20307837 
 17002      66666666 
 17003              	.LASF993:
 17004 67c0 5F5F5665 		.ascii	"__Vendor_SysTickConfig 0\000"
 17004      6E646F72 
 17004      5F537973 
 17004      5469636B 
 17004      436F6E66 
 17005              	.LASF663:
 17006 67d9 5F5F5243 		.ascii	"__RCSID(s) struct __hack\000"
 17006      53494428 
 17006      73292073 
 17006      74727563 
 17006      74205F5F 
 17007              	.LASF98:
 17008 67f2 5F5F494E 		.ascii	"__INT32_C(c) c ## L\000"
 17008      5433325F 
 17008      43286329 
 17008      20632023 
ARM GAS  /var/folders/z0/6xlwn_996xz3mwq1cgzkbq4r0000gp/T//ccBgBTlB.s 			page 384


 17008      23204C00 
 17009              	.LASF401:
 17010 6806 5F414E44 		.ascii	"_AND ,\000"
 17010      202C00
 17011              	.LASF584:
 17012 680d 5F5F454E 		.ascii	"__END_DECLS \000"
 17012      445F4445 
 17012      434C5320 
 17012      00
 17013              	.LASF1644:
 17014 681a 4353425F 		.ascii	"CSB_SSM_MODE_T\000"
 17014      53534D5F 
 17014      4D4F4445 
 17014      5F5400
 17015              	.LASF1173:
 17016 6829 494F434F 		.ascii	"IOCON_MODE_PULLUP (0x2 << 3)\000"
 17016      4E5F4D4F 
 17016      44455F50 
 17016      554C4C55 
 17016      50202830 
 17017              	.LASF1575:
 17018 6846 73697A65 		.ascii	"sizetype\000"
 17018      74797065 
 17018      00
 17019              	.LASF485:
 17020 684f 5F5F5F69 		.ascii	"___int_least64_t_defined 1\000"
 17020      6E745F6C 
 17020      65617374 
 17020      36345F74 
 17020      5F646566 
 17021              	.LASF178:
 17022 686a 5F5F4445 		.ascii	"__DEC64_EPSILON__ 1E-15DD\000"
 17022      4336345F 
 17022      45505349 
 17022      4C4F4E5F 
 17022      5F203145 
 17023              	.LASF980:
 17024 6884 4E454C45 		.ascii	"NELEMENTS(array) (sizeof(array) / sizeof(array[0]))"
 17024      4D454E54 
 17024      53286172 
 17024      72617929 
 17024      20287369 
 17025 68b7 00       		.ascii	"\000"
 17026              	.LASF472:
 17027 68b8 5F5F6E65 		.ascii	"__need_NULL\000"
 17027      65645F4E 
 17027      554C4C00 
 17028              	.LASF1339:
 17029 68c4 57574454 		.ascii	"WWDT_WDMOD_WDEN ((uint32_t) (1 << 0))\000"
 17029      5F57444D 
 17029      4F445F57 
 17029      44454E20 
 17029      28287569 
 17030              	.LASF593:
 17031 68ea 5F5F474E 		.ascii	"__GNUCLIKE_BUILTIN_STDARG 1\000"
 17031      55434C49 
 17031      4B455F42 
ARM GAS  /var/folders/z0/6xlwn_996xz3mwq1cgzkbq4r0000gp/T//ccBgBTlB.s 			page 385


 17031      55494C54 
 17031      494E5F53 
 17032              	.LASF754:
 17033 6906 5F5F696E 		.ascii	"__int_least8_t_defined 1\000"
 17033      745F6C65 
 17033      61737438 
 17033      5F745F64 
 17033      6566696E 
 17034              	.LASF995:
 17035 691f 5F5F434D 		.ascii	"__CM0_CMSIS_VERSION_MAIN (0x03)\000"
 17035      305F434D 
 17035      5349535F 
 17035      56455253 
 17035      494F4E5F 
 17036              	.LASF1051:
 17037 693f 5343425F 		.ascii	"SCB_SCR_SLEEPONEXIT_Pos 1\000"
 17037      5343525F 
 17037      534C4545 
 17037      504F4E45 
 17037      5849545F 
 17038              	.LASF168:
 17039 6959 5F5F4445 		.ascii	"__DEC32_MAX_EXP__ 97\000"
 17039      4333325F 
 17039      4D41585F 
 17039      4558505F 
 17039      5F203937 
 17040              	.LASF1312:
 17041 696e 55415254 		.ascii	"UART_RS485CTRL_OINV_1 (1 << 5)\000"
 17041      5F525334 
 17041      38354354 
 17041      524C5F4F 
 17041      494E565F 
 17042              	.LASF917:
 17043 698d 5F5F5F5F 		.ascii	"____BMSERRORS__TYPE__LTC6804_OWT 3\000"
 17043      424D5345 
 17043      52524F52 
 17043      535F5F54 
 17043      5950455F 
 17044              	.LASF1761:
 17045 69b0 4F757470 		.ascii	"Output_Measurements\000"
 17045      75745F4D 
 17045      65617375 
 17045      72656D65 
 17045      6E747300 
 17046              	.LASF368:
 17047 69c4 5F5F4945 		.ascii	"__IEEE_LITTLE_ENDIAN \000"
 17047      45455F4C 
 17047      4954544C 
 17047      455F454E 
 17047      4449414E 
 17048              	.LASF946:
 17049 69da 424D535F 		.ascii	"BMS_SOC__id 213\000"
 17049      534F435F 
 17049      5F696420 
 17049      32313300 
 17050              	.LASF1301:
 17051 69ea 55415254 		.ascii	"UART_ACR_START (1 << 0)\000"
ARM GAS  /var/folders/z0/6xlwn_996xz3mwq1cgzkbq4r0000gp/T//ccBgBTlB.s 			page 386


 17051      5F414352 
 17051      5F535441 
 17051      52542028 
 17051      31203C3C 
 17052              	.LASF860:
 17053 6a02 4B45595F 		.ascii	"KEY_CAN 24\000"
 17053      43414E20 
 17053      323400
 17054              	.LASF1567:
 17055 6a0d 73686F72 		.ascii	"short unsigned int\000"
 17055      7420756E 
 17055      7369676E 
 17055      65642069 
 17055      6E7400
 17056              	.LASF1701:
 17057 6a20 52574C5F 		.ascii	"RWL_num_modules\000"
 17057      6E756D5F 
 17057      6D6F6475 
 17057      6C657300 
 17058              	.LASF1061:
 17059 6a30 53797354 		.ascii	"SysTick_CTRL_CLKSOURCE_Pos 2\000"
 17059      69636B5F 
 17059      4354524C 
 17059      5F434C4B 
 17059      534F5552 
 17060              	.LASF1751:
 17061 6a4d 796E6C6F 		.ascii	"ynloc\000"
 17061      6300
 17062              	.LASF495:
 17063 6a53 5F5F6C6F 		.ascii	"__lock_acquire_recursive(lock) (_CAST_VOID 0)\000"
 17063      636B5F61 
 17063      63717569 
 17063      72655F72 
 17063      65637572 
 17064              	.LASF736:
 17065 6a81 5F5F4C45 		.ascii	"__LEAST16 \"h\"\000"
 17065      41535431 
 17065      36202268 
 17065      2200
 17066              	.LASF873:
 17067 6a8f 5F455343 		.ascii	"_ESC_HOME 2\000"
 17067      5F484F4D 
 17067      45203200 
 17068              	.LASF1166:
 17069 6a9b 494F434F 		.ascii	"IOCON_FUNC3 0x3\000"
 17069      4E5F4655 
 17069      4E433320 
 17069      30783300 
 17070              	.LASF435:
 17071 6aab 5F5F7369 		.ascii	"__size_t__ \000"
 17071      7A655F74 
 17071      5F5F2000 
 17072              	.LASF1641:
 17073 6ab7 4353425F 		.ascii	"CSB_SSM_MODE_IDLE\000"
 17073      53534D5F 
 17073      4D4F4445 
 17073      5F49444C 
ARM GAS  /var/folders/z0/6xlwn_996xz3mwq1cgzkbq4r0000gp/T//ccBgBTlB.s 			page 387


 17073      4500
 17074              	.LASF367:
 17075 6ac9 5F5F5359 		.ascii	"__SYS_CONFIG_H__ \000"
 17075      535F434F 
 17075      4E464947 
 17075      5F485F5F 
 17075      2000
 17076              	.LASF1678:
 17077 6adb 4353425F 		.ascii	"CSB_INPUT_T\000"
 17077      494E5055 
 17077      545F5400 
 17078              	.LASF643:
 17079 6ae7 5F5F7072 		.ascii	"__predict_false(exp) __builtin_expect((exp), 0)\000"
 17079      65646963 
 17079      745F6661 
 17079      6C736528 
 17079      65787029 
 17080              	.LASF392:
 17081 6b17 5F5F4558 		.ascii	"__EXPORT \000"
 17081      504F5254 
 17081      2000
 17082              	.LASF1602:
 17083 6b21 43555354 		.ascii	"CUSTOM_PACK\000"
 17083      4F4D5F50 
 17083      41434B00 
 17084              	.LASF400:
 17085 6b2d 5F505452 		.ascii	"_PTR void *\000"
 17085      20766F69 
 17085      64202A00 
 17086              	.LASF266:
 17087 6b39 5F5F554C 		.ascii	"__ULLACCUM_EPSILON__ 0x1P-32ULLK\000"
 17087      4C414343 
 17087      554D5F45 
 17087      5053494C 
 17087      4F4E5F5F 
 17088              	.LASF22:
 17089 6b5a 5F5F4348 		.ascii	"__CHAR_BIT__ 8\000"
 17089      41525F42 
 17089      49545F5F 
 17089      203800
 17090              	.LASF34:
 17091 6b69 5F5F494E 		.ascii	"__INTMAX_TYPE__ long long int\000"
 17091      544D4158 
 17091      5F545950 
 17091      455F5F20 
 17091      6C6F6E67 
 17092              	.LASF1204:
 17093 6b87 46554E43 		.ascii	"FUNC6 0x6\000"
 17093      36203078 
 17093      3600
 17094              	.LASF1369:
 17095 6b91 5353505F 		.ascii	"SSP_SLAVE_MODE SSP_CR1_SLAVE_EN\000"
 17095      534C4156 
 17095      455F4D4F 
 17095      44452053 
 17095      53505F43 
 17096              	.LASF389:
ARM GAS  /var/folders/z0/6xlwn_996xz3mwq1cgzkbq4r0000gp/T//ccBgBTlB.s 			page 388


 17097 6bb1 5F504F49 		.ascii	"_POINTER_INT long\000"
 17097      4E544552 
 17097      5F494E54 
 17097      206C6F6E 
 17097      6700
 17098              	.LASF1536:
 17099 6bc3 4D593138 		.ascii	"MY18_NUM_MODULES 6\000"
 17099      5F4E554D 
 17099      5F4D4F44 
 17099      554C4553 
 17099      203600
 17100              	.LASF1260:
 17101 6bd6 55415254 		.ascii	"UART_LCR_WLEN6 (1 << 0)\000"
 17101      5F4C4352 
 17101      5F574C45 
 17101      4E362028 
 17101      31203C3C 
 17102              	.LASF1549:
 17103 6bee 4D593136 		.ascii	"MY16_CELL_CHARGE_C_RATING_cC 5\000"
 17103      5F43454C 
 17103      4C5F4348 
 17103      41524745 
 17103      5F435F52 
 17104              	.LASF1305:
 17105 6c0d 55415254 		.ascii	"UART_ACR_ABTOINT_CLR (1 << 9)\000"
 17105      5F414352 
 17105      5F414254 
 17105      4F494E54 
 17105      5F434C52 
 17106              	.LASF582:
 17107 6c2b 5F5F6861 		.ascii	"__has_builtin(x) 0\000"
 17107      735F6275 
 17107      696C7469 
 17107      6E287829 
 17107      203000
 17108              	.LASF961:
 17109 6c3e 5F43414E 		.ascii	"_CAN_LIBRARY_MC_H \000"
 17109      5F4C4942 
 17109      52415259 
 17109      5F4D435F 
 17109      482000
 17110              	.LASF565:
 17111 6c51 5F474C4F 		.ascii	"_GLOBAL_ATEXIT (_GLOBAL_REENT->_atexit)\000"
 17111      42414C5F 
 17111      41544558 
 17111      49542028 
 17111      5F474C4F 
 17112              	.LASF1107:
 17113 6c79 4C50435F 		.ascii	"LPC_GPIO_PORT2_BASE 0x50020000\000"
 17113      4750494F 
 17113      5F504F52 
 17113      54325F42 
 17113      41534520 
 17114              	.LASF1420:
 17115 6c98 4932435F 		.ascii	"I2C_I2STAT_M_TX_START ((0x08))\000"
 17115      49325354 
 17115      41545F4D 
ARM GAS  /var/folders/z0/6xlwn_996xz3mwq1cgzkbq4r0000gp/T//ccBgBTlB.s 			page 389


 17115      5F54585F 
 17115      53544152 
 17116              	.LASF443:
 17117 6cb7 5F425344 		.ascii	"_BSD_SIZE_T_ \000"
 17117      5F53495A 
 17117      455F545F 
 17117      2000
 17118              	.LASF1371:
 17119 6cc5 5F5F524F 		.ascii	"__ROMAPI_11XX_H_ \000"
 17119      4D415049 
 17119      5F313158 
 17119      585F485F 
 17119      2000
 17120              	.LASF66:
 17121 6cd7 5F5F6861 		.ascii	"__has_include_next(STR) __has_include_next__(STR)\000"
 17121      735F696E 
 17121      636C7564 
 17121      655F6E65 
 17121      78742853 
 17122              	.LASF501:
 17123 6d09 756E7369 		.ascii	"unsigned signed\000"
 17123      676E6564 
 17123      20736967 
 17123      6E656400 
 17124              	.LASF36:
 17125 6d19 5F5F4348 		.ascii	"__CHAR16_TYPE__ short unsigned int\000"
 17125      41523136 
 17125      5F545950 
 17125      455F5F20 
 17125      73686F72 
 17126              	.LASF1242:
 17127 6d3c 55415254 		.ascii	"UART_IIR_INTID_MASK (7 << 1)\000"
 17127      5F494952 
 17127      5F494E54 
 17127      49445F4D 
 17127      41534B20 
 17128              	.LASF117:
 17129 6d59 5F5F494E 		.ascii	"__INTPTR_MAX__ 0x7fffffff\000"
 17129      54505452 
 17129      5F4D4158 
 17129      5F5F2030 
 17129      78376666 
 17130              	.LASF1449:
 17131 6d73 4932435F 		.ascii	"I2C_I2DAT_BITMASK ((0xFF))\000"
 17131      49324441 
 17131      545F4249 
 17131      544D4153 
 17131      4B202828 
 17132              	.LASF317:
 17133 6d8e 5F5F4743 		.ascii	"__GCC_ATOMIC_POINTER_LOCK_FREE 1\000"
 17133      435F4154 
 17133      4F4D4943 
 17133      5F504F49 
 17133      4E544552 
 17134              	.LASF221:
 17135 6daf 5F5F4C4C 		.ascii	"__LLFRACT_EPSILON__ 0x1P-63LLR\000"
 17135      46524143 
ARM GAS  /var/folders/z0/6xlwn_996xz3mwq1cgzkbq4r0000gp/T//ccBgBTlB.s 			page 390


 17135      545F4550 
 17135      53494C4F 
 17135      4E5F5F20 
 17136              	.LASF1481:
 17137 6dce 43414E5F 		.ascii	"CAN_ERROR_FORM 0x00000010UL\000"
 17137      4552524F 
 17137      525F464F 
 17137      524D2030 
 17137      78303030 
 17138              	.LASF145:
 17139 6dea 5F5F4442 		.ascii	"__DBL_MAX__ ((double)1.7976931348623157e+308L)\000"
 17139      4C5F4D41 
 17139      585F5F20 
 17139      2828646F 
 17139      75626C65 
 17140              	.LASF1112:
 17141 6e19 4C50435F 		.ascii	"LPC_WWDT ((LPC_WWDT_T *) LPC_WWDT_BASE)\000"
 17141      57574454 
 17141      2028284C 
 17141      50435F57 
 17141      5744545F 
 17142              	.LASF1030:
 17143 6e41 5343425F 		.ascii	"SCB_ICSR_ISRPREEMPT_Msk (1UL << SCB_ICSR_ISRPREEMPT"
 17143      49435352 
 17143      5F495352 
 17143      50524545 
 17143      4D50545F 
 17144 6e74 5F506F73 		.ascii	"_Pos)\000"
 17144      2900
 17145              	.LASF1384:
 17146 6e7a 4144435F 		.ascii	"ADC_CR_START_MASK ((7UL << 24))\000"
 17146      43525F53 
 17146      54415254 
 17146      5F4D4153 
 17146      4B202828 
 17147              	.LASF830:
 17148 6e9a 5F555345 		.ascii	"_USE_HISTORY \000"
 17148      5F484953 
 17148      544F5259 
 17148      2000
 17149              	.LASF646:
 17150 6ea8 5F5F6869 		.ascii	"__hidden __attribute__((__visibility__(\"hidden\"))"
 17150      6464656E 
 17150      205F5F61 
 17150      74747269 
 17150      62757465 
 17151 6ed9 2900     		.ascii	")\000"
 17152              	.LASF1456:
 17153 6edb 4932435F 		.ascii	"I2C_I2ADR_GC ((1 << 0))\000"
 17153      49324144 
 17153      525F4743 
 17153      20282831 
 17153      203C3C20 
 17154              	.LASF1293:
 17155 6ef3 55415254 		.ascii	"UART_MSR_DELTA_DSR (1 << 1)\000"
 17155      5F4D5352 
 17155      5F44454C 
ARM GAS  /var/folders/z0/6xlwn_996xz3mwq1cgzkbq4r0000gp/T//ccBgBTlB.s 			page 391


 17155      54415F44 
 17155      53522028 
 17156              	.LASF539:
 17157 6f0f 5F524545 		.ascii	"_REENT_RAND48_MULT(ptr) ((ptr)->_new._reent._r48._m"
 17157      4E545F52 
 17157      414E4434 
 17157      385F4D55 
 17157      4C542870 
 17158 6f42 756C7429 		.ascii	"ult)\000"
 17158      00
 17159              	.LASF1737:
 17160 6f47 6D656173 		.ascii	"measure_on\000"
 17160      7572655F 
 17160      6F6E00
 17161              	.LASF292:
 17162 6f52 5F5F4441 		.ascii	"__DA_IBIT__ 32\000"
 17162      5F494249 
 17162      545F5F20 
 17162      333200
 17163              	.LASF175:
 17164 6f61 5F5F4445 		.ascii	"__DEC64_MAX_EXP__ 385\000"
 17164      4336345F 
 17164      4D41585F 
 17164      4558505F 
 17164      5F203338 
 17165              	.LASF1755:
 17166 6f77 73746174 		.ascii	"state\000"
 17166      6500
 17167              	.LASF1457:
 17168 6f7d 4932435F 		.ascii	"I2C_I2ADR_BITMASK ((0xFF))\000"
 17168      49324144 
 17168      525F4249 
 17168      544D4153 
 17168      4B202828 
 17169              	.LASF553:
 17170 6f98 5F524545 		.ascii	"_REENT_MBRTOWC_STATE(ptr) ((ptr)->_new._reent._mbrt"
 17170      4E545F4D 
 17170      4252544F 
 17170      57435F53 
 17170      54415445 
 17171 6fcb 6F77635F 		.ascii	"owc_state)\000"
 17171      73746174 
 17171      652900
 17172              	.LASF794:
 17173 6fd6 55494E54 		.ascii	"UINT_FAST16_MAX (__UINT_FAST16_MAX__)\000"
 17173      5F464153 
 17173      5431365F 
 17173      4D415820 
 17173      285F5F55 
 17174              	.LASF1194:
 17175 6ffc 4D445F53 		.ascii	"MD_SFI2C (0x0 << 8)\000"
 17175      46493243 
 17175      20283078 
 17175      30203C3C 
 17175      20382900 
 17176              	.LASF424:
 17177 7010 5F414E53 		.ascii	"_ANSI_STDDEF_H \000"
ARM GAS  /var/folders/z0/6xlwn_996xz3mwq1cgzkbq4r0000gp/T//ccBgBTlB.s 			page 392


 17177      495F5354 
 17177      44444546 
 17177      5F482000 
 17178              	.LASF721:
 17179 7020 73686F72 		.ascii	"short +1\000"
 17179      74202B31 
 17179      00
 17180              	.LASF812:
 17181 7029 57494E54 		.ascii	"WINT_MIN (__WINT_MIN__)\000"
 17181      5F4D494E 
 17181      20285F5F 
 17181      57494E54 
 17181      5F4D494E 
 17182              	.LASF1437:
 17183 7041 4932435F 		.ascii	"I2C_I2STAT_S_RX_ARB_LOST_M_GENCALL ((0x78))\000"
 17183      49325354 
 17183      41545F53 
 17183      5F52585F 
 17183      4152425F 
 17184              	.LASF1343:
 17185 706d 57574454 		.ascii	"WWDT_WDMOD_WDPROTECT ((uint32_t) (1 << 4))\000"
 17185      5F57444D 
 17185      4F445F57 
 17185      4450524F 
 17185      54454354 
 17186              	.LASF1754:
 17187 7098 696E7075 		.ascii	"input\000"
 17187      7400
 17188              	.LASF1285:
 17189 709e 55415254 		.ascii	"UART_LSR_BI (1 << 4)\000"
 17189      5F4C5352 
 17189      5F424920 
 17189      2831203C 
 17189      3C203429 
 17190              	.LASF521:
 17191 70b3 5F52414E 		.ascii	"_RAND48_MULT_2 (0x0005)\000"
 17191      4434385F 
 17191      4D554C54 
 17191      5F322028 
 17191      30783030 
 17192              	.LASF975:
 17193 70cb 5F424954 		.ascii	"_BIT(n) (1 << (n))\000"
 17193      286E2920 
 17193      2831203C 
 17193      3C20286E 
 17193      292900
 17194              	.LASF878:
 17195 70de 5F4D5931 		.ascii	"_MY18_CAN_LIBRARY_CAN_RAW_H \000"
 17195      385F4341 
 17195      4E5F4C49 
 17195      42524152 
 17195      595F4341 
 17196              	.LASF605:
 17197 70fb 5F5F4343 		.ascii	"__CC_SUPPORTS_VARADIC_XXX 1\000"
 17197      5F535550 
 17197      504F5254 
 17197      535F5641 
ARM GAS  /var/folders/z0/6xlwn_996xz3mwq1cgzkbq4r0000gp/T//ccBgBTlB.s 			page 393


 17197      52414449 
 17198              	.LASF341:
 17199 7117 5F5F5553 		.ascii	"__USES_INITFINI__ 1\000"
 17199      45535F49 
 17199      4E495446 
 17199      494E495F 
 17199      5F203100 
 17200              	.LASF313:
 17201 712b 5F5F4743 		.ascii	"__GCC_ATOMIC_INT_LOCK_FREE 1\000"
 17201      435F4154 
 17201      4F4D4943 
 17201      5F494E54 
 17201      5F4C4F43 
 17202              	.LASF1074:
 17203 7148 53797354 		.ascii	"SysTick_CALIB_SKEW_Msk (1UL << SysTick_CALIB_SKEW_P"
 17203      69636B5F 
 17203      43414C49 
 17203      425F534B 
 17203      45575F4D 
 17204 717b 6F732900 		.ascii	"os)\000"
 17205              	.LASF1778:
 17206 717f 6373625F 		.ascii	"csb_state\000"
 17206      73746174 
 17206      6500
 17207              	.LASF1535:
 17208 7189 4D593138 		.ascii	"MY18_CELL_CAPACITY_cAh 250\000"
 17208      5F43454C 
 17208      4C5F4341 
 17208      50414349 
 17208      54595F63 
 17209              	.LASF673:
 17210 71a4 5F5F6C6F 		.ascii	"__lockable __lock_annotate(lockable)\000"
 17210      636B6162 
 17210      6C65205F 
 17210      5F6C6F63 
 17210      6B5F616E 
 17211              	.LASF1110:
 17212 71c9 4C50435F 		.ascii	"LPC_ROM_API_BASE_LOC 0x1FFF1FF8\000"
 17212      524F4D5F 
 17212      4150495F 
 17212      42415345 
 17212      5F4C4F43 
 17213              	.LASF580:
 17214 71e9 5F5F6861 		.ascii	"__has_extension __has_feature\000"
 17214      735F6578 
 17214      74656E73 
 17214      696F6E20 
 17214      5F5F6861 
 17215              	.LASF303:
 17216 7207 5F5F5245 		.ascii	"__REGISTER_PREFIX__ \000"
 17216      47495354 
 17216      45525F50 
 17216      52454649 
 17216      585F5F20 
 17217              	.LASF964:
 17218 721c 5F43414E 		.ascii	"_CAN_LIBRARY_VCU_H \000"
 17218      5F4C4942 
ARM GAS  /var/folders/z0/6xlwn_996xz3mwq1cgzkbq4r0000gp/T//ccBgBTlB.s 			page 394


 17218      52415259 
 17218      5F564355 
 17218      5F482000 
 17219              	.LASF1093:
 17220 7230 4C50435F 		.ascii	"LPC_TIMER32_1_BASE 0x40018000\000"
 17220      54494D45 
 17220      5233325F 
 17220      315F4241 
 17220      53452030 
 17221              	.LASF1642:
 17222 724e 4353425F 		.ascii	"CSB_SSM_MODE_CHARGE\000"
 17222      53534D5F 
 17222      4D4F4445 
 17222      5F434841 
 17222      52474500 
 17223              	.LASF678:
 17224 7262 5F5F756E 		.ascii	"__unlocks(...) __lock_annotate(unlock_function(__VA"
 17224      6C6F636B 
 17224      73282E2E 
 17224      2E29205F 
 17224      5F6C6F63 
 17225 7295 5F415247 		.ascii	"_ARGS__))\000"
 17225      535F5F29 
 17225      2900
 17226              	.LASF195:
 17227 729f 5F5F5553 		.ascii	"__USFRACT_MAX__ 0XFFP-8UHR\000"
 17227      46524143 
 17227      545F4D41 
 17227      585F5F20 
 17227      30584646 
 17228              	.LASF520:
 17229 72ba 5F52414E 		.ascii	"_RAND48_MULT_1 (0xdeec)\000"
 17229      4434385F 
 17229      4D554C54 
 17229      5F312028 
 17229      30786465 
 17230              	.LASF971:
 17231 72d2 5F5F4C50 		.ascii	"__LPC_TYPES_H_ \000"
 17231      435F5459 
 17231      5045535F 
 17231      485F2000 
 17232              	.LASF910:
 17233 72e2 5F5F5F5F 		.ascii	"____DASH_REQUEST__TYPE__TRACTION_CONTROL_DISABLE 6\000"
 17233      44415348 
 17233      5F524551 
 17233      55455354 
 17233      5F5F5459 
 17234              	.LASF1774:
 17235 7315 68656C70 		.ascii	"helpstring\000"
 17235      73747269 
 17235      6E6700
 17236              	.LASF347:
 17237 7320 5F535452 		.ascii	"_STRING_H_ \000"
 17237      494E475F 
 17237      485F2000 
 17238              	.LASF1017:
 17239 732c 5343425F 		.ascii	"SCB_CPUID_REVISION_Pos 0\000"
ARM GAS  /var/folders/z0/6xlwn_996xz3mwq1cgzkbq4r0000gp/T//ccBgBTlB.s 			page 395


 17239      43505549 
 17239      445F5245 
 17239      56495349 
 17239      4F4E5F50 
 17240              	.LASF1282:
 17241 7345 55415254 		.ascii	"UART_LSR_OE (1 << 1)\000"
 17241      5F4C5352 
 17241      5F4F4520 
 17241      2831203C 
 17241      3C203129 
 17242              	.LASF921:
 17243 735a 5F5F5F5F 		.ascii	"____BMSERRORS__TYPE__CONTROL_FLOW 13\000"
 17243      424D5345 
 17243      52524F52 
 17243      535F5F54 
 17243      5950455F 
 17244              	.LASF141:
 17245 737f 5F5F4442 		.ascii	"__DBL_MIN_10_EXP__ (-307)\000"
 17245      4C5F4D49 
 17245      4E5F3130 
 17245      5F455850 
 17245      5F5F2028 
 17246              	.LASF659:
 17247 7399 5F5F7761 		.ascii	"__warn_references(sym,msg) __asm__(\".section .gnu."
 17247      726E5F72 
 17247      65666572 
 17247      656E6365 
 17247      73287379 
 17248 73cb 7761726E 		.ascii	"warning.\" #sym); __asm__(\".asciz \\\"\" msg \"\\\""
 17248      696E672E 
 17248      22202373 
 17248      796D293B 
 17248      205F5F61 
 17249 73f7 22293B20 		.ascii	"\"); __asm__(\".previous\")\000"
 17249      5F5F6173 
 17249      6D5F5F28 
 17249      222E7072 
 17249      6576696F 
 17250              	.LASF545:
 17251 7410 5F524545 		.ascii	"_REENT_ASCTIME_BUF(ptr) ((ptr)->_new._reent._asctim"
 17251      4E545F41 
 17251      53435449 
 17251      4D455F42 
 17251      55462870 
 17252 7443 655F6275 		.ascii	"e_buf)\000"
 17252      662900
 17253              	.LASF630:
 17254 744a 5F5F6765 		.ascii	"__generic(expr,t,yes,no) __builtin_choose_expr( __b"
 17254      6E657269 
 17254      63286578 
 17254      70722C74 
 17254      2C796573 
 17255 747d 75696C74 		.ascii	"uiltin_types_compatible_p(__typeof(expr), t), yes, "
 17255      696E5F74 
 17255      79706573 
 17255      5F636F6D 
 17255      70617469 
ARM GAS  /var/folders/z0/6xlwn_996xz3mwq1cgzkbq4r0000gp/T//ccBgBTlB.s 			page 396


 17256 74b0 6E6F2900 		.ascii	"no)\000"
 17257              	.LASF1743:
 17258 74b4 636F6E66 		.ascii	"config_def\000"
 17258      69675F64 
 17258      656600
 17259              	.LASF281:
 17260 74bf 5F5F5553 		.ascii	"__USQ_FBIT__ 32\000"
 17260      515F4642 
 17260      49545F5F 
 17260      20333200 
 17261              	.LASF941:
 17262 74cf 424D5350 		.ascii	"BMSPACKSTATUS__freq 10\000"
 17262      41434B53 
 17262      54415455 
 17262      535F5F66 
 17262      72657120 
 17263              	.LASF1162:
 17264 74e6 5F5F494F 		.ascii	"__IOCON_11XX_H_ \000"
 17264      434F4E5F 
 17264      31315858 
 17264      5F485F20 
 17264      00
 17265              	.LASF55:
 17266 74f7 5F5F494E 		.ascii	"__INT_FAST8_TYPE__ int\000"
 17266      545F4641 
 17266      5354385F 
 17266      54595045 
 17266      5F5F2069 
 17267              	.LASF822:
 17268 750e 55494E54 		.ascii	"UINTMAX_C(x) __UINTMAX_C(x)\000"
 17268      4D41585F 
 17268      43287829 
 17268      205F5F55 
 17268      494E544D 
 17269              	.LASF1631:
 17270 752a 656C636F 		.ascii	"elcon_output_current\000"
 17270      6E5F6F75 
 17270      74707574 
 17270      5F637572 
 17270      72656E74 
 17271              	.LASF1296:
 17272 753f 55415254 		.ascii	"UART_MSR_CTS (1 << 4)\000"
 17272      5F4D5352 
 17272      5F435453 
 17272      20283120 
 17272      3C3C2034 
 17273              	.LASF571:
 17274 7555 5F5F7074 		.ascii	"__ptr_t void *\000"
 17274      725F7420 
 17274      766F6964 
 17274      202A00
 17275              	.LASF654:
 17276 7564 5F5F7374 		.ascii	"__strftimelike(fmtarg,firstvararg) __attribute__((_"
 17276      72667469 
 17276      6D656C69 
 17276      6B652866 
 17276      6D746172 
ARM GAS  /var/folders/z0/6xlwn_996xz3mwq1cgzkbq4r0000gp/T//ccBgBTlB.s 			page 397


 17277 7597 5F666F72 		.ascii	"_format__ (__strftime__, fmtarg, firstvararg)))\000"
 17277      6D61745F 
 17277      5F20285F 
 17277      5F737472 
 17277      6674696D 
 17278              	.LASF859:
 17279 75c7 4B45595F 		.ascii	"KEY_ETB 23\000"
 17279      45544220 
 17279      323300
 17280              	.LASF502:
 17281 75d2 756E7369 		.ascii	"unsigned\000"
 17281      676E6564 
 17281      00
 17282              	.LASF1278:
 17283 75db 55415254 		.ascii	"UART_MCR_AUTO_RTS_EN (1 << 6)\000"
 17283      5F4D4352 
 17283      5F415554 
 17283      4F5F5254 
 17283      535F454E 
 17284              	.LASF384:
 17285 75f9 5F5F4C41 		.ascii	"__LARGEFILE_VISIBLE 0\000"
 17285      52474546 
 17285      494C455F 
 17285      56495349 
 17285      424C4520 
 17286              	.LASF977:
 17287 760f 5F534246 		.ascii	"_SBF(f,v) ((v) << (f))\000"
 17287      28662C76 
 17287      29202828 
 17287      7629203C 
 17287      3C202866 
 17288              	.LASF82:
 17289 7626 5F5F5549 		.ascii	"__UINTMAX_C(c) c ## ULL\000"
 17289      4E544D41 
 17289      585F4328 
 17289      63292063 
 17289      20232320 
 17290              	.LASF179:
 17291 763e 5F5F4445 		.ascii	"__DEC64_SUBNORMAL_MIN__ 0.000000000000001E-383DD\000"
 17291      4336345F 
 17291      5355424E 
 17291      4F524D41 
 17291      4C5F4D49 
 17292              	.LASF820:
 17293 766f 55494E54 		.ascii	"UINT64_C(x) __UINT64_C(x)\000"
 17293      36345F43 
 17293      28782920 
 17293      5F5F5549 
 17293      4E543634 
 17294              	.LASF434:
 17295 7689 5F5F6E65 		.ascii	"__need_ptrdiff_t\000"
 17295      65645F70 
 17295      74726469 
 17295      66665F74 
 17295      00
 17296              	.LASF1725:
 17297 769a 726F5F6C 		.ascii	"ro_loc_label_t\000"
ARM GAS  /var/folders/z0/6xlwn_996xz3mwq1cgzkbq4r0000gp/T//ccBgBTlB.s 			page 398


 17297      6F635F6C 
 17297      6162656C 
 17297      5F7400
 17298              	.LASF568:
 17299 76a9 5F5F444F 		.ascii	"__DOTS , ...\000"
 17299      5453202C 
 17299      202E2E2E 
 17299      00
 17300              	.LASF1179:
 17301 76b6 494F434F 		.ascii	"IOCON_SFI2C_EN (0x0 << 8)\000"
 17301      4E5F5346 
 17301      4932435F 
 17301      454E2028 
 17301      30783020 
 17302              	.LASF1647:
 17303 76d0 4353425F 		.ascii	"CSB_CHARGE_SWITCH_500\000"
 17303      43484152 
 17303      47455F53 
 17303      57495443 
 17303      485F3530 
 17304              	.LASF856:
 17305 76e6 4B45595F 		.ascii	"KEY_DC4 20\000"
 17305      44433420 
 17305      323000
 17306              	.LASF1445:
 17307 76f1 4932435F 		.ascii	"I2C_I2STAT_S_TX_DAT_ACK ((0xB8))\000"
 17307      49325354 
 17307      41545F53 
 17307      5F54585F 
 17307      4441545F 
 17308              	.LASF416:
 17309 7712 5F504152 		.ascii	"_PARAMS(paramlist) paramlist\000"
 17309      414D5328 
 17309      70617261 
 17309      6D6C6973 
 17309      74292070 
 17310              	.LASF767:
 17311 772f 55494E54 		.ascii	"UINT8_MAX (__UINT8_MAX__)\000"
 17311      385F4D41 
 17311      5820285F 
 17311      5F55494E 
 17311      54385F4D 
 17312              	.LASF1570:
 17313 7749 6C6F6E67 		.ascii	"long int\000"
 17313      20696E74 
 17313      00
 17314              	.LASF405:
 17315 7752 5F534947 		.ascii	"_SIGNED signed\000"
 17315      4E454420 
 17315      7369676E 
 17315      656400
 17316              	.LASF76:
 17317 7761 5F5F5749 		.ascii	"__WINT_MIN__ 0U\000"
 17317      4E545F4D 
 17317      494E5F5F 
 17317      20305500 
 17318              	.LASF852:
ARM GAS  /var/folders/z0/6xlwn_996xz3mwq1cgzkbq4r0000gp/T//ccBgBTlB.s 			page 399


 17319 7771 4B45595F 		.ascii	"KEY_DLE 16\000"
 17319      444C4520 
 17319      313600
 17320              	.LASF984:
 17321 777c 4D415828 		.ascii	"MAX(a,b) (((a) > (b)) ? (a) : (b))\000"
 17321      612C6229 
 17321      20282828 
 17321      6129203E 
 17321      20286229 
 17322              	.LASF1488:
 17323 779f 43414E5F 		.ascii	"CAN_MSGOBJ_DAT 0x00000000UL\000"
 17323      4D53474F 
 17323      424A5F44 
 17323      41542030 
 17323      78303030 
 17324              	.LASF981:
 17325 77bb 53544154 		.ascii	"STATIC static\000"
 17325      49432073 
 17325      74617469 
 17325      6300
 17326              	.LASF1454:
 17327 77c9 4932435F 		.ascii	"I2C_I2MMCTRL_BITMASK ((0x07))\000"
 17327      49324D4D 
 17327      4354524C 
 17327      5F424954 
 17327      4D41534B 
 17328              	.LASF380:
 17329 77e7 5F5F4154 		.ascii	"__ATFILE_VISIBLE 1\000"
 17329      46494C45 
 17329      5F564953 
 17329      49424C45 
 17329      203100
 17330              	.LASF564:
 17331 77fa 5F474C4F 		.ascii	"_GLOBAL_REENT _global_impure_ptr\000"
 17331      42414C5F 
 17331      5245454E 
 17331      54205F67 
 17331      6C6F6261 
 17332              	.LASF696:
 17333 781b 5F5F636F 		.ascii	"__compar_fn_t_defined \000"
 17333      6D706172 
 17333      5F666E5F 
 17333      745F6465 
 17333      66696E65 
 17334              	.LASF1508:
 17335 7832 4F445F45 		.ascii	"OD_EXP_RW 0x30\000"
 17335      58505F52 
 17335      57203078 
 17335      333000
 17336              	.LASF462:
 17337 7841 5F574348 		.ascii	"_WCHAR_T_DEFINED \000"
 17337      41525F54 
 17337      5F444546 
 17337      494E4544 
 17337      2000
 17338              	.LASF526:
 17339 7853 5F4E5F4C 		.ascii	"_N_LISTS 30\000"
ARM GAS  /var/folders/z0/6xlwn_996xz3mwq1cgzkbq4r0000gp/T//ccBgBTlB.s 			page 400


 17339      49535453 
 17339      20333000 
 17340              	.LASF821:
 17341 785f 494E544D 		.ascii	"INTMAX_C(x) __INTMAX_C(x)\000"
 17341      41585F43 
 17341      28782920 
 17341      5F5F494E 
 17341      544D4158 
 17342              	.LASF1184:
 17343 7879 4D445F50 		.ascii	"MD_PLN (0x0 << 3)\000"
 17343      4C4E2028 
 17343      30783020 
 17343      3C3C2033 
 17343      2900
 17344              	.LASF31:
 17345 788b 5F5F5054 		.ascii	"__PTRDIFF_TYPE__ int\000"
 17345      52444946 
 17345      465F5459 
 17345      50455F5F 
 17345      20696E74 
 17346              	.LASF908:
 17347 78a0 5F5F5F5F 		.ascii	"____DASH_REQUEST__TYPE__TRACTION_CONTROL_ENABLE 5\000"
 17347      44415348 
 17347      5F524551 
 17347      55455354 
 17347      5F5F5459 
 17348              	.LASF309:
 17349 78d2 5F5F4743 		.ascii	"__GCC_ATOMIC_CHAR16_T_LOCK_FREE 1\000"
 17349      435F4154 
 17349      4F4D4943 
 17349      5F434841 
 17349      5231365F 
 17350              	.LASF1651:
 17351 78f4 4353425F 		.ascii	"CSB_CHARGE_CLOSE_CNTR\000"
 17351      43484152 
 17351      47455F43 
 17351      4C4F5345 
 17351      5F434E54 
 17352              	.LASF1473:
 17353 790a 4932435F 		.ascii	"I2C_MONITOR_CFG_SCL_OUTPUT I2C_I2MMCTRL_ENA_SCL\000"
 17353      4D4F4E49 
 17353      544F525F 
 17353      4346475F 
 17353      53434C5F 
 17354              	.LASF1013:
 17355 793a 5343425F 		.ascii	"SCB_CPUID_ARCHITECTURE_Pos 16\000"
 17355      43505549 
 17355      445F4152 
 17355      43484954 
 17355      45435455 
 17356              	.LASF685:
 17357 7958 5F5F6775 		.ascii	"__guarded_by(x) __lock_annotate(guarded_by(x))\000"
 17357      61726465 
 17357      645F6279 
 17357      28782920 
 17357      5F5F6C6F 
 17358              	.LASF1152:
ARM GAS  /var/folders/z0/6xlwn_996xz3mwq1cgzkbq4r0000gp/T//ccBgBTlB.s 			page 401


 17359 7987 53595343 		.ascii	"SYSCTL_POWERDOWN_IRCOUT_PD (1 << 0)\000"
 17359      544C5F50 
 17359      4F574552 
 17359      444F574E 
 17359      5F495243 
 17360              	.LASF701:
 17361 79ab 73747274 		.ascii	"strtodf strtof\000"
 17361      6F646620 
 17361      73747274 
 17361      6F6600
 17362              	.LASF567:
 17363 79ba 5F5F504D 		.ascii	"__PMT(args) args\000"
 17363      54286172 
 17363      67732920 
 17363      61726773 
 17363      00
 17364              	.LASF1598:
 17365 79cb 7061636B 		.ascii	"pack_voltage_mV\000"
 17365      5F766F6C 
 17365      74616765 
 17365      5F6D5600 
 17366              	.LASF1503:
 17367 79db 53444F5F 		.ascii	"SDO_ABORT_LOCAL 0x08000021UL\000"
 17367      41424F52 
 17367      545F4C4F 
 17367      43414C20 
 17367      30783038 
 17368              	.LASF429:
 17369 79f8 5F505452 		.ascii	"_PTRDIFF_T_ \000"
 17369      44494646 
 17369      5F545F20 
 17369      00
 17370              	.LASF616:
 17371 7a05 5F5F6465 		.ascii	"__dead2 __attribute__((__noreturn__))\000"
 17371      61643220 
 17371      5F5F6174 
 17371      74726962 
 17371      7574655F 
 17372              	.LASF1214:
 17373 7a2b 54494D45 		.ascii	"TIMER_STOP_ON_MATCH(n) (_BIT((((n) * 3) + 2)))\000"
 17373      525F5354 
 17373      4F505F4F 
 17373      4E5F4D41 
 17373      54434828 
 17374              	.LASF1396:
 17375 7a5a 5245545F 		.ascii	"RET_SLAVE_TX 6\000"
 17375      534C4156 
 17375      455F5458 
 17375      203600
 17376              	.LASF983:
 17377 7a69 554E5553 		.ascii	"UNUSED(x) (void)(x)\000"
 17377      45442878 
 17377      29202876 
 17377      6F696429 
 17377      28782900 
 17378              	.LASF1684:
 17379 7a7d 69646C65 		.ascii	"idle_state\000"
ARM GAS  /var/folders/z0/6xlwn_996xz3mwq1cgzkbq4r0000gp/T//ccBgBTlB.s 			page 402


 17379      5F737461 
 17379      746500
 17380              	.LASF900:
 17381 7a88 52454152 		.ascii	"REARCANNODEWHEELSPEED__id 209\000"
 17381      43414E4E 
 17381      4F444557 
 17381      4845454C 
 17381      53504545 
 17382              	.LASF1210:
 17383 7aa6 54494D45 		.ascii	"TIMER_ENABLE ((uint32_t) (1 << 0))\000"
 17383      525F454E 
 17383      41424C45 
 17383      20282875 
 17383      696E7433 
 17384              	.LASF428:
 17385 7ac9 5F5F5054 		.ascii	"__PTRDIFF_T \000"
 17385      52444946 
 17385      465F5420 
 17385      00
 17386              	.LASF854:
 17387 7ad6 4B45595F 		.ascii	"KEY_DC2 18\000"
 17387      44433220 
 17387      313800
 17388              	.LASF698:
 17389 7ae1 45584954 		.ascii	"EXIT_SUCCESS 0\000"
 17389      5F535543 
 17389      43455353 
 17389      203000
 17390              	.LASF1326:
 17391 7af0 55415254 		.ascii	"UART_FDR_MULVAL(n) ((n << 4) & 0xF0)\000"
 17391      5F464452 
 17391      5F4D554C 
 17391      56414C28 
 17391      6E292028 
 17392              	.LASF257:
 17393 7b15 5F5F4C4C 		.ascii	"__LLACCUM_FBIT__ 31\000"
 17393      41434355 
 17393      4D5F4642 
 17393      49545F5F 
 17393      20333100 
 17394              	.LASF1072:
 17395 7b29 53797354 		.ascii	"SysTick_CALIB_NOREF_Msk (1UL << SysTick_CALIB_NOREF"
 17395      69636B5F 
 17395      43414C49 
 17395      425F4E4F 
 17395      5245465F 
 17396 7b5c 5F506F73 		.ascii	"_Pos)\000"
 17396      2900
 17397              	.LASF735:
 17398 7b62 5F5F4C45 		.ascii	"__LEAST8 \"hh\"\000"
 17398      41535438 
 17398      20226868 
 17398      2200
 17399              	.LASF653:
 17400 7b70 5F5F7374 		.ascii	"__strfmonlike(fmtarg,firstvararg) __attribute__((__"
 17400      72666D6F 
 17400      6E6C696B 
ARM GAS  /var/folders/z0/6xlwn_996xz3mwq1cgzkbq4r0000gp/T//ccBgBTlB.s 			page 403


 17400      6528666D 
 17400      74617267 
 17401 7ba3 666F726D 		.ascii	"format__ (__strfmon__, fmtarg, firstvararg)))\000"
 17401      61745F5F 
 17401      20285F5F 
 17401      73747266 
 17401      6D6F6E5F 
 17402              	.LASF1352:
 17403 7bd1 5353505F 		.ascii	"SSP_CR0_CPHA_SECOND ((uint32_t) (1 << 7))\000"
 17403      4352305F 
 17403      43504841 
 17403      5F534543 
 17403      4F4E4420 
 17404              	.LASF277:
 17405 7bfb 5F5F5551 		.ascii	"__UQQ_FBIT__ 8\000"
 17405      515F4642 
 17405      49545F5F 
 17405      203800
 17406              	.LASF1410:
 17407 7c0a 4932435F 		.ascii	"I2C_I2CONCLR_I2ENC ((1 << 6))\000"
 17407      4932434F 
 17407      4E434C52 
 17407      5F493245 
 17407      4E432028 
 17408              	.LASF227:
 17409 7c28 5F5F5341 		.ascii	"__SACCUM_FBIT__ 7\000"
 17409      4343554D 
 17409      5F464249 
 17409      545F5F20 
 17409      3700
 17410              	.LASF269:
 17411 7c3a 5F5F4851 		.ascii	"__HQ_FBIT__ 15\000"
 17411      5F464249 
 17411      545F5F20 
 17411      313500
 17412              	.LASF1308:
 17413 7c49 55415254 		.ascii	"UART_RS485CTRL_RX_DIS (1 << 1)\000"
 17413      5F525334 
 17413      38354354 
 17413      524C5F52 
 17413      585F4449 
 17414              	.LASF258:
 17415 7c68 5F5F4C4C 		.ascii	"__LLACCUM_IBIT__ 32\000"
 17415      41434355 
 17415      4D5F4942 
 17415      49545F5F 
 17415      20333200 
 17416              	.LASF1675:
 17417 7c7c 626D735F 		.ascii	"bms_fault\000"
 17417      6661756C 
 17417      7400
 17418              	.LASF1578:
 17419 7c86 75696E74 		.ascii	"uint32_t\000"
 17419      33325F74 
 17419      00
 17420              	.LASF414:
 17421 7c8f 5F434153 		.ascii	"_CAST_VOID (void)\000"
ARM GAS  /var/folders/z0/6xlwn_996xz3mwq1cgzkbq4r0000gp/T//ccBgBTlB.s 			page 404


 17421      545F564F 
 17421      49442028 
 17421      766F6964 
 17421      2900
 17422              	.LASF441:
 17423 7ca1 5F5F5349 		.ascii	"__SIZE_T \000"
 17423      5A455F54 
 17423      2000
 17424              	.LASF1527:
 17425 7cab 494E4954 		.ascii	"INIT_WAIT_TIME_MAX 5000\000"
 17425      5F574149 
 17425      545F5449 
 17425      4D455F4D 
 17425      41582035 
 17426              	.LASF1128:
 17427 7cc3 4C50435F 		.ascii	"LPC_ROM_API (*((LPC_ROM_API_T * *) LPC_ROM_API_BASE"
 17427      524F4D5F 
 17427      41504920 
 17427      282A2828 
 17427      4C50435F 
 17428 7cf6 5F4C4F43 		.ascii	"_LOC))\000"
 17428      292900
 17429              	.LASF493:
 17430 7cfd 5F5F6C6F 		.ascii	"__lock_close_recursive(lock) (_CAST_VOID 0)\000"
 17430      636B5F63 
 17430      6C6F7365 
 17430      5F726563 
 17430      75727369 
 17431              	.LASF153:
 17432 7d29 5F5F4C44 		.ascii	"__LDBL_DIG__ 15\000"
 17432      424C5F44 
 17432      49475F5F 
 17432      20313500 
 17433              	.LASF37:
 17434 7d39 5F5F4348 		.ascii	"__CHAR32_TYPE__ long unsigned int\000"
 17434      41523332 
 17434      5F545950 
 17434      455F5F20 
 17434      6C6F6E67 
 17435              	.LASF1067:
 17436 7d5b 53797354 		.ascii	"SysTick_LOAD_RELOAD_Pos 0\000"
 17436      69636B5F 
 17436      4C4F4144 
 17436      5F52454C 
 17436      4F41445F 
 17437              	.LASF511:
 17438 7d75 5F5F4C6F 		.ascii	"__Long long\000"
 17438      6E67206C 
 17438      6F6E6700 
 17439              	.LASF312:
 17440 7d81 5F5F4743 		.ascii	"__GCC_ATOMIC_SHORT_LOCK_FREE 1\000"
 17440      435F4154 
 17440      4F4D4943 
 17440      5F53484F 
 17440      52545F4C 
 17441              	.LASF763:
 17442 7da0 494E5450 		.ascii	"INTPTR_MAX (__INTPTR_MAX__)\000"
ARM GAS  /var/folders/z0/6xlwn_996xz3mwq1cgzkbq4r0000gp/T//ccBgBTlB.s 			page 405


 17442      54525F4D 
 17442      41582028 
 17442      5F5F494E 
 17442      54505452 
 17443              	.LASF841:
 17444 7dbc 4B45595F 		.ascii	"KEY_ENQ 5\000"
 17444      454E5120 
 17444      3500
 17445              	.LASF668:
 17446 7dc6 5F5F4445 		.ascii	"__DEVOLATILE(type,var) ((type)(__uintptr_t)(volatil"
 17446      564F4C41 
 17446      54494C45 
 17446      28747970 
 17446      652C7661 
 17447 7df9 6520766F 		.ascii	"e void *)(var))\000"
 17447      6964202A 
 17447      29287661 
 17447      72292900 
 17448              	.LASF473:
 17449 7e09 6F666673 		.ascii	"offsetof(TYPE,MEMBER) __builtin_offsetof (TYPE, MEM"
 17449      65746F66 
 17449      28545950 
 17449      452C4D45 
 17449      4D424552 
 17450 7e3c 42455229 		.ascii	"BER)\000"
 17450      00
 17451              	.LASF29:
 17452 7e41 5F5F5349 		.ascii	"__SIZEOF_POINTER__ 4\000"
 17452      5A454F46 
 17452      5F504F49 
 17452      4E544552 
 17452      5F5F2034 
 17453              	.LASF956:
 17454 7e56 424D535F 		.ascii	"BMS_MODE__freq 1\000"
 17454      4D4F4445 
 17454      5F5F6672 
 17454      65712031 
 17454      00
 17455              	.LASF813:
 17456 7e67 494E5438 		.ascii	"INT8_C(x) __INT8_C(x)\000"
 17456      5F432878 
 17456      29205F5F 
 17456      494E5438 
 17456      5F432878 
 17457              	.LASF632:
 17458 7e7d 5F5F7075 		.ascii	"__pure __attribute__((__pure__))\000"
 17458      7265205F 
 17458      5F617474 
 17458      72696275 
 17458      74655F5F 
 17459              	.LASF1292:
 17460 7e9e 55415254 		.ascii	"UART_MSR_DELTA_CTS (1 << 0)\000"
 17460      5F4D5352 
 17460      5F44454C 
 17460      54415F43 
 17460      54532028 
 17461              	.LASF1491:
ARM GAS  /var/folders/z0/6xlwn_996xz3mwq1cgzkbq4r0000gp/T//ccBgBTlB.s 			page 406


 17462 7eba 53444F5F 		.ascii	"SDO_ABORT_SDOTIMEOUT 0x05040000UL\000"
 17462      41424F52 
 17462      545F5344 
 17462      4F54494D 
 17462      454F5554 
 17463              	.LASF35:
 17464 7edc 5F5F5549 		.ascii	"__UINTMAX_TYPE__ long long unsigned int\000"
 17464      4E544D41 
 17464      585F5459 
 17464      50455F5F 
 17464      206C6F6E 
 17465              	.LASF440:
 17466 7f04 5F545F53 		.ascii	"_T_SIZE \000"
 17466      495A4520 
 17466      00
 17467              	.LASF1002:
 17468 7f0d 5F5F4650 		.ascii	"__FPU_USED 0\000"
 17468      555F5553 
 17468      45442030 
 17468      00
 17469              	.LASF1795:
 17470 7f1a 6D795F61 		.ascii	"my_atou\000"
 17470      746F7500 
 17471              	.LASF1247:
 17472 7f22 55415254 		.ascii	"UART_IIR_INTID_MODEM (0 << 1)\000"
 17472      5F494952 
 17472      5F494E54 
 17472      49445F4D 
 17472      4F44454D 
 17473              	.LASF677:
 17474 7f40 5F5F7472 		.ascii	"__trylocks_shared(...) __lock_annotate(shared_trylo"
 17474      796C6F63 
 17474      6B735F73 
 17474      68617265 
 17474      64282E2E 
 17475 7f73 636B5F66 		.ascii	"ck_function(__VA_ARGS__))\000"
 17475      756E6374 
 17475      696F6E28 
 17475      5F5F5641 
 17475      5F415247 
 17476              	.LASF548:
 17477 7f8d 5F524545 		.ascii	"_REENT_STRTOK_LAST(ptr) ((ptr)->_new._reent._strtok"
 17477      4E545F53 
 17477      5452544F 
 17477      4B5F4C41 
 17477      53542870 
 17478 7fc0 5F6C6173 		.ascii	"_last)\000"
 17478      742900
 17479              	.LASF1095:
 17480 7fc7 4C50435F 		.ascii	"LPC_DAC_BASE 0x40024000\000"
 17480      4441435F 
 17480      42415345 
 17480      20307834 
 17480      30303234 
 17481              	.LASF1415:
 17482 7fdf 4932435F 		.ascii	"I2C_CON_I2EN (1UL << 6)\000"
 17482      434F4E5F 
ARM GAS  /var/folders/z0/6xlwn_996xz3mwq1cgzkbq4r0000gp/T//ccBgBTlB.s 			page 407


 17482      4932454E 
 17482      20283155 
 17482      4C203C3C 
 17483              	.LASF638:
 17484 7ff7 5F5F7265 		.ascii	"__result_use_check __attribute__((__warn_unused_res"
 17484      73756C74 
 17484      5F757365 
 17484      5F636865 
 17484      636B205F 
 17485 802a 756C745F 		.ascii	"ult__))\000"
 17485      5F292900 
 17486              	.LASF1024:
 17487 8032 5343425F 		.ascii	"SCB_ICSR_PENDSVCLR_Msk (1UL << SCB_ICSR_PENDSVCLR_P"
 17487      49435352 
 17487      5F50454E 
 17487      44535643 
 17487      4C525F4D 
 17488 8065 6F732900 		.ascii	"os)\000"
 17489              	.LASF370:
 17490 8069 5F5F474E 		.ascii	"__GNUC_PREREQ(maj,min) ((__GNUC__ << 16) + __GNUC_M"
 17490      55435F50 
 17490      52455245 
 17490      51286D61 
 17490      6A2C6D69 
 17491 809c 494E4F52 		.ascii	"INOR__ >= ((maj) << 16) + (min))\000"
 17491      5F5F203E 
 17491      3D202828 
 17491      6D616A29 
 17491      203C3C20 
 17492              	.LASF897:
 17493 80bd 454C434F 		.ascii	"ELCONHEARTBEAT__freq 1\000"
 17493      4E484541 
 17493      52544245 
 17493      41545F5F 
 17493      66726571 
 17494              	.LASF1379:
 17495 80d4 4144435F 		.ascii	"ADC_DR_OVERRUN(n) ((((n) >> 30) & (1UL)))\000"
 17495      44525F4F 
 17495      56455252 
 17495      554E286E 
 17495      29202828 
 17496              	.LASF1386:
 17497 80fe 4144435F 		.ascii	"ADC_CR_START_NOW ((1UL << 24))\000"
 17497      43525F53 
 17497      54415254 
 17497      5F4E4F57 
 17497      20282831 
 17498              	.LASF1572:
 17499 811d 6C6F6E67 		.ascii	"long unsigned int\000"
 17499      20756E73 
 17499      69676E65 
 17499      6420696E 
 17499      7400
 17500              	.LASF1790:
 17501 812f 426F6172 		.ascii	"Board_Print_BLOCKING\000"
 17501      645F5072 
 17501      696E745F 
ARM GAS  /var/folders/z0/6xlwn_996xz3mwq1cgzkbq4r0000gp/T//ccBgBTlB.s 			page 408


 17501      424C4F43 
 17501      4B494E47 
 17502              	.LASF1228:
 17503 8144 55415254 		.ascii	"UART_IER_THREINT (1 << 1)\000"
 17503      5F494552 
 17503      5F544852 
 17503      45494E54 
 17503      20283120 
 17504              	.LASF72:
 17505 815e 5F5F4C4F 		.ascii	"__LONG_LONG_MAX__ 0x7fffffffffffffffLL\000"
 17505      4E475F4C 
 17505      4F4E475F 
 17505      4D41585F 
 17505      5F203078 
 17506              	.LASF1702:
 17507 8185 52574C5F 		.ascii	"RWL_module_cell_count\000"
 17507      6D6F6475 
 17507      6C655F63 
 17507      656C6C5F 
 17507      636F756E 
 17508              	.LASF765:
 17509 819b 494E5438 		.ascii	"INT8_MIN (-__INT8_MAX__ - 1)\000"
 17509      5F4D494E 
 17509      20282D5F 
 17509      5F494E54 
 17509      385F4D41 
 17510              	.LASF1600:
 17511 81b8 4D593138 		.ascii	"MY18_PACK\000"
 17511      5F504143 
 17511      4B00
 17512              	.LASF987:
 17513 81c2 5F5F5359 		.ascii	"__SYS_CONFIG_H_ \000"
 17513      535F434F 
 17513      4E464947 
 17513      5F485F20 
 17513      00
 17514              	.LASF456:
 17515 81d3 5F545F57 		.ascii	"_T_WCHAR_ \000"
 17515      43484152 
 17515      5F2000
 17516              	.LASF402:
 17517 81de 5F4E4F41 		.ascii	"_NOARGS void\000"
 17517      52475320 
 17517      766F6964 
 17517      00
 17518              	.LASF1335:
 17519 81eb 55415254 		.ascii	"UART_SYNCCTRL_STARTSTOPDISABLE (1 << 5)\000"
 17519      5F53594E 
 17519      43435452 
 17519      4C5F5354 
 17519      41525453 
 17520              	.LASF209:
 17521 8213 5F5F4C46 		.ascii	"__LFRACT_MIN__ (-0.5LR-0.5LR)\000"
 17521      52414354 
 17521      5F4D494E 
 17521      5F5F2028 
 17521      2D302E35 
ARM GAS  /var/folders/z0/6xlwn_996xz3mwq1cgzkbq4r0000gp/T//ccBgBTlB.s 			page 409


 17522              	.LASF361:
 17523 8231 5F484156 		.ascii	"_HAVE_CC_INHIBIT_LOOP_TO_LIBCALL 1\000"
 17523      455F4343 
 17523      5F494E48 
 17523      49424954 
 17523      5F4C4F4F 
 17524              	.LASF1052:
 17525 8254 5343425F 		.ascii	"SCB_SCR_SLEEPONEXIT_Msk (1UL << SCB_SCR_SLEEPONEXIT"
 17525      5343525F 
 17525      534C4545 
 17525      504F4E45 
 17525      5849545F 
 17526 8287 5F506F73 		.ascii	"_Pos)\000"
 17526      2900
 17527              	.LASF104:
 17528 828d 5F5F5549 		.ascii	"__UINT16_C(c) c\000"
 17528      4E543136 
 17528      5F432863 
 17528      29206300 
 17529              	.LASF1078:
 17530 829d 53797354 		.ascii	"SysTick_BASE (SCS_BASE + 0x0010UL)\000"
 17530      69636B5F 
 17530      42415345 
 17530      20285343 
 17530      535F4241 
 17531              	.LASF664:
 17532 82c0 5F5F5243 		.ascii	"__RCSID_SOURCE(s) struct __hack\000"
 17532      5349445F 
 17532      534F5552 
 17532      43452873 
 17532      29207374 
 17533              	.LASF1245:
 17534 82e0 55415254 		.ascii	"UART_IIR_INTID_CTI (6 << 1)\000"
 17534      5F494952 
 17534      5F494E54 
 17534      49445F43 
 17534      54492028 
 17535              	.LASF875:
 17536 82fc 53545255 		.ascii	"STRUCTS_H \000"
 17536      4354535F 
 17536      482000
 17537              	.LASF1181:
 17538 8307 494F434F 		.ascii	"IOCON_FASTI2C_EN (0x2 << 8)\000"
 17538      4E5F4641 
 17538      53544932 
 17538      435F454E 
 17538      20283078 
 17539              	.LASF832:
 17540 8323 5F555345 		.ascii	"_USE_ESC_SEQ\000"
 17540      5F455343 
 17540      5F534551 
 17540      00
 17541              	.LASF383:
 17542 8330 5F5F4953 		.ascii	"__ISO_C_VISIBLE 1999\000"
 17542      4F5F435F 
 17542      56495349 
 17542      424C4520 
ARM GAS  /var/folders/z0/6xlwn_996xz3mwq1cgzkbq4r0000gp/T//ccBgBTlB.s 			page 410


 17542      31393939 
 17543              	.LASF1441:
 17544 8345 4932435F 		.ascii	"I2C_I2STAT_S_RX_PRE_GENCALL_DAT_NACK ((0x98))\000"
 17544      49325354 
 17544      41545F53 
 17544      5F52585F 
 17544      5052455F 
 17545              	.LASF315:
 17546 8373 5F5F4743 		.ascii	"__GCC_ATOMIC_LLONG_LOCK_FREE 1\000"
 17546      435F4154 
 17546      4F4D4943 
 17546      5F4C4C4F 
 17546      4E475F4C 
 17547              	.LASF566:
 17548 8392 5F535953 		.ascii	"_SYS_CDEFS_H_ \000"
 17548      5F434445 
 17548      46535F48 
 17548      5F2000
 17549              	.LASF974:
 17550 83a1 5F424954 		.ascii	"_BIT\000"
 17550      00
 17551              	.LASF216:
 17552 83a6 5F5F554C 		.ascii	"__ULFRACT_EPSILON__ 0x1P-32ULR\000"
 17552      46524143 
 17552      545F4550 
 17552      53494C4F 
 17552      4E5F5F20 
 17553              	.LASF1433:
 17554 83c5 4932435F 		.ascii	"I2C_I2STAT_M_RX_DAT_NACK ((0x58))\000"
 17554      49325354 
 17554      41545F4D 
 17554      5F52585F 
 17554      4441545F 
 17555              	.LASF1735:
 17556 83e7 76616C69 		.ascii	"valid_mode_request\000"
 17556      645F6D6F 
 17556      64655F72 
 17556      65717565 
 17556      737400
 17557              	.LASF1436:
 17558 83fa 4932435F 		.ascii	"I2C_I2STAT_S_RX_GENCALL_ACK ((0x70))\000"
 17558      49325354 
 17558      41545F53 
 17558      5F52585F 
 17558      47454E43 
 17559              	.LASF1082:
 17560 841f 53797354 		.ascii	"SysTick ((SysTick_Type *) SysTick_BASE )\000"
 17560      69636B20 
 17560      28285379 
 17560      73546963 
 17560      6B5F5479 
 17561              	.LASF1012:
 17562 8448 5343425F 		.ascii	"SCB_CPUID_VARIANT_Msk (0xFUL << SCB_CPUID_VARIANT_P"
 17562      43505549 
 17562      445F5641 
 17562      5249414E 
 17562      545F4D73 
ARM GAS  /var/folders/z0/6xlwn_996xz3mwq1cgzkbq4r0000gp/T//ccBgBTlB.s 			page 411


 17563 847b 6F732900 		.ascii	"os)\000"
 17564              	.LASF714:
 17565 847f 63686172 		.ascii	"char\000"
 17565      00
 17566              	.LASF388:
 17567 8484 5F5F5853 		.ascii	"__XSI_VISIBLE 0\000"
 17567      495F5649 
 17567      5349424C 
 17567      45203000 
 17568              	.LASF850:
 17569 8494 4B45595F 		.ascii	"KEY_SO 14\000"
 17569      534F2031 
 17569      3400
 17570              	.LASF344:
 17571 849e 44454255 		.ascii	"DEBUG_ENABLE 1\000"
 17571      475F454E 
 17571      41424C45 
 17571      203100
 17572              	.LASF349:
 17573 84ad 5F5F4E45 		.ascii	"__NEWLIB_H__ 1\000"
 17573      574C4942 
 17573      5F485F5F 
 17573      203100
 17574              	.LASF1291:
 17575 84bc 55415254 		.ascii	"UART1_LSR_BITMASK (0x1FF)\000"
 17575      315F4C53 
 17575      525F4249 
 17575      544D4153 
 17575      4B202830 
 17576              	.LASF1351:
 17577 84d6 5353505F 		.ascii	"SSP_CR0_CPHA_FIRST ((uint32_t) (0))\000"
 17577      4352305F 
 17577      43504841 
 17577      5F464952 
 17577      53542028 
 17578              	.LASF797:
 17579 84fa 55494E54 		.ascii	"UINT_FAST32_MAX (__UINT_FAST32_MAX__)\000"
 17579      5F464153 
 17579      5433325F 
 17579      4D415820 
 17579      285F5F55 
 17580              	.LASF1689:
 17581 8520 435F4745 		.ascii	"C_GET\000"
 17581      5400
 17582              	.LASF1341:
 17583 8526 57574454 		.ascii	"WWDT_WDMOD_WDTOF ((uint32_t) (1 << 2))\000"
 17583      5F57444D 
 17583      4F445F57 
 17583      44544F46 
 17583      20282875 
 17584              	.LASF1395:
 17585 854d 5F5F4932 		.ascii	"__I2C_11XX_H_ \000"
 17585      435F3131 
 17585      58585F48 
 17585      5F2000
 17586              	.LASF1538:
 17587 855c 4D593138 		.ascii	"MY18_BALANCE_ON_THRESHOLD_mV 4\000"
ARM GAS  /var/folders/z0/6xlwn_996xz3mwq1cgzkbq4r0000gp/T//ccBgBTlB.s 			page 412


 17587      5F42414C 
 17587      414E4345 
 17587      5F4F4E5F 
 17587      54485245 
 17588              	.LASF699:
 17589 857b 52414E44 		.ascii	"RAND_MAX __RAND_MAX\000"
 17589      5F4D4158 
 17589      205F5F52 
 17589      414E445F 
 17589      4D415800 
 17590              	.LASF52:
 17591 858f 5F5F5549 		.ascii	"__UINT_LEAST16_TYPE__ short unsigned int\000"
 17591      4E545F4C 
 17591      45415354 
 17591      31365F54 
 17591      5950455F 
 17592              	.LASF1138:
 17593 85b8 53595343 		.ascii	"SYSCTL_RST_WDT (1 << 2)\000"
 17593      544C5F52 
 17593      53545F57 
 17593      44542028 
 17593      31203C3C 
 17594              	.LASF1250:
 17595 85d0 55415254 		.ascii	"UART_FCR_TX_RS (1 << 2)\000"
 17595      5F464352 
 17595      5F54585F 
 17595      52532028 
 17595      31203C3C 
 17596              	.LASF1427:
 17597 85e8 4932435F 		.ascii	"I2C_I2STAT_M_RX_START ((0x08))\000"
 17597      49325354 
 17597      41545F4D 
 17597      5F52585F 
 17597      53544152 
 17598              	.LASF1736:
 17599 8607 636F6E66 		.ascii	"config_default\000"
 17599      69675F64 
 17599      65666175 
 17599      6C7400
 17600              	.LASF165:
 17601 8616 5F5F4C44 		.ascii	"__LDBL_HAS_QUIET_NAN__ 1\000"
 17601      424C5F48 
 17601      41535F51 
 17601      55494554 
 17601      5F4E414E 
 17602              	.LASF1475:
 17603 862f 5F5F4343 		.ascii	"__CCAND_11XX_H_ \000"
 17603      414E445F 
 17603      31315858 
 17603      5F485F20 
 17603      00
 17604              	.LASF464:
 17605 8640 5F5F5F69 		.ascii	"___int_wchar_t_h \000"
 17605      6E745F77 
 17605      63686172 
 17605      5F745F68 
 17605      2000
ARM GAS  /var/folders/z0/6xlwn_996xz3mwq1cgzkbq4r0000gp/T//ccBgBTlB.s 			page 413


 17606              	.LASF648:
 17607 8652 5F5F7261 		.ascii	"__rangeof(type,start,end) (__offsetof(type, end) - "
 17607      6E67656F 
 17607      66287479 
 17607      70652C73 
 17607      74617274 
 17608 8685 5F5F6F66 		.ascii	"__offsetof(type, start))\000"
 17608      66736574 
 17608      6F662874 
 17608      7970652C 
 17608      20737461 
 17609              	.LASF1155:
 17610 869e 53595343 		.ascii	"SYSCTL_POWERDOWN_BOD_PD (1 << 3)\000"
 17610      544C5F50 
 17610      4F574552 
 17610      444F574E 
 17610      5F424F44 
 17611              	.LASF73:
 17612 86bf 5F5F5743 		.ascii	"__WCHAR_MAX__ 0xffffffffU\000"
 17612      4841525F 
 17612      4D41585F 
 17612      5F203078 
 17612      66666666 
 17613              	.LASF1261:
 17614 86d9 55415254 		.ascii	"UART_LCR_WLEN7 (2 << 0)\000"
 17614      5F4C4352 
 17614      5F574C45 
 17614      4E372028 
 17614      32203C3C 
 17615              	.LASF608:
 17616 86f1 5F5F434F 		.ascii	"__CONCAT1(x,y) x ## y\000"
 17616      4E434154 
 17616      3128782C 
 17616      79292078 
 17616      20232320 
 17617              	.LASF437:
 17618 8707 5F53495A 		.ascii	"_SIZE_T \000"
 17618      455F5420 
 17618      00
 17619              	.LASF377:
 17620 8710 5F504F53 		.ascii	"_POSIX_C_SOURCE 200809L\000"
 17620      49585F43 
 17620      5F534F55 
 17620      52434520 
 17620      32303038 
 17621              	.LASF887:
 17622 8728 46524F4E 		.ascii	"FRONTCANNODEWHEELSPEED__freq 10\000"
 17622      5443414E 
 17622      4E4F4445 
 17622      57484545 
 17622      4C535045 
 17623              	.LASF1158:
 17624 8748 53595343 		.ascii	"SYSCTL_POWERDOWN_WDTOSC_PD (1 << 6)\000"
 17624      544C5F50 
 17624      4F574552 
 17624      444F574E 
 17624      5F574454 
ARM GAS  /var/folders/z0/6xlwn_996xz3mwq1cgzkbq4r0000gp/T//ccBgBTlB.s 			page 414


 17625              	.LASF1347:
 17626 876c 5353505F 		.ascii	"SSP_CR0_FRF_TI ((uint32_t) (1 << 4))\000"
 17626      4352305F 
 17626      4652465F 
 17626      54492028 
 17626      2875696E 
 17627              	.LASF1656:
 17628 8791 4353425F 		.ascii	"CSB_CHARGE_DONE\000"
 17628      43484152 
 17628      47455F44 
 17628      4F4E4500 
 17629              	.LASF263:
 17630 87a1 5F5F554C 		.ascii	"__ULLACCUM_IBIT__ 32\000"
 17630      4C414343 
 17630      554D5F49 
 17630      4249545F 
 17630      5F203332 
 17631              	.LASF1361:
 17632 87b6 5353505F 		.ascii	"SSP_CPSR_BITMASK ((uint32_t) (0xFF))\000"
 17632      43505352 
 17632      5F424954 
 17632      4D41534B 
 17632      20282875 
 17633              	.LASF1225:
 17634 87db 55415254 		.ascii	"UART_LOAD_DLM(div) (((div) >> 8) & 0xFF)\000"
 17634      5F4C4F41 
 17634      445F444C 
 17634      4D286469 
 17634      76292028 
 17635              	.LASF152:
 17636 8804 5F5F4C44 		.ascii	"__LDBL_MANT_DIG__ 53\000"
 17636      424C5F4D 
 17636      414E545F 
 17636      4449475F 
 17636      5F203533 
 17637              	.LASF222:
 17638 8819 5F5F554C 		.ascii	"__ULLFRACT_FBIT__ 64\000"
 17638      4C465241 
 17638      43545F46 
 17638      4249545F 
 17638      5F203634 
 17639              	.LASF1284:
 17640 882e 55415254 		.ascii	"UART_LSR_FE (1 << 3)\000"
 17640      5F4C5352 
 17640      5F464520 
 17640      2831203C 
 17640      3C203329 
 17641              	.LASF411:
 17642 8843 5F455846 		.ascii	"_EXFNPTR(name,proto) (* name) proto\000"
 17642      4E505452 
 17642      286E616D 
 17642      652C7072 
 17642      6F746F29 
 17643              	.LASF1108:
 17644 8867 4C50435F 		.ascii	"LPC_GPIO_PORT3_BASE 0x50030000\000"
 17644      4750494F 
 17644      5F504F52 
ARM GAS  /var/folders/z0/6xlwn_996xz3mwq1cgzkbq4r0000gp/T//ccBgBTlB.s 			page 415


 17644      54335F42 
 17644      41534520 
 17645              	.LASF1434:
 17646 8886 4932435F 		.ascii	"I2C_I2STAT_S_RX_SLAW_ACK ((0x60))\000"
 17646      49325354 
 17646      41545F53 
 17646      5F52585F 
 17646      534C4157 
 17647              	.LASF1664:
 17648 88a8 4353425F 		.ascii	"CSB_INPUT\000"
 17648      494E5055 
 17648      5400
 17649              	.LASF776:
 17650 88b2 55494E54 		.ascii	"UINT_LEAST16_MAX (__UINT_LEAST16_MAX__)\000"
 17650      5F4C4541 
 17650      53543136 
 17650      5F4D4158 
 17650      20285F5F 
 17651              	.LASF445:
 17652 88da 5F53495A 		.ascii	"_SIZE_T_DEFINED \000"
 17652      455F545F 
 17652      44454649 
 17652      4E454420 
 17652      00
 17653              	.LASF1399:
 17654 88eb 5245545F 		.ascii	"RET_SLAVE_BUSY 0\000"
 17654      534C4156 
 17654      455F4255 
 17654      53592030 
 17654      00
 17655              	.LASF766:
 17656 88fc 494E5438 		.ascii	"INT8_MAX (__INT8_MAX__)\000"
 17656      5F4D4158 
 17656      20285F5F 
 17656      494E5438 
 17656      5F4D4158 
 17657              	.LASF978:
 17658 8914 5F424954 		.ascii	"_BITMASK\000"
 17658      4D41534B 
 17658      00
 17659              	.LASF358:
 17660 891d 48415645 		.ascii	"HAVE_INITFINI_ARRAY 1\000"
 17660      5F494E49 
 17660      5446494E 
 17660      495F4152 
 17660      52415920 
 17661              	.LASF278:
 17662 8933 5F5F5551 		.ascii	"__UQQ_IBIT__ 0\000"
 17662      515F4942 
 17662      49545F5F 
 17662      203000
 17663              	.LASF883:
 17664 8942 5F5F5F5F 		.ascii	"_____CONSTANTS_H \000"
 17664      5F434F4E 
 17664      5354414E 
 17664      54535F48 
 17664      2000
ARM GAS  /var/folders/z0/6xlwn_996xz3mwq1cgzkbq4r0000gp/T//ccBgBTlB.s 			page 416


 17665              	.LASF478:
 17666 8954 5F5F5F69 		.ascii	"___int8_t_defined 1\000"
 17666      6E74385F 
 17666      745F6465 
 17666      66696E65 
 17666      64203100 
 17667              	.LASF1124:
 17668 8968 4C50435F 		.ascii	"LPC_SSP1 ((LPC_SSP_T *) LPC_SSP1_BASE)\000"
 17668      53535031 
 17668      2028284C 
 17668      50435F53 
 17668      53505F54 
 17669              	.LASF734:
 17670 898f 5F5F4641 		.ascii	"__FAST64 \"ll\"\000"
 17670      53543634 
 17670      20226C6C 
 17670      2200
 17671              	.LASF857:
 17672 899d 4B45595F 		.ascii	"KEY_NAK 21\000"
 17672      4E414B20 
 17672      323100
 17673              	.LASF628:
 17674 89a8 5F4E6F72 		.ascii	"_Noreturn __dead2\000"
 17674      65747572 
 17674      6E205F5F 
 17674      64656164 
 17674      3200
 17675              	.LASF833:
 17676 89ba 5F454E41 		.ascii	"_ENABLE_INIT_PROMPT \000"
 17676      424C455F 
 17676      494E4954 
 17676      5F50524F 
 17676      4D505420 
 17677              	.LASF1014:
 17678 89cf 5343425F 		.ascii	"SCB_CPUID_ARCHITECTURE_Msk (0xFUL << SCB_CPUID_ARCH"
 17678      43505549 
 17678      445F4152 
 17678      43484954 
 17678      45435455 
 17679 8a02 49544543 		.ascii	"ITECTURE_Pos)\000"
 17679      54555245 
 17679      5F506F73 
 17679      2900
 17680              	.LASF707:
 17681 8a10 5F5F626F 		.ascii	"__bool_true_false_are_defined 1\000"
 17681      6F6C5F74 
 17681      7275655F 
 17681      66616C73 
 17681      655F6172 
 17682              	.LASF894:
 17683 8a30 5F5F5F5F 		.ascii	"____VCUTODASH__LIMP_STATE__LIMP_NORMAL 0\000"
 17683      56435554 
 17683      4F444153 
 17683      485F5F4C 
 17683      494D505F 
 17684              	.LASF1628:
 17685 8a59 5041434B 		.ascii	"PACK_CONFIG_T\000"
ARM GAS  /var/folders/z0/6xlwn_996xz3mwq1cgzkbq4r0000gp/T//ccBgBTlB.s 			page 417


 17685      5F434F4E 
 17685      4649475F 
 17685      5400
 17686              	.LASF1422:
 17687 8a67 4932435F 		.ascii	"I2C_I2STAT_M_TX_SLAW_ACK ((0x18))\000"
 17687      49325354 
 17687      41545F4D 
 17687      5F54585F 
 17687      534C4157 
 17688              	.LASF1137:
 17689 8a89 53595343 		.ascii	"SYSCTL_RST_EXTRST (1 << 1)\000"
 17689      544C5F52 
 17689      53545F45 
 17689      58545253 
 17689      54202831 
 17690              	.LASF381:
 17691 8aa4 5F5F4253 		.ascii	"__BSD_VISIBLE 1\000"
 17691      445F5649 
 17691      5349424C 
 17691      45203100 
 17692              	.LASF688:
 17693 8ab4 5F5F6E65 		.ascii	"__need_NULL \000"
 17693      65645F4E 
 17693      554C4C20 
 17693      00
 17694              	.LASF1113:
 17695 8ac1 4C50435F 		.ascii	"LPC_USART ((LPC_USART_T *) LPC_USART_BASE)\000"
 17695      55534152 
 17695      54202828 
 17695      4C50435F 
 17695      55534152 
 17696              	.LASF1442:
 17697 8aec 4932435F 		.ascii	"I2C_I2STAT_S_RX_STA_STO_SLVREC_SLVTRX ((0xA0))\000"
 17697      49325354 
 17697      41545F53 
 17697      5F52585F 
 17697      5354415F 
 17698              	.LASF1766:
 17699 8b1b 5041434B 		.ascii	"PACK_NAMES\000"
 17699      5F4E414D 
 17699      455300
 17700              	.LASF768:
 17701 8b26 494E545F 		.ascii	"INT_LEAST8_MIN (-__INT_LEAST8_MAX__ - 1)\000"
 17701      4C454153 
 17701      54385F4D 
 17701      494E2028 
 17701      2D5F5F49 
 17702              	.LASF1322:
 17703 8b4f 55415254 		.ascii	"UART_SCICTRL_PROTSEL_T1 (1 << 2)\000"
 17703      5F534349 
 17703      4354524C 
 17703      5F50524F 
 17703      5453454C 
 17704              	.LASF752:
 17705 8b70 5F494E54 		.ascii	"_INTPTR_T_DECLARED \000"
 17705      5054525F 
 17705      545F4445 
ARM GAS  /var/folders/z0/6xlwn_996xz3mwq1cgzkbq4r0000gp/T//ccBgBTlB.s 			page 418


 17705      434C4152 
 17705      45442000 
 17706              	.LASF1046:
 17707 8b84 5343425F 		.ascii	"SCB_AIRCR_VECTCLRACTIVE_Msk (1UL << SCB_AIRCR_VECTC"
 17707      41495243 
 17707      525F5645 
 17707      4354434C 
 17707      52414354 
 17708 8bb7 4C524143 		.ascii	"LRACTIVE_Pos)\000"
 17708      54495645 
 17708      5F506F73 
 17708      2900
 17709              	.LASF1180:
 17710 8bc5 494F434F 		.ascii	"IOCON_STDI2C_EN (0x1 << 8)\000"
 17710      4E5F5354 
 17710      44493243 
 17710      5F454E20 
 17710      28307831 
 17711              	.LASF105:
 17712 8be0 5F5F5549 		.ascii	"__UINT_LEAST32_MAX__ 0xffffffffUL\000"
 17712      4E545F4C 
 17712      45415354 
 17712      33325F4D 
 17712      41585F5F 
 17713              	.LASF1579:
 17714 8c02 43414E5F 		.ascii	"CAN_BMSERRORS_VCU_DEAD\000"
 17714      424D5345 
 17714      52524F52 
 17714      535F5643 
 17714      555F4445 
 17715              	.LASF726:
 17716 8c19 5F494E54 		.ascii	"_INT32_EQ_LONG \000"
 17716      33325F45 
 17716      515F4C4F 
 17716      4E472000 
 17717              	.LASF239:
 17718 8c29 5F5F4143 		.ascii	"__ACCUM_MIN__ (-0X1P15K-0X1P15K)\000"
 17718      43554D5F 
 17718      4D494E5F 
 17718      5F20282D 
 17718      30583150 
 17719              	.LASF196:
 17720 8c4a 5F5F5553 		.ascii	"__USFRACT_EPSILON__ 0x1P-8UHR\000"
 17720      46524143 
 17720      545F4550 
 17720      53494C4F 
 17720      4E5F5F20 
 17721              	.LASF725:
 17722 8c68 5F494E54 		.ascii	"_INTPTR_EQ_INT \000"
 17722      5054525F 
 17722      45515F49 
 17722      4E542000 
 17723              	.LASF1059:
 17724 8c78 53797354 		.ascii	"SysTick_CTRL_COUNTFLAG_Pos 16\000"
 17724      69636B5F 
 17724      4354524C 
 17724      5F434F55 
ARM GAS  /var/folders/z0/6xlwn_996xz3mwq1cgzkbq4r0000gp/T//ccBgBTlB.s 			page 419


 17724      4E54464C 
 17725              	.LASF25:
 17726 8c96 5F5F4F52 		.ascii	"__ORDER_BIG_ENDIAN__ 4321\000"
 17726      4445525F 
 17726      4249475F 
 17726      454E4449 
 17726      414E5F5F 
 17727              	.LASF1685:
 17728 8cb0 63757272 		.ascii	"curr_baud_rate\000"
 17728      5F626175 
 17728      645F7261 
 17728      746500
 17729              	.LASF205:
 17730 8cbf 5F5F5546 		.ascii	"__UFRACT_MAX__ 0XFFFFP-16UR\000"
 17730      52414354 
 17730      5F4D4158 
 17730      5F5F2030 
 17730      58464646 
 17731              	.LASF1731:
 17732 8cdb 594E4C5F 		.ascii	"YNL_NO\000"
 17732      4E4F00
 17733              	.LASF788:
 17734 8ce2 55494E54 		.ascii	"UINT_LEAST64_MAX (__UINT_LEAST64_MAX__)\000"
 17734      5F4C4541 
 17734      53543634 
 17734      5F4D4158 
 17734      20285F5F 
 17735              	.LASF476:
 17736 8d0a 5F4D4143 		.ascii	"_MACHINE__DEFAULT_TYPES_H \000"
 17736      48494E45 
 17736      5F5F4445 
 17736      4641554C 
 17736      545F5459 
 17737              	.LASF1639:
 17738 8d25 454C434F 		.ascii	"ELCON_STATUS_T\000"
 17738      4E5F5354 
 17738      41545553 
 17738      5F5400
 17739              	.LASF61:
 17740 8d34 5F5F5549 		.ascii	"__UINT_FAST32_TYPE__ unsigned int\000"
 17740      4E545F46 
 17740      41535433 
 17740      325F5459 
 17740      50455F5F 
 17741              	.LASF84:
 17742 8d56 5F5F5349 		.ascii	"__SIG_ATOMIC_MIN__ (-__SIG_ATOMIC_MAX__ - 1)\000"
 17742      475F4154 
 17742      4F4D4943 
 17742      5F4D494E 
 17742      5F5F2028 
 17743              	.LASF1559:
 17744 8d83 55415254 		.ascii	"UART_BUFFER_SIZE 100\000"
 17744      5F425546 
 17744      4645525F 
 17744      53495A45 
 17744      20313030 
 17745              	.LASF705:
ARM GAS  /var/folders/z0/6xlwn_996xz3mwq1cgzkbq4r0000gp/T//ccBgBTlB.s 			page 420


 17746 8d98 74727565 		.ascii	"true 1\000"
 17746      203100
 17747              	.LASF1063:
 17748 8d9f 53797354 		.ascii	"SysTick_CTRL_TICKINT_Pos 1\000"
 17748      69636B5F 
 17748      4354524C 
 17748      5F544943 
 17748      4B494E54 
 17749              	.LASF779:
 17750 8dba 55494E54 		.ascii	"UINT32_MAX (__UINT32_MAX__)\000"
 17750      33325F4D 
 17750      41582028 
 17750      5F5F5549 
 17750      4E543332 
 17751              	.LASF1669:
 17752 8dd6 6D735469 		.ascii	"msTicks\000"
 17752      636B7300 
 17753              	.LASF1310:
 17754 8dde 55415254 		.ascii	"UART_RS485CTRL_SEL_DTR (1 << 3)\000"
 17754      5F525334 
 17754      38354354 
 17754      524C5F53 
 17754      454C5F44 
 17755              	.LASF617:
 17756 8dfe 5F5F7075 		.ascii	"__pure2 __attribute__((__const__))\000"
 17756      72653220 
 17756      5F5F6174 
 17756      74726962 
 17756      7574655F 
 17757              	.LASF1786:
 17758 8e21 426F6172 		.ascii	"Board_Print\000"
 17758      645F5072 
 17758      696E7400 
 17759              	.LASF469:
 17760 8e2d 5F5F6E65 		.ascii	"__need_wchar_t\000"
 17760      65645F77 
 17760      63686172 
 17760      5F7400
 17761              	.LASF130:
 17762 8e3c 5F5F464C 		.ascii	"__FLT_DECIMAL_DIG__ 9\000"
 17762      545F4445 
 17762      43494D41 
 17762      4C5F4449 
 17762      475F5F20 
 17763              	.LASF1047:
 17764 8e52 5343425F 		.ascii	"SCB_SCR_SEVONPEND_Pos 4\000"
 17764      5343525F 
 17764      5345564F 
 17764      4E50454E 
 17764      445F506F 
 17765              	.LASF41:
 17766 8e6a 5F5F494E 		.ascii	"__INT32_TYPE__ long int\000"
 17766      5433325F 
 17766      54595045 
 17766      5F5F206C 
 17766      6F6E6720 
 17767              	.LASF427:
ARM GAS  /var/folders/z0/6xlwn_996xz3mwq1cgzkbq4r0000gp/T//ccBgBTlB.s 			page 421


 17768 8e82 5F545F50 		.ascii	"_T_PTRDIFF \000"
 17768      54524449 
 17768      46462000 
 17769              	.LASF670:
 17770 8e8e 5F5F6172 		.ascii	"__arg_type_tag(arg_kind,arg_idx,type_tag_idx) \000"
 17770      675F7479 
 17770      70655F74 
 17770      61672861 
 17770      72675F6B 
 17771              	.LASF1474:
 17772 8ebd 4932435F 		.ascii	"I2C_MONITOR_CFG_MATCHALL I2C_I2MMCTRL_MATCH_ALL\000"
 17772      4D4F4E49 
 17772      544F525F 
 17772      4346475F 
 17772      4D415443 
 17773              	.LASF1458:
 17774 8eed 4932435F 		.ascii	"I2C_I2MASK_MASK(n) ((n & 0xFE))\000"
 17774      49324D41 
 17774      534B5F4D 
 17774      41534B28 
 17774      6E292028 
 17775              	.LASF233:
 17776 8f0d 5F5F5553 		.ascii	"__USACCUM_IBIT__ 8\000"
 17776      41434355 
 17776      4D5F4942 
 17776      49545F5F 
 17776      203800
 17777              	.LASF1332:
 17778 8f20 55415254 		.ascii	"UART_SYNCCTRL_FES (1 << 2)\000"
 17778      5F53594E 
 17778      43435452 
 17778      4C5F4645 
 17778      53202831 
 17779              	.LASF1069:
 17780 8f3b 53797354 		.ascii	"SysTick_VAL_CURRENT_Pos 0\000"
 17780      69636B5F 
 17780      56414C5F 
 17780      43555252 
 17780      454E545F 
 17781              	.LASF219:
 17782 8f55 5F5F4C4C 		.ascii	"__LLFRACT_MIN__ (-0.5LLR-0.5LLR)\000"
 17782      46524143 
 17782      545F4D49 
 17782      4E5F5F20 
 17782      282D302E 
 17783              	.LASF394:
 17784 8f76 5F524541 		.ascii	"_READ_WRITE_RETURN_TYPE int\000"
 17784      445F5752 
 17784      4954455F 
 17784      52455455 
 17784      524E5F54 
 17785              	.LASF214:
 17786 8f92 5F5F554C 		.ascii	"__ULFRACT_MIN__ 0.0ULR\000"
 17786      46524143 
 17786      545F4D49 
 17786      4E5F5F20 
 17786      302E3055 
ARM GAS  /var/folders/z0/6xlwn_996xz3mwq1cgzkbq4r0000gp/T//ccBgBTlB.s 			page 422


 17787              	.LASF1132:
 17788 8fa9 504D555F 		.ascii	"PMU_PCON_SLEEPFLAG (1 << 8)\000"
 17788      50434F4E 
 17788      5F534C45 
 17788      4550464C 
 17788      41472028 
 17789              	.LASF432:
 17790 8fc5 5F474343 		.ascii	"_GCC_PTRDIFF_T \000"
 17790      5F505452 
 17790      44494646 
 17790      5F542000 
 17791              	.LASF1489:
 17792 8fd5 43414E5F 		.ascii	"CAN_MSGOBJ_RTR 0x40000000UL\000"
 17792      4D53474F 
 17792      424A5F52 
 17792      54522030 
 17792      78343030 
 17793              	.LASF1000:
 17794 8ff1 5F5F494E 		.ascii	"__INLINE inline\000"
 17794      4C494E45 
 17794      20696E6C 
 17794      696E6500 
 17795              	.LASF1056:
 17796 9001 5343425F 		.ascii	"SCB_CCR_UNALIGN_TRP_Msk (1UL << SCB_CCR_UNALIGN_TRP"
 17796      4343525F 
 17796      554E414C 
 17796      49474E5F 
 17796      5452505F 
 17797 9034 5F506F73 		.ascii	"_Pos)\000"
 17797      2900
 17798              	.LASF64:
 17799 903a 5F5F5549 		.ascii	"__UINTPTR_TYPE__ unsigned int\000"
 17799      4E545054 
 17799      525F5459 
 17799      50455F5F 
 17799      20756E73 
 17800              	.LASF890:
 17801 9058 56435554 		.ascii	"VCUTODASH__id 243\000"
 17801      4F444153 
 17801      485F5F69 
 17801      64203234 
 17801      3300
 17802              	.LASF1553:
 17803 906a 4D593136 		.ascii	"MY16_CV_MIN_CURRENT_mA 100\000"
 17803      5F43565F 
 17803      4D494E5F 
 17803      43555252 
 17803      454E545F 
 17804              	.LASF13:
 17805 9085 5F5F4649 		.ascii	"__FINITE_MATH_ONLY__ 0\000"
 17805      4E495445 
 17805      5F4D4154 
 17805      485F4F4E 
 17805      4C595F5F 
 17806              	.LASF1120:
 17807 909c 4C50435F 		.ascii	"LPC_FMC ((LPC_FMC_T *) LPC_FLASH_BASE)\000"
 17807      464D4320 
ARM GAS  /var/folders/z0/6xlwn_996xz3mwq1cgzkbq4r0000gp/T//ccBgBTlB.s 			page 423


 17807      28284C50 
 17807      435F464D 
 17807      435F5420 
 17808              	.LASF513:
 17809 90c3 5F415445 		.ascii	"_ATEXIT_INIT {_NULL, 0, {_NULL}, {{_NULL}, {_NULL},"
 17809      5849545F 
 17809      494E4954 
 17809      207B5F4E 
 17809      554C4C2C 
 17810 90f6 20302C20 		.ascii	" 0, 0}}\000"
 17810      307D7D00 
 17811              	.LASF1221:
 17812 90fe 52425F56 		.ascii	"RB_VTAIL(rb) ((volatile uint32_t)(rb->tail))\000"
 17812      5441494C 
 17812      28726229 
 17812      20282876 
 17812      6F6C6174 
 17813              	.LASF922:
 17814 912b 5F5F5F5F 		.ascii	"____BMSERRORS__TYPE__NONE 0\000"
 17814      424D5345 
 17814      52524F52 
 17814      535F5F54 
 17814      5950455F 
 17815              	.LASF1424:
 17816 9147 4932435F 		.ascii	"I2C_I2STAT_M_TX_DAT_ACK ((0x28))\000"
 17816      49325354 
 17816      41545F4D 
 17816      5F54585F 
 17816      4441545F 
 17817              	.LASF1106:
 17818 9168 4C50435F 		.ascii	"LPC_GPIO_PORT1_BASE 0x50010000\000"
 17818      4750494F 
 17818      5F504F52 
 17818      54315F42 
 17818      41534520 
 17819              	.LASF1376:
 17820 9187 4144435F 		.ascii	"ADC_DR_RESULT(n) ((((n) >> 6) & 0x3FF))\000"
 17820      44525F52 
 17820      4553554C 
 17820      54286E29 
 17820      20282828 
 17821              	.LASF972:
 17822 91af 50415241 		.ascii	"PARAM_SETSTATE(State) ((State == RESET) || (State ="
 17822      4D5F5345 
 17822      54535441 
 17822      54452853 
 17822      74617465 
 17823 91e2 3D205345 		.ascii	"= SET))\000"
 17823      54292900 
 17824              	.LASF1252:
 17825 91ea 55415254 		.ascii	"UART_FCR_BITMASK (0xCF)\000"
 17825      5F464352 
 17825      5F424954 
 17825      4D41534B 
 17825      20283078 
 17826              	.LASF1444:
 17827 9202 4932435F 		.ascii	"I2C_I2STAT_S_TX_ARB_LOST_M_SLA ((0xB0))\000"
ARM GAS  /var/folders/z0/6xlwn_996xz3mwq1cgzkbq4r0000gp/T//ccBgBTlB.s 			page 424


 17827      49325354 
 17827      41545F53 
 17827      5F54585F 
 17827      4152425F 
 17828              	.LASF807:
 17829 922a 50545244 		.ascii	"PTRDIFF_MAX (__PTRDIFF_MAX__)\000"
 17829      4946465F 
 17829      4D415820 
 17829      285F5F50 
 17829      54524449 
 17830              	.LASF65:
 17831 9248 5F5F6861 		.ascii	"__has_include(STR) __has_include__(STR)\000"
 17831      735F696E 
 17831      636C7564 
 17831      65285354 
 17831      5229205F 
 17832              	.LASF757:
 17833 9270 5F5F696E 		.ascii	"__int_least64_t_defined 1\000"
 17833      745F6C65 
 17833      61737436 
 17833      345F745F 
 17833      64656669 
 17834              	.LASF935:
 17835 928a 43555252 		.ascii	"CURRENTSENSOR_CURRENT__freq 20\000"
 17835      454E5453 
 17835      454E534F 
 17835      525F4355 
 17835      5252454E 
 17836              	.LASF1739:
 17837 92a9 6D656173 		.ascii	"measure_packvoltage\000"
 17837      7572655F 
 17837      7061636B 
 17837      766F6C74 
 17837      61676500 
 17838              	.LASF1133:
 17839 92bd 504D555F 		.ascii	"PMU_PCON_DPDFLAG (1 << 11)\000"
 17839      50434F4E 
 17839      5F445044 
 17839      464C4147 
 17839      20283120 
 17840              	.LASF1048:
 17841 92d8 5343425F 		.ascii	"SCB_SCR_SEVONPEND_Msk (1UL << SCB_SCR_SEVONPEND_Pos"
 17841      5343525F 
 17841      5345564F 
 17841      4E50454E 
 17841      445F4D73 
 17842 930b 2900     		.ascii	")\000"
 17843              	.LASF410:
 17844 930d 5F455850 		.ascii	"_EXPARM(name,proto) (* name) proto\000"
 17844      41524D28 
 17844      6E616D65 
 17844      2C70726F 
 17844      746F2920 
 17845              	.LASF1358:
 17846 9330 5353505F 		.ascii	"SSP_CR1_MASTER_EN ((uint32_t) (0))\000"
 17846      4352315F 
 17846      4D415354 
ARM GAS  /var/folders/z0/6xlwn_996xz3mwq1cgzkbq4r0000gp/T//ccBgBTlB.s 			page 425


 17846      45525F45 
 17846      4E202828 
 17847              	.LASF323:
 17848 9353 5F5F4152 		.ascii	"__ARM_SIZEOF_MINIMAL_ENUM 1\000"
 17848      4D5F5349 
 17848      5A454F46 
 17848      5F4D494E 
 17848      494D414C 
 17849              	.LASF100:
 17850 936f 5F5F494E 		.ascii	"__INT64_C(c) c ## LL\000"
 17850      5436345F 
 17850      43286329 
 17850      20632023 
 17850      23204C4C 
 17851              	.LASF728:
 17852 9384 5F5F494E 		.ascii	"__INT16 \"h\"\000"
 17852      54313620 
 17852      22682200 
 17853              	.LASF1246:
 17854 9390 55415254 		.ascii	"UART_IIR_INTID_THRE (1 << 1)\000"
 17854      5F494952 
 17854      5F494E54 
 17854      49445F54 
 17854      48524520 
 17855              	.LASF710:
 17856 93ad 5F5F5354 		.ascii	"__STDINT_EXP(x) __ ##x ##__\000"
 17856      44494E54 
 17856      5F455850 
 17856      28782920 
 17856      5F5F2023 
 17857              	.LASF885:
 17858 93c9 424D535F 		.ascii	"BMS_CSB_SWITCH__freq 0\000"
 17858      4353425F 
 17858      53574954 
 17858      43485F5F 
 17858      66726571 
 17859              	.LASF291:
 17860 93e0 5F5F4441 		.ascii	"__DA_FBIT__ 31\000"
 17860      5F464249 
 17860      545F5F20 
 17860      333100
 17861              	.LASF1126:
 17862 93ef 4C50435F 		.ascii	"LPC_USB ((LPC_USB_T *) LPC_USB0_BASE)\000"
 17862      55534220 
 17862      28284C50 
 17862      435F5553 
 17862      425F5420 
 17863              	.LASF1698:
 17864 9415 52574C5F 		.ascii	"RWL_cell_min_mV\000"
 17864      63656C6C 
 17864      5F6D696E 
 17864      5F6D5600 
 17865              	.LASF739:
 17866 9425 5F535953 		.ascii	"_SYS__STDINT_H \000"
 17866      5F5F5354 
 17866      44494E54 
 17866      5F482000 
ARM GAS  /var/folders/z0/6xlwn_996xz3mwq1cgzkbq4r0000gp/T//ccBgBTlB.s 			page 426


 17867              	.LASF611:
 17868 9435 5F5F5853 		.ascii	"__XSTRING(x) __STRING(x)\000"
 17868      5452494E 
 17868      47287829 
 17868      205F5F53 
 17868      5452494E 
 17869              	.LASF1290:
 17870 944e 55415254 		.ascii	"UART_LSR_BITMASK (0xFF)\000"
 17870      5F4C5352 
 17870      5F424954 
 17870      4D41534B 
 17870      20283078 
 17871              	.LASF665:
 17872 9466 5F5F5343 		.ascii	"__SCCSID(s) struct __hack\000"
 17872      43534944 
 17872      28732920 
 17872      73747275 
 17872      6374205F 
 17873              	.LASF1707:
 17874 9480 52574C5F 		.ascii	"RWL_cv_min_current_mA\000"
 17874      63765F6D 
 17874      696E5F63 
 17874      75727265 
 17874      6E745F6D 
 17875              	.LASF307:
 17876 9496 5F5F4743 		.ascii	"__GCC_ATOMIC_BOOL_LOCK_FREE 1\000"
 17876      435F4154 
 17876      4F4D4943 
 17876      5F424F4F 
 17876      4C5F4C4F 
 17877              	.LASF1792:
 17878 94b4 7372632F 		.ascii	"src/console.c\000"
 17878      636F6E73 
 17878      6F6C652E 
 17878      6300
 17879              	.LASF177:
 17880 94c2 5F5F4445 		.ascii	"__DEC64_MAX__ 9.999999999999999E384DD\000"
 17880      4336345F 
 17880      4D41585F 
 17880      5F20392E 
 17880      39393939 
 17881              	.LASF111:
 17882 94e8 5F5F494E 		.ascii	"__INT_FAST32_MAX__ 0x7fffffff\000"
 17882      545F4641 
 17882      53543332 
 17882      5F4D4158 
 17882      5F5F2030 
 17883              	.LASF1499:
 17884 9506 53444F5F 		.ascii	"SDO_ABORT_TYPEMISMATCH 0x06070010UL\000"
 17884      41424F52 
 17884      545F5459 
 17884      50454D49 
 17884      534D4154 
 17885              	.LASF743:
 17886 952a 5F494E54 		.ascii	"_INT16_T_DECLARED \000"
 17886      31365F54 
 17886      5F444543 
ARM GAS  /var/folders/z0/6xlwn_996xz3mwq1cgzkbq4r0000gp/T//ccBgBTlB.s 			page 427


 17886      4C415245 
 17886      442000
 17887              	.LASF562:
 17888 953d 5F5F4154 		.ascii	"__ATTRIBUTE_IMPURE_PTR__ \000"
 17888      54524942 
 17888      5554455F 
 17888      494D5055 
 17888      52455F50 
 17889              	.LASF1269:
 17890 9557 55415254 		.ascii	"UART_LCR_PARITY_EVEN (1 << 4)\000"
 17890      5F4C4352 
 17890      5F504152 
 17890      4954595F 
 17890      4556454E 
 17891              	.LASF275:
 17892 9575 5F5F5451 		.ascii	"__TQ_FBIT__ 127\000"
 17892      5F464249 
 17892      545F5F20 
 17892      31323700 
 17893              	.LASF334:
 17894 9585 5F5F5646 		.ascii	"__VFP_FP__ 1\000"
 17894      505F4650 
 17894      5F5F2031 
 17894      00
 17895              	.LASF864:
 17896 9592 4B45595F 		.ascii	"KEY_FS 28\000"
 17896      46532032 
 17896      3800
 17897              	.LASF724:
 17898 959c 6C6F6E67 		.ascii	"long +4\000"
 17898      202B3400 
 17899              	.LASF708:
 17900 95a4 5F535444 		.ascii	"_STDINT_H \000"
 17900      494E545F 
 17900      482000
 17901              	.LASF534:
 17902 95af 5F524545 		.ascii	"_REENT_CHECK_MISC(ptr) \000"
 17902      4E545F43 
 17902      4845434B 
 17902      5F4D4953 
 17902      43287074 
 17903              	.LASF355:
 17904 95c7 5F57414E 		.ascii	"_WANT_IO_LONG_LONG 1\000"
 17904      545F494F 
 17904      5F4C4F4E 
 17904      475F4C4F 
 17904      4E472031 
 17905              	.LASF1313:
 17906 95dc 55415254 		.ascii	"UART_RS485CTRL_BITMASK (0x3F)\000"
 17906      5F525334 
 17906      38354354 
 17906      524C5F42 
 17906      49544D41 
 17907              	.LASF804:
 17908 95fa 53495A45 		.ascii	"SIZE_MAX (__SIZE_MAX__)\000"
 17908      5F4D4158 
 17908      20285F5F 
ARM GAS  /var/folders/z0/6xlwn_996xz3mwq1cgzkbq4r0000gp/T//ccBgBTlB.s 			page 428


 17908      53495A45 
 17908      5F4D4158 
 17909              	.LASF343:
 17910 9612 434F5245 		.ascii	"CORE_M0 1\000"
 17910      5F4D3020 
 17910      3100
 17911              	.LASF1587:
 17912 961c 43414E5F 		.ascii	"CAN_BMSERRORS_CELL_OVER_VOLTAGE\000"
 17912      424D5345 
 17912      52524F52 
 17912      535F4345 
 17912      4C4C5F4F 
 17913              	.LASF919:
 17914 963c 5F5F5F5F 		.ascii	"____BMSERRORS__TYPE__LTC6804_CVST 2\000"
 17914      424D5345 
 17914      52524F52 
 17914      535F5F54 
 17914      5950455F 
 17915              	.LASF1671:
 17916 9660 62616C61 		.ascii	"balance_req\000"
 17916      6E63655F 
 17916      72657100 
 17917              	.LASF651:
 17918 966c 5F5F7363 		.ascii	"__scanflike(fmtarg,firstvararg) __attribute__((__fo"
 17918      616E666C 
 17918      696B6528 
 17918      666D7461 
 17918      72672C66 
 17919 969f 726D6174 		.ascii	"rmat__ (__scanf__, fmtarg, firstvararg)))\000"
 17919      5F5F2028 
 17919      5F5F7363 
 17919      616E665F 
 17919      5F2C2066 
 17920              	.LASF1613:
 17921 96c9 63656C6C 		.ascii	"cell_charge_c_rating_cC\000"
 17921      5F636861 
 17921      7267655F 
 17921      635F7261 
 17921      74696E67 
 17922              	.LASF1367:
 17923 96e1 5353505F 		.ascii	"SSP_CPOL_HI SSP_CR0_CPOL_LO\000"
 17923      43504F4C 
 17923      5F484920 
 17923      5353505F 
 17923      4352305F 
 17924              	.LASF83:
 17925 96fd 5F5F5349 		.ascii	"__SIG_ATOMIC_MAX__ 0x7fffffff\000"
 17925      475F4154 
 17925      4F4D4943 
 17925      5F4D4158 
 17925      5F5F2030 
 17926              	.LASF324:
 17927 971b 5F5F4152 		.ascii	"__ARM_SIZEOF_WCHAR_T 4\000"
 17927      4D5F5349 
 17927      5A454F46 
 17927      5F574348 
 17927      41525F54 
ARM GAS  /var/folders/z0/6xlwn_996xz3mwq1cgzkbq4r0000gp/T//ccBgBTlB.s 			page 429


 17928              	.LASF1127:
 17929 9732 4C50435F 		.ascii	"LPC_GPIO ((LPC_GPIO_T *) LPC_GPIO_PORT0_BASE)\000"
 17929      4750494F 
 17929      2028284C 
 17929      50435F47 
 17929      50494F5F 
 17930              	.LASF1759:
 17931 9760 61726763 		.ascii	"argc\000"
 17931      00
 17932              	.LASF19:
 17933 9765 5F5F5349 		.ascii	"__SIZEOF_DOUBLE__ 8\000"
 17933      5A454F46 
 17933      5F444F55 
 17933      424C455F 
 17933      5F203800 
 17934              	.LASF115:
 17935 9779 5F5F5549 		.ascii	"__UINT_FAST32_MAX__ 0xffffffffU\000"
 17935      4E545F46 
 17935      41535433 
 17935      325F4D41 
 17935      585F5F20 
 17936              	.LASF156:
 17937 9799 5F5F4C44 		.ascii	"__LDBL_MAX_EXP__ 1024\000"
 17937      424C5F4D 
 17937      41585F45 
 17937      58505F5F 
 17937      20313032 
 17938              	.LASF245:
 17939 97af 5F5F5541 		.ascii	"__UACCUM_MAX__ 0XFFFFFFFFP-16UK\000"
 17939      4343554D 
 17939      5F4D4158 
 17939      5F5F2030 
 17939      58464646 
 17940              	.LASF1533:
 17941 97cf 4D593138 		.ascii	"MY18_CELL_MIN_mV 2500\000"
 17941      5F43454C 
 17941      4C5F4D49 
 17941      4E5F6D56 
 17941      20323530 
 17942              	.LASF1745:
 17943 97e5 61726776 		.ascii	"argv\000"
 17943      00
 17944              	.LASF460:
 17945 97ea 5F425344 		.ascii	"_BSD_WCHAR_T_ \000"
 17945      5F574348 
 17945      41525F54 
 17945      5F2000
 17946              	.LASF382:
 17947 97f9 5F5F474E 		.ascii	"__GNU_VISIBLE 0\000"
 17947      555F5649 
 17947      5349424C 
 17947      45203000 
 17948              	.LASF522:
 17949 9809 5F52414E 		.ascii	"_RAND48_ADD (0x000b)\000"
 17949      4434385F 
 17949      41444420 
 17949      28307830 
ARM GAS  /var/folders/z0/6xlwn_996xz3mwq1cgzkbq4r0000gp/T//ccBgBTlB.s 			page 430


 17949      30306229 
 17950              	.LASF1665:
 17951 981e 7061636B 		.ascii	"pack_status\000"
 17951      5F737461 
 17951      74757300 
 17952              	.LASF516:
 17953 982a 5F52414E 		.ascii	"_RAND48_SEED_0 (0x330e)\000"
 17953      4434385F 
 17953      53454544 
 17953      5F302028 
 17953      30783333 
 17954              	.LASF1394:
 17955 9842 5F5F4750 		.ascii	"__GPIO_11XX_2_H_ \000"
 17955      494F5F31 
 17955      3158585F 
 17955      325F485F 
 17955      2000
 17956              	.LASF913:
 17957 9854 5F5F5F5F 		.ascii	"____DASH_REQUEST__TYPE__FAN_ENABLE 9\000"
 17957      44415348 
 17957      5F524551 
 17957      55455354 
 17957      5F5F5459 
 17958              	.LASF1188:
 17959 9879 4D445F48 		.ascii	"MD_HYS (0x1 << 5)\000"
 17959      59532028 
 17959      30783120 
 17959      3C3C2035 
 17959      2900
 17960              	.LASF851:
 17961 988b 4B45595F 		.ascii	"KEY_SI 15\000"
 17961      53492031 
 17961      3500
 17962              	.LASF1569:
 17963 9895 5F5F696E 		.ascii	"__int32_t\000"
 17963      7433325F 
 17963      7400
 17964              	.LASF1483:
 17965 989f 43414E5F 		.ascii	"CAN_ERROR_BIT1 0x00000040UL\000"
 17965      4552524F 
 17965      525F4249 
 17965      54312030 
 17965      78303030 
 17966              	.LASF1020:
 17967 98bb 5343425F 		.ascii	"SCB_ICSR_NMIPENDSET_Msk (1UL << SCB_ICSR_NMIPENDSET"
 17967      49435352 
 17967      5F4E4D49 
 17967      50454E44 
 17967      5345545F 
 17968 98ee 5F506F73 		.ascii	"_Pos)\000"
 17968      2900
 17969              	.LASF79:
 17970 98f4 5F5F494E 		.ascii	"__INTMAX_MAX__ 0x7fffffffffffffffLL\000"
 17970      544D4158 
 17970      5F4D4158 
 17970      5F5F2030 
 17970      78376666 
ARM GAS  /var/folders/z0/6xlwn_996xz3mwq1cgzkbq4r0000gp/T//ccBgBTlB.s 			page 431


 17971              	.LASF682:
 17972 9918 5F5F7265 		.ascii	"__requires_shared(...) __lock_annotate(shared_locks"
 17972      71756972 
 17972      65735F73 
 17972      68617265 
 17972      64282E2E 
 17973 994b 5F726571 		.ascii	"_required(__VA_ARGS__))\000"
 17973      75697265 
 17973      64285F5F 
 17973      56415F41 
 17973      5247535F 
 17974              	.LASF957:
 17975 9963 5F43414E 		.ascii	"_CAN_LIBRARY_ENUM_SEGMENTS_H \000"
 17975      5F4C4942 
 17975      52415259 
 17975      5F454E55 
 17975      4D5F5345 
 17976              	.LASF1779:
 17977 9981 6C617374 		.ascii	"lastPackCurrentPrintTime\000"
 17977      5061636B 
 17977      43757272 
 17977      656E7450 
 17977      72696E74 
 17978              	.LASF1558:
 17979 999a 42414C41 		.ascii	"BALANCE_OFF_WAITING_THRESH_MS 188000\000"
 17979      4E43455F 
 17979      4F46465F 
 17979      57414954 
 17979      494E475F 
 17980              	.LASF594:
 17981 99bf 5F5F474E 		.ascii	"__GNUCLIKE_BUILTIN_VAALIST 1\000"
 17981      55434C49 
 17981      4B455F42 
 17981      55494C54 
 17981      494E5F56 
 17982              	.LASF1413:
 17983 99dc 4932435F 		.ascii	"I2C_CON_STO (1UL << 4)\000"
 17983      434F4E5F 
 17983      53544F20 
 17983      2831554C 
 17983      203C3C20 
 17984              	.LASF544:
 17985 99f3 5F524545 		.ascii	"_REENT_MP_FREELIST(ptr) ((ptr)->_freelist)\000"
 17985      4E545F4D 
 17985      505F4652 
 17985      45454C49 
 17985      53542870 
 17986              	.LASF12:
 17987 9a1e 5F5F4F50 		.ascii	"__OPTIMIZE__ 1\000"
 17987      54494D49 
 17987      5A455F5F 
 17987      203100
 17988              	.LASF613:
 17989 9a2d 5F5F7369 		.ascii	"__signed signed\000"
 17989      676E6564 
 17989      20736967 
 17989      6E656400 
ARM GAS  /var/folders/z0/6xlwn_996xz3mwq1cgzkbq4r0000gp/T//ccBgBTlB.s 			page 432


 17990              	.LASF1248:
 17991 9a3d 55415254 		.ascii	"UART_FCR_FIFO_EN (1 << 0)\000"
 17991      5F464352 
 17991      5F464946 
 17991      4F5F454E 
 17991      20283120 
 17992              	.LASF1604:
 17993 9a57 424D535F 		.ascii	"BMS_NO_COMM\000"
 17993      4E4F5F43 
 17993      4F4D4D00 
 17994              	.LASF1211:
 17995 9a63 54494D45 		.ascii	"TIMER_RESET ((uint32_t) (1 << 1))\000"
 17995      525F5245 
 17995      53455420 
 17995      28287569 
 17995      6E743332 
 17996              	.LASF1057:
 17997 9a85 5343425F 		.ascii	"SCB_SHCSR_SVCALLPENDED_Pos 15\000"
 17997      53484353 
 17997      525F5356 
 17997      43414C4C 
 17997      50454E44 
 17998              	.LASF369:
 17999 9aa3 5F535953 		.ascii	"_SYS_FEATURES_H \000"
 17999      5F464541 
 17999      54555245 
 17999      535F4820 
 17999      00
 18000              	.LASF1099:
 18001 9ab4 4C50435F 		.ascii	"LPC_SSP0_BASE 0x40040000\000"
 18001      53535030 
 18001      5F424153 
 18001      45203078 
 18001      34303034 
 18002              	.LASF1392:
 18003 9acd 4144435F 		.ascii	"ADC_CR_EDGE ((1UL << 27))\000"
 18003      43525F45 
 18003      44474520 
 18003      28283155 
 18003      4C203C3C 
 18004              	.LASF326:
 18005 9ae7 5F5F6172 		.ascii	"__arm__ 1\000"
 18005      6D5F5F20 
 18005      3100
 18006              	.LASF1170:
 18007 9af1 494F434F 		.ascii	"IOCON_FUNC7 0x7\000"
 18007      4E5F4655 
 18007      4E433720 
 18007      30783700 
 18008              	.LASF1117:
 18009 9b01 4C50435F 		.ascii	"LPC_TIMER32_1 ((LPC_TIMER_T *) LPC_TIMER32_1_BASE)\000"
 18009      54494D45 
 18009      5233325F 
 18009      31202828 
 18009      4C50435F 
 18010              	.LASF1645:
 18011 9b34 4353425F 		.ascii	"CSB_CHARGE_OFF\000"
ARM GAS  /var/folders/z0/6xlwn_996xz3mwq1cgzkbq4r0000gp/T//ccBgBTlB.s 			page 433


 18011      43484152 
 18011      47455F4F 
 18011      464600
 18012              	.LASF1706:
 18013 9b43 52574C5F 		.ascii	"RWL_pack_cells_p\000"
 18013      7061636B 
 18013      5F63656C 
 18013      6C735F70 
 18013      00
 18014              	.LASF1694:
 18015 9b54 435F4348 		.ascii	"C_CHRG\000"
 18015      524700
 18016              	.LASF1545:
 18017 9b5b 4D593136 		.ascii	"MY16_CELL_MIN_mV 2500\000"
 18017      5F43454C 
 18017      4C5F4D49 
 18017      4E5F6D56 
 18017      20323530 
 18018              	.LASF691:
 18019 9b71 5F5F6E65 		.ascii	"__need_wchar_t \000"
 18019      65645F77 
 18019      63686172 
 18019      5F742000 
 18020              	.LASF500:
 18021 9b81 5F5F7369 		.ascii	"__size_t\000"
 18021      7A655F74 
 18021      00
 18022              	.LASF800:
 18023 9b8a 55494E54 		.ascii	"UINT_FAST64_MAX (__UINT_FAST64_MAX__)\000"
 18023      5F464153 
 18023      5436345F 
 18023      4D415820 
 18023      285F5F55 
 18024              	.LASF1086:
 18025 9bb0 5F49505F 		.ascii	"_IP_IDX(IRQn) ( ((uint32_t)(IRQn) >> 2) )\000"
 18025      49445828 
 18025      4952516E 
 18025      29202820 
 18025      28287569 
 18026              	.LASF10:
 18027 9bda 5F5F4154 		.ascii	"__ATOMIC_ACQ_REL 4\000"
 18027      4F4D4943 
 18027      5F414351 
 18027      5F52454C 
 18027      203400
 18028              	.LASF1659:
 18029 9bed 4353425F 		.ascii	"CSB_INIT_DONE\000"
 18029      494E4954 
 18029      5F444F4E 
 18029      4500
 18030              	.LASF1319:
 18031 9bfb 55415254 		.ascii	"UART_HDEN_HDEN ((1 << 0))\000"
 18031      5F484445 
 18031      4E5F4844 
 18031      454E2028 
 18031      2831203C 
 18032              	.LASF1606:
ARM GAS  /var/folders/z0/6xlwn_996xz3mwq1cgzkbq4r0000gp/T//ccBgBTlB.s 			page 434


 18033 9c15 424D535F 		.ascii	"BMS_COMM_T\000"
 18033      434F4D4D 
 18033      5F5400
 18034              	.LASF457:
 18035 9c20 5F545F57 		.ascii	"_T_WCHAR \000"
 18035      43484152 
 18035      2000
 18036              	.LASF1256:
 18037 9c2a 55415254 		.ascii	"UART_FCR_TRG_LEV2 (2 << 6)\000"
 18037      5F464352 
 18037      5F545247 
 18037      5F4C4556 
 18037      32202832 
 18038              	.LASF363:
 18039 9c45 5F465657 		.ascii	"_FVWRITE_IN_STREAMIO 1\000"
 18039      52495445 
 18039      5F494E5F 
 18039      53545245 
 18039      414D494F 
 18040              	.LASF450:
 18041 9c5c 5F53495A 		.ascii	"_SIZET_ \000"
 18041      45545F20 
 18041      00
 18042              	.LASF909:
 18043 9c65 5F5F5F5F 		.ascii	"____DASH_REQUEST__TYPE__NO_REQUEST 0\000"
 18043      44415348 
 18043      5F524551 
 18043      55455354 
 18043      5F5F5459 
 18044              	.LASF39:
 18045 9c8a 5F5F494E 		.ascii	"__INT8_TYPE__ signed char\000"
 18045      54385F54 
 18045      5950455F 
 18045      5F207369 
 18045      676E6564 
 18046              	.LASF1026:
 18047 9ca4 5343425F 		.ascii	"SCB_ICSR_PENDSTSET_Msk (1UL << SCB_ICSR_PENDSTSET_P"
 18047      49435352 
 18047      5F50454E 
 18047      44535453 
 18047      45545F4D 
 18048 9cd7 6F732900 		.ascii	"os)\000"
 18049              	.LASF1083:
 18050 9cdb 4E564943 		.ascii	"NVIC ((NVIC_Type *) NVIC_BASE )\000"
 18050      2028284E 
 18050      5649435F 
 18050      54797065 
 18050      202A2920 
 18051              	.LASF1303:
 18052 9cfb 55415254 		.ascii	"UART_ACR_AUTO_RESTART (1 << 2)\000"
 18052      5F414352 
 18052      5F415554 
 18052      4F5F5245 
 18052      53544152 
 18053              	.LASF1191:
 18054 9d1a 4D445F44 		.ascii	"MD_DIGMODE (0x1 << 7)\000"
 18054      49474D4F 
ARM GAS  /var/folders/z0/6xlwn_996xz3mwq1cgzkbq4r0000gp/T//ccBgBTlB.s 			page 435


 18054      44452028 
 18054      30783120 
 18054      3C3C2037 
 18055              	.LASF1430:
 18056 9d30 4932435F 		.ascii	"I2C_I2STAT_M_RX_SLAR_ACK ((0x40))\000"
 18056      49325354 
 18056      41545F4D 
 18056      5F52585F 
 18056      534C4152 
 18057              	.LASF423:
 18058 9d52 5F535444 		.ascii	"_STDDEF_H_ \000"
 18058      4445465F 
 18058      485F2000 
 18059              	.LASF379:
 18060 9d5e 5F415446 		.ascii	"_ATFILE_SOURCE 1\000"
 18060      494C455F 
 18060      534F5552 
 18060      43452031 
 18060      00
 18061              	.LASF390:
 18062 9d6f 5F5F5241 		.ascii	"__RAND_MAX\000"
 18062      4E445F4D 
 18062      415800
 18063              	.LASF371:
 18064 9d7a 5F5F474E 		.ascii	"__GNUC_PREREQ__(ma,mi) __GNUC_PREREQ(ma, mi)\000"
 18064      55435F50 
 18064      52455245 
 18064      515F5F28 
 18064      6D612C6D 
 18065              	.LASF240:
 18066 9da7 5F5F4143 		.ascii	"__ACCUM_MAX__ 0X7FFFFFFFP-15K\000"
 18066      43554D5F 
 18066      4D41585F 
 18066      5F203058 
 18066      37464646 
 18067              	.LASF337:
 18068 9dc5 5F5F4152 		.ascii	"__ARM_PCS 1\000"
 18068      4D5F5043 
 18068      53203100 
 18069              	.LASF57:
 18070 9dd1 5F5F494E 		.ascii	"__INT_FAST32_TYPE__ int\000"
 18070      545F4641 
 18070      53543332 
 18070      5F545950 
 18070      455F5F20 
 18071              	.LASF491:
 18072 9de9 5F5F6C6F 		.ascii	"__lock_init_recursive(lock) (_CAST_VOID 0)\000"
 18072      636B5F69 
 18072      6E69745F 
 18072      72656375 
 18072      72736976 
 18073              	.LASF762:
 18074 9e14 494E5450 		.ascii	"INTPTR_MIN (-__INTPTR_MAX__ - 1)\000"
 18074      54525F4D 
 18074      494E2028 
 18074      2D5F5F49 
 18074      4E545054 
ARM GAS  /var/folders/z0/6xlwn_996xz3mwq1cgzkbq4r0000gp/T//ccBgBTlB.s 			page 436


 18075              	.LASF255:
 18076 9e35 5F5F554C 		.ascii	"__ULACCUM_MAX__ 0XFFFFFFFFFFFFFFFFP-32ULK\000"
 18076      41434355 
 18076      4D5F4D41 
 18076      585F5F20 
 18076      30584646 
 18077              	.LASF877:
 18078 9e5f 5F4D5931 		.ascii	"_MY18_STATIC_CAN_H \000"
 18078      385F5354 
 18078      41544943 
 18078      5F43414E 
 18078      5F482000 
 18079              	.LASF1776:
 18080 9e73 636F6E66 		.ascii	"config_locstring\000"
 18080      69675F6C 
 18080      6F637374 
 18080      72696E67 
 18080      00
 18081              	.LASF1019:
 18082 9e84 5343425F 		.ascii	"SCB_ICSR_NMIPENDSET_Pos 31\000"
 18082      49435352 
 18082      5F4E4D49 
 18082      50454E44 
 18082      5345545F 
 18083              	.LASF399:
 18084 9e9f 5F4E4F54 		.ascii	"_NOTHROW \000"
 18084      48524F57 
 18084      2000
 18085              	.LASF1623:
 18086 9ea9 63635F63 		.ascii	"cc_charge_current_mA\000"
 18086      68617267 
 18086      655F6375 
 18086      7272656E 
 18086      745F6D41 
 18087              	.LASF602:
 18088 9ebe 5F5F4343 		.ascii	"__CC_SUPPORTS___INLINE__ 1\000"
 18088      5F535550 
 18088      504F5254 
 18088      535F5F5F 
 18088      494E4C49 
 18089              	.LASF1114:
 18090 9ed9 4C50435F 		.ascii	"LPC_TIMER16_0 ((LPC_TIMER_T *) LPC_TIMER16_0_BASE)\000"
 18090      54494D45 
 18090      5231365F 
 18090      30202828 
 18090      4C50435F 
 18091              	.LASF1423:
 18092 9f0c 4932435F 		.ascii	"I2C_I2STAT_M_TX_SLAW_NACK ((0x20))\000"
 18092      49325354 
 18092      41545F4D 
 18092      5F54585F 
 18092      534C4157 
 18093              	.LASF1172:
 18094 9f2f 494F434F 		.ascii	"IOCON_MODE_PULLDOWN (0x1 << 3)\000"
 18094      4E5F4D4F 
 18094      44455F50 
 18094      554C4C44 
ARM GAS  /var/folders/z0/6xlwn_996xz3mwq1cgzkbq4r0000gp/T//ccBgBTlB.s 			page 437


 18094      4F574E20 
 18095              	.LASF989:
 18096 9f4e 5F5F434D 		.ascii	"__CMSIS_H_ \000"
 18096      5349535F 
 18096      485F2000 
 18097              	.LASF1492:
 18098 9f5a 53444F5F 		.ascii	"SDO_ABORT_UNKNOWN_COMMAND 0x05040001UL\000"
 18098      41424F52 
 18098      545F554E 
 18098      4B4E4F57 
 18098      4E5F434F 
 18099              	.LASF761:
 18100 9f81 5F5F696E 		.ascii	"__int_fast64_t_defined 1\000"
 18100      745F6661 
 18100      73743634 
 18100      5F745F64 
 18100      6566696E 
 18101              	.LASF1561:
 18102 9f9a 5F504143 		.ascii	"_PACK_CONFIG_H \000"
 18102      4B5F434F 
 18102      4E464947 
 18102      5F482000 
 18103              	.LASF1223:
 18104 9faa 55415254 		.ascii	"UART_LOAD_DLL(div) ((div) & 0xFF)\000"
 18104      5F4C4F41 
 18104      445F444C 
 18104      4C286469 
 18104      76292028 
 18105              	.LASF1691:
 18106 9fcc 435F4845 		.ascii	"C_HELP\000"
 18106      4C5000
 18107              	.LASF350:
 18108 9fd3 5F4E4557 		.ascii	"_NEWLIB_VERSION_H__ 1\000"
 18108      4C49425F 
 18108      56455253 
 18108      494F4E5F 
 18108      485F5F20 
 18109              	.LASF1206:
 18110 9fe9 5F5F5449 		.ascii	"__TIMER_11XX_H_ \000"
 18110      4D45525F 
 18110      31315858 
 18110      5F485F20 
 18110      00
 18111              	.LASF514:
 18112 9ffa 5F524545 		.ascii	"_REENT_INIT_ATEXIT _NULL, _ATEXIT_INIT,\000"
 18112      4E545F49 
 18112      4E49545F 
 18112      41544558 
 18112      4954205F 
 18113              	.LASF525:
 18114 a022 5F524545 		.ascii	"_REENT_SIGNAL_SIZE 24\000"
 18114      4E545F53 
 18114      49474E41 
 18114      4C5F5349 
 18114      5A452032 
 18115              	.LASF305:
 18116 a038 5F5F474E 		.ascii	"__GNUC_GNU_INLINE__ 1\000"
ARM GAS  /var/folders/z0/6xlwn_996xz3mwq1cgzkbq4r0000gp/T//ccBgBTlB.s 			page 438


 18116      55435F47 
 18116      4E555F49 
 18116      4E4C494E 
 18116      455F5F20 
 18117              	.LASF1788:
 18118 a04e 4D593136 		.ascii	"MY16_Pack_Config\000"
 18118      5F506163 
 18118      6B5F436F 
 18118      6E666967 
 18118      00
 18119              	.LASF430:
 18120 a05f 5F425344 		.ascii	"_BSD_PTRDIFF_T_ \000"
 18120      5F505452 
 18120      44494646 
 18120      5F545F20 
 18120      00
 18121              	.LASF458:
 18122 a070 5F5F5743 		.ascii	"__WCHAR_T \000"
 18122      4841525F 
 18122      542000
 18123              	.LASF1750:
 18124 a07b 726F6C6F 		.ascii	"roloc\000"
 18124      6300
 18125              	.LASF540:
 18126 a081 5F524545 		.ascii	"_REENT_RAND48_ADD(ptr) ((ptr)->_new._reent._r48._ad"
 18126      4E545F52 
 18126      414E4434 
 18126      385F4144 
 18126      44287074 
 18127 a0b4 642900   		.ascii	"d)\000"
 18128              	.LASF505:
 18129 a0b7 5F5F6E65 		.ascii	"__need_wint_t\000"
 18129      65645F77 
 18129      696E745F 
 18129      7400
 18130              	.LASF1688:
 18131 a0c5 4353425F 		.ascii	"CSB_STATE_T\000"
 18131      53544154 
 18131      455F5400 
 18132              	.LASF963:
 18133 a0d1 5F43414E 		.ascii	"_CAN_LIBRARY_CURRENT_SENSOR_H \000"
 18133      5F4C4942 
 18133      52415259 
 18133      5F435552 
 18133      52454E54 
 18134              	.LASF884:
 18135 a0f0 424D535F 		.ascii	"BMS_CSB_SWITCH__id 1536\000"
 18135      4353425F 
 18135      53574954 
 18135      43485F5F 
 18135      69642031 
 18136              	.LASF1756:
 18137 a108 636F6E5F 		.ascii	"con_output\000"
 18137      6F757470 
 18137      757400
 18138              	.LASF1340:
 18139 a113 57574454 		.ascii	"WWDT_WDMOD_WDRESET ((uint32_t) (1 << 1))\000"
ARM GAS  /var/folders/z0/6xlwn_996xz3mwq1cgzkbq4r0000gp/T//ccBgBTlB.s 			page 439


 18139      5F57444D 
 18139      4F445F57 
 18139      44524553 
 18139      45542028 
 18140              	.LASF624:
 18141 a13c 5F5F616C 		.ascii	"__alloc_align(x) __attribute__((__alloc_align__(x))"
 18141      6C6F635F 
 18141      616C6967 
 18141      6E287829 
 18141      205F5F61 
 18142 a16f 2900     		.ascii	")\000"
 18143              	.LASF96:
 18144 a171 5F5F494E 		.ascii	"__INT16_C(c) c\000"
 18144      5431365F 
 18144      43286329 
 18144      206300
 18145              	.LASF805:
 18146 a180 5349475F 		.ascii	"SIG_ATOMIC_MIN (-__STDINT_EXP(INT_MAX) - 1)\000"
 18146      41544F4D 
 18146      49435F4D 
 18146      494E2028 
 18146      2D5F5F53 
 18147              	.LASF1414:
 18148 a1ac 4932435F 		.ascii	"I2C_CON_STA (1UL << 5)\000"
 18148      434F4E5F 
 18148      53544120 
 18148      2831554C 
 18148      203C3C20 
 18149              	.LASF543:
 18150 a1c3 5F524545 		.ascii	"_REENT_MP_P5S(ptr) ((ptr)->_p5s)\000"
 18150      4E545F4D 
 18150      505F5035 
 18150      53287074 
 18150      72292028 
 18151              	.LASF575:
 18152 a1e4 5F5F6174 		.ascii	"__attribute_format_strfmon__(a,b) \000"
 18152      74726962 
 18152      7574655F 
 18152      666F726D 
 18152      61745F73 
 18153              	.LASF289:
 18154 a207 5F5F5341 		.ascii	"__SA_FBIT__ 15\000"
 18154      5F464249 
 18154      545F5F20 
 18154      313500
 18155              	.LASF1043:
 18156 a216 5343425F 		.ascii	"SCB_AIRCR_SYSRESETREQ_Pos 2\000"
 18156      41495243 
 18156      525F5359 
 18156      53524553 
 18156      45545245 
 18157              	.LASF1574:
 18158 a232 6C6F6E67 		.ascii	"long long unsigned int\000"
 18158      206C6F6E 
 18158      6720756E 
 18158      7369676E 
 18158      65642069 
ARM GAS  /var/folders/z0/6xlwn_996xz3mwq1cgzkbq4r0000gp/T//ccBgBTlB.s 			page 440


 18159              	.LASF17:
 18160 a249 5F5F5349 		.ascii	"__SIZEOF_SHORT__ 2\000"
 18160      5A454F46 
 18160      5F53484F 
 18160      52545F5F 
 18160      203200
 18161              	.LASF1742:
 18162 a25c 636F6E66 		.ascii	"configloc\000"
 18162      69676C6F 
 18162      6300
 18163              	.LASF1773:
 18164 a266 6E617267 		.ascii	"nargs\000"
 18164      7300
 18165              	.LASF712:
 18166 a26c 5F5F6861 		.ascii	"__have_long32 1\000"
 18166      76655F6C 
 18166      6F6E6733 
 18166      32203100 
 18167              	.LASF1412:
 18168 a27c 4932435F 		.ascii	"I2C_CON_SI (1UL << 3)\000"
 18168      434F4E5F 
 18168      53492028 
 18168      31554C20 
 18168      3C3C2033 
 18169              	.LASF1657:
 18170 a292 4353425F 		.ascii	"CSB_CHARGE_MODE_T\000"
 18170      43484152 
 18170      47455F4D 
 18170      4F44455F 
 18170      5400
 18171              	.LASF89:
 18172 a2a4 5F5F5549 		.ascii	"__UINT8_MAX__ 0xff\000"
 18172      4E54385F 
 18172      4D41585F 
 18172      5F203078 
 18172      666600
 18173              	.LASF1690:
 18174 a2b7 435F5345 		.ascii	"C_SET\000"
 18174      5400
 18175              	.LASF1329:
 18176 a2bd 55415254 		.ascii	"UART_TER2_TXEN (1 << 0)\000"
 18176      5F544552 
 18176      325F5458 
 18176      454E2028 
 18176      31203C3C 
 18177              	.LASF839:
 18178 a2d5 4B45595F 		.ascii	"KEY_ETX 3\000"
 18178      45545820 
 18178      3300
 18179              	.LASF1041:
 18180 a2df 5343425F 		.ascii	"SCB_AIRCR_ENDIANESS_Pos 15\000"
 18180      41495243 
 18180      525F454E 
 18180      4449414E 
 18180      4553535F 
 18181              	.LASF1411:
 18182 a2fa 4932435F 		.ascii	"I2C_CON_AA (1UL << 2)\000"
ARM GAS  /var/folders/z0/6xlwn_996xz3mwq1cgzkbq4r0000gp/T//ccBgBTlB.s 			page 441


 18182      434F4E5F 
 18182      41412028 
 18182      31554C20 
 18182      3C3C2032 
 18183              	.LASF1514:
 18184 a310 43414E5F 		.ascii	"CAN_SDOREQ_HANDLED_NOSEND 2\000"
 18184      53444F52 
 18184      45515F48 
 18184      414E444C 
 18184      45445F4E 
 18185              	.LASF1696:
 18186 a32c 4E554D43 		.ascii	"NUMCOMMANDS\000"
 18186      4F4D4D41 
 18186      4E445300 
 18187              	.LASF1718:
 18188 a338 524F4C5F 		.ascii	"ROL_total_num_cells\000"
 18188      746F7461 
 18188      6C5F6E75 
 18188      6D5F6365 
 18188      6C6C7300 
 18189              	.LASF1216:
 18190 a34c 54494D45 		.ascii	"TIMER_CAP_FALLING(n) (_BIT((((n) * 3) + 1)))\000"
 18190      525F4341 
 18190      505F4641 
 18190      4C4C494E 
 18190      47286E29 
 18191              	.LASF555:
 18192 a379 5F524545 		.ascii	"_REENT_WCRTOMB_STATE(ptr) ((ptr)->_new._reent._wcrt"
 18192      4E545F57 
 18192      4352544F 
 18192      4D425F53 
 18192      54415445 
 18193 a3ac 6F6D625F 		.ascii	"omb_state)\000"
 18193      73746174 
 18193      652900
 18194              	.LASF183:
 18195 a3b7 5F5F4445 		.ascii	"__DEC128_MIN__ 1E-6143DL\000"
 18195      43313238 
 18195      5F4D494E 
 18195      5F5F2031 
 18195      452D3631 
 18196              	.LASF583:
 18197 a3d0 5F5F4245 		.ascii	"__BEGIN_DECLS \000"
 18197      47494E5F 
 18197      4445434C 
 18197      532000
 18198              	.LASF1513:
 18199 a3df 43414E5F 		.ascii	"CAN_SDOREQ_HANDLED_SEND 1\000"
 18199      53444F52 
 18199      45515F48 
 18199      414E444C 
 18199      45445F53 
 18200              	.LASF1408:
 18201 a3f9 4932435F 		.ascii	"I2C_I2CONCLR_STOC ((1 << 4))\000"
 18201      4932434F 
 18201      4E434C52 
 18201      5F53544F 
ARM GAS  /var/folders/z0/6xlwn_996xz3mwq1cgzkbq4r0000gp/T//ccBgBTlB.s 			page 442


 18201      43202828 
 18202              	.LASF515:
 18203 a416 5F524545 		.ascii	"_REENT_SMALL_CHECK_INIT(ptr) \000"
 18203      4E545F53 
 18203      4D414C4C 
 18203      5F434845 
 18203      434B5F49 
 18204              	.LASF118:
 18205 a434 5F5F5549 		.ascii	"__UINTPTR_MAX__ 0xffffffffU\000"
 18205      4E545054 
 18205      525F4D41 
 18205      585F5F20 
 18205      30786666 
 18206              	.LASF1627:
 18207 a450 7061636B 		.ascii	"pack_name\000"
 18207      5F6E616D 
 18207      6500
 18208              	.LASF634:
 18209 a45a 5F5F6E6F 		.ascii	"__noinline __attribute__ ((__noinline__))\000"
 18209      696E6C69 
 18209      6E65205F 
 18209      5F617474 
 18209      72696275 
 18210              	.LASF1167:
 18211 a484 494F434F 		.ascii	"IOCON_FUNC4 0x4\000"
 18211      4E5F4655 
 18211      4E433420 
 18211      30783400 
 18212              	.LASF1717:
 18213 a494 524F4C5F 		.ascii	"ROL_state\000"
 18213      73746174 
 18213      6500
 18214              	.LASF907:
 18215 a49e 5F5F5F5F 		.ascii	"____DASH_REQUEST__TYPE__RTD_ENABLE 1\000"
 18215      44415348 
 18215      5F524551 
 18215      55455354 
 18215      5F5F5459 
 18216              	.LASF1783:
 18217 a4c3 426F6172 		.ascii	"Board_Println\000"
 18217      645F5072 
 18217      696E746C 
 18217      6E00
 18218              	.LASF1544:
 18219 a4d1 4D593138 		.ascii	"MY18_MODULE_CELL_COUNT 12\000"
 18219      5F4D4F44 
 18219      554C455F 
 18219      43454C4C 
 18219      5F434F55 
 18220              	.LASF1556:
 18221 a4eb 4D593136 		.ascii	"MY16_MODULE_CELL_COUNT 12\000"
 18221      5F4D4F44 
 18221      554C455F 
 18221      43454C4C 
 18221      5F434F55 
 18222              	.LASF936:
 18223 a505 46524F4E 		.ascii	"FRONTCANNODEOUTPUT__id 208\000"
ARM GAS  /var/folders/z0/6xlwn_996xz3mwq1cgzkbq4r0000gp/T//ccBgBTlB.s 			page 443


 18223      5443414E 
 18223      4E4F4445 
 18223      4F555450 
 18223      55545F5F 
 18224              	.LASF924:
 18225 a520 5F5F5F5F 		.ascii	"____BMSERRORS__TYPE__CELL_OVER_VOLTAGE 6\000"
 18225      424D5345 
 18225      52524F52 
 18225      535F5F54 
 18225      5950455F 
 18226              	.LASF191:
 18227 a549 5F5F5346 		.ascii	"__SFRACT_EPSILON__ 0x1P-7HR\000"
 18227      52414354 
 18227      5F455053 
 18227      494C4F4E 
 18227      5F5F2030 
 18228              	.LASF11:
 18229 a565 5F5F4154 		.ascii	"__ATOMIC_CONSUME 1\000"
 18229      4F4D4943 
 18229      5F434F4E 
 18229      53554D45 
 18229      203100
 18230              	.LASF618:
 18231 a578 5F5F756E 		.ascii	"__unused __attribute__((__unused__))\000"
 18231      75736564 
 18231      205F5F61 
 18231      74747269 
 18231      62757465 
 18232              	.LASF132:
 18233 a59d 5F5F464C 		.ascii	"__FLT_MIN__ 1.1754943508222875e-38F\000"
 18233      545F4D49 
 18233      4E5F5F20 
 18233      312E3137 
 18233      35343934 
 18234              	.LASF48:
 18235 a5c1 5F5F494E 		.ascii	"__INT_LEAST16_TYPE__ short int\000"
 18235      545F4C45 
 18235      41535431 
 18235      365F5459 
 18235      50455F5F 
 18236              	.LASF54:
 18237 a5e0 5F5F5549 		.ascii	"__UINT_LEAST64_TYPE__ long long unsigned int\000"
 18237      4E545F4C 
 18237      45415354 
 18237      36345F54 
 18237      5950455F 
 18238              	.LASF674:
 18239 a60d 5F5F6C6F 		.ascii	"__locks_exclusive(...) __lock_annotate(exclusive_lo"
 18239      636B735F 
 18239      6578636C 
 18239      75736976 
 18239      65282E2E 
 18240 a640 636B5F66 		.ascii	"ck_function(__VA_ARGS__))\000"
 18240      756E6374 
 18240      696F6E28 
 18240      5F5F5641 
 18240      5F415247 
ARM GAS  /var/folders/z0/6xlwn_996xz3mwq1cgzkbq4r0000gp/T//ccBgBTlB.s 			page 444


 18241              	.LASF192:
 18242 a65a 5F5F5553 		.ascii	"__USFRACT_FBIT__ 8\000"
 18242      46524143 
 18242      545F4642 
 18242      49545F5F 
 18242      203800
 18243              	.LASF1506:
 18244 a66d 4F445F45 		.ascii	"OD_EXP_RO 0x10\000"
 18244      58505F52 
 18244      4F203078 
 18244      313000
 18245              	.LASF1205:
 18246 a67c 46554E43 		.ascii	"FUNC7 0x7\000"
 18246      37203078 
 18246      3700
 18247              	.LASF1542:
 18248 a686 4D593138 		.ascii	"MY18_CV_MIN_CURRENT_ms 60000\000"
 18248      5F43565F 
 18248      4D494E5F 
 18248      43555252 
 18248      454E545F 
 18249              	.LASF1397:
 18250 a6a3 5245545F 		.ascii	"RET_SLAVE_RX 5\000"
 18250      534C4156 
 18250      455F5258 
 18250      203500
 18251              	.LASF1450:
 18252 a6b2 4932435F 		.ascii	"I2C_I2DAT_IDLE_CHAR (0xFF)\000"
 18252      49324441 
 18252      545F4944 
 18252      4C455F43 
 18252      48415220 
 18253              	.LASF1336:
 18254 a6cd 55415254 		.ascii	"UART_SYNCCTRL_CCCLR (1 << 6)\000"
 18254      5F53594E 
 18254      43435452 
 18254      4C5F4343 
 18254      434C5220 
 18255              	.LASF311:
 18256 a6ea 5F5F4743 		.ascii	"__GCC_ATOMIC_WCHAR_T_LOCK_FREE 1\000"
 18256      435F4154 
 18256      4F4D4943 
 18256      5F574348 
 18256      41525F54 
 18257              	.LASF234:
 18258 a70b 5F5F5553 		.ascii	"__USACCUM_MIN__ 0.0UHK\000"
 18258      41434355 
 18258      4D5F4D49 
 18258      4E5F5F20 
 18258      302E3055 
 18259              	.LASF217:
 18260 a722 5F5F4C4C 		.ascii	"__LLFRACT_FBIT__ 63\000"
 18260      46524143 
 18260      545F4642 
 18260      49545F5F 
 18260      20363300 
 18261              	.LASF1077:
ARM GAS  /var/folders/z0/6xlwn_996xz3mwq1cgzkbq4r0000gp/T//ccBgBTlB.s 			page 445


 18262 a736 5343535F 		.ascii	"SCS_BASE (0xE000E000UL)\000"
 18262      42415345 
 18262      20283078 
 18262      45303030 
 18262      45303030 
 18263              	.LASF322:
 18264 a74e 5F5F5349 		.ascii	"__SIZEOF_PTRDIFF_T__ 4\000"
 18264      5A454F46 
 18264      5F505452 
 18264      44494646 
 18264      5F545F5F 
 18265              	.LASF865:
 18266 a765 4B45595F 		.ascii	"KEY_GS 29\000"
 18266      47532032 
 18266      3900
 18267              	.LASF641:
 18268 a76f 5F5F7265 		.ascii	"__restrict \000"
 18268      73747269 
 18268      63742000 
 18269              	.LASF1094:
 18270 a77b 4C50435F 		.ascii	"LPC_ADC_BASE 0x4001C000\000"
 18270      4144435F 
 18270      42415345 
 18270      20307834 
 18270      30303143 
 18271              	.LASF546:
 18272 a793 5F524545 		.ascii	"_REENT_TM(ptr) (&(ptr)->_new._reent._localtime_buf)"
 18272      4E545F54 
 18272      4D287074 
 18272      72292028 
 18272      26287074 
 18273 a7c6 00       		.ascii	"\000"
 18274              	.LASF1584:
 18275 a7c7 43414E5F 		.ascii	"CAN_BMSERRORS_CONTROL_FLOW\000"
 18275      424D5345 
 18275      52524F52 
 18275      535F434F 
 18275      4E54524F 
 18276              	.LASF480:
 18277 a7e2 5F5F5F69 		.ascii	"___int32_t_defined 1\000"
 18277      6E743332 
 18277      5F745F64 
 18277      6566696E 
 18277      65642031 
 18278              	.LASF1562:
 18279 a7f7 53534D5F 		.ascii	"SSM_H \000"
 18279      482000
 18280              	.LASF417:
 18281 a7fe 5F415454 		.ascii	"_ATTRIBUTE(attrs) __attribute__ (attrs)\000"
 18281      52494255 
 18281      54452861 
 18281      74747273 
 18281      29205F5F 
 18282              	.LASF1539:
 18283 a826 4D593138 		.ascii	"MY18_BALANCE_OFF_THRESHOLD_mV 1\000"
 18283      5F42414C 
 18283      414E4345 
ARM GAS  /var/folders/z0/6xlwn_996xz3mwq1cgzkbq4r0000gp/T//ccBgBTlB.s 			page 446


 18283      5F4F4646 
 18283      5F544852 
 18284              	.LASF720:
 18285 a846 63686172 		.ascii	"char +0\000"
 18285      202B3000 
 18286              	.LASF1175:
 18287 a84e 494F434F 		.ascii	"IOCON_HYS_EN (0x1 << 5)\000"
 18287      4E5F4859 
 18287      535F454E 
 18287      20283078 
 18287      31203C3C 
 18288              	.LASF747:
 18289 a866 5F55494E 		.ascii	"_UINT32_T_DECLARED \000"
 18289      5433325F 
 18289      545F4445 
 18289      434C4152 
 18289      45442000 
 18290              	.LASF378:
 18291 a87a 5F415446 		.ascii	"_ATFILE_SOURCE\000"
 18291      494C455F 
 18291      534F5552 
 18291      434500
 18292              	.LASF1672:
 18293 a889 636F6E74 		.ascii	"contactors_closed\000"
 18293      6163746F 
 18293      72735F63 
 18293      6C6F7365 
 18293      6400
 18294              	.LASF1131:
 18295 a89b 504D555F 		.ascii	"PMU_PCON_PM_DEEPPOWERDOWN (0x2)\000"
 18295      50434F4E 
 18295      5F504D5F 
 18295      44454550 
 18295      504F5745 
 18296              	.LASF1354:
 18297 a8bb 5353505F 		.ascii	"SSP_CR0_BITMASK ((uint32_t) (0xFFFF))\000"
 18297      4352305F 
 18297      4249544D 
 18297      41534B20 
 18297      28287569 
 18298              	.LASF1177:
 18299 a8e1 494F434F 		.ascii	"IOCON_ADMODE_EN (0x0 << 7)\000"
 18299      4E5F4144 
 18299      4D4F4445 
 18299      5F454E20 
 18299      28307830 
 18300              	.LASF645:
 18301 a8fc 5F5F6578 		.ascii	"__exported __attribute__((__visibility__(\"default\""
 18301      706F7274 
 18301      6564205F 
 18301      5F617474 
 18301      72696275 
 18302 a92e 29292900 		.ascii	")))\000"
 18303              	.LASF385:
 18304 a932 5F5F4D49 		.ascii	"__MISC_VISIBLE 1\000"
 18304      53435F56 
 18304      49534942 
ARM GAS  /var/folders/z0/6xlwn_996xz3mwq1cgzkbq4r0000gp/T//ccBgBTlB.s 			page 447


 18304      4C452031 
 18304      00
 18305              	.LASF1630:
 18306 a943 656C636F 		.ascii	"elcon_output_voltage\000"
 18306      6E5F6F75 
 18306      74707574 
 18306      5F766F6C 
 18306      74616765 
 18307              	.LASF1081:
 18308 a958 53434220 		.ascii	"SCB ((SCB_Type *) SCB_BASE )\000"
 18308      28285343 
 18308      425F5479 
 18308      7065202A 
 18308      29205343 
 18309              	.LASF732:
 18310 a975 5F5F4641 		.ascii	"__FAST16 \000"
 18310      53543136 
 18310      2000
 18311              	.LASF786:
 18312 a97f 494E545F 		.ascii	"INT_LEAST64_MIN (-__INT_LEAST64_MAX__ - 1)\000"
 18312      4C454153 
 18312      5436345F 
 18312      4D494E20 
 18312      282D5F5F 
 18313              	.LASF1109:
 18314 a9aa 4941505F 		.ascii	"IAP_ENTRY_LOCATION 0X1FFF1FF1\000"
 18314      454E5452 
 18314      595F4C4F 
 18314      43415449 
 18314      4F4E2030 
 18315              	.LASF1749:
 18316 a9c8 666F756E 		.ascii	"foundynloc\000"
 18316      64796E6C 
 18316      6F6300
 18317              	.LASF1289:
 18318 a9d3 55415254 		.ascii	"UART_LSR_TXFE (1 << 8)\000"
 18318      5F4C5352 
 18318      5F545846 
 18318      45202831 
 18318      203C3C20 
 18319              	.LASF1526:
 18320 a9ea 4353425F 		.ascii	"CSB_BMS_MODE_PERIOD 1000\000"
 18320      424D535F 
 18320      4D4F4445 
 18320      5F504552 
 18320      494F4420 
 18321              	.LASF806:
 18322 aa03 5349475F 		.ascii	"SIG_ATOMIC_MAX (__STDINT_EXP(INT_MAX))\000"
 18322      41544F4D 
 18322      49435F4D 
 18322      41582028 
 18322      5F5F5354 
 18323              	.LASF606:
 18324 aa2a 5F5F4343 		.ascii	"__CC_SUPPORTS_DYNAMIC_ARRAY_INIT 1\000"
 18324      5F535550 
 18324      504F5254 
 18324      535F4459 
ARM GAS  /var/folders/z0/6xlwn_996xz3mwq1cgzkbq4r0000gp/T//ccBgBTlB.s 			page 448


 18324      4E414D49 
 18325              	.LASF1119:
 18326 aa4d 4C50435F 		.ascii	"LPC_PMU ((LPC_PMU_T *) LPC_PMU_BASE)\000"
 18326      504D5520 
 18326      28284C50 
 18326      435F504D 
 18326      555F5420 
 18327              	.LASF157:
 18328 aa72 5F5F4C44 		.ascii	"__LDBL_MAX_10_EXP__ 308\000"
 18328      424C5F4D 
 18328      41585F31 
 18328      305F4558 
 18328      505F5F20 
 18329              	.LASF824:
 18330 aa8a 5F4D4943 		.ascii	"_MICRORL_CONFIG_H_ \000"
 18330      524F524C 
 18330      5F434F4E 
 18330      4649475F 
 18330      485F2000 
 18331              	.LASF1325:
 18332 aa9e 55415254 		.ascii	"UART_FDR_DIVADDVAL(n) (n & 0x0F)\000"
 18332      5F464452 
 18332      5F444956 
 18332      41444456 
 18332      414C286E 
 18333              	.LASF393:
 18334 aabf 5F5F494D 		.ascii	"__IMPORT \000"
 18334      504F5254 
 18334      2000
 18335              	.LASF375:
 18336 aac9 5F504F53 		.ascii	"_POSIX_SOURCE 1\000"
 18336      49585F53 
 18336      4F555243 
 18336      45203100 
 18337              	.LASF791:
 18338 aad9 55494E54 		.ascii	"UINT_FAST8_MAX (__UINT_FAST8_MAX__)\000"
 18338      5F464153 
 18338      54385F4D 
 18338      41582028 
 18338      5F5F5549 
 18339              	.LASF1277:
 18340 aafd 55415254 		.ascii	"UART_MCR_LOOPB_EN (1 << 4)\000"
 18340      5F4D4352 
 18340      5F4C4F4F 
 18340      50425F45 
 18340      4E202831 
 18341              	.LASF1463:
 18342 ab18 4932435F 		.ascii	"I2C_SETUP_STATUS_DONE (1 << 10)\000"
 18342      53455455 
 18342      505F5354 
 18342      41545553 
 18342      5F444F4E 
 18343              	.LASF42:
 18344 ab38 5F5F494E 		.ascii	"__INT64_TYPE__ long long int\000"
 18344      5436345F 
 18344      54595045 
 18344      5F5F206C 
ARM GAS  /var/folders/z0/6xlwn_996xz3mwq1cgzkbq4r0000gp/T//ccBgBTlB.s 			page 449


 18344      6F6E6720 
 18345              	.LASF293:
 18346 ab55 5F5F5441 		.ascii	"__TA_FBIT__ 63\000"
 18346      5F464249 
 18346      545F5F20 
 18346      363300
 18347              	.LASF170:
 18348 ab64 5F5F4445 		.ascii	"__DEC32_MAX__ 9.999999E96DF\000"
 18348      4333325F 
 18348      4D41585F 
 18348      5F20392E 
 18348      39393939 
 18349              	.LASF1711:
 18350 ab80 52574C5F 		.ascii	"RWL_cc_charge_current_mA\000"
 18350      63635F63 
 18350      68617267 
 18350      655F6375 
 18350      7272656E 
 18351              	.LASF704:
 18352 ab99 626F6F6C 		.ascii	"bool _Bool\000"
 18352      205F426F 
 18352      6F6C00
 18353              	.LASF431:
 18354 aba4 5F5F5F69 		.ascii	"___int_ptrdiff_t_h \000"
 18354      6E745F70 
 18354      74726469 
 18354      66665F74 
 18354      5F682000 
 18355              	.LASF497:
 18356 abb8 5F5F6C6F 		.ascii	"__lock_try_acquire_recursive(lock) (_CAST_VOID 0)\000"
 18356      636B5F74 
 18356      72795F61 
 18356      63717569 
 18356      72655F72 
 18357              	.LASF53:
 18358 abea 5F5F5549 		.ascii	"__UINT_LEAST32_TYPE__ long unsigned int\000"
 18358      4E545F4C 
 18358      45415354 
 18358      33325F54 
 18358      5950455F 
 18359              	.LASF420:
 18360 ac12 5F4E4F49 		.ascii	"_NOINLINE_STATIC _NOINLINE static\000"
 18360      4E4C494E 
 18360      455F5354 
 18360      41544943 
 18360      205F4E4F 
 18361              	.LASF1163:
 18362 ac34 494F434F 		.ascii	"IOCON_FUNC0 0x0\000"
 18362      4E5F4655 
 18362      4E433020 
 18362      30783000 
 18363              	.LASF415:
 18364 ac44 5F4C4F4E 		.ascii	"_LONG_DOUBLE long double\000"
 18364      475F444F 
 18364      55424C45 
 18364      206C6F6E 
 18364      6720646F 
ARM GAS  /var/folders/z0/6xlwn_996xz3mwq1cgzkbq4r0000gp/T//ccBgBTlB.s 			page 450


 18365              	.LASF619:
 18366 ac5d 5F5F7573 		.ascii	"__used __attribute__((__used__))\000"
 18366      6564205F 
 18366      5F617474 
 18366      72696275 
 18366      74655F5F 
 18367              	.LASF1209:
 18368 ac7e 54494D45 		.ascii	"TIMER_CAP_INT(n) (_BIT((((n) & 0x0F) + 4)))\000"
 18368      525F4341 
 18368      505F494E 
 18368      54286E29 
 18368      20285F42 
 18369              	.LASF288:
 18370 acaa 5F5F4841 		.ascii	"__HA_IBIT__ 8\000"
 18370      5F494249 
 18370      545F5F20 
 18370      3800
 18371              	.LASF1294:
 18372 acb8 55415254 		.ascii	"UART_MSR_LO2HI_RI (1 << 2)\000"
 18372      5F4D5352 
 18372      5F4C4F32 
 18372      48495F52 
 18372      49202831 
 18373              	.LASF294:
 18374 acd3 5F5F5441 		.ascii	"__TA_IBIT__ 64\000"
 18374      5F494249 
 18374      545F5F20 
 18374      363400
 18375              	.LASF1636:
 18376 ace2 656C636F 		.ascii	"elcon_is_comms_bad\000"
 18376      6E5F6973 
 18376      5F636F6D 
 18376      6D735F62 
 18376      616400
 18377              	.LASF1154:
 18378 acf5 53595343 		.ascii	"SYSCTL_POWERDOWN_FLASH_PD (1 << 2)\000"
 18378      544C5F50 
 18378      4F574552 
 18378      444F574E 
 18378      5F464C41 
 18379              	.LASF1543:
 18380 ad18 4D593138 		.ascii	"MY18_CC_CELL_VOLTAGE_mV 4300\000"
 18380      5F43435F 
 18380      43454C4C 
 18380      5F564F4C 
 18380      54414745 
 18381              	.LASF9:
 18382 ad35 5F5F4154 		.ascii	"__ATOMIC_RELEASE 3\000"
 18382      4F4D4943 
 18382      5F52454C 
 18382      45415345 
 18382      203300
 18383              	.LASF270:
 18384 ad48 5F5F4851 		.ascii	"__HQ_IBIT__ 0\000"
 18384      5F494249 
 18384      545F5F20 
 18384      3000
ARM GAS  /var/folders/z0/6xlwn_996xz3mwq1cgzkbq4r0000gp/T//ccBgBTlB.s 			page 451


 18385              	.LASF755:
 18386 ad56 5F5F696E 		.ascii	"__int_least16_t_defined 1\000"
 18386      745F6C65 
 18386      61737431 
 18386      365F745F 
 18386      64656669 
 18387              	.LASF1259:
 18388 ad70 55415254 		.ascii	"UART_LCR_WLEN5 (0 << 0)\000"
 18388      5F4C4352 
 18388      5F574C45 
 18388      4E352028 
 18388      30203C3C 
 18389              	.LASF1573:
 18390 ad88 6C6F6E67 		.ascii	"long long int\000"
 18390      206C6F6E 
 18390      6720696E 
 18390      7400
 18391              	.LASF1500:
 18392 ad96 53444F5F 		.ascii	"SDO_ABORT_UNKNOWNSUB 0x06090011UL\000"
 18392      41424F52 
 18392      545F554E 
 18392      4B4E4F57 
 18392      4E535542 
 18393              	.LASF121:
 18394 adb8 5F5F464C 		.ascii	"__FLT_EVAL_METHOD__ 0\000"
 18394      545F4556 
 18394      414C5F4D 
 18394      4554484F 
 18394      445F5F20 
 18395              	.LASF1478:
 18396 adce 43414E5F 		.ascii	"CAN_ERROR_WARN 0x00000002UL\000"
 18396      4552524F 
 18396      525F5741 
 18396      524E2030 
 18396      78303030 
 18397              	.LASF1507:
 18398 adea 4F445F45 		.ascii	"OD_EXP_WO 0x20\000"
 18398      58505F57 
 18398      4F203078 
 18398      323000
 18399              	.LASF1023:
 18400 adf9 5343425F 		.ascii	"SCB_ICSR_PENDSVCLR_Pos 27\000"
 18400      49435352 
 18400      5F50454E 
 18400      44535643 
 18400      4C525F50 
 18401              	.LASF666:
 18402 ae13 5F5F434F 		.ascii	"__COPYRIGHT(s) struct __hack\000"
 18402      50595249 
 18402      47485428 
 18402      73292073 
 18402      74727563 
 18403              	.LASF365:
 18404 ae30 5F574944 		.ascii	"_WIDE_ORIENT 1\000"
 18404      455F4F52 
 18404      49454E54 
 18404      203100
ARM GAS  /var/folders/z0/6xlwn_996xz3mwq1cgzkbq4r0000gp/T//ccBgBTlB.s 			page 452


 18405              	.LASF697:
 18406 ae3f 45584954 		.ascii	"EXIT_FAILURE 1\000"
 18406      5F464149 
 18406      4C555245 
 18406      203100
 18407              	.LASF717:
 18408 ae4e 6C6F6E67 		.ascii	"long\000"
 18408      00
 18409              	.LASF295:
 18410 ae53 5F5F5548 		.ascii	"__UHA_FBIT__ 8\000"
 18410      415F4642 
 18410      49545F5F 
 18410      203800
 18411              	.LASF1582:
 18412 ae62 43414E5F 		.ascii	"CAN_BMSERRORS_LTC6804_CVST\000"
 18412      424D5345 
 18412      52524F52 
 18412      535F4C54 
 18412      43363830 
 18413              	.LASF226:
 18414 ae7d 5F5F554C 		.ascii	"__ULLFRACT_EPSILON__ 0x1P-64ULLR\000"
 18414      4C465241 
 18414      43545F45 
 18414      5053494C 
 18414      4F4E5F5F 
 18415              	.LASF186:
 18416 ae9e 5F5F4445 		.ascii	"__DEC128_SUBNORMAL_MIN__ 0.000000000000000000000000"
 18416      43313238 
 18416      5F535542 
 18416      4E4F524D 
 18416      414C5F4D 
 18417 aed1 30303030 		.ascii	"000000001E-6143DL\000"
 18417      30303030 
 18417      31452D36 
 18417      31343344 
 18417      4C00
 18418              	.LASF1018:
 18419 aee3 5343425F 		.ascii	"SCB_CPUID_REVISION_Msk (0xFUL << SCB_CPUID_REVISION"
 18419      43505549 
 18419      445F5245 
 18419      56495349 
 18419      4F4E5F4D 
 18420 af16 5F506F73 		.ascii	"_Pos)\000"
 18420      2900
 18421              	.LASF1365:
 18422 af1c 5353505F 		.ascii	"SSP_CPHA_FIRST SSP_CR0_CPHA_FIRST\000"
 18422      43504841 
 18422      5F464952 
 18422      53542053 
 18422      53505F43 
 18423              	.LASF1486:
 18424 af3e 43414E5F 		.ascii	"CAN_MSGOBJ_STD 0x00000000UL\000"
 18424      4D53474F 
 18424      424A5F53 
 18424      54442030 
 18424      78303030 
 18425              	.LASF499:
ARM GAS  /var/folders/z0/6xlwn_996xz3mwq1cgzkbq4r0000gp/T//ccBgBTlB.s 			page 453


 18426 af5a 5F5F6C6F 		.ascii	"__lock_release_recursive(lock) (_CAST_VOID 0)\000"
 18426      636B5F72 
 18426      656C6561 
 18426      73655F72 
 18426      65637572 
 18427              	.LASF738:
 18428 af88 5F5F4C45 		.ascii	"__LEAST64 \"ll\"\000"
 18428      41535436 
 18428      3420226C 
 18428      6C2200
 18429              	.LASF1171:
 18430 af97 494F434F 		.ascii	"IOCON_MODE_INACT (0x0 << 3)\000"
 18430      4E5F4D4F 
 18430      44455F49 
 18430      4E414354 
 18430      20283078 
 18431              	.LASF1244:
 18432 afb3 55415254 		.ascii	"UART_IIR_INTID_RDA (2 << 1)\000"
 18432      5F494952 
 18432      5F494E54 
 18432      49445F52 
 18432      44412028 
 18433              	.LASF1136:
 18434 afcf 53595343 		.ascii	"SYSCTL_RST_POR (1 << 0)\000"
 18434      544C5F52 
 18434      53545F50 
 18434      4F522028 
 18434      31203C3C 
 18435              	.LASF1435:
 18436 afe7 4932435F 		.ascii	"I2C_I2STAT_S_RX_ARB_LOST_M_SLA ((0x68))\000"
 18436      49325354 
 18436      41545F53 
 18436      5F52585F 
 18436      4152425F 
 18437              	.LASF1331:
 18438 b00f 55415254 		.ascii	"UART_SYNCCTRL_CSRC_MASTER (1 << 1)\000"
 18438      5F53594E 
 18438      43435452 
 18438      4C5F4353 
 18438      52435F4D 
 18439              	.LASF1164:
 18440 b032 494F434F 		.ascii	"IOCON_FUNC1 0x1\000"
 18440      4E5F4655 
 18440      4E433120 
 18440      30783100 
 18441              	.LASF1187:
 18442 b042 4D445F42 		.ascii	"MD_BUK (0x3 << 3)\000"
 18442      554B2028 
 18442      30783320 
 18442      3C3C2033 
 18442      2900
 18443              	.LASF1516:
 18444 b054 43414E5F 		.ascii	"CAN_SDOSEG_OPEN 1\000"
 18444      53444F53 
 18444      45475F4F 
 18444      50454E20 
 18444      3100
ARM GAS  /var/folders/z0/6xlwn_996xz3mwq1cgzkbq4r0000gp/T//ccBgBTlB.s 			page 454


 18445              	.LASF775:
 18446 b066 494E545F 		.ascii	"INT_LEAST16_MAX (__INT_LEAST16_MAX__)\000"
 18446      4C454153 
 18446      5431365F 
 18446      4D415820 
 18446      285F5F49 
 18447              	.LASF1318:
 18448 b08c 55415254 		.ascii	"UART_ICR_BITMASK (0x3F)\000"
 18448      5F494352 
 18448      5F424954 
 18448      4D41534B 
 18448      20283078 
 18449              	.LASF1729:
 18450 b0a4 636F6E66 		.ascii	"config_loc_label_t\000"
 18450      69675F6C 
 18450      6F635F6C 
 18450      6162656C 
 18450      5F7400
 18451              	.LASF90:
 18452 b0b7 5F5F5549 		.ascii	"__UINT16_MAX__ 0xffff\000"
 18452      4E543136 
 18452      5F4D4158 
 18452      5F5F2030 
 18452      78666666 
 18453              	.LASF1668:
 18454 b0cd 62616C61 		.ascii	"balance_mV\000"
 18454      6E63655F 
 18454      6D5600
 18455              	.LASF327:
 18456 b0d8 5F5F4152 		.ascii	"__ARM_ARCH 6\000"
 18456      4D5F4152 
 18456      43482036 
 18456      00
 18457              	.LASF203:
 18458 b0e5 5F5F5546 		.ascii	"__UFRACT_IBIT__ 0\000"
 18458      52414354 
 18458      5F494249 
 18458      545F5F20 
 18458      3000
 18459              	.LASF1784:
 18460 b0f7 49735F56 		.ascii	"Is_Valid_Jump\000"
 18460      616C6964 
 18460      5F4A756D 
 18460      7000
 18461              	.LASF176:
 18462 b105 5F5F4445 		.ascii	"__DEC64_MIN__ 1E-383DD\000"
 18462      4336345F 
 18462      4D494E5F 
 18462      5F203145 
 18462      2D333833 
 18463              	.LASF1202:
 18464 b11c 46554E43 		.ascii	"FUNC4 0x4\000"
 18464      34203078 
 18464      3400
 18465              	.LASF558:
 18466 b126 5F524545 		.ascii	"_REENT_SIGNAL_BUF(ptr) ((ptr)->_new._reent._signal_"
 18466      4E545F53 
ARM GAS  /var/folders/z0/6xlwn_996xz3mwq1cgzkbq4r0000gp/T//ccBgBTlB.s 			page 455


 18466      49474E41 
 18466      4C5F4255 
 18466      46287074 
 18467 b159 62756629 		.ascii	"buf)\000"
 18467      00
 18468              	.LASF609:
 18469 b15e 5F5F434F 		.ascii	"__CONCAT(x,y) __CONCAT1(x,y)\000"
 18469      4E434154 
 18469      28782C79 
 18469      29205F5F 
 18469      434F4E43 
 18470              	.LASF151:
 18471 b17b 5F5F4442 		.ascii	"__DBL_HAS_QUIET_NAN__ 1\000"
 18471      4C5F4841 
 18471      535F5155 
 18471      4945545F 
 18471      4E414E5F 
 18472              	.LASF155:
 18473 b193 5F5F4C44 		.ascii	"__LDBL_MIN_10_EXP__ (-307)\000"
 18473      424C5F4D 
 18473      494E5F31 
 18473      305F4558 
 18473      505F5F20 
 18474              	.LASF166:
 18475 b1ae 5F5F4445 		.ascii	"__DEC32_MANT_DIG__ 7\000"
 18475      4333325F 
 18475      4D414E54 
 18475      5F444947 
 18475      5F5F2037 
 18476              	.LASF1705:
 18477 b1c3 52574C5F 		.ascii	"RWL_bal_off_thresh_mV\000"
 18477      62616C5F 
 18477      6F66665F 
 18477      74687265 
 18477      73685F6D 
 18478              	.LASF1144:
 18479 b1d9 53595343 		.ascii	"SYSCTL_SLPWAKE_IRCOUT_PD (1 << 0)\000"
 18479      544C5F53 
 18479      4C505741 
 18479      4B455F49 
 18479      52434F55 
 18480              	.LASF896:
 18481 b1fb 454C434F 		.ascii	"ELCONHEARTBEAT__id 419385573\000"
 18481      4E484541 
 18481      52544245 
 18481      41545F5F 
 18481      69642034 
 18482              	.LASF1609:
 18483 b218 63656C6C 		.ascii	"cell_min_mV\000"
 18483      5F6D696E 
 18483      5F6D5600 
 18484              	.LASF1494:
 18485 b224 53444F5F 		.ascii	"SDO_ABORT_WRITEONLY 0x06010001UL\000"
 18485      41424F52 
 18485      545F5752 
 18485      4954454F 
 18485      4E4C5920 
ARM GAS  /var/folders/z0/6xlwn_996xz3mwq1cgzkbq4r0000gp/T//ccBgBTlB.s 			page 456


 18486              	.LASF979:
 18487 b245 5F424954 		.ascii	"_BITMASK(field_width) ( _BIT(field_width) - 1)\000"
 18487      4D41534B 
 18487      28666965 
 18487      6C645F77 
 18487      69647468 
 18488              	.LASF1103:
 18489 b274 4C50435F 		.ascii	"LPC_CAN0_BASE 0x40050000\000"
 18489      43414E30 
 18489      5F424153 
 18489      45203078 
 18489      34303035 
 18490              	.LASF193:
 18491 b28d 5F5F5553 		.ascii	"__USFRACT_IBIT__ 0\000"
 18491      46524143 
 18491      545F4942 
 18491      49545F5F 
 18491      203000
 18492              	.LASF1064:
 18493 b2a0 53797354 		.ascii	"SysTick_CTRL_TICKINT_Msk (1UL << SysTick_CTRL_TICKI"
 18493      69636B5F 
 18493      4354524C 
 18493      5F544943 
 18493      4B494E54 
 18494 b2d3 4E545F50 		.ascii	"NT_Pos)\000"
 18494      6F732900 
 18495              	.LASF1451:
 18496 b2db 4932435F 		.ascii	"I2C_I2MMCTRL_MM_ENA ((1 << 0))\000"
 18496      49324D4D 
 18496      4354524C 
 18496      5F4D4D5F 
 18496      454E4120 
 18497              	.LASF1193:
 18498 b2fa 4D445F45 		.ascii	"MD_ENFIL (0x1 << 8)\000"
 18498      4E46494C 
 18498      20283078 
 18498      31203C3C 
 18498      20382900 
 18499              	.LASF524:
 18500 b30e 5F524545 		.ascii	"_REENT_ASCTIME_SIZE 26\000"
 18500      4E545F41 
 18500      53435449 
 18500      4D455F53 
 18500      495A4520 
 18501              	.LASF122:
 18502 b325 5F5F4445 		.ascii	"__DEC_EVAL_METHOD__ 2\000"
 18502      435F4556 
 18502      414C5F4D 
 18502      4554484F 
 18502      445F5F20 
 18503              	.LASF164:
 18504 b33b 5F5F4C44 		.ascii	"__LDBL_HAS_INFINITY__ 1\000"
 18504      424C5F48 
 18504      41535F49 
 18504      4E46494E 
 18504      4954595F 
 18505              	.LASF364:
ARM GAS  /var/folders/z0/6xlwn_996xz3mwq1cgzkbq4r0000gp/T//ccBgBTlB.s 			page 457


 18506 b353 5F465345 		.ascii	"_FSEEK_OPTIMIZATION 1\000"
 18506      454B5F4F 
 18506      5054494D 
 18506      495A4154 
 18506      494F4E20 
 18507              	.LASF999:
 18508 b369 5F5F4153 		.ascii	"__ASM __asm\000"
 18508      4D205F5F 
 18508      61736D00 
 18509              	.LASF930:
 18510 b375 5F5F5F5F 		.ascii	"____BMSERRORS__TYPE__EEPROM 4\000"
 18510      424D5345 
 18510      52524F52 
 18510      535F5F54 
 18510      5950455F 
 18511              	.LASF1196:
 18512 b393 4D445F46 		.ascii	"MD_FASTI2C (0x2 << 8)\000"
 18512      41535449 
 18512      32432028 
 18512      30783220 
 18512      3C3C2038 
 18513              	.LASF1348:
 18514 b3a9 5353505F 		.ascii	"SSP_CR0_FRF_MICROWIRE ((uint32_t) (2 << 4))\000"
 18514      4352305F 
 18514      4652465F 
 18514      4D494352 
 18514      4F574952 
 18515              	.LASF828:
 18516 b3d5 5F50524F 		.ascii	"_PROMPT_DEFAULT \"> \"\000"
 18516      4D50545F 
 18516      44454641 
 18516      554C5420 
 18516      223E2022 
 18517              	.LASF1713:
 18518 b3ea 52574C5F 		.ascii	"RWL_cv_charge_current_mA\000"
 18518      63765F63 
 18518      68617267 
 18518      655F6375 
 18518      7272656E 
 18519              	.LASF923:
 18520 b403 5F5F5F5F 		.ascii	"____BMSERRORS__TYPE__OVER_CURRENT 9\000"
 18520      424D5345 
 18520      52524F52 
 18520      535F5F54 
 18520      5950455F 
 18521              	.LASF1373:
 18522 b427 434F4D50 		.ascii	"COMPILE_TIME_ASSERT(pred) switch(0){case 0:case pre"
 18522      494C455F 
 18522      54494D45 
 18522      5F415353 
 18522      45525428 
 18523 b45a 643A3B7D 		.ascii	"d:;}\000"
 18523      00
 18524              	.LASF1517:
 18525 b45f 43414E5F 		.ascii	"CAN_SDOSEG_CLOSE 2\000"
 18525      53444F53 
 18525      45475F43 
ARM GAS  /var/folders/z0/6xlwn_996xz3mwq1cgzkbq4r0000gp/T//ccBgBTlB.s 			page 458


 18525      4C4F5345 
 18525      203200
 18526              	.LASF1727:
 18527 b472 434F4E4C 		.ascii	"CONL_MY16\000"
 18527      5F4D5931 
 18527      3600
 18528              	.LASF1726:
 18529 b47c 434F4E4C 		.ascii	"CONL_MY18\000"
 18529      5F4D5931 
 18529      3800
 18530              	.LASF1624:
 18531 b486 63765F63 		.ascii	"cv_charge_voltage_mV\000"
 18531      68617267 
 18531      655F766F 
 18531      6C746167 
 18531      655F6D56 
 18532              	.LASF939:
 18533 b49b 424D5343 		.ascii	"BMSCELLTEMPS__freq 10\000"
 18533      454C4C54 
 18533      454D5053 
 18533      5F5F6672 
 18533      65712031 
 18534              	.LASF20:
 18535 b4b1 5F5F5349 		.ascii	"__SIZEOF_LONG_DOUBLE__ 8\000"
 18535      5A454F46 
 18535      5F4C4F4E 
 18535      475F444F 
 18535      55424C45 
 18536              	.LASF991:
 18537 b4ca 5F5F4D50 		.ascii	"__MPU_PRESENT 0\000"
 18537      555F5052 
 18537      4553454E 
 18537      54203000 
 18538              	.LASF1207:
 18539 b4da 54494D45 		.ascii	"TIMER_IR_CLR(n) _BIT(n)\000"
 18539      525F4952 
 18539      5F434C52 
 18539      286E2920 
 18539      5F424954 
 18540              	.LASF636:
 18541 b4f2 5F5F6E6F 		.ascii	"__nonnull_all __attribute__((__nonnull__))\000"
 18541      6E6E756C 
 18541      6C5F616C 
 18541      6C205F5F 
 18541      61747472 
 18542              	.LASF148:
 18543 b51d 5F5F4442 		.ascii	"__DBL_DENORM_MIN__ ((double)4.9406564584124654e-324"
 18543      4C5F4445 
 18543      4E4F524D 
 18543      5F4D494E 
 18543      5F5F2028 
 18544 b550 4C2900   		.ascii	"L)\000"
 18545              	.LASF135:
 18546 b553 5F5F464C 		.ascii	"__FLT_HAS_DENORM__ 1\000"
 18546      545F4841 
 18546      535F4445 
 18546      4E4F524D 
ARM GAS  /var/folders/z0/6xlwn_996xz3mwq1cgzkbq4r0000gp/T//ccBgBTlB.s 			page 459


 18546      5F5F2031 
 18547              	.LASF586:
 18548 b568 5F5F474E 		.ascii	"__GNUCLIKE_MATH_BUILTIN_CONSTANTS \000"
 18548      55434C49 
 18548      4B455F4D 
 18548      4154485F 
 18548      4255494C 
 18549              	.LASF1686:
 18550 b58b 62616C61 		.ascii	"balance_timeon\000"
 18550      6E63655F 
 18550      74696D65 
 18550      6F6E00
 18551              	.LASF1560:
 18552 b59a 44454255 		.ascii	"DEBUG_Print(str) Chip_UART_SendBlocking(LPC_USART, "
 18552      475F5072 
 18552      696E7428 
 18552      73747229 
 18552      20436869 
 18553 b5cd 7374722C 		.ascii	"str, strlen(str))\000"
 18553      20737472 
 18553      6C656E28 
 18553      73747229 
 18553      2900
 18554              	.LASF332:
 18555 b5df 5F5F5448 		.ascii	"__THUMBEL__ 1\000"
 18555      554D4245 
 18555      4C5F5F20 
 18555      3100
 18556              	.LASF1594:
 18557 b5ed 43616E5F 		.ascii	"Can_BMSErrorsID_T\000"
 18557      424D5345 
 18557      72726F72 
 18557      7349445F 
 18557      5400
 18558              	.LASF1700:
 18559 b5ff 52574C5F 		.ascii	"RWL_cell_capacity_cAh\000"
 18559      63656C6C 
 18559      5F636170 
 18559      61636974 
 18559      795F6341 
 18560              	.LASF1238:
 18561 b615 55415254 		.ascii	"UART_IIR_FIFO_EN (3 << 6)\000"
 18561      5F494952 
 18561      5F464946 
 18561      4F5F454E 
 18561      20283320 
 18562              	.LASF1007:
 18563 b62f 5F5F4F20 		.ascii	"__O volatile\000"
 18563      766F6C61 
 18563      74696C65 
 18563      00
 18564              	.LASF1156:
 18565 b63c 53595343 		.ascii	"SYSCTL_POWERDOWN_ADC_PD (1 << 4)\000"
 18565      544C5F50 
 18565      4F574552 
 18565      444F574E 
 18565      5F414443 
ARM GAS  /var/folders/z0/6xlwn_996xz3mwq1cgzkbq4r0000gp/T//ccBgBTlB.s 			page 460


 18566              	.LASF276:
 18567 b65d 5F5F5451 		.ascii	"__TQ_IBIT__ 0\000"
 18567      5F494249 
 18567      545F5F20 
 18567      3000
 18568              	.LASF1789:
 18569 b66b 426F6172 		.ascii	"Board_Println_BLOCKING\000"
 18569      645F5072 
 18569      696E746C 
 18569      6E5F424C 
 18569      4F434B49 
 18570              	.LASF1646:
 18571 b682 4353425F 		.ascii	"CSB_CHARGE_START_SWITCH\000"
 18571      43484152 
 18571      47455F53 
 18571      54415254 
 18571      5F535749 
 18572              	.LASF1151:
 18573 b69a 53595343 		.ascii	"SYSCTL_SLPWAKE_SYSPLL_PD (1 << 7)\000"
 18573      544C5F53 
 18573      4C505741 
 18573      4B455F53 
 18573      5953504C 
 18574              	.LASF18:
 18575 b6bc 5F5F5349 		.ascii	"__SIZEOF_FLOAT__ 4\000"
 18575      5A454F46 
 18575      5F464C4F 
 18575      41545F5F 
 18575      203400
 18576              	.LASF814:
 18577 b6cf 55494E54 		.ascii	"UINT8_C(x) __UINT8_C(x)\000"
 18577      385F4328 
 18577      7829205F 
 18577      5F55494E 
 18577      54385F43 
 18578              	.LASF1752:
 18579 b6e7 63687267 		.ascii	"chrg\000"
 18579      00
 18580              	.LASF185:
 18581 b6ec 5F5F4445 		.ascii	"__DEC128_EPSILON__ 1E-33DL\000"
 18581      43313238 
 18581      5F455053 
 18581      494C4F4E 
 18581      5F5F2031 
 18582              	.LASF436:
 18583 b707 5F5F5349 		.ascii	"__SIZE_T__ \000"
 18583      5A455F54 
 18583      5F5F2000 
 18584              	.LASF30:
 18585 b713 5F5F5349 		.ascii	"__SIZE_TYPE__ unsigned int\000"
 18585      5A455F54 
 18585      5950455F 
 18585      5F20756E 
 18585      7369676E 
 18586              	.LASF803:
 18587 b72e 55494E54 		.ascii	"UINTMAX_MAX (__UINTMAX_MAX__)\000"
 18587      4D41585F 
ARM GAS  /var/folders/z0/6xlwn_996xz3mwq1cgzkbq4r0000gp/T//ccBgBTlB.s 			page 461


 18587      4D415820 
 18587      285F5F55 
 18587      494E544D 
 18588              	.LASF1268:
 18589 b74c 55415254 		.ascii	"UART_LCR_PARITY_ODD (0 << 4)\000"
 18589      5F4C4352 
 18589      5F504152 
 18589      4954595F 
 18589      4F444420 
 18590              	.LASF626:
 18591 b769 5F416C69 		.ascii	"_Alignof(x) __alignof(x)\000"
 18591      676E6F66 
 18591      28782920 
 18591      5F5F616C 
 18591      69676E6F 
 18592              	.LASF647:
 18593 b782 5F5F6F66 		.ascii	"__offsetof(type,field) offsetof(type, field)\000"
 18593      66736574 
 18593      6F662874 
 18593      7970652C 
 18593      6669656C 
 18594              	.LASF740:
 18595 b7af 5F494E54 		.ascii	"_INT8_T_DECLARED \000"
 18595      385F545F 
 18595      4445434C 
 18595      41524544 
 18595      2000
 18596              	.LASF51:
 18597 b7c1 5F5F5549 		.ascii	"__UINT_LEAST8_TYPE__ unsigned char\000"
 18597      4E545F4C 
 18597      45415354 
 18597      385F5459 
 18597      50455F5F 
 18598              	.LASF517:
 18599 b7e4 5F52414E 		.ascii	"_RAND48_SEED_1 (0xabcd)\000"
 18599      4434385F 
 18599      53454544 
 18599      5F312028 
 18599      30786162 
 18600              	.LASF640:
 18601 b7fc 5F5F756E 		.ascii	"__unreachable() __builtin_unreachable()\000"
 18601      72656163 
 18601      6861626C 
 18601      65282920 
 18601      5F5F6275 
 18602              	.LASF1525:
 18603 b824 4353425F 		.ascii	"CSB_ELCON_COMMAND_PERIOD 1000\000"
 18603      454C434F 
 18603      4E5F434F 
 18603      4D4D414E 
 18603      445F5045 
 18604              	.LASF1637:
 18605 b842 656C636F 		.ascii	"elcon_on\000"
 18605      6E5F6F6E 
 18605      00
 18606              	.LASF1258:
 18607 b84b 55415254 		.ascii	"UART_LCR_WLEN_MASK (3 << 0)\000"
ARM GAS  /var/folders/z0/6xlwn_996xz3mwq1cgzkbq4r0000gp/T//ccBgBTlB.s 			page 462


 18607      5F4C4352 
 18607      5F574C45 
 18607      4E5F4D41 
 18607      534B2028 
 18608              	.LASF718:
 18609 b867 7369676E 		.ascii	"signed +0\000"
 18609      6564202B 
 18609      3000
 18610              	.LASF610:
 18611 b871 5F5F5354 		.ascii	"__STRING(x) #x\000"
 18611      52494E47 
 18611      28782920 
 18611      237800
 18612              	.LASF1097:
 18613 b880 4C50435F 		.ascii	"LPC_PMU_BASE 0x40038000\000"
 18613      504D555F 
 18613      42415345 
 18613      20307834 
 18613      30303338 
 18614              	.LASF749:
 18615 b898 5F494E54 		.ascii	"_INT64_T_DECLARED \000"
 18615      36345F54 
 18615      5F444543 
 18615      4C415245 
 18615      442000
 18616              	.LASF796:
 18617 b8ab 494E545F 		.ascii	"INT_FAST32_MAX (__INT_FAST32_MAX__)\000"
 18617      46415354 
 18617      33325F4D 
 18617      41582028 
 18617      5F5F494E 
 18618              	.LASF709:
 18619 b8cf 5F535953 		.ascii	"_SYS__INTSUP_H \000"
 18619      5F5F494E 
 18619      54535550 
 18619      5F482000 
 18620              	.LASF1753:
 18621 b8df 74656D70 		.ascii	"tempstr\000"
 18621      73747200 
 18622              	.LASF870:
 18623 b8e7 5F484953 		.ascii	"_HIST_UP 0\000"
 18623      545F5550 
 18623      203000
 18624              	.LASF550:
 18625 b8f2 5F524545 		.ascii	"_REENT_MBTOWC_STATE(ptr) ((ptr)->_new._reent._mbtow"
 18625      4E545F4D 
 18625      42544F57 
 18625      435F5354 
 18625      41544528 
 18626 b925 635F7374 		.ascii	"c_state)\000"
 18626      61746529 
 18626      00
 18627              	.LASF202:
 18628 b92e 5F5F5546 		.ascii	"__UFRACT_FBIT__ 16\000"
 18628      52414354 
 18628      5F464249 
 18628      545F5F20 
ARM GAS  /var/folders/z0/6xlwn_996xz3mwq1cgzkbq4r0000gp/T//ccBgBTlB.s 			page 463


 18628      313600
 18629              	.LASF1001:
 18630 b941 5F5F5354 		.ascii	"__STATIC_INLINE static inline\000"
 18630      41544943 
 18630      5F494E4C 
 18630      494E4520 
 18630      73746174 
 18631              	.LASF834:
 18632 b95f 5F454E44 		.ascii	"_ENDL_LF \000"
 18632      4C5F4C46 
 18632      2000
 18633              	.LASF1563:
 18634 b969 756E7369 		.ascii	"unsigned int\000"
 18634      676E6564 
 18634      20696E74 
 18634      00
 18635              	.LASF631:
 18636 b976 5F5F6D61 		.ascii	"__malloc_like __attribute__((__malloc__))\000"
 18636      6C6C6F63 
 18636      5F6C696B 
 18636      65205F5F 
 18636      61747472 
 18637              	.LASF1321:
 18638 b9a0 55415254 		.ascii	"UART_SCICTRL_NACKDIS (1 << 1)\000"
 18638      5F534349 
 18638      4354524C 
 18638      5F4E4143 
 18638      4B444953 
 18639              	.LASF1146:
 18640 b9be 53595343 		.ascii	"SYSCTL_SLPWAKE_FLASH_PD (1 << 2)\000"
 18640      544C5F53 
 18640      4C505741 
 18640      4B455F46 
 18640      4C415348 
 18641              	.LASF569:
 18642 b9df 5F5F5448 		.ascii	"__THROW \000"
 18642      524F5720 
 18642      00
 18643              	.LASF809:
 18644 b9e8 57434841 		.ascii	"WCHAR_MIN (__WCHAR_MIN__)\000"
 18644      525F4D49 
 18644      4E20285F 
 18644      5F574348 
 18644      41525F4D 
 18645              	.LASF862:
 18646 ba02 4B45595F 		.ascii	"KEY_SUB 26\000"
 18646      53554220 
 18646      323600
 18647              	.LASF1468:
 18648 ba0d 4932435F 		.ascii	"I2C_SEND_END 0x08\000"
 18648      53454E44 
 18648      5F454E44 
 18648      20307830 
 18648      3800
 18649              	.LASF1350:
 18650 ba1f 5353505F 		.ascii	"SSP_CR0_CPOL_HI ((uint32_t) (1 << 6))\000"
 18650      4352305F 
ARM GAS  /var/folders/z0/6xlwn_996xz3mwq1cgzkbq4r0000gp/T//ccBgBTlB.s 			page 464


 18650      43504F4C 
 18650      5F484920 
 18650      28287569 
 18651              	.LASF1314:
 18652 ba45 55415254 		.ascii	"UART_ICR_IRDAEN (1 << 0)\000"
 18652      5F494352 
 18652      5F495244 
 18652      41454E20 
 18652      2831203C 
 18653              	.LASF1782:
 18654 ba5e 73747263 		.ascii	"strcmp\000"
 18654      6D7000
 18655              	.LASF947:
 18656 ba65 424D535F 		.ascii	"BMS_SOC__freq 10\000"
 18656      534F435F 
 18656      5F667265 
 18656      71203130 
 18656      00
 18657              	.LASF985:
 18658 ba76 4D494E28 		.ascii	"MIN(a,b) (((a) < (b)) ? (a) : (b))\000"
 18658      612C6229 
 18658      20282828 
 18658      6129203C 
 18658      20286229 
 18659              	.LASF729:
 18660 ba99 5F5F494E 		.ascii	"__INT32 \"l\"\000"
 18660      54333220 
 18660      226C2200 
 18661              	.LASF296:
 18662 baa5 5F5F5548 		.ascii	"__UHA_IBIT__ 8\000"
 18662      415F4942 
 18662      49545F5F 
 18662      203800
 18663              	.LASF1521:
 18664 bab4 5F434F4E 		.ascii	"_CONFIG_H_ \000"
 18664      4649475F 
 18664      485F2000 
 18665              	.LASF1660:
 18666 bac0 4353425F 		.ascii	"CSB_INIT_MODE_T\000"
 18666      494E4954 
 18666      5F4D4F44 
 18666      455F5400 
 18667              	.LASF126:
 18668 bad0 5F5F464C 		.ascii	"__FLT_MIN_EXP__ (-125)\000"
 18668      545F4D49 
 18668      4E5F4558 
 18668      505F5F20 
 18668      282D3132 
 18669              	.LASF676:
 18670 bae7 5F5F7472 		.ascii	"__trylocks_exclusive(...) __lock_annotate(exclusive"
 18670      796C6F63 
 18670      6B735F65 
 18670      78636C75 
 18670      73697665 
 18671 bb1a 5F747279 		.ascii	"_trylock_function(__VA_ARGS__))\000"
 18671      6C6F636B 
 18671      5F66756E 
ARM GAS  /var/folders/z0/6xlwn_996xz3mwq1cgzkbq4r0000gp/T//ccBgBTlB.s 			page 465


 18671      6374696F 
 18671      6E285F5F 
 18672              	.LASF1566:
 18673 bb3a 73686F72 		.ascii	"short int\000"
 18673      7420696E 
 18673      7400
 18674              	.LASF1388:
 18675 bb44 4144435F 		.ascii	"ADC_CR_START_CTOUT8 ((3UL << 24))\000"
 18675      43525F53 
 18675      54415254 
 18675      5F43544F 
 18675      55543820 
 18676              	.LASF1680:
 18677 bb66 7061636B 		.ascii	"pack_config\000"
 18677      5F636F6E 
 18677      66696700 
 18678              	.LASF475:
 18679 bb72 5F4D4143 		.ascii	"_MACHINE__TYPES_H \000"
 18679      48494E45 
 18679      5F5F5459 
 18679      5045535F 
 18679      482000
 18680              	.LASF871:
 18681 bb85 5F484953 		.ascii	"_HIST_DOWN 1\000"
 18681      545F444F 
 18681      574E2031 
 18681      00
 18682              	.LASF1744:
 18683 bb92 68656C70 		.ascii	"help\000"
 18683      00
 18684              	.LASF3:
 18685 bb97 5F5F474E 		.ascii	"__GNUC_MINOR__ 4\000"
 18685      55435F4D 
 18685      494E4F52 
 18685      5F5F2034 
 18685      00
 18686              	.LASF748:
 18687 bba8 5F5F696E 		.ascii	"__int32_t_defined 1\000"
 18687      7433325F 
 18687      745F6465 
 18687      66696E65 
 18687      64203100 
 18688              	.LASF627:
 18689 bbbc 5F41746F 		.ascii	"_Atomic(T) struct { T volatile __val; }\000"
 18689      6D696328 
 18689      54292073 
 18689      74727563 
 18689      74207B20 
 18690              	.LASF1272:
 18691 bbe4 55415254 		.ascii	"UART_LCR_BREAK_EN (1 << 6)\000"
 18691      5F4C4352 
 18691      5F425245 
 18691      414B5F45 
 18691      4E202831 
 18692              	.LASF1040:
 18693 bbff 5343425F 		.ascii	"SCB_AIRCR_VECTKEYSTAT_Msk (0xFFFFUL << SCB_AIRCR_VE"
 18693      41495243 
ARM GAS  /var/folders/z0/6xlwn_996xz3mwq1cgzkbq4r0000gp/T//ccBgBTlB.s 			page 466


 18693      525F5645 
 18693      43544B45 
 18693      59535441 
 18694 bc32 43544B45 		.ascii	"CTKEYSTAT_Pos)\000"
 18694      59535441 
 18694      545F506F 
 18694      732900
 18695              	.LASF1199:
 18696 bc41 46554E43 		.ascii	"FUNC1 0x1\000"
 18696      31203078 
 18696      3100
 18697              	.LASF1005:
 18698 bc4b 5F5F434F 		.ascii	"__CORE_CM0_H_DEPENDANT \000"
 18698      52455F43 
 18698      4D305F48 
 18698      5F444550 
 18698      454E4441 
 18699              	.LASF507:
 18700 bc63 5F54494D 		.ascii	"_TIME_T_ long\000"
 18700      455F545F 
 18700      206C6F6E 
 18700      6700
 18701              	.LASF362:
 18702 bc71 5F4C4442 		.ascii	"_LDBL_EQ_DBL 1\000"
 18702      4C5F4551 
 18702      5F44424C 
 18702      203100
 18703              	.LASF1487:
 18704 bc80 43414E5F 		.ascii	"CAN_MSGOBJ_EXT 0x20000000UL\000"
 18704      4D53474F 
 18704      424A5F45 
 18704      58542030 
 18704      78323030 
 18705              	.LASF836:
 18706 bc9c 4B45595F 		.ascii	"KEY_NUL 0\000"
 18706      4E554C20 
 18706      3000
 18707              	.LASF2:
 18708 bca6 5F5F474E 		.ascii	"__GNUC__ 5\000"
 18708      55435F5F 
 18708      203500
 18709              	.LASF1139:
 18710 bcb1 53595343 		.ascii	"SYSCTL_RST_BOD (1 << 3)\000"
 18710      544C5F52 
 18710      53545F42 
 18710      4F442028 
 18710      31203C3C 
 18711              	.LASF1062:
 18712 bcc9 53797354 		.ascii	"SysTick_CTRL_CLKSOURCE_Msk (1UL << SysTick_CTRL_CLK"
 18712      69636B5F 
 18712      4354524C 
 18712      5F434C4B 
 18712      534F5552 
 18713 bcfc 534F5552 		.ascii	"SOURCE_Pos)\000"
 18713      43455F50 
 18713      6F732900 
 18714              	.LASF134:
ARM GAS  /var/folders/z0/6xlwn_996xz3mwq1cgzkbq4r0000gp/T//ccBgBTlB.s 			page 467


 18715 bd08 5F5F464C 		.ascii	"__FLT_DENORM_MIN__ 1.4012984643248171e-45F\000"
 18715      545F4445 
 18715      4E4F524D 
 18715      5F4D494E 
 18715      5F5F2031 
 18716              	.LASF1740:
 18717 bd33 434F4E53 		.ascii	"CONSOLE_OUTPUT_T\000"
 18717      4F4C455F 
 18717      4F555450 
 18717      55545F54 
 18717      00
 18718              	.LASF1723:
 18719 bd44 524F4C5F 		.ascii	"ROL_fault\000"
 18719      6661756C 
 18719      7400
 18720              	.LASF1186:
 18721 bd4e 4D445F50 		.ascii	"MD_PUP (0x2 << 3)\000"
 18721      55502028 
 18721      30783220 
 18721      3C3C2033 
 18721      2900
 18722              	.LASF1298:
 18723 bd60 55415254 		.ascii	"UART_MSR_RI (1 << 6)\000"
 18723      5F4D5352 
 18723      5F524920 
 18723      2831203C 
 18723      3C203629 
 18724              	.LASF101:
 18725 bd75 5F5F5549 		.ascii	"__UINT_LEAST8_MAX__ 0xff\000"
 18725      4E545F4C 
 18725      45415354 
 18725      385F4D41 
 18725      585F5F20 
 18726              	.LASF560:
 18727 bd8e 5F524545 		.ascii	"_REENT_INIT_PTR(var) { memset((var), 0, sizeof(*(va"
 18727      4E545F49 
 18727      4E49545F 
 18727      50545228 
 18727      76617229 
 18728 bdc1 72292929 		.ascii	"r))); _REENT_INIT_PTR_ZEROED(var); }\000"
 18728      3B205F52 
 18728      45454E54 
 18728      5F494E49 
 18728      545F5054 
 18729              	.LASF140:
 18730 bde6 5F5F4442 		.ascii	"__DBL_MIN_EXP__ (-1021)\000"
 18730      4C5F4D49 
 18730      4E5F4558 
 18730      505F5F20 
 18730      282D3130 
 18731              	.LASF330:
 18732 bdfe 5F5F4152 		.ascii	"__ARM_ARCH_ISA_THUMB 1\000"
 18732      4D5F4152 
 18732      43485F49 
 18732      53415F54 
 18732      48554D42 
 18733              	.LASF1003:
ARM GAS  /var/folders/z0/6xlwn_996xz3mwq1cgzkbq4r0000gp/T//ccBgBTlB.s 			page 468


 18734 be15 5F5F434F 		.ascii	"__CORE_CMINSTR_H \000"
 18734      52455F43 
 18734      4D494E53 
 18734      54525F48 
 18734      2000
 18735              	.LASF91:
 18736 be27 5F5F5549 		.ascii	"__UINT32_MAX__ 0xffffffffUL\000"
 18736      4E543332 
 18736      5F4D4158 
 18736      5F5F2030 
 18736      78666666 
 18737              	.LASF93:
 18738 be43 5F5F494E 		.ascii	"__INT_LEAST8_MAX__ 0x7f\000"
 18738      545F4C45 
 18738      41535438 
 18738      5F4D4158 
 18738      5F5F2030 
 18739              	.LASF1464:
 18740 be5b 4932435F 		.ascii	"I2C_OK 0x00\000"
 18740      4F4B2030 
 18740      78303000 
 18741              	.LASF811:
 18742 be67 57494E54 		.ascii	"WINT_MAX (__WINT_MAX__)\000"
 18742      5F4D4158 
 18742      20285F5F 
 18742      57494E54 
 18742      5F4D4158 
 18743              	.LASF1049:
 18744 be7f 5343425F 		.ascii	"SCB_SCR_SLEEPDEEP_Pos 2\000"
 18744      5343525F 
 18744      534C4545 
 18744      50444545 
 18744      505F506F 
 18745              	.LASF1039:
 18746 be97 5343425F 		.ascii	"SCB_AIRCR_VECTKEYSTAT_Pos 16\000"
 18746      41495243 
 18746      525F5645 
 18746      43544B45 
 18746      59535441 
 18747              	.LASF1070:
 18748 beb4 53797354 		.ascii	"SysTick_VAL_CURRENT_Msk (0xFFFFFFUL << SysTick_VAL_"
 18748      69636B5F 
 18748      56414C5F 
 18748      43555252 
 18748      454E545F 
 18749 bee7 43555252 		.ascii	"CURRENT_Pos)\000"
 18749      454E545F 
 18749      506F7329 
 18749      00
 18750              	.LASF899:
 18751 bef4 43555252 		.ascii	"CURRENTSENSOR_POWER__freq 20\000"
 18751      454E5453 
 18751      454E534F 
 18751      525F504F 
 18751      5745525F 
 18752              	.LASF210:
 18753 bf11 5F5F4C46 		.ascii	"__LFRACT_MAX__ 0X7FFFFFFFP-31LR\000"
ARM GAS  /var/folders/z0/6xlwn_996xz3mwq1cgzkbq4r0000gp/T//ccBgBTlB.s 			page 469


 18753      52414354 
 18753      5F4D4158 
 18753      5F5F2030 
 18753      58374646 
 18754              	.LASF898:
 18755 bf31 43555252 		.ascii	"CURRENTSENSOR_POWER__id 1318\000"
 18755      454E5453 
 18755      454E534F 
 18755      525F504F 
 18755      5745525F 
 18756              	.LASF778:
 18757 bf4e 494E5433 		.ascii	"INT32_MAX (__INT32_MAX__)\000"
 18757      325F4D41 
 18757      5820285F 
 18757      5F494E54 
 18757      33325F4D 
 18758              		.ident	"GCC: (GNU Tools for ARM Embedded Processors) 5.4.1 20160919 (release) [ARM/embedded-5-bran
ARM GAS  /var/folders/z0/6xlwn_996xz3mwq1cgzkbq4r0000gp/T//ccBgBTlB.s 			page 470


DEFINED SYMBOLS
                            *ABS*:0000000000000000 console.c
/var/folders/z0/6xlwn_996xz3mwq1cgzkbq4r0000gp/T//ccBgBTlB.s:79     .text.measure:0000000000000000 $t
/var/folders/z0/6xlwn_996xz3mwq1cgzkbq4r0000gp/T//ccBgBTlB.s:83     .text.measure:0000000000000000 measure
/var/folders/z0/6xlwn_996xz3mwq1cgzkbq4r0000gp/T//ccBgBTlB.s:223    .text.measure:00000000000000b8 $d
/var/folders/z0/6xlwn_996xz3mwq1cgzkbq4r0000gp/T//ccBgBTlB.s:238    .text.set:0000000000000000 $t
/var/folders/z0/6xlwn_996xz3mwq1cgzkbq4r0000gp/T//ccBgBTlB.s:242    .text.set:0000000000000000 set
/var/folders/z0/6xlwn_996xz3mwq1cgzkbq4r0000gp/T//ccBgBTlB.s:352    .rodata.set:0000000000000000 $d
/var/folders/z0/6xlwn_996xz3mwq1cgzkbq4r0000gp/T//ccBgBTlB.s:1070   .text.set:000000000000031c $d
/var/folders/z0/6xlwn_996xz3mwq1cgzkbq4r0000gp/T//ccBgBTlB.s:1081   .text.set:0000000000000340 $t
/var/folders/z0/6xlwn_996xz3mwq1cgzkbq4r0000gp/T//ccBgBTlB.s:1365   .text.set:0000000000000418 $d
/var/folders/z0/6xlwn_996xz3mwq1cgzkbq4r0000gp/T//ccBgBTlB.s:1375   .text.chrg:0000000000000000 $t
/var/folders/z0/6xlwn_996xz3mwq1cgzkbq4r0000gp/T//ccBgBTlB.s:1379   .text.chrg:0000000000000000 chrg
/var/folders/z0/6xlwn_996xz3mwq1cgzkbq4r0000gp/T//ccBgBTlB.s:1445   .text.chrg:0000000000000044 $d
/var/folders/z0/6xlwn_996xz3mwq1cgzkbq4r0000gp/T//ccBgBTlB.s:1454   .text.get:0000000000000000 $t
/var/folders/z0/6xlwn_996xz3mwq1cgzkbq4r0000gp/T//ccBgBTlB.s:1458   .text.get:0000000000000000 get
/var/folders/z0/6xlwn_996xz3mwq1cgzkbq4r0000gp/T//ccBgBTlB.s:1545   .rodata.get:0000000000000000 $d
/var/folders/z0/6xlwn_996xz3mwq1cgzkbq4r0000gp/T//ccBgBTlB.s:1976   .text.get:0000000000000280 $d
/var/folders/z0/6xlwn_996xz3mwq1cgzkbq4r0000gp/T//ccBgBTlB.s:2006   .text.config_def:0000000000000000 $t
/var/folders/z0/6xlwn_996xz3mwq1cgzkbq4r0000gp/T//ccBgBTlB.s:2010   .text.config_def:0000000000000000 config_def
/var/folders/z0/6xlwn_996xz3mwq1cgzkbq4r0000gp/T//ccBgBTlB.s:2078   .text.config_def:0000000000000044 $d
/var/folders/z0/6xlwn_996xz3mwq1cgzkbq4r0000gp/T//ccBgBTlB.s:2087   .text.help:0000000000000000 $t
/var/folders/z0/6xlwn_996xz3mwq1cgzkbq4r0000gp/T//ccBgBTlB.s:2091   .text.help:0000000000000000 help
/var/folders/z0/6xlwn_996xz3mwq1cgzkbq4r0000gp/T//ccBgBTlB.s:2201   .text.help:0000000000000078 $d
               .rodata.helpstring:0000000000000000 commands
/var/folders/z0/6xlwn_996xz3mwq1cgzkbq4r0000gp/T//ccBgBTlB.s:2217   .text.bal:0000000000000000 $t
/var/folders/z0/6xlwn_996xz3mwq1cgzkbq4r0000gp/T//ccBgBTlB.s:2221   .text.bal:0000000000000000 bal
/var/folders/z0/6xlwn_996xz3mwq1cgzkbq4r0000gp/T//ccBgBTlB.s:2350   .text.bal:000000000000007c $d
/var/folders/z0/6xlwn_996xz3mwq1cgzkbq4r0000gp/T//ccBgBTlB.s:2362   .text.my_atou:0000000000000000 $t
/var/folders/z0/6xlwn_996xz3mwq1cgzkbq4r0000gp/T//ccBgBTlB.s:2367   .text.my_atou:0000000000000000 my_atou
/var/folders/z0/6xlwn_996xz3mwq1cgzkbq4r0000gp/T//ccBgBTlB.s:2415   .text.console_init:0000000000000000 $t
/var/folders/z0/6xlwn_996xz3mwq1cgzkbq4r0000gp/T//ccBgBTlB.s:2420   .text.console_init:0000000000000000 console_init
/var/folders/z0/6xlwn_996xz3mwq1cgzkbq4r0000gp/T//ccBgBTlB.s:2463   .text.console_init:0000000000000020 $d
/var/folders/z0/6xlwn_996xz3mwq1cgzkbq4r0000gp/T//ccBgBTlB.s:2470   .text.executerl:0000000000000000 $t
/var/folders/z0/6xlwn_996xz3mwq1cgzkbq4r0000gp/T//ccBgBTlB.s:2475   .text.executerl:0000000000000000 executerl
/var/folders/z0/6xlwn_996xz3mwq1cgzkbq4r0000gp/T//ccBgBTlB.s:2559   .text.executerl:0000000000000054 $d
/var/folders/z0/6xlwn_996xz3mwq1cgzkbq4r0000gp/T//ccBgBTlB.s:2569   .text.Output_Measurements:0000000000000000 $t
/var/folders/z0/6xlwn_996xz3mwq1cgzkbq4r0000gp/T//ccBgBTlB.s:2574   .text.Output_Measurements:0000000000000000 Output_Measurements
/var/folders/z0/6xlwn_996xz3mwq1cgzkbq4r0000gp/T//ccBgBTlB.s:2719   .text.Output_Measurements:00000000000000a0 $d
/var/folders/z0/6xlwn_996xz3mwq1cgzkbq4r0000gp/T//ccBgBTlB.s:3094   .rodata.helpstring:0000000000000000 helpstring
/var/folders/z0/6xlwn_996xz3mwq1cgzkbq4r0000gp/T//ccBgBTlB.s:2730   .bss.console_output:0000000000000000 $d
/var/folders/z0/6xlwn_996xz3mwq1cgzkbq4r0000gp/T//ccBgBTlB.s:2734   .bss.console_output:0000000000000000 console_output
/var/folders/z0/6xlwn_996xz3mwq1cgzkbq4r0000gp/T//ccBgBTlB.s:2737   .rodata.PACK_NAMES:0000000000000000 $d
/var/folders/z0/6xlwn_996xz3mwq1cgzkbq4r0000gp/T//ccBgBTlB.s:2741   .rodata.PACK_NAMES:0000000000000000 PACK_NAMES
/var/folders/z0/6xlwn_996xz3mwq1cgzkbq4r0000gp/T//ccBgBTlB.s:2746   .rodata.locstring:0000000000000000 $d
/var/folders/z0/6xlwn_996xz3mwq1cgzkbq4r0000gp/T//ccBgBTlB.s:2750   .rodata.locstring:0000000000000000 locstring
/var/folders/z0/6xlwn_996xz3mwq1cgzkbq4r0000gp/T//ccBgBTlB.s:2776   .rodata.CSB_SSM_MODE_NAMES:0000000000000000 $d
/var/folders/z0/6xlwn_996xz3mwq1cgzkbq4r0000gp/T//ccBgBTlB.s:2780   .rodata.CSB_SSM_MODE_NAMES:0000000000000000 CSB_SSM_MODE_NAMES
/var/folders/z0/6xlwn_996xz3mwq1cgzkbq4r0000gp/T//ccBgBTlB.s:2786   .rodata.handlers:0000000000000000 $d
/var/folders/z0/6xlwn_996xz3mwq1cgzkbq4r0000gp/T//ccBgBTlB.s:2790   .rodata.handlers:0000000000000000 handlers
/var/folders/z0/6xlwn_996xz3mwq1cgzkbq4r0000gp/T//ccBgBTlB.s:2799   .bss.lastPackCurrentPrintTime:0000000000000000 $d
/var/folders/z0/6xlwn_996xz3mwq1cgzkbq4r0000gp/T//ccBgBTlB.s:2803   .bss.lastPackCurrentPrintTime:0000000000000000 lastPackCurrentPrintTime
/var/folders/z0/6xlwn_996xz3mwq1cgzkbq4r0000gp/T//ccBgBTlB.s:2806   .rodata.BMS_COMM_NAMES:0000000000000000 $d
/var/folders/z0/6xlwn_996xz3mwq1cgzkbq4r0000gp/T//ccBgBTlB.s:2810   .rodata.BMS_COMM_NAMES:0000000000000000 BMS_COMM_NAMES
/var/folders/z0/6xlwn_996xz3mwq1cgzkbq4r0000gp/T//ccBgBTlB.s:2814   .rodata.str1.4:0000000000000000 $d
/var/folders/z0/6xlwn_996xz3mwq1cgzkbq4r0000gp/T//ccBgBTlB.s:3076   .bss.lastPackVoltagePrintTime:0000000000000000 $d
/var/folders/z0/6xlwn_996xz3mwq1cgzkbq4r0000gp/T//ccBgBTlB.s:3080   .bss.lastPackVoltagePrintTime:0000000000000000 lastPackVoltagePrintTime
ARM GAS  /var/folders/z0/6xlwn_996xz3mwq1cgzkbq4r0000gp/T//ccBgBTlB.s 			page 471


/var/folders/z0/6xlwn_996xz3mwq1cgzkbq4r0000gp/T//ccBgBTlB.s:3083   .bss.csb_input:0000000000000000 $d
/var/folders/z0/6xlwn_996xz3mwq1cgzkbq4r0000gp/T//ccBgBTlB.s:3087   .bss.csb_input:0000000000000000 csb_input
/var/folders/z0/6xlwn_996xz3mwq1cgzkbq4r0000gp/T//ccBgBTlB.s:3090   .rodata.helpstring:0000000000000000 $d
/var/folders/z0/6xlwn_996xz3mwq1cgzkbq4r0000gp/T//ccBgBTlB.s:3103   .rodata.nargs:0000000000000000 $d
/var/folders/z0/6xlwn_996xz3mwq1cgzkbq4r0000gp/T//ccBgBTlB.s:3107   .rodata.nargs:0000000000000000 nargs
/var/folders/z0/6xlwn_996xz3mwq1cgzkbq4r0000gp/T//ccBgBTlB.s:3116   .rodata.CSB_INIT_MODE_NAMES:0000000000000000 $d
/var/folders/z0/6xlwn_996xz3mwq1cgzkbq4r0000gp/T//ccBgBTlB.s:3120   .rodata.CSB_INIT_MODE_NAMES:0000000000000000 CSB_INIT_MODE_NAMES
/var/folders/z0/6xlwn_996xz3mwq1cgzkbq4r0000gp/T//ccBgBTlB.s:3124   .bss.csb_state:0000000000000000 $d
/var/folders/z0/6xlwn_996xz3mwq1cgzkbq4r0000gp/T//ccBgBTlB.s:3128   .bss.csb_state:0000000000000000 csb_state
/var/folders/z0/6xlwn_996xz3mwq1cgzkbq4r0000gp/T//ccBgBTlB.s:3131   .rodata.CSB_CHARGE_MODE_NAMES:0000000000000000 $d
/var/folders/z0/6xlwn_996xz3mwq1cgzkbq4r0000gp/T//ccBgBTlB.s:3135   .rodata.CSB_CHARGE_MODE_NAMES:0000000000000000 CSB_CHARGE_MODE_NAMES
                     .debug_frame:0000000000000010 $d
                           .group:0000000000000000 wm4.0.875846967d3f9b39cda0d496d1540481
                           .group:0000000000000000 wm4._newlib_version.h.4.ad342815780c8db09778091a421b5b5b
                           .group:0000000000000000 wm4.newlib.h.21.0b9fc973bddc8b940a18de2b6ea6adc7
                           .group:0000000000000000 wm4.features.h.22.692cd1f2e947ca7b8fea300222f5f1f2
                           .group:0000000000000000 wm4.config.h.219.65a553ab5bef5482f0d7880b0d33015e
                           .group:0000000000000000 wm4._ansi.h.23.84af8eb8cd468d25cc5f45f5eb13ec51
                           .group:0000000000000000 wm4.stddef.h.39.99b5021e28f91cdb161c889e07266673
                           .group:0000000000000000 wm4._default_types.h.6.35ee9e747940367bf2a634907d1c2382
                           .group:0000000000000000 wm4.lock.h.2.9bc98482741e5e2a9450b12934a684ea
                           .group:0000000000000000 wm4._types.h.125.5cf8a495f1f7ef36777ad868a1e32068
                           .group:0000000000000000 wm4.stddef.h.161.5349cb105733e8777bfb0cf53c4e3f34
                           .group:0000000000000000 wm4._types.h.183.c226d164ceca1f2ecb9ae9360c54a098
                           .group:0000000000000000 wm4.reent.h.17.23b059516345f8f5abfa01ddc379570f
                           .group:0000000000000000 wm4.cdefs.h.47.d0af77d4010113800282e6476aca9724
                           .group:0000000000000000 wm4.string.h.15.dab3980bf35408a4c507182805e2de3a
                           .group:0000000000000000 wm4.stddef.h.161.19e15733342b50ead2919490b095303e
                           .group:0000000000000000 wm4.stdlib.h.13.4ed386f5c1a80d71e72172885d946ef2
                           .group:0000000000000000 wm4.alloca.h.8.dfc0c703c47ec3e69746825b17d9e66d
                           .group:0000000000000000 wm4.stdlib.h.56.f7bb76d8eb43fb7e79a949819dbf4bda
                           .group:0000000000000000 wm4.stdbool.h.29.07dce69c3b78884144b7f7bd19483461
                           .group:0000000000000000 wm4._intsup.h.10.b82bf99f69d6a5c085fc866de0d3eb9b
                           .group:0000000000000000 wm4._stdint.h.10.7a5f60e6741af4a5594a3867d347e1f9
                           .group:0000000000000000 wm4.stdint.h.23.373a9d32a9e4c2e88fd347156532d281
                           .group:0000000000000000 wm4.microrl_config.h.6.70661e8aebc9ea06396eb640138e525a
                           .group:0000000000000000 wm4.microrl.h.9.b0be5a31302c3975bc49057dcebb5e35
                           .group:0000000000000000 wm4.static_can.h.10.6902ce59c9a3d8563e23a7f670a57664
                           .group:0000000000000000 wm4.constants.h.2.6d37ff5986ed2580365117b03c267631
                           .group:0000000000000000 wm4.console_types.h.2.73a14d0218d5f7ce15f71b7c1c1a3626
                           .group:0000000000000000 wm4.lpc_types.h.33.09204c429b0b339113f4a0f79041fbe5
                           .group:0000000000000000 wm4.sys_config.h.31.9f234e9c90333d233c7e647ebe63e928
                           .group:0000000000000000 wm4.cmsis_11cxx.h.33.407e9bbb5d170cd1552d3f7dc3fd5c42
                           .group:0000000000000000 wm4.core_cm0.h.32.192d13cfa8b31e63c86621de62eb153f
                           .group:0000000000000000 wm4.core_cm0.h.120.f4257ea7d0bce0cbabffe223e23b2fd4
                           .group:0000000000000000 wm4.chip.h.116.857da603c399e979152c31968de4baae
                           .group:0000000000000000 wm4.pmu_11xx.h.33.1d6b708881441cb98d19b8bab3caa180
                           .group:0000000000000000 wm4.sysctl_11xx.h.33.ae61a1181e608f8409883008e291930c
                           .group:0000000000000000 wm4.clock_11xx.h.33.23290a9e2ed919e3a6958d25130bc848
                           .group:0000000000000000 wm4.iocon_11xx.h.33.25e2b3cde122df23fb07b984cb4f3a93
                           .group:0000000000000000 wm4.timer_11xx.h.33.c92f50a9325789ee6a8ffd6248980d70
                           .group:0000000000000000 wm4.ring_buffer.h.33.2f271415f1f27d60350fb4738c5cbee6
                           .group:0000000000000000 wm4.uart_11xx.h.98.fe68b709973730a4fba3f3ce60c5c312
                           .group:0000000000000000 wm4.wwdt_11xx.h.33.5768344983cb842df69cc91ea86cabb0
                           .group:0000000000000000 wm4.ssp_11xx.h.33.af054d3d65f4cb0c078be40bb872ec37
                           .group:0000000000000000 wm4.error.h.38.ae74fe1dd9d19c80c505f1fda144fce8
                           .group:0000000000000000 wm4.adc_11xx.h.33.6ce7433ac6b30df70a6993d01dbd513f
ARM GAS  /var/folders/z0/6xlwn_996xz3mwq1cgzkbq4r0000gp/T//ccBgBTlB.s 			page 472


                           .group:0000000000000000 wm4.i2c_11xx.h.33.2b506d1350e00a8c26e8bf006a5f9390
                           .group:0000000000000000 wm4.ccand_11xx.h.33.99627f4b529fecdc77b0877ab6fe5266
                           .group:0000000000000000 wm4.config.h.2.914c8874abf7e48afe8641d5d520a76b

UNDEFINED SYMBOLS
strcmp
Board_Println
Is_Valid_Jump
utoa
Board_Print
MY18_Pack_Config
MY16_Pack_Config
Board_Println_BLOCKING
Board_Print_BLOCKING
