ARM GAS  /var/folders/z0/6xlwn_996xz3mwq1cgzkbq4r0000gp/T//ccBgBTlB.s 			page 1


   1              		.syntax unified
   2              		.cpu cortex-m0
   3              		.fpu softvfp
   4              		.eabi_attribute 20, 1	@ Tag_ABI_FP_denormal
   5              		.eabi_attribute 21, 1	@ Tag_ABI_FP_exceptions
   6              		.eabi_attribute 23, 3	@ Tag_ABI_FP_number_model
   7              		.eabi_attribute 24, 1	@ Tag_ABI_align8_needed
   8              		.eabi_attribute 25, 1	@ Tag_ABI_align8_preserved
   9              		.eabi_attribute 26, 1	@ Tag_ABI_enum_size
  10              		.eabi_attribute 30, 2	@ Tag_ABI_optimization_goals
  11              		.eabi_attribute 34, 0	@ Tag_CPU_unaligned_access
  12              		.eabi_attribute 18, 4	@ Tag_ABI_PCS_wchar_t
  13              		.file	"console.c"
  14              	@ GNU C89 (GNU Tools for ARM Embedded Processors) version 5.4.1 20160919 (release) [ARM/embedded-5-
  15              	@	compiled by GNU C version 4.2.1 (Based on Apple Inc. build 5658) (LLVM build 2336.9.00), GMP vers
  16              	@ GGC heuristics: --param ggc-min-expand=100 --param ggc-min-heapsize=131072
  17              	@ options passed:  -I . -I inc/
  18              	@ -I ../../lib/lpc11cx4-library/lpc_chip_11cxx_lib/inc
  19              	@ -I ../../lib/lpc11cx4-library/evt_lib/inc/ -I ../../lib/CANlib
  20              	@ -imultilib armv6-m
  21              	@ -iprefix /usr/local/Cellar/gcc-arm-none-eabi/20160928/bin/../lib/gcc/arm-none-eabi/5.4.1/
  22              	@ -isysroot /usr/local/Cellar/gcc-arm-none-eabi/20160928/bin/../arm-none-eabi
  23              	@ -MD bin/console.d -MF bin/console.d -MP -MQ bin/console.o
  24              	@ -D__USES_INITFINI__ -D UART_BAUD=57600 -D CORE_M0 -D DEBUG_ENABLE
  25              	@ -D FSAE_DRIVERS -D CAN_ARCHITECTURE_ARM src/console.c -mcpu=cortex-m0
  26              	@ -mthumb -auxbase-strip bin/console.o -g -ggdb3 -O2 -Wall
  27              	@ -Wstrict-prototypes -Wextra -std=gnu90 -ffunction-sections
  28              	@ -fdata-sections -fdiagnostics-color=always -fverbose-asm
  29              	@ options enabled:  -faggressive-loop-optimizations -falign-functions
  30              	@ -falign-jumps -falign-labels -falign-loops -fauto-inc-dec
  31              	@ -fbranch-count-reg -fcaller-saves -fchkp-check-incomplete-type
  32              	@ -fchkp-check-read -fchkp-check-write -fchkp-instrument-calls
  33              	@ -fchkp-narrow-bounds -fchkp-optimize -fchkp-store-bounds
  34              	@ -fchkp-use-static-bounds -fchkp-use-static-const-bounds
  35              	@ -fchkp-use-wrappers -fcombine-stack-adjustments -fcommon -fcompare-elim
  36              	@ -fcprop-registers -fcrossjumping -fcse-follow-jumps -fdata-sections
  37              	@ -fdefer-pop -fdelete-null-pointer-checks -fdevirtualize
  38              	@ -fdevirtualize-speculatively -fdwarf2-cfi-asm -fearly-inlining
  39              	@ -feliminate-unused-debug-types -fexpensive-optimizations
  40              	@ -fforward-propagate -ffunction-cse -ffunction-sections -fgcse -fgcse-lm
  41              	@ -fgnu-runtime -fgnu-unique -fguess-branch-probability
  42              	@ -fhoist-adjacent-loads -fident -fif-conversion -fif-conversion2
  43              	@ -findirect-inlining -finline -finline-atomics
  44              	@ -finline-functions-called-once -finline-small-functions -fipa-cp
  45              	@ -fipa-cp-alignment -fipa-icf -fipa-icf-functions -fipa-icf-variables
  46              	@ -fipa-profile -fipa-pure-const -fipa-reference -fipa-sra
  47              	@ -fira-hoist-pressure -fira-share-save-slots -fira-share-spill-slots
  48              	@ -fisolate-erroneous-paths-dereference -fivopts -fkeep-static-consts
  49              	@ -fleading-underscore -flifetime-dse -flra-remat -flto-odr-type-merging
  50              	@ -fmath-errno -fmerge-constants -fmerge-debug-strings
  51              	@ -fmove-loop-invariants -fomit-frame-pointer -foptimize-sibling-calls
  52              	@ -foptimize-strlen -fpartial-inlining -fpeephole -fpeephole2
  53              	@ -fprefetch-loop-arrays -freg-struct-return -freorder-blocks
  54              	@ -freorder-functions -frerun-cse-after-loop
  55              	@ -fsched-critical-path-heuristic -fsched-dep-count-heuristic
  56              	@ -fsched-group-heuristic -fsched-interblock -fsched-last-insn-heuristic
  57              	@ -fsched-pressure -fsched-rank-heuristic -fsched-spec
ARM GAS  /var/folders/z0/6xlwn_996xz3mwq1cgzkbq4r0000gp/T//ccBgBTlB.s 			page 2


  58              	@ -fsched-spec-insn-heuristic -fsched-stalled-insns-dep -fschedule-insns2
  59              	@ -fsection-anchors -fsemantic-interposition -fshow-column -fshrink-wrap
  60              	@ -fsigned-zeros -fsplit-ivs-in-unroller -fsplit-wide-types -fssa-phiopt
  61              	@ -fstdarg-opt -fstrict-aliasing -fstrict-overflow
  62              	@ -fstrict-volatile-bitfields -fsync-libcalls -fthread-jumps
  63              	@ -ftoplevel-reorder -ftrapping-math -ftree-bit-ccp -ftree-builtin-call-dce
  64              	@ -ftree-ccp -ftree-ch -ftree-coalesce-vars -ftree-copy-prop
  65              	@ -ftree-copyrename -ftree-cselim -ftree-dce -ftree-dominator-opts
  66              	@ -ftree-dse -ftree-forwprop -ftree-fre -ftree-loop-if-convert
  67              	@ -ftree-loop-im -ftree-loop-ivcanon -ftree-loop-optimize
  68              	@ -ftree-parallelize-loops= -ftree-phiprop -ftree-pre -ftree-pta
  69              	@ -ftree-reassoc -ftree-scev-cprop -ftree-sink -ftree-slsr -ftree-sra
  70              	@ -ftree-switch-conversion -ftree-tail-merge -ftree-ter -ftree-vrp
  71              	@ -funit-at-a-time -fvar-tracking -fvar-tracking-assignments -fverbose-asm
  72              	@ -fzero-initialized-in-bss -mlittle-endian -mpic-data-is-text-relative
  73              	@ -msched-prolog -mthumb -mvectorize-with-neon-quad
  74              	
  75              		.text
  76              	.Ltext0:
  77              		.cfi_sections	.debug_frame
  78              		.section	.text.measure,"ax",%progbits
  79              		.align	2
  80              		.code	16
  81              		.thumb_func
  82              		.type	measure, %function
  83              	measure:
  84              	.LFB203:
  85              		.file 1 "src/console.c"
   1:src/console.c **** #include <string.h>
   2:src/console.c **** #include <stdlib.h>
   3:src/console.c **** #include "console.h"
   4:src/console.c **** #include "microrl.h"
   5:src/console.c **** #include "board.h"
   6:src/console.c **** #include "console_types.h"
   7:src/console.c **** #include "config.h"
   8:src/console.c **** #include "pack_config.h"
   9:src/console.c **** #include "ssm.h"
  10:src/console.c **** 
  11:src/console.c **** static CSB_INPUT_T *csb_input;
  12:src/console.c **** static CSB_STATE_T *csb_state;
  13:src/console.c **** static CONSOLE_OUTPUT_T *console_output;
  14:src/console.c **** 
  15:src/console.c **** static uint32_t lastPackCurrentPrintTime = 0;
  16:src/console.c **** static uint32_t lastPackVoltagePrintTime = 0;
  17:src/console.c **** 
  18:src/console.c **** // [TODO] Fix to not parse strings falsely
  19:src/console.c **** uint32_t my_atou(const char *str) {
  20:src/console.c ****     uint32_t res = 0; // Initialize result
  21:src/console.c **** 
  22:src/console.c ****     // Iterate through all characters of input string and
  23:src/console.c ****     // update result
  24:src/console.c ****     uint32_t i;
  25:src/console.c ****     for ( i = 0; str[i] != '\0'; ++i)
  26:src/console.c ****         res = res*10 + str[i] - '0';
  27:src/console.c **** 
  28:src/console.c ****     // return result.
  29:src/console.c ****     return res;
ARM GAS  /var/folders/z0/6xlwn_996xz3mwq1cgzkbq4r0000gp/T//ccBgBTlB.s 			page 3


  30:src/console.c **** }
  31:src/console.c **** 
  32:src/console.c **** static void get(const char * const * argv) {
  33:src/console.c ****     rw_loc_label_t rwloc;
  34:src/console.c **** 
  35:src/console.c ****     //loop over r/w entries
  36:src/console.c ****     bool foundloc = false;
  37:src/console.c ****     for (rwloc = 0; rwloc < RWL_LENGTH; ++rwloc){
  38:src/console.c ****         if (strcmp(argv[1],locstring[rwloc]) == 0){
  39:src/console.c ****             foundloc = true;
  40:src/console.c ****             break;
  41:src/console.c ****         }
  42:src/console.c ****     }
  43:src/console.c **** 
  44:src/console.c ****     if (foundloc) {
  45:src/console.c ****         char tempstr[20];
  46:src/console.c ****         switch (rwloc) {
  47:src/console.c ****             case RWL_cell_min_mV:
  48:src/console.c ****                 utoa(csb_state->pack_config->cell_min_mV, tempstr,10);
  49:src/console.c ****                 Board_Println(tempstr);
  50:src/console.c ****                 break;
  51:src/console.c ****             case RWL_cell_max_mV:
  52:src/console.c ****                 utoa(csb_state->pack_config->cell_max_mV, tempstr,10);
  53:src/console.c ****                 Board_Println(tempstr);
  54:src/console.c ****                 break;
  55:src/console.c ****             case RWL_cell_capacity_cAh:
  56:src/console.c ****                 utoa(csb_state->pack_config->cell_capacity_cAh, tempstr,10);
  57:src/console.c ****                 Board_Println(tempstr);
  58:src/console.c ****                 break;
  59:src/console.c ****             case RWL_num_modules:
  60:src/console.c ****                 utoa(csb_state->pack_config->num_modules, tempstr,10);
  61:src/console.c ****                 Board_Println(tempstr);
  62:src/console.c ****                 break;
  63:src/console.c ****             case RWL_module_cell_count:
  64:src/console.c ****                 utoa(csb_state->pack_config->module_cell_count, tempstr,10);
  65:src/console.c ****                 Board_Println(tempstr);
  66:src/console.c ****                 break;
  67:src/console.c ****             case RWL_cell_charge_c_rating_cC:
  68:src/console.c ****               utoa(csb_state->pack_config->cell_charge_c_rating_cC, tempstr,10);
  69:src/console.c ****               Board_Println(tempstr);
  70:src/console.c ****               break;
  71:src/console.c ****             case RWL_bal_on_thresh_mV:
  72:src/console.c ****                 utoa(csb_state->pack_config->bal_on_thresh_mV, tempstr,10);
  73:src/console.c ****                 Board_Println(tempstr);
  74:src/console.c ****                 break;
  75:src/console.c ****             case RWL_bal_off_thresh_mV:
  76:src/console.c ****                 utoa(csb_state->pack_config->bal_off_thresh_mV, tempstr,10);
  77:src/console.c ****                 Board_Println(tempstr);
  78:src/console.c ****                 break;
  79:src/console.c ****             case RWL_pack_cells_p:
  80:src/console.c ****                 utoa(csb_state->pack_config->pack_cells_p, tempstr,10);
  81:src/console.c ****                 Board_Println(tempstr);
  82:src/console.c ****                 break;
  83:src/console.c ****             case RWL_cv_min_current_mA:
  84:src/console.c ****                 utoa(csb_state->pack_config->cv_min_current_mA, tempstr,10);
  85:src/console.c ****                 Board_Println(tempstr);
  86:src/console.c ****                 break;
ARM GAS  /var/folders/z0/6xlwn_996xz3mwq1cgzkbq4r0000gp/T//ccBgBTlB.s 			page 4


  87:src/console.c ****             case RWL_cv_min_current_ms:
  88:src/console.c ****                 utoa(csb_state->pack_config->cv_min_current_ms, tempstr,10);
  89:src/console.c ****                 Board_Println(tempstr);
  90:src/console.c ****                 break;
  91:src/console.c ****             case RWL_cc_cell_voltage_mV:
  92:src/console.c ****                 utoa(csb_state->pack_config->cc_cell_voltage_mV, tempstr,10);
  93:src/console.c ****                 Board_Println(tempstr);
  94:src/console.c ****                 break;
  95:src/console.c ****             case RWL_cc_charge_voltage_mV:
  96:src/console.c ****                 utoa(csb_state->pack_config->cc_charge_voltage_mV, tempstr,10);
  97:src/console.c ****                 Board_Println(tempstr);
  98:src/console.c ****                 break;
  99:src/console.c ****             case RWL_cc_charge_current_mA:
 100:src/console.c ****                 utoa(csb_state->pack_config->cc_charge_current_mA, tempstr,10);
 101:src/console.c ****                 Board_Println(tempstr);
 102:src/console.c ****                 break;
 103:src/console.c ****             case RWL_cv_charge_voltage_mV:
 104:src/console.c ****                 utoa(csb_state->pack_config->cv_charge_voltage_mV, tempstr,10);
 105:src/console.c ****                 Board_Println(tempstr);
 106:src/console.c ****                 break;
 107:src/console.c ****             case RWL_cv_charge_current_mA:
 108:src/console.c ****                 utoa(csb_state->pack_config->cv_charge_current_mA, tempstr,10);
 109:src/console.c ****                 Board_Println(tempstr);
 110:src/console.c ****                 break;
 111:src/console.c ****             case RWL_bms_comm:
 112:src/console.c ****                 Board_Println(BMS_COMM_NAMES[csb_state->pack_config->bms_comm]);
 113:src/console.c ****                 break;
 114:src/console.c ****             case RWL_LENGTH:
 115:src/console.c ****                 break;
 116:src/console.c ****         }
 117:src/console.c **** 
 118:src/console.c ****     }
 119:src/console.c ****     else {
 120:src/console.c ****         //loop over r/o entries
 121:src/console.c ****         ro_loc_label_t roloc;
 122:src/console.c ****         for (roloc = (ro_loc_label_t)ROL_FIRST; roloc< ROL_LENGTH; ++roloc){
 123:src/console.c ****             if (strcmp(argv[1],locstring[roloc]) == 0){
 124:src/console.c ****                 foundloc = true;
 125:src/console.c ****                 break;
 126:src/console.c ****             }
 127:src/console.c ****         }
 128:src/console.c ****         if (foundloc) {
 129:src/console.c ****             char tempstr[20];
 130:src/console.c ****             switch (roloc) {
 131:src/console.c ****                 case ROL_total_num_cells:
 132:src/console.c ****                     utoa(csb_state->pack_config->total_num_cells, tempstr,10);
 133:src/console.c ****                     Board_Println(tempstr);
 134:src/console.c ****                     break;
 135:src/console.c ****                 case ROL_pack_name:
 136:src/console.c ****                     Board_Println(PACK_NAMES[csb_state->pack_config->pack_name]);
 137:src/console.c ****                     break;
 138:src/console.c ****                 case ROL_state:
 139:src/console.c ****                     Board_Println(CSB_SSM_MODE_NAMES[csb_state->curr_mode]);
 140:src/console.c ****                     Board_Println(CSB_INIT_MODE_NAMES[csb_state->init_state]);
 141:src/console.c ****                     Board_Println(CSB_CHARGE_MODE_NAMES[csb_state->charge_state]);
 142:src/console.c ****                     break;
 143:src/console.c ****                 case ROL_pack_cell_max_mV:
ARM GAS  /var/folders/z0/6xlwn_996xz3mwq1cgzkbq4r0000gp/T//ccBgBTlB.s 			page 5


 144:src/console.c ****                     utoa(csb_input->pack_status->pack_cell_max_mV, tempstr,10);
 145:src/console.c ****                     Board_Println(tempstr);
 146:src/console.c ****                     break;
 147:src/console.c ****                 case ROL_pack_current_mA:
 148:src/console.c ****                     utoa(csb_input->pack_status->pack_current_mA, tempstr,10);
 149:src/console.c ****                     Board_Println(tempstr);
 150:src/console.c ****                     break;
 151:src/console.c ****                 case ROL_pack_voltage_mV:
 152:src/console.c ****                     utoa(csb_input->pack_status->pack_voltage_mV, tempstr,10);
 153:src/console.c ****                     Board_Println(tempstr);
 154:src/console.c ****                     break;
 155:src/console.c ****                 case ROL_fault:
 156:src/console.c ****                     utoa(csb_input->low_side_cntr_fault, tempstr,10);
 157:src/console.c ****                     Board_Print("low side contactor fault ");
 158:src/console.c ****                     Board_Println(tempstr);
 159:src/console.c ****                     utoa(csb_input->imd_fault, tempstr,10);
 160:src/console.c ****                     Board_Print("IMD fault ");
 161:src/console.c ****                     Board_Println(tempstr);
 162:src/console.c ****                     utoa(csb_input->int_fault, tempstr,10);
 163:src/console.c ****                     Board_Print("interlock fault ");
 164:src/console.c ****                     Board_Println(tempstr);
 165:src/console.c ****                     utoa(csb_input->bms_fault, tempstr,10);
 166:src/console.c ****                     Board_Print("BMS fault ");
 167:src/console.c ****                     Board_Println(tempstr);
 168:src/console.c ****                     if (csb_input->bms_fault) {
 169:src/console.c ****                         utoa(csb_input->bms_error, tempstr,10);
 170:src/console.c ****                         Board_Print("  error ");
 171:src/console.c ****                         Board_Println(tempstr);
 172:src/console.c ****                     }
 173:src/console.c ****                     utoa(csb_input->elcon_status->elcon_on, tempstr,10);
 174:src/console.c ****                     Board_Print("elcon on ");
 175:src/console.c ****                     Board_Println(tempstr);
 176:src/console.c ****                     if (csb_input->elcon_status->elcon_on) {
 177:src/console.c ****                         if (csb_input->elcon_status->elcon_has_hardware_failure) {
 178:src/console.c ****                           Board_Println("  elcon has hardware failure");
 179:src/console.c ****                         } else if (csb_input->elcon_status->elcon_over_temp_protection_on) {
 180:src/console.c ****                           Board_Println("  elcon over temp protection on");
 181:src/console.c ****                         } else if (csb_input->elcon_status->elcon_is_input_voltage_wrong) {
 182:src/console.c ****                           Board_Println("  elcon input voltage is wrong");
 183:src/console.c ****                         } else if (csb_input->elcon_status->elcon_battery_voltage_not_detected) {
 184:src/console.c ****                           Board_Println("  elcon battery voltage not detected");
 185:src/console.c ****                         } else if (csb_input->elcon_status->elcon_is_comms_bad) {
 186:src/console.c ****                           Board_Println("  elcon comms is bad");
 187:src/console.c ****                         }
 188:src/console.c ****                     }
 189:src/console.c ****                     break;
 190:src/console.c ****                 case ROL_LENGTH:
 191:src/console.c ****                     break; //how the hell?
 192:src/console.c ****             }
 193:src/console.c ****         }
 194:src/console.c ****         else{
 195:src/console.c ****             Board_Println("invalid get location");
 196:src/console.c ****         }
 197:src/console.c ****     }
 198:src/console.c **** }
 199:src/console.c **** 
 200:src/console.c **** static void set(const char * const * argv) {
ARM GAS  /var/folders/z0/6xlwn_996xz3mwq1cgzkbq4r0000gp/T//ccBgBTlB.s 			page 6


 201:src/console.c ****     if (csb_state->curr_mode != CSB_SSM_MODE_IDLE)
 202:src/console.c ****     {
 203:src/console.c ****         Board_Println("Set failed (not in standby mode)!");
 204:src/console.c ****         return;
 205:src/console.c ****     }
 206:src/console.c ****     rw_loc_label_t rwloc;
 207:src/console.c ****     //loop over r/w entries
 208:src/console.c ****     bool foundloc = false;
 209:src/console.c ****     bool foundynloc;
 210:src/console.c ****     for (rwloc = 0; rwloc < RWL_LENGTH; ++rwloc){
 211:src/console.c ****         if (strcmp(argv[1],locstring[rwloc]) == 0){
 212:src/console.c ****             foundloc = true;
 213:src/console.c ****             break;
 214:src/console.c ****         }
 215:src/console.c ****     }
 216:src/console.c ****     if(foundloc){
 217:src/console.c ****         switch (rwloc) {
 218:src/console.c ****             case RWL_cell_min_mV:
 219:src/console.c ****                 csb_state->pack_config->cell_min_mV = my_atou(argv[2]);
 220:src/console.c ****                 Board_Println("Done!");
 221:src/console.c ****                 break;
 222:src/console.c ****             case RWL_cell_max_mV:
 223:src/console.c ****                 csb_state->pack_config->cell_max_mV = my_atou(argv[2]);
 224:src/console.c ****                 Board_Println("Done!");
 225:src/console.c ****                 break;
 226:src/console.c ****             case RWL_cell_capacity_cAh:
 227:src/console.c ****                 csb_state->pack_config->cell_capacity_cAh = my_atou(argv[2]);
 228:src/console.c ****                 Board_Println("Done!");
 229:src/console.c ****                 break;
 230:src/console.c ****             case RWL_num_modules:
 231:src/console.c ****                 csb_state->pack_config->num_modules = my_atou(argv[2]);
 232:src/console.c ****                 Board_Println("Done!");
 233:src/console.c ****                 break;
 234:src/console.c ****             case RWL_module_cell_count:
 235:src/console.c ****                 csb_state->pack_config->module_cell_count = my_atou(argv[2]);
 236:src/console.c ****                 Board_Println("Done!");
 237:src/console.c ****                 break;
 238:src/console.c ****             case RWL_cell_charge_c_rating_cC:
 239:src/console.c ****               csb_state->pack_config->cell_charge_c_rating_cC = my_atou(argv[2]);
 240:src/console.c ****               Board_Println("Done!");
 241:src/console.c ****               break;
 242:src/console.c ****             case RWL_bal_on_thresh_mV:
 243:src/console.c ****                 csb_state->pack_config->bal_on_thresh_mV = my_atou(argv[2]);
 244:src/console.c ****                 Board_Println("Done!");
 245:src/console.c ****                 break;
 246:src/console.c ****             case RWL_bal_off_thresh_mV:
 247:src/console.c ****                 csb_state->pack_config->bal_off_thresh_mV = my_atou(argv[2]);
 248:src/console.c ****                 Board_Println("Done!");
 249:src/console.c ****                 break;
 250:src/console.c ****             case RWL_pack_cells_p:
 251:src/console.c ****                 csb_state->pack_config->pack_cells_p = my_atou(argv[2]);
 252:src/console.c ****                 Board_Println("Done!");
 253:src/console.c ****                 break;
 254:src/console.c ****             case RWL_cv_min_current_mA:
 255:src/console.c ****                 csb_state->pack_config->cv_min_current_mA = my_atou(argv[2]);
 256:src/console.c ****                 Board_Println("Done!");
 257:src/console.c ****                 break;
ARM GAS  /var/folders/z0/6xlwn_996xz3mwq1cgzkbq4r0000gp/T//ccBgBTlB.s 			page 7


 258:src/console.c ****             case RWL_cv_min_current_ms:
 259:src/console.c ****                 csb_state->pack_config->cv_min_current_ms = my_atou(argv[2]);
 260:src/console.c ****                 Board_Println("Done!");
 261:src/console.c ****                 break;
 262:src/console.c ****             case RWL_cc_cell_voltage_mV:
 263:src/console.c ****                 csb_state->pack_config->cc_cell_voltage_mV = my_atou(argv[2]);
 264:src/console.c ****                 Board_Println("Done!");
 265:src/console.c ****                 break;
 266:src/console.c ****             case RWL_cc_charge_voltage_mV:
 267:src/console.c ****                 csb_state->pack_config->cc_charge_voltage_mV = my_atou(argv[2]);
 268:src/console.c ****                 Board_Println("Done!");
 269:src/console.c ****                 break;
 270:src/console.c ****             case RWL_cc_charge_current_mA:
 271:src/console.c ****                 csb_state->pack_config->cc_charge_current_mA = my_atou(argv[2]);
 272:src/console.c ****                 Board_Println("Done!");
 273:src/console.c ****                 break;
 274:src/console.c ****             case RWL_cv_charge_voltage_mV:
 275:src/console.c ****                 csb_state->pack_config->cv_charge_voltage_mV = my_atou(argv[2]);
 276:src/console.c ****                 Board_Println("Done!");
 277:src/console.c ****                 break;
 278:src/console.c ****             case RWL_cv_charge_current_mA:
 279:src/console.c ****                 csb_state->pack_config->cv_charge_current_mA = my_atou(argv[2]);
 280:src/console.c ****                 Board_Println("Done!");
 281:src/console.c ****                 break;
 282:src/console.c ****             case RWL_bms_comm:
 283:src/console.c ****                 foundynloc = false;
 284:src/console.c ****                 yn_loc_label_t ynloc;
 285:src/console.c ****                 for (ynloc = 0; ynloc< YNL_LENGTH; ++ynloc){
 286:src/console.c ****                     if (strcmp(argv[2],yn_locstring[ynloc]) == 0){
 287:src/console.c ****                         foundynloc = true;
 288:src/console.c ****                         break;
 289:src/console.c ****                     }
 290:src/console.c ****                 }
 291:src/console.c ****                 if (foundynloc) {
 292:src/console.c ****                     switch (ynloc) {
 293:src/console.c ****                         case YNL_YES:
 294:src/console.c ****                             csb_state->pack_config->bms_comm = BMS_YES_COMM;
 295:src/console.c ****                             Board_Println("Done!");
 296:src/console.c ****                             break;
 297:src/console.c ****                         case YNL_NO:
 298:src/console.c ****                             csb_state->pack_config->bms_comm = BMS_NO_COMM;
 299:src/console.c ****                             Board_Println("Done!");
 300:src/console.c ****                             break;
 301:src/console.c ****                         case YNL_LENGTH:
 302:src/console.c ****                             break;
 303:src/console.c ****                     }
 304:src/console.c ****                 } else {
 305:src/console.c ****                     Board_Println("invalid location");
 306:src/console.c ****                 }
 307:src/console.c ****                 break;
 308:src/console.c ****             case RWL_LENGTH:
 309:src/console.c ****                 break;
 310:src/console.c ****         }
 311:src/console.c ****     } else {
 312:src/console.c ****         //loop over r/o entries
 313:src/console.c ****         ro_loc_label_t roloc;
 314:src/console.c ****         for (roloc = (ro_loc_label_t)ROL_FIRST; roloc< ROL_LENGTH; ++roloc){
ARM GAS  /var/folders/z0/6xlwn_996xz3mwq1cgzkbq4r0000gp/T//ccBgBTlB.s 			page 8


 315:src/console.c ****             if (strcmp(argv[1],locstring[roloc]) == 0){
 316:src/console.c ****                 foundloc = true;
 317:src/console.c ****                 Board_Println("this location is read only");
 318:src/console.c ****                 return;
 319:src/console.c ****             }
 320:src/console.c ****         }
 321:src/console.c ****         Board_Println("invalid location");
 322:src/console.c ****     }
 323:src/console.c **** }
 324:src/console.c **** 
 325:src/console.c **** static void help(const char * const * argv) {
 326:src/console.c ****     command_label_t command_i = 0;
 327:src/console.c ****     for (command_i = 0; command_i < NUMCOMMANDS; ++command_i)
 328:src/console.c ****     {
 329:src/console.c ****         if (strcmp(argv[1],commands[command_i]) == 0){
 330:src/console.c ****             Board_Println_BLOCKING(helpstring[command_i]); //blocking print
 331:src/console.c **** 
 332:src/console.c ****             break;
 333:src/console.c ****         }
 334:src/console.c ****     }
 335:src/console.c ****     Board_Print("");
 336:src/console.c **** 
 337:src/console.c ****     if (command_i == C_GET || command_i == C_SET)
 338:src/console.c ****     {
 339:src/console.c ****         rw_loc_label_t i;
 340:src/console.c ****         Board_Println_BLOCKING("------r/w entries------");
 341:src/console.c ****         for (i = 0; i < RWL_LENGTH; ++i){
 342:src/console.c ****             Board_Println_BLOCKING(locstring[i]); //blocking print.
 343:src/console.c ****         }
 344:src/console.c **** 
 345:src/console.c ****         Board_Println_BLOCKING("------r/o entries------");
 346:src/console.c ****         for (i = ROL_FIRST; i < (rw_loc_label_t)(ROL_LENGTH); ++i){
 347:src/console.c ****             Board_Println_BLOCKING(locstring[i]); //blocking print.
 348:src/console.c ****         }
 349:src/console.c ****     }
 350:src/console.c **** }
 351:src/console.c **** 
 352:src/console.c **** static void config_def(const char * const * argv) {
 353:src/console.c ****   bool foundloc = false;
 354:src/console.c ****   config_loc_label_t configloc;
 355:src/console.c ****   for (configloc = 0; configloc< CONL_LENGTH; ++configloc){
 356:src/console.c ****       if (strcmp(argv[1],config_locstring[configloc]) == 0){
 357:src/console.c ****           foundloc = true;
 358:src/console.c ****           break;
 359:src/console.c ****       }
 360:src/console.c ****   }
 361:src/console.c ****   if (foundloc) {
 362:src/console.c ****       switch (configloc) {
 363:src/console.c ****           case CONL_MY18:
 364:src/console.c ****               MY18_Pack_Config(csb_state);
 365:src/console.c ****               Board_Println("Done!");
 366:src/console.c ****               break;
 367:src/console.c ****           case CONL_MY16:
 368:src/console.c ****               MY16_Pack_Config(csb_state);
 369:src/console.c ****               Board_Println("Done!");
 370:src/console.c ****               break;
 371:src/console.c ****           case CONL_LENGTH:
ARM GAS  /var/folders/z0/6xlwn_996xz3mwq1cgzkbq4r0000gp/T//ccBgBTlB.s 			page 9


 372:src/console.c ****               break;
 373:src/console.c ****       }
 374:src/console.c ****   } else {
 375:src/console.c ****       Board_Println("invalid location");
 376:src/console.c ****   }
 377:src/console.c **** }
 378:src/console.c **** 
 379:src/console.c **** static void measure(const char * const * argv) {
  86              		.loc 1 379 0
  87              		.cfi_startproc
  88              		@ args = 0, pretend = 0, frame = 0
  89              		@ frame_needed = 0, uses_anonymous_args = 0
  90              	.LVL0:
  91 0000 10B5     		push	{r4, lr}	@
  92              		.cfi_def_cfa_offset 8
  93              		.cfi_offset 4, -8
  94              		.cfi_offset 14, -4
 380:src/console.c ****     if (strcmp(argv[1],"on") == 0) {
  95              		.loc 1 380 0
  96 0002 4468     		ldr	r4, [r0, #4]	@ D.8233, MEM[(const char * const *)argv_3(D) + 4B]
  97 0004 2C49     		ldr	r1, .L17	@,
  98 0006 2000     		movs	r0, r4	@, D.8233
  99              	.LVL1:
 100 0008 FFF7FEFF 		bl	strcmp	@
 101              	.LVL2:
 102 000c 0028     		cmp	r0, #0	@ tmp130,
 103 000e 2ED0     		beq	.L12	@,
 381:src/console.c ****         console_output->measure_on = true;
 382:src/console.c ****         Board_Println("Measure On!");
 383:src/console.c **** 
 384:src/console.c ****     } else if (strcmp(argv[1],"off") == 0) {
 104              		.loc 1 384 0
 105 0010 2A49     		ldr	r1, .L17+4	@,
 106 0012 2000     		movs	r0, r4	@, D.8233
 107 0014 FFF7FEFF 		bl	strcmp	@
 108              	.LVL3:
 109 0018 0028     		cmp	r0, #0	@ tmp138,
 110 001a 42D0     		beq	.L13	@,
 385:src/console.c ****         console_output->measure_on = false;
 386:src/console.c ****         Board_Println("Measure Off!");
 387:src/console.c **** 
 388:src/console.c ****     } else if (strcmp(argv[1],"print_flags") == 0) {
 111              		.loc 1 388 0
 112 001c 2849     		ldr	r1, .L17+8	@,
 113 001e 2000     		movs	r0, r4	@, D.8233
 114 0020 FFF7FEFF 		bl	strcmp	@
 115              	.LVL4:
 116 0024 0028     		cmp	r0, #0	@ tmp146,
 117 0026 0FD1     		bne	.L5	@,
 389:src/console.c **** 
 390:src/console.c ****         if(console_output->measure_packcurrent) {
 118              		.loc 1 390 0
 119 0028 264C     		ldr	r4, .L17+12	@ tmp179,
 120 002a 2368     		ldr	r3, [r4]	@ tmp180, console_output
 121 002c 5B7A     		ldrb	r3, [r3, #9]	@ tmp150,
 122 002e 002B     		cmp	r3, #0	@ tmp150,
 123 0030 25D1     		bne	.L14	@,
ARM GAS  /var/folders/z0/6xlwn_996xz3mwq1cgzkbq4r0000gp/T//ccBgBTlB.s 			page 10


 391:src/console.c ****             Board_Println("Pack Current: On");
 392:src/console.c ****         } else {
 393:src/console.c ****             Board_Println("Pack Current: Off");
 124              		.loc 1 393 0
 125 0032 2548     		ldr	r0, .L17+16	@,
 126 0034 FFF7FEFF 		bl	Board_Println	@
 127              	.LVL5:
 394:src/console.c ****         }
 395:src/console.c **** 
 396:src/console.c ****         if(console_output->measure_packvoltage) {
 128              		.loc 1 396 0
 129 0038 2368     		ldr	r3, [r4]	@ console_output, console_output
 130 003a 9B7A     		ldrb	r3, [r3, #10]	@ tmp155,
 131 003c 002B     		cmp	r3, #0	@ tmp155,
 132 003e 25D0     		beq	.L8	@,
 133              	.L16:
 397:src/console.c ****             Board_Println("Pack Current: On");
 134              		.loc 1 397 0
 135 0040 2248     		ldr	r0, .L17+20	@,
 136 0042 FFF7FEFF 		bl	Board_Println	@
 137              	.LVL6:
 138 0046 19E0     		b	.L1	@
 139              	.L5:
 398:src/console.c ****         } else {
 399:src/console.c ****             Board_Println("Pack Current: Off");
 400:src/console.c ****         }
 401:src/console.c **** 
 402:src/console.c ****     } else if (strcmp(argv[1],"packcurrent") == 0) {
 140              		.loc 1 402 0
 141 0048 2149     		ldr	r1, .L17+24	@,
 142 004a 2000     		movs	r0, r4	@, D.8233
 143 004c FFF7FEFF 		bl	strcmp	@
 144              	.LVL7:
 145 0050 0028     		cmp	r0, #0	@ tmp159,
 146 0052 1FD0     		beq	.L15	@,
 403:src/console.c ****         console_output->measure_packcurrent = !console_output->measure_packcurrent;
 404:src/console.c **** 
 405:src/console.c ****     } else if (strcmp(argv[1],"packvoltage") == 0) {
 147              		.loc 1 405 0
 148 0054 1F49     		ldr	r1, .L17+28	@,
 149 0056 2000     		movs	r0, r4	@, D.8233
 150 0058 FFF7FEFF 		bl	strcmp	@
 151              	.LVL8:
 152 005c 0028     		cmp	r0, #0	@ tmp169,
 153 005e 27D1     		bne	.L10	@,
 406:src/console.c ****         console_output->measure_packvoltage = !console_output->measure_packvoltage;
 154              		.loc 1 406 0
 155 0060 184B     		ldr	r3, .L17+12	@ tmp171,
 156 0062 1A68     		ldr	r2, [r3]	@ D.8235, console_output
 157 0064 0123     		movs	r3, #1	@ tmp172,
 158 0066 917A     		ldrb	r1, [r2, #10]	@ tmp175,
 159 0068 4B40     		eors	r3, r1	@ tmp176, tmp175
 160 006a 9372     		strb	r3, [r2, #10]	@ tmp176, _29->measure_packvoltage
 161 006c 06E0     		b	.L1	@
 162              	.L12:
 381:src/console.c ****         Board_Println("Measure On!");
 163              		.loc 1 381 0
ARM GAS  /var/folders/z0/6xlwn_996xz3mwq1cgzkbq4r0000gp/T//ccBgBTlB.s 			page 11


 164 006e 0122     		movs	r2, #1	@ tmp134,
 165 0070 144B     		ldr	r3, .L17+12	@ tmp132,
 382:src/console.c **** 
 166              		.loc 1 382 0
 167 0072 1948     		ldr	r0, .L17+32	@,
 381:src/console.c ****         Board_Println("Measure On!");
 168              		.loc 1 381 0
 169 0074 1B68     		ldr	r3, [r3]	@ console_output, console_output
 170 0076 1A72     		strb	r2, [r3, #8]	@ tmp134, _7->measure_on
 382:src/console.c **** 
 171              		.loc 1 382 0
 172 0078 FFF7FEFF 		bl	Board_Println	@
 173              	.LVL9:
 174              	.L1:
 407:src/console.c **** 
 408:src/console.c ****     } else {
 409:src/console.c ****         Board_Println("Unrecognized command!");
 410:src/console.c ****     }
 411:src/console.c **** }
 175              		.loc 1 411 0
 176              		@ sp needed	@
 177 007c 10BD     		pop	{r4, pc}
 178              	.L14:
 391:src/console.c ****         } else {
 179              		.loc 1 391 0
 180 007e 1348     		ldr	r0, .L17+20	@,
 181 0080 FFF7FEFF 		bl	Board_Println	@
 182              	.LVL10:
 396:src/console.c ****             Board_Println("Pack Current: On");
 183              		.loc 1 396 0
 184 0084 2368     		ldr	r3, [r4]	@ console_output, console_output
 185 0086 9B7A     		ldrb	r3, [r3, #10]	@ tmp155,
 186 0088 002B     		cmp	r3, #0	@ tmp155,
 187 008a D9D1     		bne	.L16	@,
 188              	.L8:
 399:src/console.c ****         }
 189              		.loc 1 399 0
 190 008c 0E48     		ldr	r0, .L17+16	@,
 191 008e FFF7FEFF 		bl	Board_Println	@
 192              	.LVL11:
 193 0092 F3E7     		b	.L1	@
 194              	.L15:
 403:src/console.c **** 
 195              		.loc 1 403 0
 196 0094 0B4B     		ldr	r3, .L17+12	@ tmp161,
 197 0096 1A68     		ldr	r2, [r3]	@ D.8235, console_output
 198 0098 0123     		movs	r3, #1	@ tmp162,
 199 009a 517A     		ldrb	r1, [r2, #9]	@ tmp165,
 200 009c 4B40     		eors	r3, r1	@ tmp166, tmp165
 201 009e 5372     		strb	r3, [r2, #9]	@ tmp166, _24->measure_packcurrent
 202 00a0 ECE7     		b	.L1	@
 203              	.L13:
 385:src/console.c ****         Board_Println("Measure Off!");
 204              		.loc 1 385 0
 205 00a2 084B     		ldr	r3, .L17+12	@ tmp140,
 206 00a4 1B68     		ldr	r3, [r3]	@ console_output, console_output
 207 00a6 1872     		strb	r0, [r3, #8]	@ tmp138, _11->measure_on
ARM GAS  /var/folders/z0/6xlwn_996xz3mwq1cgzkbq4r0000gp/T//ccBgBTlB.s 			page 12


 386:src/console.c **** 
 208              		.loc 1 386 0
 209 00a8 0C48     		ldr	r0, .L17+36	@,
 210 00aa FFF7FEFF 		bl	Board_Println	@
 211              	.LVL12:
 212 00ae E5E7     		b	.L1	@
 213              	.L10:
 409:src/console.c ****     }
 214              		.loc 1 409 0
 215 00b0 0B48     		ldr	r0, .L17+40	@,
 216 00b2 FFF7FEFF 		bl	Board_Println	@
 217              	.LVL13:
 218              		.loc 1 411 0
 219 00b6 E1E7     		b	.L1	@
 220              	.L18:
 221              		.align	2
 222              	.L17:
 223 00b8 00000000 		.word	.LC0
 224 00bc 10000000 		.word	.LC5
 225 00c0 24000000 		.word	.LC9
 226 00c4 00000000 		.word	.LANCHOR0
 227 00c8 44000000 		.word	.LC13
 228 00cc 30000000 		.word	.LC11
 229 00d0 58000000 		.word	.LC15
 230 00d4 64000000 		.word	.LC17
 231 00d8 04000000 		.word	.LC3
 232 00dc 14000000 		.word	.LC7
 233 00e0 70000000 		.word	.LC19
 234              		.cfi_endproc
 235              	.LFE203:
 236              		.size	measure, .-measure
 237              		.section	.text.set,"ax",%progbits
 238              		.align	2
 239              		.code	16
 240              		.thumb_func
 241              		.type	set, %function
 242              	set:
 243              	.LFB200:
 200:src/console.c ****     if (csb_state->curr_mode != CSB_SSM_MODE_IDLE)
 244              		.loc 1 200 0
 245              		.cfi_startproc
 246              		@ args = 0, pretend = 0, frame = 0
 247              		@ frame_needed = 0, uses_anonymous_args = 0
 248              	.LVL14:
 249 0000 F8B5     		push	{r3, r4, r5, r6, r7, lr}	@
 250              		.cfi_def_cfa_offset 24
 251              		.cfi_offset 3, -24
 252              		.cfi_offset 4, -20
 253              		.cfi_offset 5, -16
 254              		.cfi_offset 6, -12
 255              		.cfi_offset 7, -8
 256              		.cfi_offset 14, -4
 257 0002 4F46     		mov	r7, r9	@,
 258 0004 4646     		mov	r6, r8	@,
 259 0006 C0B4     		push	{r6, r7}	@
 260              		.cfi_def_cfa_offset 32
 261              		.cfi_offset 8, -32
ARM GAS  /var/folders/z0/6xlwn_996xz3mwq1cgzkbq4r0000gp/T//ccBgBTlB.s 			page 13


 262              		.cfi_offset 9, -28
 201:src/console.c ****     {
 263              		.loc 1 201 0
 264 0008 C44B     		ldr	r3, .L114	@ tmp377,
 200:src/console.c ****     if (csb_state->curr_mode != CSB_SSM_MODE_IDLE)
 265              		.loc 1 200 0
 266 000a 8046     		mov	r8, r0	@ argv, argv
 201:src/console.c ****     {
 267              		.loc 1 201 0
 268 000c 1F68     		ldr	r7, [r3]	@ D.8366, csb_state
 269 000e 3B79     		ldrb	r3, [r7, #4]	@ tmp378,
 270 0010 012B     		cmp	r3, #1	@ tmp378,
 271 0012 22D1     		bne	.L111	@,
 272 0014 C24B     		ldr	r3, .L114+4	@ ivtmp.110,
 273 0016 4668     		ldr	r6, [r0, #4]	@ D.8375, MEM[(const char * const *)argv_11(D) + 4B]
 274 0018 9946     		mov	r9, r3	@ ivtmp.110, ivtmp.110
 275 001a 1D1D     		adds	r5, r3, #4	@ ivtmp.125, ivtmp.110,
 276 001c C149     		ldr	r1, .L114+8	@ D.8375,
 277 001e 0024     		movs	r4, #0	@ rwloc,
 278 0020 00E0     		b	.L25	@
 279              	.LVL15:
 280              	.L23:
 281 0022 02CD     		ldmia	r5!, {r1}	@ MEM[base: _250, offset: 0B], D.8375
 282              	.LVL16:
 283              	.L25:
 211:src/console.c ****             foundloc = true;
 284              		.loc 1 211 0
 285 0024 3000     		movs	r0, r6	@, D.8375
 286 0026 FFF7FEFF 		bl	strcmp	@
 287              	.LVL17:
 288 002a 0028     		cmp	r0, #0	@ tmp381,
 289 002c 1CD0     		beq	.L22	@,
 210:src/console.c ****         if (strcmp(argv[1],locstring[rwloc]) == 0){
 290              		.loc 1 210 0 discriminator 2
 291 002e 0134     		adds	r4, r4, #1	@ tmp383,
 292              	.LVL18:
 293 0030 E4B2     		uxtb	r4, r4	@ rwloc, tmp383
 294              	.LVL19:
 295 0032 112C     		cmp	r4, #17	@ rwloc,
 296 0034 F5D1     		bne	.L23	@,
 297 0036 4D46     		mov	r5, r9	@ D.8373, ivtmp.110
 298 0038 4C46     		mov	r4, r9	@ ivtmp.110, ivtmp.110
 299              	.LVL20:
 300 003a 1C35     		adds	r5, r5, #28	@ D.8373,
 210:src/console.c ****         if (strcmp(argv[1],locstring[rwloc]) == 0){
 301              		.loc 1 210 0 is_stmt 0
 302 003c BA49     		ldr	r1, .L114+12	@ D.8375,
 303 003e 00E0     		b	.L24	@
 304              	.LVL21:
 305              	.L113:
 306 0040 616C     		ldr	r1, [r4, #68]	@ D.8375, MEM[base: _154, offset: 68B]
 307              	.L24:
 308              	.LBB41:
 315:src/console.c ****                 foundloc = true;
 309              		.loc 1 315 0 is_stmt 1
 310 0042 3000     		movs	r0, r6	@, D.8375
 311 0044 FFF7FEFF 		bl	strcmp	@
ARM GAS  /var/folders/z0/6xlwn_996xz3mwq1cgzkbq4r0000gp/T//ccBgBTlB.s 			page 14


 312              	.LVL22:
 313 0048 0028     		cmp	r0, #0	@ tmp482,
 314 004a 13D0     		beq	.L112	@,
 315 004c 0434     		adds	r4, r4, #4	@ ivtmp.110,
 314:src/console.c ****             if (strcmp(argv[1],locstring[roloc]) == 0){
 316              		.loc 1 314 0 discriminator 2
 317 004e A542     		cmp	r5, r4	@ D.8373, ivtmp.110
 318 0050 F6D1     		bne	.L113	@,
 319              	.L75:
 321:src/console.c ****     }
 320              		.loc 1 321 0
 321 0052 B648     		ldr	r0, .L114+16	@,
 322 0054 FFF7FEFF 		bl	Board_Println	@
 323              	.LVL23:
 324 0058 02E0     		b	.L19	@
 325              	.LVL24:
 326              	.L111:
 327              	.LBE41:
 203:src/console.c ****         return;
 328              		.loc 1 203 0
 329 005a B548     		ldr	r0, .L114+20	@,
 330              	.LVL25:
 331 005c FFF7FEFF 		bl	Board_Println	@
 332              	.LVL26:
 333              	.L19:
 323:src/console.c **** 
 334              		.loc 1 323 0
 335              		@ sp needed	@
 336              	.LVL27:
 337 0060 0CBC     		pop	{r2, r3}
 338 0062 9046     		mov	r8, r2
 339 0064 9946     		mov	r9, r3
 340 0066 F8BD     		pop	{r3, r4, r5, r6, r7, pc}
 341              	.LVL28:
 342              	.L22:
 217:src/console.c ****             case RWL_cell_min_mV:
 343              		.loc 1 217 0
 344 0068 102C     		cmp	r4, #16	@ rwloc,
 345 006a 1FD8     		bhi	.L26	@,
 346 006c B14B     		ldr	r3, .L114+24	@ tmp488,
 347 006e A400     		lsls	r4, r4, #2	@ tmp486, rwloc,
 348              	.LVL29:
 349 0070 1B59     		ldr	r3, [r3, r4]	@ tmp489,
 350 0072 9F46     		mov	pc, r3	@ tmp489
 351              		.section	.rodata.set,"a",%progbits
 352              		.align	2
 353              	.L76:
 354 0000 AC000000 		.word	.L26
 355 0004 FC010000 		.word	.L29
 356 0008 2C020000 		.word	.L32
 357 000c 3C010000 		.word	.L35
 358 0010 6C010000 		.word	.L38
 359 0014 BC020000 		.word	.L41
 360 0018 EC020000 		.word	.L44
 361 001c DC000000 		.word	.L47
 362 0020 0C010000 		.word	.L50
 363 0024 5C020000 		.word	.L53
ARM GAS  /var/folders/z0/6xlwn_996xz3mwq1cgzkbq4r0000gp/T//ccBgBTlB.s 			page 15


 364 0028 8C020000 		.word	.L56
 365 002c 9C010000 		.word	.L59
 366 0030 CC010000 		.word	.L62
 367 0034 40030000 		.word	.L65
 368 0038 6E030000 		.word	.L68
 369 003c 7C000000 		.word	.L71
 370 0040 9C030000 		.word	.L77
 371              		.section	.text.set
 372              	.LVL30:
 373              	.L112:
 374              	.LBB42:
 317:src/console.c ****                 return;
 375              		.loc 1 317 0
 376 0074 B048     		ldr	r0, .L114+28	@,
 377 0076 FFF7FEFF 		bl	Board_Println	@
 378              	.LVL31:
 318:src/console.c ****             }
 379              		.loc 1 318 0
 380 007a F1E7     		b	.L19	@
 381              	.L71:
 382              	.LBE42:
 383              	.LBB43:
 279:src/console.c ****                 Board_Println("Done!");
 384              		.loc 1 279 0
 385 007c 4346     		mov	r3, r8	@ argv, argv
 386 007e 9968     		ldr	r1, [r3, #8]	@ D.8370, MEM[(const char * const *)argv_11(D) + 8B]
 387 0080 3C68     		ldr	r4, [r7]	@ D.8369, _8->pack_config
 388              	.LVL32:
 389              	.LBB44:
 390              	.LBB45:
  25:src/console.c ****         res = res*10 + str[i] - '0';
 391              		.loc 1 25 0
 392 0082 0A78     		ldrb	r2, [r1]	@ D.8372, *_38
 393 0084 002A     		cmp	r2, #0	@ D.8372,
 394 0086 00D1     		bne	.LCB295	@
 395 0088 C0E1     		b	.L94	@long jump	@
 396              	.LCB295:
 397              	.LVL33:
 398 008a 0023     		movs	r3, #0	@ res,
 399              	.LVL34:
 400 008c 0131     		adds	r1, r1, #1	@ ivtmp.90,
 401              	.LVL35:
 402              	.L73:
  26:src/console.c **** 
 403              		.loc 1 26 0
 404 008e 9800     		lsls	r0, r3, #2	@ tmp477, res,
 405 0090 C318     		adds	r3, r0, r3	@ D.8371, tmp477, res
 406              	.LVL36:
 407 0092 5B00     		lsls	r3, r3, #1	@ tmp479, D.8371,
 408 0094 0131     		adds	r1, r1, #1	@ ivtmp.90,
 409              	.LVL37:
 410 0096 9B18     		adds	r3, r3, r2	@ D.8371, tmp479, D.8372
  25:src/console.c ****         res = res*10 + str[i] - '0';
 411              		.loc 1 25 0
 412 0098 4A1E     		subs	r2, r1, #1	@ D.8374, ivtmp.90,
 413 009a 1278     		ldrb	r2, [r2]	@ D.8372, MEM[base: _157, offset: 0B]
  26:src/console.c **** 
ARM GAS  /var/folders/z0/6xlwn_996xz3mwq1cgzkbq4r0000gp/T//ccBgBTlB.s 			page 16


 414              		.loc 1 26 0
 415 009c 303B     		subs	r3, r3, #48	@ res,
 416              	.LVL38:
  25:src/console.c ****         res = res*10 + str[i] - '0';
 417              		.loc 1 25 0
 418 009e 002A     		cmp	r2, #0	@ D.8372,
 419 00a0 F5D1     		bne	.L73	@,
 420              	.LVL39:
 421              	.L72:
 422              	.LBE45:
 423              	.LBE44:
 279:src/console.c ****                 Board_Println("Done!");
 424              		.loc 1 279 0
 425 00a2 2364     		str	r3, [r4, #64]	@ res, _37->cv_charge_current_mA
 280:src/console.c ****                 break;
 426              		.loc 1 280 0
 427 00a4 A548     		ldr	r0, .L114+32	@,
 428 00a6 FFF7FEFF 		bl	Board_Println	@
 429              	.LVL40:
 281:src/console.c ****             case RWL_bms_comm:
 430              		.loc 1 281 0
 431 00aa D9E7     		b	.L19	@
 432              	.L26:
 219:src/console.c ****                 Board_Println("Done!");
 433              		.loc 1 219 0
 434 00ac 4346     		mov	r3, r8	@ argv, argv
 435 00ae 9968     		ldr	r1, [r3, #8]	@ D.8370, MEM[(const char * const *)argv_11(D) + 8B]
 436 00b0 3C68     		ldr	r4, [r7]	@ D.8369, _8->pack_config
 437              	.LVL41:
 438              	.LBB47:
 439              	.LBB48:
  25:src/console.c ****         res = res*10 + str[i] - '0';
 440              		.loc 1 25 0
 441 00b2 0A78     		ldrb	r2, [r1]	@ D.8372, *_19
 442 00b4 002A     		cmp	r2, #0	@ D.8372,
 443 00b6 00D1     		bne	.LCB347	@
 444 00b8 A0E1     		b	.L79	@long jump	@
 445              	.LCB347:
 446              	.LVL42:
 447 00ba 0023     		movs	r3, #0	@ res,
 448              	.LVL43:
 449 00bc 0131     		adds	r1, r1, #1	@ ivtmp.29,
 450              	.LVL44:
 451              	.L28:
  26:src/console.c **** 
 452              		.loc 1 26 0
 453 00be 9800     		lsls	r0, r3, #2	@ tmp387, res,
 454 00c0 C318     		adds	r3, r0, r3	@ D.8371, tmp387, res
 455              	.LVL45:
 456 00c2 5B00     		lsls	r3, r3, #1	@ tmp389, D.8371,
 457 00c4 0131     		adds	r1, r1, #1	@ ivtmp.29,
 458              	.LVL46:
 459 00c6 9B18     		adds	r3, r3, r2	@ D.8371, tmp389, D.8372
  25:src/console.c ****         res = res*10 + str[i] - '0';
 460              		.loc 1 25 0
 461 00c8 4A1E     		subs	r2, r1, #1	@ D.8374, ivtmp.29,
 462 00ca 1278     		ldrb	r2, [r2]	@ D.8372, MEM[base: _376, offset: 0B]
ARM GAS  /var/folders/z0/6xlwn_996xz3mwq1cgzkbq4r0000gp/T//ccBgBTlB.s 			page 17


  26:src/console.c **** 
 463              		.loc 1 26 0
 464 00cc 303B     		subs	r3, r3, #48	@ res,
 465              	.LVL47:
  25:src/console.c ****         res = res*10 + str[i] - '0';
 466              		.loc 1 25 0
 467 00ce 002A     		cmp	r2, #0	@ D.8372,
 468 00d0 F5D1     		bne	.L28	@,
 469              	.LVL48:
 470              	.L27:
 471              	.LBE48:
 472              	.LBE47:
 219:src/console.c ****                 Board_Println("Done!");
 473              		.loc 1 219 0
 474 00d2 2360     		str	r3, [r4]	@ res, _18->cell_min_mV
 220:src/console.c ****                 break;
 475              		.loc 1 220 0
 476 00d4 9948     		ldr	r0, .L114+32	@,
 477 00d6 FFF7FEFF 		bl	Board_Println	@
 478              	.LVL49:
 221:src/console.c ****             case RWL_cell_max_mV:
 479              		.loc 1 221 0
 480 00da C1E7     		b	.L19	@
 481              	.L47:
 247:src/console.c ****                 Board_Println("Done!");
 482              		.loc 1 247 0
 483 00dc 4346     		mov	r3, r8	@ argv, argv
 484 00de 9968     		ldr	r1, [r3, #8]	@ D.8370, MEM[(const char * const *)argv_11(D) + 8B]
 485 00e0 3C68     		ldr	r4, [r7]	@ D.8369, _8->pack_config
 486              	.LVL50:
 487              	.LBB50:
 488              	.LBB51:
  25:src/console.c ****         res = res*10 + str[i] - '0';
 489              		.loc 1 25 0
 490 00e2 0A78     		ldrb	r2, [r1]	@ D.8372, *_78
 491 00e4 002A     		cmp	r2, #0	@ D.8372,
 492 00e6 00D1     		bne	.LCB398	@
 493 00e8 80E1     		b	.L86	@long jump	@
 494              	.LCB398:
 495              	.LVL51:
 496 00ea 0023     		movs	r3, #0	@ res,
 497              	.LVL52:
 498 00ec 0131     		adds	r1, r1, #1	@ ivtmp.58,
 499              	.LVL53:
 500              	.L49:
  26:src/console.c **** 
 501              		.loc 1 26 0
 502 00ee 9800     		lsls	r0, r3, #2	@ tmp429, res,
 503 00f0 C318     		adds	r3, r0, r3	@ D.8371, tmp429, res
 504              	.LVL54:
 505 00f2 5B00     		lsls	r3, r3, #1	@ tmp431, D.8371,
 506 00f4 0131     		adds	r1, r1, #1	@ ivtmp.58,
 507              	.LVL55:
 508 00f6 9B18     		adds	r3, r3, r2	@ D.8371, tmp431, D.8372
  25:src/console.c ****         res = res*10 + str[i] - '0';
 509              		.loc 1 25 0
 510 00f8 4A1E     		subs	r2, r1, #1	@ D.8374, ivtmp.58,
ARM GAS  /var/folders/z0/6xlwn_996xz3mwq1cgzkbq4r0000gp/T//ccBgBTlB.s 			page 18


 511 00fa 1278     		ldrb	r2, [r2]	@ D.8372, MEM[base: _282, offset: 0B]
  26:src/console.c **** 
 512              		.loc 1 26 0
 513 00fc 303B     		subs	r3, r3, #48	@ res,
 514              	.LVL56:
  25:src/console.c ****         res = res*10 + str[i] - '0';
 515              		.loc 1 25 0
 516 00fe 002A     		cmp	r2, #0	@ D.8372,
 517 0100 F5D1     		bne	.L49	@,
 518              	.LVL57:
 519              	.L48:
 520              	.LBE51:
 521              	.LBE50:
 247:src/console.c ****                 Board_Println("Done!");
 522              		.loc 1 247 0
 523 0102 A361     		str	r3, [r4, #24]	@ res, _77->bal_off_thresh_mV
 248:src/console.c ****                 break;
 524              		.loc 1 248 0
 525 0104 8D48     		ldr	r0, .L114+32	@,
 526 0106 FFF7FEFF 		bl	Board_Println	@
 527              	.LVL58:
 249:src/console.c ****             case RWL_pack_cells_p:
 528              		.loc 1 249 0
 529 010a A9E7     		b	.L19	@
 530              	.L50:
 251:src/console.c ****                 Board_Println("Done!");
 531              		.loc 1 251 0
 532 010c 4346     		mov	r3, r8	@ argv, argv
 533 010e 9968     		ldr	r1, [r3, #8]	@ D.8370, MEM[(const char * const *)argv_11(D) + 8B]
 534 0110 3C68     		ldr	r4, [r7]	@ D.8369, _8->pack_config
 535              	.LVL59:
 536              	.LBB53:
 537              	.LBB54:
  25:src/console.c ****         res = res*10 + str[i] - '0';
 538              		.loc 1 25 0
 539 0112 0A78     		ldrb	r2, [r1]	@ D.8372, *_73
 540 0114 002A     		cmp	r2, #0	@ D.8372,
 541 0116 00D1     		bne	.LCB449	@
 542 0118 7CE1     		b	.L87	@long jump	@
 543              	.LCB449:
 544              	.LVL60:
 545 011a 0023     		movs	r3, #0	@ res,
 546              	.LVL61:
 547 011c 0131     		adds	r1, r1, #1	@ ivtmp.62,
 548              	.LVL62:
 549              	.L52:
  26:src/console.c **** 
 550              		.loc 1 26 0
 551 011e 9800     		lsls	r0, r3, #2	@ tmp435, res,
 552 0120 C318     		adds	r3, r0, r3	@ D.8371, tmp435, res
 553              	.LVL63:
 554 0122 5B00     		lsls	r3, r3, #1	@ tmp437, D.8371,
 555 0124 0131     		adds	r1, r1, #1	@ ivtmp.62,
 556              	.LVL64:
 557 0126 9B18     		adds	r3, r3, r2	@ D.8371, tmp437, D.8372
  25:src/console.c ****         res = res*10 + str[i] - '0';
 558              		.loc 1 25 0
ARM GAS  /var/folders/z0/6xlwn_996xz3mwq1cgzkbq4r0000gp/T//ccBgBTlB.s 			page 19


 559 0128 4A1E     		subs	r2, r1, #1	@ D.8374, ivtmp.62,
 560 012a 1278     		ldrb	r2, [r2]	@ D.8372, MEM[base: _285, offset: 0B]
  26:src/console.c **** 
 561              		.loc 1 26 0
 562 012c 303B     		subs	r3, r3, #48	@ res,
 563              	.LVL65:
  25:src/console.c ****         res = res*10 + str[i] - '0';
 564              		.loc 1 25 0
 565 012e 002A     		cmp	r2, #0	@ D.8372,
 566 0130 F5D1     		bne	.L52	@,
 567              	.LVL66:
 568              	.L51:
 569              	.LBE54:
 570              	.LBE53:
 251:src/console.c ****                 Board_Println("Done!");
 571              		.loc 1 251 0
 572 0132 E361     		str	r3, [r4, #28]	@ res, _72->pack_cells_p
 252:src/console.c ****                 break;
 573              		.loc 1 252 0
 574 0134 8148     		ldr	r0, .L114+32	@,
 575 0136 FFF7FEFF 		bl	Board_Println	@
 576              	.LVL67:
 253:src/console.c ****             case RWL_cv_min_current_mA:
 577              		.loc 1 253 0
 578 013a 91E7     		b	.L19	@
 579              	.L35:
 231:src/console.c ****                 Board_Println("Done!");
 580              		.loc 1 231 0
 581 013c 4346     		mov	r3, r8	@ argv, argv
 582 013e 9968     		ldr	r1, [r3, #8]	@ D.8370, MEM[(const char * const *)argv_11(D) + 8B]
 583 0140 3C68     		ldr	r4, [r7]	@ D.8369, _8->pack_config
 584              	.LVL68:
 585              	.LBB56:
 586              	.LBB57:
  25:src/console.c ****         res = res*10 + str[i] - '0';
 587              		.loc 1 25 0
 588 0142 0A78     		ldrb	r2, [r1]	@ D.8372, *_98
 589 0144 002A     		cmp	r2, #0	@ D.8372,
 590 0146 00D1     		bne	.LCB500	@
 591 0148 52E1     		b	.L82	@long jump	@
 592              	.LCB500:
 593              	.LVL69:
 594 014a 0023     		movs	r3, #0	@ res,
 595              	.LVL70:
 596 014c 0131     		adds	r1, r1, #1	@ ivtmp.42,
 597              	.LVL71:
 598              	.L37:
  26:src/console.c **** 
 599              		.loc 1 26 0
 600 014e 9800     		lsls	r0, r3, #2	@ tmp405, res,
 601 0150 C318     		adds	r3, r0, r3	@ D.8371, tmp405, res
 602              	.LVL72:
 603 0152 5B00     		lsls	r3, r3, #1	@ tmp407, D.8371,
 604 0154 0131     		adds	r1, r1, #1	@ ivtmp.42,
 605              	.LVL73:
 606 0156 9B18     		adds	r3, r3, r2	@ D.8371, tmp407, D.8372
  25:src/console.c ****         res = res*10 + str[i] - '0';
ARM GAS  /var/folders/z0/6xlwn_996xz3mwq1cgzkbq4r0000gp/T//ccBgBTlB.s 			page 20


 607              		.loc 1 25 0
 608 0158 4A1E     		subs	r2, r1, #1	@ D.8374, ivtmp.42,
 609 015a 1278     		ldrb	r2, [r2]	@ D.8372, MEM[base: _267, offset: 0B]
  26:src/console.c **** 
 610              		.loc 1 26 0
 611 015c 303B     		subs	r3, r3, #48	@ res,
 612              	.LVL74:
  25:src/console.c ****         res = res*10 + str[i] - '0';
 613              		.loc 1 25 0
 614 015e 002A     		cmp	r2, #0	@ D.8372,
 615 0160 F5D1     		bne	.L37	@,
 616              	.LVL75:
 617              	.L36:
 618              	.LBE57:
 619              	.LBE56:
 231:src/console.c ****                 Board_Println("Done!");
 620              		.loc 1 231 0
 621 0162 E360     		str	r3, [r4, #12]	@ res, _97->num_modules
 232:src/console.c ****                 break;
 622              		.loc 1 232 0
 623 0164 7548     		ldr	r0, .L114+32	@,
 624 0166 FFF7FEFF 		bl	Board_Println	@
 625              	.LVL76:
 233:src/console.c ****             case RWL_module_cell_count:
 626              		.loc 1 233 0
 627 016a 79E7     		b	.L19	@
 628              	.L38:
 235:src/console.c ****                 Board_Println("Done!");
 629              		.loc 1 235 0
 630 016c 4346     		mov	r3, r8	@ argv, argv
 631 016e 9968     		ldr	r1, [r3, #8]	@ D.8370, MEM[(const char * const *)argv_11(D) + 8B]
 632 0170 3C68     		ldr	r4, [r7]	@ D.8369, _8->pack_config
 633              	.LVL77:
 634              	.LBB59:
 635              	.LBB60:
  25:src/console.c ****         res = res*10 + str[i] - '0';
 636              		.loc 1 25 0
 637 0172 0A78     		ldrb	r2, [r1]	@ D.8372, *_93
 638 0174 002A     		cmp	r2, #0	@ D.8372,
 639 0176 00D1     		bne	.LCB551	@
 640 0178 44E1     		b	.L83	@long jump	@
 641              	.LCB551:
 642              	.LVL78:
 643 017a 0023     		movs	r3, #0	@ res,
 644              	.LVL79:
 645 017c 0131     		adds	r1, r1, #1	@ ivtmp.46,
 646              	.LVL80:
 647              	.L40:
  26:src/console.c **** 
 648              		.loc 1 26 0
 649 017e 9800     		lsls	r0, r3, #2	@ tmp411, res,
 650 0180 C318     		adds	r3, r0, r3	@ D.8371, tmp411, res
 651              	.LVL81:
 652 0182 5B00     		lsls	r3, r3, #1	@ tmp413, D.8371,
 653 0184 0131     		adds	r1, r1, #1	@ ivtmp.46,
 654              	.LVL82:
 655 0186 9B18     		adds	r3, r3, r2	@ D.8371, tmp413, D.8372
ARM GAS  /var/folders/z0/6xlwn_996xz3mwq1cgzkbq4r0000gp/T//ccBgBTlB.s 			page 21


  25:src/console.c ****         res = res*10 + str[i] - '0';
 656              		.loc 1 25 0
 657 0188 4A1E     		subs	r2, r1, #1	@ D.8374, ivtmp.46,
 658 018a 1278     		ldrb	r2, [r2]	@ D.8372, MEM[base: _270, offset: 0B]
  26:src/console.c **** 
 659              		.loc 1 26 0
 660 018c 303B     		subs	r3, r3, #48	@ res,
 661              	.LVL83:
  25:src/console.c ****         res = res*10 + str[i] - '0';
 662              		.loc 1 25 0
 663 018e 002A     		cmp	r2, #0	@ D.8372,
 664 0190 F5D1     		bne	.L40	@,
 665              	.LVL84:
 666              	.L39:
 667              	.LBE60:
 668              	.LBE59:
 235:src/console.c ****                 Board_Println("Done!");
 669              		.loc 1 235 0
 670 0192 E362     		str	r3, [r4, #44]	@ res, _92->module_cell_count
 236:src/console.c ****                 break;
 671              		.loc 1 236 0
 672 0194 6948     		ldr	r0, .L114+32	@,
 673 0196 FFF7FEFF 		bl	Board_Println	@
 674              	.LVL85:
 237:src/console.c ****             case RWL_cell_charge_c_rating_cC:
 675              		.loc 1 237 0
 676 019a 61E7     		b	.L19	@
 677              	.L59:
 263:src/console.c ****                 Board_Println("Done!");
 678              		.loc 1 263 0
 679 019c 4346     		mov	r3, r8	@ argv, argv
 680 019e 9968     		ldr	r1, [r3, #8]	@ D.8370, MEM[(const char * const *)argv_11(D) + 8B]
 681 01a0 3C68     		ldr	r4, [r7]	@ D.8369, _8->pack_config
 682              	.LVL86:
 683              	.LBB62:
 684              	.LBB63:
  25:src/console.c ****         res = res*10 + str[i] - '0';
 685              		.loc 1 25 0
 686 01a2 0A78     		ldrb	r2, [r1]	@ D.8372, *_58
 687 01a4 002A     		cmp	r2, #0	@ D.8372,
 688 01a6 00D1     		bne	.LCB602	@
 689 01a8 24E1     		b	.L90	@long jump	@
 690              	.LCB602:
 691              	.LVL87:
 692 01aa 0023     		movs	r3, #0	@ res,
 693              	.LVL88:
 694 01ac 0131     		adds	r1, r1, #1	@ ivtmp.74,
 695              	.LVL89:
 696              	.L61:
  26:src/console.c **** 
 697              		.loc 1 26 0
 698 01ae 9800     		lsls	r0, r3, #2	@ tmp453, res,
 699 01b0 C318     		adds	r3, r0, r3	@ D.8371, tmp453, res
 700              	.LVL90:
 701 01b2 5B00     		lsls	r3, r3, #1	@ tmp455, D.8371,
 702 01b4 0131     		adds	r1, r1, #1	@ ivtmp.74,
 703              	.LVL91:
ARM GAS  /var/folders/z0/6xlwn_996xz3mwq1cgzkbq4r0000gp/T//ccBgBTlB.s 			page 22


 704 01b6 9B18     		adds	r3, r3, r2	@ D.8371, tmp455, D.8372
  25:src/console.c ****         res = res*10 + str[i] - '0';
 705              		.loc 1 25 0
 706 01b8 4A1E     		subs	r2, r1, #1	@ D.8374, ivtmp.74,
 707 01ba 1278     		ldrb	r2, [r2]	@ D.8372, MEM[base: _298, offset: 0B]
  26:src/console.c **** 
 708              		.loc 1 26 0
 709 01bc 303B     		subs	r3, r3, #48	@ res,
 710              	.LVL92:
  25:src/console.c ****         res = res*10 + str[i] - '0';
 711              		.loc 1 25 0
 712 01be 002A     		cmp	r2, #0	@ D.8372,
 713 01c0 F5D1     		bne	.L61	@,
 714              	.LVL93:
 715              	.L60:
 716              	.LBE63:
 717              	.LBE62:
 263:src/console.c ****                 Board_Println("Done!");
 718              		.loc 1 263 0
 719 01c2 A362     		str	r3, [r4, #40]	@ res, _57->cc_cell_voltage_mV
 264:src/console.c ****                 break;
 720              		.loc 1 264 0
 721 01c4 5D48     		ldr	r0, .L114+32	@,
 722 01c6 FFF7FEFF 		bl	Board_Println	@
 723              	.LVL94:
 265:src/console.c ****             case RWL_cc_charge_voltage_mV:
 724              		.loc 1 265 0
 725 01ca 49E7     		b	.L19	@
 726              	.L62:
 267:src/console.c ****                 Board_Println("Done!");
 727              		.loc 1 267 0
 728 01cc 4346     		mov	r3, r8	@ argv, argv
 729 01ce 9968     		ldr	r1, [r3, #8]	@ D.8370, MEM[(const char * const *)argv_11(D) + 8B]
 730 01d0 3C68     		ldr	r4, [r7]	@ D.8369, _8->pack_config
 731              	.LVL95:
 732              	.LBB65:
 733              	.LBB66:
  25:src/console.c ****         res = res*10 + str[i] - '0';
 734              		.loc 1 25 0
 735 01d2 0A78     		ldrb	r2, [r1]	@ D.8372, *_53
 736 01d4 002A     		cmp	r2, #0	@ D.8372,
 737 01d6 00D1     		bne	.LCB653	@
 738 01d8 1AE1     		b	.L91	@long jump	@
 739              	.LCB653:
 740              	.LVL96:
 741 01da 0023     		movs	r3, #0	@ res,
 742              	.LVL97:
 743 01dc 0131     		adds	r1, r1, #1	@ ivtmp.78,
 744              	.LVL98:
 745              	.L64:
  26:src/console.c **** 
 746              		.loc 1 26 0
 747 01de 9800     		lsls	r0, r3, #2	@ tmp459, res,
 748 01e0 C318     		adds	r3, r0, r3	@ D.8371, tmp459, res
 749              	.LVL99:
 750 01e2 5B00     		lsls	r3, r3, #1	@ tmp461, D.8371,
 751 01e4 0131     		adds	r1, r1, #1	@ ivtmp.78,
ARM GAS  /var/folders/z0/6xlwn_996xz3mwq1cgzkbq4r0000gp/T//ccBgBTlB.s 			page 23


 752              	.LVL100:
 753 01e6 9B18     		adds	r3, r3, r2	@ D.8371, tmp461, D.8372
  25:src/console.c ****         res = res*10 + str[i] - '0';
 754              		.loc 1 25 0
 755 01e8 4A1E     		subs	r2, r1, #1	@ D.8374, ivtmp.78,
 756 01ea 1278     		ldrb	r2, [r2]	@ D.8372, MEM[base: _302, offset: 0B]
  26:src/console.c **** 
 757              		.loc 1 26 0
 758 01ec 303B     		subs	r3, r3, #48	@ res,
 759              	.LVL101:
  25:src/console.c ****         res = res*10 + str[i] - '0';
 760              		.loc 1 25 0
 761 01ee 002A     		cmp	r2, #0	@ D.8372,
 762 01f0 F5D1     		bne	.L64	@,
 763              	.LVL102:
 764              	.L63:
 765              	.LBE66:
 766              	.LBE65:
 267:src/console.c ****                 Board_Println("Done!");
 767              		.loc 1 267 0
 768 01f2 6363     		str	r3, [r4, #52]	@ res, _52->cc_charge_voltage_mV
 268:src/console.c ****                 break;
 769              		.loc 1 268 0
 770 01f4 5148     		ldr	r0, .L114+32	@,
 771 01f6 FFF7FEFF 		bl	Board_Println	@
 772              	.LVL103:
 269:src/console.c ****             case RWL_cc_charge_current_mA:
 773              		.loc 1 269 0
 774 01fa 31E7     		b	.L19	@
 775              	.L29:
 223:src/console.c ****                 Board_Println("Done!");
 776              		.loc 1 223 0
 777 01fc 4346     		mov	r3, r8	@ argv, argv
 778 01fe 9968     		ldr	r1, [r3, #8]	@ D.8370, MEM[(const char * const *)argv_11(D) + 8B]
 779 0200 3C68     		ldr	r4, [r7]	@ D.8369, _8->pack_config
 780              	.LVL104:
 781              	.LBB68:
 782              	.LBB69:
  25:src/console.c ****         res = res*10 + str[i] - '0';
 783              		.loc 1 25 0
 784 0202 0A78     		ldrb	r2, [r1]	@ D.8372, *_108
 785 0204 002A     		cmp	r2, #0	@ D.8372,
 786 0206 00D1     		bne	.LCB704	@
 787 0208 FEE0     		b	.L80	@long jump	@
 788              	.LCB704:
 789              	.LVL105:
 790 020a 0023     		movs	r3, #0	@ res,
 791              	.LVL106:
 792 020c 0131     		adds	r1, r1, #1	@ ivtmp.34,
 793              	.LVL107:
 794              	.L31:
  26:src/console.c **** 
 795              		.loc 1 26 0
 796 020e 9800     		lsls	r0, r3, #2	@ tmp393, res,
 797 0210 C318     		adds	r3, r0, r3	@ D.8371, tmp393, res
 798              	.LVL108:
 799 0212 5B00     		lsls	r3, r3, #1	@ tmp395, D.8371,
ARM GAS  /var/folders/z0/6xlwn_996xz3mwq1cgzkbq4r0000gp/T//ccBgBTlB.s 			page 24


 800 0214 0131     		adds	r1, r1, #1	@ ivtmp.34,
 801              	.LVL109:
 802 0216 9B18     		adds	r3, r3, r2	@ D.8371, tmp395, D.8372
  25:src/console.c ****         res = res*10 + str[i] - '0';
 803              		.loc 1 25 0
 804 0218 4A1E     		subs	r2, r1, #1	@ D.8374, ivtmp.34,
 805 021a 1278     		ldrb	r2, [r2]	@ D.8372, MEM[base: _258, offset: 0B]
  26:src/console.c **** 
 806              		.loc 1 26 0
 807 021c 303B     		subs	r3, r3, #48	@ res,
 808              	.LVL110:
  25:src/console.c ****         res = res*10 + str[i] - '0';
 809              		.loc 1 25 0
 810 021e 002A     		cmp	r2, #0	@ D.8372,
 811 0220 F5D1     		bne	.L31	@,
 812              	.LVL111:
 813              	.L30:
 814              	.LBE69:
 815              	.LBE68:
 223:src/console.c ****                 Board_Println("Done!");
 816              		.loc 1 223 0
 817 0222 6360     		str	r3, [r4, #4]	@ res, _107->cell_max_mV
 224:src/console.c ****                 break;
 818              		.loc 1 224 0
 819 0224 4548     		ldr	r0, .L114+32	@,
 820 0226 FFF7FEFF 		bl	Board_Println	@
 821              	.LVL112:
 225:src/console.c ****             case RWL_cell_capacity_cAh:
 822              		.loc 1 225 0
 823 022a 19E7     		b	.L19	@
 824              	.L32:
 227:src/console.c ****                 Board_Println("Done!");
 825              		.loc 1 227 0
 826 022c 4346     		mov	r3, r8	@ argv, argv
 827 022e 9968     		ldr	r1, [r3, #8]	@ D.8370, MEM[(const char * const *)argv_11(D) + 8B]
 828 0230 3C68     		ldr	r4, [r7]	@ D.8369, _8->pack_config
 829              	.LVL113:
 830              	.LBB71:
 831              	.LBB72:
  25:src/console.c ****         res = res*10 + str[i] - '0';
 832              		.loc 1 25 0
 833 0232 0A78     		ldrb	r2, [r1]	@ D.8372, *_103
 834 0234 002A     		cmp	r2, #0	@ D.8372,
 835 0236 00D1     		bne	.LCB755	@
 836 0238 E2E0     		b	.L81	@long jump	@
 837              	.LCB755:
 838              	.LVL114:
 839 023a 0023     		movs	r3, #0	@ res,
 840              	.LVL115:
 841 023c 0131     		adds	r1, r1, #1	@ ivtmp.38,
 842              	.LVL116:
 843              	.L34:
  26:src/console.c **** 
 844              		.loc 1 26 0
 845 023e 9800     		lsls	r0, r3, #2	@ tmp399, res,
 846 0240 C318     		adds	r3, r0, r3	@ D.8371, tmp399, res
 847              	.LVL117:
ARM GAS  /var/folders/z0/6xlwn_996xz3mwq1cgzkbq4r0000gp/T//ccBgBTlB.s 			page 25


 848 0242 5B00     		lsls	r3, r3, #1	@ tmp401, D.8371,
 849 0244 0131     		adds	r1, r1, #1	@ ivtmp.38,
 850              	.LVL118:
 851 0246 9B18     		adds	r3, r3, r2	@ D.8371, tmp401, D.8372
  25:src/console.c ****         res = res*10 + str[i] - '0';
 852              		.loc 1 25 0
 853 0248 4A1E     		subs	r2, r1, #1	@ D.8374, ivtmp.38,
 854 024a 1278     		ldrb	r2, [r2]	@ D.8372, MEM[base: _262, offset: 0B]
  26:src/console.c **** 
 855              		.loc 1 26 0
 856 024c 303B     		subs	r3, r3, #48	@ res,
 857              	.LVL119:
  25:src/console.c ****         res = res*10 + str[i] - '0';
 858              		.loc 1 25 0
 859 024e 002A     		cmp	r2, #0	@ D.8372,
 860 0250 F5D1     		bne	.L34	@,
 861              	.LVL120:
 862              	.L33:
 863              	.LBE72:
 864              	.LBE71:
 227:src/console.c ****                 Board_Println("Done!");
 865              		.loc 1 227 0
 866 0252 A360     		str	r3, [r4, #8]	@ res, _102->cell_capacity_cAh
 228:src/console.c ****                 break;
 867              		.loc 1 228 0
 868 0254 3948     		ldr	r0, .L114+32	@,
 869 0256 FFF7FEFF 		bl	Board_Println	@
 870              	.LVL121:
 229:src/console.c ****             case RWL_num_modules:
 871              		.loc 1 229 0
 872 025a 01E7     		b	.L19	@
 873              	.L53:
 255:src/console.c ****                 Board_Println("Done!");
 874              		.loc 1 255 0
 875 025c 4346     		mov	r3, r8	@ argv, argv
 876 025e 9968     		ldr	r1, [r3, #8]	@ D.8370, MEM[(const char * const *)argv_11(D) + 8B]
 877 0260 3C68     		ldr	r4, [r7]	@ D.8369, _8->pack_config
 878              	.LVL122:
 879              	.LBB74:
 880              	.LBB75:
  25:src/console.c ****         res = res*10 + str[i] - '0';
 881              		.loc 1 25 0
 882 0262 0A78     		ldrb	r2, [r1]	@ D.8372, *_68
 883 0264 002A     		cmp	r2, #0	@ D.8372,
 884 0266 00D1     		bne	.LCB806	@
 885 0268 BCE0     		b	.L88	@long jump	@
 886              	.LCB806:
 887              	.LVL123:
 888 026a 0023     		movs	r3, #0	@ res,
 889              	.LVL124:
 890 026c 0131     		adds	r1, r1, #1	@ ivtmp.66,
 891              	.LVL125:
 892              	.L55:
  26:src/console.c **** 
 893              		.loc 1 26 0
 894 026e 9800     		lsls	r0, r3, #2	@ tmp441, res,
 895 0270 C318     		adds	r3, r0, r3	@ D.8371, tmp441, res
ARM GAS  /var/folders/z0/6xlwn_996xz3mwq1cgzkbq4r0000gp/T//ccBgBTlB.s 			page 26


 896              	.LVL126:
 897 0272 5B00     		lsls	r3, r3, #1	@ tmp443, D.8371,
 898 0274 0131     		adds	r1, r1, #1	@ ivtmp.66,
 899              	.LVL127:
 900 0276 9B18     		adds	r3, r3, r2	@ D.8371, tmp443, D.8372
  25:src/console.c ****         res = res*10 + str[i] - '0';
 901              		.loc 1 25 0
 902 0278 4A1E     		subs	r2, r1, #1	@ D.8374, ivtmp.66,
 903 027a 1278     		ldrb	r2, [r2]	@ D.8372, MEM[base: _290, offset: 0B]
  26:src/console.c **** 
 904              		.loc 1 26 0
 905 027c 303B     		subs	r3, r3, #48	@ res,
 906              	.LVL128:
  25:src/console.c ****         res = res*10 + str[i] - '0';
 907              		.loc 1 25 0
 908 027e 002A     		cmp	r2, #0	@ D.8372,
 909 0280 F5D1     		bne	.L55	@,
 910              	.LVL129:
 911              	.L54:
 912              	.LBE75:
 913              	.LBE74:
 255:src/console.c ****                 Board_Println("Done!");
 914              		.loc 1 255 0
 915 0282 2362     		str	r3, [r4, #32]	@ res, _67->cv_min_current_mA
 256:src/console.c ****                 break;
 916              		.loc 1 256 0
 917 0284 2D48     		ldr	r0, .L114+32	@,
 918 0286 FFF7FEFF 		bl	Board_Println	@
 919              	.LVL130:
 257:src/console.c ****             case RWL_cv_min_current_ms:
 920              		.loc 1 257 0
 921 028a E9E6     		b	.L19	@
 922              	.L56:
 259:src/console.c ****                 Board_Println("Done!");
 923              		.loc 1 259 0
 924 028c 4346     		mov	r3, r8	@ argv, argv
 925 028e 9968     		ldr	r1, [r3, #8]	@ D.8370, MEM[(const char * const *)argv_11(D) + 8B]
 926 0290 3C68     		ldr	r4, [r7]	@ D.8369, _8->pack_config
 927              	.LVL131:
 928              	.LBB77:
 929              	.LBB78:
  25:src/console.c ****         res = res*10 + str[i] - '0';
 930              		.loc 1 25 0
 931 0292 0A78     		ldrb	r2, [r1]	@ D.8372, *_63
 932 0294 002A     		cmp	r2, #0	@ D.8372,
 933 0296 00D1     		bne	.LCB857	@
 934 0298 AEE0     		b	.L89	@long jump	@
 935              	.LCB857:
 936              	.LVL132:
 937 029a 0023     		movs	r3, #0	@ res,
 938              	.LVL133:
 939 029c 0131     		adds	r1, r1, #1	@ ivtmp.70,
 940              	.LVL134:
 941              	.L58:
  26:src/console.c **** 
 942              		.loc 1 26 0
 943 029e 9800     		lsls	r0, r3, #2	@ tmp447, res,
ARM GAS  /var/folders/z0/6xlwn_996xz3mwq1cgzkbq4r0000gp/T//ccBgBTlB.s 			page 27


 944 02a0 C318     		adds	r3, r0, r3	@ D.8371, tmp447, res
 945              	.LVL135:
 946 02a2 5B00     		lsls	r3, r3, #1	@ tmp449, D.8371,
 947 02a4 0131     		adds	r1, r1, #1	@ ivtmp.70,
 948              	.LVL136:
 949 02a6 9B18     		adds	r3, r3, r2	@ D.8371, tmp449, D.8372
  25:src/console.c ****         res = res*10 + str[i] - '0';
 950              		.loc 1 25 0
 951 02a8 4A1E     		subs	r2, r1, #1	@ D.8374, ivtmp.70,
 952 02aa 1278     		ldrb	r2, [r2]	@ D.8372, MEM[base: _294, offset: 0B]
  26:src/console.c **** 
 953              		.loc 1 26 0
 954 02ac 303B     		subs	r3, r3, #48	@ res,
 955              	.LVL137:
  25:src/console.c ****         res = res*10 + str[i] - '0';
 956              		.loc 1 25 0
 957 02ae 002A     		cmp	r2, #0	@ D.8372,
 958 02b0 F5D1     		bne	.L58	@,
 959              	.LVL138:
 960              	.L57:
 961              	.LBE78:
 962              	.LBE77:
 259:src/console.c ****                 Board_Println("Done!");
 963              		.loc 1 259 0
 964 02b2 6362     		str	r3, [r4, #36]	@ res, _62->cv_min_current_ms
 260:src/console.c ****                 break;
 965              		.loc 1 260 0
 966 02b4 2148     		ldr	r0, .L114+32	@,
 967 02b6 FFF7FEFF 		bl	Board_Println	@
 968              	.LVL139:
 261:src/console.c ****             case RWL_cc_cell_voltage_mV:
 969              		.loc 1 261 0
 970 02ba D1E6     		b	.L19	@
 971              	.L41:
 239:src/console.c ****               Board_Println("Done!");
 972              		.loc 1 239 0
 973 02bc 4346     		mov	r3, r8	@ argv, argv
 974 02be 9968     		ldr	r1, [r3, #8]	@ D.8370, MEM[(const char * const *)argv_11(D) + 8B]
 975 02c0 3C68     		ldr	r4, [r7]	@ D.8369, _8->pack_config
 976              	.LVL140:
 977              	.LBB80:
 978              	.LBB81:
  25:src/console.c ****         res = res*10 + str[i] - '0';
 979              		.loc 1 25 0
 980 02c2 0A78     		ldrb	r2, [r1]	@ D.8372, *_88
 981 02c4 002A     		cmp	r2, #0	@ D.8372,
 982 02c6 00D1     		bne	.LCB908	@
 983 02c8 8EE0     		b	.L84	@long jump	@
 984              	.LCB908:
 985              	.LVL141:
 986 02ca 0023     		movs	r3, #0	@ res,
 987              	.LVL142:
 988 02cc 0131     		adds	r1, r1, #1	@ ivtmp.50,
 989              	.LVL143:
 990              	.L43:
  26:src/console.c **** 
 991              		.loc 1 26 0
ARM GAS  /var/folders/z0/6xlwn_996xz3mwq1cgzkbq4r0000gp/T//ccBgBTlB.s 			page 28


 992 02ce 9800     		lsls	r0, r3, #2	@ tmp417, res,
 993 02d0 C318     		adds	r3, r0, r3	@ D.8371, tmp417, res
 994              	.LVL144:
 995 02d2 5B00     		lsls	r3, r3, #1	@ tmp419, D.8371,
 996 02d4 0131     		adds	r1, r1, #1	@ ivtmp.50,
 997              	.LVL145:
 998 02d6 9B18     		adds	r3, r3, r2	@ D.8371, tmp419, D.8372
  25:src/console.c ****         res = res*10 + str[i] - '0';
 999              		.loc 1 25 0
 1000 02d8 4A1E     		subs	r2, r1, #1	@ D.8374, ivtmp.50,
 1001 02da 1278     		ldrb	r2, [r2]	@ D.8372, MEM[base: _273, offset: 0B]
  26:src/console.c **** 
 1002              		.loc 1 26 0
 1003 02dc 303B     		subs	r3, r3, #48	@ res,
 1004              	.LVL146:
  25:src/console.c ****         res = res*10 + str[i] - '0';
 1005              		.loc 1 25 0
 1006 02de 002A     		cmp	r2, #0	@ D.8372,
 1007 02e0 F5D1     		bne	.L43	@,
 1008              	.LVL147:
 1009              	.L42:
 1010              	.LBE81:
 1011              	.LBE80:
 239:src/console.c ****               Board_Println("Done!");
 1012              		.loc 1 239 0
 1013 02e2 2361     		str	r3, [r4, #16]	@ res, _87->cell_charge_c_rating_cC
 240:src/console.c ****               break;
 1014              		.loc 1 240 0
 1015 02e4 1548     		ldr	r0, .L114+32	@,
 1016 02e6 FFF7FEFF 		bl	Board_Println	@
 1017              	.LVL148:
 241:src/console.c ****             case RWL_bal_on_thresh_mV:
 1018              		.loc 1 241 0
 1019 02ea B9E6     		b	.L19	@
 1020              	.L44:
 243:src/console.c ****                 Board_Println("Done!");
 1021              		.loc 1 243 0
 1022 02ec 4346     		mov	r3, r8	@ argv, argv
 1023 02ee 9968     		ldr	r1, [r3, #8]	@ D.8370, MEM[(const char * const *)argv_11(D) + 8B]
 1024 02f0 3C68     		ldr	r4, [r7]	@ D.8369, _8->pack_config
 1025              	.LVL149:
 1026              	.LBB83:
 1027              	.LBB84:
  25:src/console.c ****         res = res*10 + str[i] - '0';
 1028              		.loc 1 25 0
 1029 02f2 0A78     		ldrb	r2, [r1]	@ D.8372, *_83
 1030 02f4 002A     		cmp	r2, #0	@ D.8372,
 1031 02f6 6FD0     		beq	.L85	@,
 1032              	.LVL150:
 1033 02f8 0023     		movs	r3, #0	@ res,
 1034              	.LVL151:
 1035 02fa 0131     		adds	r1, r1, #1	@ ivtmp.54,
 1036              	.LVL152:
 1037              	.L46:
  26:src/console.c **** 
 1038              		.loc 1 26 0
 1039 02fc 9800     		lsls	r0, r3, #2	@ tmp423, res,
ARM GAS  /var/folders/z0/6xlwn_996xz3mwq1cgzkbq4r0000gp/T//ccBgBTlB.s 			page 29


 1040 02fe C318     		adds	r3, r0, r3	@ D.8371, tmp423, res
 1041              	.LVL153:
 1042 0300 5B00     		lsls	r3, r3, #1	@ tmp425, D.8371,
 1043 0302 0131     		adds	r1, r1, #1	@ ivtmp.54,
 1044              	.LVL154:
 1045 0304 9B18     		adds	r3, r3, r2	@ D.8371, tmp425, D.8372
  25:src/console.c ****         res = res*10 + str[i] - '0';
 1046              		.loc 1 25 0
 1047 0306 4A1E     		subs	r2, r1, #1	@ D.8374, ivtmp.54,
 1048 0308 1278     		ldrb	r2, [r2]	@ D.8372, MEM[base: _277, offset: 0B]
  26:src/console.c **** 
 1049              		.loc 1 26 0
 1050 030a 303B     		subs	r3, r3, #48	@ res,
 1051              	.LVL155:
  25:src/console.c ****         res = res*10 + str[i] - '0';
 1052              		.loc 1 25 0
 1053 030c 002A     		cmp	r2, #0	@ D.8372,
 1054 030e F5D1     		bne	.L46	@,
 1055              	.LVL156:
 1056              	.L45:
 1057              	.LBE84:
 1058              	.LBE83:
 243:src/console.c ****                 Board_Println("Done!");
 1059              		.loc 1 243 0
 1060 0310 6361     		str	r3, [r4, #20]	@ res, _82->bal_on_thresh_mV
 244:src/console.c ****                 break;
 1061              		.loc 1 244 0
 1062 0312 0A48     		ldr	r0, .L114+32	@,
 1063 0314 FFF7FEFF 		bl	Board_Println	@
 1064              	.LVL157:
 245:src/console.c ****             case RWL_bal_off_thresh_mV:
 1065              		.loc 1 245 0
 1066 0318 A2E6     		b	.L19	@
 1067              	.L115:
 1068 031a C046     		.align	2
 1069              	.L114:
 1070 031c 00000000 		.word	.LANCHOR1
 1071 0320 00000000 		.word	.LANCHOR2
 1072 0324 88000000 		.word	.LC24
 1073 0328 94000000 		.word	.LC26
 1074 032c E4000000 		.word	.LC36
 1075 0330 9C000000 		.word	.LC29
 1076 0334 00000000 		.word	.L76
 1077 0338 C8000000 		.word	.LC34
 1078 033c C0000000 		.word	.LC32
 1079              	.L65:
 271:src/console.c ****                 Board_Println("Done!");
 1080              		.loc 1 271 0
 1081 0340 4346     		mov	r3, r8	@ argv, argv
 1082 0342 9968     		ldr	r1, [r3, #8]	@ D.8370, MEM[(const char * const *)argv_11(D) + 8B]
 1083 0344 3C68     		ldr	r4, [r7]	@ D.8369, _8->pack_config
 1084              	.LVL158:
 1085              	.LBB86:
 1086              	.LBB87:
  25:src/console.c ****         res = res*10 + str[i] - '0';
 1087              		.loc 1 25 0
 1088 0346 0A78     		ldrb	r2, [r1]	@ D.8372, *_48
ARM GAS  /var/folders/z0/6xlwn_996xz3mwq1cgzkbq4r0000gp/T//ccBgBTlB.s 			page 30


 1089 0348 002A     		cmp	r2, #0	@ D.8372,
 1090 034a 49D0     		beq	.L92	@,
 1091              	.LVL159:
 1092 034c 0023     		movs	r3, #0	@ res,
 1093              	.LVL160:
 1094 034e 0131     		adds	r1, r1, #1	@ ivtmp.82,
 1095              	.LVL161:
 1096              	.L67:
  26:src/console.c **** 
 1097              		.loc 1 26 0
 1098 0350 9800     		lsls	r0, r3, #2	@ tmp465, res,
 1099 0352 C318     		adds	r3, r0, r3	@ D.8371, tmp465, res
 1100              	.LVL162:
 1101 0354 5B00     		lsls	r3, r3, #1	@ tmp467, D.8371,
 1102 0356 0131     		adds	r1, r1, #1	@ ivtmp.82,
 1103              	.LVL163:
 1104 0358 9B18     		adds	r3, r3, r2	@ D.8371, tmp467, D.8372
  25:src/console.c ****         res = res*10 + str[i] - '0';
 1105              		.loc 1 25 0
 1106 035a 4A1E     		subs	r2, r1, #1	@ D.8374, ivtmp.82,
 1107 035c 1278     		ldrb	r2, [r2]	@ D.8372, MEM[base: _306, offset: 0B]
  26:src/console.c **** 
 1108              		.loc 1 26 0
 1109 035e 303B     		subs	r3, r3, #48	@ res,
 1110              	.LVL164:
  25:src/console.c ****         res = res*10 + str[i] - '0';
 1111              		.loc 1 25 0
 1112 0360 002A     		cmp	r2, #0	@ D.8372,
 1113 0362 F5D1     		bne	.L67	@,
 1114              	.LVL165:
 1115              	.L66:
 1116              	.LBE87:
 1117              	.LBE86:
 271:src/console.c ****                 Board_Println("Done!");
 1118              		.loc 1 271 0
 1119 0364 A363     		str	r3, [r4, #56]	@ res, _47->cc_charge_current_mA
 272:src/console.c ****                 break;
 1120              		.loc 1 272 0
 1121 0366 2C48     		ldr	r0, .L116	@,
 1122 0368 FFF7FEFF 		bl	Board_Println	@
 1123              	.LVL166:
 273:src/console.c ****             case RWL_cv_charge_voltage_mV:
 1124              		.loc 1 273 0
 1125 036c 78E6     		b	.L19	@
 1126              	.L68:
 275:src/console.c ****                 Board_Println("Done!");
 1127              		.loc 1 275 0
 1128 036e 4346     		mov	r3, r8	@ argv, argv
 1129 0370 9968     		ldr	r1, [r3, #8]	@ D.8370, MEM[(const char * const *)argv_11(D) + 8B]
 1130 0372 3C68     		ldr	r4, [r7]	@ D.8369, _8->pack_config
 1131              	.LVL167:
 1132              	.LBB89:
 1133              	.LBB90:
  25:src/console.c ****         res = res*10 + str[i] - '0';
 1134              		.loc 1 25 0
 1135 0374 0A78     		ldrb	r2, [r1]	@ D.8372, *_43
 1136 0376 002A     		cmp	r2, #0	@ D.8372,
ARM GAS  /var/folders/z0/6xlwn_996xz3mwq1cgzkbq4r0000gp/T//ccBgBTlB.s 			page 31


 1137 0378 30D0     		beq	.L93	@,
 1138              	.LVL168:
 1139 037a 0023     		movs	r3, #0	@ res,
 1140              	.LVL169:
 1141 037c 0131     		adds	r1, r1, #1	@ ivtmp.86,
 1142              	.LVL170:
 1143              	.L70:
  26:src/console.c **** 
 1144              		.loc 1 26 0
 1145 037e 9800     		lsls	r0, r3, #2	@ tmp471, res,
 1146 0380 C318     		adds	r3, r0, r3	@ D.8371, tmp471, res
 1147              	.LVL171:
 1148 0382 5B00     		lsls	r3, r3, #1	@ tmp473, D.8371,
 1149 0384 0131     		adds	r1, r1, #1	@ ivtmp.86,
 1150              	.LVL172:
 1151 0386 9B18     		adds	r3, r3, r2	@ D.8371, tmp473, D.8372
  25:src/console.c ****         res = res*10 + str[i] - '0';
 1152              		.loc 1 25 0
 1153 0388 4A1E     		subs	r2, r1, #1	@ D.8374, ivtmp.86,
 1154 038a 1278     		ldrb	r2, [r2]	@ D.8372, MEM[base: _172, offset: 0B]
  26:src/console.c **** 
 1155              		.loc 1 26 0
 1156 038c 303B     		subs	r3, r3, #48	@ res,
 1157              	.LVL173:
  25:src/console.c ****         res = res*10 + str[i] - '0';
 1158              		.loc 1 25 0
 1159 038e 002A     		cmp	r2, #0	@ D.8372,
 1160 0390 F5D1     		bne	.L70	@,
 1161              	.LVL174:
 1162              	.L69:
 1163              	.LBE90:
 1164              	.LBE89:
 275:src/console.c ****                 Board_Println("Done!");
 1165              		.loc 1 275 0
 1166 0392 E363     		str	r3, [r4, #60]	@ res, _42->cv_charge_voltage_mV
 276:src/console.c ****                 break;
 1167              		.loc 1 276 0
 1168 0394 2048     		ldr	r0, .L116	@,
 1169 0396 FFF7FEFF 		bl	Board_Println	@
 1170              	.LVL175:
 277:src/console.c ****             case RWL_cv_charge_current_mA:
 1171              		.loc 1 277 0
 1172 039a 61E6     		b	.L19	@
 1173              	.L77:
 1174 039c 4346     		mov	r3, r8	@ argv, argv
 1175 039e 9C68     		ldr	r4, [r3, #8]	@ D.8375, MEM[(const char * const *)argv_11(D) + 8B]
 1176              	.LVL176:
 286:src/console.c ****                         foundynloc = true;
 1177              		.loc 1 286 0
 1178 03a0 1E49     		ldr	r1, .L116+4	@,
 1179 03a2 2000     		movs	r0, r4	@, D.8375
 1180 03a4 FFF7FEFF 		bl	strcmp	@
 1181              	.LVL177:
 1182 03a8 0028     		cmp	r0, #0	@ tmp491,
 1183 03aa 0DD0     		beq	.L78	@,
 1184              	.LVL178:
 1185 03ac 1C49     		ldr	r1, .L116+8	@,
ARM GAS  /var/folders/z0/6xlwn_996xz3mwq1cgzkbq4r0000gp/T//ccBgBTlB.s 			page 32


 1186 03ae 2000     		movs	r0, r4	@, D.8375
 1187 03b0 FFF7FEFF 		bl	strcmp	@
 1188              	.LVL179:
 1189 03b4 0028     		cmp	r0, #0	@ tmp494,
 1190 03b6 00D0     		beq	.LCB1131	@
 1191 03b8 4BE6     		b	.L75	@long jump	@
 1192              	.LCB1131:
 1193              	.LVL180:
 298:src/console.c ****                             Board_Println("Done!");
 1194              		.loc 1 298 0
 1195 03ba 4423     		movs	r3, #68	@ tmp497,
 1196 03bc 3A68     		ldr	r2, [r7]	@ _8->pack_config, _8->pack_config
 1197 03be D054     		strb	r0, [r2, r3]	@ tmp494, _29->bms_comm
 299:src/console.c ****                             break;
 1198              		.loc 1 299 0
 1199 03c0 1548     		ldr	r0, .L116	@,
 1200 03c2 FFF7FEFF 		bl	Board_Println	@
 1201              	.LVL181:
 300:src/console.c ****                         case YNL_LENGTH:
 1202              		.loc 1 300 0
 1203 03c6 4BE6     		b	.L19	@
 1204              	.LVL182:
 1205              	.L78:
 294:src/console.c ****                             Board_Println("Done!");
 1206              		.loc 1 294 0
 1207 03c8 0121     		movs	r1, #1	@ tmp503,
 1208 03ca 4423     		movs	r3, #68	@ tmp502,
 1209 03cc 3A68     		ldr	r2, [r7]	@ _8->pack_config, _8->pack_config
 295:src/console.c ****                             break;
 1210              		.loc 1 295 0
 1211 03ce 1248     		ldr	r0, .L116	@,
 294:src/console.c ****                             Board_Println("Done!");
 1212              		.loc 1 294 0
 1213 03d0 D154     		strb	r1, [r2, r3]	@ tmp503, _33->bms_comm
 295:src/console.c ****                             break;
 1214              		.loc 1 295 0
 1215 03d2 FFF7FEFF 		bl	Board_Println	@
 1216              	.LVL183:
 296:src/console.c ****                         case YNL_NO:
 1217              		.loc 1 296 0
 1218 03d6 43E6     		b	.L19	@
 1219              	.LVL184:
 1220              	.L85:
 1221              	.LBB92:
 1222              	.LBB85:
  20:src/console.c **** 
 1223              		.loc 1 20 0
 1224 03d8 0023     		movs	r3, #0	@ res,
 1225              	.LVL185:
 1226 03da 99E7     		b	.L45	@
 1227              	.LVL186:
 1228              	.L93:
 1229              	.LBE85:
 1230              	.LBE92:
 1231              	.LBB93:
 1232              	.LBB91:
 1233 03dc 0023     		movs	r3, #0	@ res,
ARM GAS  /var/folders/z0/6xlwn_996xz3mwq1cgzkbq4r0000gp/T//ccBgBTlB.s 			page 33


 1234              	.LVL187:
 1235 03de D8E7     		b	.L69	@
 1236              	.LVL188:
 1237              	.L92:
 1238              	.LBE91:
 1239              	.LBE93:
 1240              	.LBB94:
 1241              	.LBB88:
 1242 03e0 0023     		movs	r3, #0	@ res,
 1243              	.LVL189:
 1244 03e2 BFE7     		b	.L66	@
 1245              	.LVL190:
 1246              	.L88:
 1247              	.LBE88:
 1248              	.LBE94:
 1249              	.LBB95:
 1250              	.LBB76:
 1251 03e4 0023     		movs	r3, #0	@ res,
 1252              	.LVL191:
 1253 03e6 4CE7     		b	.L54	@
 1254              	.LVL192:
 1255              	.L84:
 1256              	.LBE76:
 1257              	.LBE95:
 1258              	.LBB96:
 1259              	.LBB82:
 1260 03e8 0023     		movs	r3, #0	@ res,
 1261              	.LVL193:
 1262 03ea 7AE7     		b	.L42	@
 1263              	.LVL194:
 1264              	.L86:
 1265              	.LBE82:
 1266              	.LBE96:
 1267              	.LBB97:
 1268              	.LBB52:
 1269 03ec 0023     		movs	r3, #0	@ res,
 1270              	.LVL195:
 1271 03ee 88E6     		b	.L48	@
 1272              	.LVL196:
 1273              	.L82:
 1274              	.LBE52:
 1275              	.LBE97:
 1276              	.LBB98:
 1277              	.LBB58:
 1278 03f0 0023     		movs	r3, #0	@ res,
 1279              	.LVL197:
 1280 03f2 B6E6     		b	.L36	@
 1281              	.LVL198:
 1282              	.L90:
 1283              	.LBE58:
 1284              	.LBE98:
 1285              	.LBB99:
 1286              	.LBB64:
 1287 03f4 0023     		movs	r3, #0	@ res,
 1288              	.LVL199:
 1289 03f6 E4E6     		b	.L60	@
 1290              	.LVL200:
ARM GAS  /var/folders/z0/6xlwn_996xz3mwq1cgzkbq4r0000gp/T//ccBgBTlB.s 			page 34


 1291              	.L89:
 1292              	.LBE64:
 1293              	.LBE99:
 1294              	.LBB100:
 1295              	.LBB79:
 1296 03f8 0023     		movs	r3, #0	@ res,
 1297              	.LVL201:
 1298 03fa 5AE7     		b	.L57	@
 1299              	.LVL202:
 1300              	.L79:
 1301              	.LBE79:
 1302              	.LBE100:
 1303              	.LBB101:
 1304              	.LBB49:
 1305 03fc 0023     		movs	r3, #0	@ res,
 1306              	.LVL203:
 1307 03fe 68E6     		b	.L27	@
 1308              	.LVL204:
 1309              	.L81:
 1310              	.LBE49:
 1311              	.LBE101:
 1312              	.LBB102:
 1313              	.LBB73:
 1314 0400 0023     		movs	r3, #0	@ res,
 1315              	.LVL205:
 1316 0402 26E7     		b	.L33	@
 1317              	.LVL206:
 1318              	.L83:
 1319              	.LBE73:
 1320              	.LBE102:
 1321              	.LBB103:
 1322              	.LBB61:
 1323 0404 0023     		movs	r3, #0	@ res,
 1324              	.LVL207:
 1325 0406 C4E6     		b	.L39	@
 1326              	.LVL208:
 1327              	.L80:
 1328              	.LBE61:
 1329              	.LBE103:
 1330              	.LBB104:
 1331              	.LBB70:
 1332 0408 0023     		movs	r3, #0	@ res,
 1333              	.LVL209:
 1334 040a 0AE7     		b	.L30	@
 1335              	.LVL210:
 1336              	.L94:
 1337              	.LBE70:
 1338              	.LBE104:
 1339              	.LBB105:
 1340              	.LBB46:
 1341 040c 0023     		movs	r3, #0	@ res,
 1342              	.LVL211:
 1343 040e 48E6     		b	.L72	@
 1344              	.LVL212:
 1345              	.L91:
 1346              	.LBE46:
 1347              	.LBE105:
ARM GAS  /var/folders/z0/6xlwn_996xz3mwq1cgzkbq4r0000gp/T//ccBgBTlB.s 			page 35


 1348              	.LBB106:
 1349              	.LBB67:
 1350 0410 0023     		movs	r3, #0	@ res,
 1351              	.LVL213:
 1352 0412 EEE6     		b	.L63	@
 1353              	.LVL214:
 1354              	.L87:
 1355              	.LBE67:
 1356              	.LBE106:
 1357              	.LBB107:
 1358              	.LBB55:
 1359 0414 0023     		movs	r3, #0	@ res,
 1360              	.LVL215:
 1361 0416 8CE6     		b	.L51	@
 1362              	.L117:
 1363              		.align	2
 1364              	.L116:
 1365 0418 C0000000 		.word	.LC32
 1366 041c F8000000 		.word	.LC39
 1367 0420 FC000000 		.word	.LC41
 1368              	.LBE55:
 1369              	.LBE107:
 1370              	.LBE43:
 1371              		.cfi_endproc
 1372              	.LFE200:
 1373              		.size	set, .-set
 1374              		.section	.text.chrg,"ax",%progbits
 1375              		.align	2
 1376              		.code	16
 1377              		.thumb_func
 1378              		.type	chrg, %function
 1379              	chrg:
 1380              	.LFB205:
 412:src/console.c **** 
 413:src/console.c **** 
 414:src/console.c **** static void bal(const char * const * argv) {
 415:src/console.c ****     UNUSED(argv);
 416:src/console.c ****     if (csb_state->curr_mode == CSB_SSM_MODE_BALANCE || Is_Valid_Jump(csb_state->curr_mode, CSB_SSM
 417:src/console.c ****         if (strcmp(argv[1],"off") == 0) {
 418:src/console.c ****             console_output->valid_mode_request = false;
 419:src/console.c ****             console_output->balance_mV = UINT32_MAX;
 420:src/console.c ****             Board_Println("bal off");
 421:src/console.c ****         } else {
 422:src/console.c ****             console_output->valid_mode_request = true;
 423:src/console.c ****             console_output->mode_request = CSB_SSM_MODE_BALANCE;
 424:src/console.c ****             console_output->balance_mV = my_atou(argv[1]);
 425:src/console.c ****             Board_Println("bal on");
 426:src/console.c ****         }
 427:src/console.c ****     } else {
 428:src/console.c ****         Board_Println("Must be in standby");
 429:src/console.c ****     }
 430:src/console.c **** }
 431:src/console.c **** 
 432:src/console.c **** static void chrg(const char * const * argv) {
 1381              		.loc 1 432 0
 1382              		.cfi_startproc
 1383              		@ args = 0, pretend = 0, frame = 0
ARM GAS  /var/folders/z0/6xlwn_996xz3mwq1cgzkbq4r0000gp/T//ccBgBTlB.s 			page 36


 1384              		@ frame_needed = 0, uses_anonymous_args = 0
 1385              	.LVL216:
 1386 0000 10B5     		push	{r4, lr}	@
 1387              		.cfi_def_cfa_offset 8
 1388              		.cfi_offset 4, -8
 1389              		.cfi_offset 14, -4
 433:src/console.c ****     UNUSED(argv);
 434:src/console.c ****     if (csb_state->curr_mode == CSB_SSM_MODE_CHARGE || Is_Valid_Jump(csb_state->curr_mode, CSB_SSM_
 1390              		.loc 1 434 0
 1391 0002 104B     		ldr	r3, .L130	@ tmp116,
 1392 0004 1B68     		ldr	r3, [r3]	@ csb_state, csb_state
 1393 0006 1879     		ldrb	r0, [r3, #4]	@ D.8391,
 1394              	.LVL217:
 1395 0008 0228     		cmp	r0, #2	@ D.8391,
 1396 000a 04D0     		beq	.L122	@,
 1397              		.loc 1 434 0 is_stmt 0 discriminator 1
 1398 000c 0221     		movs	r1, #2	@,
 1399 000e FFF7FEFF 		bl	Is_Valid_Jump	@
 1400              	.LVL218:
 1401 0012 0028     		cmp	r0, #0	@ tmp120,
 1402 0014 12D0     		beq	.L129	@,
 1403              	.L122:
 435:src/console.c ****         if (console_output->valid_mode_request) {
 1404              		.loc 1 435 0 is_stmt 1
 1405 0016 0C4B     		ldr	r3, .L130+4	@ tmp118,
 1406 0018 1B68     		ldr	r3, [r3]	@ D.8393, console_output
 1407 001a 1A78     		ldrb	r2, [r3]	@ *_9, *_9
 1408 001c 002A     		cmp	r2, #0	@ *_9,
 1409 001e 07D1     		bne	.L120	@,
 436:src/console.c ****             console_output->valid_mode_request = false;
 437:src/console.c ****             Board_Println("chrg off");
 438:src/console.c ****         } else {
 439:src/console.c ****             console_output->valid_mode_request = true;
 1410              		.loc 1 439 0
 1411 0020 0122     		movs	r2, #1	@ tmp125,
 1412 0022 1A70     		strb	r2, [r3]	@ tmp125, _9->valid_mode_request
 440:src/console.c ****             console_output->mode_request = CSB_SSM_MODE_CHARGE;
 1413              		.loc 1 440 0
 1414 0024 0132     		adds	r2, r2, #1	@ tmp127,
 1415 0026 9A70     		strb	r2, [r3, #2]	@ tmp127, _9->mode_request
 441:src/console.c ****             Board_Println("chrg on");
 1416              		.loc 1 441 0
 1417 0028 0848     		ldr	r0, .L130+8	@,
 1418 002a FFF7FEFF 		bl	Board_Println	@
 1419              	.LVL219:
 1420              	.L118:
 442:src/console.c ****         }
 443:src/console.c ****     } else {
 444:src/console.c ****         Board_Println("Must be in standby");
 445:src/console.c ****     }
 446:src/console.c **** }
 1421              		.loc 1 446 0
 1422              		@ sp needed	@
 1423 002e 10BD     		pop	{r4, pc}
 1424              	.L120:
 436:src/console.c ****             Board_Println("chrg off");
 1425              		.loc 1 436 0
ARM GAS  /var/folders/z0/6xlwn_996xz3mwq1cgzkbq4r0000gp/T//ccBgBTlB.s 			page 37


 1426 0030 0022     		movs	r2, #0	@ tmp122,
 437:src/console.c ****         } else {
 1427              		.loc 1 437 0
 1428 0032 0748     		ldr	r0, .L130+12	@,
 436:src/console.c ****             Board_Println("chrg off");
 1429              		.loc 1 436 0
 1430 0034 1A70     		strb	r2, [r3]	@ tmp122, _9->valid_mode_request
 437:src/console.c ****         } else {
 1431              		.loc 1 437 0
 1432 0036 FFF7FEFF 		bl	Board_Println	@
 1433              	.LVL220:
 1434 003a F8E7     		b	.L118	@
 1435              	.L129:
 444:src/console.c ****     }
 1436              		.loc 1 444 0
 1437 003c 0548     		ldr	r0, .L130+16	@,
 1438 003e FFF7FEFF 		bl	Board_Println	@
 1439              	.LVL221:
 1440              		.loc 1 446 0
 1441 0042 F4E7     		b	.L118	@
 1442              	.L131:
 1443              		.align	2
 1444              	.L130:
 1445 0044 00000000 		.word	.LANCHOR1
 1446 0048 00000000 		.word	.LANCHOR0
 1447 004c 0C010000 		.word	.LC48
 1448 0050 00010000 		.word	.LC46
 1449 0054 14010000 		.word	.LC50
 1450              		.cfi_endproc
 1451              	.LFE205:
 1452              		.size	chrg, .-chrg
 1453              		.section	.text.get,"ax",%progbits
 1454              		.align	2
 1455              		.code	16
 1456              		.thumb_func
 1457              		.type	get, %function
 1458              	get:
 1459              	.LFB199:
  32:src/console.c ****     rw_loc_label_t rwloc;
 1460              		.loc 1 32 0
 1461              		.cfi_startproc
 1462              		@ args = 0, pretend = 0, frame = 24
 1463              		@ frame_needed = 0, uses_anonymous_args = 0
 1464              	.LVL222:
 1465 0000 F0B5     		push	{r4, r5, r6, r7, lr}	@
 1466              		.cfi_def_cfa_offset 20
 1467              		.cfi_offset 4, -20
 1468              		.cfi_offset 5, -16
 1469              		.cfi_offset 6, -12
 1470              		.cfi_offset 7, -8
 1471              		.cfi_offset 14, -4
 1472 0002 9F4D     		ldr	r5, .L190	@ ivtmp.152,
 1473 0004 87B0     		sub	sp, sp, #28	@,,
 1474              		.cfi_def_cfa_offset 48
 1475 0006 4668     		ldr	r6, [r0, #4]	@ D.8443, MEM[(const char * const *)argv_9(D) + 4B]
 1476 0008 2F1D     		adds	r7, r5, #4	@ ivtmp.167, ivtmp.152,
  32:src/console.c ****     rw_loc_label_t rwloc;
ARM GAS  /var/folders/z0/6xlwn_996xz3mwq1cgzkbq4r0000gp/T//ccBgBTlB.s 			page 38


 1477              		.loc 1 32 0
 1478 000a 9E49     		ldr	r1, .L190+4	@ D.8443,
  37:src/console.c ****         if (strcmp(argv[1],locstring[rwloc]) == 0){
 1479              		.loc 1 37 0
 1480 000c 0024     		movs	r4, #0	@ rwloc,
 1481 000e 00E0     		b	.L136	@
 1482              	.LVL223:
 1483              	.L134:
 1484 0010 02CF     		ldmia	r7!, {r1}	@ MEM[base: _208, offset: 0B], D.8443
 1485              	.LVL224:
 1486              	.L136:
  38:src/console.c ****             foundloc = true;
 1487              		.loc 1 38 0
 1488 0012 3000     		movs	r0, r6	@, D.8443
 1489 0014 FFF7FEFF 		bl	strcmp	@
 1490              	.LVL225:
 1491 0018 0028     		cmp	r0, #0	@ tmp288,
 1492 001a 15D0     		beq	.L133	@,
  37:src/console.c ****         if (strcmp(argv[1],locstring[rwloc]) == 0){
 1493              		.loc 1 37 0 discriminator 2
 1494 001c 0134     		adds	r4, r4, #1	@ tmp290,
 1495              	.LVL226:
 1496 001e E4B2     		uxtb	r4, r4	@ rwloc, tmp290
 1497              	.LVL227:
 1498 0020 112C     		cmp	r4, #17	@ rwloc,
 1499 0022 F5D1     		bne	.L134	@,
  37:src/console.c ****         if (strcmp(argv[1],locstring[rwloc]) == 0){
 1500              		.loc 1 37 0 is_stmt 0
 1501 0024 9849     		ldr	r1, .L190+8	@ D.8443,
 1502 0026 00E0     		b	.L135	@
 1503              	.LVL228:
 1504              	.L184:
 1505 0028 696C     		ldr	r1, [r5, #68]	@ D.8443, MEM[base: _4, offset: 68B]
 1506              	.LVL229:
 1507              	.L135:
 1508              	.LBB108:
 123:src/console.c ****                 foundloc = true;
 1509              		.loc 1 123 0 is_stmt 1
 1510 002a 3000     		movs	r0, r6	@, D.8443
 1511 002c FFF7FEFF 		bl	strcmp	@
 1512              	.LVL230:
 1513 0030 0028     		cmp	r0, #0	@ tmp396,
 1514 0032 0FD0     		beq	.L156	@,
 122:src/console.c ****             if (strcmp(argv[1],locstring[roloc]) == 0){
 1515              		.loc 1 122 0 discriminator 2
 1516 0034 0134     		adds	r4, r4, #1	@ tmp398,
 1517              	.LVL231:
 1518 0036 E4B2     		uxtb	r4, r4	@ roloc, tmp398
 1519              	.LVL232:
 1520 0038 0435     		adds	r5, r5, #4	@ ivtmp.152,
 1521 003a 182C     		cmp	r4, #24	@ roloc,
 1522 003c F4D1     		bne	.L184	@,
 195:src/console.c ****         }
 1523              		.loc 1 195 0
 1524 003e 9348     		ldr	r0, .L190+12	@,
 1525 0040 FFF7FEFF 		bl	Board_Println	@
 1526              	.LVL233:
ARM GAS  /var/folders/z0/6xlwn_996xz3mwq1cgzkbq4r0000gp/T//ccBgBTlB.s 			page 39


 1527              	.L132:
 1528              	.LBE108:
 198:src/console.c **** 
 1529              		.loc 1 198 0
 1530 0044 07B0     		add	sp, sp, #28	@,,
 1531              		@ sp needed	@
 1532 0046 F0BD     		pop	{r4, r5, r6, r7, pc}
 1533              	.LVL234:
 1534              	.L133:
 1535              	.LBB113:
  46:src/console.c ****             case RWL_cell_min_mV:
 1536              		.loc 1 46 0
 1537 0048 102C     		cmp	r4, #16	@ rwloc,
 1538 004a 52D8     		bhi	.L137	@,
 1539 004c 904B     		ldr	r3, .L190+16	@ tmp500,
 1540 004e A400     		lsls	r4, r4, #2	@ tmp498, rwloc,
 1541              	.LVL235:
 1542 0050 1B59     		ldr	r3, [r3, r4]	@ tmp501,
 1543 0052 9F46     		mov	pc, r3	@ tmp501
 1544              		.section	.rodata.get,"a",%progbits
 1545              		.align	2
 1546              	.L171:
 1547 0000 F2000000 		.word	.L137
 1548 0004 B2000000 		.word	.L139
 1549 0008 B6000000 		.word	.L140
 1550 000c C0000000 		.word	.L141
 1551 0010 CA000000 		.word	.L142
 1552 0014 FC000000 		.word	.L143
 1553 0018 06010000 		.word	.L144
 1554 001c 10010000 		.word	.L145
 1555 0020 1A010000 		.word	.L146
 1556 0024 24010000 		.word	.L147
 1557 0028 2E010000 		.word	.L148
 1558 002c 38010000 		.word	.L149
 1559 0030 42010000 		.word	.L150
 1560 0034 D4000000 		.word	.L151
 1561 0038 DE000000 		.word	.L152
 1562 003c E8000000 		.word	.L153
 1563 0040 4C010000 		.word	.L154
 1564              		.section	.text.get
 1565              	.LVL236:
 1566              	.L156:
 1567              	.LBE113:
 1568              	.LBB114:
 1569              	.LBB109:
 130:src/console.c ****                 case ROL_total_num_cells:
 1570              		.loc 1 130 0
 1571 0054 123C     		subs	r4, r4, #18	@ tmp502,
 1572              	.LVL237:
 1573 0056 E4B2     		uxtb	r4, r4	@ tmp503, tmp502
 1574 0058 052C     		cmp	r4, #5	@ tmp503,
 1575 005a 00D9     		bls	.LCB1623	@
 1576 005c 81E0     		b	.L161	@long jump	@
 1577              	.LCB1623:
 1578 005e 8D4B     		ldr	r3, .L190+20	@ tmp507,
 1579 0060 A400     		lsls	r4, r4, #2	@ tmp505, tmp503,
 1580 0062 1B59     		ldr	r3, [r3, r4]	@ tmp508,
ARM GAS  /var/folders/z0/6xlwn_996xz3mwq1cgzkbq4r0000gp/T//ccBgBTlB.s 			page 40


 1581 0064 9F46     		mov	pc, r3	@ tmp508
 1582              		.section	.rodata.get
 1583              		.align	2
 1584              	.L172:
 1585 0044 88000000 		.word	.L158
 1586 0048 92000000 		.word	.L160
 1587 004c A8000000 		.word	.L162
 1588 0050 66000000 		.word	.L163
 1589 0054 7E000000 		.word	.L164
 1590 0058 90010000 		.word	.L165
 1591              		.section	.text.get
 1592              	.L163:
 148:src/console.c ****                     Board_Println(tempstr);
 1593              		.loc 1 148 0
 1594 0066 8C4B     		ldr	r3, .L190+24	@ tmp438,
 1595              	.L183:
 1596              	.LBE109:
 1597              	.LBE114:
 1598              	.LBB115:
  52:src/console.c ****                 Board_Println(tempstr);
 1599              		.loc 1 52 0
 1600 0068 1B68     		ldr	r3, [r3]	@ csb_state,
 1601 006a 1B68     		ldr	r3, [r3]	@ _21->pack_config,* csb_state
 1602 006c 5868     		ldr	r0, [r3, #4]	@ _22->cell_max_mV,
 1603              	.L182:
 1604 006e 0A22     		movs	r2, #10	@,
 1605 0070 01A9     		add	r1, sp, #4	@ tmp515,,
 1606 0072 FFF7FEFF 		bl	utoa	@
 1607              	.LVL238:
  53:src/console.c ****                 break;
 1608              		.loc 1 53 0
 1609 0076 01A8     		add	r0, sp, #4	@ tmp516,,
 1610 0078 FFF7FEFF 		bl	Board_Println	@
 1611              	.LVL239:
  54:src/console.c ****             case RWL_cell_capacity_cAh:
 1612              		.loc 1 54 0
 1613 007c E2E7     		b	.L132	@
 1614              	.L164:
 1615              	.LBE115:
 1616              	.LBB116:
 1617              	.LBB110:
 152:src/console.c ****                     Board_Println(tempstr);
 1618              		.loc 1 152 0
 1619 007e 864B     		ldr	r3, .L190+24	@ tmp444,
 1620 0080 1B68     		ldr	r3, [r3]	@ csb_input,
 1621 0082 1B68     		ldr	r3, [r3]	@ _144->pack_status,* csb_input
 1622 0084 9868     		ldr	r0, [r3, #8]	@ _145->pack_voltage_mV,
 1623 0086 F2E7     		b	.L182	@
 1624              	.L158:
 132:src/console.c ****                     Board_Println(tempstr);
 1625              		.loc 1 132 0
 1626 0088 844B     		ldr	r3, .L190+28	@ tmp400,
 1627 008a 1B68     		ldr	r3, [r3]	@ csb_state, csb_state
 1628 008c 1B68     		ldr	r3, [r3]	@ _108->pack_config, _108->pack_config
 1629 008e 186B     		ldr	r0, [r3, #48]	@ _109->total_num_cells, _109->total_num_cells
 1630 0090 EDE7     		b	.L182	@
 1631              	.L160:
ARM GAS  /var/folders/z0/6xlwn_996xz3mwq1cgzkbq4r0000gp/T//ccBgBTlB.s 			page 41


 136:src/console.c ****                     break;
 1632              		.loc 1 136 0
 1633 0092 824B     		ldr	r3, .L190+28	@ tmp406,
 1634 0094 1B68     		ldr	r3, [r3]	@ csb_state, csb_state
 1635 0096 1A68     		ldr	r2, [r3]	@ _113->pack_config, _113->pack_config
 1636 0098 4523     		movs	r3, #69	@ tmp409,
 1637 009a D35C     		ldrb	r3, [r2, r3]	@ D.8445,
 1638 009c 804A     		ldr	r2, .L190+32	@ tmp405,
 1639 009e 9B00     		lsls	r3, r3, #2	@ tmp411, D.8445,
 1640 00a0 9858     		ldr	r0, [r3, r2]	@ tmp412,
 1641 00a2 FFF7FEFF 		bl	Board_Println	@
 1642              	.LVL240:
 137:src/console.c ****                 case ROL_state:
 1643              		.loc 1 137 0
 1644 00a6 CDE7     		b	.L132	@
 1645              	.L162:
 144:src/console.c ****                     Board_Println(tempstr);
 1646              		.loc 1 144 0
 1647 00a8 7B4B     		ldr	r3, .L190+24	@ tmp432,
 1648 00aa 1B68     		ldr	r3, [r3]	@ csb_input,
 1649 00ac 1B68     		ldr	r3, [r3]	@ _134->pack_status,* csb_input
 1650 00ae 1868     		ldr	r0, [r3]	@ _135->pack_cell_max_mV,* _134->pack_status
 1651 00b0 DDE7     		b	.L182	@
 1652              	.L139:
 1653              	.LBE110:
 1654              	.LBE116:
 1655              	.LBB117:
  52:src/console.c ****                 Board_Println(tempstr);
 1656              		.loc 1 52 0
 1657 00b2 7A4B     		ldr	r3, .L190+28	@ tmp299,
 1658 00b4 D8E7     		b	.L183	@
 1659              	.L140:
  56:src/console.c ****                 Board_Println(tempstr);
 1660              		.loc 1 56 0
 1661 00b6 794B     		ldr	r3, .L190+28	@ tmp305,
 1662 00b8 1B68     		ldr	r3, [r3]	@ csb_state,
 1663 00ba 1B68     		ldr	r3, [r3]	@ _26->pack_config,* csb_state
 1664 00bc 9868     		ldr	r0, [r3, #8]	@ _27->cell_capacity_cAh,
 1665 00be D6E7     		b	.L182	@
 1666              	.L141:
  60:src/console.c ****                 Board_Println(tempstr);
 1667              		.loc 1 60 0
 1668 00c0 764B     		ldr	r3, .L190+28	@ tmp311,
 1669 00c2 1B68     		ldr	r3, [r3]	@ csb_state,
 1670 00c4 1B68     		ldr	r3, [r3]	@ _31->pack_config, _31->pack_config
 1671 00c6 D868     		ldr	r0, [r3, #12]	@ _32->num_modules, _32->num_modules
 1672 00c8 D1E7     		b	.L182	@
 1673              	.L142:
  64:src/console.c ****                 Board_Println(tempstr);
 1674              		.loc 1 64 0
 1675 00ca 744B     		ldr	r3, .L190+28	@ tmp317,
 1676 00cc 1B68     		ldr	r3, [r3]	@ csb_state,
 1677 00ce 1B68     		ldr	r3, [r3]	@ _36->pack_config, _36->pack_config
 1678 00d0 D86A     		ldr	r0, [r3, #44]	@ _37->module_cell_count, _37->module_cell_count
 1679 00d2 CCE7     		b	.L182	@
 1680              	.L151:
 100:src/console.c ****                 Board_Println(tempstr);
ARM GAS  /var/folders/z0/6xlwn_996xz3mwq1cgzkbq4r0000gp/T//ccBgBTlB.s 			page 42


 1681              		.loc 1 100 0
 1682 00d4 714B     		ldr	r3, .L190+28	@ tmp371,
 1683 00d6 1B68     		ldr	r3, [r3]	@ csb_state,
 1684 00d8 1B68     		ldr	r3, [r3]	@ _81->pack_config, _81->pack_config
 1685 00da 986B     		ldr	r0, [r3, #56]	@ _82->cc_charge_current_mA, _82->cc_charge_current_mA
 1686 00dc C7E7     		b	.L182	@
 1687              	.L152:
 104:src/console.c ****                 Board_Println(tempstr);
 1688              		.loc 1 104 0
 1689 00de 6F4B     		ldr	r3, .L190+28	@ tmp377,
 1690 00e0 1B68     		ldr	r3, [r3]	@ csb_state,
 1691 00e2 1B68     		ldr	r3, [r3]	@ _86->pack_config, _86->pack_config
 1692 00e4 D86B     		ldr	r0, [r3, #60]	@ _87->cv_charge_voltage_mV, _87->cv_charge_voltage_mV
 1693 00e6 C2E7     		b	.L182	@
 1694              	.L153:
 108:src/console.c ****                 Board_Println(tempstr);
 1695              		.loc 1 108 0
 1696 00e8 6C4B     		ldr	r3, .L190+28	@ tmp383,
 1697 00ea 1B68     		ldr	r3, [r3]	@ csb_state,
 1698 00ec 1B68     		ldr	r3, [r3]	@ _91->pack_config, _91->pack_config
 1699 00ee 186C     		ldr	r0, [r3, #64]	@ _92->cv_charge_current_mA, _92->cv_charge_current_mA
 1700 00f0 BDE7     		b	.L182	@
 1701              	.L137:
  48:src/console.c ****                 Board_Println(tempstr);
 1702              		.loc 1 48 0
 1703 00f2 6A4B     		ldr	r3, .L190+28	@ tmp293,
 1704 00f4 1B68     		ldr	r3, [r3]	@ csb_state,
 1705 00f6 1B68     		ldr	r3, [r3]	@ _16->pack_config,* csb_state
 1706 00f8 1868     		ldr	r0, [r3]	@ _17->cell_min_mV,* _16->pack_config
 1707 00fa B8E7     		b	.L182	@
 1708              	.L143:
  68:src/console.c ****               Board_Println(tempstr);
 1709              		.loc 1 68 0
 1710 00fc 674B     		ldr	r3, .L190+28	@ tmp323,
 1711 00fe 1B68     		ldr	r3, [r3]	@ csb_state,
 1712 0100 1B68     		ldr	r3, [r3]	@ _41->pack_config, _41->pack_config
 1713 0102 1869     		ldr	r0, [r3, #16]	@ _42->cell_charge_c_rating_cC, _42->cell_charge_c_rating_cC
 1714 0104 B3E7     		b	.L182	@
 1715              	.L144:
  72:src/console.c ****                 Board_Println(tempstr);
 1716              		.loc 1 72 0
 1717 0106 654B     		ldr	r3, .L190+28	@ tmp329,
 1718 0108 1B68     		ldr	r3, [r3]	@ csb_state,
 1719 010a 1B68     		ldr	r3, [r3]	@ _46->pack_config, _46->pack_config
 1720 010c 5869     		ldr	r0, [r3, #20]	@ _47->bal_on_thresh_mV, _47->bal_on_thresh_mV
 1721 010e AEE7     		b	.L182	@
 1722              	.L145:
  76:src/console.c ****                 Board_Println(tempstr);
 1723              		.loc 1 76 0
 1724 0110 624B     		ldr	r3, .L190+28	@ tmp335,
 1725 0112 1B68     		ldr	r3, [r3]	@ csb_state,
 1726 0114 1B68     		ldr	r3, [r3]	@ _51->pack_config, _51->pack_config
 1727 0116 9869     		ldr	r0, [r3, #24]	@ _52->bal_off_thresh_mV, _52->bal_off_thresh_mV
 1728 0118 A9E7     		b	.L182	@
 1729              	.L146:
  80:src/console.c ****                 Board_Println(tempstr);
 1730              		.loc 1 80 0
ARM GAS  /var/folders/z0/6xlwn_996xz3mwq1cgzkbq4r0000gp/T//ccBgBTlB.s 			page 43


 1731 011a 604B     		ldr	r3, .L190+28	@ tmp341,
 1732 011c 1B68     		ldr	r3, [r3]	@ csb_state,
 1733 011e 1B68     		ldr	r3, [r3]	@ _56->pack_config, _56->pack_config
 1734 0120 D869     		ldr	r0, [r3, #28]	@ _57->pack_cells_p, _57->pack_cells_p
 1735 0122 A4E7     		b	.L182	@
 1736              	.L147:
  84:src/console.c ****                 Board_Println(tempstr);
 1737              		.loc 1 84 0
 1738 0124 5D4B     		ldr	r3, .L190+28	@ tmp347,
 1739 0126 1B68     		ldr	r3, [r3]	@ csb_state,
 1740 0128 1B68     		ldr	r3, [r3]	@ _61->pack_config, _61->pack_config
 1741 012a 186A     		ldr	r0, [r3, #32]	@ _62->cv_min_current_mA, _62->cv_min_current_mA
 1742 012c 9FE7     		b	.L182	@
 1743              	.L148:
  88:src/console.c ****                 Board_Println(tempstr);
 1744              		.loc 1 88 0
 1745 012e 5B4B     		ldr	r3, .L190+28	@ tmp353,
 1746 0130 1B68     		ldr	r3, [r3]	@ csb_state,
 1747 0132 1B68     		ldr	r3, [r3]	@ _66->pack_config, _66->pack_config
 1748 0134 586A     		ldr	r0, [r3, #36]	@ _67->cv_min_current_ms, _67->cv_min_current_ms
 1749 0136 9AE7     		b	.L182	@
 1750              	.L149:
  92:src/console.c ****                 Board_Println(tempstr);
 1751              		.loc 1 92 0
 1752 0138 584B     		ldr	r3, .L190+28	@ tmp359,
 1753 013a 1B68     		ldr	r3, [r3]	@ csb_state,
 1754 013c 1B68     		ldr	r3, [r3]	@ _71->pack_config, _71->pack_config
 1755 013e 986A     		ldr	r0, [r3, #40]	@ _72->cc_cell_voltage_mV, _72->cc_cell_voltage_mV
 1756 0140 95E7     		b	.L182	@
 1757              	.L150:
  96:src/console.c ****                 Board_Println(tempstr);
 1758              		.loc 1 96 0
 1759 0142 564B     		ldr	r3, .L190+28	@ tmp365,
 1760 0144 1B68     		ldr	r3, [r3]	@ csb_state,
 1761 0146 1B68     		ldr	r3, [r3]	@ _76->pack_config, _76->pack_config
 1762 0148 586B     		ldr	r0, [r3, #52]	@ _77->cc_charge_voltage_mV, _77->cc_charge_voltage_mV
 1763 014a 90E7     		b	.L182	@
 1764              	.L154:
 112:src/console.c ****                 break;
 1765              		.loc 1 112 0
 1766 014c 534B     		ldr	r3, .L190+28	@ tmp389,
 1767 014e 1B68     		ldr	r3, [r3]	@ csb_state,
 1768 0150 1A68     		ldr	r2, [r3]	@ _96->pack_config, _96->pack_config
 1769 0152 4423     		movs	r3, #68	@ tmp392,
 1770 0154 D35C     		ldrb	r3, [r2, r3]	@ D.8445,
 1771 0156 534A     		ldr	r2, .L190+36	@ tmp388,
 1772 0158 9B00     		lsls	r3, r3, #2	@ tmp394, D.8445,
 1773 015a 9858     		ldr	r0, [r3, r2]	@ tmp395,
 1774 015c FFF7FEFF 		bl	Board_Println	@
 1775              	.LVL241:
 113:src/console.c ****             case RWL_LENGTH:
 1776              		.loc 1 113 0
 1777 0160 70E7     		b	.L132	@
 1778              	.L161:
 1779              	.LBE117:
 1780              	.LBB118:
 1781              	.LBB111:
ARM GAS  /var/folders/z0/6xlwn_996xz3mwq1cgzkbq4r0000gp/T//ccBgBTlB.s 			page 44


 139:src/console.c ****                     Board_Println(CSB_INIT_MODE_NAMES[csb_state->init_state]);
 1782              		.loc 1 139 0
 1783 0162 4E4C     		ldr	r4, .L190+28	@ tmp414,
 1784 0164 504A     		ldr	r2, .L190+40	@ tmp413,
 1785 0166 2368     		ldr	r3, [r4]	@ tmp547, csb_state
 1786 0168 1B79     		ldrb	r3, [r3, #4]	@ D.8445,
 1787 016a 9B00     		lsls	r3, r3, #2	@ tmp417, D.8445,
 1788 016c 9858     		ldr	r0, [r3, r2]	@ tmp418, CSB_SSM_MODE_NAMES
 1789 016e FFF7FEFF 		bl	Board_Println	@
 1790              	.LVL242:
 140:src/console.c ****                     Board_Println(CSB_CHARGE_MODE_NAMES[csb_state->charge_state]);
 1791              		.loc 1 140 0
 1792 0172 2368     		ldr	r3, [r4]	@ tmp548, csb_state
 1793 0174 4D4A     		ldr	r2, .L190+44	@ tmp419,
 1794 0176 5B79     		ldrb	r3, [r3, #5]	@ D.8445,
 1795 0178 9B00     		lsls	r3, r3, #2	@ tmp423, D.8445,
 1796 017a 9858     		ldr	r0, [r3, r2]	@ tmp424, CSB_INIT_MODE_NAMES
 1797 017c FFF7FEFF 		bl	Board_Println	@
 1798              	.LVL243:
 141:src/console.c ****                     break;
 1799              		.loc 1 141 0
 1800 0180 2368     		ldr	r3, [r4]	@ csb_state, csb_state
 1801 0182 4B4A     		ldr	r2, .L190+48	@ tmp425,
 1802 0184 9B79     		ldrb	r3, [r3, #6]	@ D.8445,
 1803 0186 9B00     		lsls	r3, r3, #2	@ tmp429, D.8445,
 1804 0188 9858     		ldr	r0, [r3, r2]	@ tmp430,
 1805 018a FFF7FEFF 		bl	Board_Println	@
 1806              	.LVL244:
 142:src/console.c ****                 case ROL_pack_cell_max_mV:
 1807              		.loc 1 142 0
 1808 018e 59E7     		b	.L132	@
 1809              	.L165:
 156:src/console.c ****                     Board_Print("low side contactor fault ");
 1810              		.loc 1 156 0
 1811 0190 414C     		ldr	r4, .L190+24	@ tmp511,
 1812 0192 0A22     		movs	r2, #10	@,
 1813 0194 2368     		ldr	r3, [r4]	@ tmp555, csb_input
 1814 0196 01A9     		add	r1, sp, #4	@ tmp556,,
 1815 0198 987E     		ldrb	r0, [r3, #26]	@ D.8458,
 1816 019a FFF7FEFF 		bl	utoa	@
 1817              	.LVL245:
 157:src/console.c ****                     Board_Println(tempstr);
 1818              		.loc 1 157 0
 1819 019e 4548     		ldr	r0, .L190+52	@,
 1820 01a0 FFF7FEFF 		bl	Board_Print	@
 1821              	.LVL246:
 158:src/console.c ****                     utoa(csb_input->imd_fault, tempstr,10);
 1822              		.loc 1 158 0
 1823 01a4 01A8     		add	r0, sp, #4	@ tmp557,,
 1824 01a6 FFF7FEFF 		bl	Board_Println	@
 1825              	.LVL247:
 159:src/console.c ****                     Board_Print("IMD fault ");
 1826              		.loc 1 159 0
 1827 01aa 2368     		ldr	r3, [r4]	@ tmp558, csb_input
 1828 01ac 0A22     		movs	r2, #10	@,
 1829 01ae D87D     		ldrb	r0, [r3, #23]	@ D.8458,
 1830 01b0 01A9     		add	r1, sp, #4	@ tmp559,,
ARM GAS  /var/folders/z0/6xlwn_996xz3mwq1cgzkbq4r0000gp/T//ccBgBTlB.s 			page 45


 1831 01b2 FFF7FEFF 		bl	utoa	@
 1832              	.LVL248:
 160:src/console.c ****                     Board_Println(tempstr);
 1833              		.loc 1 160 0
 1834 01b6 4048     		ldr	r0, .L190+56	@,
 1835 01b8 FFF7FEFF 		bl	Board_Print	@
 1836              	.LVL249:
 161:src/console.c ****                     utoa(csb_input->int_fault, tempstr,10);
 1837              		.loc 1 161 0
 1838 01bc 01A8     		add	r0, sp, #4	@ tmp560,,
 1839 01be FFF7FEFF 		bl	Board_Println	@
 1840              	.LVL250:
 162:src/console.c ****                     Board_Print("interlock fault ");
 1841              		.loc 1 162 0
 1842 01c2 2368     		ldr	r3, [r4]	@ tmp561, csb_input
 1843 01c4 0A22     		movs	r2, #10	@,
 1844 01c6 187E     		ldrb	r0, [r3, #24]	@ D.8458,
 1845 01c8 01A9     		add	r1, sp, #4	@ tmp562,,
 1846 01ca FFF7FEFF 		bl	utoa	@
 1847              	.LVL251:
 163:src/console.c ****                     Board_Println(tempstr);
 1848              		.loc 1 163 0
 1849 01ce 3B48     		ldr	r0, .L190+60	@,
 1850 01d0 FFF7FEFF 		bl	Board_Print	@
 1851              	.LVL252:
 164:src/console.c ****                     utoa(csb_input->bms_fault, tempstr,10);
 1852              		.loc 1 164 0
 1853 01d4 01A8     		add	r0, sp, #4	@ tmp563,,
 1854 01d6 FFF7FEFF 		bl	Board_Println	@
 1855              	.LVL253:
 165:src/console.c ****                     Board_Print("BMS fault ");
 1856              		.loc 1 165 0
 1857 01da 2368     		ldr	r3, [r4]	@ tmp564, csb_input
 1858 01dc 0A22     		movs	r2, #10	@,
 1859 01de 587E     		ldrb	r0, [r3, #25]	@ D.8458,
 1860 01e0 01A9     		add	r1, sp, #4	@ tmp565,,
 1861 01e2 FFF7FEFF 		bl	utoa	@
 1862              	.LVL254:
 166:src/console.c ****                     Board_Println(tempstr);
 1863              		.loc 1 166 0
 1864 01e6 3648     		ldr	r0, .L190+64	@,
 1865 01e8 FFF7FEFF 		bl	Board_Print	@
 1866              	.LVL255:
 167:src/console.c ****                     if (csb_input->bms_fault) {
 1867              		.loc 1 167 0
 1868 01ec 01A8     		add	r0, sp, #4	@ tmp566,,
 1869 01ee FFF7FEFF 		bl	Board_Println	@
 1870              	.LVL256:
 168:src/console.c ****                         utoa(csb_input->bms_error, tempstr,10);
 1871              		.loc 1 168 0
 1872 01f2 2368     		ldr	r3, [r4]	@ D.8455, csb_input
 1873 01f4 5A7E     		ldrb	r2, [r3, #25]	@ tmp474,
 1874 01f6 002A     		cmp	r2, #0	@ tmp474,
 1875 01f8 25D1     		bne	.L185	@,
 1876              	.L166:
 173:src/console.c ****                     Board_Print("elcon on ");
 1877              		.loc 1 173 0
ARM GAS  /var/folders/z0/6xlwn_996xz3mwq1cgzkbq4r0000gp/T//ccBgBTlB.s 			page 46


 1878 01fa 5B68     		ldr	r3, [r3, #4]	@ _217->elcon_status, _217->elcon_status
 1879 01fc 0A22     		movs	r2, #10	@,
 1880 01fe 587A     		ldrb	r0, [r3, #9]	@ D.8458,
 1881 0200 01A9     		add	r1, sp, #4	@ tmp569,,
 1882 0202 FFF7FEFF 		bl	utoa	@
 1883              	.LVL257:
 174:src/console.c ****                     Board_Println(tempstr);
 1884              		.loc 1 174 0
 1885 0206 2F48     		ldr	r0, .L190+68	@,
 1886 0208 FFF7FEFF 		bl	Board_Print	@
 1887              	.LVL258:
 175:src/console.c ****                     if (csb_input->elcon_status->elcon_on) {
 1888              		.loc 1 175 0
 1889 020c 01A8     		add	r0, sp, #4	@ tmp570,,
 1890 020e FFF7FEFF 		bl	Board_Println	@
 1891              	.LVL259:
 176:src/console.c ****                         if (csb_input->elcon_status->elcon_has_hardware_failure) {
 1892              		.loc 1 176 0
 1893 0212 2368     		ldr	r3, [r4]	@ csb_input, csb_input
 1894 0214 5B68     		ldr	r3, [r3, #4]	@ D.8460, _188->elcon_status
 1895 0216 5A7A     		ldrb	r2, [r3, #9]	@ tmp487,
 1896 0218 002A     		cmp	r2, #0	@ tmp487,
 1897 021a 00D1     		bne	.LCB1976	@
 1898 021c 12E7     		b	.L132	@long jump	@
 1899              	.LCB1976:
 177:src/console.c ****                           Board_Println("  elcon has hardware failure");
 1900              		.loc 1 177 0
 1901 021e 1A79     		ldrb	r2, [r3, #4]	@ tmp488,
 1902 0220 002A     		cmp	r2, #0	@ tmp488,
 1903 0222 1DD1     		bne	.L186	@,
 179:src/console.c ****                           Board_Println("  elcon over temp protection on");
 1904              		.loc 1 179 0
 1905 0224 5A79     		ldrb	r2, [r3, #5]	@ tmp490,
 1906 0226 002A     		cmp	r2, #0	@ tmp490,
 1907 0228 1ED1     		bne	.L187	@,
 181:src/console.c ****                           Board_Println("  elcon input voltage is wrong");
 1908              		.loc 1 181 0
 1909 022a 9A79     		ldrb	r2, [r3, #6]	@ tmp492,
 1910 022c 002A     		cmp	r2, #0	@ tmp492,
 1911 022e 1FD1     		bne	.L188	@,
 183:src/console.c ****                           Board_Println("  elcon battery voltage not detected");
 1912              		.loc 1 183 0
 1913 0230 DA79     		ldrb	r2, [r3, #7]	@ tmp494,
 1914 0232 002A     		cmp	r2, #0	@ tmp494,
 1915 0234 20D1     		bne	.L189	@,
 185:src/console.c ****                           Board_Println("  elcon comms is bad");
 1916              		.loc 1 185 0
 1917 0236 1B7A     		ldrb	r3, [r3, #8]	@ tmp496,
 1918 0238 002B     		cmp	r3, #0	@ tmp496,
 1919 023a 00D1     		bne	.LCB1991	@
 1920 023c 02E7     		b	.L132	@long jump	@
 1921              	.LCB1991:
 186:src/console.c ****                         }
 1922              		.loc 1 186 0
 1923 023e 2248     		ldr	r0, .L190+72	@,
 1924 0240 FFF7FEFF 		bl	Board_Println	@
 1925              	.LVL260:
ARM GAS  /var/folders/z0/6xlwn_996xz3mwq1cgzkbq4r0000gp/T//ccBgBTlB.s 			page 47


 1926              	.LBE111:
 1927              	.LBE118:
 198:src/console.c **** 
 1928              		.loc 1 198 0
 1929 0244 FEE6     		b	.L132	@
 1930              	.L185:
 1931              	.LBB119:
 1932              	.LBB112:
 169:src/console.c ****                         Board_Print("  error ");
 1933              		.loc 1 169 0
 1934 0246 D87E     		ldrb	r0, [r3, #27]	@ D.8458,
 1935 0248 0A22     		movs	r2, #10	@,
 1936 024a 01A9     		add	r1, sp, #4	@ tmp567,,
 1937 024c FFF7FEFF 		bl	utoa	@
 1938              	.LVL261:
 170:src/console.c ****                         Board_Println(tempstr);
 1939              		.loc 1 170 0
 1940 0250 1E48     		ldr	r0, .L190+76	@,
 1941 0252 FFF7FEFF 		bl	Board_Print	@
 1942              	.LVL262:
 171:src/console.c ****                     }
 1943              		.loc 1 171 0
 1944 0256 01A8     		add	r0, sp, #4	@ tmp568,,
 1945 0258 FFF7FEFF 		bl	Board_Println	@
 1946              	.LVL263:
 1947 025c 2368     		ldr	r3, [r4]	@ D.8455, csb_input
 1948 025e CCE7     		b	.L166	@
 1949              	.L186:
 178:src/console.c ****                         } else if (csb_input->elcon_status->elcon_over_temp_protection_on) {
 1950              		.loc 1 178 0
 1951 0260 1B48     		ldr	r0, .L190+80	@,
 1952 0262 FFF7FEFF 		bl	Board_Println	@
 1953              	.LVL264:
 1954 0266 EDE6     		b	.L132	@
 1955              	.L187:
 180:src/console.c ****                         } else if (csb_input->elcon_status->elcon_is_input_voltage_wrong) {
 1956              		.loc 1 180 0
 1957 0268 1A48     		ldr	r0, .L190+84	@,
 1958 026a FFF7FEFF 		bl	Board_Println	@
 1959              	.LVL265:
 1960 026e E9E6     		b	.L132	@
 1961              	.L188:
 182:src/console.c ****                         } else if (csb_input->elcon_status->elcon_battery_voltage_not_detected) {
 1962              		.loc 1 182 0
 1963 0270 1948     		ldr	r0, .L190+88	@,
 1964 0272 FFF7FEFF 		bl	Board_Println	@
 1965              	.LVL266:
 1966 0276 E5E6     		b	.L132	@
 1967              	.L189:
 184:src/console.c ****                         } else if (csb_input->elcon_status->elcon_is_comms_bad) {
 1968              		.loc 1 184 0
 1969 0278 1848     		ldr	r0, .L190+92	@,
 1970 027a FFF7FEFF 		bl	Board_Println	@
 1971              	.LVL267:
 1972 027e E1E6     		b	.L132	@
 1973              	.L191:
 1974              		.align	2
ARM GAS  /var/folders/z0/6xlwn_996xz3mwq1cgzkbq4r0000gp/T//ccBgBTlB.s 			page 48


 1975              	.L190:
 1976 0280 00000000 		.word	.LANCHOR2
 1977 0284 88000000 		.word	.LC24
 1978 0288 94000000 		.word	.LC26
 1979 028c 28020000 		.word	.LC86
 1980 0290 00000000 		.word	.L171
 1981 0294 44000000 		.word	.L172
 1982 0298 00000000 		.word	.LANCHOR8
 1983 029c 00000000 		.word	.LANCHOR1
 1984 02a0 00000000 		.word	.LANCHOR4
 1985 02a4 00000000 		.word	.LANCHOR3
 1986 02a8 00000000 		.word	.LANCHOR5
 1987 02ac 00000000 		.word	.LANCHOR6
 1988 02b0 00000000 		.word	.LANCHOR7
 1989 02b4 28010000 		.word	.LC62
 1990 02b8 44010000 		.word	.LC64
 1991 02bc 50010000 		.word	.LC66
 1992 02c0 64010000 		.word	.LC68
 1993 02c4 7C010000 		.word	.LC72
 1994 02c8 10020000 		.word	.LC82
 1995 02cc 70010000 		.word	.LC70
 1996 02d0 88010000 		.word	.LC74
 1997 02d4 A8010000 		.word	.LC76
 1998 02d8 C8010000 		.word	.LC78
 1999 02dc E8010000 		.word	.LC80
 2000              	.LBE112:
 2001              	.LBE119:
 2002              		.cfi_endproc
 2003              	.LFE199:
 2004              		.size	get, .-get
 2005              		.section	.text.config_def,"ax",%progbits
 2006              		.align	2
 2007              		.code	16
 2008              		.thumb_func
 2009              		.type	config_def, %function
 2010              	config_def:
 2011              	.LFB202:
 352:src/console.c ****   bool foundloc = false;
 2012              		.loc 1 352 0
 2013              		.cfi_startproc
 2014              		@ args = 0, pretend = 0, frame = 0
 2015              		@ frame_needed = 0, uses_anonymous_args = 0
 2016              	.LVL268:
 2017 0000 10B5     		push	{r4, lr}	@
 2018              		.cfi_def_cfa_offset 8
 2019              		.cfi_offset 4, -8
 2020              		.cfi_offset 14, -4
 2021 0002 4468     		ldr	r4, [r0, #4]	@ D.8496, MEM[(const char * const *)argv_3(D) + 4B]
 356:src/console.c ****           foundloc = true;
 2022              		.loc 1 356 0
 2023 0004 0F49     		ldr	r1, .L196	@,
 2024 0006 2000     		movs	r0, r4	@, D.8496
 2025              	.LVL269:
 2026 0008 FFF7FEFF 		bl	strcmp	@
 2027              	.LVL270:
 2028 000c 0028     		cmp	r0, #0	@ tmp117,
 2029 000e 09D0     		beq	.L193	@,
ARM GAS  /var/folders/z0/6xlwn_996xz3mwq1cgzkbq4r0000gp/T//ccBgBTlB.s 			page 49


 2030              	.LVL271:
 2031 0010 0D49     		ldr	r1, .L196+4	@,
 2032 0012 2000     		movs	r0, r4	@, D.8496
 2033 0014 FFF7FEFF 		bl	strcmp	@
 2034              	.LVL272:
 2035 0018 0028     		cmp	r0, #0	@ tmp120,
 2036 001a 0BD0     		beq	.L194	@,
 2037              	.LVL273:
 375:src/console.c ****   }
 2038              		.loc 1 375 0 discriminator 2
 2039 001c 0B48     		ldr	r0, .L196+8	@,
 2040 001e FFF7FEFF 		bl	Board_Println	@
 2041              	.LVL274:
 2042              	.L192:
 377:src/console.c **** 
 2043              		.loc 1 377 0
 2044              		@ sp needed	@
 2045 0022 10BD     		pop	{r4, pc}
 2046              	.LVL275:
 2047              	.L193:
 2048              	.LBB122:
 2049              	.LBB123:
 364:src/console.c ****               Board_Println("Done!");
 2050              		.loc 1 364 0
 2051 0024 0A4B     		ldr	r3, .L196+12	@ tmp123,
 2052 0026 1868     		ldr	r0, [r3]	@ csb_state, csb_state
 2053 0028 FFF7FEFF 		bl	MY18_Pack_Config	@
 2054              	.LVL276:
 365:src/console.c ****               break;
 2055              		.loc 1 365 0
 2056 002c 0948     		ldr	r0, .L196+16	@,
 2057 002e FFF7FEFF 		bl	Board_Println	@
 2058              	.LVL277:
 2059 0032 F6E7     		b	.L192	@
 2060              	.LVL278:
 2061              	.L194:
 2062              	.LBE123:
 2063              	.LBE122:
 368:src/console.c ****               Board_Println("Done!");
 2064              		.loc 1 368 0
 2065 0034 064B     		ldr	r3, .L196+12	@ tmp126,
 2066 0036 1868     		ldr	r0, [r3]	@ csb_state, csb_state
 2067 0038 FFF7FEFF 		bl	MY16_Pack_Config	@
 2068              	.LVL279:
 369:src/console.c ****               break;
 2069              		.loc 1 369 0
 2070 003c 0548     		ldr	r0, .L196+16	@,
 2071 003e FFF7FEFF 		bl	Board_Println	@
 2072              	.LVL280:
 370:src/console.c ****           case CONL_LENGTH:
 2073              		.loc 1 370 0
 2074 0042 EEE7     		b	.L192	@
 2075              	.L197:
 2076              		.align	2
 2077              	.L196:
 2078 0044 40020000 		.word	.LC88
 2079 0048 48020000 		.word	.LC90
ARM GAS  /var/folders/z0/6xlwn_996xz3mwq1cgzkbq4r0000gp/T//ccBgBTlB.s 			page 50


 2080 004c E4000000 		.word	.LC36
 2081 0050 00000000 		.word	.LANCHOR1
 2082 0054 C0000000 		.word	.LC32
 2083              		.cfi_endproc
 2084              	.LFE202:
 2085              		.size	config_def, .-config_def
 2086              		.section	.text.help,"ax",%progbits
 2087              		.align	2
 2088              		.code	16
 2089              		.thumb_func
 2090              		.type	help, %function
 2091              	help:
 2092              	.LFB201:
 325:src/console.c ****     command_label_t command_i = 0;
 2093              		.loc 1 325 0
 2094              		.cfi_startproc
 2095              		@ args = 0, pretend = 0, frame = 0
 2096              		@ frame_needed = 0, uses_anonymous_args = 0
 2097              	.LVL281:
 2098 0000 70B5     		push	{r4, r5, r6, lr}	@
 2099              		.cfi_def_cfa_offset 16
 2100              		.cfi_offset 4, -16
 2101              		.cfi_offset 5, -12
 2102              		.cfi_offset 6, -8
 2103              		.cfi_offset 14, -4
 325:src/console.c ****     command_label_t command_i = 0;
 2104              		.loc 1 325 0
 2105 0002 1D49     		ldr	r1, .L212	@ D.8561,
 2106 0004 4668     		ldr	r6, [r0, #4]	@ D.8561, MEM[(const char * const *)argv_4(D) + 4B]
 2107 0006 1D4D     		ldr	r5, .L212+4	@ ivtmp.230,
 327:src/console.c ****     {
 2108              		.loc 1 327 0
 2109 0008 0024     		movs	r4, #0	@ command_i,
 2110 000a 00E0     		b	.L203	@
 2111              	.LVL282:
 2112              	.L209:
 2113 000c 2968     		ldr	r1, [r5]	@ D.8561, MEM[base: _28, offset: 0B]
 2114              	.LVL283:
 2115              	.L203:
 329:src/console.c ****             Board_Println_BLOCKING(helpstring[command_i]); //blocking print
 2116              		.loc 1 329 0
 2117 000e 3000     		movs	r0, r6	@, D.8561
 2118 0010 FFF7FEFF 		bl	strcmp	@
 2119              	.LVL284:
 2120 0014 0028     		cmp	r0, #0	@ tmp151,
 2121 0016 08D0     		beq	.L208	@,
 327:src/console.c ****     {
 2122              		.loc 1 327 0 discriminator 2
 2123 0018 0134     		adds	r4, r4, #1	@ tmp157,
 2124              	.LVL285:
 2125 001a E4B2     		uxtb	r4, r4	@ command_i, tmp157
 2126              	.LVL286:
 2127 001c 0435     		adds	r5, r5, #4	@ ivtmp.230,
 2128 001e 072C     		cmp	r4, #7	@ command_i,
 2129 0020 F4D1     		bne	.L209	@,
 335:src/console.c **** 
 2130              		.loc 1 335 0
ARM GAS  /var/folders/z0/6xlwn_996xz3mwq1cgzkbq4r0000gp/T//ccBgBTlB.s 			page 51


 2131 0022 1748     		ldr	r0, .L212+8	@,
 2132 0024 FFF7FEFF 		bl	Board_Print	@
 2133              	.LVL287:
 2134              	.L198:
 350:src/console.c **** 
 2135              		.loc 1 350 0
 2136              		@ sp needed	@
 2137 0028 70BD     		pop	{r4, r5, r6, pc}
 2138              	.LVL288:
 2139              	.L208:
 330:src/console.c **** 
 2140              		.loc 1 330 0
 2141 002a 164B     		ldr	r3, .L212+12	@ tmp153,
 2142 002c A200     		lsls	r2, r4, #2	@ tmp154, command_i,
 2143 002e D058     		ldr	r0, [r2, r3]	@ tmp155, helpstring
 2144 0030 FFF7FEFF 		bl	Board_Println_BLOCKING	@
 2145              	.LVL289:
 335:src/console.c **** 
 2146              		.loc 1 335 0
 2147 0034 1248     		ldr	r0, .L212+8	@,
 2148 0036 FFF7FEFF 		bl	Board_Print	@
 2149              	.LVL290:
 337:src/console.c ****     {
 2150              		.loc 1 337 0
 2151 003a 012C     		cmp	r4, #1	@ command_i,
 2152 003c F4D8     		bhi	.L198	@,
 2153              	.LVL291:
 2154              	.LBB128:
 2155              	.LBB129:
 2156              	.LBB130:
 340:src/console.c ****         for (i = 0; i < RWL_LENGTH; ++i){
 2157              		.loc 1 340 0
 2158 003e 1248     		ldr	r0, .L212+16	@,
 2159 0040 FFF7FEFF 		bl	Board_Println_BLOCKING	@
 2160              	.LVL292:
 2161 0044 114D     		ldr	r5, .L212+20	@ ivtmp.194,
 2162 0046 1248     		ldr	r0, .L212+24	@ D.8561,
 2163 0048 2E00     		movs	r6, r5	@ D.8564, ivtmp.194
 2164 004a 2C1D     		adds	r4, r5, #4	@ ivtmp.209, ivtmp.194,
 2165              	.LVL293:
 2166 004c 4436     		adds	r6, r6, #68	@ D.8564,
 2167 004e 00E0     		b	.L205	@
 2168              	.LVL294:
 2169              	.L210:
 2170 0050 01CC     		ldmia	r4!, {r0}	@ MEM[base: _47, offset: 0B], D.8561
 2171              	.L205:
 342:src/console.c ****         }
 2172              		.loc 1 342 0
 2173 0052 FFF7FEFF 		bl	Board_Println_BLOCKING	@
 2174              	.LVL295:
 341:src/console.c ****             Board_Println_BLOCKING(locstring[i]); //blocking print.
 2175              		.loc 1 341 0
 2176 0056 B442     		cmp	r4, r6	@ ivtmp.209, D.8564
 2177 0058 FAD1     		bne	.L210	@,
 345:src/console.c ****         for (i = ROL_FIRST; i < (rw_loc_label_t)(ROL_LENGTH); ++i){
 2178              		.loc 1 345 0
 2179 005a 0E48     		ldr	r0, .L212+28	@,
ARM GAS  /var/folders/z0/6xlwn_996xz3mwq1cgzkbq4r0000gp/T//ccBgBTlB.s 			page 52


 2180 005c FFF7FEFF 		bl	Board_Println_BLOCKING	@
 2181              	.LVL296:
 2182 0060 2C00     		movs	r4, r5	@ ivtmp.194, ivtmp.194
 2183 0062 0D48     		ldr	r0, .L212+32	@ D.8561,
 2184 0064 1C35     		adds	r5, r5, #28	@ D.8564,
 2185 0066 00E0     		b	.L207	@
 2186              	.LVL297:
 2187              	.L211:
 2188 0068 606C     		ldr	r0, [r4, #68]	@ D.8561, MEM[base: _45, offset: 68B]
 2189              	.L207:
 2190 006a 0434     		adds	r4, r4, #4	@ ivtmp.194,
 347:src/console.c ****         }
 2191              		.loc 1 347 0
 2192 006c FFF7FEFF 		bl	Board_Println_BLOCKING	@
 2193              	.LVL298:
 346:src/console.c ****             Board_Println_BLOCKING(locstring[i]); //blocking print.
 2194              		.loc 1 346 0
 2195 0070 AC42     		cmp	r4, r5	@ ivtmp.194, D.8564
 2196 0072 F9D1     		bne	.L211	@,
 2197 0074 D8E7     		b	.L198	@
 2198              	.L213:
 2199 0076 C046     		.align	2
 2200              	.L212:
 2201 0078 50020000 		.word	.LC95
 2202 007c 00000000 		.word	commands
 2203 0080 54020000 		.word	.LC101
 2204 0084 00000000 		.word	.LANCHOR9
 2205 0088 58020000 		.word	.LC103
 2206 008c 00000000 		.word	.LANCHOR2
 2207 0090 88000000 		.word	.LC24
 2208 0094 70020000 		.word	.LC106
 2209 0098 94000000 		.word	.LC26
 2210              	.LBE130:
 2211              	.LBE129:
 2212              	.LBE128:
 2213              		.cfi_endproc
 2214              	.LFE201:
 2215              		.size	help, .-help
 2216              		.section	.text.bal,"ax",%progbits
 2217              		.align	2
 2218              		.code	16
 2219              		.thumb_func
 2220              		.type	bal, %function
 2221              	bal:
 2222              	.LFB204:
 414:src/console.c ****     UNUSED(argv);
 2223              		.loc 1 414 0
 2224              		.cfi_startproc
 2225              		@ args = 0, pretend = 0, frame = 0
 2226              		@ frame_needed = 0, uses_anonymous_args = 0
 2227              	.LVL299:
 2228 0000 70B5     		push	{r4, r5, r6, lr}	@
 2229              		.cfi_def_cfa_offset 16
 2230              		.cfi_offset 4, -16
 2231              		.cfi_offset 5, -12
 2232              		.cfi_offset 6, -8
 2233              		.cfi_offset 14, -4
ARM GAS  /var/folders/z0/6xlwn_996xz3mwq1cgzkbq4r0000gp/T//ccBgBTlB.s 			page 53


 416:src/console.c ****         if (strcmp(argv[1],"off") == 0) {
 2234              		.loc 1 416 0
 2235 0002 1E4B     		ldr	r3, .L231	@ tmp127,
 414:src/console.c ****     UNUSED(argv);
 2236              		.loc 1 414 0
 2237 0004 0400     		movs	r4, r0	@ argv, argv
 416:src/console.c ****         if (strcmp(argv[1],"off") == 0) {
 2238              		.loc 1 416 0
 2239 0006 1B68     		ldr	r3, [r3]	@ csb_state, csb_state
 2240 0008 1879     		ldrb	r0, [r3, #4]	@ D.8586,
 2241              	.LVL300:
 2242 000a 0328     		cmp	r0, #3	@ D.8586,
 2243 000c 04D0     		beq	.L218	@,
 416:src/console.c ****         if (strcmp(argv[1],"off") == 0) {
 2244              		.loc 1 416 0 is_stmt 0 discriminator 1
 2245 000e 0321     		movs	r1, #3	@,
 2246 0010 FFF7FEFF 		bl	Is_Valid_Jump	@
 2247              	.LVL301:
 2248 0014 0028     		cmp	r0, #0	@ tmp132,
 2249 0016 20D0     		beq	.L229	@,
 2250              	.L218:
 417:src/console.c ****             console_output->valid_mode_request = false;
 2251              		.loc 1 417 0 is_stmt 1
 2252 0018 6468     		ldr	r4, [r4, #4]	@ D.8588, MEM[(const char * const *)argv_8(D) + 4B]
 2253              	.LVL302:
 2254 001a 1949     		ldr	r1, .L231+4	@,
 2255 001c 2000     		movs	r0, r4	@, D.8588
 2256 001e FFF7FEFF 		bl	strcmp	@
 2257              	.LVL303:
 2258 0022 0028     		cmp	r0, #0	@ tmp130,
 2259 0024 1DD0     		beq	.L230	@,
 422:src/console.c ****             console_output->mode_request = CSB_SSM_MODE_BALANCE;
 2260              		.loc 1 422 0
 2261 0026 174B     		ldr	r3, .L231+8	@ tmp139,
 2262 0028 1D68     		ldr	r5, [r3]	@ D.8590, console_output
 2263 002a 0123     		movs	r3, #1	@ tmp140,
 2264 002c 2B70     		strb	r3, [r5]	@ tmp140, _11->valid_mode_request
 423:src/console.c ****             console_output->balance_mV = my_atou(argv[1]);
 2265              		.loc 1 423 0
 2266 002e 0233     		adds	r3, r3, #2	@ tmp142,
 2267 0030 AB70     		strb	r3, [r5, #2]	@ tmp142, _11->mode_request
 2268              	.LVL304:
 2269              	.LBB137:
 2270              	.LBB138:
  25:src/console.c ****         res = res*10 + str[i] - '0';
 2271              		.loc 1 25 0
 2272 0032 2278     		ldrb	r2, [r4]	@ D.8592, *_9
 2273 0034 002A     		cmp	r2, #0	@ D.8592,
 2274 0036 1ED0     		beq	.L223	@,
 2275 0038 0023     		movs	r3, #0	@ res,
 2276 003a 601C     		adds	r0, r4, #1	@ ivtmp.236, D.8588,
 2277              	.LVL305:
 2278              	.L222:
  26:src/console.c **** 
 2279              		.loc 1 26 0
 2280 003c 9900     		lsls	r1, r3, #2	@ tmp145, res,
 2281 003e CB18     		adds	r3, r1, r3	@ D.8591, tmp145, res
ARM GAS  /var/folders/z0/6xlwn_996xz3mwq1cgzkbq4r0000gp/T//ccBgBTlB.s 			page 54


 2282              	.LVL306:
 2283 0040 5B00     		lsls	r3, r3, #1	@ tmp147, D.8591,
 2284 0042 0130     		adds	r0, r0, #1	@ ivtmp.236,
 2285              	.LVL307:
 2286 0044 9B18     		adds	r3, r3, r2	@ D.8591, tmp147, D.8592
  25:src/console.c ****         res = res*10 + str[i] - '0';
 2287              		.loc 1 25 0
 2288 0046 421E     		subs	r2, r0, #1	@ D.8593, ivtmp.236,
 2289 0048 1278     		ldrb	r2, [r2]	@ D.8592, MEM[base: _33, offset: 0B]
  26:src/console.c **** 
 2290              		.loc 1 26 0
 2291 004a 303B     		subs	r3, r3, #48	@ res,
 2292              	.LVL308:
  25:src/console.c ****         res = res*10 + str[i] - '0';
 2293              		.loc 1 25 0
 2294 004c 002A     		cmp	r2, #0	@ D.8592,
 2295 004e F5D1     		bne	.L222	@,
 2296              	.LVL309:
 2297              	.L221:
 2298              	.LBE138:
 2299              	.LBE137:
 424:src/console.c ****             Board_Println("bal on");
 2300              		.loc 1 424 0
 2301 0050 6B60     		str	r3, [r5, #4]	@ res, _11->balance_mV
 425:src/console.c ****         }
 2302              		.loc 1 425 0
 2303 0052 0D48     		ldr	r0, .L231+12	@,
 2304 0054 FFF7FEFF 		bl	Board_Println	@
 2305              	.LVL310:
 2306              	.L214:
 430:src/console.c **** 
 2307              		.loc 1 430 0
 2308              		@ sp needed	@
 2309 0058 70BD     		pop	{r4, r5, r6, pc}
 2310              	.LVL311:
 2311              	.L229:
 428:src/console.c ****     }
 2312              		.loc 1 428 0
 2313 005a 0C48     		ldr	r0, .L231+16	@,
 2314 005c FFF7FEFF 		bl	Board_Println	@
 2315              	.LVL312:
 430:src/console.c **** 
 2316              		.loc 1 430 0
 2317 0060 FAE7     		b	.L214	@
 2318              	.LVL313:
 2319              	.L230:
 2320              	.LBB140:
 2321              	.LBB141:
 419:src/console.c ****             Board_Println("bal off");
 2322              		.loc 1 419 0
 2323 0062 0122     		movs	r2, #1	@ tmp137,
 418:src/console.c ****             console_output->balance_mV = UINT32_MAX;
 2324              		.loc 1 418 0
 2325 0064 074B     		ldr	r3, .L231+8	@ tmp134,
 419:src/console.c ****             Board_Println("bal off");
 2326              		.loc 1 419 0
 2327 0066 5242     		rsbs	r2, r2, #0	@ tmp137, tmp137
ARM GAS  /var/folders/z0/6xlwn_996xz3mwq1cgzkbq4r0000gp/T//ccBgBTlB.s 			page 55


 418:src/console.c ****             console_output->balance_mV = UINT32_MAX;
 2328              		.loc 1 418 0
 2329 0068 1B68     		ldr	r3, [r3]	@ D.8590, console_output
 2330 006a 1870     		strb	r0, [r3]	@ tmp130, _27->valid_mode_request
 419:src/console.c ****             Board_Println("bal off");
 2331              		.loc 1 419 0
 2332 006c 5A60     		str	r2, [r3, #4]	@ tmp137, _27->balance_mV
 420:src/console.c ****         } else {
 2333              		.loc 1 420 0
 2334 006e 0848     		ldr	r0, .L231+20	@,
 2335 0070 FFF7FEFF 		bl	Board_Println	@
 2336              	.LVL314:
 2337 0074 F0E7     		b	.L214	@
 2338              	.LVL315:
 2339              	.L223:
 2340              	.LBE141:
 2341              	.LBE140:
 2342              	.LBB142:
 2343              	.LBB139:
  20:src/console.c **** 
 2344              		.loc 1 20 0
 2345 0076 0023     		movs	r3, #0	@ res,
 2346 0078 EAE7     		b	.L221	@
 2347              	.L232:
 2348 007a C046     		.align	2
 2349              	.L231:
 2350 007c 00000000 		.word	.LANCHOR1
 2351 0080 10000000 		.word	.LC5
 2352 0084 00000000 		.word	.LANCHOR0
 2353 0088 90020000 		.word	.LC115
 2354 008c 14010000 		.word	.LC50
 2355 0090 88020000 		.word	.LC113
 2356              	.LBE139:
 2357              	.LBE142:
 2358              		.cfi_endproc
 2359              	.LFE204:
 2360              		.size	bal, .-bal
 2361              		.section	.text.my_atou,"ax",%progbits
 2362              		.align	2
 2363              		.global	my_atou
 2364              		.code	16
 2365              		.thumb_func
 2366              		.type	my_atou, %function
 2367              	my_atou:
 2368              	.LFB198:
  19:src/console.c ****     uint32_t res = 0; // Initialize result
 2369              		.loc 1 19 0
 2370              		.cfi_startproc
 2371              		@ args = 0, pretend = 0, frame = 0
 2372              		@ frame_needed = 0, uses_anonymous_args = 0
 2373              		@ link register save eliminated.
 2374              	.LVL316:
  25:src/console.c ****         res = res*10 + str[i] - '0';
 2375              		.loc 1 25 0
 2376 0000 0378     		ldrb	r3, [r0]	@ D.8605, *str_3(D)
 2377 0002 002B     		cmp	r3, #0	@ D.8605,
 2378 0004 0CD0     		beq	.L236	@,
ARM GAS  /var/folders/z0/6xlwn_996xz3mwq1cgzkbq4r0000gp/T//ccBgBTlB.s 			page 56


 2379 0006 421C     		adds	r2, r0, #1	@ ivtmp.242, str,
 2380 0008 0020     		movs	r0, #0	@ res,
 2381              	.LVL317:
 2382              	.L235:
  26:src/console.c **** 
 2383              		.loc 1 26 0 discriminator 3
 2384 000a 8100     		lsls	r1, r0, #2	@ tmp122, res,
 2385 000c 0818     		adds	r0, r1, r0	@ D.8606, tmp122, res
 2386              	.LVL318:
 2387 000e 4000     		lsls	r0, r0, #1	@ tmp124, D.8606,
 2388 0010 0132     		adds	r2, r2, #1	@ ivtmp.242,
 2389              	.LVL319:
 2390 0012 C018     		adds	r0, r0, r3	@ D.8606, tmp124, D.8605
  25:src/console.c ****         res = res*10 + str[i] - '0';
 2391              		.loc 1 25 0 discriminator 3
 2392 0014 531E     		subs	r3, r2, #1	@ D.8604, ivtmp.242,
 2393 0016 1B78     		ldrb	r3, [r3]	@ D.8605, MEM[base: _2, offset: 0B]
  26:src/console.c **** 
 2394              		.loc 1 26 0 discriminator 3
 2395 0018 3038     		subs	r0, r0, #48	@ res,
 2396              	.LVL320:
  25:src/console.c ****         res = res*10 + str[i] - '0';
 2397              		.loc 1 25 0 discriminator 3
 2398 001a 002B     		cmp	r3, #0	@ D.8605,
 2399 001c F5D1     		bne	.L235	@,
 2400              	.LVL321:
 2401              	.L234:
  30:src/console.c **** 
 2402              		.loc 1 30 0
 2403              		@ sp needed	@
 2404 001e 7047     		bx	lr
 2405              	.LVL322:
 2406              	.L236:
  20:src/console.c **** 
 2407              		.loc 1 20 0
 2408 0020 0020     		movs	r0, #0	@ res,
 2409              	.LVL323:
 2410 0022 FCE7     		b	.L234	@
 2411              		.cfi_endproc
 2412              	.LFE198:
 2413              		.size	my_atou, .-my_atou
 2414              		.section	.text.console_init,"ax",%progbits
 2415              		.align	2
 2416              		.global	console_init
 2417              		.code	16
 2418              		.thumb_func
 2419              		.type	console_init, %function
 2420              	console_init:
 2421              	.LFB206:
 447:src/console.c **** 
 448:src/console.c **** static const EXECUTE_HANDLER handlers[] = {get, set, help, config_def, bal, chrg, measure};
 449:src/console.c **** 
 450:src/console.c **** void console_init(CSB_INPUT_T * input, CSB_STATE_T * state, CONSOLE_OUTPUT_T *con_output){
 2422              		.loc 1 450 0
 2423              		.cfi_startproc
 2424              		@ args = 0, pretend = 0, frame = 0
 2425              		@ frame_needed = 0, uses_anonymous_args = 0
ARM GAS  /var/folders/z0/6xlwn_996xz3mwq1cgzkbq4r0000gp/T//ccBgBTlB.s 			page 57


 2426              		@ link register save eliminated.
 2427              	.LVL324:
 451:src/console.c ****     csb_input = input;
 2428              		.loc 1 451 0
 2429 0000 074B     		ldr	r3, .L239	@ tmp113,
 452:src/console.c ****     csb_state = state;
 453:src/console.c ****     console_output = con_output;
 454:src/console.c ****     console_output->valid_mode_request = false;
 455:src/console.c ****     console_output->mode_request = CSB_SSM_MODE_IDLE;
 456:src/console.c ****     console_output->config_default = false;
 457:src/console.c **** 
 458:src/console.c ****     console_output->measure_on = false;
 459:src/console.c ****     console_output->measure_packcurrent = false;
 460:src/console.c ****     console_output->measure_packvoltage = false;
 461:src/console.c **** }
 2430              		.loc 1 461 0
 2431              		@ sp needed	@
 451:src/console.c ****     csb_input = input;
 2432              		.loc 1 451 0
 2433 0002 1860     		str	r0, [r3]	@ input, csb_input
 452:src/console.c ****     csb_state = state;
 2434              		.loc 1 452 0
 2435 0004 074B     		ldr	r3, .L239+4	@ tmp114,
 2436 0006 1960     		str	r1, [r3]	@ state, csb_state
 453:src/console.c ****     console_output->valid_mode_request = false;
 2437              		.loc 1 453 0
 2438 0008 074B     		ldr	r3, .L239+8	@ tmp115,
 455:src/console.c ****     console_output->config_default = false;
 2439              		.loc 1 455 0
 2440 000a 0121     		movs	r1, #1	@ tmp118,
 2441              	.LVL325:
 453:src/console.c ****     console_output->valid_mode_request = false;
 2442              		.loc 1 453 0
 2443 000c 1A60     		str	r2, [r3]	@ con_output, console_output
 454:src/console.c ****     console_output->mode_request = CSB_SSM_MODE_IDLE;
 2444              		.loc 1 454 0
 2445 000e 0023     		movs	r3, #0	@ tmp116,
 455:src/console.c ****     console_output->config_default = false;
 2446              		.loc 1 455 0
 2447 0010 9170     		strb	r1, [r2, #2]	@ tmp118, con_output_6(D)->mode_request
 454:src/console.c ****     console_output->mode_request = CSB_SSM_MODE_IDLE;
 2448              		.loc 1 454 0
 2449 0012 1370     		strb	r3, [r2]	@ tmp116, con_output_6(D)->valid_mode_request
 456:src/console.c **** 
 2450              		.loc 1 456 0
 2451 0014 5370     		strb	r3, [r2, #1]	@ tmp116, con_output_6(D)->config_default
 458:src/console.c ****     console_output->measure_packcurrent = false;
 2452              		.loc 1 458 0
 2453 0016 1372     		strb	r3, [r2, #8]	@ tmp116, con_output_6(D)->measure_on
 459:src/console.c ****     console_output->measure_packvoltage = false;
 2454              		.loc 1 459 0
 2455 0018 5372     		strb	r3, [r2, #9]	@ tmp116, con_output_6(D)->measure_packcurrent
 460:src/console.c **** }
 2456              		.loc 1 460 0
 2457 001a 9372     		strb	r3, [r2, #10]	@ tmp116, con_output_6(D)->measure_packvoltage
 2458              		.loc 1 461 0
 2459 001c 7047     		bx	lr
ARM GAS  /var/folders/z0/6xlwn_996xz3mwq1cgzkbq4r0000gp/T//ccBgBTlB.s 			page 58


 2460              	.L240:
 2461 001e C046     		.align	2
 2462              	.L239:
 2463 0020 00000000 		.word	.LANCHOR8
 2464 0024 00000000 		.word	.LANCHOR1
 2465 0028 00000000 		.word	.LANCHOR0
 2466              		.cfi_endproc
 2467              	.LFE206:
 2468              		.size	console_init, .-console_init
 2469              		.section	.text.executerl,"ax",%progbits
 2470              		.align	2
 2471              		.global	executerl
 2472              		.code	16
 2473              		.thumb_func
 2474              		.type	executerl, %function
 2475              	executerl:
 2476              	.LFB207:
 462:src/console.c **** 
 463:src/console.c **** void executerl(int32_t argc, const char * const * argv){
 2477              		.loc 1 463 0
 2478              		.cfi_startproc
 2479              		@ args = 0, pretend = 0, frame = 0
 2480              		@ frame_needed = 0, uses_anonymous_args = 0
 2481              	.LVL326:
 2482 0000 F0B5     		push	{r4, r5, r6, r7, lr}	@
 2483              		.cfi_def_cfa_offset 20
 2484              		.cfi_offset 4, -20
 2485              		.cfi_offset 5, -16
 2486              		.cfi_offset 6, -12
 2487              		.cfi_offset 7, -8
 2488              		.cfi_offset 14, -4
 2489 0002 4746     		mov	r7, r8	@,
 2490 0004 0E68     		ldr	r6, [r1]	@ D.8637, *argv_5(D)
 2491 0006 80B4     		push	{r7}	@
 2492              		.cfi_def_cfa_offset 24
 2493              		.cfi_offset 8, -24
 2494              		.loc 1 463 0
 2495 0008 8846     		mov	r8, r1	@ argv, argv
 2496 000a 0700     		movs	r7, r0	@ argc, argc
 2497 000c 114D     		ldr	r5, .L252	@ ivtmp.262,
 2498 000e 1249     		ldr	r1, .L252+4	@ D.8637,
 2499              	.LVL327:
 464:src/console.c ****     uint32_t command_i = 0;
 465:src/console.c ****     bool found_command = false;
 466:src/console.c ****     for (command_i = 0; command_i < NUMCOMMANDS; ++command_i)
 2500              		.loc 1 466 0
 2501 0010 0024     		movs	r4, #0	@ command_i,
 2502 0012 00E0     		b	.L244	@
 2503              	.LVL328:
 2504              	.L250:
 2505 0014 2968     		ldr	r1, [r5]	@ D.8637, MEM[base: _2, offset: 0B]
 2506              	.LVL329:
 2507              	.L244:
 467:src/console.c ****     {
 468:src/console.c ****         if (strcmp(argv[0],commands[command_i]) == 0){
 2508              		.loc 1 468 0
 2509 0016 3000     		movs	r0, r6	@, D.8637
ARM GAS  /var/folders/z0/6xlwn_996xz3mwq1cgzkbq4r0000gp/T//ccBgBTlB.s 			page 59


 2510 0018 FFF7FEFF 		bl	strcmp	@
 2511              	.LVL330:
 2512 001c 0028     		cmp	r0, #0	@ tmp123,
 2513 001e 09D0     		beq	.L242	@,
 466:src/console.c ****     {
 2514              		.loc 1 466 0 discriminator 2
 2515 0020 0134     		adds	r4, r4, #1	@ command_i,
 2516              	.LVL331:
 2517 0022 0435     		adds	r5, r5, #4	@ ivtmp.262,
 2518 0024 072C     		cmp	r4, #7	@ command_i,
 2519 0026 F5D1     		bne	.L250	@,
 469:src/console.c ****             found_command = true;
 470:src/console.c ****             break;
 471:src/console.c ****         }
 472:src/console.c ****     }
 473:src/console.c ****     if (found_command) {
 474:src/console.c ****         if (nargs[command_i] == (uint32_t)(argc-1))
 475:src/console.c ****         {
 476:src/console.c ****             handlers[command_i](argv);
 477:src/console.c ****         }
 478:src/console.c ****         else {
 479:src/console.c ****             Board_Println("incorrect number of args");
 480:src/console.c ****         }
 481:src/console.c ****     }
 482:src/console.c ****     else{
 483:src/console.c ****         Board_Println("Unrecognized command");
 2520              		.loc 1 483 0
 2521 0028 0C48     		ldr	r0, .L252+8	@,
 2522 002a FFF7FEFF 		bl	Board_Println	@
 2523              	.LVL332:
 2524              	.L241:
 484:src/console.c ****     }
 485:src/console.c **** }
 2525              		.loc 1 485 0
 2526              		@ sp needed	@
 2527              	.LVL333:
 2528 002e 04BC     		pop	{r2}
 2529 0030 9046     		mov	r8, r2
 2530 0032 F0BD     		pop	{r4, r5, r6, r7, pc}
 2531              	.LVL334:
 2532              	.L242:
 474:src/console.c ****         {
 2533              		.loc 1 474 0
 2534 0034 0A4B     		ldr	r3, .L252+12	@ tmp129,
 2535 0036 013F     		subs	r7, r7, #1	@ D.8635,
 2536              	.LVL335:
 2537 0038 1B5D     		ldrb	r3, [r3, r4]	@ D.8634, nargs
 2538 003a BB42     		cmp	r3, r7	@ D.8634, D.8635
 2539 003c 03D0     		beq	.L251	@,
 479:src/console.c ****         }
 2540              		.loc 1 479 0
 2541 003e 0948     		ldr	r0, .L252+16	@,
 2542 0040 FFF7FEFF 		bl	Board_Println	@
 2543              	.LVL336:
 2544              		.loc 1 485 0
 2545 0044 F3E7     		b	.L241	@
 2546              	.L251:
ARM GAS  /var/folders/z0/6xlwn_996xz3mwq1cgzkbq4r0000gp/T//ccBgBTlB.s 			page 60


 476:src/console.c ****         }
 2547              		.loc 1 476 0
 2548 0046 084B     		ldr	r3, .L252+20	@ tmp125,
 2549 0048 A400     		lsls	r4, r4, #2	@ tmp126, command_i,
 2550              	.LVL337:
 2551 004a E358     		ldr	r3, [r4, r3]	@ tmp127, handlers
 2552 004c 4046     		mov	r0, r8	@, argv
 2553 004e 9847     		blx	r3	@ tmp127
 2554              	.LVL338:
 2555 0050 EDE7     		b	.L241	@
 2556              	.L253:
 2557 0052 C046     		.align	2
 2558              	.L252:
 2559 0054 00000000 		.word	commands
 2560 0058 50020000 		.word	.LC95
 2561 005c B4020000 		.word	.LC127
 2562 0060 00000000 		.word	.LANCHOR11
 2563 0064 98020000 		.word	.LC124
 2564 0068 00000000 		.word	.LANCHOR10
 2565              		.cfi_endproc
 2566              	.LFE207:
 2567              		.size	executerl, .-executerl
 2568              		.section	.text.Output_Measurements,"ax",%progbits
 2569              		.align	2
 2570              		.global	Output_Measurements
 2571              		.code	16
 2572              		.thumb_func
 2573              		.type	Output_Measurements, %function
 2574              	Output_Measurements:
 2575              	.LFB208:
 486:src/console.c **** 
 487:src/console.c **** void Output_Measurements(
 488:src/console.c ****         CONSOLE_OUTPUT_T *console_output,
 489:src/console.c ****         CSB_INPUT_T* csb_input,
 490:src/console.c ****         uint32_t msTicks
 491:src/console.c **** ) {
 2576              		.loc 1 491 0
 2577              		.cfi_startproc
 2578              		@ args = 0, pretend = 0, frame = 24
 2579              		@ frame_needed = 0, uses_anonymous_args = 0
 2580              	.LVL339:
 2581 0000 F0B5     		push	{r4, r5, r6, r7, lr}	@
 2582              		.cfi_def_cfa_offset 20
 2583              		.cfi_offset 4, -20
 2584              		.cfi_offset 5, -16
 2585              		.cfi_offset 6, -12
 2586              		.cfi_offset 7, -8
 2587              		.cfi_offset 14, -4
 492:src/console.c **** 
 493:src/console.c ****     char tempstr[20];
 494:src/console.c **** 
 495:src/console.c ****     if(console_output->measure_on) {
 2588              		.loc 1 495 0
 2589 0002 037A     		ldrb	r3, [r0, #8]	@ tmp124,
 491:src/console.c **** 
 2590              		.loc 1 491 0
 2591 0004 87B0     		sub	sp, sp, #28	@,,
ARM GAS  /var/folders/z0/6xlwn_996xz3mwq1cgzkbq4r0000gp/T//ccBgBTlB.s 			page 61


 2592              		.cfi_def_cfa_offset 48
 491:src/console.c **** 
 2593              		.loc 1 491 0
 2594 0006 0400     		movs	r4, r0	@ console_output, console_output
 2595 0008 0E00     		movs	r6, r1	@ csb_input, csb_input
 2596 000a 1500     		movs	r5, r2	@ msTicks, msTicks
 2597              		.loc 1 495 0
 2598 000c 002B     		cmp	r3, #0	@ tmp124,
 2599 000e 13D0     		beq	.L254	@,
 2600              	.LVL340:
 2601              	.LBB143:
 496:src/console.c **** 
 497:src/console.c ****         bool printPackCurrent = (msTicks - lastPackCurrentPrintTime) >
 498:src/console.c ****                 PACK_CURRENT_PRINT_PERIOD_ms;
 499:src/console.c ****         if(console_output->measure_packcurrent && printPackCurrent) {
 2602              		.loc 1 499 0
 2603 0010 437A     		ldrb	r3, [r0, #9]	@ tmp125,
 2604 0012 002B     		cmp	r3, #0	@ tmp125,
 2605 0014 06D0     		beq	.L257	@,
 497:src/console.c ****                 PACK_CURRENT_PRINT_PERIOD_ms;
 2606              		.loc 1 497 0 discriminator 1
 2607 0016 224F     		ldr	r7, .L267	@ tmp126,
 2608              		.loc 1 499 0 discriminator 1
 2609 0018 3B68     		ldr	r3, [r7]	@ tmp155, lastPackCurrentPrintTime
 2610 001a D31A     		subs	r3, r2, r3	@ D.8645, msTicks, tmp155
 2611 001c FA22     		movs	r2, #250	@ tmp129,
 2612              	.LVL341:
 2613 001e 9200     		lsls	r2, r2, #2	@ tmp129, tmp129,
 2614 0020 9342     		cmp	r3, r2	@ D.8645, tmp129
 2615 0022 24D8     		bhi	.L265	@,
 2616              	.LVL342:
 2617              	.L257:
 500:src/console.c ****             utoa(msTicks, tempstr, 10); // print msTicks
 501:src/console.c ****             Board_Print_BLOCKING(tempstr);
 502:src/console.c ****             Board_Print_BLOCKING(",pcurr,");
 503:src/console.c ****             utoa(csb_input->pack_status->pack_current_mA, tempstr, 10);
 504:src/console.c ****             Board_Println_BLOCKING(tempstr); // print pack current
 505:src/console.c ****             Board_Print_BLOCKING("\n");
 506:src/console.c ****             lastPackCurrentPrintTime = msTicks;
 507:src/console.c ****         }
 508:src/console.c **** 
 509:src/console.c ****         bool printPackVoltage = (msTicks - lastPackVoltagePrintTime) >
 510:src/console.c ****                 PACK_VOLTAGE_PRINT_PERIOD_ms;
 511:src/console.c ****         if(console_output->measure_packvoltage && printPackVoltage) {
 2618              		.loc 1 511 0
 2619 0024 A37A     		ldrb	r3, [r4, #10]	@ tmp139,
 2620 0026 002B     		cmp	r3, #0	@ tmp139,
 2621 0028 06D0     		beq	.L254	@,
 2622              		.loc 1 511 0 is_stmt 0 discriminator 1
 2623 002a FA22     		movs	r2, #250	@ tmp143,
 509:src/console.c ****                 PACK_VOLTAGE_PRINT_PERIOD_ms;
 2624              		.loc 1 509 0 is_stmt 1 discriminator 1
 2625 002c 1D4C     		ldr	r4, .L267+4	@ tmp140,
 2626              	.LVL343:
 2627              		.loc 1 511 0 discriminator 1
 2628 002e 9200     		lsls	r2, r2, #2	@ tmp143, tmp143,
 2629 0030 2368     		ldr	r3, [r4]	@ tmp160, lastPackVoltagePrintTime
ARM GAS  /var/folders/z0/6xlwn_996xz3mwq1cgzkbq4r0000gp/T//ccBgBTlB.s 			page 62


 2630 0032 EB1A     		subs	r3, r5, r3	@ D.8645, msTicks, tmp160
 2631 0034 9342     		cmp	r3, r2	@ D.8645, tmp143
 2632 0036 01D8     		bhi	.L266	@,
 2633              	.LVL344:
 2634              	.L254:
 2635              	.LBE143:
 512:src/console.c ****             utoa(msTicks, tempstr, 10); // print msTicks
 513:src/console.c ****             Board_Print_BLOCKING(tempstr);
 514:src/console.c ****             Board_Print_BLOCKING(",pvolt,");
 515:src/console.c ****             utoa(csb_input->pack_status->pack_voltage_mV, tempstr, 10);
 516:src/console.c ****             Board_Println_BLOCKING(tempstr); // print pack voltage
 517:src/console.c ****             Board_Print_BLOCKING("\n");
 518:src/console.c ****             lastPackVoltagePrintTime = msTicks;
 519:src/console.c ****         }
 520:src/console.c ****     }
 521:src/console.c **** }
 2636              		.loc 1 521 0
 2637 0038 07B0     		add	sp, sp, #28	@,,
 2638              		@ sp needed	@
 2639              	.LVL345:
 2640              	.LVL346:
 2641 003a F0BD     		pop	{r4, r5, r6, r7, pc}
 2642              	.LVL347:
 2643              	.L266:
 2644              	.LBB144:
 512:src/console.c ****             utoa(msTicks, tempstr, 10); // print msTicks
 2645              		.loc 1 512 0
 2646 003c 0A22     		movs	r2, #10	@,
 2647 003e 01A9     		add	r1, sp, #4	@ tmp161,,
 2648 0040 2800     		movs	r0, r5	@, msTicks
 2649 0042 FFF7FEFF 		bl	utoa	@
 2650              	.LVL348:
 513:src/console.c ****             Board_Print_BLOCKING(",pvolt,");
 2651              		.loc 1 513 0
 2652 0046 01A8     		add	r0, sp, #4	@ tmp162,,
 2653 0048 FFF7FEFF 		bl	Board_Print_BLOCKING	@
 2654              	.LVL349:
 514:src/console.c ****             utoa(csb_input->pack_status->pack_voltage_mV, tempstr, 10);
 2655              		.loc 1 514 0
 2656 004c 1648     		ldr	r0, .L267+8	@,
 2657 004e FFF7FEFF 		bl	Board_Print_BLOCKING	@
 2658              	.LVL350:
 515:src/console.c ****             Board_Println_BLOCKING(tempstr); // print pack voltage
 2659              		.loc 1 515 0
 2660 0052 3368     		ldr	r3, [r6]	@ csb_input_13(D)->pack_status, csb_input_13(D)->pack_status
 2661 0054 0A22     		movs	r2, #10	@,
 2662 0056 9868     		ldr	r0, [r3, #8]	@ _26->pack_voltage_mV, _26->pack_voltage_mV
 2663 0058 01A9     		add	r1, sp, #4	@ tmp163,,
 2664 005a FFF7FEFF 		bl	utoa	@
 2665              	.LVL351:
 516:src/console.c ****             Board_Print_BLOCKING("\n");
 2666              		.loc 1 516 0
 2667 005e 01A8     		add	r0, sp, #4	@ tmp164,,
 2668 0060 FFF7FEFF 		bl	Board_Println_BLOCKING	@
 2669              	.LVL352:
 517:src/console.c ****             lastPackVoltagePrintTime = msTicks;
 2670              		.loc 1 517 0
ARM GAS  /var/folders/z0/6xlwn_996xz3mwq1cgzkbq4r0000gp/T//ccBgBTlB.s 			page 63


 2671 0064 1148     		ldr	r0, .L267+12	@,
 2672 0066 FFF7FEFF 		bl	Board_Print_BLOCKING	@
 2673              	.LVL353:
 518:src/console.c ****         }
 2674              		.loc 1 518 0
 2675 006a 2560     		str	r5, [r4]	@ msTicks, lastPackVoltagePrintTime
 2676              	.LBE144:
 2677              		.loc 1 521 0
 2678 006c E4E7     		b	.L254	@
 2679              	.LVL354:
 2680              	.L265:
 2681              	.LBB145:
 500:src/console.c ****             Board_Print_BLOCKING(tempstr);
 2682              		.loc 1 500 0
 2683 006e 0A22     		movs	r2, #10	@,
 2684 0070 01A9     		add	r1, sp, #4	@ tmp156,,
 2685              	.LVL355:
 2686 0072 2800     		movs	r0, r5	@, msTicks
 2687              	.LVL356:
 2688 0074 FFF7FEFF 		bl	utoa	@
 2689              	.LVL357:
 501:src/console.c ****             Board_Print_BLOCKING(",pcurr,");
 2690              		.loc 1 501 0
 2691 0078 01A8     		add	r0, sp, #4	@ tmp157,,
 2692 007a FFF7FEFF 		bl	Board_Print_BLOCKING	@
 2693              	.LVL358:
 502:src/console.c ****             utoa(csb_input->pack_status->pack_current_mA, tempstr, 10);
 2694              		.loc 1 502 0
 2695 007e 0C48     		ldr	r0, .L267+16	@,
 2696 0080 FFF7FEFF 		bl	Board_Print_BLOCKING	@
 2697              	.LVL359:
 503:src/console.c ****             Board_Println_BLOCKING(tempstr); // print pack current
 2698              		.loc 1 503 0
 2699 0084 3368     		ldr	r3, [r6]	@ csb_input_13(D)->pack_status, csb_input_13(D)->pack_status
 2700 0086 0A22     		movs	r2, #10	@,
 2701 0088 5868     		ldr	r0, [r3, #4]	@ _14->pack_current_mA, _14->pack_current_mA
 2702 008a 01A9     		add	r1, sp, #4	@ tmp158,,
 2703 008c FFF7FEFF 		bl	utoa	@
 2704              	.LVL360:
 504:src/console.c ****             Board_Print_BLOCKING("\n");
 2705              		.loc 1 504 0
 2706 0090 01A8     		add	r0, sp, #4	@ tmp159,,
 2707 0092 FFF7FEFF 		bl	Board_Println_BLOCKING	@
 2708              	.LVL361:
 505:src/console.c ****             lastPackCurrentPrintTime = msTicks;
 2709              		.loc 1 505 0
 2710 0096 0548     		ldr	r0, .L267+12	@,
 2711 0098 FFF7FEFF 		bl	Board_Print_BLOCKING	@
 2712              	.LVL362:
 506:src/console.c ****         }
 2713              		.loc 1 506 0
 2714 009c 3D60     		str	r5, [r7]	@ msTicks, lastPackCurrentPrintTime
 2715 009e C1E7     		b	.L257	@
 2716              	.L268:
 2717              		.align	2
 2718              	.L267:
 2719 00a0 00000000 		.word	.LANCHOR12
ARM GAS  /var/folders/z0/6xlwn_996xz3mwq1cgzkbq4r0000gp/T//ccBgBTlB.s 			page 64


 2720 00a4 00000000 		.word	.LANCHOR13
 2721 00a8 D8020000 		.word	.LC135
 2722 00ac D4020000 		.word	.LC132
 2723 00b0 CC020000 		.word	.LC130
 2724              	.LBE145:
 2725              		.cfi_endproc
 2726              	.LFE208:
 2727              		.size	Output_Measurements, .-Output_Measurements
 2728              		.set	commands,helpstring
 2729              		.section	.bss.console_output,"aw",%nobits
 2730              		.align	2
 2731              		.set	.LANCHOR0,. + 0
 2732              		.type	console_output, %object
 2733              		.size	console_output, 4
 2734              	console_output:
 2735 0000 00000000 		.space	4
 2736              		.section	.rodata.PACK_NAMES,"a",%progbits
 2737              		.align	2
 2738              		.set	.LANCHOR4,. + 0
 2739              		.type	PACK_NAMES, %object
 2740              		.size	PACK_NAMES, 12
 2741              	PACK_NAMES:
 2742 0000 18060000 		.word	.LC185
 2743 0004 24060000 		.word	.LC186
 2744 0008 30060000 		.word	.LC187
 2745              		.section	.rodata.locstring,"a",%progbits
 2746              		.align	2
 2747              		.set	.LANCHOR2,. + 0
 2748              		.type	locstring, %object
 2749              		.size	locstring, 96
 2750              	locstring:
 2751 0000 88000000 		.word	.LC24
 2752 0004 E0020000 		.word	.LC137
 2753 0008 EC020000 		.word	.LC138
 2754 000c 00030000 		.word	.LC139
 2755 0010 0C030000 		.word	.LC140
 2756 0014 20030000 		.word	.LC141
 2757 0018 38030000 		.word	.LC142
 2758 001c 4C030000 		.word	.LC143
 2759 0020 60030000 		.word	.LC144
 2760 0024 70030000 		.word	.LC145
 2761 0028 84030000 		.word	.LC146
 2762 002c 98030000 		.word	.LC147
 2763 0030 AC030000 		.word	.LC148
 2764 0034 C4030000 		.word	.LC149
 2765 0038 DC030000 		.word	.LC150
 2766 003c F4030000 		.word	.LC151
 2767 0040 0C040000 		.word	.LC152
 2768 0044 94000000 		.word	.LC26
 2769 0048 18040000 		.word	.LC153
 2770 004c 28040000 		.word	.LC154
 2771 0050 34040000 		.word	.LC155
 2772 0054 48040000 		.word	.LC156
 2773 0058 58040000 		.word	.LC157
 2774 005c 68040000 		.word	.LC158
 2775              		.section	.rodata.CSB_SSM_MODE_NAMES,"a",%progbits
 2776              		.align	2
ARM GAS  /var/folders/z0/6xlwn_996xz3mwq1cgzkbq4r0000gp/T//ccBgBTlB.s 			page 65


 2777              		.set	.LANCHOR5,. + 0
 2778              		.type	CSB_SSM_MODE_NAMES, %object
 2779              		.size	CSB_SSM_MODE_NAMES, 16
 2780              	CSB_SSM_MODE_NAMES:
 2781 0000 A8050000 		.word	.LC179
 2782 0004 BC050000 		.word	.LC180
 2783 0008 D0050000 		.word	.LC181
 2784 000c E4050000 		.word	.LC182
 2785              		.section	.rodata.handlers,"a",%progbits
 2786              		.align	2
 2787              		.set	.LANCHOR10,. + 0
 2788              		.type	handlers, %object
 2789              		.size	handlers, 28
 2790              	handlers:
 2791 0000 00000000 		.word	get
 2792 0004 00000000 		.word	set
 2793 0008 00000000 		.word	help
 2794 000c 00000000 		.word	config_def
 2795 0010 00000000 		.word	bal
 2796 0014 00000000 		.word	chrg
 2797 0018 00000000 		.word	measure
 2798              		.section	.bss.lastPackCurrentPrintTime,"aw",%nobits
 2799              		.align	2
 2800              		.set	.LANCHOR12,. + 0
 2801              		.type	lastPackCurrentPrintTime, %object
 2802              		.size	lastPackCurrentPrintTime, 4
 2803              	lastPackCurrentPrintTime:
 2804 0000 00000000 		.space	4
 2805              		.section	.rodata.BMS_COMM_NAMES,"a",%progbits
 2806              		.align	2
 2807              		.set	.LANCHOR3,. + 0
 2808              		.type	BMS_COMM_NAMES, %object
 2809              		.size	BMS_COMM_NAMES, 8
 2810              	BMS_COMM_NAMES:
 2811 0000 FC050000 		.word	.LC183
 2812 0004 08060000 		.word	.LC184
 2813              		.section	.rodata.str1.4,"aMS",%progbits,1
 2814              		.align	2
 2815              	.LC0:
 2816 0000 6F6E00   		.ascii	"on\000"
 2817 0003 00       		.space	1
 2818              	.LC3:
 2819 0004 4D656173 		.ascii	"Measure On!\000"
 2819      75726520 
 2819      4F6E2100 
 2820              	.LC5:
 2821 0010 6F666600 		.ascii	"off\000"
 2822              	.LC7:
 2823 0014 4D656173 		.ascii	"Measure Off!\000"
 2823      75726520 
 2823      4F666621 
 2823      00
 2824 0021 000000   		.space	3
 2825              	.LC9:
 2826 0024 7072696E 		.ascii	"print_flags\000"
 2826      745F666C 
 2826      61677300 
ARM GAS  /var/folders/z0/6xlwn_996xz3mwq1cgzkbq4r0000gp/T//ccBgBTlB.s 			page 66


 2827              	.LC11:
 2828 0030 5061636B 		.ascii	"Pack Current: On\000"
 2828      20437572 
 2828      72656E74 
 2828      3A204F6E 
 2828      00
 2829 0041 000000   		.space	3
 2830              	.LC13:
 2831 0044 5061636B 		.ascii	"Pack Current: Off\000"
 2831      20437572 
 2831      72656E74 
 2831      3A204F66 
 2831      6600
 2832 0056 0000     		.space	2
 2833              	.LC15:
 2834 0058 7061636B 		.ascii	"packcurrent\000"
 2834      63757272 
 2834      656E7400 
 2835              	.LC17:
 2836 0064 7061636B 		.ascii	"packvoltage\000"
 2836      766F6C74 
 2836      61676500 
 2837              	.LC19:
 2838 0070 556E7265 		.ascii	"Unrecognized command!\000"
 2838      636F676E 
 2838      697A6564 
 2838      20636F6D 
 2838      6D616E64 
 2839 0086 0000     		.space	2
 2840              	.LC24:
 2841 0088 63656C6C 		.ascii	"cell_min_mV\000"
 2841      5F6D696E 
 2841      5F6D5600 
 2842              	.LC26:
 2843 0094 73746174 		.ascii	"state\000"
 2843      6500
 2844 009a 0000     		.space	2
 2845              	.LC29:
 2846 009c 53657420 		.ascii	"Set failed (not in standby mode)!\000"
 2846      6661696C 
 2846      65642028 
 2846      6E6F7420 
 2846      696E2073 
 2847 00be 0000     		.space	2
 2848              	.LC32:
 2849 00c0 446F6E65 		.ascii	"Done!\000"
 2849      2100
 2850 00c6 0000     		.space	2
 2851              	.LC34:
 2852 00c8 74686973 		.ascii	"this location is read only\000"
 2852      206C6F63 
 2852      6174696F 
 2852      6E206973 
 2852      20726561 
 2853 00e3 00       		.space	1
 2854              	.LC36:
 2855 00e4 696E7661 		.ascii	"invalid location\000"
ARM GAS  /var/folders/z0/6xlwn_996xz3mwq1cgzkbq4r0000gp/T//ccBgBTlB.s 			page 67


 2855      6C696420 
 2855      6C6F6361 
 2855      74696F6E 
 2855      00
 2856 00f5 000000   		.space	3
 2857              	.LC39:
 2858 00f8 79657300 		.ascii	"yes\000"
 2859              	.LC41:
 2860 00fc 6E6F00   		.ascii	"no\000"
 2861 00ff 00       		.space	1
 2862              	.LC46:
 2863 0100 63687267 		.ascii	"chrg off\000"
 2863      206F6666 
 2863      00
 2864 0109 000000   		.space	3
 2865              	.LC48:
 2866 010c 63687267 		.ascii	"chrg on\000"
 2866      206F6E00 
 2867              	.LC50:
 2868 0114 4D757374 		.ascii	"Must be in standby\000"
 2868      20626520 
 2868      696E2073 
 2868      74616E64 
 2868      627900
 2869 0127 00       		.space	1
 2870              	.LC62:
 2871 0128 6C6F7720 		.ascii	"low side contactor fault \000"
 2871      73696465 
 2871      20636F6E 
 2871      74616374 
 2871      6F722066 
 2872 0142 0000     		.space	2
 2873              	.LC64:
 2874 0144 494D4420 		.ascii	"IMD fault \000"
 2874      6661756C 
 2874      742000
 2875 014f 00       		.space	1
 2876              	.LC66:
 2877 0150 696E7465 		.ascii	"interlock fault \000"
 2877      726C6F63 
 2877      6B206661 
 2877      756C7420 
 2877      00
 2878 0161 000000   		.space	3
 2879              	.LC68:
 2880 0164 424D5320 		.ascii	"BMS fault \000"
 2880      6661756C 
 2880      742000
 2881 016f 00       		.space	1
 2882              	.LC70:
 2883 0170 20206572 		.ascii	"  error \000"
 2883      726F7220 
 2883      00
 2884 0179 000000   		.space	3
 2885              	.LC72:
 2886 017c 656C636F 		.ascii	"elcon on \000"
 2886      6E206F6E 
ARM GAS  /var/folders/z0/6xlwn_996xz3mwq1cgzkbq4r0000gp/T//ccBgBTlB.s 			page 68


 2886      2000
 2887 0186 0000     		.space	2
 2888              	.LC74:
 2889 0188 2020656C 		.ascii	"  elcon has hardware failure\000"
 2889      636F6E20 
 2889      68617320 
 2889      68617264 
 2889      77617265 
 2890 01a5 000000   		.space	3
 2891              	.LC76:
 2892 01a8 2020656C 		.ascii	"  elcon over temp protection on\000"
 2892      636F6E20 
 2892      6F766572 
 2892      2074656D 
 2892      70207072 
 2893              	.LC78:
 2894 01c8 2020656C 		.ascii	"  elcon input voltage is wrong\000"
 2894      636F6E20 
 2894      696E7075 
 2894      7420766F 
 2894      6C746167 
 2895 01e7 00       		.space	1
 2896              	.LC80:
 2897 01e8 2020656C 		.ascii	"  elcon battery voltage not detected\000"
 2897      636F6E20 
 2897      62617474 
 2897      65727920 
 2897      766F6C74 
 2898 020d 000000   		.space	3
 2899              	.LC82:
 2900 0210 2020656C 		.ascii	"  elcon comms is bad\000"
 2900      636F6E20 
 2900      636F6D6D 
 2900      73206973 
 2900      20626164 
 2901 0225 000000   		.space	3
 2902              	.LC86:
 2903 0228 696E7661 		.ascii	"invalid get location\000"
 2903      6C696420 
 2903      67657420 
 2903      6C6F6361 
 2903      74696F6E 
 2904 023d 000000   		.space	3
 2905              	.LC88:
 2906 0240 4D593138 		.ascii	"MY18\000"
 2906      00
 2907 0245 000000   		.space	3
 2908              	.LC90:
 2909 0248 4D593136 		.ascii	"MY16\000"
 2909      00
 2910 024d 000000   		.space	3
 2911              	.LC95:
 2912 0250 67657400 		.ascii	"get\000"
 2913              	.LC101:
 2914 0254 00       		.ascii	"\000"
 2915 0255 000000   		.space	3
 2916              	.LC103:
ARM GAS  /var/folders/z0/6xlwn_996xz3mwq1cgzkbq4r0000gp/T//ccBgBTlB.s 			page 69


 2917 0258 2D2D2D2D 		.ascii	"------r/w entries------\000"
 2917      2D2D722F 
 2917      7720656E 
 2917      74726965 
 2917      732D2D2D 
 2918              	.LC106:
 2919 0270 2D2D2D2D 		.ascii	"------r/o entries------\000"
 2919      2D2D722F 
 2919      6F20656E 
 2919      74726965 
 2919      732D2D2D 
 2920              	.LC113:
 2921 0288 62616C20 		.ascii	"bal off\000"
 2921      6F666600 
 2922              	.LC115:
 2923 0290 62616C20 		.ascii	"bal on\000"
 2923      6F6E00
 2924 0297 00       		.space	1
 2925              	.LC124:
 2926 0298 696E636F 		.ascii	"incorrect number of args\000"
 2926      72726563 
 2926      74206E75 
 2926      6D626572 
 2926      206F6620 
 2927 02b1 000000   		.space	3
 2928              	.LC127:
 2929 02b4 556E7265 		.ascii	"Unrecognized command\000"
 2929      636F676E 
 2929      697A6564 
 2929      20636F6D 
 2929      6D616E64 
 2930 02c9 000000   		.space	3
 2931              	.LC130:
 2932 02cc 2C706375 		.ascii	",pcurr,\000"
 2932      72722C00 
 2933              	.LC132:
 2934 02d4 0A00     		.ascii	"\012\000"
 2935 02d6 0000     		.space	2
 2936              	.LC135:
 2937 02d8 2C70766F 		.ascii	",pvolt,\000"
 2937      6C742C00 
 2938              	.LC137:
 2939 02e0 63656C6C 		.ascii	"cell_max_mV\000"
 2939      5F6D6178 
 2939      5F6D5600 
 2940              	.LC138:
 2941 02ec 63656C6C 		.ascii	"cell_capacity_cAh\000"
 2941      5F636170 
 2941      61636974 
 2941      795F6341 
 2941      6800
 2942 02fe 0000     		.space	2
 2943              	.LC139:
 2944 0300 6E756D5F 		.ascii	"num_modules\000"
 2944      6D6F6475 
 2944      6C657300 
 2945              	.LC140:
ARM GAS  /var/folders/z0/6xlwn_996xz3mwq1cgzkbq4r0000gp/T//ccBgBTlB.s 			page 70


 2946 030c 6D6F6475 		.ascii	"module_cell_count\000"
 2946      6C655F63 
 2946      656C6C5F 
 2946      636F756E 
 2946      7400
 2947 031e 0000     		.space	2
 2948              	.LC141:
 2949 0320 63656C6C 		.ascii	"cell_charge_c_rating_cC\000"
 2949      5F636861 
 2949      7267655F 
 2949      635F7261 
 2949      74696E67 
 2950              	.LC142:
 2951 0338 62616C5F 		.ascii	"bal_on_thresh_mV\000"
 2951      6F6E5F74 
 2951      68726573 
 2951      685F6D56 
 2951      00
 2952 0349 000000   		.space	3
 2953              	.LC143:
 2954 034c 62616C5F 		.ascii	"bal_off_thresh_mV\000"
 2954      6F66665F 
 2954      74687265 
 2954      73685F6D 
 2954      5600
 2955 035e 0000     		.space	2
 2956              	.LC144:
 2957 0360 7061636B 		.ascii	"pack_cells_p\000"
 2957      5F63656C 
 2957      6C735F70 
 2957      00
 2958 036d 000000   		.space	3
 2959              	.LC145:
 2960 0370 63765F6D 		.ascii	"cv_min_current_mA\000"
 2960      696E5F63 
 2960      75727265 
 2960      6E745F6D 
 2960      4100
 2961 0382 0000     		.space	2
 2962              	.LC146:
 2963 0384 63765F6D 		.ascii	"cv_min_current_ms\000"
 2963      696E5F63 
 2963      75727265 
 2963      6E745F6D 
 2963      7300
 2964 0396 0000     		.space	2
 2965              	.LC147:
 2966 0398 63635F63 		.ascii	"cc_cell_voltage_mV\000"
 2966      656C6C5F 
 2966      766F6C74 
 2966      6167655F 
 2966      6D5600
 2967 03ab 00       		.space	1
 2968              	.LC148:
 2969 03ac 63635F63 		.ascii	"cc_charge_voltage_mV\000"
 2969      68617267 
 2969      655F766F 
ARM GAS  /var/folders/z0/6xlwn_996xz3mwq1cgzkbq4r0000gp/T//ccBgBTlB.s 			page 71


 2969      6C746167 
 2969      655F6D56 
 2970 03c1 000000   		.space	3
 2971              	.LC149:
 2972 03c4 63635F63 		.ascii	"cc_charge_current_mA\000"
 2972      68617267 
 2972      655F6375 
 2972      7272656E 
 2972      745F6D41 
 2973 03d9 000000   		.space	3
 2974              	.LC150:
 2975 03dc 63765F63 		.ascii	"cv_charge_voltage_mV\000"
 2975      68617267 
 2975      655F766F 
 2975      6C746167 
 2975      655F6D56 
 2976 03f1 000000   		.space	3
 2977              	.LC151:
 2978 03f4 63765F63 		.ascii	"cv_charge_current_mA\000"
 2978      68617267 
 2978      655F6375 
 2978      7272656E 
 2978      745F6D41 
 2979 0409 000000   		.space	3
 2980              	.LC152:
 2981 040c 626D735F 		.ascii	"bms_comm\000"
 2981      636F6D6D 
 2981      00
 2982 0415 000000   		.space	3
 2983              	.LC153:
 2984 0418 746F7461 		.ascii	"total_num_cells\000"
 2984      6C5F6E75 
 2984      6D5F6365 
 2984      6C6C7300 
 2985              	.LC154:
 2986 0428 7061636B 		.ascii	"pack_name\000"
 2986      5F6E616D 
 2986      6500
 2987 0432 0000     		.space	2
 2988              	.LC155:
 2989 0434 7061636B 		.ascii	"pack_cell_max_mV\000"
 2989      5F63656C 
 2989      6C5F6D61 
 2989      785F6D56 
 2989      00
 2990 0445 000000   		.space	3
 2991              	.LC156:
 2992 0448 7061636B 		.ascii	"pack_current_mA\000"
 2992      5F637572 
 2992      72656E74 
 2992      5F6D4100 
 2993              	.LC157:
 2994 0458 7061636B 		.ascii	"pack_voltage_mV\000"
 2994      5F766F6C 
 2994      74616765 
 2994      5F6D5600 
 2995              	.LC158:
ARM GAS  /var/folders/z0/6xlwn_996xz3mwq1cgzkbq4r0000gp/T//ccBgBTlB.s 			page 72


 2996 0468 6661756C 		.ascii	"fault\000"
 2996      7400
 2997 046e 0000     		.space	2
 2998              	.LC159:
 2999 0470 73657400 		.ascii	"set\000"
 3000              	.LC160:
 3001 0474 68656C70 		.ascii	"help\000"
 3001      00
 3002 0479 000000   		.space	3
 3003              	.LC161:
 3004 047c 636F6E66 		.ascii	"config_def\000"
 3004      69675F64 
 3004      656600
 3005 0487 00       		.space	1
 3006              	.LC162:
 3007 0488 62616C00 		.ascii	"bal\000"
 3008              	.LC163:
 3009 048c 63687267 		.ascii	"chrg\000"
 3009      00
 3010 0491 000000   		.space	3
 3011              	.LC164:
 3012 0494 6D656173 		.ascii	"measure\000"
 3012      75726500 
 3013              	.LC165:
 3014 049c 4353425F 		.ascii	"CSB_INIT_OFF\000"
 3014      494E4954 
 3014      5F4F4646 
 3014      00
 3015 04a9 000000   		.space	3
 3016              	.LC166:
 3017 04ac 4353425F 		.ascii	"CSB_INIT_DONE\000"
 3017      494E4954 
 3017      5F444F4E 
 3017      4500
 3018 04ba 0000     		.space	2
 3019              	.LC167:
 3020 04bc 4353425F 		.ascii	"CSB_CHARGE_OFF\000"
 3020      43484152 
 3020      47455F4F 
 3020      464600
 3021 04cb 00       		.space	1
 3022              	.LC168:
 3023 04cc 4353425F 		.ascii	"CSB_CHARGE_START_SWITCH\000"
 3023      43484152 
 3023      47455F53 
 3023      54415254 
 3023      5F535749 
 3024              	.LC169:
 3025 04e4 4353425F 		.ascii	"CSB_CHARGE_SWITCH_500\000"
 3025      43484152 
 3025      47455F53 
 3025      57495443 
 3025      485F3530 
 3026 04fa 0000     		.space	2
 3027              	.LC170:
 3028 04fc 4353425F 		.ascii	"CSB_CHARGE_SEND_500\000"
 3028      43484152 
ARM GAS  /var/folders/z0/6xlwn_996xz3mwq1cgzkbq4r0000gp/T//ccBgBTlB.s 			page 73


 3028      47455F53 
 3028      454E445F 
 3028      35303000 
 3029              	.LC171:
 3030 0510 4353425F 		.ascii	"CSB_CHARGE_SWITCH_250\000"
 3030      43484152 
 3030      47455F53 
 3030      57495443 
 3030      485F3235 
 3031 0526 0000     		.space	2
 3032              	.LC172:
 3033 0528 4353425F 		.ascii	"CSB_CHARGE_WAIT_250\000"
 3033      43484152 
 3033      47455F57 
 3033      4149545F 
 3033      32353000 
 3034              	.LC173:
 3035 053c 4353425F 		.ascii	"CSB_CHARGE_CLOSE_CNTR\000"
 3035      43484152 
 3035      47455F43 
 3035      4C4F5345 
 3035      5F434E54 
 3036 0552 0000     		.space	2
 3037              	.LC174:
 3038 0554 4353425F 		.ascii	"CSB_CHARGE_CC\000"
 3038      43484152 
 3038      47455F43 
 3038      4300
 3039 0562 0000     		.space	2
 3040              	.LC175:
 3041 0564 4353425F 		.ascii	"CSB_CHARGE_CV\000"
 3041      43484152 
 3041      47455F43 
 3041      5600
 3042 0572 0000     		.space	2
 3043              	.LC176:
 3044 0574 4353425F 		.ascii	"CSB_CHARGE_BAL\000"
 3044      43484152 
 3044      47455F42 
 3044      414C00
 3045 0583 00       		.space	1
 3046              	.LC177:
 3047 0584 4353425F 		.ascii	"CSB_CHARGE_FAULT\000"
 3047      43484152 
 3047      47455F46 
 3047      41554C54 
 3047      00
 3048 0595 000000   		.space	3
 3049              	.LC178:
 3050 0598 4353425F 		.ascii	"CSB_CHARGE_DONE\000"
 3050      43484152 
 3050      47455F44 
 3050      4F4E4500 
 3051              	.LC179:
 3052 05a8 4353425F 		.ascii	"CSB_SSM_MODE_INIT\000"
 3052      53534D5F 
 3052      4D4F4445 
ARM GAS  /var/folders/z0/6xlwn_996xz3mwq1cgzkbq4r0000gp/T//ccBgBTlB.s 			page 74


 3052      5F494E49 
 3052      5400
 3053 05ba 0000     		.space	2
 3054              	.LC180:
 3055 05bc 4353425F 		.ascii	"CSB_SSM_MODE_IDLE\000"
 3055      53534D5F 
 3055      4D4F4445 
 3055      5F49444C 
 3055      4500
 3056 05ce 0000     		.space	2
 3057              	.LC181:
 3058 05d0 4353425F 		.ascii	"CSB_SSM_MODE_CHARGE\000"
 3058      53534D5F 
 3058      4D4F4445 
 3058      5F434841 
 3058      52474500 
 3059              	.LC182:
 3060 05e4 4353425F 		.ascii	"CSB_SSM_MODE_BALANCE\000"
 3060      53534D5F 
 3060      4D4F4445 
 3060      5F42414C 
 3060      414E4345 
 3061 05f9 000000   		.space	3
 3062              	.LC183:
 3063 05fc 424D535F 		.ascii	"BMS_NO_COMM\000"
 3063      4E4F5F43 
 3063      4F4D4D00 
 3064              	.LC184:
 3065 0608 424D535F 		.ascii	"BMS_YES_COMM\000"
 3065      5945535F 
 3065      434F4D4D 
 3065      00
 3066 0615 000000   		.space	3
 3067              	.LC185:
 3068 0618 4D593138 		.ascii	"MY18_PACK\000"
 3068      5F504143 
 3068      4B00
 3069 0622 0000     		.space	2
 3070              	.LC186:
 3071 0624 4D593136 		.ascii	"MY16_PACK\000"
 3071      5F504143 
 3071      4B00
 3072 062e 0000     		.space	2
 3073              	.LC187:
 3074 0630 43555354 		.ascii	"CUSTOM_PACK\000"
 3074      4F4D5F50 
 3074      41434B00 
 3075              		.section	.bss.lastPackVoltagePrintTime,"aw",%nobits
 3076              		.align	2
 3077              		.set	.LANCHOR13,. + 0
 3078              		.type	lastPackVoltagePrintTime, %object
 3079              		.size	lastPackVoltagePrintTime, 4
 3080              	lastPackVoltagePrintTime:
 3081 0000 00000000 		.space	4
 3082              		.section	.bss.csb_input,"aw",%nobits
 3083              		.align	2
 3084              		.set	.LANCHOR8,. + 0
ARM GAS  /var/folders/z0/6xlwn_996xz3mwq1cgzkbq4r0000gp/T//ccBgBTlB.s 			page 75


 3085              		.type	csb_input, %object
 3086              		.size	csb_input, 4
 3087              	csb_input:
 3088 0000 00000000 		.space	4
 3089              		.section	.rodata.helpstring,"a",%progbits
 3090              		.align	2
 3091              		.set	.LANCHOR9,. + 0
 3092              		.type	helpstring, %object
 3093              		.size	helpstring, 28
 3094              	helpstring:
 3095 0000 50020000 		.word	.LC95
 3096 0004 70040000 		.word	.LC159
 3097 0008 74040000 		.word	.LC160
 3098 000c 7C040000 		.word	.LC161
 3099 0010 88040000 		.word	.LC162
 3100 0014 8C040000 		.word	.LC163
 3101 0018 94040000 		.word	.LC164
 3102              		.section	.rodata.nargs,"a",%progbits
 3103              		.align	2
 3104              		.set	.LANCHOR11,. + 0
 3105              		.type	nargs, %object
 3106              		.size	nargs, 7
 3107              	nargs:
 3108 0000 01       		.byte	1
 3109 0001 02       		.byte	2
 3110 0002 01       		.byte	1
 3111 0003 01       		.byte	1
 3112 0004 01       		.byte	1
 3113 0005 00       		.byte	0
 3114 0006 01       		.byte	1
 3115              		.section	.rodata.CSB_INIT_MODE_NAMES,"a",%progbits
 3116              		.align	2
 3117              		.set	.LANCHOR6,. + 0
 3118              		.type	CSB_INIT_MODE_NAMES, %object
 3119              		.size	CSB_INIT_MODE_NAMES, 8
 3120              	CSB_INIT_MODE_NAMES:
 3121 0000 9C040000 		.word	.LC165
 3122 0004 AC040000 		.word	.LC166
 3123              		.section	.bss.csb_state,"aw",%nobits
 3124              		.align	2
 3125              		.set	.LANCHOR1,. + 0
 3126              		.type	csb_state, %object
 3127              		.size	csb_state, 4
 3128              	csb_state:
 3129 0000 00000000 		.space	4
 3130              		.section	.rodata.CSB_CHARGE_MODE_NAMES,"a",%progbits
 3131              		.align	2
 3132              		.set	.LANCHOR7,. + 0
 3133              		.type	CSB_CHARGE_MODE_NAMES, %object
 3134              		.size	CSB_CHARGE_MODE_NAMES, 48
 3135              	CSB_CHARGE_MODE_NAMES:
 3136 0000 BC040000 		.word	.LC167
 3137 0004 CC040000 		.word	.LC168
 3138 0008 E4040000 		.word	.LC169
 3139 000c FC040000 		.word	.LC170
 3140 0010 10050000 		.word	.LC171
 3141 0014 28050000 		.word	.LC172
ARM GAS  /var/folders/z0/6xlwn_996xz3mwq1cgzkbq4r0000gp/T//ccBgBTlB.s 			page 76


 3142 0018 3C050000 		.word	.LC173
 3143 001c 54050000 		.word	.LC174
 3144 0020 64050000 		.word	.LC175
 3145 0024 74050000 		.word	.LC176
 3146 0028 84050000 		.word	.LC177
 3147 002c 98050000 		.word	.LC178
 3148              		.text
 3149              	.Letext0:
 3150              		.file 2 "/usr/local/Cellar/gcc-arm-none-eabi/20160928/arm-none-eabi/include/machine/_default_types
 3151              		.file 3 "/usr/local/Cellar/gcc-arm-none-eabi/20160928/arm-none-eabi/include/sys/_stdint.h"
 3152              		.file 4 "../../lib/CANlib/enum_segments.h"
 3153              		.file 5 "inc/structs.h"
 3154              		.file 6 "inc/console_types.h"
 3155              		.file 7 "inc/console.h"
 3156              		.file 8 "/usr/local/Cellar/gcc-arm-none-eabi/20160928/arm-none-eabi/include/string.h"
 3157              		.file 9 "inc/board.h"
 3158              		.file 10 "inc/ssm.h"
 3159              		.file 11 "/usr/local/Cellar/gcc-arm-none-eabi/20160928/arm-none-eabi/include/stdlib.h"
 3160              		.file 12 "inc/pack_config.h"
 3161              		.file 13 "../../lib/lpc11cx4-library/lpc_chip_11cxx_lib/inc/chip.h"