ARM GAS  /var/folders/z0/6xlwn_996xz3mwq1cgzkbq4r0000gp/T//ccf35CVt.s 			page 1


   1              		.syntax unified
   2              		.cpu cortex-m0
   3              		.fpu softvfp
   4              		.eabi_attribute 20, 1	@ Tag_ABI_FP_denormal
   5              		.eabi_attribute 21, 1	@ Tag_ABI_FP_exceptions
   6              		.eabi_attribute 23, 3	@ Tag_ABI_FP_number_model
   7              		.eabi_attribute 24, 1	@ Tag_ABI_align8_needed
   8              		.eabi_attribute 25, 1	@ Tag_ABI_align8_preserved
   9              		.eabi_attribute 26, 1	@ Tag_ABI_enum_size
  10              		.eabi_attribute 30, 2	@ Tag_ABI_optimization_goals
  11              		.eabi_attribute 34, 0	@ Tag_CPU_unaligned_access
  12              		.eabi_attribute 18, 4	@ Tag_ABI_PCS_wchar_t
  13              		.file	"gpio_11xx_2.c"
  14              	@ GNU C89 (GNU Tools for ARM Embedded Processors) version 5.4.1 20160919 (release) [ARM/embedded-5-
  15              	@	compiled by GNU C version 4.2.1 (Based on Apple Inc. build 5658) (LLVM build 2336.9.00), GMP vers
  16              	@ GGC heuristics: --param ggc-min-expand=100 --param ggc-min-heapsize=131072
  17              	@ options passed:  -I . -I inc/
  18              	@ -I ../../lib/lpc11cx4-library/lpc_chip_11cxx_lib/inc
  19              	@ -I ../../lib/lpc11cx4-library/evt_lib/inc/ -I ../../lib/CANlib
  20              	@ -imultilib armv6-m
  21              	@ -iprefix /usr/local/Cellar/gcc-arm-none-eabi/20160928/bin/../lib/gcc/arm-none-eabi/5.4.1/
  22              	@ -isysroot /usr/local/Cellar/gcc-arm-none-eabi/20160928/bin/../arm-none-eabi
  23              	@ -MD bin/gpio_11xx_2.d -MF bin/gpio_11xx_2.d -MP -MQ bin/gpio_11xx_2.o
  24              	@ -D__USES_INITFINI__ -D UART_BAUD=57600 -D CORE_M0 -D DEBUG_ENABLE
  25              	@ -D FSAE_DRIVERS -D CAN_ARCHITECTURE_ARM
  26              	@ ../../lib/lpc11cx4-library/lpc_chip_11cxx_lib/src/gpio_11xx_2.c
  27              	@ -mcpu=cortex-m0 -mthumb -auxbase-strip bin/gpio_11xx_2.o -g -ggdb3 -O2
  28              	@ -Wall -Wstrict-prototypes -Wextra -std=gnu90 -ffunction-sections
  29              	@ -fdata-sections -fdiagnostics-color=always -fverbose-asm
  30              	@ options enabled:  -faggressive-loop-optimizations -falign-functions
  31              	@ -falign-jumps -falign-labels -falign-loops -fauto-inc-dec
  32              	@ -fbranch-count-reg -fcaller-saves -fchkp-check-incomplete-type
  33              	@ -fchkp-check-read -fchkp-check-write -fchkp-instrument-calls
  34              	@ -fchkp-narrow-bounds -fchkp-optimize -fchkp-store-bounds
  35              	@ -fchkp-use-static-bounds -fchkp-use-static-const-bounds
  36              	@ -fchkp-use-wrappers -fcombine-stack-adjustments -fcommon -fcompare-elim
  37              	@ -fcprop-registers -fcrossjumping -fcse-follow-jumps -fdata-sections
  38              	@ -fdefer-pop -fdelete-null-pointer-checks -fdevirtualize
  39              	@ -fdevirtualize-speculatively -fdwarf2-cfi-asm -fearly-inlining
  40              	@ -feliminate-unused-debug-types -fexpensive-optimizations
  41              	@ -fforward-propagate -ffunction-cse -ffunction-sections -fgcse -fgcse-lm
  42              	@ -fgnu-runtime -fgnu-unique -fguess-branch-probability
  43              	@ -fhoist-adjacent-loads -fident -fif-conversion -fif-conversion2
  44              	@ -findirect-inlining -finline -finline-atomics
  45              	@ -finline-functions-called-once -finline-small-functions -fipa-cp
  46              	@ -fipa-cp-alignment -fipa-icf -fipa-icf-functions -fipa-icf-variables
  47              	@ -fipa-profile -fipa-pure-const -fipa-reference -fipa-sra
  48              	@ -fira-hoist-pressure -fira-share-save-slots -fira-share-spill-slots
  49              	@ -fisolate-erroneous-paths-dereference -fivopts -fkeep-static-consts
  50              	@ -fleading-underscore -flifetime-dse -flra-remat -flto-odr-type-merging
  51              	@ -fmath-errno -fmerge-constants -fmerge-debug-strings
  52              	@ -fmove-loop-invariants -fomit-frame-pointer -foptimize-sibling-calls
  53              	@ -foptimize-strlen -fpartial-inlining -fpeephole -fpeephole2
  54              	@ -fprefetch-loop-arrays -freg-struct-return -freorder-blocks
  55              	@ -freorder-functions -frerun-cse-after-loop
  56              	@ -fsched-critical-path-heuristic -fsched-dep-count-heuristic
  57              	@ -fsched-group-heuristic -fsched-interblock -fsched-last-insn-heuristic
ARM GAS  /var/folders/z0/6xlwn_996xz3mwq1cgzkbq4r0000gp/T//ccf35CVt.s 			page 2


  58              	@ -fsched-pressure -fsched-rank-heuristic -fsched-spec
  59              	@ -fsched-spec-insn-heuristic -fsched-stalled-insns-dep -fschedule-insns2
  60              	@ -fsection-anchors -fsemantic-interposition -fshow-column -fshrink-wrap
  61              	@ -fsigned-zeros -fsplit-ivs-in-unroller -fsplit-wide-types -fssa-phiopt
  62              	@ -fstdarg-opt -fstrict-aliasing -fstrict-overflow
  63              	@ -fstrict-volatile-bitfields -fsync-libcalls -fthread-jumps
  64              	@ -ftoplevel-reorder -ftrapping-math -ftree-bit-ccp -ftree-builtin-call-dce
  65              	@ -ftree-ccp -ftree-ch -ftree-coalesce-vars -ftree-copy-prop
  66              	@ -ftree-copyrename -ftree-cselim -ftree-dce -ftree-dominator-opts
  67              	@ -ftree-dse -ftree-forwprop -ftree-fre -ftree-loop-if-convert
  68              	@ -ftree-loop-im -ftree-loop-ivcanon -ftree-loop-optimize
  69              	@ -ftree-parallelize-loops= -ftree-phiprop -ftree-pre -ftree-pta
  70              	@ -ftree-reassoc -ftree-scev-cprop -ftree-sink -ftree-slsr -ftree-sra
  71              	@ -ftree-switch-conversion -ftree-tail-merge -ftree-ter -ftree-vrp
  72              	@ -funit-at-a-time -fvar-tracking -fvar-tracking-assignments -fverbose-asm
  73              	@ -fzero-initialized-in-bss -mlittle-endian -mpic-data-is-text-relative
  74              	@ -msched-prolog -mthumb -mvectorize-with-neon-quad
  75              	
  76              		.text
  77              	.Ltext0:
  78              		.cfi_sections	.debug_frame
  79              		.section	.text.Chip_GPIO_Init,"ax",%progbits
  80              		.align	2
  81              		.global	Chip_GPIO_Init
  82              		.code	16
  83              		.thumb_func
  84              		.type	Chip_GPIO_Init, %function
  85              	Chip_GPIO_Init:
  86              	.LFB198:
  87              		.file 1 "../../lib/lpc11cx4-library/lpc_chip_11cxx_lib/src/gpio_11xx_2.c"
   1:../../lib/lpc11cx4-library/lpc_chip_11cxx_lib/src/gpio_11xx_2.c **** /*
   2:../../lib/lpc11cx4-library/lpc_chip_11cxx_lib/src/gpio_11xx_2.c ****  * @brief LPC11xx GPIO driver for CHIP_LPC11CXX, CHIP_LPC110X, CHIP_LPC11XXLV,
   3:../../lib/lpc11cx4-library/lpc_chip_11cxx_lib/src/gpio_11xx_2.c ****  * and CHIP_LPC1125 families only.
   4:../../lib/lpc11cx4-library/lpc_chip_11cxx_lib/src/gpio_11xx_2.c ****  *
   5:../../lib/lpc11cx4-library/lpc_chip_11cxx_lib/src/gpio_11xx_2.c ****  * @note
   6:../../lib/lpc11cx4-library/lpc_chip_11cxx_lib/src/gpio_11xx_2.c ****  * Copyright(C) NXP Semiconductors, 2013
   7:../../lib/lpc11cx4-library/lpc_chip_11cxx_lib/src/gpio_11xx_2.c ****  * All rights reserved.
   8:../../lib/lpc11cx4-library/lpc_chip_11cxx_lib/src/gpio_11xx_2.c ****  *
   9:../../lib/lpc11cx4-library/lpc_chip_11cxx_lib/src/gpio_11xx_2.c ****  * @par
  10:../../lib/lpc11cx4-library/lpc_chip_11cxx_lib/src/gpio_11xx_2.c ****  * Software that is described herein is for illustrative purposes only
  11:../../lib/lpc11cx4-library/lpc_chip_11cxx_lib/src/gpio_11xx_2.c ****  * which provides customers with programming information regarding the
  12:../../lib/lpc11cx4-library/lpc_chip_11cxx_lib/src/gpio_11xx_2.c ****  * LPC products.  This software is supplied "AS IS" without any warranties of
  13:../../lib/lpc11cx4-library/lpc_chip_11cxx_lib/src/gpio_11xx_2.c ****  * any kind, and NXP Semiconductors and its licensor disclaim any and
  14:../../lib/lpc11cx4-library/lpc_chip_11cxx_lib/src/gpio_11xx_2.c ****  * all warranties, express or implied, including all implied warranties of
  15:../../lib/lpc11cx4-library/lpc_chip_11cxx_lib/src/gpio_11xx_2.c ****  * merchantability, fitness for a particular purpose and non-infringement of
  16:../../lib/lpc11cx4-library/lpc_chip_11cxx_lib/src/gpio_11xx_2.c ****  * intellectual property rights.  NXP Semiconductors assumes no responsibility
  17:../../lib/lpc11cx4-library/lpc_chip_11cxx_lib/src/gpio_11xx_2.c ****  * or liability for the use of the software, conveys no license or rights under any
  18:../../lib/lpc11cx4-library/lpc_chip_11cxx_lib/src/gpio_11xx_2.c ****  * patent, copyright, mask work right, or any other intellectual property rights in
  19:../../lib/lpc11cx4-library/lpc_chip_11cxx_lib/src/gpio_11xx_2.c ****  * or to any products. NXP Semiconductors reserves the right to make changes
  20:../../lib/lpc11cx4-library/lpc_chip_11cxx_lib/src/gpio_11xx_2.c ****  * in the software without notification. NXP Semiconductors also makes no
  21:../../lib/lpc11cx4-library/lpc_chip_11cxx_lib/src/gpio_11xx_2.c ****  * representation or warranty that such application will be suitable for the
  22:../../lib/lpc11cx4-library/lpc_chip_11cxx_lib/src/gpio_11xx_2.c ****  * specified use without further testing or modification.
  23:../../lib/lpc11cx4-library/lpc_chip_11cxx_lib/src/gpio_11xx_2.c ****  *
  24:../../lib/lpc11cx4-library/lpc_chip_11cxx_lib/src/gpio_11xx_2.c ****  * @par
  25:../../lib/lpc11cx4-library/lpc_chip_11cxx_lib/src/gpio_11xx_2.c ****  * Permission to use, copy, modify, and distribute this software and its
  26:../../lib/lpc11cx4-library/lpc_chip_11cxx_lib/src/gpio_11xx_2.c ****  * documentation is hereby granted, under NXP Semiconductors' and its
  27:../../lib/lpc11cx4-library/lpc_chip_11cxx_lib/src/gpio_11xx_2.c ****  * licensor's relevant copyrights in the software, without fee, provided that it
ARM GAS  /var/folders/z0/6xlwn_996xz3mwq1cgzkbq4r0000gp/T//ccf35CVt.s 			page 3


  28:../../lib/lpc11cx4-library/lpc_chip_11cxx_lib/src/gpio_11xx_2.c ****  * is used in conjunction with NXP Semiconductors microcontrollers.  This
  29:../../lib/lpc11cx4-library/lpc_chip_11cxx_lib/src/gpio_11xx_2.c ****  * copyright, permission, and disclaimer notice must appear in all copies of
  30:../../lib/lpc11cx4-library/lpc_chip_11cxx_lib/src/gpio_11xx_2.c ****  * this code.
  31:../../lib/lpc11cx4-library/lpc_chip_11cxx_lib/src/gpio_11xx_2.c ****  */
  32:../../lib/lpc11cx4-library/lpc_chip_11cxx_lib/src/gpio_11xx_2.c **** 
  33:../../lib/lpc11cx4-library/lpc_chip_11cxx_lib/src/gpio_11xx_2.c **** #include "chip.h"
  34:../../lib/lpc11cx4-library/lpc_chip_11cxx_lib/src/gpio_11xx_2.c **** 
  35:../../lib/lpc11cx4-library/lpc_chip_11cxx_lib/src/gpio_11xx_2.c **** #if defined(CHIP_LPC11CXX) || defined(CHIP_LPC110X) || defined(CHIP_LPC11XXLV) || defined(CHIP_LPC1
  36:../../lib/lpc11cx4-library/lpc_chip_11cxx_lib/src/gpio_11xx_2.c **** 
  37:../../lib/lpc11cx4-library/lpc_chip_11cxx_lib/src/gpio_11xx_2.c **** /*****************************************************************************
  38:../../lib/lpc11cx4-library/lpc_chip_11cxx_lib/src/gpio_11xx_2.c ****  * Private types/enumerations/variables
  39:../../lib/lpc11cx4-library/lpc_chip_11cxx_lib/src/gpio_11xx_2.c ****  ****************************************************************************/
  40:../../lib/lpc11cx4-library/lpc_chip_11cxx_lib/src/gpio_11xx_2.c **** 
  41:../../lib/lpc11cx4-library/lpc_chip_11cxx_lib/src/gpio_11xx_2.c **** /*****************************************************************************
  42:../../lib/lpc11cx4-library/lpc_chip_11cxx_lib/src/gpio_11xx_2.c ****  * Public types/enumerations/variables
  43:../../lib/lpc11cx4-library/lpc_chip_11cxx_lib/src/gpio_11xx_2.c ****  ****************************************************************************/
  44:../../lib/lpc11cx4-library/lpc_chip_11cxx_lib/src/gpio_11xx_2.c **** 
  45:../../lib/lpc11cx4-library/lpc_chip_11cxx_lib/src/gpio_11xx_2.c **** /*****************************************************************************
  46:../../lib/lpc11cx4-library/lpc_chip_11cxx_lib/src/gpio_11xx_2.c ****  * Private functions
  47:../../lib/lpc11cx4-library/lpc_chip_11cxx_lib/src/gpio_11xx_2.c ****  ****************************************************************************/
  48:../../lib/lpc11cx4-library/lpc_chip_11cxx_lib/src/gpio_11xx_2.c **** 
  49:../../lib/lpc11cx4-library/lpc_chip_11cxx_lib/src/gpio_11xx_2.c **** /*****************************************************************************
  50:../../lib/lpc11cx4-library/lpc_chip_11cxx_lib/src/gpio_11xx_2.c ****  * Public functions
  51:../../lib/lpc11cx4-library/lpc_chip_11cxx_lib/src/gpio_11xx_2.c ****  ****************************************************************************/
  52:../../lib/lpc11cx4-library/lpc_chip_11cxx_lib/src/gpio_11xx_2.c **** 
  53:../../lib/lpc11cx4-library/lpc_chip_11cxx_lib/src/gpio_11xx_2.c **** /* Initialize GPIO block */
  54:../../lib/lpc11cx4-library/lpc_chip_11cxx_lib/src/gpio_11xx_2.c **** void Chip_GPIO_Init(LPC_GPIO_T *pGPIO)
  55:../../lib/lpc11cx4-library/lpc_chip_11cxx_lib/src/gpio_11xx_2.c **** {
  88              		.loc 1 55 0
  89              		.cfi_startproc
  90              		@ args = 0, pretend = 0, frame = 0
  91              		@ frame_needed = 0, uses_anonymous_args = 0
  92              		@ link register save eliminated.
  93              	.LVL0:
  94              	.LBB26:
  95              	.LBB27:
  96              		.file 2 "../../lib/lpc11cx4-library/lpc_chip_11cxx_lib/inc/clock_11xx.h"
   1:../../lib/lpc11cx4-library/lpc_chip_11cxx_lib/inc/clock_11xx.h **** /*
   2:../../lib/lpc11cx4-library/lpc_chip_11cxx_lib/inc/clock_11xx.h ****  * @brief LPC11XX Clock control functions
   3:../../lib/lpc11cx4-library/lpc_chip_11cxx_lib/inc/clock_11xx.h ****  *
   4:../../lib/lpc11cx4-library/lpc_chip_11cxx_lib/inc/clock_11xx.h ****  * @note
   5:../../lib/lpc11cx4-library/lpc_chip_11cxx_lib/inc/clock_11xx.h ****  * Copyright(C) NXP Semiconductors, 2012
   6:../../lib/lpc11cx4-library/lpc_chip_11cxx_lib/inc/clock_11xx.h ****  * All rights reserved.
   7:../../lib/lpc11cx4-library/lpc_chip_11cxx_lib/inc/clock_11xx.h ****  *
   8:../../lib/lpc11cx4-library/lpc_chip_11cxx_lib/inc/clock_11xx.h ****  * @par
   9:../../lib/lpc11cx4-library/lpc_chip_11cxx_lib/inc/clock_11xx.h ****  * Software that is described herein is for illustrative purposes only
  10:../../lib/lpc11cx4-library/lpc_chip_11cxx_lib/inc/clock_11xx.h ****  * which provides customers with programming information regarding the
  11:../../lib/lpc11cx4-library/lpc_chip_11cxx_lib/inc/clock_11xx.h ****  * LPC products.  This software is supplied "AS IS" without any warranties of
  12:../../lib/lpc11cx4-library/lpc_chip_11cxx_lib/inc/clock_11xx.h ****  * any kind, and NXP Semiconductors and its licensor disclaim any and
  13:../../lib/lpc11cx4-library/lpc_chip_11cxx_lib/inc/clock_11xx.h ****  * all warranties, express or implied, including all implied warranties of
  14:../../lib/lpc11cx4-library/lpc_chip_11cxx_lib/inc/clock_11xx.h ****  * merchantability, fitness for a particular purpose and non-infringement of
  15:../../lib/lpc11cx4-library/lpc_chip_11cxx_lib/inc/clock_11xx.h ****  * intellectual property rights.  NXP Semiconductors assumes no responsibility
  16:../../lib/lpc11cx4-library/lpc_chip_11cxx_lib/inc/clock_11xx.h ****  * or liability for the use of the software, conveys no license or rights under any
  17:../../lib/lpc11cx4-library/lpc_chip_11cxx_lib/inc/clock_11xx.h ****  * patent, copyright, mask work right, or any other intellectual property rights in
  18:../../lib/lpc11cx4-library/lpc_chip_11cxx_lib/inc/clock_11xx.h ****  * or to any products. NXP Semiconductors reserves the right to make changes
  19:../../lib/lpc11cx4-library/lpc_chip_11cxx_lib/inc/clock_11xx.h ****  * in the software without notification. NXP Semiconductors also makes no
  20:../../lib/lpc11cx4-library/lpc_chip_11cxx_lib/inc/clock_11xx.h ****  * representation or warranty that such application will be suitable for the
ARM GAS  /var/folders/z0/6xlwn_996xz3mwq1cgzkbq4r0000gp/T//ccf35CVt.s 			page 4


  21:../../lib/lpc11cx4-library/lpc_chip_11cxx_lib/inc/clock_11xx.h ****  * specified use without further testing or modification.
  22:../../lib/lpc11cx4-library/lpc_chip_11cxx_lib/inc/clock_11xx.h ****  *
  23:../../lib/lpc11cx4-library/lpc_chip_11cxx_lib/inc/clock_11xx.h ****  * @par
  24:../../lib/lpc11cx4-library/lpc_chip_11cxx_lib/inc/clock_11xx.h ****  * Permission to use, copy, modify, and distribute this software and its
  25:../../lib/lpc11cx4-library/lpc_chip_11cxx_lib/inc/clock_11xx.h ****  * documentation is hereby granted, under NXP Semiconductors' and its
  26:../../lib/lpc11cx4-library/lpc_chip_11cxx_lib/inc/clock_11xx.h ****  * licensor's relevant copyrights in the software, without fee, provided that it
  27:../../lib/lpc11cx4-library/lpc_chip_11cxx_lib/inc/clock_11xx.h ****  * is used in conjunction with NXP Semiconductors microcontrollers.  This
  28:../../lib/lpc11cx4-library/lpc_chip_11cxx_lib/inc/clock_11xx.h ****  * copyright, permission, and disclaimer notice must appear in all copies of
  29:../../lib/lpc11cx4-library/lpc_chip_11cxx_lib/inc/clock_11xx.h ****  * this code.
  30:../../lib/lpc11cx4-library/lpc_chip_11cxx_lib/inc/clock_11xx.h ****  */
  31:../../lib/lpc11cx4-library/lpc_chip_11cxx_lib/inc/clock_11xx.h **** 
  32:../../lib/lpc11cx4-library/lpc_chip_11cxx_lib/inc/clock_11xx.h **** #ifndef __CLOCK_11XX_H_
  33:../../lib/lpc11cx4-library/lpc_chip_11cxx_lib/inc/clock_11xx.h **** #define __CLOCK_11XX_H_
  34:../../lib/lpc11cx4-library/lpc_chip_11cxx_lib/inc/clock_11xx.h **** 
  35:../../lib/lpc11cx4-library/lpc_chip_11cxx_lib/inc/clock_11xx.h **** #ifdef __cplusplus
  36:../../lib/lpc11cx4-library/lpc_chip_11cxx_lib/inc/clock_11xx.h **** extern "C" {
  37:../../lib/lpc11cx4-library/lpc_chip_11cxx_lib/inc/clock_11xx.h **** #endif
  38:../../lib/lpc11cx4-library/lpc_chip_11cxx_lib/inc/clock_11xx.h **** 
  39:../../lib/lpc11cx4-library/lpc_chip_11cxx_lib/inc/clock_11xx.h **** /** @defgroup CLOCK_11XX CHIP: LPC11xx Clock Control block driver
  40:../../lib/lpc11cx4-library/lpc_chip_11cxx_lib/inc/clock_11xx.h ****  * @ingroup CHIP_11XX_Drivers
  41:../../lib/lpc11cx4-library/lpc_chip_11cxx_lib/inc/clock_11xx.h ****  * @{
  42:../../lib/lpc11cx4-library/lpc_chip_11cxx_lib/inc/clock_11xx.h ****  */
  43:../../lib/lpc11cx4-library/lpc_chip_11cxx_lib/inc/clock_11xx.h **** 
  44:../../lib/lpc11cx4-library/lpc_chip_11cxx_lib/inc/clock_11xx.h **** /** Internal oscillator frequency */
  45:../../lib/lpc11cx4-library/lpc_chip_11cxx_lib/inc/clock_11xx.h **** #define SYSCTL_IRC_FREQ (12000000)
  46:../../lib/lpc11cx4-library/lpc_chip_11cxx_lib/inc/clock_11xx.h **** 
  47:../../lib/lpc11cx4-library/lpc_chip_11cxx_lib/inc/clock_11xx.h **** /**
  48:../../lib/lpc11cx4-library/lpc_chip_11cxx_lib/inc/clock_11xx.h ****  * @brief	Set System PLL divider values
  49:../../lib/lpc11cx4-library/lpc_chip_11cxx_lib/inc/clock_11xx.h ****  * @param	msel    : PLL feedback divider value. M = msel + 1.
  50:../../lib/lpc11cx4-library/lpc_chip_11cxx_lib/inc/clock_11xx.h ****  * @param	psel    : PLL post divider value. P =  (1<<psel).
  51:../../lib/lpc11cx4-library/lpc_chip_11cxx_lib/inc/clock_11xx.h ****  * @return	Nothing
  52:../../lib/lpc11cx4-library/lpc_chip_11cxx_lib/inc/clock_11xx.h ****  * @note	See the user manual for how to setup the PLL.
  53:../../lib/lpc11cx4-library/lpc_chip_11cxx_lib/inc/clock_11xx.h ****  */
  54:../../lib/lpc11cx4-library/lpc_chip_11cxx_lib/inc/clock_11xx.h **** STATIC INLINE void Chip_Clock_SetupSystemPLL(uint8_t msel, uint8_t psel)
  55:../../lib/lpc11cx4-library/lpc_chip_11cxx_lib/inc/clock_11xx.h **** {
  56:../../lib/lpc11cx4-library/lpc_chip_11cxx_lib/inc/clock_11xx.h **** 	LPC_SYSCTL->SYSPLLCTRL = (msel & 0x1F) | ((psel & 0x3) << 5);
  57:../../lib/lpc11cx4-library/lpc_chip_11cxx_lib/inc/clock_11xx.h **** }
  58:../../lib/lpc11cx4-library/lpc_chip_11cxx_lib/inc/clock_11xx.h **** 
  59:../../lib/lpc11cx4-library/lpc_chip_11cxx_lib/inc/clock_11xx.h **** /**
  60:../../lib/lpc11cx4-library/lpc_chip_11cxx_lib/inc/clock_11xx.h ****  * @brief	Read System PLL lock status
  61:../../lib/lpc11cx4-library/lpc_chip_11cxx_lib/inc/clock_11xx.h ****  * @return	true of the PLL is locked. false if not locked
  62:../../lib/lpc11cx4-library/lpc_chip_11cxx_lib/inc/clock_11xx.h ****  */
  63:../../lib/lpc11cx4-library/lpc_chip_11cxx_lib/inc/clock_11xx.h **** STATIC INLINE bool Chip_Clock_IsSystemPLLLocked(void)
  64:../../lib/lpc11cx4-library/lpc_chip_11cxx_lib/inc/clock_11xx.h **** {
  65:../../lib/lpc11cx4-library/lpc_chip_11cxx_lib/inc/clock_11xx.h **** 	return (bool) ((LPC_SYSCTL->SYSPLLSTAT & 1) != 0);
  66:../../lib/lpc11cx4-library/lpc_chip_11cxx_lib/inc/clock_11xx.h **** }
  67:../../lib/lpc11cx4-library/lpc_chip_11cxx_lib/inc/clock_11xx.h **** 
  68:../../lib/lpc11cx4-library/lpc_chip_11cxx_lib/inc/clock_11xx.h **** /**
  69:../../lib/lpc11cx4-library/lpc_chip_11cxx_lib/inc/clock_11xx.h ****  * Clock sources for system and USB PLLs
  70:../../lib/lpc11cx4-library/lpc_chip_11cxx_lib/inc/clock_11xx.h ****  */
  71:../../lib/lpc11cx4-library/lpc_chip_11cxx_lib/inc/clock_11xx.h **** typedef enum CHIP_SYSCTL_PLLCLKSRC {
  72:../../lib/lpc11cx4-library/lpc_chip_11cxx_lib/inc/clock_11xx.h **** 	SYSCTL_PLLCLKSRC_IRC = 0,		/*!< Internal oscillator in */
  73:../../lib/lpc11cx4-library/lpc_chip_11cxx_lib/inc/clock_11xx.h **** 	SYSCTL_PLLCLKSRC_MAINOSC,		/*!< Crystal (main) oscillator in */
  74:../../lib/lpc11cx4-library/lpc_chip_11cxx_lib/inc/clock_11xx.h **** #if defined(CHIP_LPC11AXX)
  75:../../lib/lpc11cx4-library/lpc_chip_11cxx_lib/inc/clock_11xx.h **** 	SYSCTL_PLLCLKSRC_EXT_CLKIN,	/*!< External clock in (11Axx only) */
  76:../../lib/lpc11cx4-library/lpc_chip_11cxx_lib/inc/clock_11xx.h **** #else
  77:../../lib/lpc11cx4-library/lpc_chip_11cxx_lib/inc/clock_11xx.h **** 	SYSCTL_PLLCLKSRC_RESERVED1,	/*!< Reserved */
ARM GAS  /var/folders/z0/6xlwn_996xz3mwq1cgzkbq4r0000gp/T//ccf35CVt.s 			page 5


  78:../../lib/lpc11cx4-library/lpc_chip_11cxx_lib/inc/clock_11xx.h **** #endif
  79:../../lib/lpc11cx4-library/lpc_chip_11cxx_lib/inc/clock_11xx.h **** 	SYSCTL_PLLCLKSRC_RESERVED2,	/*!< Reserved */
  80:../../lib/lpc11cx4-library/lpc_chip_11cxx_lib/inc/clock_11xx.h **** } CHIP_SYSCTL_PLLCLKSRC_T;
  81:../../lib/lpc11cx4-library/lpc_chip_11cxx_lib/inc/clock_11xx.h **** 
  82:../../lib/lpc11cx4-library/lpc_chip_11cxx_lib/inc/clock_11xx.h **** /**
  83:../../lib/lpc11cx4-library/lpc_chip_11cxx_lib/inc/clock_11xx.h ****  * @brief	Set System PLL clock source
  84:../../lib/lpc11cx4-library/lpc_chip_11cxx_lib/inc/clock_11xx.h ****  * @param	src	: Clock source for system PLL
  85:../../lib/lpc11cx4-library/lpc_chip_11cxx_lib/inc/clock_11xx.h ****  * @return	Nothing
  86:../../lib/lpc11cx4-library/lpc_chip_11cxx_lib/inc/clock_11xx.h ****  * @note	This function will also toggle the clock source update register
  87:../../lib/lpc11cx4-library/lpc_chip_11cxx_lib/inc/clock_11xx.h ****  * to update the clock source.
  88:../../lib/lpc11cx4-library/lpc_chip_11cxx_lib/inc/clock_11xx.h ****  */
  89:../../lib/lpc11cx4-library/lpc_chip_11cxx_lib/inc/clock_11xx.h **** void Chip_Clock_SetSystemPLLSource(CHIP_SYSCTL_PLLCLKSRC_T src);
  90:../../lib/lpc11cx4-library/lpc_chip_11cxx_lib/inc/clock_11xx.h **** 
  91:../../lib/lpc11cx4-library/lpc_chip_11cxx_lib/inc/clock_11xx.h **** #if defined(CHIP_LPC11UXX)
  92:../../lib/lpc11cx4-library/lpc_chip_11cxx_lib/inc/clock_11xx.h **** /**
  93:../../lib/lpc11cx4-library/lpc_chip_11cxx_lib/inc/clock_11xx.h ****  * @brief	Set USB PLL divider values
  94:../../lib/lpc11cx4-library/lpc_chip_11cxx_lib/inc/clock_11xx.h ****  * @param	msel    : PLL feedback divider value. M = msel + 1.
  95:../../lib/lpc11cx4-library/lpc_chip_11cxx_lib/inc/clock_11xx.h ****  * @param	psel    : PLL post divider value. P = (1<<psel).
  96:../../lib/lpc11cx4-library/lpc_chip_11cxx_lib/inc/clock_11xx.h ****  * @return	Nothing
  97:../../lib/lpc11cx4-library/lpc_chip_11cxx_lib/inc/clock_11xx.h ****  * @note	See the user manual for how to setup the PLL.
  98:../../lib/lpc11cx4-library/lpc_chip_11cxx_lib/inc/clock_11xx.h ****  */
  99:../../lib/lpc11cx4-library/lpc_chip_11cxx_lib/inc/clock_11xx.h **** STATIC INLINE void Chip_Clock_SetupUSBPLL(uint8_t msel, uint8_t psel)
 100:../../lib/lpc11cx4-library/lpc_chip_11cxx_lib/inc/clock_11xx.h **** {
 101:../../lib/lpc11cx4-library/lpc_chip_11cxx_lib/inc/clock_11xx.h **** 	LPC_SYSCTL->USBPLLCTRL = (msel & 0x1F) | ((psel & 0x3) << 5);
 102:../../lib/lpc11cx4-library/lpc_chip_11cxx_lib/inc/clock_11xx.h **** }
 103:../../lib/lpc11cx4-library/lpc_chip_11cxx_lib/inc/clock_11xx.h **** 
 104:../../lib/lpc11cx4-library/lpc_chip_11cxx_lib/inc/clock_11xx.h **** /**
 105:../../lib/lpc11cx4-library/lpc_chip_11cxx_lib/inc/clock_11xx.h ****  * @brief	Read USB PLL lock status
 106:../../lib/lpc11cx4-library/lpc_chip_11cxx_lib/inc/clock_11xx.h ****  * @return	true of the PLL is locked. false if not locked
 107:../../lib/lpc11cx4-library/lpc_chip_11cxx_lib/inc/clock_11xx.h ****  */
 108:../../lib/lpc11cx4-library/lpc_chip_11cxx_lib/inc/clock_11xx.h **** STATIC INLINE bool Chip_Clock_IsUSBPLLLocked(void)
 109:../../lib/lpc11cx4-library/lpc_chip_11cxx_lib/inc/clock_11xx.h **** {
 110:../../lib/lpc11cx4-library/lpc_chip_11cxx_lib/inc/clock_11xx.h **** 	return (bool) ((LPC_SYSCTL->USBPLLSTAT & 1) != 0);
 111:../../lib/lpc11cx4-library/lpc_chip_11cxx_lib/inc/clock_11xx.h **** }
 112:../../lib/lpc11cx4-library/lpc_chip_11cxx_lib/inc/clock_11xx.h **** 
 113:../../lib/lpc11cx4-library/lpc_chip_11cxx_lib/inc/clock_11xx.h **** /**
 114:../../lib/lpc11cx4-library/lpc_chip_11cxx_lib/inc/clock_11xx.h ****  * @brief	Set USB PLL clock source
 115:../../lib/lpc11cx4-library/lpc_chip_11cxx_lib/inc/clock_11xx.h ****  * @param	src	: Clock source for USB PLL
 116:../../lib/lpc11cx4-library/lpc_chip_11cxx_lib/inc/clock_11xx.h ****  * @return	Nothing
 117:../../lib/lpc11cx4-library/lpc_chip_11cxx_lib/inc/clock_11xx.h ****  * @note	This function will also toggle the clock source update register
 118:../../lib/lpc11cx4-library/lpc_chip_11cxx_lib/inc/clock_11xx.h ****  * to update the clock source.
 119:../../lib/lpc11cx4-library/lpc_chip_11cxx_lib/inc/clock_11xx.h ****  */
 120:../../lib/lpc11cx4-library/lpc_chip_11cxx_lib/inc/clock_11xx.h **** void Chip_Clock_SetUSBPLLSource(CHIP_SYSCTL_PLLCLKSRC_T src);
 121:../../lib/lpc11cx4-library/lpc_chip_11cxx_lib/inc/clock_11xx.h **** 
 122:../../lib/lpc11cx4-library/lpc_chip_11cxx_lib/inc/clock_11xx.h **** #endif /*defined(CHIP_LPC11UXX)*/
 123:../../lib/lpc11cx4-library/lpc_chip_11cxx_lib/inc/clock_11xx.h **** 
 124:../../lib/lpc11cx4-library/lpc_chip_11cxx_lib/inc/clock_11xx.h **** /**
 125:../../lib/lpc11cx4-library/lpc_chip_11cxx_lib/inc/clock_11xx.h ****  * @brief	Bypass System Oscillator and set oscillator frequency range
 126:../../lib/lpc11cx4-library/lpc_chip_11cxx_lib/inc/clock_11xx.h ****  * @param	bypass	: Flag to bypass oscillator
 127:../../lib/lpc11cx4-library/lpc_chip_11cxx_lib/inc/clock_11xx.h ****  * @param	highfr	: Flag to set oscillator range from 15-25 MHz
 128:../../lib/lpc11cx4-library/lpc_chip_11cxx_lib/inc/clock_11xx.h ****  * @return	Nothing
 129:../../lib/lpc11cx4-library/lpc_chip_11cxx_lib/inc/clock_11xx.h ****  * @note	Sets the PLL input to bypass the oscillator. This would be
 130:../../lib/lpc11cx4-library/lpc_chip_11cxx_lib/inc/clock_11xx.h ****  * used if an external clock that is not an oscillator is attached
 131:../../lib/lpc11cx4-library/lpc_chip_11cxx_lib/inc/clock_11xx.h ****  * to the XTALIN pin.
 132:../../lib/lpc11cx4-library/lpc_chip_11cxx_lib/inc/clock_11xx.h ****  */
 133:../../lib/lpc11cx4-library/lpc_chip_11cxx_lib/inc/clock_11xx.h **** void Chip_Clock_SetPLLBypass(bool bypass, bool highfr);
 134:../../lib/lpc11cx4-library/lpc_chip_11cxx_lib/inc/clock_11xx.h **** 
ARM GAS  /var/folders/z0/6xlwn_996xz3mwq1cgzkbq4r0000gp/T//ccf35CVt.s 			page 6


 135:../../lib/lpc11cx4-library/lpc_chip_11cxx_lib/inc/clock_11xx.h **** /**
 136:../../lib/lpc11cx4-library/lpc_chip_11cxx_lib/inc/clock_11xx.h ****  * Watchdog and low frequency oscillator frequencies plus or minus 40%
 137:../../lib/lpc11cx4-library/lpc_chip_11cxx_lib/inc/clock_11xx.h ****  */
 138:../../lib/lpc11cx4-library/lpc_chip_11cxx_lib/inc/clock_11xx.h **** typedef enum CHIP_WDTLFO_OSC {
 139:../../lib/lpc11cx4-library/lpc_chip_11cxx_lib/inc/clock_11xx.h **** 	WDTLFO_OSC_ILLEGAL,
 140:../../lib/lpc11cx4-library/lpc_chip_11cxx_lib/inc/clock_11xx.h **** 	WDTLFO_OSC_0_60,	/*!< 0.6 MHz watchdog/LFO rate */
 141:../../lib/lpc11cx4-library/lpc_chip_11cxx_lib/inc/clock_11xx.h **** 	WDTLFO_OSC_1_05,	/*!< 1.05 MHz watchdog/LFO rate */
 142:../../lib/lpc11cx4-library/lpc_chip_11cxx_lib/inc/clock_11xx.h **** 	WDTLFO_OSC_1_40,	/*!< 1.4 MHz watchdog/LFO rate */
 143:../../lib/lpc11cx4-library/lpc_chip_11cxx_lib/inc/clock_11xx.h **** 	WDTLFO_OSC_1_75,	/*!< 1.75 MHz watchdog/LFO rate */
 144:../../lib/lpc11cx4-library/lpc_chip_11cxx_lib/inc/clock_11xx.h **** 	WDTLFO_OSC_2_10,	/*!< 2.1 MHz watchdog/LFO rate */
 145:../../lib/lpc11cx4-library/lpc_chip_11cxx_lib/inc/clock_11xx.h **** 	WDTLFO_OSC_2_40,	/*!< 2.4 MHz watchdog/LFO rate */
 146:../../lib/lpc11cx4-library/lpc_chip_11cxx_lib/inc/clock_11xx.h **** 	WDTLFO_OSC_2_70,	/*!< 2.7 MHz watchdog/LFO rate */
 147:../../lib/lpc11cx4-library/lpc_chip_11cxx_lib/inc/clock_11xx.h **** 	WDTLFO_OSC_3_00,	/*!< 3.0 MHz watchdog/LFO rate */
 148:../../lib/lpc11cx4-library/lpc_chip_11cxx_lib/inc/clock_11xx.h **** 	WDTLFO_OSC_3_25,	/*!< 3.25 MHz watchdog/LFO rate */
 149:../../lib/lpc11cx4-library/lpc_chip_11cxx_lib/inc/clock_11xx.h **** 	WDTLFO_OSC_3_50,	/*!< 3.5 MHz watchdog/LFO rate */
 150:../../lib/lpc11cx4-library/lpc_chip_11cxx_lib/inc/clock_11xx.h **** 	WDTLFO_OSC_3_75,	/*!< 3.75 MHz watchdog/LFO rate */
 151:../../lib/lpc11cx4-library/lpc_chip_11cxx_lib/inc/clock_11xx.h **** 	WDTLFO_OSC_4_00,	/*!< 4.0 MHz watchdog/LFO rate */
 152:../../lib/lpc11cx4-library/lpc_chip_11cxx_lib/inc/clock_11xx.h **** 	WDTLFO_OSC_4_20,	/*!< 4.2 MHz watchdog/LFO rate */
 153:../../lib/lpc11cx4-library/lpc_chip_11cxx_lib/inc/clock_11xx.h **** 	WDTLFO_OSC_4_40,	/*!< 4.4 MHz watchdog/LFO rate */
 154:../../lib/lpc11cx4-library/lpc_chip_11cxx_lib/inc/clock_11xx.h **** 	WDTLFO_OSC_4_60		/*!< 4.6 MHz watchdog/LFO rate */
 155:../../lib/lpc11cx4-library/lpc_chip_11cxx_lib/inc/clock_11xx.h **** } CHIP_WDTLFO_OSC_T;
 156:../../lib/lpc11cx4-library/lpc_chip_11cxx_lib/inc/clock_11xx.h **** 
 157:../../lib/lpc11cx4-library/lpc_chip_11cxx_lib/inc/clock_11xx.h **** /**
 158:../../lib/lpc11cx4-library/lpc_chip_11cxx_lib/inc/clock_11xx.h ****  * @brief	Setup Watchdog oscillator rate and divider
 159:../../lib/lpc11cx4-library/lpc_chip_11cxx_lib/inc/clock_11xx.h ****  * @param	wdtclk	: Selected watchdog clock rate
 160:../../lib/lpc11cx4-library/lpc_chip_11cxx_lib/inc/clock_11xx.h ****  * @param	div		: Watchdog divider value, even value between 2 and 64
 161:../../lib/lpc11cx4-library/lpc_chip_11cxx_lib/inc/clock_11xx.h ****  * @return	Nothing
 162:../../lib/lpc11cx4-library/lpc_chip_11cxx_lib/inc/clock_11xx.h ****  * @note	Watchdog rate = selected rate divided by divider rate
 163:../../lib/lpc11cx4-library/lpc_chip_11cxx_lib/inc/clock_11xx.h ****  */
 164:../../lib/lpc11cx4-library/lpc_chip_11cxx_lib/inc/clock_11xx.h **** STATIC INLINE void Chip_Clock_SetWDTOSC(CHIP_WDTLFO_OSC_T wdtclk, uint8_t div)
 165:../../lib/lpc11cx4-library/lpc_chip_11cxx_lib/inc/clock_11xx.h **** {
 166:../../lib/lpc11cx4-library/lpc_chip_11cxx_lib/inc/clock_11xx.h **** 	LPC_SYSCTL->WDTOSCCTRL  = (((uint32_t) wdtclk) << 5) | ((div >> 1) - 1);
 167:../../lib/lpc11cx4-library/lpc_chip_11cxx_lib/inc/clock_11xx.h **** }
 168:../../lib/lpc11cx4-library/lpc_chip_11cxx_lib/inc/clock_11xx.h **** 
 169:../../lib/lpc11cx4-library/lpc_chip_11cxx_lib/inc/clock_11xx.h **** #if defined(CHIP_LPC11AXX)
 170:../../lib/lpc11cx4-library/lpc_chip_11cxx_lib/inc/clock_11xx.h **** /**
 171:../../lib/lpc11cx4-library/lpc_chip_11cxx_lib/inc/clock_11xx.h ****  * @brief	Setup low frequency oscillator rate and divider
 172:../../lib/lpc11cx4-library/lpc_chip_11cxx_lib/inc/clock_11xx.h ****  * @param	lfoclk	: Selected low frequency clock rate
 173:../../lib/lpc11cx4-library/lpc_chip_11cxx_lib/inc/clock_11xx.h ****  * @param	div		: Low frequency divider value, even value between 2 and 64
 174:../../lib/lpc11cx4-library/lpc_chip_11cxx_lib/inc/clock_11xx.h ****  * @return	Nothing
 175:../../lib/lpc11cx4-library/lpc_chip_11cxx_lib/inc/clock_11xx.h ****  * @note	Low frequency oscillator rate = selected rate divided by divider rate
 176:../../lib/lpc11cx4-library/lpc_chip_11cxx_lib/inc/clock_11xx.h ****  */
 177:../../lib/lpc11cx4-library/lpc_chip_11cxx_lib/inc/clock_11xx.h **** STATIC INLINE void Chip_Clock_SetLFOSC(CHIP_WDTLFO_OSC_T lfoclk, uint8_t div)
 178:../../lib/lpc11cx4-library/lpc_chip_11cxx_lib/inc/clock_11xx.h **** {
 179:../../lib/lpc11cx4-library/lpc_chip_11cxx_lib/inc/clock_11xx.h **** 	LPC_SYSCTL->LFOSCCTRL  = (((uint32_t) lfoclk) << 5) | ((div >> 1) - 1);
 180:../../lib/lpc11cx4-library/lpc_chip_11cxx_lib/inc/clock_11xx.h **** }
 181:../../lib/lpc11cx4-library/lpc_chip_11cxx_lib/inc/clock_11xx.h **** 
 182:../../lib/lpc11cx4-library/lpc_chip_11cxx_lib/inc/clock_11xx.h **** #endif /*CHIP_LPC11AXX*/
 183:../../lib/lpc11cx4-library/lpc_chip_11cxx_lib/inc/clock_11xx.h **** 
 184:../../lib/lpc11cx4-library/lpc_chip_11cxx_lib/inc/clock_11xx.h **** /**
 185:../../lib/lpc11cx4-library/lpc_chip_11cxx_lib/inc/clock_11xx.h ****  * Clock sources for main system clock
 186:../../lib/lpc11cx4-library/lpc_chip_11cxx_lib/inc/clock_11xx.h ****  */
 187:../../lib/lpc11cx4-library/lpc_chip_11cxx_lib/inc/clock_11xx.h **** typedef enum CHIP_SYSCTL_MAINCLKSRC {
 188:../../lib/lpc11cx4-library/lpc_chip_11cxx_lib/inc/clock_11xx.h **** 	SYSCTL_MAINCLKSRC_IRC = 0,		/*!< Internal oscillator */
 189:../../lib/lpc11cx4-library/lpc_chip_11cxx_lib/inc/clock_11xx.h **** 	SYSCTL_MAINCLKSRC_PLLIN,		/*!< System PLL input */
 190:../../lib/lpc11cx4-library/lpc_chip_11cxx_lib/inc/clock_11xx.h **** 	SYSCTL_MAINCLKSRC_LFOSC,		/*!< LF oscillator rate (11Axx only) */
 191:../../lib/lpc11cx4-library/lpc_chip_11cxx_lib/inc/clock_11xx.h **** 	SYSCTL_MAINCLKSRC_WDTOSC = SYSCTL_MAINCLKSRC_LFOSC,	/*!< Watchdog oscillator rate */
ARM GAS  /var/folders/z0/6xlwn_996xz3mwq1cgzkbq4r0000gp/T//ccf35CVt.s 			page 7


 192:../../lib/lpc11cx4-library/lpc_chip_11cxx_lib/inc/clock_11xx.h **** 	SYSCTL_MAINCLKSRC_PLLOUT,		/*!< System PLL output */
 193:../../lib/lpc11cx4-library/lpc_chip_11cxx_lib/inc/clock_11xx.h **** } CHIP_SYSCTL_MAINCLKSRC_T;
 194:../../lib/lpc11cx4-library/lpc_chip_11cxx_lib/inc/clock_11xx.h **** 
 195:../../lib/lpc11cx4-library/lpc_chip_11cxx_lib/inc/clock_11xx.h **** /**
 196:../../lib/lpc11cx4-library/lpc_chip_11cxx_lib/inc/clock_11xx.h ****  * @brief	Set main system clock source
 197:../../lib/lpc11cx4-library/lpc_chip_11cxx_lib/inc/clock_11xx.h ****  * @param	src	: Clock source for main system
 198:../../lib/lpc11cx4-library/lpc_chip_11cxx_lib/inc/clock_11xx.h ****  * @return	Nothing
 199:../../lib/lpc11cx4-library/lpc_chip_11cxx_lib/inc/clock_11xx.h ****  * @note	This function will also toggle the clock source update register
 200:../../lib/lpc11cx4-library/lpc_chip_11cxx_lib/inc/clock_11xx.h ****  * to update the clock source.
 201:../../lib/lpc11cx4-library/lpc_chip_11cxx_lib/inc/clock_11xx.h ****  */
 202:../../lib/lpc11cx4-library/lpc_chip_11cxx_lib/inc/clock_11xx.h **** void Chip_Clock_SetMainClockSource(CHIP_SYSCTL_MAINCLKSRC_T src);
 203:../../lib/lpc11cx4-library/lpc_chip_11cxx_lib/inc/clock_11xx.h **** 
 204:../../lib/lpc11cx4-library/lpc_chip_11cxx_lib/inc/clock_11xx.h **** /**
 205:../../lib/lpc11cx4-library/lpc_chip_11cxx_lib/inc/clock_11xx.h ****  * @brief   Returns the main clock source
 206:../../lib/lpc11cx4-library/lpc_chip_11cxx_lib/inc/clock_11xx.h ****  * @return	Which clock is used for the core clock source?
 207:../../lib/lpc11cx4-library/lpc_chip_11cxx_lib/inc/clock_11xx.h ****  */
 208:../../lib/lpc11cx4-library/lpc_chip_11cxx_lib/inc/clock_11xx.h **** STATIC INLINE CHIP_SYSCTL_MAINCLKSRC_T Chip_Clock_GetMainClockSource(void)
 209:../../lib/lpc11cx4-library/lpc_chip_11cxx_lib/inc/clock_11xx.h **** {
 210:../../lib/lpc11cx4-library/lpc_chip_11cxx_lib/inc/clock_11xx.h **** 	return (CHIP_SYSCTL_MAINCLKSRC_T) (LPC_SYSCTL->MAINCLKSEL);
 211:../../lib/lpc11cx4-library/lpc_chip_11cxx_lib/inc/clock_11xx.h **** }
 212:../../lib/lpc11cx4-library/lpc_chip_11cxx_lib/inc/clock_11xx.h **** 
 213:../../lib/lpc11cx4-library/lpc_chip_11cxx_lib/inc/clock_11xx.h **** /**
 214:../../lib/lpc11cx4-library/lpc_chip_11cxx_lib/inc/clock_11xx.h ****  * @brief	Set system clock divider
 215:../../lib/lpc11cx4-library/lpc_chip_11cxx_lib/inc/clock_11xx.h ****  * @param	div	: divider for system clock
 216:../../lib/lpc11cx4-library/lpc_chip_11cxx_lib/inc/clock_11xx.h ****  * @return	Nothing
 217:../../lib/lpc11cx4-library/lpc_chip_11cxx_lib/inc/clock_11xx.h ****  * @note	Use 0 to disable, or a divider value of 1 to 255. The system clock
 218:../../lib/lpc11cx4-library/lpc_chip_11cxx_lib/inc/clock_11xx.h ****  * rate is the main system clock divided by this value.
 219:../../lib/lpc11cx4-library/lpc_chip_11cxx_lib/inc/clock_11xx.h ****  */
 220:../../lib/lpc11cx4-library/lpc_chip_11cxx_lib/inc/clock_11xx.h **** STATIC INLINE void Chip_Clock_SetSysClockDiv(uint32_t div)
 221:../../lib/lpc11cx4-library/lpc_chip_11cxx_lib/inc/clock_11xx.h **** {
 222:../../lib/lpc11cx4-library/lpc_chip_11cxx_lib/inc/clock_11xx.h **** 	LPC_SYSCTL->SYSAHBCLKDIV  = div;
 223:../../lib/lpc11cx4-library/lpc_chip_11cxx_lib/inc/clock_11xx.h **** }
 224:../../lib/lpc11cx4-library/lpc_chip_11cxx_lib/inc/clock_11xx.h **** 
 225:../../lib/lpc11cx4-library/lpc_chip_11cxx_lib/inc/clock_11xx.h **** /**
 226:../../lib/lpc11cx4-library/lpc_chip_11cxx_lib/inc/clock_11xx.h ****  * System and peripheral clocks
 227:../../lib/lpc11cx4-library/lpc_chip_11cxx_lib/inc/clock_11xx.h ****  */
 228:../../lib/lpc11cx4-library/lpc_chip_11cxx_lib/inc/clock_11xx.h **** typedef enum CHIP_SYSCTL_CLOCK {
 229:../../lib/lpc11cx4-library/lpc_chip_11cxx_lib/inc/clock_11xx.h **** 	SYSCTL_CLOCK_SYS = 0,				/*!< 0: System clock */
 230:../../lib/lpc11cx4-library/lpc_chip_11cxx_lib/inc/clock_11xx.h **** 	SYSCTL_CLOCK_ROM,					/*!<1:  ROM clock */
 231:../../lib/lpc11cx4-library/lpc_chip_11cxx_lib/inc/clock_11xx.h **** 	SYSCTL_CLOCK_RAM,					/*!< 2: RAM clock */
 232:../../lib/lpc11cx4-library/lpc_chip_11cxx_lib/inc/clock_11xx.h **** 	SYSCTL_CLOCK_FLASHREG,				/*!< 3: FLASH register interface clock */
 233:../../lib/lpc11cx4-library/lpc_chip_11cxx_lib/inc/clock_11xx.h **** 	SYSCTL_CLOCK_FLASHARRAY,			/*!< 4: FLASH array access clock */
 234:../../lib/lpc11cx4-library/lpc_chip_11cxx_lib/inc/clock_11xx.h **** #if defined(CHIP_LPC110X)
 235:../../lib/lpc11cx4-library/lpc_chip_11cxx_lib/inc/clock_11xx.h **** 	SYSCTL_CLOCK_RESERVED5,				/*!< 5: Reserved */
 236:../../lib/lpc11cx4-library/lpc_chip_11cxx_lib/inc/clock_11xx.h **** #else
 237:../../lib/lpc11cx4-library/lpc_chip_11cxx_lib/inc/clock_11xx.h **** 	SYSCTL_CLOCK_I2C,					/*!< 5: I2C clock, not on LPC110x */
 238:../../lib/lpc11cx4-library/lpc_chip_11cxx_lib/inc/clock_11xx.h **** #endif
 239:../../lib/lpc11cx4-library/lpc_chip_11cxx_lib/inc/clock_11xx.h **** 	SYSCTL_CLOCK_GPIO,					/*!< 6: GPIO clock */
 240:../../lib/lpc11cx4-library/lpc_chip_11cxx_lib/inc/clock_11xx.h **** 	SYSCTL_CLOCK_CT16B0,				/*!< 7: 16-bit Counter/timer 0 clock */
 241:../../lib/lpc11cx4-library/lpc_chip_11cxx_lib/inc/clock_11xx.h **** 	SYSCTL_CLOCK_CT16B1,				/*!< 8: 16-bit Counter/timer 1 clock */
 242:../../lib/lpc11cx4-library/lpc_chip_11cxx_lib/inc/clock_11xx.h **** 	SYSCTL_CLOCK_CT32B0,				/*!< 9: 32-bit Counter/timer 0 clock */
 243:../../lib/lpc11cx4-library/lpc_chip_11cxx_lib/inc/clock_11xx.h **** 	SYSCTL_CLOCK_CT32B1,				/*!< 10: 32-bit Counter/timer 1 clock */
 244:../../lib/lpc11cx4-library/lpc_chip_11cxx_lib/inc/clock_11xx.h **** 	SYSCTL_CLOCK_SSP0,					/*!< 11: SSP0 clock */
 245:../../lib/lpc11cx4-library/lpc_chip_11cxx_lib/inc/clock_11xx.h **** 	SYSCTL_CLOCK_UART0,					/*!< 12: UART0 clock */
 246:../../lib/lpc11cx4-library/lpc_chip_11cxx_lib/inc/clock_11xx.h **** 	SYSCTL_CLOCK_ADC,					/*!< 13: ADC clock */
 247:../../lib/lpc11cx4-library/lpc_chip_11cxx_lib/inc/clock_11xx.h **** #if defined(CHIP_LPC11UXX)
 248:../../lib/lpc11cx4-library/lpc_chip_11cxx_lib/inc/clock_11xx.h **** 	SYSCTL_CLOCK_USB,					/*!< 14: USB clock, LPC11Uxx only */
ARM GAS  /var/folders/z0/6xlwn_996xz3mwq1cgzkbq4r0000gp/T//ccf35CVt.s 			page 8


 249:../../lib/lpc11cx4-library/lpc_chip_11cxx_lib/inc/clock_11xx.h **** #else
 250:../../lib/lpc11cx4-library/lpc_chip_11cxx_lib/inc/clock_11xx.h **** 	SYSCTL_CLOCK_RESERVED14,			/*!< 14: Reserved */
 251:../../lib/lpc11cx4-library/lpc_chip_11cxx_lib/inc/clock_11xx.h **** #endif
 252:../../lib/lpc11cx4-library/lpc_chip_11cxx_lib/inc/clock_11xx.h **** 	SYSCTL_CLOCK_WDT,					/*!< 15: Watchdog timer clock */
 253:../../lib/lpc11cx4-library/lpc_chip_11cxx_lib/inc/clock_11xx.h **** 	SYSCTL_CLOCK_IOCON,					/*!< 16: IOCON block clock */
 254:../../lib/lpc11cx4-library/lpc_chip_11cxx_lib/inc/clock_11xx.h **** #if defined(CHIP_LPC11CXX)
 255:../../lib/lpc11cx4-library/lpc_chip_11cxx_lib/inc/clock_11xx.h **** 	SYSCTL_CLOCK_CAN,					/*!< 17: CAN clock, LPC11Cxx only */
 256:../../lib/lpc11cx4-library/lpc_chip_11cxx_lib/inc/clock_11xx.h **** #else
 257:../../lib/lpc11cx4-library/lpc_chip_11cxx_lib/inc/clock_11xx.h **** 	SYSCTL_CLOCK_RESERVED17,			/*!< 17: Reserved */
 258:../../lib/lpc11cx4-library/lpc_chip_11cxx_lib/inc/clock_11xx.h **** #endif
 259:../../lib/lpc11cx4-library/lpc_chip_11cxx_lib/inc/clock_11xx.h **** #if !(defined(CHIP_LPC110X) || defined(CHIP_LPC11XXLV))  
 260:../../lib/lpc11cx4-library/lpc_chip_11cxx_lib/inc/clock_11xx.h **** 	SYSCTL_CLOCK_SSP1,					/*!< 18: SSP1 clock, LPC11A/C/E/Uxx//1125 only */
 261:../../lib/lpc11cx4-library/lpc_chip_11cxx_lib/inc/clock_11xx.h **** #if !defined(CHIP_LPC11CXX)
 262:../../lib/lpc11cx4-library/lpc_chip_11cxx_lib/inc/clock_11xx.h **** 	SYSCTL_CLOCK_PINT,					/*!< 19: GPIO Pin int register interface clock, LPC11A/E/Uxx only */
 263:../../lib/lpc11cx4-library/lpc_chip_11cxx_lib/inc/clock_11xx.h **** #if defined(CHIP_LPC11AXX)
 264:../../lib/lpc11cx4-library/lpc_chip_11cxx_lib/inc/clock_11xx.h **** 	SYSCTL_CLOCK_ACOMP,					/*!< 20: Analog comparator clock, LPC11Axx only */
 265:../../lib/lpc11cx4-library/lpc_chip_11cxx_lib/inc/clock_11xx.h **** 	SYSCTL_CLOCK_DAC,					/*!< 21: DAC clock, LPC11Axx only */
 266:../../lib/lpc11cx4-library/lpc_chip_11cxx_lib/inc/clock_11xx.h **** #else
 267:../../lib/lpc11cx4-library/lpc_chip_11cxx_lib/inc/clock_11xx.h **** 	SYSCTL_CLOCK_RESERVED20,			/*!< 20: Reserved */
 268:../../lib/lpc11cx4-library/lpc_chip_11cxx_lib/inc/clock_11xx.h **** 	SYSCTL_CLOCK_RESERVED21,			/*!< 21: Reserved */
 269:../../lib/lpc11cx4-library/lpc_chip_11cxx_lib/inc/clock_11xx.h **** #endif
 270:../../lib/lpc11cx4-library/lpc_chip_11cxx_lib/inc/clock_11xx.h **** 	SYSCTL_CLOCK_RESERVED22,			/*!< 22: Reserved */
 271:../../lib/lpc11cx4-library/lpc_chip_11cxx_lib/inc/clock_11xx.h **** 	SYSCTL_CLOCK_P0INT,					/*!< 23: GPIO GROUP1 interrupt register clock, LPC11Axx only */
 272:../../lib/lpc11cx4-library/lpc_chip_11cxx_lib/inc/clock_11xx.h **** 	SYSCTL_CLOCK_GROUP0INT = SYSCTL_CLOCK_P0INT,/*!< 23: GPIO GROUP0 interrupt register interface cloc
 273:../../lib/lpc11cx4-library/lpc_chip_11cxx_lib/inc/clock_11xx.h **** 	SYSCTL_CLOCK_P1INT,					/*!< 24: GPIO GROUP1 interrupt register clock, LPC11Axx only */
 274:../../lib/lpc11cx4-library/lpc_chip_11cxx_lib/inc/clock_11xx.h **** 	SYSCTL_CLOCK_GROUP1INT = SYSCTL_CLOCK_P1INT,/*!< 24: GPIO GROUP1 interrupt register interface cloc
 275:../../lib/lpc11cx4-library/lpc_chip_11cxx_lib/inc/clock_11xx.h **** 	SYSCTL_CLOCK_RESERVED25,			/*!< 25: Reserved */
 276:../../lib/lpc11cx4-library/lpc_chip_11cxx_lib/inc/clock_11xx.h **** #if defined(CHIP_LPC11EXX)  || defined(CHIP_LPC11UXX)
 277:../../lib/lpc11cx4-library/lpc_chip_11cxx_lib/inc/clock_11xx.h **** 	SYSCTL_CLOCK_RAM1,					/*!< 26: SRAM block (0x20000000) clock, LPC11E/Uxx only */
 278:../../lib/lpc11cx4-library/lpc_chip_11cxx_lib/inc/clock_11xx.h **** #else
 279:../../lib/lpc11cx4-library/lpc_chip_11cxx_lib/inc/clock_11xx.h **** 	SYSCTL_CLOCK_RESERVED26,			/*!< 26: Reserved */
 280:../../lib/lpc11cx4-library/lpc_chip_11cxx_lib/inc/clock_11xx.h **** #endif
 281:../../lib/lpc11cx4-library/lpc_chip_11cxx_lib/inc/clock_11xx.h **** #if defined(CHIP_LPC11UXX)
 282:../../lib/lpc11cx4-library/lpc_chip_11cxx_lib/inc/clock_11xx.h **** 	SYSCTL_CLOCK_USBRAM,				/*!< 27: USB SRAM block clock, LPC11Uxx only */
 283:../../lib/lpc11cx4-library/lpc_chip_11cxx_lib/inc/clock_11xx.h **** #else
 284:../../lib/lpc11cx4-library/lpc_chip_11cxx_lib/inc/clock_11xx.h **** 	SYSCTL_CLOCK_RESERVED27,			/*!< 27: Reserved */
 285:../../lib/lpc11cx4-library/lpc_chip_11cxx_lib/inc/clock_11xx.h **** #endif
 286:../../lib/lpc11cx4-library/lpc_chip_11cxx_lib/inc/clock_11xx.h **** #endif /* !defined(CHIP_LPC11CXX) */
 287:../../lib/lpc11cx4-library/lpc_chip_11cxx_lib/inc/clock_11xx.h **** #endif /* !(defined(CHIP_LPC110X) || defined(CHIP_LPC11XXLV)) */
 288:../../lib/lpc11cx4-library/lpc_chip_11cxx_lib/inc/clock_11xx.h **** } CHIP_SYSCTL_CLOCK_T;
 289:../../lib/lpc11cx4-library/lpc_chip_11cxx_lib/inc/clock_11xx.h **** 
 290:../../lib/lpc11cx4-library/lpc_chip_11cxx_lib/inc/clock_11xx.h **** /**
 291:../../lib/lpc11cx4-library/lpc_chip_11cxx_lib/inc/clock_11xx.h ****  * @brief	Enable a system or peripheral clock
 292:../../lib/lpc11cx4-library/lpc_chip_11cxx_lib/inc/clock_11xx.h ****  * @param	clk	: Clock to enable
 293:../../lib/lpc11cx4-library/lpc_chip_11cxx_lib/inc/clock_11xx.h ****  * @return	Nothing
 294:../../lib/lpc11cx4-library/lpc_chip_11cxx_lib/inc/clock_11xx.h ****  */
 295:../../lib/lpc11cx4-library/lpc_chip_11cxx_lib/inc/clock_11xx.h **** STATIC INLINE void Chip_Clock_EnablePeriphClock(CHIP_SYSCTL_CLOCK_T clk)
 296:../../lib/lpc11cx4-library/lpc_chip_11cxx_lib/inc/clock_11xx.h **** {
 297:../../lib/lpc11cx4-library/lpc_chip_11cxx_lib/inc/clock_11xx.h **** 	LPC_SYSCTL->SYSAHBCLKCTRL |= (1 << clk);
  97              		.loc 2 297 0
  98 0000 8022     		movs	r2, #128	@ tmp114,
  99 0002 4023     		movs	r3, #64	@ tmp115,
 100 0004 0249     		ldr	r1, .L2	@ tmp113,
 101              	.LBE27:
 102              	.LBE26:
  56:../../lib/lpc11cx4-library/lpc_chip_11cxx_lib/src/gpio_11xx_2.c **** 	UNUSED(pGPIO);
  57:../../lib/lpc11cx4-library/lpc_chip_11cxx_lib/src/gpio_11xx_2.c **** 	Chip_Clock_EnablePeriphClock(SYSCTL_CLOCK_GPIO);
ARM GAS  /var/folders/z0/6xlwn_996xz3mwq1cgzkbq4r0000gp/T//ccf35CVt.s 			page 9


  58:../../lib/lpc11cx4-library/lpc_chip_11cxx_lib/src/gpio_11xx_2.c **** }
 103              		.loc 1 58 0
 104              		@ sp needed	@
 105              	.LBB29:
 106              	.LBB28:
 107              		.loc 2 297 0
 108 0006 8858     		ldr	r0, [r1, r2]	@ D.6373, MEM[(struct LPC_SYSCTL_T *)1074036736B].SYSAHBCLKCTRL
 109              	.LVL1:
 110 0008 0343     		orrs	r3, r0	@ D.6373, D.6373
 111 000a 8B50     		str	r3, [r1, r2]	@ D.6373, MEM[(struct LPC_SYSCTL_T *)1074036736B].SYSAHBCLKCTRL
 112              	.LVL2:
 113              	.LBE28:
 114              	.LBE29:
 115              		.loc 1 58 0
 116 000c 7047     		bx	lr
 117              	.L3:
 118 000e C046     		.align	2
 119              	.L2:
 120 0010 00800440 		.word	1074036736
 121              		.cfi_endproc
 122              	.LFE198:
 123              		.size	Chip_GPIO_Init, .-Chip_GPIO_Init
 124              		.section	.text.Chip_GPIO_DeInit,"ax",%progbits
 125              		.align	2
 126              		.global	Chip_GPIO_DeInit
 127              		.code	16
 128              		.thumb_func
 129              		.type	Chip_GPIO_DeInit, %function
 130              	Chip_GPIO_DeInit:
 131              	.LFB199:
  59:../../lib/lpc11cx4-library/lpc_chip_11cxx_lib/src/gpio_11xx_2.c **** 
  60:../../lib/lpc11cx4-library/lpc_chip_11cxx_lib/src/gpio_11xx_2.c **** /* De-Initialize GPIO block */
  61:../../lib/lpc11cx4-library/lpc_chip_11cxx_lib/src/gpio_11xx_2.c **** void Chip_GPIO_DeInit(LPC_GPIO_T *pGPIO)
  62:../../lib/lpc11cx4-library/lpc_chip_11cxx_lib/src/gpio_11xx_2.c **** {
 132              		.loc 1 62 0
 133              		.cfi_startproc
 134              		@ args = 0, pretend = 0, frame = 0
 135              		@ frame_needed = 0, uses_anonymous_args = 0
 136              		@ link register save eliminated.
 137              	.LVL3:
 138              	.LBB30:
 139              	.LBB31:
 298:../../lib/lpc11cx4-library/lpc_chip_11cxx_lib/inc/clock_11xx.h **** }
 299:../../lib/lpc11cx4-library/lpc_chip_11cxx_lib/inc/clock_11xx.h **** 
 300:../../lib/lpc11cx4-library/lpc_chip_11cxx_lib/inc/clock_11xx.h **** /**
 301:../../lib/lpc11cx4-library/lpc_chip_11cxx_lib/inc/clock_11xx.h ****  * @brief	Disable a system or peripheral clock
 302:../../lib/lpc11cx4-library/lpc_chip_11cxx_lib/inc/clock_11xx.h ****  * @param	clk	: Clock to disable
 303:../../lib/lpc11cx4-library/lpc_chip_11cxx_lib/inc/clock_11xx.h ****  * @return	Nothing
 304:../../lib/lpc11cx4-library/lpc_chip_11cxx_lib/inc/clock_11xx.h ****  */
 305:../../lib/lpc11cx4-library/lpc_chip_11cxx_lib/inc/clock_11xx.h **** STATIC INLINE void Chip_Clock_DisablePeriphClock(CHIP_SYSCTL_CLOCK_T clk)
 306:../../lib/lpc11cx4-library/lpc_chip_11cxx_lib/inc/clock_11xx.h **** {
 307:../../lib/lpc11cx4-library/lpc_chip_11cxx_lib/inc/clock_11xx.h **** 	LPC_SYSCTL->SYSAHBCLKCTRL &= ~(1 << clk);
 140              		.loc 2 307 0
 141 0000 8022     		movs	r2, #128	@ tmp114,
 142 0002 4020     		movs	r0, #64	@ tmp115,
 143              	.LVL4:
 144 0004 0249     		ldr	r1, .L5	@ tmp113,
ARM GAS  /var/folders/z0/6xlwn_996xz3mwq1cgzkbq4r0000gp/T//ccf35CVt.s 			page 10


 145              	.LBE31:
 146              	.LBE30:
  63:../../lib/lpc11cx4-library/lpc_chip_11cxx_lib/src/gpio_11xx_2.c **** 	UNUSED(pGPIO);
  64:../../lib/lpc11cx4-library/lpc_chip_11cxx_lib/src/gpio_11xx_2.c **** 	Chip_Clock_DisablePeriphClock(SYSCTL_CLOCK_GPIO);
  65:../../lib/lpc11cx4-library/lpc_chip_11cxx_lib/src/gpio_11xx_2.c **** }
 147              		.loc 1 65 0
 148              		@ sp needed	@
 149              	.LBB33:
 150              	.LBB32:
 151              		.loc 2 307 0
 152 0006 8B58     		ldr	r3, [r1, r2]	@ D.6376, MEM[(struct LPC_SYSCTL_T *)1074036736B].SYSAHBCLKCTRL
 153 0008 8343     		bics	r3, r0	@ D.6376, tmp115
 154 000a 8B50     		str	r3, [r1, r2]	@ D.6376, MEM[(struct LPC_SYSCTL_T *)1074036736B].SYSAHBCLKCTRL
 155              	.LVL5:
 156              	.LBE32:
 157              	.LBE33:
 158              		.loc 1 65 0
 159 000c 7047     		bx	lr
 160              	.L6:
 161 000e C046     		.align	2
 162              	.L5:
 163 0010 00800440 		.word	1074036736
 164              		.cfi_endproc
 165              	.LFE199:
 166              		.size	Chip_GPIO_DeInit, .-Chip_GPIO_DeInit
 167              		.section	.text.Chip_GPIO_WriteDirBit,"ax",%progbits
 168              		.align	2
 169              		.global	Chip_GPIO_WriteDirBit
 170              		.code	16
 171              		.thumb_func
 172              		.type	Chip_GPIO_WriteDirBit, %function
 173              	Chip_GPIO_WriteDirBit:
 174              	.LFB200:
  66:../../lib/lpc11cx4-library/lpc_chip_11cxx_lib/src/gpio_11xx_2.c **** 
  67:../../lib/lpc11cx4-library/lpc_chip_11cxx_lib/src/gpio_11xx_2.c **** /* Set GPIO direction */
  68:../../lib/lpc11cx4-library/lpc_chip_11cxx_lib/src/gpio_11xx_2.c **** void Chip_GPIO_WriteDirBit(LPC_GPIO_T *pGPIO, uint32_t port, uint8_t bit, bool setting)
  69:../../lib/lpc11cx4-library/lpc_chip_11cxx_lib/src/gpio_11xx_2.c **** {
 175              		.loc 1 69 0
 176              		.cfi_startproc
 177              		@ args = 0, pretend = 0, frame = 0
 178              		@ frame_needed = 0, uses_anonymous_args = 0
 179              	.LVL6:
 180 0000 10B5     		push	{r4, lr}	@
 181              		.cfi_def_cfa_offset 8
 182              		.cfi_offset 4, -8
 183              		.cfi_offset 14, -4
  70:../../lib/lpc11cx4-library/lpc_chip_11cxx_lib/src/gpio_11xx_2.c **** 	if (setting) {
  71:../../lib/lpc11cx4-library/lpc_chip_11cxx_lib/src/gpio_11xx_2.c **** 		pGPIO[port].DIR |= 1UL << bit;
 184              		.loc 1 71 0
 185 0002 8024     		movs	r4, #128	@ tmp128,
 186 0004 0904     		lsls	r1, r1, #16	@ D.6379, port,
 187              	.LVL7:
 188 0006 4018     		adds	r0, r0, r1	@ D.6380, pGPIO, D.6379
 189              	.LVL8:
 190 0008 2402     		lsls	r4, r4, #8	@ tmp128, tmp128,
  70:../../lib/lpc11cx4-library/lpc_chip_11cxx_lib/src/gpio_11xx_2.c **** 	if (setting) {
 191              		.loc 1 70 0
ARM GAS  /var/folders/z0/6xlwn_996xz3mwq1cgzkbq4r0000gp/T//ccf35CVt.s 			page 11


 192 000a 002B     		cmp	r3, #0	@ setting,
 193 000c 05D1     		bne	.L11	@,
  72:../../lib/lpc11cx4-library/lpc_chip_11cxx_lib/src/gpio_11xx_2.c **** 	}
  73:../../lib/lpc11cx4-library/lpc_chip_11cxx_lib/src/gpio_11xx_2.c **** 	else {
  74:../../lib/lpc11cx4-library/lpc_chip_11cxx_lib/src/gpio_11xx_2.c **** 		pGPIO[port].DIR &= ~(1UL << bit);
 194              		.loc 1 74 0
 195 000e 0121     		movs	r1, #1	@ tmp135,
 196 0010 9140     		lsls	r1, r1, r2	@ tmp135, tmp135, bit
 197 0012 0359     		ldr	r3, [r0, r4]	@ D.6379, _15->DIR
 198              	.LVL9:
 199 0014 8B43     		bics	r3, r1	@ D.6379, D.6379
 200 0016 0351     		str	r3, [r0, r4]	@ D.6379,
 201              	.L7:
  75:../../lib/lpc11cx4-library/lpc_chip_11cxx_lib/src/gpio_11xx_2.c **** 	}
  76:../../lib/lpc11cx4-library/lpc_chip_11cxx_lib/src/gpio_11xx_2.c **** }
 202              		.loc 1 76 0
 203              		@ sp needed	@
 204 0018 10BD     		pop	{r4, pc}
 205              	.LVL10:
 206              	.L11:
  71:../../lib/lpc11cx4-library/lpc_chip_11cxx_lib/src/gpio_11xx_2.c **** 	}
 207              		.loc 1 71 0
 208 001a 0123     		movs	r3, #1	@ tmp130,
 209              	.LVL11:
 210 001c 9340     		lsls	r3, r3, r2	@ D.6379, tmp130, bit
 211 001e 0159     		ldr	r1, [r0, r4]	@ D.6379, _6->DIR
 212 0020 0B43     		orrs	r3, r1	@ D.6379, D.6379
 213 0022 0351     		str	r3, [r0, r4]	@ D.6379,
 214 0024 F8E7     		b	.L7	@
 215              		.cfi_endproc
 216              	.LFE200:
 217              		.size	Chip_GPIO_WriteDirBit, .-Chip_GPIO_WriteDirBit
 218 0026 C046     		.section	.text.Chip_GPIO_SetDir,"ax",%progbits
 219              		.align	2
 220              		.global	Chip_GPIO_SetDir
 221              		.code	16
 222              		.thumb_func
 223              		.type	Chip_GPIO_SetDir, %function
 224              	Chip_GPIO_SetDir:
 225              	.LFB201:
  77:../../lib/lpc11cx4-library/lpc_chip_11cxx_lib/src/gpio_11xx_2.c **** 
  78:../../lib/lpc11cx4-library/lpc_chip_11cxx_lib/src/gpio_11xx_2.c **** /* Set Direction for a GPIO port */
  79:../../lib/lpc11cx4-library/lpc_chip_11cxx_lib/src/gpio_11xx_2.c **** void Chip_GPIO_SetDir(LPC_GPIO_T *pGPIO, uint8_t port, uint32_t bit, uint8_t out)
  80:../../lib/lpc11cx4-library/lpc_chip_11cxx_lib/src/gpio_11xx_2.c **** {
 226              		.loc 1 80 0
 227              		.cfi_startproc
 228              		@ args = 0, pretend = 0, frame = 0
 229              		@ frame_needed = 0, uses_anonymous_args = 0
 230              		@ link register save eliminated.
 231              	.LVL12:
  81:../../lib/lpc11cx4-library/lpc_chip_11cxx_lib/src/gpio_11xx_2.c **** 	if (out) {
  82:../../lib/lpc11cx4-library/lpc_chip_11cxx_lib/src/gpio_11xx_2.c **** 		pGPIO[port].DIR |= bit;
 232              		.loc 1 82 0
 233 0000 0904     		lsls	r1, r1, #16	@ D.6384, port,
 234              	.LVL13:
 235 0002 4018     		adds	r0, r0, r1	@ D.6385, pGPIO, D.6384
 236              	.LVL14:
ARM GAS  /var/folders/z0/6xlwn_996xz3mwq1cgzkbq4r0000gp/T//ccf35CVt.s 			page 12


  81:../../lib/lpc11cx4-library/lpc_chip_11cxx_lib/src/gpio_11xx_2.c **** 	if (out) {
 237              		.loc 1 81 0
 238 0004 002B     		cmp	r3, #0	@ out,
 239 0006 05D1     		bne	.L15	@,
  83:../../lib/lpc11cx4-library/lpc_chip_11cxx_lib/src/gpio_11xx_2.c **** 	}
  84:../../lib/lpc11cx4-library/lpc_chip_11cxx_lib/src/gpio_11xx_2.c **** 	else {
  85:../../lib/lpc11cx4-library/lpc_chip_11cxx_lib/src/gpio_11xx_2.c **** 		pGPIO[port].DIR &= ~bit;
 240              		.loc 1 85 0
 241 0008 8021     		movs	r1, #128	@ tmp129,
 242 000a 0902     		lsls	r1, r1, #8	@ tmp129, tmp129,
 243 000c 4358     		ldr	r3, [r0, r1]	@ D.6386, _15->DIR
 244              	.LVL15:
 245 000e 9343     		bics	r3, r2	@ D.6386, bit
 246 0010 4350     		str	r3, [r0, r1]	@ D.6386, _15->DIR
 247              	.LVL16:
 248              	.L12:
  86:../../lib/lpc11cx4-library/lpc_chip_11cxx_lib/src/gpio_11xx_2.c **** 	}
  87:../../lib/lpc11cx4-library/lpc_chip_11cxx_lib/src/gpio_11xx_2.c **** }
 249              		.loc 1 87 0
 250              		@ sp needed	@
 251 0012 7047     		bx	lr
 252              	.LVL17:
 253              	.L15:
  82:../../lib/lpc11cx4-library/lpc_chip_11cxx_lib/src/gpio_11xx_2.c **** 	}
 254              		.loc 1 82 0
 255 0014 8023     		movs	r3, #128	@ tmp126,
 256              	.LVL18:
 257 0016 1B02     		lsls	r3, r3, #8	@ tmp126, tmp126,
 258 0018 C158     		ldr	r1, [r0, r3]	@ D.6386, _7->DIR
 259 001a 0A43     		orrs	r2, r1	@ D.6386, D.6386
 260              	.LVL19:
 261 001c C250     		str	r2, [r0, r3]	@ D.6386, _7->DIR
 262 001e F8E7     		b	.L12	@
 263              		.cfi_endproc
 264              	.LFE201:
 265              		.size	Chip_GPIO_SetDir, .-Chip_GPIO_SetDir
 266              		.section	.text.Chip_GPIO_SetPinDIR,"ax",%progbits
 267              		.align	2
 268              		.global	Chip_GPIO_SetPinDIR
 269              		.code	16
 270              		.thumb_func
 271              		.type	Chip_GPIO_SetPinDIR, %function
 272              	Chip_GPIO_SetPinDIR:
 273              	.LFB202:
  88:../../lib/lpc11cx4-library/lpc_chip_11cxx_lib/src/gpio_11xx_2.c **** 
  89:../../lib/lpc11cx4-library/lpc_chip_11cxx_lib/src/gpio_11xx_2.c **** /* Set GPIO direction for a single GPIO pin */
  90:../../lib/lpc11cx4-library/lpc_chip_11cxx_lib/src/gpio_11xx_2.c **** void Chip_GPIO_SetPinDIR(LPC_GPIO_T *pGPIO, uint8_t port, uint8_t pin, bool output)
  91:../../lib/lpc11cx4-library/lpc_chip_11cxx_lib/src/gpio_11xx_2.c **** {
 274              		.loc 1 91 0
 275              		.cfi_startproc
 276              		@ args = 0, pretend = 0, frame = 0
 277              		@ frame_needed = 0, uses_anonymous_args = 0
 278              	.LVL20:
 279 0000 10B5     		push	{r4, lr}	@
 280              		.cfi_def_cfa_offset 8
 281              		.cfi_offset 4, -8
 282              		.cfi_offset 14, -4
ARM GAS  /var/folders/z0/6xlwn_996xz3mwq1cgzkbq4r0000gp/T//ccf35CVt.s 			page 13


 283              	.LBB34:
 284              	.LBB35:
 285              		.file 3 "../../lib/lpc11cx4-library/lpc_chip_11cxx_lib/inc/gpio_11xx_2.h"
   1:../../lib/lpc11cx4-library/lpc_chip_11cxx_lib/inc/gpio_11xx_2.h **** /*
   2:../../lib/lpc11cx4-library/lpc_chip_11cxx_lib/inc/gpio_11xx_2.h ****  * @brief LPC11xx GPIO driver for CHIP_LPC11CXX, CHIP_LPC110X, CHIP_LPC11XXLV,
   3:../../lib/lpc11cx4-library/lpc_chip_11cxx_lib/inc/gpio_11xx_2.h ****  * and CHIP_LPC1125 families only.
   4:../../lib/lpc11cx4-library/lpc_chip_11cxx_lib/inc/gpio_11xx_2.h ****  *
   5:../../lib/lpc11cx4-library/lpc_chip_11cxx_lib/inc/gpio_11xx_2.h ****  * @note
   6:../../lib/lpc11cx4-library/lpc_chip_11cxx_lib/inc/gpio_11xx_2.h ****  * Copyright(C) NXP Semiconductors, 2013
   7:../../lib/lpc11cx4-library/lpc_chip_11cxx_lib/inc/gpio_11xx_2.h ****  * All rights reserved.
   8:../../lib/lpc11cx4-library/lpc_chip_11cxx_lib/inc/gpio_11xx_2.h ****  *
   9:../../lib/lpc11cx4-library/lpc_chip_11cxx_lib/inc/gpio_11xx_2.h ****  * @par
  10:../../lib/lpc11cx4-library/lpc_chip_11cxx_lib/inc/gpio_11xx_2.h ****  * Software that is described herein is for illustrative purposes only
  11:../../lib/lpc11cx4-library/lpc_chip_11cxx_lib/inc/gpio_11xx_2.h ****  * which provides customers with programming information regarding the
  12:../../lib/lpc11cx4-library/lpc_chip_11cxx_lib/inc/gpio_11xx_2.h ****  * LPC products.  This software is supplied "AS IS" without any warranties of
  13:../../lib/lpc11cx4-library/lpc_chip_11cxx_lib/inc/gpio_11xx_2.h ****  * any kind, and NXP Semiconductors and its licensor disclaim any and
  14:../../lib/lpc11cx4-library/lpc_chip_11cxx_lib/inc/gpio_11xx_2.h ****  * all warranties, express or implied, including all implied warranties of
  15:../../lib/lpc11cx4-library/lpc_chip_11cxx_lib/inc/gpio_11xx_2.h ****  * merchantability, fitness for a particular purpose and non-infringement of
  16:../../lib/lpc11cx4-library/lpc_chip_11cxx_lib/inc/gpio_11xx_2.h ****  * intellectual property rights.  NXP Semiconductors assumes no responsibility
  17:../../lib/lpc11cx4-library/lpc_chip_11cxx_lib/inc/gpio_11xx_2.h ****  * or liability for the use of the software, conveys no license or rights under any
  18:../../lib/lpc11cx4-library/lpc_chip_11cxx_lib/inc/gpio_11xx_2.h ****  * patent, copyright, mask work right, or any other intellectual property rights in
  19:../../lib/lpc11cx4-library/lpc_chip_11cxx_lib/inc/gpio_11xx_2.h ****  * or to any products. NXP Semiconductors reserves the right to make changes
  20:../../lib/lpc11cx4-library/lpc_chip_11cxx_lib/inc/gpio_11xx_2.h ****  * in the software without notification. NXP Semiconductors also makes no
  21:../../lib/lpc11cx4-library/lpc_chip_11cxx_lib/inc/gpio_11xx_2.h ****  * representation or warranty that such application will be suitable for the
  22:../../lib/lpc11cx4-library/lpc_chip_11cxx_lib/inc/gpio_11xx_2.h ****  * specified use without further testing or modification.
  23:../../lib/lpc11cx4-library/lpc_chip_11cxx_lib/inc/gpio_11xx_2.h ****  *
  24:../../lib/lpc11cx4-library/lpc_chip_11cxx_lib/inc/gpio_11xx_2.h ****  * @par
  25:../../lib/lpc11cx4-library/lpc_chip_11cxx_lib/inc/gpio_11xx_2.h ****  * Permission to use, copy, modify, and distribute this software and its
  26:../../lib/lpc11cx4-library/lpc_chip_11cxx_lib/inc/gpio_11xx_2.h ****  * documentation is hereby granted, under NXP Semiconductors' and its
  27:../../lib/lpc11cx4-library/lpc_chip_11cxx_lib/inc/gpio_11xx_2.h ****  * licensor's relevant copyrights in the software, without fee, provided that it
  28:../../lib/lpc11cx4-library/lpc_chip_11cxx_lib/inc/gpio_11xx_2.h ****  * is used in conjunction with NXP Semiconductors microcontrollers.  This
  29:../../lib/lpc11cx4-library/lpc_chip_11cxx_lib/inc/gpio_11xx_2.h ****  * copyright, permission, and disclaimer notice must appear in all copies of
  30:../../lib/lpc11cx4-library/lpc_chip_11cxx_lib/inc/gpio_11xx_2.h ****  * this code.
  31:../../lib/lpc11cx4-library/lpc_chip_11cxx_lib/inc/gpio_11xx_2.h ****  */
  32:../../lib/lpc11cx4-library/lpc_chip_11cxx_lib/inc/gpio_11xx_2.h **** 
  33:../../lib/lpc11cx4-library/lpc_chip_11cxx_lib/inc/gpio_11xx_2.h **** #ifndef __GPIO_11XX_2_H_
  34:../../lib/lpc11cx4-library/lpc_chip_11cxx_lib/inc/gpio_11xx_2.h **** #define __GPIO_11XX_2_H_
  35:../../lib/lpc11cx4-library/lpc_chip_11cxx_lib/inc/gpio_11xx_2.h **** 
  36:../../lib/lpc11cx4-library/lpc_chip_11cxx_lib/inc/gpio_11xx_2.h **** #ifdef __cplusplus
  37:../../lib/lpc11cx4-library/lpc_chip_11cxx_lib/inc/gpio_11xx_2.h **** extern "C" {
  38:../../lib/lpc11cx4-library/lpc_chip_11cxx_lib/inc/gpio_11xx_2.h **** #endif
  39:../../lib/lpc11cx4-library/lpc_chip_11cxx_lib/inc/gpio_11xx_2.h **** 
  40:../../lib/lpc11cx4-library/lpc_chip_11cxx_lib/inc/gpio_11xx_2.h **** /** @defgroup GPIO_11XX_2 CHIP: LPC11xx GPIO driver for CHIP_LPC11CXX, CHIP_LPC110X, and CHIP_LPC11
  41:../../lib/lpc11cx4-library/lpc_chip_11cxx_lib/inc/gpio_11xx_2.h ****  * @ingroup CHIP_11XX_Drivers
  42:../../lib/lpc11cx4-library/lpc_chip_11cxx_lib/inc/gpio_11xx_2.h ****  * For device familes identified with CHIP definitions CHIP_LPC11CXX,
  43:../../lib/lpc11cx4-library/lpc_chip_11cxx_lib/inc/gpio_11xx_2.h ****  * CHIP_LPC110X, and CHIP_LPC11XXLV only.
  44:../../lib/lpc11cx4-library/lpc_chip_11cxx_lib/inc/gpio_11xx_2.h ****  * @{
  45:../../lib/lpc11cx4-library/lpc_chip_11cxx_lib/inc/gpio_11xx_2.h ****  */
  46:../../lib/lpc11cx4-library/lpc_chip_11cxx_lib/inc/gpio_11xx_2.h **** 
  47:../../lib/lpc11cx4-library/lpc_chip_11cxx_lib/inc/gpio_11xx_2.h **** #if defined(CHIP_LPC11CXX) || defined(CHIP_LPC110X) || defined(CHIP_LPC11XXLV) || defined(CHIP_LPC1
  48:../../lib/lpc11cx4-library/lpc_chip_11cxx_lib/inc/gpio_11xx_2.h **** 
  49:../../lib/lpc11cx4-library/lpc_chip_11cxx_lib/inc/gpio_11xx_2.h **** /**
  50:../../lib/lpc11cx4-library/lpc_chip_11cxx_lib/inc/gpio_11xx_2.h ****  * @brief  GPIO port register block structure
  51:../../lib/lpc11cx4-library/lpc_chip_11cxx_lib/inc/gpio_11xx_2.h ****  */
  52:../../lib/lpc11cx4-library/lpc_chip_11cxx_lib/inc/gpio_11xx_2.h **** typedef struct {				/*!< GPIO_PORT Structure */
  53:../../lib/lpc11cx4-library/lpc_chip_11cxx_lib/inc/gpio_11xx_2.h **** 	__IO uint32_t DATA[4096];			/*!< Offset: 0x0000 to 0x3FFC Data address masking register (R/W) */
  54:../../lib/lpc11cx4-library/lpc_chip_11cxx_lib/inc/gpio_11xx_2.h **** 	uint32_t RESERVED1[4096];
ARM GAS  /var/folders/z0/6xlwn_996xz3mwq1cgzkbq4r0000gp/T//ccf35CVt.s 			page 14


  55:../../lib/lpc11cx4-library/lpc_chip_11cxx_lib/inc/gpio_11xx_2.h **** 	__IO uint32_t DIR;					/*!< Offset: 0x8000 Data direction register (R/W) */
  56:../../lib/lpc11cx4-library/lpc_chip_11cxx_lib/inc/gpio_11xx_2.h **** 	__IO uint32_t IS;					/*!< Offset: 0x8004 Interrupt sense register (R/W) */
  57:../../lib/lpc11cx4-library/lpc_chip_11cxx_lib/inc/gpio_11xx_2.h **** 	__IO uint32_t IBE;					/*!< Offset: 0x8008 Interrupt both edges register (R/W) */
  58:../../lib/lpc11cx4-library/lpc_chip_11cxx_lib/inc/gpio_11xx_2.h **** 	__IO uint32_t IEV;					/*!< Offset: 0x800C Interrupt event register  (R/W) */
  59:../../lib/lpc11cx4-library/lpc_chip_11cxx_lib/inc/gpio_11xx_2.h **** 	__IO uint32_t IE;					/*!< Offset: 0x8010 Interrupt mask register (R/W) */
  60:../../lib/lpc11cx4-library/lpc_chip_11cxx_lib/inc/gpio_11xx_2.h **** 	__I  uint32_t RIS;					/*!< Offset: 0x8014 Raw interrupt status register (R/ ) */
  61:../../lib/lpc11cx4-library/lpc_chip_11cxx_lib/inc/gpio_11xx_2.h **** 	__I  uint32_t MIS;					/*!< Offset: 0x8018 Masked interrupt status register (R/ ) */
  62:../../lib/lpc11cx4-library/lpc_chip_11cxx_lib/inc/gpio_11xx_2.h **** 	__O  uint32_t IC;					/*!< Offset: 0x801C Interrupt clear register (W) */
  63:../../lib/lpc11cx4-library/lpc_chip_11cxx_lib/inc/gpio_11xx_2.h **** 	uint32_t RESERVED2[8184];			/* Padding added for aligning contiguous GPIO blocks */
  64:../../lib/lpc11cx4-library/lpc_chip_11cxx_lib/inc/gpio_11xx_2.h **** } LPC_GPIO_T;
  65:../../lib/lpc11cx4-library/lpc_chip_11cxx_lib/inc/gpio_11xx_2.h **** 
  66:../../lib/lpc11cx4-library/lpc_chip_11cxx_lib/inc/gpio_11xx_2.h **** /**
  67:../../lib/lpc11cx4-library/lpc_chip_11cxx_lib/inc/gpio_11xx_2.h ****  * @brief	Initialize GPIO block
  68:../../lib/lpc11cx4-library/lpc_chip_11cxx_lib/inc/gpio_11xx_2.h ****  * @param	pGPIO	: The base of GPIO peripheral on the chip
  69:../../lib/lpc11cx4-library/lpc_chip_11cxx_lib/inc/gpio_11xx_2.h ****  * @return	Nothing
  70:../../lib/lpc11cx4-library/lpc_chip_11cxx_lib/inc/gpio_11xx_2.h ****  */
  71:../../lib/lpc11cx4-library/lpc_chip_11cxx_lib/inc/gpio_11xx_2.h **** void Chip_GPIO_Init(LPC_GPIO_T *pGPIO);
  72:../../lib/lpc11cx4-library/lpc_chip_11cxx_lib/inc/gpio_11xx_2.h **** 
  73:../../lib/lpc11cx4-library/lpc_chip_11cxx_lib/inc/gpio_11xx_2.h **** /**
  74:../../lib/lpc11cx4-library/lpc_chip_11cxx_lib/inc/gpio_11xx_2.h ****  * @brief	De-Initialize GPIO block
  75:../../lib/lpc11cx4-library/lpc_chip_11cxx_lib/inc/gpio_11xx_2.h ****  * @param	pGPIO	: The base of GPIO peripheral on the chip
  76:../../lib/lpc11cx4-library/lpc_chip_11cxx_lib/inc/gpio_11xx_2.h ****  * @return	Nothing
  77:../../lib/lpc11cx4-library/lpc_chip_11cxx_lib/inc/gpio_11xx_2.h ****  */
  78:../../lib/lpc11cx4-library/lpc_chip_11cxx_lib/inc/gpio_11xx_2.h **** void Chip_GPIO_DeInit(LPC_GPIO_T *pGPIO);
  79:../../lib/lpc11cx4-library/lpc_chip_11cxx_lib/inc/gpio_11xx_2.h **** 
  80:../../lib/lpc11cx4-library/lpc_chip_11cxx_lib/inc/gpio_11xx_2.h **** /**
  81:../../lib/lpc11cx4-library/lpc_chip_11cxx_lib/inc/gpio_11xx_2.h ****  * @brief	Set a GPIO port/bit state
  82:../../lib/lpc11cx4-library/lpc_chip_11cxx_lib/inc/gpio_11xx_2.h ****  * @param	pGPIO	: The base of GPIO peripheral on the chip
  83:../../lib/lpc11cx4-library/lpc_chip_11cxx_lib/inc/gpio_11xx_2.h ****  * @param	port	: GPIO port to set
  84:../../lib/lpc11cx4-library/lpc_chip_11cxx_lib/inc/gpio_11xx_2.h ****  * @param	bit		: GPIO bit to set
  85:../../lib/lpc11cx4-library/lpc_chip_11cxx_lib/inc/gpio_11xx_2.h ****  * @param	setting	: true for high, false for low
  86:../../lib/lpc11cx4-library/lpc_chip_11cxx_lib/inc/gpio_11xx_2.h ****  * @return	Nothing
  87:../../lib/lpc11cx4-library/lpc_chip_11cxx_lib/inc/gpio_11xx_2.h ****  */
  88:../../lib/lpc11cx4-library/lpc_chip_11cxx_lib/inc/gpio_11xx_2.h **** STATIC INLINE void Chip_GPIO_WritePortBit(LPC_GPIO_T *pGPIO, uint32_t port, uint8_t bit, bool setti
  89:../../lib/lpc11cx4-library/lpc_chip_11cxx_lib/inc/gpio_11xx_2.h **** {
  90:../../lib/lpc11cx4-library/lpc_chip_11cxx_lib/inc/gpio_11xx_2.h **** 	pGPIO[port].DATA[1 << bit] = setting << bit;
  91:../../lib/lpc11cx4-library/lpc_chip_11cxx_lib/inc/gpio_11xx_2.h **** }
  92:../../lib/lpc11cx4-library/lpc_chip_11cxx_lib/inc/gpio_11xx_2.h **** 
  93:../../lib/lpc11cx4-library/lpc_chip_11cxx_lib/inc/gpio_11xx_2.h **** /**
  94:../../lib/lpc11cx4-library/lpc_chip_11cxx_lib/inc/gpio_11xx_2.h ****  * @brief	Set a GPIO pin state via the GPIO byte register
  95:../../lib/lpc11cx4-library/lpc_chip_11cxx_lib/inc/gpio_11xx_2.h ****  * @param	pGPIO	: The base of GPIO peripheral on the chip
  96:../../lib/lpc11cx4-library/lpc_chip_11cxx_lib/inc/gpio_11xx_2.h ****  * @param	port	: Port number
  97:../../lib/lpc11cx4-library/lpc_chip_11cxx_lib/inc/gpio_11xx_2.h ****  * @param	pin		: GPIO pin to set
  98:../../lib/lpc11cx4-library/lpc_chip_11cxx_lib/inc/gpio_11xx_2.h ****  * @param	setting	: true for high, false for low
  99:../../lib/lpc11cx4-library/lpc_chip_11cxx_lib/inc/gpio_11xx_2.h ****  * @return	Nothing
 100:../../lib/lpc11cx4-library/lpc_chip_11cxx_lib/inc/gpio_11xx_2.h ****  * @note	This function replaces Chip_GPIO_WritePortBit()
 101:../../lib/lpc11cx4-library/lpc_chip_11cxx_lib/inc/gpio_11xx_2.h ****  */
 102:../../lib/lpc11cx4-library/lpc_chip_11cxx_lib/inc/gpio_11xx_2.h **** STATIC INLINE void Chip_GPIO_SetPinState(LPC_GPIO_T *pGPIO, uint8_t port, uint8_t pin, bool setting
 103:../../lib/lpc11cx4-library/lpc_chip_11cxx_lib/inc/gpio_11xx_2.h **** {
 104:../../lib/lpc11cx4-library/lpc_chip_11cxx_lib/inc/gpio_11xx_2.h **** 	pGPIO[port].DATA[1 << pin] = setting << pin;
 105:../../lib/lpc11cx4-library/lpc_chip_11cxx_lib/inc/gpio_11xx_2.h **** }
 106:../../lib/lpc11cx4-library/lpc_chip_11cxx_lib/inc/gpio_11xx_2.h **** 
 107:../../lib/lpc11cx4-library/lpc_chip_11cxx_lib/inc/gpio_11xx_2.h **** /**
 108:../../lib/lpc11cx4-library/lpc_chip_11cxx_lib/inc/gpio_11xx_2.h ****  * @brief	Read a GPIO state
 109:../../lib/lpc11cx4-library/lpc_chip_11cxx_lib/inc/gpio_11xx_2.h ****  * @param	pGPIO	: The base of GPIO peripheral on the chip
 110:../../lib/lpc11cx4-library/lpc_chip_11cxx_lib/inc/gpio_11xx_2.h ****  * @param	port	: GPIO port to read
 111:../../lib/lpc11cx4-library/lpc_chip_11cxx_lib/inc/gpio_11xx_2.h ****  * @param	bit		: GPIO bit to read
ARM GAS  /var/folders/z0/6xlwn_996xz3mwq1cgzkbq4r0000gp/T//ccf35CVt.s 			page 15


 112:../../lib/lpc11cx4-library/lpc_chip_11cxx_lib/inc/gpio_11xx_2.h ****  * @return	true of the GPIO is high, false if low
 113:../../lib/lpc11cx4-library/lpc_chip_11cxx_lib/inc/gpio_11xx_2.h ****  * @note	It is recommended to use the Chip_GPIO_GetPinState() function instead.
 114:../../lib/lpc11cx4-library/lpc_chip_11cxx_lib/inc/gpio_11xx_2.h ****  */
 115:../../lib/lpc11cx4-library/lpc_chip_11cxx_lib/inc/gpio_11xx_2.h **** STATIC INLINE bool Chip_GPIO_ReadPortBit(LPC_GPIO_T *pGPIO, uint32_t port, uint8_t bit)
 116:../../lib/lpc11cx4-library/lpc_chip_11cxx_lib/inc/gpio_11xx_2.h **** {
 117:../../lib/lpc11cx4-library/lpc_chip_11cxx_lib/inc/gpio_11xx_2.h **** 	return (bool) ((pGPIO[port].DATA[1 << bit] >> bit) & 1);
 118:../../lib/lpc11cx4-library/lpc_chip_11cxx_lib/inc/gpio_11xx_2.h **** }
 119:../../lib/lpc11cx4-library/lpc_chip_11cxx_lib/inc/gpio_11xx_2.h **** 
 120:../../lib/lpc11cx4-library/lpc_chip_11cxx_lib/inc/gpio_11xx_2.h **** /**
 121:../../lib/lpc11cx4-library/lpc_chip_11cxx_lib/inc/gpio_11xx_2.h ****  * @brief	Get a GPIO pin state via the GPIO byte register
 122:../../lib/lpc11cx4-library/lpc_chip_11cxx_lib/inc/gpio_11xx_2.h ****  * @param	pGPIO	: The base of GPIO peripheral on the chip
 123:../../lib/lpc11cx4-library/lpc_chip_11cxx_lib/inc/gpio_11xx_2.h ****  * @param	port	: Port number
 124:../../lib/lpc11cx4-library/lpc_chip_11cxx_lib/inc/gpio_11xx_2.h ****  * @param	pin		: GPIO pin to get state for
 125:../../lib/lpc11cx4-library/lpc_chip_11cxx_lib/inc/gpio_11xx_2.h ****  * @return	true if the GPIO is high, false if low
 126:../../lib/lpc11cx4-library/lpc_chip_11cxx_lib/inc/gpio_11xx_2.h ****  * @note	This function replaces Chip_GPIO_ReadPortBit()
 127:../../lib/lpc11cx4-library/lpc_chip_11cxx_lib/inc/gpio_11xx_2.h ****  */
 128:../../lib/lpc11cx4-library/lpc_chip_11cxx_lib/inc/gpio_11xx_2.h **** STATIC INLINE bool Chip_GPIO_GetPinState(LPC_GPIO_T *pGPIO, uint8_t port, uint8_t pin)
 129:../../lib/lpc11cx4-library/lpc_chip_11cxx_lib/inc/gpio_11xx_2.h **** {
 130:../../lib/lpc11cx4-library/lpc_chip_11cxx_lib/inc/gpio_11xx_2.h **** 	return (pGPIO[port].DATA[1 << pin]) != 0;
 131:../../lib/lpc11cx4-library/lpc_chip_11cxx_lib/inc/gpio_11xx_2.h **** }
 132:../../lib/lpc11cx4-library/lpc_chip_11cxx_lib/inc/gpio_11xx_2.h **** 
 133:../../lib/lpc11cx4-library/lpc_chip_11cxx_lib/inc/gpio_11xx_2.h **** /**
 134:../../lib/lpc11cx4-library/lpc_chip_11cxx_lib/inc/gpio_11xx_2.h ****  * @brief	Seta GPIO direction
 135:../../lib/lpc11cx4-library/lpc_chip_11cxx_lib/inc/gpio_11xx_2.h ****  * @param	pGPIO	: The base of GPIO peripheral on the chip
 136:../../lib/lpc11cx4-library/lpc_chip_11cxx_lib/inc/gpio_11xx_2.h ****  * @param	port	: GPIO port to set
 137:../../lib/lpc11cx4-library/lpc_chip_11cxx_lib/inc/gpio_11xx_2.h ****  * @param	bit		: GPIO bit to set
 138:../../lib/lpc11cx4-library/lpc_chip_11cxx_lib/inc/gpio_11xx_2.h ****  * @param	setting	: true for output, false for input
 139:../../lib/lpc11cx4-library/lpc_chip_11cxx_lib/inc/gpio_11xx_2.h ****  * @return	Nothing
 140:../../lib/lpc11cx4-library/lpc_chip_11cxx_lib/inc/gpio_11xx_2.h ****  * @note	It is recommended to use the Chip_GPIO_SetPinDIROutput(), 
 141:../../lib/lpc11cx4-library/lpc_chip_11cxx_lib/inc/gpio_11xx_2.h ****  * Chip_GPIO_SetPinDIRInput() or Chip_GPIO_SetPinDIR() functions instead
 142:../../lib/lpc11cx4-library/lpc_chip_11cxx_lib/inc/gpio_11xx_2.h ****  * of this function.
 143:../../lib/lpc11cx4-library/lpc_chip_11cxx_lib/inc/gpio_11xx_2.h ****  */
 144:../../lib/lpc11cx4-library/lpc_chip_11cxx_lib/inc/gpio_11xx_2.h **** void Chip_GPIO_WriteDirBit(LPC_GPIO_T *pGPIO, uint32_t port, uint8_t bit, bool setting);
 145:../../lib/lpc11cx4-library/lpc_chip_11cxx_lib/inc/gpio_11xx_2.h **** 
 146:../../lib/lpc11cx4-library/lpc_chip_11cxx_lib/inc/gpio_11xx_2.h **** /**
 147:../../lib/lpc11cx4-library/lpc_chip_11cxx_lib/inc/gpio_11xx_2.h ****  * @brief	Set GPIO direction for a single GPIO pin to an output
 148:../../lib/lpc11cx4-library/lpc_chip_11cxx_lib/inc/gpio_11xx_2.h ****  * @param	pGPIO	: The base of GPIO peripheral on the chip
 149:../../lib/lpc11cx4-library/lpc_chip_11cxx_lib/inc/gpio_11xx_2.h ****  * @param	port	: Port number
 150:../../lib/lpc11cx4-library/lpc_chip_11cxx_lib/inc/gpio_11xx_2.h ****  * @param	pin		: GPIO pin to set direction on as output
 151:../../lib/lpc11cx4-library/lpc_chip_11cxx_lib/inc/gpio_11xx_2.h ****  * @return	Nothing
 152:../../lib/lpc11cx4-library/lpc_chip_11cxx_lib/inc/gpio_11xx_2.h ****  */
 153:../../lib/lpc11cx4-library/lpc_chip_11cxx_lib/inc/gpio_11xx_2.h **** STATIC INLINE void Chip_GPIO_SetPinDIROutput(LPC_GPIO_T *pGPIO, uint8_t port, uint8_t pin)
 154:../../lib/lpc11cx4-library/lpc_chip_11cxx_lib/inc/gpio_11xx_2.h **** {
 155:../../lib/lpc11cx4-library/lpc_chip_11cxx_lib/inc/gpio_11xx_2.h **** 	pGPIO[port].DIR |= (1UL << pin);
 286              		.loc 3 155 0
 287 0002 8024     		movs	r4, #128	@ tmp130,
 288 0004 0904     		lsls	r1, r1, #16	@ D.6389, port,
 289              	.LVL21:
 290 0006 4018     		adds	r0, r0, r1	@ D.6390, pGPIO, D.6389
 291              	.LVL22:
 292 0008 2402     		lsls	r4, r4, #8	@ tmp130, tmp130,
 293              	.LBE35:
 294              	.LBE34:
  92:../../lib/lpc11cx4-library/lpc_chip_11cxx_lib/src/gpio_11xx_2.c **** 	if (output) {
 295              		.loc 1 92 0
 296 000a 002B     		cmp	r3, #0	@ output,
 297 000c 05D1     		bne	.L19	@,
ARM GAS  /var/folders/z0/6xlwn_996xz3mwq1cgzkbq4r0000gp/T//ccf35CVt.s 			page 16


 298              	.LVL23:
 299              	.LBB37:
 300              	.LBB38:
 156:../../lib/lpc11cx4-library/lpc_chip_11cxx_lib/inc/gpio_11xx_2.h **** }
 157:../../lib/lpc11cx4-library/lpc_chip_11cxx_lib/inc/gpio_11xx_2.h **** 
 158:../../lib/lpc11cx4-library/lpc_chip_11cxx_lib/inc/gpio_11xx_2.h **** /**
 159:../../lib/lpc11cx4-library/lpc_chip_11cxx_lib/inc/gpio_11xx_2.h ****  * @brief	Set GPIO direction for a single GPIO pin to an input
 160:../../lib/lpc11cx4-library/lpc_chip_11cxx_lib/inc/gpio_11xx_2.h ****  * @param	pGPIO	: The base of GPIO peripheral on the chip
 161:../../lib/lpc11cx4-library/lpc_chip_11cxx_lib/inc/gpio_11xx_2.h ****  * @param	port	: Port number
 162:../../lib/lpc11cx4-library/lpc_chip_11cxx_lib/inc/gpio_11xx_2.h ****  * @param	pin		: GPIO pin to set direction on as input
 163:../../lib/lpc11cx4-library/lpc_chip_11cxx_lib/inc/gpio_11xx_2.h ****  * @return	Nothing
 164:../../lib/lpc11cx4-library/lpc_chip_11cxx_lib/inc/gpio_11xx_2.h ****  */
 165:../../lib/lpc11cx4-library/lpc_chip_11cxx_lib/inc/gpio_11xx_2.h **** STATIC INLINE void Chip_GPIO_SetPinDIRInput(LPC_GPIO_T *pGPIO, uint8_t port, uint8_t pin)
 166:../../lib/lpc11cx4-library/lpc_chip_11cxx_lib/inc/gpio_11xx_2.h **** {
 167:../../lib/lpc11cx4-library/lpc_chip_11cxx_lib/inc/gpio_11xx_2.h **** 	pGPIO[port].DIR &= ~(1UL << pin);
 301              		.loc 3 167 0
 302 000e 0121     		movs	r1, #1	@ tmp137,
 303 0010 9140     		lsls	r1, r1, r2	@ tmp137, tmp137, pin
 304 0012 0359     		ldr	r3, [r0, r4]	@ D.6391, _17->DIR
 305              	.LVL24:
 306 0014 8B43     		bics	r3, r1	@ D.6391, D.6391
 307 0016 0351     		str	r3, [r0, r4]	@ D.6391,
 308              	.LVL25:
 309              	.L16:
 310              	.LBE38:
 311              	.LBE37:
  93:../../lib/lpc11cx4-library/lpc_chip_11cxx_lib/src/gpio_11xx_2.c **** 		Chip_GPIO_SetPinDIROutput(pGPIO, port, pin);
  94:../../lib/lpc11cx4-library/lpc_chip_11cxx_lib/src/gpio_11xx_2.c **** 	}
  95:../../lib/lpc11cx4-library/lpc_chip_11cxx_lib/src/gpio_11xx_2.c **** 	else {
  96:../../lib/lpc11cx4-library/lpc_chip_11cxx_lib/src/gpio_11xx_2.c **** 		Chip_GPIO_SetPinDIRInput(pGPIO, port, pin);
  97:../../lib/lpc11cx4-library/lpc_chip_11cxx_lib/src/gpio_11xx_2.c **** 	}
  98:../../lib/lpc11cx4-library/lpc_chip_11cxx_lib/src/gpio_11xx_2.c **** }
 312              		.loc 1 98 0
 313              		@ sp needed	@
 314 0018 10BD     		pop	{r4, pc}
 315              	.LVL26:
 316              	.L19:
 317              	.LBB39:
 318              	.LBB36:
 155:../../lib/lpc11cx4-library/lpc_chip_11cxx_lib/inc/gpio_11xx_2.h **** }
 319              		.loc 3 155 0
 320 001a 0123     		movs	r3, #1	@ tmp132,
 321              	.LVL27:
 322 001c 9340     		lsls	r3, r3, r2	@ D.6391, tmp132, pin
 323 001e 0159     		ldr	r1, [r0, r4]	@ D.6391, _11->DIR
 324 0020 0B43     		orrs	r3, r1	@ D.6391, D.6391
 325 0022 0351     		str	r3, [r0, r4]	@ D.6391,
 326 0024 F8E7     		b	.L16	@
 327              	.LBE36:
 328              	.LBE39:
 329              		.cfi_endproc
 330              	.LFE202:
 331              		.size	Chip_GPIO_SetPinDIR, .-Chip_GPIO_SetPinDIR
 332 0026 C046     		.section	.text.Chip_GPIO_SetPortDIR,"ax",%progbits
 333              		.align	2
 334              		.global	Chip_GPIO_SetPortDIR
 335              		.code	16
ARM GAS  /var/folders/z0/6xlwn_996xz3mwq1cgzkbq4r0000gp/T//ccf35CVt.s 			page 17


 336              		.thumb_func
 337              		.type	Chip_GPIO_SetPortDIR, %function
 338              	Chip_GPIO_SetPortDIR:
 339              	.LFB203:
  99:../../lib/lpc11cx4-library/lpc_chip_11cxx_lib/src/gpio_11xx_2.c **** 
 100:../../lib/lpc11cx4-library/lpc_chip_11cxx_lib/src/gpio_11xx_2.c **** 
 101:../../lib/lpc11cx4-library/lpc_chip_11cxx_lib/src/gpio_11xx_2.c **** /* Set GPIO direction for a all selected GPIO pins to an input or output */
 102:../../lib/lpc11cx4-library/lpc_chip_11cxx_lib/src/gpio_11xx_2.c **** void Chip_GPIO_SetPortDIR(LPC_GPIO_T *pGPIO, uint8_t port, uint32_t pinMask, bool outSet)
 103:../../lib/lpc11cx4-library/lpc_chip_11cxx_lib/src/gpio_11xx_2.c **** {
 340              		.loc 1 103 0
 341              		.cfi_startproc
 342              		@ args = 0, pretend = 0, frame = 0
 343              		@ frame_needed = 0, uses_anonymous_args = 0
 344              		@ link register save eliminated.
 345              	.LVL28:
 346              	.LBB40:
 347              	.LBB41:
 168:../../lib/lpc11cx4-library/lpc_chip_11cxx_lib/inc/gpio_11xx_2.h **** }
 169:../../lib/lpc11cx4-library/lpc_chip_11cxx_lib/inc/gpio_11xx_2.h **** 
 170:../../lib/lpc11cx4-library/lpc_chip_11cxx_lib/inc/gpio_11xx_2.h **** /**
 171:../../lib/lpc11cx4-library/lpc_chip_11cxx_lib/inc/gpio_11xx_2.h ****  * @brief	Set GPIO direction for a single GPIO pin
 172:../../lib/lpc11cx4-library/lpc_chip_11cxx_lib/inc/gpio_11xx_2.h ****  * @param	pGPIO	: The base of GPIO peripheral on the chip
 173:../../lib/lpc11cx4-library/lpc_chip_11cxx_lib/inc/gpio_11xx_2.h ****  * @param	port	: Port number
 174:../../lib/lpc11cx4-library/lpc_chip_11cxx_lib/inc/gpio_11xx_2.h ****  * @param	pin		: GPIO pin to set direction for
 175:../../lib/lpc11cx4-library/lpc_chip_11cxx_lib/inc/gpio_11xx_2.h ****  * @param	output	: true for output, false for input
 176:../../lib/lpc11cx4-library/lpc_chip_11cxx_lib/inc/gpio_11xx_2.h ****  * @return	Nothing
 177:../../lib/lpc11cx4-library/lpc_chip_11cxx_lib/inc/gpio_11xx_2.h ****  */
 178:../../lib/lpc11cx4-library/lpc_chip_11cxx_lib/inc/gpio_11xx_2.h **** void Chip_GPIO_SetPinDIR(LPC_GPIO_T *pGPIO, uint8_t port, uint8_t pin, bool output);
 179:../../lib/lpc11cx4-library/lpc_chip_11cxx_lib/inc/gpio_11xx_2.h **** 
 180:../../lib/lpc11cx4-library/lpc_chip_11cxx_lib/inc/gpio_11xx_2.h **** /**
 181:../../lib/lpc11cx4-library/lpc_chip_11cxx_lib/inc/gpio_11xx_2.h ****  * @brief	Read a GPIO direction (out or in)
 182:../../lib/lpc11cx4-library/lpc_chip_11cxx_lib/inc/gpio_11xx_2.h ****  * @param	pGPIO	: The base of GPIO peripheral on the chip
 183:../../lib/lpc11cx4-library/lpc_chip_11cxx_lib/inc/gpio_11xx_2.h ****  * @param	port	: GPIO port to read
 184:../../lib/lpc11cx4-library/lpc_chip_11cxx_lib/inc/gpio_11xx_2.h ****  * @param	bit		: GPIO bit to read
 185:../../lib/lpc11cx4-library/lpc_chip_11cxx_lib/inc/gpio_11xx_2.h ****  * @return	true of the GPIO is an output, false if input
 186:../../lib/lpc11cx4-library/lpc_chip_11cxx_lib/inc/gpio_11xx_2.h ****  * @note	It is recommended to use the Chip_GPIO_GetPinDIR() function instead.
 187:../../lib/lpc11cx4-library/lpc_chip_11cxx_lib/inc/gpio_11xx_2.h ****  */
 188:../../lib/lpc11cx4-library/lpc_chip_11cxx_lib/inc/gpio_11xx_2.h **** STATIC INLINE bool Chip_GPIO_ReadDirBit(LPC_GPIO_T *pGPIO, uint32_t port, uint8_t bit)
 189:../../lib/lpc11cx4-library/lpc_chip_11cxx_lib/inc/gpio_11xx_2.h **** {
 190:../../lib/lpc11cx4-library/lpc_chip_11cxx_lib/inc/gpio_11xx_2.h **** 	return (bool) (((pGPIO[port].DIR) >> bit) & 1);
 191:../../lib/lpc11cx4-library/lpc_chip_11cxx_lib/inc/gpio_11xx_2.h **** }
 192:../../lib/lpc11cx4-library/lpc_chip_11cxx_lib/inc/gpio_11xx_2.h **** 
 193:../../lib/lpc11cx4-library/lpc_chip_11cxx_lib/inc/gpio_11xx_2.h **** /**
 194:../../lib/lpc11cx4-library/lpc_chip_11cxx_lib/inc/gpio_11xx_2.h ****  * @brief	Get GPIO direction for a single GPIO pin
 195:../../lib/lpc11cx4-library/lpc_chip_11cxx_lib/inc/gpio_11xx_2.h ****  * @param	pGPIO	: The base of GPIO peripheral on the chip
 196:../../lib/lpc11cx4-library/lpc_chip_11cxx_lib/inc/gpio_11xx_2.h ****  * @param	port	: Port number
 197:../../lib/lpc11cx4-library/lpc_chip_11cxx_lib/inc/gpio_11xx_2.h ****  * @param	pin		: GPIO pin to get direction for
 198:../../lib/lpc11cx4-library/lpc_chip_11cxx_lib/inc/gpio_11xx_2.h ****  * @return	true if the GPIO is an output, false if input
 199:../../lib/lpc11cx4-library/lpc_chip_11cxx_lib/inc/gpio_11xx_2.h ****  */
 200:../../lib/lpc11cx4-library/lpc_chip_11cxx_lib/inc/gpio_11xx_2.h **** STATIC INLINE bool Chip_GPIO_GetPinDIR(LPC_GPIO_T *pGPIO, uint8_t port, uint8_t pin)
 201:../../lib/lpc11cx4-library/lpc_chip_11cxx_lib/inc/gpio_11xx_2.h **** {
 202:../../lib/lpc11cx4-library/lpc_chip_11cxx_lib/inc/gpio_11xx_2.h **** 	return (bool) (pGPIO[port].DIR >> pin) & 1;
 203:../../lib/lpc11cx4-library/lpc_chip_11cxx_lib/inc/gpio_11xx_2.h **** }
 204:../../lib/lpc11cx4-library/lpc_chip_11cxx_lib/inc/gpio_11xx_2.h **** 
 205:../../lib/lpc11cx4-library/lpc_chip_11cxx_lib/inc/gpio_11xx_2.h **** /**
 206:../../lib/lpc11cx4-library/lpc_chip_11cxx_lib/inc/gpio_11xx_2.h ****  * @brief	Set Direction for a GPIO port
 207:../../lib/lpc11cx4-library/lpc_chip_11cxx_lib/inc/gpio_11xx_2.h ****  * @param	pGPIO	: The base of GPIO peripheral on the chip
ARM GAS  /var/folders/z0/6xlwn_996xz3mwq1cgzkbq4r0000gp/T//ccf35CVt.s 			page 18


 208:../../lib/lpc11cx4-library/lpc_chip_11cxx_lib/inc/gpio_11xx_2.h ****  * @param	port	: Port Number
 209:../../lib/lpc11cx4-library/lpc_chip_11cxx_lib/inc/gpio_11xx_2.h ****  * @param	bit		: GPIO bit to set
 210:../../lib/lpc11cx4-library/lpc_chip_11cxx_lib/inc/gpio_11xx_2.h ****  * @param	out		: Direction value, 0 = input, !0 = output
 211:../../lib/lpc11cx4-library/lpc_chip_11cxx_lib/inc/gpio_11xx_2.h ****  * @return	None
 212:../../lib/lpc11cx4-library/lpc_chip_11cxx_lib/inc/gpio_11xx_2.h ****  * @note	Bits set to '0' are not altered. It is recommended to use the
 213:../../lib/lpc11cx4-library/lpc_chip_11cxx_lib/inc/gpio_11xx_2.h ****  * Chip_GPIO_SetPortDIR() function instead.
 214:../../lib/lpc11cx4-library/lpc_chip_11cxx_lib/inc/gpio_11xx_2.h ****  */
 215:../../lib/lpc11cx4-library/lpc_chip_11cxx_lib/inc/gpio_11xx_2.h **** void Chip_GPIO_SetDir(LPC_GPIO_T *pGPIO, uint8_t port, uint32_t bit, uint8_t out);
 216:../../lib/lpc11cx4-library/lpc_chip_11cxx_lib/inc/gpio_11xx_2.h **** 
 217:../../lib/lpc11cx4-library/lpc_chip_11cxx_lib/inc/gpio_11xx_2.h **** /**
 218:../../lib/lpc11cx4-library/lpc_chip_11cxx_lib/inc/gpio_11xx_2.h ****  * @brief	Set GPIO direction for a all selected GPIO pins to an output
 219:../../lib/lpc11cx4-library/lpc_chip_11cxx_lib/inc/gpio_11xx_2.h ****  * @param	pGPIO	: The base of GPIO peripheral on the chip
 220:../../lib/lpc11cx4-library/lpc_chip_11cxx_lib/inc/gpio_11xx_2.h ****  * @param	port	: Port number
 221:../../lib/lpc11cx4-library/lpc_chip_11cxx_lib/inc/gpio_11xx_2.h ****  * @param	pinMask	: GPIO pin mask to set direction on as output (bits 0..n for pins 0..n)
 222:../../lib/lpc11cx4-library/lpc_chip_11cxx_lib/inc/gpio_11xx_2.h ****  * @return	Nothing
 223:../../lib/lpc11cx4-library/lpc_chip_11cxx_lib/inc/gpio_11xx_2.h ****  * @note	Sets multiple GPIO pins to the output direction, each bit's position that is
 224:../../lib/lpc11cx4-library/lpc_chip_11cxx_lib/inc/gpio_11xx_2.h ****  * high sets the corresponding pin number for that bit to an output.
 225:../../lib/lpc11cx4-library/lpc_chip_11cxx_lib/inc/gpio_11xx_2.h ****  */
 226:../../lib/lpc11cx4-library/lpc_chip_11cxx_lib/inc/gpio_11xx_2.h **** STATIC INLINE void Chip_GPIO_SetPortDIROutput(LPC_GPIO_T *pGPIO, uint8_t port, uint32_t pinMask)
 227:../../lib/lpc11cx4-library/lpc_chip_11cxx_lib/inc/gpio_11xx_2.h **** {
 228:../../lib/lpc11cx4-library/lpc_chip_11cxx_lib/inc/gpio_11xx_2.h **** 	pGPIO[port].DIR |= pinMask;
 348              		.loc 3 228 0
 349 0000 0904     		lsls	r1, r1, #16	@ D.6395, port,
 350              	.LVL29:
 351 0002 4018     		adds	r0, r0, r1	@ D.6396, pGPIO, D.6395
 352              	.LVL30:
 353 0004 8021     		movs	r1, #128	@ tmp126,
 354 0006 0902     		lsls	r1, r1, #8	@ tmp126, tmp126,
 355              	.LBE41:
 356              	.LBE40:
 104:../../lib/lpc11cx4-library/lpc_chip_11cxx_lib/src/gpio_11xx_2.c **** 	if (outSet) {
 357              		.loc 1 104 0
 358 0008 002B     		cmp	r3, #0	@ outSet,
 359 000a 03D1     		bne	.L23	@,
 360              	.LVL31:
 361              	.LBB43:
 362              	.LBB44:
 229:../../lib/lpc11cx4-library/lpc_chip_11cxx_lib/inc/gpio_11xx_2.h **** }
 230:../../lib/lpc11cx4-library/lpc_chip_11cxx_lib/inc/gpio_11xx_2.h **** 
 231:../../lib/lpc11cx4-library/lpc_chip_11cxx_lib/inc/gpio_11xx_2.h **** /**
 232:../../lib/lpc11cx4-library/lpc_chip_11cxx_lib/inc/gpio_11xx_2.h ****  * @brief	Set GPIO direction for a all selected GPIO pins to an input
 233:../../lib/lpc11cx4-library/lpc_chip_11cxx_lib/inc/gpio_11xx_2.h ****  * @param	pGPIO	: The base of GPIO peripheral on the chip
 234:../../lib/lpc11cx4-library/lpc_chip_11cxx_lib/inc/gpio_11xx_2.h ****  * @param	port	: Port number
 235:../../lib/lpc11cx4-library/lpc_chip_11cxx_lib/inc/gpio_11xx_2.h ****  * @param	pinMask	: GPIO pin mask to set direction on as input (bits 0..b for pins 0..n)
 236:../../lib/lpc11cx4-library/lpc_chip_11cxx_lib/inc/gpio_11xx_2.h ****  * @return	Nothing
 237:../../lib/lpc11cx4-library/lpc_chip_11cxx_lib/inc/gpio_11xx_2.h ****  * @note	Sets multiple GPIO pins to the input direction, each bit's position that is
 238:../../lib/lpc11cx4-library/lpc_chip_11cxx_lib/inc/gpio_11xx_2.h ****  * high sets the corresponding pin number for that bit to an input.
 239:../../lib/lpc11cx4-library/lpc_chip_11cxx_lib/inc/gpio_11xx_2.h ****  */
 240:../../lib/lpc11cx4-library/lpc_chip_11cxx_lib/inc/gpio_11xx_2.h **** STATIC INLINE void Chip_GPIO_SetPortDIRInput(LPC_GPIO_T *pGPIO, uint8_t port, uint32_t pinMask)
 241:../../lib/lpc11cx4-library/lpc_chip_11cxx_lib/inc/gpio_11xx_2.h **** {
 242:../../lib/lpc11cx4-library/lpc_chip_11cxx_lib/inc/gpio_11xx_2.h **** 	pGPIO[port].DIR &= ~pinMask;
 363              		.loc 3 242 0
 364 000c 4358     		ldr	r3, [r0, r1]	@ D.6397,
 365              	.LVL32:
 366 000e 9343     		bics	r3, r2	@ D.6397, pinMask
 367 0010 4350     		str	r3, [r0, r1]	@ D.6397, _15->DIR
 368              	.LVL33:
ARM GAS  /var/folders/z0/6xlwn_996xz3mwq1cgzkbq4r0000gp/T//ccf35CVt.s 			page 19


 369              	.L20:
 370              	.LBE44:
 371              	.LBE43:
 105:../../lib/lpc11cx4-library/lpc_chip_11cxx_lib/src/gpio_11xx_2.c **** 		Chip_GPIO_SetPortDIROutput(pGPIO, port, pinMask);
 106:../../lib/lpc11cx4-library/lpc_chip_11cxx_lib/src/gpio_11xx_2.c **** 	}
 107:../../lib/lpc11cx4-library/lpc_chip_11cxx_lib/src/gpio_11xx_2.c **** 	else {
 108:../../lib/lpc11cx4-library/lpc_chip_11cxx_lib/src/gpio_11xx_2.c **** 		Chip_GPIO_SetPortDIRInput(pGPIO, port, pinMask);
 109:../../lib/lpc11cx4-library/lpc_chip_11cxx_lib/src/gpio_11xx_2.c **** 	}
 110:../../lib/lpc11cx4-library/lpc_chip_11cxx_lib/src/gpio_11xx_2.c **** }
 372              		.loc 1 110 0
 373              		@ sp needed	@
 374 0012 7047     		bx	lr
 375              	.LVL34:
 376              	.L23:
 377              	.LBB45:
 378              	.LBB42:
 228:../../lib/lpc11cx4-library/lpc_chip_11cxx_lib/inc/gpio_11xx_2.h **** }
 379              		.loc 3 228 0
 380 0014 4358     		ldr	r3, [r0, r1]	@ D.6397,
 381              	.LVL35:
 382 0016 1A43     		orrs	r2, r3	@ D.6397, D.6397
 383              	.LVL36:
 384 0018 4250     		str	r2, [r0, r1]	@ D.6397, _11->DIR
 385 001a FAE7     		b	.L20	@
 386              	.LBE42:
 387              	.LBE45:
 388              		.cfi_endproc
 389              	.LFE203:
 390              		.size	Chip_GPIO_SetPortDIR, .-Chip_GPIO_SetPortDIR
 391              		.section	.text.Chip_GPIO_SetupPinInt,"ax",%progbits
 392              		.align	2
 393              		.global	Chip_GPIO_SetupPinInt
 394              		.code	16
 395              		.thumb_func
 396              		.type	Chip_GPIO_SetupPinInt, %function
 397              	Chip_GPIO_SetupPinInt:
 398              	.LFB204:
 111:../../lib/lpc11cx4-library/lpc_chip_11cxx_lib/src/gpio_11xx_2.c **** 
 112:../../lib/lpc11cx4-library/lpc_chip_11cxx_lib/src/gpio_11xx_2.c **** /* Composite function for setting up a full interrupt configuration for a single pin */
 113:../../lib/lpc11cx4-library/lpc_chip_11cxx_lib/src/gpio_11xx_2.c **** void Chip_GPIO_SetupPinInt(LPC_GPIO_T *pGPIO, uint8_t port, uint8_t pin, GPIO_INT_MODE_T mode)
 114:../../lib/lpc11cx4-library/lpc_chip_11cxx_lib/src/gpio_11xx_2.c **** {
 399              		.loc 1 114 0
 400              		.cfi_startproc
 401              		@ args = 0, pretend = 0, frame = 0
 402              		@ frame_needed = 0, uses_anonymous_args = 0
 403              	.LVL37:
 404 0000 30B5     		push	{r4, r5, lr}	@
 405              		.cfi_def_cfa_offset 12
 406              		.cfi_offset 4, -12
 407              		.cfi_offset 5, -8
 408              		.cfi_offset 14, -4
 115:../../lib/lpc11cx4-library/lpc_chip_11cxx_lib/src/gpio_11xx_2.c **** 	uint32_t pinMask = (1 << pin);
 409              		.loc 1 115 0
 410 0002 0124     		movs	r4, #1	@ tmp139,
 411              	.LBB46:
 412              	.LBB47:
 243:../../lib/lpc11cx4-library/lpc_chip_11cxx_lib/inc/gpio_11xx_2.h **** }
ARM GAS  /var/folders/z0/6xlwn_996xz3mwq1cgzkbq4r0000gp/T//ccf35CVt.s 			page 20


 244:../../lib/lpc11cx4-library/lpc_chip_11cxx_lib/inc/gpio_11xx_2.h **** 
 245:../../lib/lpc11cx4-library/lpc_chip_11cxx_lib/inc/gpio_11xx_2.h **** /**
 246:../../lib/lpc11cx4-library/lpc_chip_11cxx_lib/inc/gpio_11xx_2.h ****  * @brief	Set GPIO direction for a all selected GPIO pins to an input or output
 247:../../lib/lpc11cx4-library/lpc_chip_11cxx_lib/inc/gpio_11xx_2.h ****  * @param	pGPIO	: The base of GPIO peripheral on the chip
 248:../../lib/lpc11cx4-library/lpc_chip_11cxx_lib/inc/gpio_11xx_2.h ****  * @param	port	: Port number
 249:../../lib/lpc11cx4-library/lpc_chip_11cxx_lib/inc/gpio_11xx_2.h ****  * @param	pinMask	: GPIO pin mask to set direction on (bits 0..b for pins 0..n)
 250:../../lib/lpc11cx4-library/lpc_chip_11cxx_lib/inc/gpio_11xx_2.h ****  * @param	outSet	: Direction value, false = set as inputs, true = set as outputs
 251:../../lib/lpc11cx4-library/lpc_chip_11cxx_lib/inc/gpio_11xx_2.h ****  * @return	Nothing
 252:../../lib/lpc11cx4-library/lpc_chip_11cxx_lib/inc/gpio_11xx_2.h ****  * @note	Sets multiple GPIO pins to the input direction, each bit's position that is
 253:../../lib/lpc11cx4-library/lpc_chip_11cxx_lib/inc/gpio_11xx_2.h ****  * high sets the corresponding pin number for that bit to an input.
 254:../../lib/lpc11cx4-library/lpc_chip_11cxx_lib/inc/gpio_11xx_2.h ****  */
 255:../../lib/lpc11cx4-library/lpc_chip_11cxx_lib/inc/gpio_11xx_2.h **** void Chip_GPIO_SetPortDIR(LPC_GPIO_T *pGPIO, uint8_t port, uint32_t pinMask, bool outSet);
 256:../../lib/lpc11cx4-library/lpc_chip_11cxx_lib/inc/gpio_11xx_2.h **** 
 257:../../lib/lpc11cx4-library/lpc_chip_11cxx_lib/inc/gpio_11xx_2.h **** /**
 258:../../lib/lpc11cx4-library/lpc_chip_11cxx_lib/inc/gpio_11xx_2.h ****  * @brief	Get GPIO direction for a all GPIO pins
 259:../../lib/lpc11cx4-library/lpc_chip_11cxx_lib/inc/gpio_11xx_2.h ****  * @param	pGPIO	: The base of GPIO peripheral on the chip
 260:../../lib/lpc11cx4-library/lpc_chip_11cxx_lib/inc/gpio_11xx_2.h ****  * @param	port	: Port number
 261:../../lib/lpc11cx4-library/lpc_chip_11cxx_lib/inc/gpio_11xx_2.h ****  * @return	a bitfield containing the input and output states for each pin
 262:../../lib/lpc11cx4-library/lpc_chip_11cxx_lib/inc/gpio_11xx_2.h ****  * @note	For pins 0..n, a high state in a bit corresponds to an output state for the
 263:../../lib/lpc11cx4-library/lpc_chip_11cxx_lib/inc/gpio_11xx_2.h ****  * same pin, while a low  state corresponds to an input state.
 264:../../lib/lpc11cx4-library/lpc_chip_11cxx_lib/inc/gpio_11xx_2.h ****  */
 265:../../lib/lpc11cx4-library/lpc_chip_11cxx_lib/inc/gpio_11xx_2.h **** STATIC INLINE uint32_t Chip_GPIO_GetPortDIR(LPC_GPIO_T *pGPIO, uint8_t port)
 266:../../lib/lpc11cx4-library/lpc_chip_11cxx_lib/inc/gpio_11xx_2.h **** {
 267:../../lib/lpc11cx4-library/lpc_chip_11cxx_lib/inc/gpio_11xx_2.h **** 	return pGPIO[port].DIR;
 268:../../lib/lpc11cx4-library/lpc_chip_11cxx_lib/inc/gpio_11xx_2.h **** }
 269:../../lib/lpc11cx4-library/lpc_chip_11cxx_lib/inc/gpio_11xx_2.h **** 
 270:../../lib/lpc11cx4-library/lpc_chip_11cxx_lib/inc/gpio_11xx_2.h **** /**
 271:../../lib/lpc11cx4-library/lpc_chip_11cxx_lib/inc/gpio_11xx_2.h ****  * @brief	Set all GPIO raw pin states (regardless of masking)
 272:../../lib/lpc11cx4-library/lpc_chip_11cxx_lib/inc/gpio_11xx_2.h ****  * @param	pGPIO	: The base of GPIO peripheral on the chip
 273:../../lib/lpc11cx4-library/lpc_chip_11cxx_lib/inc/gpio_11xx_2.h ****  * @param	port	: Port number
 274:../../lib/lpc11cx4-library/lpc_chip_11cxx_lib/inc/gpio_11xx_2.h ****  * @param	value	: Value to set all GPIO pin states (0..n) to
 275:../../lib/lpc11cx4-library/lpc_chip_11cxx_lib/inc/gpio_11xx_2.h ****  * @return	Nothing
 276:../../lib/lpc11cx4-library/lpc_chip_11cxx_lib/inc/gpio_11xx_2.h ****  */
 277:../../lib/lpc11cx4-library/lpc_chip_11cxx_lib/inc/gpio_11xx_2.h **** STATIC INLINE void Chip_GPIO_SetPortValue(LPC_GPIO_T *pGPIO, uint8_t port, uint32_t value)
 278:../../lib/lpc11cx4-library/lpc_chip_11cxx_lib/inc/gpio_11xx_2.h **** {
 279:../../lib/lpc11cx4-library/lpc_chip_11cxx_lib/inc/gpio_11xx_2.h **** 	pGPIO[port].DATA[0xFFF] = value;
 280:../../lib/lpc11cx4-library/lpc_chip_11cxx_lib/inc/gpio_11xx_2.h **** }
 281:../../lib/lpc11cx4-library/lpc_chip_11cxx_lib/inc/gpio_11xx_2.h **** 
 282:../../lib/lpc11cx4-library/lpc_chip_11cxx_lib/inc/gpio_11xx_2.h **** /**
 283:../../lib/lpc11cx4-library/lpc_chip_11cxx_lib/inc/gpio_11xx_2.h ****  * @brief	Get all GPIO raw pin states (regardless of masking)
 284:../../lib/lpc11cx4-library/lpc_chip_11cxx_lib/inc/gpio_11xx_2.h ****  * @param	pGPIO	: The base of GPIO peripheral on the chip
 285:../../lib/lpc11cx4-library/lpc_chip_11cxx_lib/inc/gpio_11xx_2.h ****  * @param	port	: Port number
 286:../../lib/lpc11cx4-library/lpc_chip_11cxx_lib/inc/gpio_11xx_2.h ****  * @return	Current (raw) state of all GPIO pins
 287:../../lib/lpc11cx4-library/lpc_chip_11cxx_lib/inc/gpio_11xx_2.h ****  */
 288:../../lib/lpc11cx4-library/lpc_chip_11cxx_lib/inc/gpio_11xx_2.h **** STATIC INLINE uint32_t Chip_GPIO_GetPortValue(LPC_GPIO_T *pGPIO, uint8_t port)
 289:../../lib/lpc11cx4-library/lpc_chip_11cxx_lib/inc/gpio_11xx_2.h **** {
 290:../../lib/lpc11cx4-library/lpc_chip_11cxx_lib/inc/gpio_11xx_2.h **** 	return pGPIO[port].DATA[0xFFF];
 291:../../lib/lpc11cx4-library/lpc_chip_11cxx_lib/inc/gpio_11xx_2.h **** }
 292:../../lib/lpc11cx4-library/lpc_chip_11cxx_lib/inc/gpio_11xx_2.h **** 
 293:../../lib/lpc11cx4-library/lpc_chip_11cxx_lib/inc/gpio_11xx_2.h **** /**
 294:../../lib/lpc11cx4-library/lpc_chip_11cxx_lib/inc/gpio_11xx_2.h ****  * @brief	Set a GPIO port/bit to the high state
 295:../../lib/lpc11cx4-library/lpc_chip_11cxx_lib/inc/gpio_11xx_2.h ****  * @param	pGPIO	: The base of GPIO peripheral on the chip
 296:../../lib/lpc11cx4-library/lpc_chip_11cxx_lib/inc/gpio_11xx_2.h ****  * @param	port	: Port number
 297:../../lib/lpc11cx4-library/lpc_chip_11cxx_lib/inc/gpio_11xx_2.h ****  * @param	bit		: Bit(s) in the port to set high
 298:../../lib/lpc11cx4-library/lpc_chip_11cxx_lib/inc/gpio_11xx_2.h ****  * @return	None
 299:../../lib/lpc11cx4-library/lpc_chip_11cxx_lib/inc/gpio_11xx_2.h ****  * @note	Any bit set as a '0' will not have it's state changed. This only
 300:../../lib/lpc11cx4-library/lpc_chip_11cxx_lib/inc/gpio_11xx_2.h ****  * applies to ports configured as an output. It is recommended to use the
ARM GAS  /var/folders/z0/6xlwn_996xz3mwq1cgzkbq4r0000gp/T//ccf35CVt.s 			page 21


 301:../../lib/lpc11cx4-library/lpc_chip_11cxx_lib/inc/gpio_11xx_2.h ****  * Chip_GPIO_SetPortOutHigh() function instead.
 302:../../lib/lpc11cx4-library/lpc_chip_11cxx_lib/inc/gpio_11xx_2.h ****  */
 303:../../lib/lpc11cx4-library/lpc_chip_11cxx_lib/inc/gpio_11xx_2.h **** STATIC INLINE void Chip_GPIO_SetValue(LPC_GPIO_T *pGPIO, uint8_t port, uint32_t bit)
 304:../../lib/lpc11cx4-library/lpc_chip_11cxx_lib/inc/gpio_11xx_2.h **** {
 305:../../lib/lpc11cx4-library/lpc_chip_11cxx_lib/inc/gpio_11xx_2.h **** 	pGPIO[port].DATA[bit] = bit;
 306:../../lib/lpc11cx4-library/lpc_chip_11cxx_lib/inc/gpio_11xx_2.h **** }
 307:../../lib/lpc11cx4-library/lpc_chip_11cxx_lib/inc/gpio_11xx_2.h **** 
 308:../../lib/lpc11cx4-library/lpc_chip_11cxx_lib/inc/gpio_11xx_2.h **** /**
 309:../../lib/lpc11cx4-library/lpc_chip_11cxx_lib/inc/gpio_11xx_2.h ****  * @brief	Set selected GPIO output pins to the high state
 310:../../lib/lpc11cx4-library/lpc_chip_11cxx_lib/inc/gpio_11xx_2.h ****  * @param	pGPIO	: The base of GPIO peripheral on the chip
 311:../../lib/lpc11cx4-library/lpc_chip_11cxx_lib/inc/gpio_11xx_2.h ****  * @param	port	: Port number
 312:../../lib/lpc11cx4-library/lpc_chip_11cxx_lib/inc/gpio_11xx_2.h ****  * @param	pins	: pins (0..n) to set high
 313:../../lib/lpc11cx4-library/lpc_chip_11cxx_lib/inc/gpio_11xx_2.h ****  * @return	None
 314:../../lib/lpc11cx4-library/lpc_chip_11cxx_lib/inc/gpio_11xx_2.h ****  * @note	Any bit set as a '0' will not have it's state changed. This only
 315:../../lib/lpc11cx4-library/lpc_chip_11cxx_lib/inc/gpio_11xx_2.h ****  * applies to ports configured as an output.
 316:../../lib/lpc11cx4-library/lpc_chip_11cxx_lib/inc/gpio_11xx_2.h ****  */
 317:../../lib/lpc11cx4-library/lpc_chip_11cxx_lib/inc/gpio_11xx_2.h **** STATIC INLINE void Chip_GPIO_SetPortOutHigh(LPC_GPIO_T *pGPIO, uint8_t port, uint32_t pins)
 318:../../lib/lpc11cx4-library/lpc_chip_11cxx_lib/inc/gpio_11xx_2.h **** {
 319:../../lib/lpc11cx4-library/lpc_chip_11cxx_lib/inc/gpio_11xx_2.h **** 	pGPIO[port].DATA[pins] = 0xFFF;
 320:../../lib/lpc11cx4-library/lpc_chip_11cxx_lib/inc/gpio_11xx_2.h **** }
 321:../../lib/lpc11cx4-library/lpc_chip_11cxx_lib/inc/gpio_11xx_2.h **** 
 322:../../lib/lpc11cx4-library/lpc_chip_11cxx_lib/inc/gpio_11xx_2.h **** /**
 323:../../lib/lpc11cx4-library/lpc_chip_11cxx_lib/inc/gpio_11xx_2.h ****  * @brief	Set an individual GPIO output pin to the high state
 324:../../lib/lpc11cx4-library/lpc_chip_11cxx_lib/inc/gpio_11xx_2.h ****  * @param	pGPIO	: The base of GPIO peripheral on the chip
 325:../../lib/lpc11cx4-library/lpc_chip_11cxx_lib/inc/gpio_11xx_2.h ****  * @param	port	: Port number
 326:../../lib/lpc11cx4-library/lpc_chip_11cxx_lib/inc/gpio_11xx_2.h ****  * @param	pin		: pin number (0..n) to set high
 327:../../lib/lpc11cx4-library/lpc_chip_11cxx_lib/inc/gpio_11xx_2.h ****  * @return	None
 328:../../lib/lpc11cx4-library/lpc_chip_11cxx_lib/inc/gpio_11xx_2.h ****  * @note	Any bit set as a '0' will not have it's state changed. This only
 329:../../lib/lpc11cx4-library/lpc_chip_11cxx_lib/inc/gpio_11xx_2.h ****  * applies to ports configured as an output.
 330:../../lib/lpc11cx4-library/lpc_chip_11cxx_lib/inc/gpio_11xx_2.h ****  */
 331:../../lib/lpc11cx4-library/lpc_chip_11cxx_lib/inc/gpio_11xx_2.h **** STATIC INLINE void Chip_GPIO_SetPinOutHigh(LPC_GPIO_T *pGPIO, uint8_t port, uint8_t pin)
 332:../../lib/lpc11cx4-library/lpc_chip_11cxx_lib/inc/gpio_11xx_2.h **** {
 333:../../lib/lpc11cx4-library/lpc_chip_11cxx_lib/inc/gpio_11xx_2.h **** 	pGPIO[port].DATA[1 << pin] = (1 << pin);
 334:../../lib/lpc11cx4-library/lpc_chip_11cxx_lib/inc/gpio_11xx_2.h **** }
 335:../../lib/lpc11cx4-library/lpc_chip_11cxx_lib/inc/gpio_11xx_2.h **** 
 336:../../lib/lpc11cx4-library/lpc_chip_11cxx_lib/inc/gpio_11xx_2.h **** /**
 337:../../lib/lpc11cx4-library/lpc_chip_11cxx_lib/inc/gpio_11xx_2.h ****  * @brief	Set a GPIO port/bit to the low state
 338:../../lib/lpc11cx4-library/lpc_chip_11cxx_lib/inc/gpio_11xx_2.h ****  * @param	pGPIO	: The base of GPIO peripheral on the chip
 339:../../lib/lpc11cx4-library/lpc_chip_11cxx_lib/inc/gpio_11xx_2.h ****  * @param	port	: Port number
 340:../../lib/lpc11cx4-library/lpc_chip_11cxx_lib/inc/gpio_11xx_2.h ****  * @param	bit		: Bit(s) in the port to set low
 341:../../lib/lpc11cx4-library/lpc_chip_11cxx_lib/inc/gpio_11xx_2.h ****  * @return	None
 342:../../lib/lpc11cx4-library/lpc_chip_11cxx_lib/inc/gpio_11xx_2.h ****  * @note	Any bit set as a '0' will not have it's state changed. This only
 343:../../lib/lpc11cx4-library/lpc_chip_11cxx_lib/inc/gpio_11xx_2.h ****  * applies to ports configured as an output.
 344:../../lib/lpc11cx4-library/lpc_chip_11cxx_lib/inc/gpio_11xx_2.h ****  */
 345:../../lib/lpc11cx4-library/lpc_chip_11cxx_lib/inc/gpio_11xx_2.h **** STATIC INLINE void Chip_GPIO_ClearValue(LPC_GPIO_T *pGPIO, uint8_t port, uint32_t bit)
 346:../../lib/lpc11cx4-library/lpc_chip_11cxx_lib/inc/gpio_11xx_2.h **** {
 347:../../lib/lpc11cx4-library/lpc_chip_11cxx_lib/inc/gpio_11xx_2.h **** 	pGPIO[port].DATA[bit] = ~bit;
 348:../../lib/lpc11cx4-library/lpc_chip_11cxx_lib/inc/gpio_11xx_2.h **** }
 349:../../lib/lpc11cx4-library/lpc_chip_11cxx_lib/inc/gpio_11xx_2.h **** 
 350:../../lib/lpc11cx4-library/lpc_chip_11cxx_lib/inc/gpio_11xx_2.h **** /**
 351:../../lib/lpc11cx4-library/lpc_chip_11cxx_lib/inc/gpio_11xx_2.h ****  * @brief	Set selected GPIO output pins to the low state
 352:../../lib/lpc11cx4-library/lpc_chip_11cxx_lib/inc/gpio_11xx_2.h ****  * @param	pGPIO	: The base of GPIO peripheral on the chip
 353:../../lib/lpc11cx4-library/lpc_chip_11cxx_lib/inc/gpio_11xx_2.h ****  * @param	port	: Port number
 354:../../lib/lpc11cx4-library/lpc_chip_11cxx_lib/inc/gpio_11xx_2.h ****  * @param	pins	: pins (0..n) to set low
 355:../../lib/lpc11cx4-library/lpc_chip_11cxx_lib/inc/gpio_11xx_2.h ****  * @return	None
 356:../../lib/lpc11cx4-library/lpc_chip_11cxx_lib/inc/gpio_11xx_2.h ****  * @note	Any bit set as a '0' will not have it's state changed. This only
 357:../../lib/lpc11cx4-library/lpc_chip_11cxx_lib/inc/gpio_11xx_2.h ****  * applies to ports configured as an output.
ARM GAS  /var/folders/z0/6xlwn_996xz3mwq1cgzkbq4r0000gp/T//ccf35CVt.s 			page 22


 358:../../lib/lpc11cx4-library/lpc_chip_11cxx_lib/inc/gpio_11xx_2.h ****  */
 359:../../lib/lpc11cx4-library/lpc_chip_11cxx_lib/inc/gpio_11xx_2.h **** STATIC INLINE void Chip_GPIO_SetPortOutLow(LPC_GPIO_T *pGPIO, uint8_t port, uint32_t pins)
 360:../../lib/lpc11cx4-library/lpc_chip_11cxx_lib/inc/gpio_11xx_2.h **** {
 361:../../lib/lpc11cx4-library/lpc_chip_11cxx_lib/inc/gpio_11xx_2.h **** 	pGPIO[port].DATA[pins] = 0;
 362:../../lib/lpc11cx4-library/lpc_chip_11cxx_lib/inc/gpio_11xx_2.h **** }
 363:../../lib/lpc11cx4-library/lpc_chip_11cxx_lib/inc/gpio_11xx_2.h **** 
 364:../../lib/lpc11cx4-library/lpc_chip_11cxx_lib/inc/gpio_11xx_2.h **** /**
 365:../../lib/lpc11cx4-library/lpc_chip_11cxx_lib/inc/gpio_11xx_2.h ****  * @brief	Set an individual GPIO output pin to the low state
 366:../../lib/lpc11cx4-library/lpc_chip_11cxx_lib/inc/gpio_11xx_2.h ****  * @param	pGPIO	: The base of GPIO peripheral on the chip
 367:../../lib/lpc11cx4-library/lpc_chip_11cxx_lib/inc/gpio_11xx_2.h ****  * @param	port	: Port number
 368:../../lib/lpc11cx4-library/lpc_chip_11cxx_lib/inc/gpio_11xx_2.h ****  * @param	pin		: pin number (0..n) to set low
 369:../../lib/lpc11cx4-library/lpc_chip_11cxx_lib/inc/gpio_11xx_2.h ****  * @return	None
 370:../../lib/lpc11cx4-library/lpc_chip_11cxx_lib/inc/gpio_11xx_2.h ****  * @note	Any bit set as a '0' will not have it's state changed. This only
 371:../../lib/lpc11cx4-library/lpc_chip_11cxx_lib/inc/gpio_11xx_2.h ****  * applies to ports configured as an output.
 372:../../lib/lpc11cx4-library/lpc_chip_11cxx_lib/inc/gpio_11xx_2.h ****  */
 373:../../lib/lpc11cx4-library/lpc_chip_11cxx_lib/inc/gpio_11xx_2.h **** STATIC INLINE void Chip_GPIO_SetPinOutLow(LPC_GPIO_T *pGPIO, uint8_t port, uint8_t pin)
 374:../../lib/lpc11cx4-library/lpc_chip_11cxx_lib/inc/gpio_11xx_2.h **** {
 375:../../lib/lpc11cx4-library/lpc_chip_11cxx_lib/inc/gpio_11xx_2.h **** 	pGPIO[port].DATA[1 << pin] = 0;
 376:../../lib/lpc11cx4-library/lpc_chip_11cxx_lib/inc/gpio_11xx_2.h **** }
 377:../../lib/lpc11cx4-library/lpc_chip_11cxx_lib/inc/gpio_11xx_2.h **** 
 378:../../lib/lpc11cx4-library/lpc_chip_11cxx_lib/inc/gpio_11xx_2.h **** /**
 379:../../lib/lpc11cx4-library/lpc_chip_11cxx_lib/inc/gpio_11xx_2.h ****  * @brief	Toggle selected GPIO output pins to the opposite state
 380:../../lib/lpc11cx4-library/lpc_chip_11cxx_lib/inc/gpio_11xx_2.h ****  * @param	pGPIO	: The base of GPIO peripheral on the chip
 381:../../lib/lpc11cx4-library/lpc_chip_11cxx_lib/inc/gpio_11xx_2.h ****  * @param	port	: Port number
 382:../../lib/lpc11cx4-library/lpc_chip_11cxx_lib/inc/gpio_11xx_2.h ****  * @param	pins	: pins (0..n) to toggle
 383:../../lib/lpc11cx4-library/lpc_chip_11cxx_lib/inc/gpio_11xx_2.h ****  * @return	None
 384:../../lib/lpc11cx4-library/lpc_chip_11cxx_lib/inc/gpio_11xx_2.h ****  * @note	Any bit set as a '0' will not have it's state changed. This only
 385:../../lib/lpc11cx4-library/lpc_chip_11cxx_lib/inc/gpio_11xx_2.h ****  * applies to ports configured as an output.
 386:../../lib/lpc11cx4-library/lpc_chip_11cxx_lib/inc/gpio_11xx_2.h ****  */
 387:../../lib/lpc11cx4-library/lpc_chip_11cxx_lib/inc/gpio_11xx_2.h **** STATIC INLINE void Chip_GPIO_SetPortToggle(LPC_GPIO_T *pGPIO, uint8_t port, uint32_t pins)
 388:../../lib/lpc11cx4-library/lpc_chip_11cxx_lib/inc/gpio_11xx_2.h **** {
 389:../../lib/lpc11cx4-library/lpc_chip_11cxx_lib/inc/gpio_11xx_2.h **** 	pGPIO[port].DATA[pins] ^= 0xFFF;
 390:../../lib/lpc11cx4-library/lpc_chip_11cxx_lib/inc/gpio_11xx_2.h **** }
 391:../../lib/lpc11cx4-library/lpc_chip_11cxx_lib/inc/gpio_11xx_2.h **** 
 392:../../lib/lpc11cx4-library/lpc_chip_11cxx_lib/inc/gpio_11xx_2.h **** /**
 393:../../lib/lpc11cx4-library/lpc_chip_11cxx_lib/inc/gpio_11xx_2.h ****  * @brief	Toggle an individual GPIO output pin to the opposite state
 394:../../lib/lpc11cx4-library/lpc_chip_11cxx_lib/inc/gpio_11xx_2.h ****  * @param	pGPIO	: The base of GPIO peripheral on the chip
 395:../../lib/lpc11cx4-library/lpc_chip_11cxx_lib/inc/gpio_11xx_2.h ****  * @param	port	: Port number
 396:../../lib/lpc11cx4-library/lpc_chip_11cxx_lib/inc/gpio_11xx_2.h ****  * @param	pin		: pin number (0..n) to toggle
 397:../../lib/lpc11cx4-library/lpc_chip_11cxx_lib/inc/gpio_11xx_2.h ****  * @return	None
 398:../../lib/lpc11cx4-library/lpc_chip_11cxx_lib/inc/gpio_11xx_2.h ****  * @note	Any bit set as a '0' will not have it's state changed. This only
 399:../../lib/lpc11cx4-library/lpc_chip_11cxx_lib/inc/gpio_11xx_2.h ****  * applies to ports configured as an output.
 400:../../lib/lpc11cx4-library/lpc_chip_11cxx_lib/inc/gpio_11xx_2.h ****  */
 401:../../lib/lpc11cx4-library/lpc_chip_11cxx_lib/inc/gpio_11xx_2.h **** STATIC INLINE void Chip_GPIO_SetPinToggle(LPC_GPIO_T *pGPIO, uint8_t port, uint8_t pin)
 402:../../lib/lpc11cx4-library/lpc_chip_11cxx_lib/inc/gpio_11xx_2.h **** {
 403:../../lib/lpc11cx4-library/lpc_chip_11cxx_lib/inc/gpio_11xx_2.h **** 	pGPIO[port].DATA[1 << pin] ^= (1 << pin);
 404:../../lib/lpc11cx4-library/lpc_chip_11cxx_lib/inc/gpio_11xx_2.h **** }
 405:../../lib/lpc11cx4-library/lpc_chip_11cxx_lib/inc/gpio_11xx_2.h **** 
 406:../../lib/lpc11cx4-library/lpc_chip_11cxx_lib/inc/gpio_11xx_2.h **** /**
 407:../../lib/lpc11cx4-library/lpc_chip_11cxx_lib/inc/gpio_11xx_2.h ****  * @brief	Read current bit states for the selected port
 408:../../lib/lpc11cx4-library/lpc_chip_11cxx_lib/inc/gpio_11xx_2.h ****  * @param	pGPIO	: The base of GPIO peripheral on the chip
 409:../../lib/lpc11cx4-library/lpc_chip_11cxx_lib/inc/gpio_11xx_2.h ****  * @param	port	: Port number to read
 410:../../lib/lpc11cx4-library/lpc_chip_11cxx_lib/inc/gpio_11xx_2.h ****  * @return	Current value of GPIO port
 411:../../lib/lpc11cx4-library/lpc_chip_11cxx_lib/inc/gpio_11xx_2.h ****  * @note	The current states of the bits for the port are read, regardless of
 412:../../lib/lpc11cx4-library/lpc_chip_11cxx_lib/inc/gpio_11xx_2.h ****  * whether the GPIO port bits are input or output.
 413:../../lib/lpc11cx4-library/lpc_chip_11cxx_lib/inc/gpio_11xx_2.h ****  */
 414:../../lib/lpc11cx4-library/lpc_chip_11cxx_lib/inc/gpio_11xx_2.h **** STATIC INLINE uint32_t Chip_GPIO_ReadValue(LPC_GPIO_T *pGPIO, uint8_t port)
ARM GAS  /var/folders/z0/6xlwn_996xz3mwq1cgzkbq4r0000gp/T//ccf35CVt.s 			page 23


 415:../../lib/lpc11cx4-library/lpc_chip_11cxx_lib/inc/gpio_11xx_2.h **** {
 416:../../lib/lpc11cx4-library/lpc_chip_11cxx_lib/inc/gpio_11xx_2.h **** 	return pGPIO[port].DATA[4095];
 417:../../lib/lpc11cx4-library/lpc_chip_11cxx_lib/inc/gpio_11xx_2.h **** }
 418:../../lib/lpc11cx4-library/lpc_chip_11cxx_lib/inc/gpio_11xx_2.h **** 
 419:../../lib/lpc11cx4-library/lpc_chip_11cxx_lib/inc/gpio_11xx_2.h **** /**
 420:../../lib/lpc11cx4-library/lpc_chip_11cxx_lib/inc/gpio_11xx_2.h ****  * @brief	Configure the pins as edge sensitive for interrupts 
 421:../../lib/lpc11cx4-library/lpc_chip_11cxx_lib/inc/gpio_11xx_2.h ****  * @param	pGPIO	: The base of GPIO peripheral on the chip
 422:../../lib/lpc11cx4-library/lpc_chip_11cxx_lib/inc/gpio_11xx_2.h ****  * @param	port	: Port number
 423:../../lib/lpc11cx4-library/lpc_chip_11cxx_lib/inc/gpio_11xx_2.h ****  * @param	pinmask	: Pins to set to edge mode (ORed value of bits 0..11)
 424:../../lib/lpc11cx4-library/lpc_chip_11cxx_lib/inc/gpio_11xx_2.h ****  * @return	Nothing
 425:../../lib/lpc11cx4-library/lpc_chip_11cxx_lib/inc/gpio_11xx_2.h ****  */
 426:../../lib/lpc11cx4-library/lpc_chip_11cxx_lib/inc/gpio_11xx_2.h **** STATIC INLINE void Chip_GPIO_SetPinModeEdge(LPC_GPIO_T *pGPIO, uint8_t port, uint32_t pinmask)
 427:../../lib/lpc11cx4-library/lpc_chip_11cxx_lib/inc/gpio_11xx_2.h **** {
 428:../../lib/lpc11cx4-library/lpc_chip_11cxx_lib/inc/gpio_11xx_2.h ****     pGPIO[port].IS &= ~pinmask;
 413              		.loc 3 428 0
 414 0004 0904     		lsls	r1, r1, #16	@ D.6402, port,
 415              	.LVL38:
 416              	.LBE47:
 417              	.LBE46:
 418              		.loc 1 115 0
 419 0006 9440     		lsls	r4, r4, r2	@ pinMask, tmp139, pin
 420              	.LVL39:
 421              	.LBB50:
 422              	.LBB48:
 423              		.loc 3 428 0
 424 0008 4018     		adds	r0, r0, r1	@ D.6401, pGPIO, D.6402
 425              	.LVL40:
 426              	.LBE48:
 427              	.LBE50:
 116:../../lib/lpc11cx4-library/lpc_chip_11cxx_lib/src/gpio_11xx_2.c **** 
 117:../../lib/lpc11cx4-library/lpc_chip_11cxx_lib/src/gpio_11xx_2.c **** 	/* Edge mode selected? */
 118:../../lib/lpc11cx4-library/lpc_chip_11cxx_lib/src/gpio_11xx_2.c **** 	if ((uint32_t) mode & 0x2) {
 428              		.loc 1 118 0
 429 000a 9A07     		lsls	r2, r3, #30	@ tmp173, mode,
 430 000c 11D5     		bpl	.L25	@,
 431              	.LVL41:
 432              	.LBB51:
 433              	.LBB49:
 434              		.loc 3 428 0
 435 000e E143     		mvns	r1, r4	@ D.6403, pinMask
 436 0010 104D     		ldr	r5, .L31	@ tmp147,
 437 0012 4259     		ldr	r2, [r0, r5]	@ D.6403, _20->IS
 438 0014 0A40     		ands	r2, r1	@ D.6403, D.6403
 439 0016 4251     		str	r2, [r0, r5]	@ D.6403, _20->IS
 440              	.LVL42:
 441              	.LBE49:
 442              	.LBE51:
 119:../../lib/lpc11cx4-library/lpc_chip_11cxx_lib/src/gpio_11xx_2.c **** 		Chip_GPIO_SetPinModeEdge(pGPIO, port, pinMask);
 120:../../lib/lpc11cx4-library/lpc_chip_11cxx_lib/src/gpio_11xx_2.c **** 
 121:../../lib/lpc11cx4-library/lpc_chip_11cxx_lib/src/gpio_11xx_2.c **** 		/* Interrupt on both edges selected? */
 122:../../lib/lpc11cx4-library/lpc_chip_11cxx_lib/src/gpio_11xx_2.c **** 		if ((uint32_t) mode & 0x4) {
 443              		.loc 1 122 0
 444 0018 5A07     		lsls	r2, r3, #29	@ tmp174, mode,
 445 001a 15D5     		bpl	.L26	@,
 446              	.LVL43:
 447              	.LBB52:
 448              	.LBB53:
ARM GAS  /var/folders/z0/6xlwn_996xz3mwq1cgzkbq4r0000gp/T//ccf35CVt.s 			page 24


 429:../../lib/lpc11cx4-library/lpc_chip_11cxx_lib/inc/gpio_11xx_2.h **** }
 430:../../lib/lpc11cx4-library/lpc_chip_11cxx_lib/inc/gpio_11xx_2.h **** 
 431:../../lib/lpc11cx4-library/lpc_chip_11cxx_lib/inc/gpio_11xx_2.h **** /**
 432:../../lib/lpc11cx4-library/lpc_chip_11cxx_lib/inc/gpio_11xx_2.h ****  * @brief	Configure the pins as level sensitive for interrupts 
 433:../../lib/lpc11cx4-library/lpc_chip_11cxx_lib/inc/gpio_11xx_2.h ****  * @param	pGPIO	: The base of GPIO peripheral on the chip
 434:../../lib/lpc11cx4-library/lpc_chip_11cxx_lib/inc/gpio_11xx_2.h ****  * @param	port	: Port number
 435:../../lib/lpc11cx4-library/lpc_chip_11cxx_lib/inc/gpio_11xx_2.h ****  * @param	pinmask	: Pins to set to level mode (ORed value of bits 0..11)
 436:../../lib/lpc11cx4-library/lpc_chip_11cxx_lib/inc/gpio_11xx_2.h ****  * @return	Nothing
 437:../../lib/lpc11cx4-library/lpc_chip_11cxx_lib/inc/gpio_11xx_2.h ****  */
 438:../../lib/lpc11cx4-library/lpc_chip_11cxx_lib/inc/gpio_11xx_2.h **** STATIC INLINE void Chip_GPIO_SetPinModeLevel(LPC_GPIO_T *pGPIO, uint8_t port, uint32_t pinmask)
 439:../../lib/lpc11cx4-library/lpc_chip_11cxx_lib/inc/gpio_11xx_2.h **** {
 440:../../lib/lpc11cx4-library/lpc_chip_11cxx_lib/inc/gpio_11xx_2.h ****     pGPIO[port].IS |= pinmask;
 441:../../lib/lpc11cx4-library/lpc_chip_11cxx_lib/inc/gpio_11xx_2.h **** }
 442:../../lib/lpc11cx4-library/lpc_chip_11cxx_lib/inc/gpio_11xx_2.h **** 
 443:../../lib/lpc11cx4-library/lpc_chip_11cxx_lib/inc/gpio_11xx_2.h **** /**
 444:../../lib/lpc11cx4-library/lpc_chip_11cxx_lib/inc/gpio_11xx_2.h ****  * @brief	Returns current GPIO edge or high level interrupt configuration for all pins for a port
 445:../../lib/lpc11cx4-library/lpc_chip_11cxx_lib/inc/gpio_11xx_2.h ****  * @param	pGPIO	: The base of GPIO peripheral on the chip
 446:../../lib/lpc11cx4-library/lpc_chip_11cxx_lib/inc/gpio_11xx_2.h ****  * @param	port	: Port number
 447:../../lib/lpc11cx4-library/lpc_chip_11cxx_lib/inc/gpio_11xx_2.h ****  * @return	A bifield containing the edge/level interrupt configuration for each
 448:../../lib/lpc11cx4-library/lpc_chip_11cxx_lib/inc/gpio_11xx_2.h ****  * pin for the selected port. Bit 0 = pin 0, 1 = pin 1.
 449:../../lib/lpc11cx4-library/lpc_chip_11cxx_lib/inc/gpio_11xx_2.h ****  * For each bit, a 0 means the edge interrupt is configured, while a 1 means a level
 450:../../lib/lpc11cx4-library/lpc_chip_11cxx_lib/inc/gpio_11xx_2.h ****  * interrupt is configured. Mask with this return value to determine the
 451:../../lib/lpc11cx4-library/lpc_chip_11cxx_lib/inc/gpio_11xx_2.h ****  * edge/level configuration for each pin in a port.
 452:../../lib/lpc11cx4-library/lpc_chip_11cxx_lib/inc/gpio_11xx_2.h ****  */
 453:../../lib/lpc11cx4-library/lpc_chip_11cxx_lib/inc/gpio_11xx_2.h **** STATIC INLINE uint32_t Chip_GPIO_IsLevelEnabled(LPC_GPIO_T *pGPIO, uint8_t port)
 454:../../lib/lpc11cx4-library/lpc_chip_11cxx_lib/inc/gpio_11xx_2.h **** {
 455:../../lib/lpc11cx4-library/lpc_chip_11cxx_lib/inc/gpio_11xx_2.h ****     return pGPIO[port].IS;
 456:../../lib/lpc11cx4-library/lpc_chip_11cxx_lib/inc/gpio_11xx_2.h **** }
 457:../../lib/lpc11cx4-library/lpc_chip_11cxx_lib/inc/gpio_11xx_2.h **** 
 458:../../lib/lpc11cx4-library/lpc_chip_11cxx_lib/inc/gpio_11xx_2.h **** /**
 459:../../lib/lpc11cx4-library/lpc_chip_11cxx_lib/inc/gpio_11xx_2.h ****  * @brief	Sets GPIO interrupt configuration for both edges for selected pins
 460:../../lib/lpc11cx4-library/lpc_chip_11cxx_lib/inc/gpio_11xx_2.h ****  * @param	pGPIO	: The base of GPIO peripheral on the chip
 461:../../lib/lpc11cx4-library/lpc_chip_11cxx_lib/inc/gpio_11xx_2.h ****  * @param	port	: Port number
 462:../../lib/lpc11cx4-library/lpc_chip_11cxx_lib/inc/gpio_11xx_2.h ****  * @param	pinmask	: Pins to set to dual edge mode (ORed value of bits 0..11)
 463:../../lib/lpc11cx4-library/lpc_chip_11cxx_lib/inc/gpio_11xx_2.h ****  * @return	Nothing
 464:../../lib/lpc11cx4-library/lpc_chip_11cxx_lib/inc/gpio_11xx_2.h ****  */
 465:../../lib/lpc11cx4-library/lpc_chip_11cxx_lib/inc/gpio_11xx_2.h **** STATIC INLINE void Chip_GPIO_SetEdgeModeBoth(LPC_GPIO_T *pGPIO, uint8_t port, uint32_t pinmask)
 466:../../lib/lpc11cx4-library/lpc_chip_11cxx_lib/inc/gpio_11xx_2.h **** {
 467:../../lib/lpc11cx4-library/lpc_chip_11cxx_lib/inc/gpio_11xx_2.h ****     pGPIO[port].IBE |= pinmask;
 449              		.loc 3 467 0
 450 001c 0E49     		ldr	r1, .L31+4	@ tmp155,
 451 001e 4258     		ldr	r2, [r0, r1]	@ D.6403,
 452 0020 2243     		orrs	r2, r4	@ D.6403, pinMask
 453 0022 4250     		str	r2, [r0, r1]	@ D.6403,
 454              	.LBE53:
 455              	.LBE52:
 456              	.LBB54:
 457              	.LBB55:
 468:../../lib/lpc11cx4-library/lpc_chip_11cxx_lib/inc/gpio_11xx_2.h **** }
 469:../../lib/lpc11cx4-library/lpc_chip_11cxx_lib/inc/gpio_11xx_2.h **** 
 470:../../lib/lpc11cx4-library/lpc_chip_11cxx_lib/inc/gpio_11xx_2.h **** /**
 471:../../lib/lpc11cx4-library/lpc_chip_11cxx_lib/inc/gpio_11xx_2.h ****  * @brief	Sets GPIO interrupt configuration for a single edge for selected pins
 472:../../lib/lpc11cx4-library/lpc_chip_11cxx_lib/inc/gpio_11xx_2.h ****  * @param	pGPIO	: The base of GPIO peripheral on the chip
 473:../../lib/lpc11cx4-library/lpc_chip_11cxx_lib/inc/gpio_11xx_2.h ****  * @param	port	: Port number
 474:../../lib/lpc11cx4-library/lpc_chip_11cxx_lib/inc/gpio_11xx_2.h ****  * @param	pinmask	: Pins to set to single edge mode (ORed value of bits 0..11)
 475:../../lib/lpc11cx4-library/lpc_chip_11cxx_lib/inc/gpio_11xx_2.h ****  * @return	Nothing
 476:../../lib/lpc11cx4-library/lpc_chip_11cxx_lib/inc/gpio_11xx_2.h ****  */
ARM GAS  /var/folders/z0/6xlwn_996xz3mwq1cgzkbq4r0000gp/T//ccf35CVt.s 			page 25


 477:../../lib/lpc11cx4-library/lpc_chip_11cxx_lib/inc/gpio_11xx_2.h **** STATIC INLINE void Chip_GPIO_SetEdgeModeSingle(LPC_GPIO_T *pGPIO, uint8_t port, uint32_t pinmask)
 478:../../lib/lpc11cx4-library/lpc_chip_11cxx_lib/inc/gpio_11xx_2.h **** {
 479:../../lib/lpc11cx4-library/lpc_chip_11cxx_lib/inc/gpio_11xx_2.h ****     pGPIO[port].IBE &= ~pinmask;
 480:../../lib/lpc11cx4-library/lpc_chip_11cxx_lib/inc/gpio_11xx_2.h **** }
 481:../../lib/lpc11cx4-library/lpc_chip_11cxx_lib/inc/gpio_11xx_2.h **** 
 482:../../lib/lpc11cx4-library/lpc_chip_11cxx_lib/inc/gpio_11xx_2.h **** /**
 483:../../lib/lpc11cx4-library/lpc_chip_11cxx_lib/inc/gpio_11xx_2.h ****  * @brief	Returns current GPIO interrupt dual or single edge configuration for all pins for a port
 484:../../lib/lpc11cx4-library/lpc_chip_11cxx_lib/inc/gpio_11xx_2.h ****  * @param	pGPIO	: The base of GPIO peripheral on the chip
 485:../../lib/lpc11cx4-library/lpc_chip_11cxx_lib/inc/gpio_11xx_2.h ****  * @param	port	: Port number
 486:../../lib/lpc11cx4-library/lpc_chip_11cxx_lib/inc/gpio_11xx_2.h ****  * @return	A bifield containing the single/dual interrupt configuration for each
 487:../../lib/lpc11cx4-library/lpc_chip_11cxx_lib/inc/gpio_11xx_2.h ****  * pin for the selected port. Bit 0 = pin 0, 1 = pin 1.
 488:../../lib/lpc11cx4-library/lpc_chip_11cxx_lib/inc/gpio_11xx_2.h ****  * For each bit, a 0 means the interrupt triggers on a single edge (use the
 489:../../lib/lpc11cx4-library/lpc_chip_11cxx_lib/inc/gpio_11xx_2.h ****  * Chip_GPIO_SetEdgeModeHigh() and Chip_GPIO_SetEdgeModeLow() functions to configure
 490:../../lib/lpc11cx4-library/lpc_chip_11cxx_lib/inc/gpio_11xx_2.h ****  * selected edge), while a 1 means the interrupt triggers on both edges. Mask
 491:../../lib/lpc11cx4-library/lpc_chip_11cxx_lib/inc/gpio_11xx_2.h ****  * with this return value to determine the edge/level configuration for each pin in
 492:../../lib/lpc11cx4-library/lpc_chip_11cxx_lib/inc/gpio_11xx_2.h ****  * a port.
 493:../../lib/lpc11cx4-library/lpc_chip_11cxx_lib/inc/gpio_11xx_2.h ****  */
 494:../../lib/lpc11cx4-library/lpc_chip_11cxx_lib/inc/gpio_11xx_2.h **** STATIC INLINE uint32_t Chip_GPIO_GetEdgeModeDir(LPC_GPIO_T *pGPIO, uint8_t port)
 495:../../lib/lpc11cx4-library/lpc_chip_11cxx_lib/inc/gpio_11xx_2.h **** {
 496:../../lib/lpc11cx4-library/lpc_chip_11cxx_lib/inc/gpio_11xx_2.h ****     return pGPIO[port].IBE;
 497:../../lib/lpc11cx4-library/lpc_chip_11cxx_lib/inc/gpio_11xx_2.h **** }
 498:../../lib/lpc11cx4-library/lpc_chip_11cxx_lib/inc/gpio_11xx_2.h **** 
 499:../../lib/lpc11cx4-library/lpc_chip_11cxx_lib/inc/gpio_11xx_2.h **** /**
 500:../../lib/lpc11cx4-library/lpc_chip_11cxx_lib/inc/gpio_11xx_2.h ****  * @brief	Sets GPIO interrupt configuration when in single edge or level mode to high edge trigger 
 501:../../lib/lpc11cx4-library/lpc_chip_11cxx_lib/inc/gpio_11xx_2.h ****  * @param	pGPIO	: The base of GPIO peripheral on the chip
 502:../../lib/lpc11cx4-library/lpc_chip_11cxx_lib/inc/gpio_11xx_2.h ****  * @param	port	: Port number
 503:../../lib/lpc11cx4-library/lpc_chip_11cxx_lib/inc/gpio_11xx_2.h ****  * @param	pinmask	: Pins to set to high mode (ORed value of bits 0..11)
 504:../../lib/lpc11cx4-library/lpc_chip_11cxx_lib/inc/gpio_11xx_2.h ****  * @return	Nothing
 505:../../lib/lpc11cx4-library/lpc_chip_11cxx_lib/inc/gpio_11xx_2.h ****  * @note	Use this function to select high level or high edge interrupt mode
 506:../../lib/lpc11cx4-library/lpc_chip_11cxx_lib/inc/gpio_11xx_2.h ****  * for the selected pins on the selected port when not in dual edge mode.
 507:../../lib/lpc11cx4-library/lpc_chip_11cxx_lib/inc/gpio_11xx_2.h ****  */
 508:../../lib/lpc11cx4-library/lpc_chip_11cxx_lib/inc/gpio_11xx_2.h **** STATIC INLINE void Chip_GPIO_SetModeHigh(LPC_GPIO_T *pGPIO, uint8_t port, uint32_t pinmask)
 509:../../lib/lpc11cx4-library/lpc_chip_11cxx_lib/inc/gpio_11xx_2.h **** {
 510:../../lib/lpc11cx4-library/lpc_chip_11cxx_lib/inc/gpio_11xx_2.h ****     pGPIO[port].IEV |= pinmask;
 458              		.loc 3 510 0
 459 0024 0D4A     		ldr	r2, .L31+8	@ tmp168,
 460              	.LBE55:
 461              	.LBE54:
 123:../../lib/lpc11cx4-library/lpc_chip_11cxx_lib/src/gpio_11xx_2.c **** 			Chip_GPIO_SetEdgeModeBoth(pGPIO, port, pinMask);
 124:../../lib/lpc11cx4-library/lpc_chip_11cxx_lib/src/gpio_11xx_2.c **** 		}
 125:../../lib/lpc11cx4-library/lpc_chip_11cxx_lib/src/gpio_11xx_2.c **** 		else {
 126:../../lib/lpc11cx4-library/lpc_chip_11cxx_lib/src/gpio_11xx_2.c **** 			Chip_GPIO_SetEdgeModeSingle(pGPIO, port, pinMask);
 127:../../lib/lpc11cx4-library/lpc_chip_11cxx_lib/src/gpio_11xx_2.c **** 		}
 128:../../lib/lpc11cx4-library/lpc_chip_11cxx_lib/src/gpio_11xx_2.c **** 	}
 129:../../lib/lpc11cx4-library/lpc_chip_11cxx_lib/src/gpio_11xx_2.c **** 	else {
 130:../../lib/lpc11cx4-library/lpc_chip_11cxx_lib/src/gpio_11xx_2.c **** 		/* Level mode */
 131:../../lib/lpc11cx4-library/lpc_chip_11cxx_lib/src/gpio_11xx_2.c **** 		Chip_GPIO_SetPinModeLevel(pGPIO, port, pinMask);
 132:../../lib/lpc11cx4-library/lpc_chip_11cxx_lib/src/gpio_11xx_2.c **** 	}
 133:../../lib/lpc11cx4-library/lpc_chip_11cxx_lib/src/gpio_11xx_2.c **** 
 134:../../lib/lpc11cx4-library/lpc_chip_11cxx_lib/src/gpio_11xx_2.c **** 	/* Level selections will not alter 'dual edge' mode */
 135:../../lib/lpc11cx4-library/lpc_chip_11cxx_lib/src/gpio_11xx_2.c **** 	if ((uint32_t) mode & 0x1) {
 462              		.loc 1 135 0
 463 0026 DB07     		lsls	r3, r3, #31	@ tmp175, mode,
 464 0028 0AD5     		bpl	.L28	@,
 465              	.LVL44:
 466              	.L30:
 467              	.LBB58:
ARM GAS  /var/folders/z0/6xlwn_996xz3mwq1cgzkbq4r0000gp/T//ccf35CVt.s 			page 26


 468              	.LBB56:
 469              		.loc 3 510 0
 470 002a 8358     		ldr	r3, [r0, r2]	@ D.6403,
 471 002c 1C43     		orrs	r4, r3	@ D.6403, D.6403
 472              	.LVL45:
 473 002e 8450     		str	r4, [r0, r2]	@ D.6403, _12->IEV
 474 0030 09E0     		b	.L24	@
 475              	.LVL46:
 476              	.L25:
 477              	.LBE56:
 478              	.LBE58:
 479              	.LBB59:
 480              	.LBB60:
 440:../../lib/lpc11cx4-library/lpc_chip_11cxx_lib/inc/gpio_11xx_2.h **** }
 481              		.loc 3 440 0
 482 0032 0849     		ldr	r1, .L31	@ tmp160,
 483 0034 4258     		ldr	r2, [r0, r1]	@ D.6403,
 484 0036 2243     		orrs	r2, r4	@ D.6403, pinMask
 485 0038 4250     		str	r2, [r0, r1]	@ D.6403,
 486              	.LVL47:
 487              	.L27:
 488              	.LBE60:
 489              	.LBE59:
 490              	.LBB61:
 491              	.LBB57:
 492              		.loc 3 510 0
 493 003a 084A     		ldr	r2, .L31+8	@ tmp168,
 494              	.LBE57:
 495              	.LBE61:
 496              		.loc 1 135 0
 497 003c DB07     		lsls	r3, r3, #31	@ tmp175, mode,
 498 003e F4D4     		bmi	.L30	@,
 499              	.LVL48:
 500              	.L28:
 501              	.LBB62:
 502              	.LBB63:
 511:../../lib/lpc11cx4-library/lpc_chip_11cxx_lib/inc/gpio_11xx_2.h **** }
 512:../../lib/lpc11cx4-library/lpc_chip_11cxx_lib/inc/gpio_11xx_2.h **** 
 513:../../lib/lpc11cx4-library/lpc_chip_11cxx_lib/inc/gpio_11xx_2.h **** /**
 514:../../lib/lpc11cx4-library/lpc_chip_11cxx_lib/inc/gpio_11xx_2.h ****  * @brief	Sets GPIO interrupt configuration when in single edge or level mode to low edge trigger o
 515:../../lib/lpc11cx4-library/lpc_chip_11cxx_lib/inc/gpio_11xx_2.h ****  * @param	pGPIO	: The base of GPIO peripheral on the chip
 516:../../lib/lpc11cx4-library/lpc_chip_11cxx_lib/inc/gpio_11xx_2.h ****  * @param	port	: Port number
 517:../../lib/lpc11cx4-library/lpc_chip_11cxx_lib/inc/gpio_11xx_2.h ****  * @param	pinmask	: Pins to set to low mode (ORed value of bits 0..11)
 518:../../lib/lpc11cx4-library/lpc_chip_11cxx_lib/inc/gpio_11xx_2.h ****  * @return	Nothing
 519:../../lib/lpc11cx4-library/lpc_chip_11cxx_lib/inc/gpio_11xx_2.h ****  * @note	Use this function to select low level or low edge interrupt mode
 520:../../lib/lpc11cx4-library/lpc_chip_11cxx_lib/inc/gpio_11xx_2.h ****  * for the selected pins on the selected port when not in dual edge mode.
 521:../../lib/lpc11cx4-library/lpc_chip_11cxx_lib/inc/gpio_11xx_2.h ****  */
 522:../../lib/lpc11cx4-library/lpc_chip_11cxx_lib/inc/gpio_11xx_2.h **** STATIC INLINE void Chip_GPIO_SetModeLow(LPC_GPIO_T *pGPIO, uint8_t port, uint32_t pinmask)
 523:../../lib/lpc11cx4-library/lpc_chip_11cxx_lib/inc/gpio_11xx_2.h **** {
 524:../../lib/lpc11cx4-library/lpc_chip_11cxx_lib/inc/gpio_11xx_2.h ****     pGPIO[port].IEV &= ~pinmask;
 503              		.loc 3 524 0
 504 0040 8358     		ldr	r3, [r0, r2]	@ D.6403,
 505 0042 A343     		bics	r3, r4	@ D.6403, pinMask
 506 0044 8350     		str	r3, [r0, r2]	@ D.6403, _12->IEV
 507              	.LVL49:
 508              	.L24:
 509              	.LBE63:
ARM GAS  /var/folders/z0/6xlwn_996xz3mwq1cgzkbq4r0000gp/T//ccf35CVt.s 			page 27


 510              	.LBE62:
 136:../../lib/lpc11cx4-library/lpc_chip_11cxx_lib/src/gpio_11xx_2.c **** 		/* High edge or level mode selected */
 137:../../lib/lpc11cx4-library/lpc_chip_11cxx_lib/src/gpio_11xx_2.c **** 		Chip_GPIO_SetModeHigh(pGPIO, port, pinMask);
 138:../../lib/lpc11cx4-library/lpc_chip_11cxx_lib/src/gpio_11xx_2.c **** 	}
 139:../../lib/lpc11cx4-library/lpc_chip_11cxx_lib/src/gpio_11xx_2.c **** 	else {
 140:../../lib/lpc11cx4-library/lpc_chip_11cxx_lib/src/gpio_11xx_2.c **** 		Chip_GPIO_SetModeLow(pGPIO, port, pinMask);
 141:../../lib/lpc11cx4-library/lpc_chip_11cxx_lib/src/gpio_11xx_2.c **** 	}
 142:../../lib/lpc11cx4-library/lpc_chip_11cxx_lib/src/gpio_11xx_2.c **** }
 511              		.loc 1 142 0
 512              		@ sp needed	@
 513 0046 30BD     		pop	{r4, r5, pc}
 514              	.LVL50:
 515              	.L26:
 516              	.LBB64:
 517              	.LBB65:
 479:../../lib/lpc11cx4-library/lpc_chip_11cxx_lib/inc/gpio_11xx_2.h **** }
 518              		.loc 3 479 0
 519 0048 034A     		ldr	r2, .L31+4	@ tmp157,
 520 004a 8558     		ldr	r5, [r0, r2]	@ D.6403, _20->IBE
 521 004c 2940     		ands	r1, r5	@ D.6403, D.6403
 522 004e 8150     		str	r1, [r0, r2]	@ D.6403, _20->IBE
 523 0050 F3E7     		b	.L27	@
 524              	.L32:
 525 0052 C046     		.align	2
 526              	.L31:
 527 0054 04800000 		.word	32772
 528 0058 08800000 		.word	32776
 529 005c 0C800000 		.word	32780
 530              	.LBE65:
 531              	.LBE64:
 532              		.cfi_endproc
 533              	.LFE204:
 534              		.size	Chip_GPIO_SetupPinInt, .-Chip_GPIO_SetupPinInt
 535              		.text
 536              	.Letext0:
 537              		.file 4 "/usr/local/Cellar/gcc-arm-none-eabi/20160928/arm-none-eabi/include/machine/_default_types
 538              		.file 5 "/usr/local/Cellar/gcc-arm-none-eabi/20160928/arm-none-eabi/include/sys/_stdint.h"
 539              		.file 6 "../../lib/lpc11cx4-library/lpc_chip_11cxx_lib/inc/sysctl_11xx.h"
 540              		.file 7 "../../lib/lpc11cx4-library/lpc_chip_11cxx_lib/inc/chip.h"