ARM GAS  /var/folders/z0/6xlwn_996xz3mwq1cgzkbq4r0000gp/T//cc0Pdjko.s 			page 1


   1              		.syntax unified
   2              		.cpu cortex-m0
   3              		.fpu softvfp
   4              		.eabi_attribute 20, 1	@ Tag_ABI_FP_denormal
   5              		.eabi_attribute 21, 1	@ Tag_ABI_FP_exceptions
   6              		.eabi_attribute 23, 3	@ Tag_ABI_FP_number_model
   7              		.eabi_attribute 24, 1	@ Tag_ABI_align8_needed
   8              		.eabi_attribute 25, 1	@ Tag_ABI_align8_preserved
   9              		.eabi_attribute 26, 1	@ Tag_ABI_enum_size
  10              		.eabi_attribute 30, 2	@ Tag_ABI_optimization_goals
  11              		.eabi_attribute 34, 0	@ Tag_CPU_unaligned_access
  12              		.eabi_attribute 18, 4	@ Tag_ABI_PCS_wchar_t
  13              		.file	"i2c_11xx.c"
  14              	@ GNU C89 (GNU Tools for ARM Embedded Processors) version 5.4.1 20160919 (release) [ARM/embedded-5-
  15              	@	compiled by GNU C version 4.2.1 (Based on Apple Inc. build 5658) (LLVM build 2336.9.00), GMP vers
  16              	@ GGC heuristics: --param ggc-min-expand=100 --param ggc-min-heapsize=131072
  17              	@ options passed:  -I . -I inc/
  18              	@ -I ../../lib/lpc11cx4-library/lpc_chip_11cxx_lib/inc
  19              	@ -I ../../lib/lpc11cx4-library/evt_lib/inc/ -I ../../lib/CANlib
  20              	@ -imultilib armv6-m
  21              	@ -iprefix /usr/local/Cellar/gcc-arm-none-eabi/20160928/bin/../lib/gcc/arm-none-eabi/5.4.1/
  22              	@ -isysroot /usr/local/Cellar/gcc-arm-none-eabi/20160928/bin/../arm-none-eabi
  23              	@ -MD bin/i2c_11xx.d -MF bin/i2c_11xx.d -MP -MQ bin/i2c_11xx.o
  24              	@ -D__USES_INITFINI__ -D UART_BAUD=57600 -D CORE_M0 -D DEBUG_ENABLE
  25              	@ -D FSAE_DRIVERS -D CAN_ARCHITECTURE_ARM
  26              	@ ../../lib/lpc11cx4-library/lpc_chip_11cxx_lib/src/i2c_11xx.c
  27              	@ -mcpu=cortex-m0 -mthumb -auxbase-strip bin/i2c_11xx.o -g -ggdb3 -O2 -Wall
  28              	@ -Wstrict-prototypes -Wextra -std=gnu90 -ffunction-sections
  29              	@ -fdata-sections -fdiagnostics-color=always -fverbose-asm
  30              	@ options enabled:  -faggressive-loop-optimizations -falign-functions
  31              	@ -falign-jumps -falign-labels -falign-loops -fauto-inc-dec
  32              	@ -fbranch-count-reg -fcaller-saves -fchkp-check-incomplete-type
  33              	@ -fchkp-check-read -fchkp-check-write -fchkp-instrument-calls
  34              	@ -fchkp-narrow-bounds -fchkp-optimize -fchkp-store-bounds
  35              	@ -fchkp-use-static-bounds -fchkp-use-static-const-bounds
  36              	@ -fchkp-use-wrappers -fcombine-stack-adjustments -fcommon -fcompare-elim
  37              	@ -fcprop-registers -fcrossjumping -fcse-follow-jumps -fdata-sections
  38              	@ -fdefer-pop -fdelete-null-pointer-checks -fdevirtualize
  39              	@ -fdevirtualize-speculatively -fdwarf2-cfi-asm -fearly-inlining
  40              	@ -feliminate-unused-debug-types -fexpensive-optimizations
  41              	@ -fforward-propagate -ffunction-cse -ffunction-sections -fgcse -fgcse-lm
  42              	@ -fgnu-runtime -fgnu-unique -fguess-branch-probability
  43              	@ -fhoist-adjacent-loads -fident -fif-conversion -fif-conversion2
  44              	@ -findirect-inlining -finline -finline-atomics
  45              	@ -finline-functions-called-once -finline-small-functions -fipa-cp
  46              	@ -fipa-cp-alignment -fipa-icf -fipa-icf-functions -fipa-icf-variables
  47              	@ -fipa-profile -fipa-pure-const -fipa-reference -fipa-sra
  48              	@ -fira-hoist-pressure -fira-share-save-slots -fira-share-spill-slots
  49              	@ -fisolate-erroneous-paths-dereference -fivopts -fkeep-static-consts
  50              	@ -fleading-underscore -flifetime-dse -flra-remat -flto-odr-type-merging
  51              	@ -fmath-errno -fmerge-constants -fmerge-debug-strings
  52              	@ -fmove-loop-invariants -fomit-frame-pointer -foptimize-sibling-calls
  53              	@ -foptimize-strlen -fpartial-inlining -fpeephole -fpeephole2
  54              	@ -fprefetch-loop-arrays -freg-struct-return -freorder-blocks
  55              	@ -freorder-functions -frerun-cse-after-loop
  56              	@ -fsched-critical-path-heuristic -fsched-dep-count-heuristic
  57              	@ -fsched-group-heuristic -fsched-interblock -fsched-last-insn-heuristic
ARM GAS  /var/folders/z0/6xlwn_996xz3mwq1cgzkbq4r0000gp/T//cc0Pdjko.s 			page 2


  58              	@ -fsched-pressure -fsched-rank-heuristic -fsched-spec
  59              	@ -fsched-spec-insn-heuristic -fsched-stalled-insns-dep -fschedule-insns2
  60              	@ -fsection-anchors -fsemantic-interposition -fshow-column -fshrink-wrap
  61              	@ -fsigned-zeros -fsplit-ivs-in-unroller -fsplit-wide-types -fssa-phiopt
  62              	@ -fstdarg-opt -fstrict-aliasing -fstrict-overflow
  63              	@ -fstrict-volatile-bitfields -fsync-libcalls -fthread-jumps
  64              	@ -ftoplevel-reorder -ftrapping-math -ftree-bit-ccp -ftree-builtin-call-dce
  65              	@ -ftree-ccp -ftree-ch -ftree-coalesce-vars -ftree-copy-prop
  66              	@ -ftree-copyrename -ftree-cselim -ftree-dce -ftree-dominator-opts
  67              	@ -ftree-dse -ftree-forwprop -ftree-fre -ftree-loop-if-convert
  68              	@ -ftree-loop-im -ftree-loop-ivcanon -ftree-loop-optimize
  69              	@ -ftree-parallelize-loops= -ftree-phiprop -ftree-pre -ftree-pta
  70              	@ -ftree-reassoc -ftree-scev-cprop -ftree-sink -ftree-slsr -ftree-sra
  71              	@ -ftree-switch-conversion -ftree-tail-merge -ftree-ter -ftree-vrp
  72              	@ -funit-at-a-time -fvar-tracking -fvar-tracking-assignments -fverbose-asm
  73              	@ -fzero-initialized-in-bss -mlittle-endian -mpic-data-is-text-relative
  74              	@ -msched-prolog -mthumb -mvectorize-with-neon-quad
  75              	
  76              		.text
  77              	.Ltext0:
  78              		.cfi_sections	.debug_frame
  79              		.section	.text.Chip_I2C_EventHandler,"ax",%progbits
  80              		.align	2
  81              		.global	Chip_I2C_EventHandler
  82              		.code	16
  83              		.thumb_func
  84              		.type	Chip_I2C_EventHandler, %function
  85              	Chip_I2C_EventHandler:
  86              	.LFB212:
  87              		.file 1 "../../lib/lpc11cx4-library/lpc_chip_11cxx_lib/src/i2c_11xx.c"
   1:../../lib/lpc11cx4-library/lpc_chip_11cxx_lib/src/i2c_11xx.c **** /*
   2:../../lib/lpc11cx4-library/lpc_chip_11cxx_lib/src/i2c_11xx.c ****  * @brief LPC11xx I2C driver
   3:../../lib/lpc11cx4-library/lpc_chip_11cxx_lib/src/i2c_11xx.c ****  *
   4:../../lib/lpc11cx4-library/lpc_chip_11cxx_lib/src/i2c_11xx.c ****  * @note
   5:../../lib/lpc11cx4-library/lpc_chip_11cxx_lib/src/i2c_11xx.c ****  * Copyright(C) NXP Semiconductors, 2012
   6:../../lib/lpc11cx4-library/lpc_chip_11cxx_lib/src/i2c_11xx.c ****  * All rights reserved.
   7:../../lib/lpc11cx4-library/lpc_chip_11cxx_lib/src/i2c_11xx.c ****  *
   8:../../lib/lpc11cx4-library/lpc_chip_11cxx_lib/src/i2c_11xx.c ****  * @par
   9:../../lib/lpc11cx4-library/lpc_chip_11cxx_lib/src/i2c_11xx.c ****  * Software that is described herein is for illustrative purposes only
  10:../../lib/lpc11cx4-library/lpc_chip_11cxx_lib/src/i2c_11xx.c ****  * which provides customers with programming information regarding the
  11:../../lib/lpc11cx4-library/lpc_chip_11cxx_lib/src/i2c_11xx.c ****  * LPC products.  This software is supplied "AS IS" without any warranties of
  12:../../lib/lpc11cx4-library/lpc_chip_11cxx_lib/src/i2c_11xx.c ****  * any kind, and NXP Semiconductors and its licensor disclaim any and
  13:../../lib/lpc11cx4-library/lpc_chip_11cxx_lib/src/i2c_11xx.c ****  * all warranties, express or implied, including all implied warranties of
  14:../../lib/lpc11cx4-library/lpc_chip_11cxx_lib/src/i2c_11xx.c ****  * merchantability, fitness for a particular purpose and non-infringement of
  15:../../lib/lpc11cx4-library/lpc_chip_11cxx_lib/src/i2c_11xx.c ****  * intellectual property rights.  NXP Semiconductors assumes no responsibility
  16:../../lib/lpc11cx4-library/lpc_chip_11cxx_lib/src/i2c_11xx.c ****  * or liability for the use of the software, conveys no license or rights under any
  17:../../lib/lpc11cx4-library/lpc_chip_11cxx_lib/src/i2c_11xx.c ****  * patent, copyright, mask work right, or any other intellectual property rights in
  18:../../lib/lpc11cx4-library/lpc_chip_11cxx_lib/src/i2c_11xx.c ****  * or to any products. NXP Semiconductors reserves the right to make changes
  19:../../lib/lpc11cx4-library/lpc_chip_11cxx_lib/src/i2c_11xx.c ****  * in the software without notification. NXP Semiconductors also makes no
  20:../../lib/lpc11cx4-library/lpc_chip_11cxx_lib/src/i2c_11xx.c ****  * representation or warranty that such application will be suitable for the
  21:../../lib/lpc11cx4-library/lpc_chip_11cxx_lib/src/i2c_11xx.c ****  * specified use without further testing or modification.
  22:../../lib/lpc11cx4-library/lpc_chip_11cxx_lib/src/i2c_11xx.c ****  *
  23:../../lib/lpc11cx4-library/lpc_chip_11cxx_lib/src/i2c_11xx.c ****  * @par
  24:../../lib/lpc11cx4-library/lpc_chip_11cxx_lib/src/i2c_11xx.c ****  * Permission to use, copy, modify, and distribute this software and its
  25:../../lib/lpc11cx4-library/lpc_chip_11cxx_lib/src/i2c_11xx.c ****  * documentation is hereby granted, under NXP Semiconductors' and its
  26:../../lib/lpc11cx4-library/lpc_chip_11cxx_lib/src/i2c_11xx.c ****  * licensor's relevant copyrights in the software, without fee, provided that it
  27:../../lib/lpc11cx4-library/lpc_chip_11cxx_lib/src/i2c_11xx.c ****  * is used in conjunction with NXP Semiconductors microcontrollers.  This
ARM GAS  /var/folders/z0/6xlwn_996xz3mwq1cgzkbq4r0000gp/T//cc0Pdjko.s 			page 3


  28:../../lib/lpc11cx4-library/lpc_chip_11cxx_lib/src/i2c_11xx.c ****  * copyright, permission, and disclaimer notice must appear in all copies of
  29:../../lib/lpc11cx4-library/lpc_chip_11cxx_lib/src/i2c_11xx.c ****  * this code.
  30:../../lib/lpc11cx4-library/lpc_chip_11cxx_lib/src/i2c_11xx.c ****  */
  31:../../lib/lpc11cx4-library/lpc_chip_11cxx_lib/src/i2c_11xx.c **** 
  32:../../lib/lpc11cx4-library/lpc_chip_11cxx_lib/src/i2c_11xx.c **** #include "chip.h"
  33:../../lib/lpc11cx4-library/lpc_chip_11cxx_lib/src/i2c_11xx.c **** 
  34:../../lib/lpc11cx4-library/lpc_chip_11cxx_lib/src/i2c_11xx.c **** #if !defined(CHIP_LPC110X)
  35:../../lib/lpc11cx4-library/lpc_chip_11cxx_lib/src/i2c_11xx.c **** 
  36:../../lib/lpc11cx4-library/lpc_chip_11cxx_lib/src/i2c_11xx.c **** /*****************************************************************************
  37:../../lib/lpc11cx4-library/lpc_chip_11cxx_lib/src/i2c_11xx.c ****  * Private types/enumerations/variables
  38:../../lib/lpc11cx4-library/lpc_chip_11cxx_lib/src/i2c_11xx.c ****  ****************************************************************************/
  39:../../lib/lpc11cx4-library/lpc_chip_11cxx_lib/src/i2c_11xx.c **** 
  40:../../lib/lpc11cx4-library/lpc_chip_11cxx_lib/src/i2c_11xx.c **** /* Control flags */
  41:../../lib/lpc11cx4-library/lpc_chip_11cxx_lib/src/i2c_11xx.c **** #define I2C_CON_FLAGS (I2C_CON_AA | I2C_CON_SI | I2C_CON_STO | I2C_CON_STA)
  42:../../lib/lpc11cx4-library/lpc_chip_11cxx_lib/src/i2c_11xx.c **** #define LPC_I2Cx(id)      ((i2c.ip))
  43:../../lib/lpc11cx4-library/lpc_chip_11cxx_lib/src/i2c_11xx.c **** #define SLAVE_ACTIVE(iic) (((iic)->flags & 0xFF00) != 0)
  44:../../lib/lpc11cx4-library/lpc_chip_11cxx_lib/src/i2c_11xx.c **** 
  45:../../lib/lpc11cx4-library/lpc_chip_11cxx_lib/src/i2c_11xx.c **** /* I2C common interface structure */
  46:../../lib/lpc11cx4-library/lpc_chip_11cxx_lib/src/i2c_11xx.c **** struct i2c_interface {
  47:../../lib/lpc11cx4-library/lpc_chip_11cxx_lib/src/i2c_11xx.c **** 	LPC_I2C_T *ip;		/* IP base address of the I2C device */
  48:../../lib/lpc11cx4-library/lpc_chip_11cxx_lib/src/i2c_11xx.c **** 	CHIP_SYSCTL_CLOCK_T clk;	/* Clock used by I2C */
  49:../../lib/lpc11cx4-library/lpc_chip_11cxx_lib/src/i2c_11xx.c **** 	I2C_EVENTHANDLER_T mEvent;	/* Current active Master event handler */
  50:../../lib/lpc11cx4-library/lpc_chip_11cxx_lib/src/i2c_11xx.c **** 	I2C_EVENTHANDLER_T sEvent;	/* Slave transfer events */
  51:../../lib/lpc11cx4-library/lpc_chip_11cxx_lib/src/i2c_11xx.c **** 	I2C_XFER_T *mXfer;	/* Current active xfer pointer */
  52:../../lib/lpc11cx4-library/lpc_chip_11cxx_lib/src/i2c_11xx.c **** 	I2C_XFER_T *sXfer;	/* Pointer to store xfer when bus is busy */
  53:../../lib/lpc11cx4-library/lpc_chip_11cxx_lib/src/i2c_11xx.c **** 	uint32_t flags;		/* Flags used by I2C master and slave */
  54:../../lib/lpc11cx4-library/lpc_chip_11cxx_lib/src/i2c_11xx.c **** };
  55:../../lib/lpc11cx4-library/lpc_chip_11cxx_lib/src/i2c_11xx.c **** 
  56:../../lib/lpc11cx4-library/lpc_chip_11cxx_lib/src/i2c_11xx.c **** /* Slave interface structure */
  57:../../lib/lpc11cx4-library/lpc_chip_11cxx_lib/src/i2c_11xx.c **** struct i2c_slave_interface {
  58:../../lib/lpc11cx4-library/lpc_chip_11cxx_lib/src/i2c_11xx.c **** 	I2C_XFER_T *xfer;
  59:../../lib/lpc11cx4-library/lpc_chip_11cxx_lib/src/i2c_11xx.c **** 	I2C_EVENTHANDLER_T event;
  60:../../lib/lpc11cx4-library/lpc_chip_11cxx_lib/src/i2c_11xx.c **** };
  61:../../lib/lpc11cx4-library/lpc_chip_11cxx_lib/src/i2c_11xx.c **** 
  62:../../lib/lpc11cx4-library/lpc_chip_11cxx_lib/src/i2c_11xx.c **** /* I2C interfaces */
  63:../../lib/lpc11cx4-library/lpc_chip_11cxx_lib/src/i2c_11xx.c **** static struct i2c_interface i2c = 
  64:../../lib/lpc11cx4-library/lpc_chip_11cxx_lib/src/i2c_11xx.c **** 	{LPC_I2C, SYSCTL_CLOCK_I2C, Chip_I2C_EventHandler, NULL, NULL, NULL, 0};
  65:../../lib/lpc11cx4-library/lpc_chip_11cxx_lib/src/i2c_11xx.c **** 
  66:../../lib/lpc11cx4-library/lpc_chip_11cxx_lib/src/i2c_11xx.c **** static struct i2c_slave_interface i2c_slave[I2C_NUM_INTERFACE][I2C_SLAVE_NUM_INTERFACE];
  67:../../lib/lpc11cx4-library/lpc_chip_11cxx_lib/src/i2c_11xx.c **** 
  68:../../lib/lpc11cx4-library/lpc_chip_11cxx_lib/src/i2c_11xx.c **** /*****************************************************************************
  69:../../lib/lpc11cx4-library/lpc_chip_11cxx_lib/src/i2c_11xx.c ****  * Public types/enumerations/variables
  70:../../lib/lpc11cx4-library/lpc_chip_11cxx_lib/src/i2c_11xx.c ****  ****************************************************************************/
  71:../../lib/lpc11cx4-library/lpc_chip_11cxx_lib/src/i2c_11xx.c **** 
  72:../../lib/lpc11cx4-library/lpc_chip_11cxx_lib/src/i2c_11xx.c **** /*****************************************************************************
  73:../../lib/lpc11cx4-library/lpc_chip_11cxx_lib/src/i2c_11xx.c ****  * Private functions
  74:../../lib/lpc11cx4-library/lpc_chip_11cxx_lib/src/i2c_11xx.c ****  ****************************************************************************/
  75:../../lib/lpc11cx4-library/lpc_chip_11cxx_lib/src/i2c_11xx.c ****  
  76:../../lib/lpc11cx4-library/lpc_chip_11cxx_lib/src/i2c_11xx.c **** STATIC INLINE void enableClk(I2C_ID_T id)
  77:../../lib/lpc11cx4-library/lpc_chip_11cxx_lib/src/i2c_11xx.c **** {
  78:../../lib/lpc11cx4-library/lpc_chip_11cxx_lib/src/i2c_11xx.c **** 	UNUSED(id);
  79:../../lib/lpc11cx4-library/lpc_chip_11cxx_lib/src/i2c_11xx.c **** 	Chip_Clock_EnablePeriphClock(i2c.clk);
  80:../../lib/lpc11cx4-library/lpc_chip_11cxx_lib/src/i2c_11xx.c **** }
  81:../../lib/lpc11cx4-library/lpc_chip_11cxx_lib/src/i2c_11xx.c **** 
  82:../../lib/lpc11cx4-library/lpc_chip_11cxx_lib/src/i2c_11xx.c **** STATIC INLINE void disableClk(I2C_ID_T id)
  83:../../lib/lpc11cx4-library/lpc_chip_11cxx_lib/src/i2c_11xx.c **** {
  84:../../lib/lpc11cx4-library/lpc_chip_11cxx_lib/src/i2c_11xx.c **** 	UNUSED(id);
ARM GAS  /var/folders/z0/6xlwn_996xz3mwq1cgzkbq4r0000gp/T//cc0Pdjko.s 			page 4


  85:../../lib/lpc11cx4-library/lpc_chip_11cxx_lib/src/i2c_11xx.c **** 	Chip_Clock_DisablePeriphClock(i2c.clk);
  86:../../lib/lpc11cx4-library/lpc_chip_11cxx_lib/src/i2c_11xx.c **** }
  87:../../lib/lpc11cx4-library/lpc_chip_11cxx_lib/src/i2c_11xx.c **** 
  88:../../lib/lpc11cx4-library/lpc_chip_11cxx_lib/src/i2c_11xx.c **** /* Get the ADC Clock Rate */
  89:../../lib/lpc11cx4-library/lpc_chip_11cxx_lib/src/i2c_11xx.c **** STATIC INLINE uint32_t getClkRate(void)
  90:../../lib/lpc11cx4-library/lpc_chip_11cxx_lib/src/i2c_11xx.c **** {
  91:../../lib/lpc11cx4-library/lpc_chip_11cxx_lib/src/i2c_11xx.c **** 	// return Chip_Clock_GetMainClockRate();
  92:../../lib/lpc11cx4-library/lpc_chip_11cxx_lib/src/i2c_11xx.c **** 	return SystemCoreClock;
  93:../../lib/lpc11cx4-library/lpc_chip_11cxx_lib/src/i2c_11xx.c **** }
  94:../../lib/lpc11cx4-library/lpc_chip_11cxx_lib/src/i2c_11xx.c **** 
  95:../../lib/lpc11cx4-library/lpc_chip_11cxx_lib/src/i2c_11xx.c **** /* Enable I2C and start master transfer */
  96:../../lib/lpc11cx4-library/lpc_chip_11cxx_lib/src/i2c_11xx.c **** STATIC INLINE void startMasterXfer(LPC_I2C_T *pI2C)
  97:../../lib/lpc11cx4-library/lpc_chip_11cxx_lib/src/i2c_11xx.c **** {
  98:../../lib/lpc11cx4-library/lpc_chip_11cxx_lib/src/i2c_11xx.c **** 	/* Reset STA, STO, SI */
  99:../../lib/lpc11cx4-library/lpc_chip_11cxx_lib/src/i2c_11xx.c **** 	pI2C->CONCLR = I2C_CON_SI | I2C_CON_STO | I2C_CON_STA | I2C_CON_AA;
 100:../../lib/lpc11cx4-library/lpc_chip_11cxx_lib/src/i2c_11xx.c **** 
 101:../../lib/lpc11cx4-library/lpc_chip_11cxx_lib/src/i2c_11xx.c **** 	/* Enter to Master Transmitter mode */
 102:../../lib/lpc11cx4-library/lpc_chip_11cxx_lib/src/i2c_11xx.c **** 	pI2C->CONSET = I2C_CON_I2EN | I2C_CON_STA;
 103:../../lib/lpc11cx4-library/lpc_chip_11cxx_lib/src/i2c_11xx.c **** }
 104:../../lib/lpc11cx4-library/lpc_chip_11cxx_lib/src/i2c_11xx.c **** 
 105:../../lib/lpc11cx4-library/lpc_chip_11cxx_lib/src/i2c_11xx.c **** /* Enable I2C and enable slave transfers */
 106:../../lib/lpc11cx4-library/lpc_chip_11cxx_lib/src/i2c_11xx.c **** STATIC INLINE void startSlaverXfer(LPC_I2C_T *pI2C)
 107:../../lib/lpc11cx4-library/lpc_chip_11cxx_lib/src/i2c_11xx.c **** {
 108:../../lib/lpc11cx4-library/lpc_chip_11cxx_lib/src/i2c_11xx.c **** 	/* Reset STA, STO, SI */
 109:../../lib/lpc11cx4-library/lpc_chip_11cxx_lib/src/i2c_11xx.c **** 	pI2C->CONCLR = I2C_CON_SI | I2C_CON_STO | I2C_CON_STA;
 110:../../lib/lpc11cx4-library/lpc_chip_11cxx_lib/src/i2c_11xx.c **** 
 111:../../lib/lpc11cx4-library/lpc_chip_11cxx_lib/src/i2c_11xx.c **** 	/* Enter to Master Transmitter mode */
 112:../../lib/lpc11cx4-library/lpc_chip_11cxx_lib/src/i2c_11xx.c **** 	pI2C->CONSET = I2C_CON_I2EN | I2C_CON_AA;
 113:../../lib/lpc11cx4-library/lpc_chip_11cxx_lib/src/i2c_11xx.c **** }
 114:../../lib/lpc11cx4-library/lpc_chip_11cxx_lib/src/i2c_11xx.c **** 
 115:../../lib/lpc11cx4-library/lpc_chip_11cxx_lib/src/i2c_11xx.c **** /* Check if I2C bus is free */
 116:../../lib/lpc11cx4-library/lpc_chip_11cxx_lib/src/i2c_11xx.c **** STATIC INLINE int isI2CBusFree(LPC_I2C_T *pI2C)
 117:../../lib/lpc11cx4-library/lpc_chip_11cxx_lib/src/i2c_11xx.c **** {
 118:../../lib/lpc11cx4-library/lpc_chip_11cxx_lib/src/i2c_11xx.c **** 	return !(pI2C->CONSET & I2C_CON_STO);
 119:../../lib/lpc11cx4-library/lpc_chip_11cxx_lib/src/i2c_11xx.c **** }
 120:../../lib/lpc11cx4-library/lpc_chip_11cxx_lib/src/i2c_11xx.c **** 
 121:../../lib/lpc11cx4-library/lpc_chip_11cxx_lib/src/i2c_11xx.c **** /* Get current state of the I2C peripheral */
 122:../../lib/lpc11cx4-library/lpc_chip_11cxx_lib/src/i2c_11xx.c **** STATIC INLINE int getCurState(LPC_I2C_T *pI2C)
 123:../../lib/lpc11cx4-library/lpc_chip_11cxx_lib/src/i2c_11xx.c **** {
 124:../../lib/lpc11cx4-library/lpc_chip_11cxx_lib/src/i2c_11xx.c **** 	return (int) (pI2C->STAT & I2C_STAT_CODE_BITMASK);
 125:../../lib/lpc11cx4-library/lpc_chip_11cxx_lib/src/i2c_11xx.c **** }
 126:../../lib/lpc11cx4-library/lpc_chip_11cxx_lib/src/i2c_11xx.c **** 
 127:../../lib/lpc11cx4-library/lpc_chip_11cxx_lib/src/i2c_11xx.c **** /* Check if the active state belongs to master mode*/
 128:../../lib/lpc11cx4-library/lpc_chip_11cxx_lib/src/i2c_11xx.c **** STATIC INLINE int isMasterState(LPC_I2C_T *pI2C)
 129:../../lib/lpc11cx4-library/lpc_chip_11cxx_lib/src/i2c_11xx.c **** {
 130:../../lib/lpc11cx4-library/lpc_chip_11cxx_lib/src/i2c_11xx.c **** 	return getCurState(pI2C) < 0x60;
 131:../../lib/lpc11cx4-library/lpc_chip_11cxx_lib/src/i2c_11xx.c **** }
 132:../../lib/lpc11cx4-library/lpc_chip_11cxx_lib/src/i2c_11xx.c **** 
 133:../../lib/lpc11cx4-library/lpc_chip_11cxx_lib/src/i2c_11xx.c **** /* Set OWN slave address for specific slave ID */
 134:../../lib/lpc11cx4-library/lpc_chip_11cxx_lib/src/i2c_11xx.c **** STATIC void setSlaveAddr(LPC_I2C_T *pI2C, I2C_SLAVE_ID sid, uint8_t addr, uint8_t mask)
 135:../../lib/lpc11cx4-library/lpc_chip_11cxx_lib/src/i2c_11xx.c **** {
 136:../../lib/lpc11cx4-library/lpc_chip_11cxx_lib/src/i2c_11xx.c **** 	uint32_t index = (uint32_t) sid - 1;
 137:../../lib/lpc11cx4-library/lpc_chip_11cxx_lib/src/i2c_11xx.c **** 	pI2C->MASK[index] = mask;
 138:../../lib/lpc11cx4-library/lpc_chip_11cxx_lib/src/i2c_11xx.c **** 	if (sid == I2C_SLAVE_0) {
 139:../../lib/lpc11cx4-library/lpc_chip_11cxx_lib/src/i2c_11xx.c **** 		pI2C->ADR0 = addr;
 140:../../lib/lpc11cx4-library/lpc_chip_11cxx_lib/src/i2c_11xx.c **** 	}
 141:../../lib/lpc11cx4-library/lpc_chip_11cxx_lib/src/i2c_11xx.c **** 	else {
ARM GAS  /var/folders/z0/6xlwn_996xz3mwq1cgzkbq4r0000gp/T//cc0Pdjko.s 			page 5


 142:../../lib/lpc11cx4-library/lpc_chip_11cxx_lib/src/i2c_11xx.c **** 		volatile uint32_t *abase = &pI2C->ADR1;
 143:../../lib/lpc11cx4-library/lpc_chip_11cxx_lib/src/i2c_11xx.c **** 		abase[index - 1] = addr;
 144:../../lib/lpc11cx4-library/lpc_chip_11cxx_lib/src/i2c_11xx.c **** 	}
 145:../../lib/lpc11cx4-library/lpc_chip_11cxx_lib/src/i2c_11xx.c **** }
 146:../../lib/lpc11cx4-library/lpc_chip_11cxx_lib/src/i2c_11xx.c **** 
 147:../../lib/lpc11cx4-library/lpc_chip_11cxx_lib/src/i2c_11xx.c **** /* Match the slave address */
 148:../../lib/lpc11cx4-library/lpc_chip_11cxx_lib/src/i2c_11xx.c **** STATIC int isSlaveAddrMatching(uint8_t addr1, uint8_t addr2, uint8_t mask)
 149:../../lib/lpc11cx4-library/lpc_chip_11cxx_lib/src/i2c_11xx.c **** {
 150:../../lib/lpc11cx4-library/lpc_chip_11cxx_lib/src/i2c_11xx.c **** 	mask |= 1;
 151:../../lib/lpc11cx4-library/lpc_chip_11cxx_lib/src/i2c_11xx.c **** 	return (addr1 & ~mask) == (addr2 & ~mask);
 152:../../lib/lpc11cx4-library/lpc_chip_11cxx_lib/src/i2c_11xx.c **** }
 153:../../lib/lpc11cx4-library/lpc_chip_11cxx_lib/src/i2c_11xx.c **** 
 154:../../lib/lpc11cx4-library/lpc_chip_11cxx_lib/src/i2c_11xx.c **** /* Get the index of the active slave */
 155:../../lib/lpc11cx4-library/lpc_chip_11cxx_lib/src/i2c_11xx.c **** STATIC I2C_SLAVE_ID lookupSlaveIndex(LPC_I2C_T *pI2C, uint8_t slaveAddr)
 156:../../lib/lpc11cx4-library/lpc_chip_11cxx_lib/src/i2c_11xx.c **** {
 157:../../lib/lpc11cx4-library/lpc_chip_11cxx_lib/src/i2c_11xx.c **** 	if (!(slaveAddr >> 1)) {
 158:../../lib/lpc11cx4-library/lpc_chip_11cxx_lib/src/i2c_11xx.c **** 		return I2C_SLAVE_GENERAL;					/* General call address */
 159:../../lib/lpc11cx4-library/lpc_chip_11cxx_lib/src/i2c_11xx.c **** 	}
 160:../../lib/lpc11cx4-library/lpc_chip_11cxx_lib/src/i2c_11xx.c **** 	if (isSlaveAddrMatching(pI2C->ADR0, slaveAddr, pI2C->MASK[0])) {
 161:../../lib/lpc11cx4-library/lpc_chip_11cxx_lib/src/i2c_11xx.c **** 		return I2C_SLAVE_0;
 162:../../lib/lpc11cx4-library/lpc_chip_11cxx_lib/src/i2c_11xx.c **** 	}
 163:../../lib/lpc11cx4-library/lpc_chip_11cxx_lib/src/i2c_11xx.c **** 	if (isSlaveAddrMatching(pI2C->ADR1, slaveAddr, pI2C->MASK[1])) {
 164:../../lib/lpc11cx4-library/lpc_chip_11cxx_lib/src/i2c_11xx.c **** 		return I2C_SLAVE_1;
 165:../../lib/lpc11cx4-library/lpc_chip_11cxx_lib/src/i2c_11xx.c **** 	}
 166:../../lib/lpc11cx4-library/lpc_chip_11cxx_lib/src/i2c_11xx.c **** 	if (isSlaveAddrMatching(pI2C->ADR2, slaveAddr, pI2C->MASK[2])) {
 167:../../lib/lpc11cx4-library/lpc_chip_11cxx_lib/src/i2c_11xx.c **** 		return I2C_SLAVE_2;
 168:../../lib/lpc11cx4-library/lpc_chip_11cxx_lib/src/i2c_11xx.c **** 	}
 169:../../lib/lpc11cx4-library/lpc_chip_11cxx_lib/src/i2c_11xx.c **** 	if (isSlaveAddrMatching(pI2C->ADR3, slaveAddr, pI2C->MASK[3])) {
 170:../../lib/lpc11cx4-library/lpc_chip_11cxx_lib/src/i2c_11xx.c **** 		return I2C_SLAVE_3;
 171:../../lib/lpc11cx4-library/lpc_chip_11cxx_lib/src/i2c_11xx.c **** 	}
 172:../../lib/lpc11cx4-library/lpc_chip_11cxx_lib/src/i2c_11xx.c **** 
 173:../../lib/lpc11cx4-library/lpc_chip_11cxx_lib/src/i2c_11xx.c **** 	/* If everything is fine the code should never come here */
 174:../../lib/lpc11cx4-library/lpc_chip_11cxx_lib/src/i2c_11xx.c **** 	return I2C_SLAVE_GENERAL;
 175:../../lib/lpc11cx4-library/lpc_chip_11cxx_lib/src/i2c_11xx.c **** }
 176:../../lib/lpc11cx4-library/lpc_chip_11cxx_lib/src/i2c_11xx.c **** 
 177:../../lib/lpc11cx4-library/lpc_chip_11cxx_lib/src/i2c_11xx.c **** /* Master transfer state change handler handler */
 178:../../lib/lpc11cx4-library/lpc_chip_11cxx_lib/src/i2c_11xx.c **** int handleMasterXferState(LPC_I2C_T *pI2C, I2C_XFER_T  *xfer)
 179:../../lib/lpc11cx4-library/lpc_chip_11cxx_lib/src/i2c_11xx.c **** {
 180:../../lib/lpc11cx4-library/lpc_chip_11cxx_lib/src/i2c_11xx.c **** 	uint32_t cclr = I2C_CON_FLAGS;
 181:../../lib/lpc11cx4-library/lpc_chip_11cxx_lib/src/i2c_11xx.c **** 	switch (getCurState(pI2C)) {
 182:../../lib/lpc11cx4-library/lpc_chip_11cxx_lib/src/i2c_11xx.c **** 	case 0x08:		/* Start condition on bus */
 183:../../lib/lpc11cx4-library/lpc_chip_11cxx_lib/src/i2c_11xx.c **** 	case 0x10:		/* Repeated start condition */
 184:../../lib/lpc11cx4-library/lpc_chip_11cxx_lib/src/i2c_11xx.c **** 		pI2C->DAT = (xfer->slaveAddr << 1) | (xfer->txSz == 0);
 185:../../lib/lpc11cx4-library/lpc_chip_11cxx_lib/src/i2c_11xx.c **** 		break;
 186:../../lib/lpc11cx4-library/lpc_chip_11cxx_lib/src/i2c_11xx.c **** 
 187:../../lib/lpc11cx4-library/lpc_chip_11cxx_lib/src/i2c_11xx.c **** 	/* Tx handling */
 188:../../lib/lpc11cx4-library/lpc_chip_11cxx_lib/src/i2c_11xx.c **** 	case 0x18:		/* SLA+W sent and ACK received */
 189:../../lib/lpc11cx4-library/lpc_chip_11cxx_lib/src/i2c_11xx.c **** 	case 0x28:		/* DATA sent and ACK received */
 190:../../lib/lpc11cx4-library/lpc_chip_11cxx_lib/src/i2c_11xx.c **** 		if (!xfer->txSz) {
 191:../../lib/lpc11cx4-library/lpc_chip_11cxx_lib/src/i2c_11xx.c **** 			cclr &= ~(xfer->rxSz ? I2C_CON_STA : I2C_CON_STO);
 192:../../lib/lpc11cx4-library/lpc_chip_11cxx_lib/src/i2c_11xx.c **** 		}
 193:../../lib/lpc11cx4-library/lpc_chip_11cxx_lib/src/i2c_11xx.c **** 		else {
 194:../../lib/lpc11cx4-library/lpc_chip_11cxx_lib/src/i2c_11xx.c **** 			pI2C->DAT = *xfer->txBuff++;
 195:../../lib/lpc11cx4-library/lpc_chip_11cxx_lib/src/i2c_11xx.c **** 			xfer->txSz--;
 196:../../lib/lpc11cx4-library/lpc_chip_11cxx_lib/src/i2c_11xx.c **** 		}
 197:../../lib/lpc11cx4-library/lpc_chip_11cxx_lib/src/i2c_11xx.c **** 		break;
 198:../../lib/lpc11cx4-library/lpc_chip_11cxx_lib/src/i2c_11xx.c **** 
ARM GAS  /var/folders/z0/6xlwn_996xz3mwq1cgzkbq4r0000gp/T//cc0Pdjko.s 			page 6


 199:../../lib/lpc11cx4-library/lpc_chip_11cxx_lib/src/i2c_11xx.c **** 	/* Rx handling */
 200:../../lib/lpc11cx4-library/lpc_chip_11cxx_lib/src/i2c_11xx.c **** 	case 0x58:		/* Data Received and NACK sent */
 201:../../lib/lpc11cx4-library/lpc_chip_11cxx_lib/src/i2c_11xx.c **** 		cclr &= ~I2C_CON_STO;
 202:../../lib/lpc11cx4-library/lpc_chip_11cxx_lib/src/i2c_11xx.c **** 
 203:../../lib/lpc11cx4-library/lpc_chip_11cxx_lib/src/i2c_11xx.c **** 	case 0x50:		/* Data Received and ACK sent */
 204:../../lib/lpc11cx4-library/lpc_chip_11cxx_lib/src/i2c_11xx.c **** 		*xfer->rxBuff++ = pI2C->DAT;
 205:../../lib/lpc11cx4-library/lpc_chip_11cxx_lib/src/i2c_11xx.c **** 		xfer->rxSz--;
 206:../../lib/lpc11cx4-library/lpc_chip_11cxx_lib/src/i2c_11xx.c **** 
 207:../../lib/lpc11cx4-library/lpc_chip_11cxx_lib/src/i2c_11xx.c **** 	case 0x40:		/* SLA+R sent and ACK received */
 208:../../lib/lpc11cx4-library/lpc_chip_11cxx_lib/src/i2c_11xx.c **** 		if (xfer->rxSz > 1) {
 209:../../lib/lpc11cx4-library/lpc_chip_11cxx_lib/src/i2c_11xx.c **** 			cclr &= ~I2C_CON_AA;
 210:../../lib/lpc11cx4-library/lpc_chip_11cxx_lib/src/i2c_11xx.c **** 		}
 211:../../lib/lpc11cx4-library/lpc_chip_11cxx_lib/src/i2c_11xx.c **** 		break;
 212:../../lib/lpc11cx4-library/lpc_chip_11cxx_lib/src/i2c_11xx.c **** 
 213:../../lib/lpc11cx4-library/lpc_chip_11cxx_lib/src/i2c_11xx.c **** 	/* NAK Handling */
 214:../../lib/lpc11cx4-library/lpc_chip_11cxx_lib/src/i2c_11xx.c **** 	case 0x20:		/* SLA+W sent NAK received */
 215:../../lib/lpc11cx4-library/lpc_chip_11cxx_lib/src/i2c_11xx.c **** 	case 0x30:		/* DATA sent NAK received */
 216:../../lib/lpc11cx4-library/lpc_chip_11cxx_lib/src/i2c_11xx.c **** 	case 0x48:		/* SLA+R sent NAK received */
 217:../../lib/lpc11cx4-library/lpc_chip_11cxx_lib/src/i2c_11xx.c **** 		xfer->status = I2C_STATUS_NAK;
 218:../../lib/lpc11cx4-library/lpc_chip_11cxx_lib/src/i2c_11xx.c **** 		cclr &= ~I2C_CON_STO;
 219:../../lib/lpc11cx4-library/lpc_chip_11cxx_lib/src/i2c_11xx.c **** 		break;
 220:../../lib/lpc11cx4-library/lpc_chip_11cxx_lib/src/i2c_11xx.c **** 
 221:../../lib/lpc11cx4-library/lpc_chip_11cxx_lib/src/i2c_11xx.c **** 	case 0x38:		/* Arbitration lost */
 222:../../lib/lpc11cx4-library/lpc_chip_11cxx_lib/src/i2c_11xx.c **** 		xfer->status = I2C_STATUS_ARBLOST;
 223:../../lib/lpc11cx4-library/lpc_chip_11cxx_lib/src/i2c_11xx.c **** 		break;
 224:../../lib/lpc11cx4-library/lpc_chip_11cxx_lib/src/i2c_11xx.c **** 
 225:../../lib/lpc11cx4-library/lpc_chip_11cxx_lib/src/i2c_11xx.c **** 	/* Bus Error */
 226:../../lib/lpc11cx4-library/lpc_chip_11cxx_lib/src/i2c_11xx.c **** 	case 0x00:
 227:../../lib/lpc11cx4-library/lpc_chip_11cxx_lib/src/i2c_11xx.c **** 		xfer->status = I2C_STATUS_BUSERR;
 228:../../lib/lpc11cx4-library/lpc_chip_11cxx_lib/src/i2c_11xx.c **** 		cclr &= ~I2C_CON_STO;
 229:../../lib/lpc11cx4-library/lpc_chip_11cxx_lib/src/i2c_11xx.c **** 	}
 230:../../lib/lpc11cx4-library/lpc_chip_11cxx_lib/src/i2c_11xx.c **** 
 231:../../lib/lpc11cx4-library/lpc_chip_11cxx_lib/src/i2c_11xx.c **** 
 232:../../lib/lpc11cx4-library/lpc_chip_11cxx_lib/src/i2c_11xx.c **** 	/* Set clear control flags */
 233:../../lib/lpc11cx4-library/lpc_chip_11cxx_lib/src/i2c_11xx.c **** 	pI2C->CONSET = cclr ^ I2C_CON_FLAGS;
 234:../../lib/lpc11cx4-library/lpc_chip_11cxx_lib/src/i2c_11xx.c **** 	pI2C->CONCLR = cclr;
 235:../../lib/lpc11cx4-library/lpc_chip_11cxx_lib/src/i2c_11xx.c **** 
 236:../../lib/lpc11cx4-library/lpc_chip_11cxx_lib/src/i2c_11xx.c **** 	/* If stopped return 0 */
 237:../../lib/lpc11cx4-library/lpc_chip_11cxx_lib/src/i2c_11xx.c **** 	if (!(cclr & I2C_CON_STO) || (xfer->status == I2C_STATUS_ARBLOST)) {
 238:../../lib/lpc11cx4-library/lpc_chip_11cxx_lib/src/i2c_11xx.c **** 		if (xfer->status == I2C_STATUS_BUSY) {
 239:../../lib/lpc11cx4-library/lpc_chip_11cxx_lib/src/i2c_11xx.c **** 			xfer->status = I2C_STATUS_DONE;
 240:../../lib/lpc11cx4-library/lpc_chip_11cxx_lib/src/i2c_11xx.c **** 		}
 241:../../lib/lpc11cx4-library/lpc_chip_11cxx_lib/src/i2c_11xx.c **** 		return 0;
 242:../../lib/lpc11cx4-library/lpc_chip_11cxx_lib/src/i2c_11xx.c **** 	}
 243:../../lib/lpc11cx4-library/lpc_chip_11cxx_lib/src/i2c_11xx.c **** 	return 1;
 244:../../lib/lpc11cx4-library/lpc_chip_11cxx_lib/src/i2c_11xx.c **** }
 245:../../lib/lpc11cx4-library/lpc_chip_11cxx_lib/src/i2c_11xx.c **** 
 246:../../lib/lpc11cx4-library/lpc_chip_11cxx_lib/src/i2c_11xx.c **** /* Find the slave address of SLA+W or SLA+R */
 247:../../lib/lpc11cx4-library/lpc_chip_11cxx_lib/src/i2c_11xx.c **** I2C_SLAVE_ID getSlaveIndex(LPC_I2C_T *pI2C)
 248:../../lib/lpc11cx4-library/lpc_chip_11cxx_lib/src/i2c_11xx.c **** {
 249:../../lib/lpc11cx4-library/lpc_chip_11cxx_lib/src/i2c_11xx.c **** 	switch (getCurState(pI2C)) {
 250:../../lib/lpc11cx4-library/lpc_chip_11cxx_lib/src/i2c_11xx.c **** 	case 0x60:
 251:../../lib/lpc11cx4-library/lpc_chip_11cxx_lib/src/i2c_11xx.c **** 	case 0x68:
 252:../../lib/lpc11cx4-library/lpc_chip_11cxx_lib/src/i2c_11xx.c **** 	case 0x70:
 253:../../lib/lpc11cx4-library/lpc_chip_11cxx_lib/src/i2c_11xx.c **** 	case 0x78:
 254:../../lib/lpc11cx4-library/lpc_chip_11cxx_lib/src/i2c_11xx.c **** 	case 0xA8:
 255:../../lib/lpc11cx4-library/lpc_chip_11cxx_lib/src/i2c_11xx.c **** 	case 0xB0:
ARM GAS  /var/folders/z0/6xlwn_996xz3mwq1cgzkbq4r0000gp/T//cc0Pdjko.s 			page 7


 256:../../lib/lpc11cx4-library/lpc_chip_11cxx_lib/src/i2c_11xx.c **** 		return lookupSlaveIndex(pI2C, pI2C->DAT);
 257:../../lib/lpc11cx4-library/lpc_chip_11cxx_lib/src/i2c_11xx.c **** 	}
 258:../../lib/lpc11cx4-library/lpc_chip_11cxx_lib/src/i2c_11xx.c **** 
 259:../../lib/lpc11cx4-library/lpc_chip_11cxx_lib/src/i2c_11xx.c **** 	/* If everything is fine code should never come here */
 260:../../lib/lpc11cx4-library/lpc_chip_11cxx_lib/src/i2c_11xx.c **** 	return I2C_SLAVE_GENERAL;
 261:../../lib/lpc11cx4-library/lpc_chip_11cxx_lib/src/i2c_11xx.c **** }
 262:../../lib/lpc11cx4-library/lpc_chip_11cxx_lib/src/i2c_11xx.c **** 
 263:../../lib/lpc11cx4-library/lpc_chip_11cxx_lib/src/i2c_11xx.c **** /* Slave state machine handler */
 264:../../lib/lpc11cx4-library/lpc_chip_11cxx_lib/src/i2c_11xx.c **** int handleSlaveXferState(LPC_I2C_T *pI2C, I2C_XFER_T *xfer)
 265:../../lib/lpc11cx4-library/lpc_chip_11cxx_lib/src/i2c_11xx.c **** {
 266:../../lib/lpc11cx4-library/lpc_chip_11cxx_lib/src/i2c_11xx.c **** 	uint32_t cclr = I2C_CON_FLAGS;
 267:../../lib/lpc11cx4-library/lpc_chip_11cxx_lib/src/i2c_11xx.c **** 	int ret = RET_SLAVE_BUSY;
 268:../../lib/lpc11cx4-library/lpc_chip_11cxx_lib/src/i2c_11xx.c **** 
 269:../../lib/lpc11cx4-library/lpc_chip_11cxx_lib/src/i2c_11xx.c **** 	xfer->status = I2C_STATUS_BUSY;
 270:../../lib/lpc11cx4-library/lpc_chip_11cxx_lib/src/i2c_11xx.c **** 	switch (getCurState(pI2C)) {
 271:../../lib/lpc11cx4-library/lpc_chip_11cxx_lib/src/i2c_11xx.c **** 	case 0x80:		/* SLA: Data received + ACK sent */
 272:../../lib/lpc11cx4-library/lpc_chip_11cxx_lib/src/i2c_11xx.c **** 	case 0x90:		/* GC: Data received + ACK sent */
 273:../../lib/lpc11cx4-library/lpc_chip_11cxx_lib/src/i2c_11xx.c **** 		*xfer->rxBuff++ = pI2C->DAT;
 274:../../lib/lpc11cx4-library/lpc_chip_11cxx_lib/src/i2c_11xx.c **** 		xfer->rxSz--;
 275:../../lib/lpc11cx4-library/lpc_chip_11cxx_lib/src/i2c_11xx.c **** 		ret = RET_SLAVE_RX;
 276:../../lib/lpc11cx4-library/lpc_chip_11cxx_lib/src/i2c_11xx.c **** 		if (xfer->rxSz > 1) {
 277:../../lib/lpc11cx4-library/lpc_chip_11cxx_lib/src/i2c_11xx.c **** 			cclr &= ~I2C_CON_AA;
 278:../../lib/lpc11cx4-library/lpc_chip_11cxx_lib/src/i2c_11xx.c **** 		}
 279:../../lib/lpc11cx4-library/lpc_chip_11cxx_lib/src/i2c_11xx.c **** 		break;
 280:../../lib/lpc11cx4-library/lpc_chip_11cxx_lib/src/i2c_11xx.c **** 
 281:../../lib/lpc11cx4-library/lpc_chip_11cxx_lib/src/i2c_11xx.c **** 	case 0x60:		/* Own SLA+W received */
 282:../../lib/lpc11cx4-library/lpc_chip_11cxx_lib/src/i2c_11xx.c **** 	case 0x68:		/* Own SLA+W received after losing arbitration */
 283:../../lib/lpc11cx4-library/lpc_chip_11cxx_lib/src/i2c_11xx.c **** 	case 0x70:		/* GC+W received */
 284:../../lib/lpc11cx4-library/lpc_chip_11cxx_lib/src/i2c_11xx.c **** 	case 0x78:		/* GC+W received after losing arbitration */
 285:../../lib/lpc11cx4-library/lpc_chip_11cxx_lib/src/i2c_11xx.c **** 		xfer->slaveAddr = pI2C->DAT & ~1;
 286:../../lib/lpc11cx4-library/lpc_chip_11cxx_lib/src/i2c_11xx.c **** 		if (xfer->rxSz > 1) {
 287:../../lib/lpc11cx4-library/lpc_chip_11cxx_lib/src/i2c_11xx.c **** 			cclr &= ~I2C_CON_AA;
 288:../../lib/lpc11cx4-library/lpc_chip_11cxx_lib/src/i2c_11xx.c **** 		}
 289:../../lib/lpc11cx4-library/lpc_chip_11cxx_lib/src/i2c_11xx.c **** 		break;
 290:../../lib/lpc11cx4-library/lpc_chip_11cxx_lib/src/i2c_11xx.c **** 
 291:../../lib/lpc11cx4-library/lpc_chip_11cxx_lib/src/i2c_11xx.c **** 	case 0xA8:		/* SLA+R received */
 292:../../lib/lpc11cx4-library/lpc_chip_11cxx_lib/src/i2c_11xx.c **** 	case 0xB0:		/* SLA+R received after losing arbitration */
 293:../../lib/lpc11cx4-library/lpc_chip_11cxx_lib/src/i2c_11xx.c **** 		xfer->slaveAddr = pI2C->DAT & ~1;
 294:../../lib/lpc11cx4-library/lpc_chip_11cxx_lib/src/i2c_11xx.c **** 
 295:../../lib/lpc11cx4-library/lpc_chip_11cxx_lib/src/i2c_11xx.c **** 	case 0xB8:		/* DATA sent and ACK received */
 296:../../lib/lpc11cx4-library/lpc_chip_11cxx_lib/src/i2c_11xx.c **** 		pI2C->DAT = *xfer->txBuff++;
 297:../../lib/lpc11cx4-library/lpc_chip_11cxx_lib/src/i2c_11xx.c **** 		xfer->txSz--;
 298:../../lib/lpc11cx4-library/lpc_chip_11cxx_lib/src/i2c_11xx.c **** 		if (xfer->txSz > 0) {
 299:../../lib/lpc11cx4-library/lpc_chip_11cxx_lib/src/i2c_11xx.c **** 			cclr &= ~I2C_CON_AA;
 300:../../lib/lpc11cx4-library/lpc_chip_11cxx_lib/src/i2c_11xx.c **** 		}
 301:../../lib/lpc11cx4-library/lpc_chip_11cxx_lib/src/i2c_11xx.c **** 		ret = RET_SLAVE_TX;
 302:../../lib/lpc11cx4-library/lpc_chip_11cxx_lib/src/i2c_11xx.c **** 		break;
 303:../../lib/lpc11cx4-library/lpc_chip_11cxx_lib/src/i2c_11xx.c **** 
 304:../../lib/lpc11cx4-library/lpc_chip_11cxx_lib/src/i2c_11xx.c **** 	case 0xC0:		/* Data transmitted and NAK received */
 305:../../lib/lpc11cx4-library/lpc_chip_11cxx_lib/src/i2c_11xx.c **** 	case 0xC8:		/* Last data transmitted and ACK received */
 306:../../lib/lpc11cx4-library/lpc_chip_11cxx_lib/src/i2c_11xx.c **** 	case 0x88:		/* SLA: Data received + NAK sent */
 307:../../lib/lpc11cx4-library/lpc_chip_11cxx_lib/src/i2c_11xx.c **** 	case 0x98:		/* GC: Data received + NAK sent */
 308:../../lib/lpc11cx4-library/lpc_chip_11cxx_lib/src/i2c_11xx.c **** 	case 0xA0:		/* STOP/Repeated START condition received */
 309:../../lib/lpc11cx4-library/lpc_chip_11cxx_lib/src/i2c_11xx.c **** 		ret = RET_SLAVE_IDLE;
 310:../../lib/lpc11cx4-library/lpc_chip_11cxx_lib/src/i2c_11xx.c **** 		cclr &= ~I2C_CON_AA;
 311:../../lib/lpc11cx4-library/lpc_chip_11cxx_lib/src/i2c_11xx.c **** 		xfer->status = I2C_STATUS_DONE;
 312:../../lib/lpc11cx4-library/lpc_chip_11cxx_lib/src/i2c_11xx.c **** 		if (xfer->slaveAddr & 1) {
ARM GAS  /var/folders/z0/6xlwn_996xz3mwq1cgzkbq4r0000gp/T//cc0Pdjko.s 			page 8


 313:../../lib/lpc11cx4-library/lpc_chip_11cxx_lib/src/i2c_11xx.c **** 			cclr &= ~I2C_CON_STA;
 314:../../lib/lpc11cx4-library/lpc_chip_11cxx_lib/src/i2c_11xx.c **** 		}
 315:../../lib/lpc11cx4-library/lpc_chip_11cxx_lib/src/i2c_11xx.c **** 		break;
 316:../../lib/lpc11cx4-library/lpc_chip_11cxx_lib/src/i2c_11xx.c **** 	}
 317:../../lib/lpc11cx4-library/lpc_chip_11cxx_lib/src/i2c_11xx.c **** 
 318:../../lib/lpc11cx4-library/lpc_chip_11cxx_lib/src/i2c_11xx.c **** 	/* Set clear control flags */
 319:../../lib/lpc11cx4-library/lpc_chip_11cxx_lib/src/i2c_11xx.c **** 	pI2C->CONSET = cclr ^ I2C_CON_FLAGS;
 320:../../lib/lpc11cx4-library/lpc_chip_11cxx_lib/src/i2c_11xx.c **** 	pI2C->CONCLR = cclr;
 321:../../lib/lpc11cx4-library/lpc_chip_11cxx_lib/src/i2c_11xx.c **** 
 322:../../lib/lpc11cx4-library/lpc_chip_11cxx_lib/src/i2c_11xx.c **** 	return ret;
 323:../../lib/lpc11cx4-library/lpc_chip_11cxx_lib/src/i2c_11xx.c **** }
 324:../../lib/lpc11cx4-library/lpc_chip_11cxx_lib/src/i2c_11xx.c **** 
 325:../../lib/lpc11cx4-library/lpc_chip_11cxx_lib/src/i2c_11xx.c **** /*****************************************************************************
 326:../../lib/lpc11cx4-library/lpc_chip_11cxx_lib/src/i2c_11xx.c ****  * Public functions
 327:../../lib/lpc11cx4-library/lpc_chip_11cxx_lib/src/i2c_11xx.c ****  ****************************************************************************/
 328:../../lib/lpc11cx4-library/lpc_chip_11cxx_lib/src/i2c_11xx.c **** 
 329:../../lib/lpc11cx4-library/lpc_chip_11cxx_lib/src/i2c_11xx.c **** /* Chip event handler interrupt based */
 330:../../lib/lpc11cx4-library/lpc_chip_11cxx_lib/src/i2c_11xx.c **** void Chip_I2C_EventHandler(I2C_ID_T id, I2C_EVENT_T event)
 331:../../lib/lpc11cx4-library/lpc_chip_11cxx_lib/src/i2c_11xx.c **** {
  88              		.loc 1 331 0
  89              		.cfi_startproc
  90              		@ args = 0, pretend = 0, frame = 0
  91              		@ frame_needed = 0, uses_anonymous_args = 0
  92              		@ link register save eliminated.
  93              	.LVL0:
 332:../../lib/lpc11cx4-library/lpc_chip_11cxx_lib/src/i2c_11xx.c **** 	UNUSED(id);
 333:../../lib/lpc11cx4-library/lpc_chip_11cxx_lib/src/i2c_11xx.c **** 	struct i2c_interface *iic = &i2c;
 334:../../lib/lpc11cx4-library/lpc_chip_11cxx_lib/src/i2c_11xx.c **** 	volatile I2C_STATUS_T *stat;
 335:../../lib/lpc11cx4-library/lpc_chip_11cxx_lib/src/i2c_11xx.c **** 
 336:../../lib/lpc11cx4-library/lpc_chip_11cxx_lib/src/i2c_11xx.c **** 	/* Only WAIT event needs to be handled */
 337:../../lib/lpc11cx4-library/lpc_chip_11cxx_lib/src/i2c_11xx.c **** 	if (event != I2C_EVENT_WAIT) {
  94              		.loc 1 337 0
  95 0000 0129     		cmp	r1, #1	@ event,
  96 0002 00D0     		beq	.L7	@,
  97              	.L1:
 338:../../lib/lpc11cx4-library/lpc_chip_11cxx_lib/src/i2c_11xx.c **** 		return;
 339:../../lib/lpc11cx4-library/lpc_chip_11cxx_lib/src/i2c_11xx.c **** 	}
 340:../../lib/lpc11cx4-library/lpc_chip_11cxx_lib/src/i2c_11xx.c **** 
 341:../../lib/lpc11cx4-library/lpc_chip_11cxx_lib/src/i2c_11xx.c **** 	stat = &iic->mXfer->status;
 342:../../lib/lpc11cx4-library/lpc_chip_11cxx_lib/src/i2c_11xx.c **** 	/* Wait for the status to change */
 343:../../lib/lpc11cx4-library/lpc_chip_11cxx_lib/src/i2c_11xx.c **** 	while (*stat == I2C_STATUS_BUSY) {
 344:../../lib/lpc11cx4-library/lpc_chip_11cxx_lib/src/i2c_11xx.c **** 	}
 345:../../lib/lpc11cx4-library/lpc_chip_11cxx_lib/src/i2c_11xx.c **** }
  98              		.loc 1 345 0
  99              		@ sp needed	@
 100 0004 7047     		bx	lr
 101              	.L7:
 102              	.LVL1:
 103              	.LBB59:
 104              	.LBB60:
 341:../../lib/lpc11cx4-library/lpc_chip_11cxx_lib/src/i2c_11xx.c **** 	/* Wait for the status to change */
 105              		.loc 1 341 0
 106 0006 034B     		ldr	r3, .L8	@ tmp114,
 107 0008 1A69     		ldr	r2, [r3, #16]	@ D.6795, i2c.mXfer
 108              	.LVL2:
 109              	.L3:
 343:../../lib/lpc11cx4-library/lpc_chip_11cxx_lib/src/i2c_11xx.c **** 	}
ARM GAS  /var/folders/z0/6xlwn_996xz3mwq1cgzkbq4r0000gp/T//cc0Pdjko.s 			page 9


 110              		.loc 1 343 0
 111 000a 137D     		ldrb	r3, [r2, #20]	@ MEM[(volatile I2C_STATUS_T *)_6 + 20B], MEM[(volatile I2C_STATUS_T *)_6 + 20B
 112 000c 042B     		cmp	r3, #4	@ MEM[(volatile I2C_STATUS_T *)_6 + 20B],
 113 000e FCD0     		beq	.L3	@,
 114 0010 F8E7     		b	.L1	@
 115              	.L9:
 116 0012 C046     		.align	2
 117              	.L8:
 118 0014 00000000 		.word	.LANCHOR0
 119              	.LBE60:
 120              	.LBE59:
 121              		.cfi_endproc
 122              	.LFE212:
 123              		.size	Chip_I2C_EventHandler, .-Chip_I2C_EventHandler
 124              		.section	.text.handleMasterXferState,"ax",%progbits
 125              		.align	2
 126              		.global	handleMasterXferState
 127              		.code	16
 128              		.thumb_func
 129              		.type	handleMasterXferState, %function
 130              	handleMasterXferState:
 131              	.LFB209:
 179:../../lib/lpc11cx4-library/lpc_chip_11cxx_lib/src/i2c_11xx.c **** 	uint32_t cclr = I2C_CON_FLAGS;
 132              		.loc 1 179 0
 133              		.cfi_startproc
 134              		@ args = 0, pretend = 0, frame = 0
 135              		@ frame_needed = 0, uses_anonymous_args = 0
 136              	.LVL3:
 137              	.LBB61:
 138              	.LBB62:
 124:../../lib/lpc11cx4-library/lpc_chip_11cxx_lib/src/i2c_11xx.c **** }
 139              		.loc 1 124 0
 140 0000 4368     		ldr	r3, [r0, #4]	@ D.6810, pI2C_10(D)->STAT
 141              	.LVL4:
 142              	.LBE62:
 143              	.LBE61:
 179:../../lib/lpc11cx4-library/lpc_chip_11cxx_lib/src/i2c_11xx.c **** 	uint32_t cclr = I2C_CON_FLAGS;
 144              		.loc 1 179 0
 145 0002 0200     		movs	r2, r0	@ pI2C, pI2C
 181:../../lib/lpc11cx4-library/lpc_chip_11cxx_lib/src/i2c_11xx.c **** 	case 0x08:		/* Start condition on bus */
 146              		.loc 1 181 0
 147 0004 F820     		movs	r0, #248	@ tmp154,
 148              	.LVL5:
 179:../../lib/lpc11cx4-library/lpc_chip_11cxx_lib/src/i2c_11xx.c **** 	uint32_t cclr = I2C_CON_FLAGS;
 149              		.loc 1 179 0
 150 0006 30B5     		push	{r4, r5, lr}	@
 151              		.cfi_def_cfa_offset 12
 152              		.cfi_offset 4, -12
 153              		.cfi_offset 5, -8
 154              		.cfi_offset 14, -4
 181:../../lib/lpc11cx4-library/lpc_chip_11cxx_lib/src/i2c_11xx.c **** 	case 0x08:		/* Start condition on bus */
 155              		.loc 1 181 0
 156 0008 0340     		ands	r3, r0	@ D.6806, tmp154
 157 000a 582B     		cmp	r3, #88	@ D.6806,
 158 000c 58D8     		bhi	.L11	@,
 159 000e 3D48     		ldr	r0, .L48	@ tmp158,
 160 0010 9B00     		lsls	r3, r3, #2	@ tmp156, D.6806,
ARM GAS  /var/folders/z0/6xlwn_996xz3mwq1cgzkbq4r0000gp/T//cc0Pdjko.s 			page 10


 161 0012 C358     		ldr	r3, [r0, r3]	@ tmp159,
 162 0014 9F46     		mov	pc, r3	@ tmp159
 163              		.section	.rodata.handleMasterXferState,"a",%progbits
 164              		.align	2
 165              	.L13:
 166 0000 50000000 		.word	.L12
 167 0004 C0000000 		.word	.L11
 168 0008 C0000000 		.word	.L11
 169 000c C0000000 		.word	.L11
 170 0010 C0000000 		.word	.L11
 171 0014 C0000000 		.word	.L11
 172 0018 C0000000 		.word	.L11
 173 001c C0000000 		.word	.L11
 174 0020 60000000 		.word	.L14
 175 0024 C0000000 		.word	.L11
 176 0028 C0000000 		.word	.L11
 177 002c C0000000 		.word	.L11
 178 0030 C0000000 		.word	.L11
 179 0034 C0000000 		.word	.L11
 180 0038 C0000000 		.word	.L11
 181 003c C0000000 		.word	.L11
 182 0040 60000000 		.word	.L14
 183 0044 C0000000 		.word	.L11
 184 0048 C0000000 		.word	.L11
 185 004c C0000000 		.word	.L11
 186 0050 C0000000 		.word	.L11
 187 0054 C0000000 		.word	.L11
 188 0058 C0000000 		.word	.L11
 189 005c C0000000 		.word	.L11
 190 0060 80000000 		.word	.L15
 191 0064 C0000000 		.word	.L11
 192 0068 C0000000 		.word	.L11
 193 006c C0000000 		.word	.L11
 194 0070 C0000000 		.word	.L11
 195 0074 C0000000 		.word	.L11
 196 0078 C0000000 		.word	.L11
 197 007c C0000000 		.word	.L11
 198 0080 96000000 		.word	.L16
 199 0084 C0000000 		.word	.L11
 200 0088 C0000000 		.word	.L11
 201 008c C0000000 		.word	.L11
 202 0090 C0000000 		.word	.L11
 203 0094 C0000000 		.word	.L11
 204 0098 C0000000 		.word	.L11
 205 009c C0000000 		.word	.L11
 206 00a0 80000000 		.word	.L15
 207 00a4 C0000000 		.word	.L11
 208 00a8 C0000000 		.word	.L11
 209 00ac C0000000 		.word	.L11
 210 00b0 C0000000 		.word	.L11
 211 00b4 C0000000 		.word	.L11
 212 00b8 C0000000 		.word	.L11
 213 00bc C0000000 		.word	.L11
 214 00c0 96000000 		.word	.L16
 215 00c4 C0000000 		.word	.L11
 216 00c8 C0000000 		.word	.L11
 217 00cc C0000000 		.word	.L11
ARM GAS  /var/folders/z0/6xlwn_996xz3mwq1cgzkbq4r0000gp/T//cc0Pdjko.s 			page 11


 218 00d0 C0000000 		.word	.L11
 219 00d4 C0000000 		.word	.L11
 220 00d8 C0000000 		.word	.L11
 221 00dc C0000000 		.word	.L11
 222 00e0 B8000000 		.word	.L17
 223 00e4 C0000000 		.word	.L11
 224 00e8 C0000000 		.word	.L11
 225 00ec C0000000 		.word	.L11
 226 00f0 C0000000 		.word	.L11
 227 00f4 C0000000 		.word	.L11
 228 00f8 C0000000 		.word	.L11
 229 00fc C0000000 		.word	.L11
 230 0100 9C000000 		.word	.L18
 231 0104 C0000000 		.word	.L11
 232 0108 C0000000 		.word	.L11
 233 010c C0000000 		.word	.L11
 234 0110 C0000000 		.word	.L11
 235 0114 C0000000 		.word	.L11
 236 0118 C0000000 		.word	.L11
 237 011c C0000000 		.word	.L11
 238 0120 96000000 		.word	.L16
 239 0124 C0000000 		.word	.L11
 240 0128 C0000000 		.word	.L11
 241 012c C0000000 		.word	.L11
 242 0130 C0000000 		.word	.L11
 243 0134 C0000000 		.word	.L11
 244 0138 C0000000 		.word	.L11
 245 013c C0000000 		.word	.L11
 246 0140 B4000000 		.word	.L19
 247 0144 C0000000 		.word	.L11
 248 0148 C0000000 		.word	.L11
 249 014c C0000000 		.word	.L11
 250 0150 C0000000 		.word	.L11
 251 0154 C0000000 		.word	.L11
 252 0158 C0000000 		.word	.L11
 253 015c C0000000 		.word	.L11
 254 0160 16000000 		.word	.L34
 255              		.section	.text.handleMasterXferState
 256              	.L34:
 201:../../lib/lpc11cx4-library/lpc_chip_11cxx_lib/src/i2c_11xx.c **** 
 257              		.loc 1 201 0
 258 0016 2C24     		movs	r4, #44	@ cclr,
 259              	.L20:
 260              	.LVL6:
 204:../../lib/lpc11cx4-library/lpc_chip_11cxx_lib/src/i2c_11xx.c **** 		xfer->rxSz--;
 261              		.loc 1 204 0
 262 0018 CB68     		ldr	r3, [r1, #12]	@ D.6812, xfer_11(D)->rxBuff
 263 001a 581C     		adds	r0, r3, #1	@ D.6812, D.6812,
 264 001c C860     		str	r0, [r1, #12]	@ D.6812, xfer_11(D)->rxBuff
 265 001e 9068     		ldr	r0, [r2, #8]	@ D.6810, pI2C_10(D)->DAT
 266 0020 1870     		strb	r0, [r3]	@ D.6810, *_32
 205:../../lib/lpc11cx4-library/lpc_chip_11cxx_lib/src/i2c_11xx.c **** 
 267              		.loc 1 205 0
 268 0022 0B69     		ldr	r3, [r1, #16]	@ tmp227, xfer_11(D)->rxSz
 269 0024 013B     		subs	r3, r3, #1	@ D.6806,
 270 0026 0B61     		str	r3, [r1, #16]	@ D.6806, xfer_11(D)->rxSz
 208:../../lib/lpc11cx4-library/lpc_chip_11cxx_lib/src/i2c_11xx.c **** 			cclr &= ~I2C_CON_AA;
ARM GAS  /var/folders/z0/6xlwn_996xz3mwq1cgzkbq4r0000gp/T//cc0Pdjko.s 			page 12


 271              		.loc 1 208 0
 272 0028 012B     		cmp	r3, #1	@ D.6806,
 273 002a 4EDD     		ble	.L25	@,
 274 002c 0423     		movs	r3, #4	@ tmp182,
 275 002e 2500     		movs	r5, r4	@ cclr, cclr
 276 0030 3C20     		movs	r0, #60	@ tmp183,
 277 0032 9D43     		bics	r5, r3	@ cclr, tmp182
 278 0034 0C33     		adds	r3, r3, #12	@ tmp184,
 279 0036 6840     		eors	r0, r5	@ D.6810, cclr
 280 0038 2340     		ands	r3, r4	@ D.6810, cclr
 281              	.L26:
 282              	.LVL7:
 233:../../lib/lpc11cx4-library/lpc_chip_11cxx_lib/src/i2c_11xx.c **** 	pI2C->CONCLR = cclr;
 283              		.loc 1 233 0
 284 003a 1060     		str	r0, [r2]	@ D.6810, pI2C_10(D)->CONSET
 234:../../lib/lpc11cx4-library/lpc_chip_11cxx_lib/src/i2c_11xx.c **** 
 285              		.loc 1 234 0
 286 003c 9561     		str	r5, [r2, #24]	@ cclr, pI2C_10(D)->CONCLR
 237:../../lib/lpc11cx4-library/lpc_chip_11cxx_lib/src/i2c_11xx.c **** 		if (xfer->status == I2C_STATUS_BUSY) {
 287              		.loc 1 237 0
 288 003e 002B     		cmp	r3, #0	@ D.6810,
 289 0040 33D1     		bne	.L42	@,
 290              	.LVL8:
 291              	.L28:
 238:../../lib/lpc11cx4-library/lpc_chip_11cxx_lib/src/i2c_11xx.c **** 			xfer->status = I2C_STATUS_DONE;
 292              		.loc 1 238 0
 293 0042 0B7D     		ldrb	r3, [r1, #20]	@ tmp198,
 294 0044 042B     		cmp	r3, #4	@ tmp198,
 295 0046 09D1     		bne	.L43	@,
 239:../../lib/lpc11cx4-library/lpc_chip_11cxx_lib/src/i2c_11xx.c **** 		}
 296              		.loc 1 239 0
 297 0048 0023     		movs	r3, #0	@ tmp199,
 241:../../lib/lpc11cx4-library/lpc_chip_11cxx_lib/src/i2c_11xx.c **** 	}
 298              		.loc 1 241 0
 299 004a 0020     		movs	r0, #0	@ D.6806,
 239:../../lib/lpc11cx4-library/lpc_chip_11cxx_lib/src/i2c_11xx.c **** 		}
 300              		.loc 1 239 0
 301 004c 0B75     		strb	r3, [r1, #20]	@ tmp199, xfer_11(D)->status
 302              	.L40:
 244:../../lib/lpc11cx4-library/lpc_chip_11cxx_lib/src/i2c_11xx.c **** 
 303              		.loc 1 244 0
 304              		@ sp needed	@
 305 004e 30BD     		pop	{r4, r5, pc}
 306              	.LVL9:
 307              	.L12:
 227:../../lib/lpc11cx4-library/lpc_chip_11cxx_lib/src/i2c_11xx.c **** 		cclr &= ~I2C_CON_STO;
 308              		.loc 1 227 0
 309 0050 0323     		movs	r3, #3	@ tmp189,
 310 0052 0B75     		strb	r3, [r1, #20]	@ tmp189, xfer_11(D)->status
 311              	.LVL10:
 312              	.L27:
 233:../../lib/lpc11cx4-library/lpc_chip_11cxx_lib/src/i2c_11xx.c **** 	pI2C->CONCLR = cclr;
 313              		.loc 1 233 0
 314 0054 1023     		movs	r3, #16	@ tmp217,
 315 0056 1360     		str	r3, [r2]	@ tmp217, pI2C_10(D)->CONSET
 234:../../lib/lpc11cx4-library/lpc_chip_11cxx_lib/src/i2c_11xx.c **** 
 316              		.loc 1 234 0
ARM GAS  /var/folders/z0/6xlwn_996xz3mwq1cgzkbq4r0000gp/T//cc0Pdjko.s 			page 13


 317 0058 1C33     		adds	r3, r3, #28	@ tmp218,
 318 005a 9361     		str	r3, [r2, #24]	@ tmp218, pI2C_10(D)->CONCLR
 319              	.LVL11:
 320              	.L43:
 241:../../lib/lpc11cx4-library/lpc_chip_11cxx_lib/src/i2c_11xx.c **** 	}
 321              		.loc 1 241 0
 322 005c 0020     		movs	r0, #0	@ D.6806,
 323 005e F6E7     		b	.L40	@
 324              	.LVL12:
 325              	.L14:
 184:../../lib/lpc11cx4-library/lpc_chip_11cxx_lib/src/i2c_11xx.c **** 		break;
 326              		.loc 1 184 0
 327 0060 8868     		ldr	r0, [r1, #8]	@ D.6809, xfer_11(D)->txSz
 328 0062 0B78     		ldrb	r3, [r1]	@ D.6806, *xfer_11(D)
 329 0064 4442     		rsbs	r4, r0, #0	@ tmp165, D.6809
 330 0066 6041     		adcs	r0, r0, r4	@ D.6809, D.6809, tmp165
 331 0068 5B00     		lsls	r3, r3, #1	@ D.6806, D.6806,
 332 006a 0343     		orrs	r3, r0	@ D.6810, D.6809
 333 006c 9360     		str	r3, [r2, #8]	@ D.6810, pI2C_10(D)->DAT
 334 006e 087D     		ldrb	r0, [r1, #20]	@ tmp167,
 335 0070 0238     		subs	r0, r0, #2	@ tmp169,
 336 0072 431E     		subs	r3, r0, #1	@ tmp170, tmp169
 337 0074 9841     		sbcs	r0, r0, r3	@ D.6806, tmp169, tmp170
 338              	.L21:
 233:../../lib/lpc11cx4-library/lpc_chip_11cxx_lib/src/i2c_11xx.c **** 	pI2C->CONCLR = cclr;
 339              		.loc 1 233 0
 340 0076 0023     		movs	r3, #0	@ tmp215,
 341 0078 1360     		str	r3, [r2]	@ tmp215, pI2C_10(D)->CONSET
 234:../../lib/lpc11cx4-library/lpc_chip_11cxx_lib/src/i2c_11xx.c **** 
 342              		.loc 1 234 0
 343 007a 3C33     		adds	r3, r3, #60	@ tmp216,
 344 007c 9361     		str	r3, [r2, #24]	@ tmp216, pI2C_10(D)->CONCLR
 345 007e E6E7     		b	.L40	@
 346              	.L15:
 190:../../lib/lpc11cx4-library/lpc_chip_11cxx_lib/src/i2c_11xx.c **** 			cclr &= ~(xfer->rxSz ? I2C_CON_STA : I2C_CON_STO);
 347              		.loc 1 190 0
 348 0080 8B68     		ldr	r3, [r1, #8]	@ D.6806, xfer_11(D)->txSz
 349 0082 002B     		cmp	r3, #0	@ D.6806,
 350 0084 27D1     		bne	.L22	@,
 191:../../lib/lpc11cx4-library/lpc_chip_11cxx_lib/src/i2c_11xx.c **** 		}
 351              		.loc 1 191 0
 352 0086 0B69     		ldr	r3, [r1, #16]	@ tmp226, xfer_11(D)->rxSz
 353 0088 002B     		cmp	r3, #0	@ tmp226,
 354 008a 30D0     		beq	.L46	@,
 355              	.LVL13:
 233:../../lib/lpc11cx4-library/lpc_chip_11cxx_lib/src/i2c_11xx.c **** 	pI2C->CONCLR = cclr;
 356              		.loc 1 233 0
 357 008c 2023     		movs	r3, #32	@ tmp219,
 358 008e 1360     		str	r3, [r2]	@ tmp219, pI2C_10(D)->CONSET
 234:../../lib/lpc11cx4-library/lpc_chip_11cxx_lib/src/i2c_11xx.c **** 
 359              		.loc 1 234 0
 360 0090 043B     		subs	r3, r3, #4	@ tmp220,
 361 0092 9361     		str	r3, [r2, #24]	@ tmp220,
 362 0094 09E0     		b	.L42	@
 363              	.LVL14:
 364              	.L16:
 217:../../lib/lpc11cx4-library/lpc_chip_11cxx_lib/src/i2c_11xx.c **** 		cclr &= ~I2C_CON_STO;
ARM GAS  /var/folders/z0/6xlwn_996xz3mwq1cgzkbq4r0000gp/T//cc0Pdjko.s 			page 14


 365              		.loc 1 217 0
 366 0096 0123     		movs	r3, #1	@ tmp185,
 367 0098 0B75     		strb	r3, [r1, #20]	@ tmp185, xfer_11(D)->status
 368              	.LVL15:
 219:../../lib/lpc11cx4-library/lpc_chip_11cxx_lib/src/i2c_11xx.c **** 
 369              		.loc 1 219 0
 370 009a DBE7     		b	.L27	@
 371              	.LVL16:
 372              	.L18:
 208:../../lib/lpc11cx4-library/lpc_chip_11cxx_lib/src/i2c_11xx.c **** 			cclr &= ~I2C_CON_AA;
 373              		.loc 1 208 0
 374 009c 0B69     		ldr	r3, [r1, #16]	@ tmp229, xfer_11(D)->rxSz
 375 009e 012B     		cmp	r3, #1	@ tmp229,
 376 00a0 2ADD     		ble	.L47	@,
 377              	.LVL17:
 233:../../lib/lpc11cx4-library/lpc_chip_11cxx_lib/src/i2c_11xx.c **** 	pI2C->CONCLR = cclr;
 378              		.loc 1 233 0
 379 00a2 0423     		movs	r3, #4	@ tmp223,
 380 00a4 1360     		str	r3, [r2]	@ tmp223, pI2C_10(D)->CONSET
 234:../../lib/lpc11cx4-library/lpc_chip_11cxx_lib/src/i2c_11xx.c **** 
 381              		.loc 1 234 0
 382 00a6 3433     		adds	r3, r3, #52	@ tmp224,
 383 00a8 9361     		str	r3, [r2, #24]	@ tmp224,
 384              	.LVL18:
 385              	.L42:
 386 00aa 087D     		ldrb	r0, [r1, #20]	@ tmp205,
 387 00ac 0238     		subs	r0, r0, #2	@ tmp207,
 388 00ae 431E     		subs	r3, r0, #1	@ tmp208, tmp207
 389 00b0 9841     		sbcs	r0, r0, r3	@ D.6806, tmp207, tmp208
 390 00b2 CCE7     		b	.L40	@
 391              	.LVL19:
 392              	.L19:
 180:../../lib/lpc11cx4-library/lpc_chip_11cxx_lib/src/i2c_11xx.c **** 	switch (getCurState(pI2C)) {
 393              		.loc 1 180 0
 394 00b4 3C24     		movs	r4, #60	@ cclr,
 395 00b6 AFE7     		b	.L20	@
 396              	.L17:
 222:../../lib/lpc11cx4-library/lpc_chip_11cxx_lib/src/i2c_11xx.c **** 		break;
 397              		.loc 1 222 0
 398 00b8 0223     		movs	r3, #2	@ tmp187,
 223:../../lib/lpc11cx4-library/lpc_chip_11cxx_lib/src/i2c_11xx.c **** 
 399              		.loc 1 223 0
 400 00ba 0020     		movs	r0, #0	@ D.6806,
 222:../../lib/lpc11cx4-library/lpc_chip_11cxx_lib/src/i2c_11xx.c **** 		break;
 401              		.loc 1 222 0
 402 00bc 0B75     		strb	r3, [r1, #20]	@ tmp187, xfer_11(D)->status
 223:../../lib/lpc11cx4-library/lpc_chip_11cxx_lib/src/i2c_11xx.c **** 
 403              		.loc 1 223 0
 404 00be DAE7     		b	.L21	@
 405              	.L11:
 406 00c0 087D     		ldrb	r0, [r1, #20]	@ tmp211,
 407 00c2 0238     		subs	r0, r0, #2	@ tmp213,
 408 00c4 431E     		subs	r3, r0, #1	@ tmp214, tmp213
 409 00c6 9841     		sbcs	r0, r0, r3	@ D.6806, tmp213, tmp214
 410 00c8 D5E7     		b	.L21	@
 411              	.LVL20:
 412              	.L25:
ARM GAS  /var/folders/z0/6xlwn_996xz3mwq1cgzkbq4r0000gp/T//cc0Pdjko.s 			page 15


 413 00ca 3C20     		movs	r0, #60	@ tmp191,
 414 00cc 1023     		movs	r3, #16	@ tmp192,
 415 00ce 6040     		eors	r0, r4	@ D.6810, cclr
 416 00d0 2340     		ands	r3, r4	@ D.6810, cclr
 208:../../lib/lpc11cx4-library/lpc_chip_11cxx_lib/src/i2c_11xx.c **** 			cclr &= ~I2C_CON_AA;
 417              		.loc 1 208 0
 418 00d2 2500     		movs	r5, r4	@ cclr, cclr
 419 00d4 B1E7     		b	.L26	@
 420              	.LVL21:
 421              	.L22:
 194:../../lib/lpc11cx4-library/lpc_chip_11cxx_lib/src/i2c_11xx.c **** 			xfer->txSz--;
 422              		.loc 1 194 0
 423 00d6 4868     		ldr	r0, [r1, #4]	@ D.6811, xfer_11(D)->txBuff
 195:../../lib/lpc11cx4-library/lpc_chip_11cxx_lib/src/i2c_11xx.c **** 		}
 424              		.loc 1 195 0
 425 00d8 013B     		subs	r3, r3, #1	@ D.6806,
 194:../../lib/lpc11cx4-library/lpc_chip_11cxx_lib/src/i2c_11xx.c **** 			xfer->txSz--;
 426              		.loc 1 194 0
 427 00da 441C     		adds	r4, r0, #1	@ D.6811, D.6811,
 428 00dc 4C60     		str	r4, [r1, #4]	@ D.6811, xfer_11(D)->txBuff
 429 00de 0078     		ldrb	r0, [r0]	@ D.6810, *_22
 430 00e0 9060     		str	r0, [r2, #8]	@ D.6810, pI2C_10(D)->DAT
 431 00e2 087D     		ldrb	r0, [r1, #20]	@ tmp175,
 195:../../lib/lpc11cx4-library/lpc_chip_11cxx_lib/src/i2c_11xx.c **** 		}
 432              		.loc 1 195 0
 433 00e4 8B60     		str	r3, [r1, #8]	@ D.6806, xfer_11(D)->txSz
 434 00e6 0238     		subs	r0, r0, #2	@ tmp177,
 435 00e8 431E     		subs	r3, r0, #1	@ tmp178, tmp177
 436 00ea 9841     		sbcs	r0, r0, r3	@ D.6806, tmp177, tmp178
 437 00ec C3E7     		b	.L21	@
 438              	.L46:
 439              	.LVL22:
 233:../../lib/lpc11cx4-library/lpc_chip_11cxx_lib/src/i2c_11xx.c **** 	pI2C->CONCLR = cclr;
 440              		.loc 1 233 0
 441 00ee 1023     		movs	r3, #16	@ tmp221,
 442 00f0 1360     		str	r3, [r2]	@ tmp221, pI2C_10(D)->CONSET
 234:../../lib/lpc11cx4-library/lpc_chip_11cxx_lib/src/i2c_11xx.c **** 
 443              		.loc 1 234 0
 444 00f2 1C33     		adds	r3, r3, #28	@ tmp222,
 445 00f4 9361     		str	r3, [r2, #24]	@ tmp222, pI2C_10(D)->CONCLR
 446 00f6 A4E7     		b	.L28	@
 447              	.LVL23:
 448              	.L47:
 233:../../lib/lpc11cx4-library/lpc_chip_11cxx_lib/src/i2c_11xx.c **** 	pI2C->CONCLR = cclr;
 449              		.loc 1 233 0
 450 00f8 0023     		movs	r3, #0	@ tmp202,
 451 00fa 1360     		str	r3, [r2]	@ tmp202, pI2C_10(D)->CONSET
 234:../../lib/lpc11cx4-library/lpc_chip_11cxx_lib/src/i2c_11xx.c **** 
 452              		.loc 1 234 0
 453 00fc 3C33     		adds	r3, r3, #60	@ tmp203,
 454 00fe 9361     		str	r3, [r2, #24]	@ tmp203,
 455 0100 D3E7     		b	.L42	@
 456              	.L49:
 457 0102 C046     		.align	2
 458              	.L48:
 459 0104 00000000 		.word	.L13
 460              		.cfi_endproc
ARM GAS  /var/folders/z0/6xlwn_996xz3mwq1cgzkbq4r0000gp/T//cc0Pdjko.s 			page 16


 461              	.LFE209:
 462              		.size	handleMasterXferState, .-handleMasterXferState
 463              		.section	.text.getSlaveIndex,"ax",%progbits
 464              		.align	2
 465              		.global	getSlaveIndex
 466              		.code	16
 467              		.thumb_func
 468              		.type	getSlaveIndex, %function
 469              	getSlaveIndex:
 470              	.LFB210:
 248:../../lib/lpc11cx4-library/lpc_chip_11cxx_lib/src/i2c_11xx.c **** 	switch (getCurState(pI2C)) {
 471              		.loc 1 248 0
 472              		.cfi_startproc
 473              		@ args = 0, pretend = 0, frame = 0
 474              		@ frame_needed = 0, uses_anonymous_args = 0
 475              	.LVL24:
 249:../../lib/lpc11cx4-library/lpc_chip_11cxx_lib/src/i2c_11xx.c **** 	case 0x60:
 476              		.loc 1 249 0
 477 0000 F821     		movs	r1, #248	@ tmp159,
 478              	.LBB79:
 479              	.LBB80:
 124:../../lib/lpc11cx4-library/lpc_chip_11cxx_lib/src/i2c_11xx.c **** }
 480              		.loc 1 124 0
 481 0002 4368     		ldr	r3, [r0, #4]	@ D.6842, pI2C_4(D)->STAT
 482              	.LVL25:
 483              	.LBE80:
 484              	.LBE79:
 248:../../lib/lpc11cx4-library/lpc_chip_11cxx_lib/src/i2c_11xx.c **** 	switch (getCurState(pI2C)) {
 485              		.loc 1 248 0
 486 0004 10B5     		push	{r4, lr}	@
 487              		.cfi_def_cfa_offset 8
 488              		.cfi_offset 4, -8
 489              		.cfi_offset 14, -4
 248:../../lib/lpc11cx4-library/lpc_chip_11cxx_lib/src/i2c_11xx.c **** 	switch (getCurState(pI2C)) {
 490              		.loc 1 248 0
 491 0006 0200     		movs	r2, r0	@ pI2C, pI2C
 249:../../lib/lpc11cx4-library/lpc_chip_11cxx_lib/src/i2c_11xx.c **** 	case 0x60:
 492              		.loc 1 249 0
 493 0008 0B40     		ands	r3, r1	@ D.6843, tmp159
 494 000a 702B     		cmp	r3, #112	@ D.6843,
 495 000c 0CD0     		beq	.L52	@,
 496 000e 07DD     		ble	.L82	@,
 497 0010 A82B     		cmp	r3, #168	@ D.6843,
 498 0012 09D0     		beq	.L52	@,
 499 0014 B02B     		cmp	r3, #176	@ D.6843,
 500 0016 07D0     		beq	.L52	@,
 501 0018 782B     		cmp	r3, #120	@ D.6843,
 502 001a 05D0     		beq	.L52	@,
 503              	.L54:
 260:../../lib/lpc11cx4-library/lpc_chip_11cxx_lib/src/i2c_11xx.c **** }
 504              		.loc 1 260 0
 505 001c 0020     		movs	r0, #0	@ D.6840,
 506              	.LVL26:
 507              	.L51:
 261:../../lib/lpc11cx4-library/lpc_chip_11cxx_lib/src/i2c_11xx.c **** 
 508              		.loc 1 261 0
 509              		@ sp needed	@
ARM GAS  /var/folders/z0/6xlwn_996xz3mwq1cgzkbq4r0000gp/T//cc0Pdjko.s 			page 17


 510 001e 10BD     		pop	{r4, pc}
 511              	.LVL27:
 512              	.L82:
 249:../../lib/lpc11cx4-library/lpc_chip_11cxx_lib/src/i2c_11xx.c **** 	case 0x60:
 513              		.loc 1 249 0
 514 0020 602B     		cmp	r3, #96	@ D.6843,
 515 0022 01D0     		beq	.L52	@,
 516 0024 682B     		cmp	r3, #104	@ D.6843,
 517 0026 F9D1     		bne	.L54	@,
 518              	.L52:
 519              	.LVL28:
 520              	.LBB81:
 521              	.LBB82:
 256:../../lib/lpc11cx4-library/lpc_chip_11cxx_lib/src/i2c_11xx.c **** 	}
 522              		.loc 1 256 0
 523 0028 9068     		ldr	r0, [r2, #8]	@ D.6842, pI2C_4(D)->DAT
 524              	.LVL29:
 525 002a C1B2     		uxtb	r1, r0	@ D.6841, D.6842
 526              	.LVL30:
 527              	.LBB83:
 528              	.LBB84:
 157:../../lib/lpc11cx4-library/lpc_chip_11cxx_lib/src/i2c_11xx.c **** 		return I2C_SLAVE_GENERAL;					/* General call address */
 529              		.loc 1 157 0
 530 002c 4B08     		lsrs	r3, r1, #1	@ tmp163, D.6841,
 174:../../lib/lpc11cx4-library/lpc_chip_11cxx_lib/src/i2c_11xx.c **** }
 531              		.loc 1 174 0
 532 002e 0020     		movs	r0, #0	@ D.6840,
 157:../../lib/lpc11cx4-library/lpc_chip_11cxx_lib/src/i2c_11xx.c **** 		return I2C_SLAVE_GENERAL;					/* General call address */
 533              		.loc 1 157 0
 534 0030 002B     		cmp	r3, #0	@ tmp163,
 535 0032 F4D0     		beq	.L51	@,
 160:../../lib/lpc11cx4-library/lpc_chip_11cxx_lib/src/i2c_11xx.c **** 		return I2C_SLAVE_0;
 536              		.loc 1 160 0
 537 0034 0124     		movs	r4, #1	@ tmp164,
 538 0036 D368     		ldr	r3, [r2, #12]	@ D.6842, pI2C_4(D)->ADR0
 539 0038 106B     		ldr	r0, [r2, #48]	@ D.6842, pI2C_4(D)->MASK
 540 003a 4B40     		eors	r3, r1	@ tmp171, D.6841
 541 003c 2043     		orrs	r0, r4	@ tmp167, tmp164
 542 003e C0B2     		uxtb	r0, r0	@ D.6843, tmp167
 543 0040 DBB2     		uxtb	r3, r3	@ D.6843, tmp171
 544 0042 8343     		bics	r3, r0	@ D.6843, D.6843
 161:../../lib/lpc11cx4-library/lpc_chip_11cxx_lib/src/i2c_11xx.c **** 	}
 545              		.loc 1 161 0
 546 0044 0120     		movs	r0, #1	@ D.6840,
 160:../../lib/lpc11cx4-library/lpc_chip_11cxx_lib/src/i2c_11xx.c **** 		return I2C_SLAVE_0;
 547              		.loc 1 160 0
 548 0046 002B     		cmp	r3, #0	@ D.6843,
 549 0048 E9D0     		beq	.L51	@,
 163:../../lib/lpc11cx4-library/lpc_chip_11cxx_lib/src/i2c_11xx.c **** 		return I2C_SLAVE_1;
 550              		.loc 1 163 0
 551 004a 136A     		ldr	r3, [r2, #32]	@ D.6842, pI2C_4(D)->ADR1
 552 004c 506B     		ldr	r0, [r2, #52]	@ D.6842, pI2C_4(D)->MASK
 553 004e 4B40     		eors	r3, r1	@ tmp181, D.6841
 554 0050 2043     		orrs	r0, r4	@ tmp177, tmp164
 555 0052 C0B2     		uxtb	r0, r0	@ D.6843, tmp177
 556 0054 DBB2     		uxtb	r3, r3	@ D.6843, tmp181
 557 0056 8343     		bics	r3, r0	@ D.6843, D.6843
ARM GAS  /var/folders/z0/6xlwn_996xz3mwq1cgzkbq4r0000gp/T//cc0Pdjko.s 			page 18


 164:../../lib/lpc11cx4-library/lpc_chip_11cxx_lib/src/i2c_11xx.c **** 	}
 558              		.loc 1 164 0
 559 0058 0220     		movs	r0, #2	@ D.6840,
 163:../../lib/lpc11cx4-library/lpc_chip_11cxx_lib/src/i2c_11xx.c **** 		return I2C_SLAVE_1;
 560              		.loc 1 163 0
 561 005a 002B     		cmp	r3, #0	@ D.6843,
 562 005c DFD0     		beq	.L51	@,
 166:../../lib/lpc11cx4-library/lpc_chip_11cxx_lib/src/i2c_11xx.c **** 		return I2C_SLAVE_2;
 563              		.loc 1 166 0
 564 005e 536A     		ldr	r3, [r2, #36]	@ D.6842, pI2C_4(D)->ADR2
 565 0060 906B     		ldr	r0, [r2, #56]	@ D.6842, pI2C_4(D)->MASK
 566 0062 4B40     		eors	r3, r1	@ tmp191, D.6841
 567 0064 2043     		orrs	r0, r4	@ tmp187, tmp164
 568 0066 C0B2     		uxtb	r0, r0	@ D.6843, tmp187
 569 0068 DBB2     		uxtb	r3, r3	@ D.6843, tmp191
 570 006a 8343     		bics	r3, r0	@ D.6843, D.6843
 167:../../lib/lpc11cx4-library/lpc_chip_11cxx_lib/src/i2c_11xx.c **** 	}
 571              		.loc 1 167 0
 572 006c 0320     		movs	r0, #3	@ D.6840,
 166:../../lib/lpc11cx4-library/lpc_chip_11cxx_lib/src/i2c_11xx.c **** 		return I2C_SLAVE_2;
 573              		.loc 1 166 0
 574 006e 002B     		cmp	r3, #0	@ D.6843,
 575 0070 D5D0     		beq	.L51	@,
 169:../../lib/lpc11cx4-library/lpc_chip_11cxx_lib/src/i2c_11xx.c **** 		return I2C_SLAVE_3;
 576              		.loc 1 169 0
 577 0072 936A     		ldr	r3, [r2, #40]	@ D.6842, pI2C_4(D)->ADR3
 578 0074 D26B     		ldr	r2, [r2, #60]	@ D.6842, pI2C_4(D)->MASK
 579              	.LVL31:
 580 0076 5940     		eors	r1, r3	@ D.6841, D.6842
 581              	.LVL32:
 582 0078 1443     		orrs	r4, r2	@ tmp197, D.6842
 583 007a E4B2     		uxtb	r4, r4	@ D.6843, tmp197
 584 007c C8B2     		uxtb	r0, r1	@ D.6843, tmp201
 585 007e A043     		bics	r0, r4	@ D.6843, D.6843
 170:../../lib/lpc11cx4-library/lpc_chip_11cxx_lib/src/i2c_11xx.c **** 	}
 586              		.loc 1 170 0
 587 0080 4342     		rsbs	r3, r0, #0	@ tmp206, D.6843
 588 0082 5841     		adcs	r0, r0, r3	@ tmp205, D.6843, tmp206
 589 0084 8000     		lsls	r0, r0, #2	@ D.6840, tmp205,
 590 0086 CAE7     		b	.L51	@
 591              	.LBE84:
 592              	.LBE83:
 593              	.LBE82:
 594              	.LBE81:
 595              		.cfi_endproc
 596              	.LFE210:
 597              		.size	getSlaveIndex, .-getSlaveIndex
 598              		.section	.text.handleSlaveXferState,"ax",%progbits
 599              		.align	2
 600              		.global	handleSlaveXferState
 601              		.code	16
 602              		.thumb_func
 603              		.type	handleSlaveXferState, %function
 604              	handleSlaveXferState:
 605              	.LFB211:
 265:../../lib/lpc11cx4-library/lpc_chip_11cxx_lib/src/i2c_11xx.c **** 	uint32_t cclr = I2C_CON_FLAGS;
 606              		.loc 1 265 0
ARM GAS  /var/folders/z0/6xlwn_996xz3mwq1cgzkbq4r0000gp/T//cc0Pdjko.s 			page 19


 607              		.cfi_startproc
 608              		@ args = 0, pretend = 0, frame = 0
 609              		@ frame_needed = 0, uses_anonymous_args = 0
 610              		@ link register save eliminated.
 611              	.LVL33:
 269:../../lib/lpc11cx4-library/lpc_chip_11cxx_lib/src/i2c_11xx.c **** 	switch (getCurState(pI2C)) {
 612              		.loc 1 269 0
 613 0000 0423     		movs	r3, #4	@ tmp140,
 265:../../lib/lpc11cx4-library/lpc_chip_11cxx_lib/src/i2c_11xx.c **** 	uint32_t cclr = I2C_CON_FLAGS;
 614              		.loc 1 265 0
 615 0002 0200     		movs	r2, r0	@ pI2C, pI2C
 269:../../lib/lpc11cx4-library/lpc_chip_11cxx_lib/src/i2c_11xx.c **** 	switch (getCurState(pI2C)) {
 616              		.loc 1 269 0
 617 0004 0B75     		strb	r3, [r1, #20]	@ tmp140, xfer_7(D)->status
 618              	.LVL34:
 619              	.LBB85:
 620              	.LBB86:
 124:../../lib/lpc11cx4-library/lpc_chip_11cxx_lib/src/i2c_11xx.c **** }
 621              		.loc 1 124 0
 622 0006 4368     		ldr	r3, [r0, #4]	@ D.6855, pI2C_9(D)->STAT
 623              	.LVL35:
 624              	.LBE86:
 625              	.LBE85:
 270:../../lib/lpc11cx4-library/lpc_chip_11cxx_lib/src/i2c_11xx.c **** 	case 0x80:		/* SLA: Data received + ACK sent */
 626              		.loc 1 270 0
 627 0008 F820     		movs	r0, #248	@ tmp142,
 628              	.LVL36:
 629 000a 0340     		ands	r3, r0	@ D.6856, tmp142
 630 000c 603B     		subs	r3, r3, #96	@ tmp144,
 631 000e 682B     		cmp	r3, #104	@ tmp144,
 632 0010 39D8     		bhi	.L91	@,
 633 0012 2548     		ldr	r0, .L98	@ tmp147,
 634 0014 9B00     		lsls	r3, r3, #2	@ tmp145, tmp144,
 635 0016 C358     		ldr	r3, [r0, r3]	@ tmp148,
 636 0018 9F46     		mov	pc, r3	@ tmp148
 637              		.section	.rodata.handleSlaveXferState,"a",%progbits
 638              		.align	2
 639              	.L86:
 640 0000 42000000 		.word	.L85
 641 0004 86000000 		.word	.L91
 642 0008 86000000 		.word	.L91
 643 000c 86000000 		.word	.L91
 644 0010 86000000 		.word	.L91
 645 0014 86000000 		.word	.L91
 646 0018 86000000 		.word	.L91
 647 001c 86000000 		.word	.L91
 648 0020 42000000 		.word	.L85
 649 0024 86000000 		.word	.L91
 650 0028 86000000 		.word	.L91
 651 002c 86000000 		.word	.L91
 652 0030 86000000 		.word	.L91
 653 0034 86000000 		.word	.L91
 654 0038 86000000 		.word	.L91
 655 003c 86000000 		.word	.L91
 656 0040 42000000 		.word	.L85
 657 0044 86000000 		.word	.L91
 658 0048 86000000 		.word	.L91
ARM GAS  /var/folders/z0/6xlwn_996xz3mwq1cgzkbq4r0000gp/T//cc0Pdjko.s 			page 20


 659 004c 86000000 		.word	.L91
 660 0050 86000000 		.word	.L91
 661 0054 86000000 		.word	.L91
 662 0058 86000000 		.word	.L91
 663 005c 86000000 		.word	.L91
 664 0060 42000000 		.word	.L85
 665 0064 86000000 		.word	.L91
 666 0068 86000000 		.word	.L91
 667 006c 86000000 		.word	.L91
 668 0070 86000000 		.word	.L91
 669 0074 86000000 		.word	.L91
 670 0078 86000000 		.word	.L91
 671 007c 86000000 		.word	.L91
 672 0080 58000000 		.word	.L87
 673 0084 86000000 		.word	.L91
 674 0088 86000000 		.word	.L91
 675 008c 86000000 		.word	.L91
 676 0090 86000000 		.word	.L91
 677 0094 86000000 		.word	.L91
 678 0098 86000000 		.word	.L91
 679 009c 86000000 		.word	.L91
 680 00a0 74000000 		.word	.L88
 681 00a4 86000000 		.word	.L91
 682 00a8 86000000 		.word	.L91
 683 00ac 86000000 		.word	.L91
 684 00b0 86000000 		.word	.L91
 685 00b4 86000000 		.word	.L91
 686 00b8 86000000 		.word	.L91
 687 00bc 86000000 		.word	.L91
 688 00c0 58000000 		.word	.L87
 689 00c4 86000000 		.word	.L91
 690 00c8 86000000 		.word	.L91
 691 00cc 86000000 		.word	.L91
 692 00d0 86000000 		.word	.L91
 693 00d4 86000000 		.word	.L91
 694 00d8 86000000 		.word	.L91
 695 00dc 86000000 		.word	.L91
 696 00e0 74000000 		.word	.L88
 697 00e4 86000000 		.word	.L91
 698 00e8 86000000 		.word	.L91
 699 00ec 86000000 		.word	.L91
 700 00f0 86000000 		.word	.L91
 701 00f4 86000000 		.word	.L91
 702 00f8 86000000 		.word	.L91
 703 00fc 86000000 		.word	.L91
 704 0100 74000000 		.word	.L88
 705 0104 86000000 		.word	.L91
 706 0108 86000000 		.word	.L91
 707 010c 86000000 		.word	.L91
 708 0110 86000000 		.word	.L91
 709 0114 86000000 		.word	.L91
 710 0118 86000000 		.word	.L91
 711 011c 86000000 		.word	.L91
 712 0120 1A000000 		.word	.L89
 713 0124 86000000 		.word	.L91
 714 0128 86000000 		.word	.L91
 715 012c 86000000 		.word	.L91
ARM GAS  /var/folders/z0/6xlwn_996xz3mwq1cgzkbq4r0000gp/T//cc0Pdjko.s 			page 21


 716 0130 86000000 		.word	.L91
 717 0134 86000000 		.word	.L91
 718 0138 86000000 		.word	.L91
 719 013c 86000000 		.word	.L91
 720 0140 1A000000 		.word	.L89
 721 0144 86000000 		.word	.L91
 722 0148 86000000 		.word	.L91
 723 014c 86000000 		.word	.L91
 724 0150 86000000 		.word	.L91
 725 0154 86000000 		.word	.L91
 726 0158 86000000 		.word	.L91
 727 015c 86000000 		.word	.L91
 728 0160 22000000 		.word	.L90
 729 0164 86000000 		.word	.L91
 730 0168 86000000 		.word	.L91
 731 016c 86000000 		.word	.L91
 732 0170 86000000 		.word	.L91
 733 0174 86000000 		.word	.L91
 734 0178 86000000 		.word	.L91
 735 017c 86000000 		.word	.L91
 736 0180 74000000 		.word	.L88
 737 0184 86000000 		.word	.L91
 738 0188 86000000 		.word	.L91
 739 018c 86000000 		.word	.L91
 740 0190 86000000 		.word	.L91
 741 0194 86000000 		.word	.L91
 742 0198 86000000 		.word	.L91
 743 019c 86000000 		.word	.L91
 744 01a0 74000000 		.word	.L88
 745              		.section	.text.handleSlaveXferState
 746              	.L89:
 293:../../lib/lpc11cx4-library/lpc_chip_11cxx_lib/src/i2c_11xx.c **** 
 747              		.loc 1 293 0
 748 001a 0120     		movs	r0, #1	@ tmp159,
 749 001c 9368     		ldr	r3, [r2, #8]	@ D.6855, pI2C_9(D)->DAT
 750 001e 8343     		bics	r3, r0	@ tmp158, tmp159
 751 0020 0B70     		strb	r3, [r1]	@ tmp158, xfer_7(D)->slaveAddr
 752              	.L90:
 296:../../lib/lpc11cx4-library/lpc_chip_11cxx_lib/src/i2c_11xx.c **** 		xfer->txSz--;
 753              		.loc 1 296 0
 754 0022 4B68     		ldr	r3, [r1, #4]	@ D.6857, xfer_7(D)->txBuff
 755 0024 581C     		adds	r0, r3, #1	@ D.6857, D.6857,
 756 0026 4860     		str	r0, [r1, #4]	@ D.6857, xfer_7(D)->txBuff
 757 0028 1B78     		ldrb	r3, [r3]	@ D.6855, *_28
 758 002a 9360     		str	r3, [r2, #8]	@ D.6855, pI2C_9(D)->DAT
 297:../../lib/lpc11cx4-library/lpc_chip_11cxx_lib/src/i2c_11xx.c **** 		if (xfer->txSz > 0) {
 759              		.loc 1 297 0
 760 002c 8B68     		ldr	r3, [r1, #8]	@ tmp176, xfer_7(D)->txSz
 761 002e 013B     		subs	r3, r3, #1	@ D.6856,
 762 0030 8B60     		str	r3, [r1, #8]	@ D.6856, xfer_7(D)->txSz
 298:../../lib/lpc11cx4-library/lpc_chip_11cxx_lib/src/i2c_11xx.c **** 			cclr &= ~I2C_CON_AA;
 763              		.loc 1 298 0
 764 0032 002B     		cmp	r3, #0	@ D.6856,
 765 0034 2BDD     		ble	.L96	@,
 766 0036 0421     		movs	r1, #4	@ D.6855,
 767              	.LVL37:
 301:../../lib/lpc11cx4-library/lpc_chip_11cxx_lib/src/i2c_11xx.c **** 		break;
ARM GAS  /var/folders/z0/6xlwn_996xz3mwq1cgzkbq4r0000gp/T//cc0Pdjko.s 			page 22


 768              		.loc 1 301 0
 769 0038 0620     		movs	r0, #6	@ ret,
 299:../../lib/lpc11cx4-library/lpc_chip_11cxx_lib/src/i2c_11xx.c **** 		}
 770              		.loc 1 299 0
 771 003a 3823     		movs	r3, #56	@ cclr,
 772              	.LVL38:
 773              	.L84:
 319:../../lib/lpc11cx4-library/lpc_chip_11cxx_lib/src/i2c_11xx.c **** 	pI2C->CONCLR = cclr;
 774              		.loc 1 319 0
 775 003c 1160     		str	r1, [r2]	@ D.6855, pI2C_9(D)->CONSET
 323:../../lib/lpc11cx4-library/lpc_chip_11cxx_lib/src/i2c_11xx.c **** 
 776              		.loc 1 323 0
 777              		@ sp needed	@
 320:../../lib/lpc11cx4-library/lpc_chip_11cxx_lib/src/i2c_11xx.c **** 
 778              		.loc 1 320 0
 779 003e 9361     		str	r3, [r2, #24]	@ cclr, pI2C_9(D)->CONCLR
 323:../../lib/lpc11cx4-library/lpc_chip_11cxx_lib/src/i2c_11xx.c **** 
 780              		.loc 1 323 0
 781 0040 7047     		bx	lr
 782              	.LVL39:
 783              	.L85:
 285:../../lib/lpc11cx4-library/lpc_chip_11cxx_lib/src/i2c_11xx.c **** 		if (xfer->rxSz > 1) {
 784              		.loc 1 285 0
 785 0042 0120     		movs	r0, #1	@ tmp154,
 786 0044 9368     		ldr	r3, [r2, #8]	@ D.6855, pI2C_9(D)->DAT
 787 0046 8343     		bics	r3, r0	@ tmp153, tmp154
 788 0048 0B70     		strb	r3, [r1]	@ tmp153, xfer_7(D)->slaveAddr
 286:../../lib/lpc11cx4-library/lpc_chip_11cxx_lib/src/i2c_11xx.c **** 			cclr &= ~I2C_CON_AA;
 789              		.loc 1 286 0
 790 004a 0B69     		ldr	r3, [r1, #16]	@ xfer_7(D)->rxSz, xfer_7(D)->rxSz
 791 004c 012B     		cmp	r3, #1	@ xfer_7(D)->rxSz,
 792 004e 1ADD     		ble	.L91	@,
 793 0050 0421     		movs	r1, #4	@ D.6855,
 794              	.LVL40:
 267:../../lib/lpc11cx4-library/lpc_chip_11cxx_lib/src/i2c_11xx.c **** 
 795              		.loc 1 267 0
 796 0052 0020     		movs	r0, #0	@ ret,
 287:../../lib/lpc11cx4-library/lpc_chip_11cxx_lib/src/i2c_11xx.c **** 		}
 797              		.loc 1 287 0
 798 0054 3823     		movs	r3, #56	@ cclr,
 799 0056 F1E7     		b	.L84	@
 800              	.LVL41:
 801              	.L87:
 273:../../lib/lpc11cx4-library/lpc_chip_11cxx_lib/src/i2c_11xx.c **** 		xfer->rxSz--;
 802              		.loc 1 273 0
 803 0058 CB68     		ldr	r3, [r1, #12]	@ D.6854, xfer_7(D)->rxBuff
 804 005a 581C     		adds	r0, r3, #1	@ D.6854, D.6854,
 805 005c C860     		str	r0, [r1, #12]	@ D.6854, xfer_7(D)->rxBuff
 806 005e 9068     		ldr	r0, [r2, #8]	@ D.6855, pI2C_9(D)->DAT
 807 0060 1870     		strb	r0, [r3]	@ D.6855, *_10
 274:../../lib/lpc11cx4-library/lpc_chip_11cxx_lib/src/i2c_11xx.c **** 		ret = RET_SLAVE_RX;
 808              		.loc 1 274 0
 809 0062 0B69     		ldr	r3, [r1, #16]	@ tmp175, xfer_7(D)->rxSz
 810 0064 013B     		subs	r3, r3, #1	@ D.6856,
 811 0066 0B61     		str	r3, [r1, #16]	@ D.6856, xfer_7(D)->rxSz
 812              	.LVL42:
 276:../../lib/lpc11cx4-library/lpc_chip_11cxx_lib/src/i2c_11xx.c **** 			cclr &= ~I2C_CON_AA;
ARM GAS  /var/folders/z0/6xlwn_996xz3mwq1cgzkbq4r0000gp/T//cc0Pdjko.s 			page 23


 813              		.loc 1 276 0
 814 0068 012B     		cmp	r3, #1	@ D.6856,
 815 006a 18DD     		ble	.L97	@,
 816 006c 0421     		movs	r1, #4	@ D.6855,
 817              	.LVL43:
 275:../../lib/lpc11cx4-library/lpc_chip_11cxx_lib/src/i2c_11xx.c **** 		if (xfer->rxSz > 1) {
 818              		.loc 1 275 0
 819 006e 0520     		movs	r0, #5	@ ret,
 277:../../lib/lpc11cx4-library/lpc_chip_11cxx_lib/src/i2c_11xx.c **** 		}
 820              		.loc 1 277 0
 821 0070 3823     		movs	r3, #56	@ cclr,
 822 0072 E3E7     		b	.L84	@
 823              	.LVL44:
 824              	.L88:
 311:../../lib/lpc11cx4-library/lpc_chip_11cxx_lib/src/i2c_11xx.c **** 		if (xfer->slaveAddr & 1) {
 825              		.loc 1 311 0
 826 0074 0023     		movs	r3, #0	@ tmp163,
 827 0076 0B75     		strb	r3, [r1, #20]	@ tmp163, xfer_7(D)->status
 312:../../lib/lpc11cx4-library/lpc_chip_11cxx_lib/src/i2c_11xx.c **** 			cclr &= ~I2C_CON_STA;
 828              		.loc 1 312 0
 829 0078 0B78     		ldrb	r3, [r1]	@ *xfer_7(D), *xfer_7(D)
 830 007a DB07     		lsls	r3, r3, #31	@ tmp174, *xfer_7(D),
 831 007c 0BD4     		bmi	.L95	@,
 832 007e 0421     		movs	r1, #4	@ D.6855,
 833              	.LVL45:
 309:../../lib/lpc11cx4-library/lpc_chip_11cxx_lib/src/i2c_11xx.c **** 		cclr &= ~I2C_CON_AA;
 834              		.loc 1 309 0
 835 0080 0220     		movs	r0, #2	@ ret,
 310:../../lib/lpc11cx4-library/lpc_chip_11cxx_lib/src/i2c_11xx.c **** 		xfer->status = I2C_STATUS_DONE;
 836              		.loc 1 310 0
 837 0082 3823     		movs	r3, #56	@ cclr,
 838 0084 DAE7     		b	.L84	@
 839              	.LVL46:
 840              	.L91:
 270:../../lib/lpc11cx4-library/lpc_chip_11cxx_lib/src/i2c_11xx.c **** 	case 0x80:		/* SLA: Data received + ACK sent */
 841              		.loc 1 270 0
 842 0086 0021     		movs	r1, #0	@ D.6855,
 843              	.LVL47:
 267:../../lib/lpc11cx4-library/lpc_chip_11cxx_lib/src/i2c_11xx.c **** 
 844              		.loc 1 267 0
 845 0088 0020     		movs	r0, #0	@ ret,
 266:../../lib/lpc11cx4-library/lpc_chip_11cxx_lib/src/i2c_11xx.c **** 	int ret = RET_SLAVE_BUSY;
 846              		.loc 1 266 0
 847 008a 3C23     		movs	r3, #60	@ cclr,
 848 008c D6E7     		b	.L84	@
 849              	.LVL48:
 850              	.L96:
 298:../../lib/lpc11cx4-library/lpc_chip_11cxx_lib/src/i2c_11xx.c **** 			cclr &= ~I2C_CON_AA;
 851              		.loc 1 298 0
 852 008e 0021     		movs	r1, #0	@ D.6855,
 853              	.LVL49:
 301:../../lib/lpc11cx4-library/lpc_chip_11cxx_lib/src/i2c_11xx.c **** 		break;
 854              		.loc 1 301 0
 855 0090 0620     		movs	r0, #6	@ ret,
 266:../../lib/lpc11cx4-library/lpc_chip_11cxx_lib/src/i2c_11xx.c **** 	int ret = RET_SLAVE_BUSY;
 856              		.loc 1 266 0
 857 0092 3C23     		movs	r3, #60	@ cclr,
ARM GAS  /var/folders/z0/6xlwn_996xz3mwq1cgzkbq4r0000gp/T//cc0Pdjko.s 			page 24


 858 0094 D2E7     		b	.L84	@
 859              	.LVL50:
 860              	.L95:
 861 0096 2421     		movs	r1, #36	@ D.6855,
 862              	.LVL51:
 309:../../lib/lpc11cx4-library/lpc_chip_11cxx_lib/src/i2c_11xx.c **** 		cclr &= ~I2C_CON_AA;
 863              		.loc 1 309 0
 864 0098 0220     		movs	r0, #2	@ ret,
 313:../../lib/lpc11cx4-library/lpc_chip_11cxx_lib/src/i2c_11xx.c **** 		}
 865              		.loc 1 313 0
 866 009a 1823     		movs	r3, #24	@ cclr,
 867 009c CEE7     		b	.L84	@
 868              	.LVL52:
 869              	.L97:
 276:../../lib/lpc11cx4-library/lpc_chip_11cxx_lib/src/i2c_11xx.c **** 			cclr &= ~I2C_CON_AA;
 870              		.loc 1 276 0
 871 009e 0021     		movs	r1, #0	@ D.6855,
 872              	.LVL53:
 275:../../lib/lpc11cx4-library/lpc_chip_11cxx_lib/src/i2c_11xx.c **** 		if (xfer->rxSz > 1) {
 873              		.loc 1 275 0
 874 00a0 0520     		movs	r0, #5	@ ret,
 266:../../lib/lpc11cx4-library/lpc_chip_11cxx_lib/src/i2c_11xx.c **** 	int ret = RET_SLAVE_BUSY;
 875              		.loc 1 266 0
 876 00a2 3C23     		movs	r3, #60	@ cclr,
 877 00a4 CAE7     		b	.L84	@
 878              	.L99:
 879 00a6 C046     		.align	2
 880              	.L98:
 881 00a8 00000000 		.word	.L86
 882              		.cfi_endproc
 883              	.LFE211:
 884              		.size	handleSlaveXferState, .-handleSlaveXferState
 885              		.section	.text.Chip_I2C_Init,"ax",%progbits
 886              		.align	2
 887              		.global	Chip_I2C_Init
 888              		.code	16
 889              		.thumb_func
 890              		.type	Chip_I2C_Init, %function
 891              	Chip_I2C_Init:
 892              	.LFB214:
 346:../../lib/lpc11cx4-library/lpc_chip_11cxx_lib/src/i2c_11xx.c **** 
 347:../../lib/lpc11cx4-library/lpc_chip_11cxx_lib/src/i2c_11xx.c **** /* Chip polling event handler */
 348:../../lib/lpc11cx4-library/lpc_chip_11cxx_lib/src/i2c_11xx.c **** void Chip_I2C_EventHandlerPolling(I2C_ID_T id, I2C_EVENT_T event)
 349:../../lib/lpc11cx4-library/lpc_chip_11cxx_lib/src/i2c_11xx.c **** {
 350:../../lib/lpc11cx4-library/lpc_chip_11cxx_lib/src/i2c_11xx.c **** 	struct i2c_interface *iic = &i2c;
 351:../../lib/lpc11cx4-library/lpc_chip_11cxx_lib/src/i2c_11xx.c **** 	volatile I2C_STATUS_T *stat;
 352:../../lib/lpc11cx4-library/lpc_chip_11cxx_lib/src/i2c_11xx.c **** 
 353:../../lib/lpc11cx4-library/lpc_chip_11cxx_lib/src/i2c_11xx.c **** 	/* Only WAIT event needs to be handled */
 354:../../lib/lpc11cx4-library/lpc_chip_11cxx_lib/src/i2c_11xx.c **** 	if (event != I2C_EVENT_WAIT) {
 355:../../lib/lpc11cx4-library/lpc_chip_11cxx_lib/src/i2c_11xx.c **** 		return;
 356:../../lib/lpc11cx4-library/lpc_chip_11cxx_lib/src/i2c_11xx.c **** 	}
 357:../../lib/lpc11cx4-library/lpc_chip_11cxx_lib/src/i2c_11xx.c **** 
 358:../../lib/lpc11cx4-library/lpc_chip_11cxx_lib/src/i2c_11xx.c **** 	stat = &iic->mXfer->status;
 359:../../lib/lpc11cx4-library/lpc_chip_11cxx_lib/src/i2c_11xx.c **** 	/* Call the state change handler till xfer is done */
 360:../../lib/lpc11cx4-library/lpc_chip_11cxx_lib/src/i2c_11xx.c **** 	while (*stat == I2C_STATUS_BUSY) {
 361:../../lib/lpc11cx4-library/lpc_chip_11cxx_lib/src/i2c_11xx.c **** 		if (Chip_I2C_IsStateChanged(id)) {
 362:../../lib/lpc11cx4-library/lpc_chip_11cxx_lib/src/i2c_11xx.c **** 			Chip_I2C_MasterStateHandler(id);
ARM GAS  /var/folders/z0/6xlwn_996xz3mwq1cgzkbq4r0000gp/T//cc0Pdjko.s 			page 25


 363:../../lib/lpc11cx4-library/lpc_chip_11cxx_lib/src/i2c_11xx.c **** 		}
 364:../../lib/lpc11cx4-library/lpc_chip_11cxx_lib/src/i2c_11xx.c **** 	}
 365:../../lib/lpc11cx4-library/lpc_chip_11cxx_lib/src/i2c_11xx.c **** }
 366:../../lib/lpc11cx4-library/lpc_chip_11cxx_lib/src/i2c_11xx.c **** 
 367:../../lib/lpc11cx4-library/lpc_chip_11cxx_lib/src/i2c_11xx.c **** /* Initializes the LPC_I2C peripheral with specified parameter */
 368:../../lib/lpc11cx4-library/lpc_chip_11cxx_lib/src/i2c_11xx.c **** void Chip_I2C_Init(I2C_ID_T id)
 369:../../lib/lpc11cx4-library/lpc_chip_11cxx_lib/src/i2c_11xx.c **** {
 893              		.loc 1 369 0
 894              		.cfi_startproc
 895              		@ args = 0, pretend = 0, frame = 0
 896              		@ frame_needed = 0, uses_anonymous_args = 0
 897              	.LVL54:
 370:../../lib/lpc11cx4-library/lpc_chip_11cxx_lib/src/i2c_11xx.c **** 
 371:../../lib/lpc11cx4-library/lpc_chip_11cxx_lib/src/i2c_11xx.c **** 	i2c.ip = LPC_I2C;
 372:../../lib/lpc11cx4-library/lpc_chip_11cxx_lib/src/i2c_11xx.c **** 	i2c.clk = SYSCTL_CLOCK_I2C;
 898              		.loc 1 372 0
 899 0000 0522     		movs	r2, #5	@ tmp116,
 371:../../lib/lpc11cx4-library/lpc_chip_11cxx_lib/src/i2c_11xx.c **** 	i2c.clk = SYSCTL_CLOCK_I2C;
 900              		.loc 1 371 0
 901 0002 0B4B     		ldr	r3, .L101	@ tmp113,
 369:../../lib/lpc11cx4-library/lpc_chip_11cxx_lib/src/i2c_11xx.c **** 
 902              		.loc 1 369 0
 903 0004 10B5     		push	{r4, lr}	@
 904              		.cfi_def_cfa_offset 8
 905              		.cfi_offset 4, -8
 906              		.cfi_offset 14, -4
 907              		.loc 1 372 0
 908 0006 1A71     		strb	r2, [r3, #4]	@ tmp116, i2c.clk
 373:../../lib/lpc11cx4-library/lpc_chip_11cxx_lib/src/i2c_11xx.c **** 	i2c.mEvent = Chip_I2C_EventHandler;
 909              		.loc 1 373 0
 910 0008 0A4A     		ldr	r2, .L101+4	@ tmp119,
 371:../../lib/lpc11cx4-library/lpc_chip_11cxx_lib/src/i2c_11xx.c **** 	i2c.clk = SYSCTL_CLOCK_I2C;
 911              		.loc 1 371 0
 912 000a 8021     		movs	r1, #128	@ tmp114,
 913              		.loc 1 373 0
 914 000c 9A60     		str	r2, [r3, #8]	@ tmp119, i2c.mEvent
 374:../../lib/lpc11cx4-library/lpc_chip_11cxx_lib/src/i2c_11xx.c **** 	i2c.sEvent = NULL;
 915              		.loc 1 374 0
 916 000e 0022     		movs	r2, #0	@ tmp121,
 371:../../lib/lpc11cx4-library/lpc_chip_11cxx_lib/src/i2c_11xx.c **** 	i2c.clk = SYSCTL_CLOCK_I2C;
 917              		.loc 1 371 0
 918 0010 C905     		lsls	r1, r1, #23	@ tmp114, tmp114,
 375:../../lib/lpc11cx4-library/lpc_chip_11cxx_lib/src/i2c_11xx.c **** 	i2c.mXfer = NULL;
 376:../../lib/lpc11cx4-library/lpc_chip_11cxx_lib/src/i2c_11xx.c **** 	i2c.sXfer = NULL;
 377:../../lib/lpc11cx4-library/lpc_chip_11cxx_lib/src/i2c_11xx.c **** 	i2c.flags = 0;
 919              		.loc 1 377 0
 920 0012 9A61     		str	r2, [r3, #24]	@ tmp121, i2c.flags
 921              	.LVL55:
 374:../../lib/lpc11cx4-library/lpc_chip_11cxx_lib/src/i2c_11xx.c **** 	i2c.mXfer = NULL;
 922              		.loc 1 374 0
 923 0014 DA60     		str	r2, [r3, #12]	@ tmp121, i2c.sEvent
 375:../../lib/lpc11cx4-library/lpc_chip_11cxx_lib/src/i2c_11xx.c **** 	i2c.mXfer = NULL;
 924              		.loc 1 375 0
 925 0016 1A61     		str	r2, [r3, #16]	@ tmp121, i2c.mXfer
 376:../../lib/lpc11cx4-library/lpc_chip_11cxx_lib/src/i2c_11xx.c **** 	i2c.flags = 0;
 926              		.loc 1 376 0
 927 0018 5A61     		str	r2, [r3, #20]	@ tmp121, i2c.sXfer
ARM GAS  /var/folders/z0/6xlwn_996xz3mwq1cgzkbq4r0000gp/T//cc0Pdjko.s 			page 26


 371:../../lib/lpc11cx4-library/lpc_chip_11cxx_lib/src/i2c_11xx.c **** 	i2c.clk = SYSCTL_CLOCK_I2C;
 928              		.loc 1 371 0
 929 001a 1960     		str	r1, [r3]	@ tmp114, i2c.ip
 930              	.LBB87:
 931              	.LBB88:
 932              	.LBB89:
 933              		.file 2 "../../lib/lpc11cx4-library/lpc_chip_11cxx_lib/inc/clock_11xx.h"
   1:../../lib/lpc11cx4-library/lpc_chip_11cxx_lib/inc/clock_11xx.h **** /*
   2:../../lib/lpc11cx4-library/lpc_chip_11cxx_lib/inc/clock_11xx.h ****  * @brief LPC11XX Clock control functions
   3:../../lib/lpc11cx4-library/lpc_chip_11cxx_lib/inc/clock_11xx.h ****  *
   4:../../lib/lpc11cx4-library/lpc_chip_11cxx_lib/inc/clock_11xx.h ****  * @note
   5:../../lib/lpc11cx4-library/lpc_chip_11cxx_lib/inc/clock_11xx.h ****  * Copyright(C) NXP Semiconductors, 2012
   6:../../lib/lpc11cx4-library/lpc_chip_11cxx_lib/inc/clock_11xx.h ****  * All rights reserved.
   7:../../lib/lpc11cx4-library/lpc_chip_11cxx_lib/inc/clock_11xx.h ****  *
   8:../../lib/lpc11cx4-library/lpc_chip_11cxx_lib/inc/clock_11xx.h ****  * @par
   9:../../lib/lpc11cx4-library/lpc_chip_11cxx_lib/inc/clock_11xx.h ****  * Software that is described herein is for illustrative purposes only
  10:../../lib/lpc11cx4-library/lpc_chip_11cxx_lib/inc/clock_11xx.h ****  * which provides customers with programming information regarding the
  11:../../lib/lpc11cx4-library/lpc_chip_11cxx_lib/inc/clock_11xx.h ****  * LPC products.  This software is supplied "AS IS" without any warranties of
  12:../../lib/lpc11cx4-library/lpc_chip_11cxx_lib/inc/clock_11xx.h ****  * any kind, and NXP Semiconductors and its licensor disclaim any and
  13:../../lib/lpc11cx4-library/lpc_chip_11cxx_lib/inc/clock_11xx.h ****  * all warranties, express or implied, including all implied warranties of
  14:../../lib/lpc11cx4-library/lpc_chip_11cxx_lib/inc/clock_11xx.h ****  * merchantability, fitness for a particular purpose and non-infringement of
  15:../../lib/lpc11cx4-library/lpc_chip_11cxx_lib/inc/clock_11xx.h ****  * intellectual property rights.  NXP Semiconductors assumes no responsibility
  16:../../lib/lpc11cx4-library/lpc_chip_11cxx_lib/inc/clock_11xx.h ****  * or liability for the use of the software, conveys no license or rights under any
  17:../../lib/lpc11cx4-library/lpc_chip_11cxx_lib/inc/clock_11xx.h ****  * patent, copyright, mask work right, or any other intellectual property rights in
  18:../../lib/lpc11cx4-library/lpc_chip_11cxx_lib/inc/clock_11xx.h ****  * or to any products. NXP Semiconductors reserves the right to make changes
  19:../../lib/lpc11cx4-library/lpc_chip_11cxx_lib/inc/clock_11xx.h ****  * in the software without notification. NXP Semiconductors also makes no
  20:../../lib/lpc11cx4-library/lpc_chip_11cxx_lib/inc/clock_11xx.h ****  * representation or warranty that such application will be suitable for the
  21:../../lib/lpc11cx4-library/lpc_chip_11cxx_lib/inc/clock_11xx.h ****  * specified use without further testing or modification.
  22:../../lib/lpc11cx4-library/lpc_chip_11cxx_lib/inc/clock_11xx.h ****  *
  23:../../lib/lpc11cx4-library/lpc_chip_11cxx_lib/inc/clock_11xx.h ****  * @par
  24:../../lib/lpc11cx4-library/lpc_chip_11cxx_lib/inc/clock_11xx.h ****  * Permission to use, copy, modify, and distribute this software and its
  25:../../lib/lpc11cx4-library/lpc_chip_11cxx_lib/inc/clock_11xx.h ****  * documentation is hereby granted, under NXP Semiconductors' and its
  26:../../lib/lpc11cx4-library/lpc_chip_11cxx_lib/inc/clock_11xx.h ****  * licensor's relevant copyrights in the software, without fee, provided that it
  27:../../lib/lpc11cx4-library/lpc_chip_11cxx_lib/inc/clock_11xx.h ****  * is used in conjunction with NXP Semiconductors microcontrollers.  This
  28:../../lib/lpc11cx4-library/lpc_chip_11cxx_lib/inc/clock_11xx.h ****  * copyright, permission, and disclaimer notice must appear in all copies of
  29:../../lib/lpc11cx4-library/lpc_chip_11cxx_lib/inc/clock_11xx.h ****  * this code.
  30:../../lib/lpc11cx4-library/lpc_chip_11cxx_lib/inc/clock_11xx.h ****  */
  31:../../lib/lpc11cx4-library/lpc_chip_11cxx_lib/inc/clock_11xx.h **** 
  32:../../lib/lpc11cx4-library/lpc_chip_11cxx_lib/inc/clock_11xx.h **** #ifndef __CLOCK_11XX_H_
  33:../../lib/lpc11cx4-library/lpc_chip_11cxx_lib/inc/clock_11xx.h **** #define __CLOCK_11XX_H_
  34:../../lib/lpc11cx4-library/lpc_chip_11cxx_lib/inc/clock_11xx.h **** 
  35:../../lib/lpc11cx4-library/lpc_chip_11cxx_lib/inc/clock_11xx.h **** #ifdef __cplusplus
  36:../../lib/lpc11cx4-library/lpc_chip_11cxx_lib/inc/clock_11xx.h **** extern "C" {
  37:../../lib/lpc11cx4-library/lpc_chip_11cxx_lib/inc/clock_11xx.h **** #endif
  38:../../lib/lpc11cx4-library/lpc_chip_11cxx_lib/inc/clock_11xx.h **** 
  39:../../lib/lpc11cx4-library/lpc_chip_11cxx_lib/inc/clock_11xx.h **** /** @defgroup CLOCK_11XX CHIP: LPC11xx Clock Control block driver
  40:../../lib/lpc11cx4-library/lpc_chip_11cxx_lib/inc/clock_11xx.h ****  * @ingroup CHIP_11XX_Drivers
  41:../../lib/lpc11cx4-library/lpc_chip_11cxx_lib/inc/clock_11xx.h ****  * @{
  42:../../lib/lpc11cx4-library/lpc_chip_11cxx_lib/inc/clock_11xx.h ****  */
  43:../../lib/lpc11cx4-library/lpc_chip_11cxx_lib/inc/clock_11xx.h **** 
  44:../../lib/lpc11cx4-library/lpc_chip_11cxx_lib/inc/clock_11xx.h **** /** Internal oscillator frequency */
  45:../../lib/lpc11cx4-library/lpc_chip_11cxx_lib/inc/clock_11xx.h **** #define SYSCTL_IRC_FREQ (12000000)
  46:../../lib/lpc11cx4-library/lpc_chip_11cxx_lib/inc/clock_11xx.h **** 
  47:../../lib/lpc11cx4-library/lpc_chip_11cxx_lib/inc/clock_11xx.h **** /**
  48:../../lib/lpc11cx4-library/lpc_chip_11cxx_lib/inc/clock_11xx.h ****  * @brief	Set System PLL divider values
  49:../../lib/lpc11cx4-library/lpc_chip_11cxx_lib/inc/clock_11xx.h ****  * @param	msel    : PLL feedback divider value. M = msel + 1.
  50:../../lib/lpc11cx4-library/lpc_chip_11cxx_lib/inc/clock_11xx.h ****  * @param	psel    : PLL post divider value. P =  (1<<psel).
ARM GAS  /var/folders/z0/6xlwn_996xz3mwq1cgzkbq4r0000gp/T//cc0Pdjko.s 			page 27


  51:../../lib/lpc11cx4-library/lpc_chip_11cxx_lib/inc/clock_11xx.h ****  * @return	Nothing
  52:../../lib/lpc11cx4-library/lpc_chip_11cxx_lib/inc/clock_11xx.h ****  * @note	See the user manual for how to setup the PLL.
  53:../../lib/lpc11cx4-library/lpc_chip_11cxx_lib/inc/clock_11xx.h ****  */
  54:../../lib/lpc11cx4-library/lpc_chip_11cxx_lib/inc/clock_11xx.h **** STATIC INLINE void Chip_Clock_SetupSystemPLL(uint8_t msel, uint8_t psel)
  55:../../lib/lpc11cx4-library/lpc_chip_11cxx_lib/inc/clock_11xx.h **** {
  56:../../lib/lpc11cx4-library/lpc_chip_11cxx_lib/inc/clock_11xx.h **** 	LPC_SYSCTL->SYSPLLCTRL = (msel & 0x1F) | ((psel & 0x3) << 5);
  57:../../lib/lpc11cx4-library/lpc_chip_11cxx_lib/inc/clock_11xx.h **** }
  58:../../lib/lpc11cx4-library/lpc_chip_11cxx_lib/inc/clock_11xx.h **** 
  59:../../lib/lpc11cx4-library/lpc_chip_11cxx_lib/inc/clock_11xx.h **** /**
  60:../../lib/lpc11cx4-library/lpc_chip_11cxx_lib/inc/clock_11xx.h ****  * @brief	Read System PLL lock status
  61:../../lib/lpc11cx4-library/lpc_chip_11cxx_lib/inc/clock_11xx.h ****  * @return	true of the PLL is locked. false if not locked
  62:../../lib/lpc11cx4-library/lpc_chip_11cxx_lib/inc/clock_11xx.h ****  */
  63:../../lib/lpc11cx4-library/lpc_chip_11cxx_lib/inc/clock_11xx.h **** STATIC INLINE bool Chip_Clock_IsSystemPLLLocked(void)
  64:../../lib/lpc11cx4-library/lpc_chip_11cxx_lib/inc/clock_11xx.h **** {
  65:../../lib/lpc11cx4-library/lpc_chip_11cxx_lib/inc/clock_11xx.h **** 	return (bool) ((LPC_SYSCTL->SYSPLLSTAT & 1) != 0);
  66:../../lib/lpc11cx4-library/lpc_chip_11cxx_lib/inc/clock_11xx.h **** }
  67:../../lib/lpc11cx4-library/lpc_chip_11cxx_lib/inc/clock_11xx.h **** 
  68:../../lib/lpc11cx4-library/lpc_chip_11cxx_lib/inc/clock_11xx.h **** /**
  69:../../lib/lpc11cx4-library/lpc_chip_11cxx_lib/inc/clock_11xx.h ****  * Clock sources for system and USB PLLs
  70:../../lib/lpc11cx4-library/lpc_chip_11cxx_lib/inc/clock_11xx.h ****  */
  71:../../lib/lpc11cx4-library/lpc_chip_11cxx_lib/inc/clock_11xx.h **** typedef enum CHIP_SYSCTL_PLLCLKSRC {
  72:../../lib/lpc11cx4-library/lpc_chip_11cxx_lib/inc/clock_11xx.h **** 	SYSCTL_PLLCLKSRC_IRC = 0,		/*!< Internal oscillator in */
  73:../../lib/lpc11cx4-library/lpc_chip_11cxx_lib/inc/clock_11xx.h **** 	SYSCTL_PLLCLKSRC_MAINOSC,		/*!< Crystal (main) oscillator in */
  74:../../lib/lpc11cx4-library/lpc_chip_11cxx_lib/inc/clock_11xx.h **** #if defined(CHIP_LPC11AXX)
  75:../../lib/lpc11cx4-library/lpc_chip_11cxx_lib/inc/clock_11xx.h **** 	SYSCTL_PLLCLKSRC_EXT_CLKIN,	/*!< External clock in (11Axx only) */
  76:../../lib/lpc11cx4-library/lpc_chip_11cxx_lib/inc/clock_11xx.h **** #else
  77:../../lib/lpc11cx4-library/lpc_chip_11cxx_lib/inc/clock_11xx.h **** 	SYSCTL_PLLCLKSRC_RESERVED1,	/*!< Reserved */
  78:../../lib/lpc11cx4-library/lpc_chip_11cxx_lib/inc/clock_11xx.h **** #endif
  79:../../lib/lpc11cx4-library/lpc_chip_11cxx_lib/inc/clock_11xx.h **** 	SYSCTL_PLLCLKSRC_RESERVED2,	/*!< Reserved */
  80:../../lib/lpc11cx4-library/lpc_chip_11cxx_lib/inc/clock_11xx.h **** } CHIP_SYSCTL_PLLCLKSRC_T;
  81:../../lib/lpc11cx4-library/lpc_chip_11cxx_lib/inc/clock_11xx.h **** 
  82:../../lib/lpc11cx4-library/lpc_chip_11cxx_lib/inc/clock_11xx.h **** /**
  83:../../lib/lpc11cx4-library/lpc_chip_11cxx_lib/inc/clock_11xx.h ****  * @brief	Set System PLL clock source
  84:../../lib/lpc11cx4-library/lpc_chip_11cxx_lib/inc/clock_11xx.h ****  * @param	src	: Clock source for system PLL
  85:../../lib/lpc11cx4-library/lpc_chip_11cxx_lib/inc/clock_11xx.h ****  * @return	Nothing
  86:../../lib/lpc11cx4-library/lpc_chip_11cxx_lib/inc/clock_11xx.h ****  * @note	This function will also toggle the clock source update register
  87:../../lib/lpc11cx4-library/lpc_chip_11cxx_lib/inc/clock_11xx.h ****  * to update the clock source.
  88:../../lib/lpc11cx4-library/lpc_chip_11cxx_lib/inc/clock_11xx.h ****  */
  89:../../lib/lpc11cx4-library/lpc_chip_11cxx_lib/inc/clock_11xx.h **** void Chip_Clock_SetSystemPLLSource(CHIP_SYSCTL_PLLCLKSRC_T src);
  90:../../lib/lpc11cx4-library/lpc_chip_11cxx_lib/inc/clock_11xx.h **** 
  91:../../lib/lpc11cx4-library/lpc_chip_11cxx_lib/inc/clock_11xx.h **** #if defined(CHIP_LPC11UXX)
  92:../../lib/lpc11cx4-library/lpc_chip_11cxx_lib/inc/clock_11xx.h **** /**
  93:../../lib/lpc11cx4-library/lpc_chip_11cxx_lib/inc/clock_11xx.h ****  * @brief	Set USB PLL divider values
  94:../../lib/lpc11cx4-library/lpc_chip_11cxx_lib/inc/clock_11xx.h ****  * @param	msel    : PLL feedback divider value. M = msel + 1.
  95:../../lib/lpc11cx4-library/lpc_chip_11cxx_lib/inc/clock_11xx.h ****  * @param	psel    : PLL post divider value. P = (1<<psel).
  96:../../lib/lpc11cx4-library/lpc_chip_11cxx_lib/inc/clock_11xx.h ****  * @return	Nothing
  97:../../lib/lpc11cx4-library/lpc_chip_11cxx_lib/inc/clock_11xx.h ****  * @note	See the user manual for how to setup the PLL.
  98:../../lib/lpc11cx4-library/lpc_chip_11cxx_lib/inc/clock_11xx.h ****  */
  99:../../lib/lpc11cx4-library/lpc_chip_11cxx_lib/inc/clock_11xx.h **** STATIC INLINE void Chip_Clock_SetupUSBPLL(uint8_t msel, uint8_t psel)
 100:../../lib/lpc11cx4-library/lpc_chip_11cxx_lib/inc/clock_11xx.h **** {
 101:../../lib/lpc11cx4-library/lpc_chip_11cxx_lib/inc/clock_11xx.h **** 	LPC_SYSCTL->USBPLLCTRL = (msel & 0x1F) | ((psel & 0x3) << 5);
 102:../../lib/lpc11cx4-library/lpc_chip_11cxx_lib/inc/clock_11xx.h **** }
 103:../../lib/lpc11cx4-library/lpc_chip_11cxx_lib/inc/clock_11xx.h **** 
 104:../../lib/lpc11cx4-library/lpc_chip_11cxx_lib/inc/clock_11xx.h **** /**
 105:../../lib/lpc11cx4-library/lpc_chip_11cxx_lib/inc/clock_11xx.h ****  * @brief	Read USB PLL lock status
 106:../../lib/lpc11cx4-library/lpc_chip_11cxx_lib/inc/clock_11xx.h ****  * @return	true of the PLL is locked. false if not locked
 107:../../lib/lpc11cx4-library/lpc_chip_11cxx_lib/inc/clock_11xx.h ****  */
ARM GAS  /var/folders/z0/6xlwn_996xz3mwq1cgzkbq4r0000gp/T//cc0Pdjko.s 			page 28


 108:../../lib/lpc11cx4-library/lpc_chip_11cxx_lib/inc/clock_11xx.h **** STATIC INLINE bool Chip_Clock_IsUSBPLLLocked(void)
 109:../../lib/lpc11cx4-library/lpc_chip_11cxx_lib/inc/clock_11xx.h **** {
 110:../../lib/lpc11cx4-library/lpc_chip_11cxx_lib/inc/clock_11xx.h **** 	return (bool) ((LPC_SYSCTL->USBPLLSTAT & 1) != 0);
 111:../../lib/lpc11cx4-library/lpc_chip_11cxx_lib/inc/clock_11xx.h **** }
 112:../../lib/lpc11cx4-library/lpc_chip_11cxx_lib/inc/clock_11xx.h **** 
 113:../../lib/lpc11cx4-library/lpc_chip_11cxx_lib/inc/clock_11xx.h **** /**
 114:../../lib/lpc11cx4-library/lpc_chip_11cxx_lib/inc/clock_11xx.h ****  * @brief	Set USB PLL clock source
 115:../../lib/lpc11cx4-library/lpc_chip_11cxx_lib/inc/clock_11xx.h ****  * @param	src	: Clock source for USB PLL
 116:../../lib/lpc11cx4-library/lpc_chip_11cxx_lib/inc/clock_11xx.h ****  * @return	Nothing
 117:../../lib/lpc11cx4-library/lpc_chip_11cxx_lib/inc/clock_11xx.h ****  * @note	This function will also toggle the clock source update register
 118:../../lib/lpc11cx4-library/lpc_chip_11cxx_lib/inc/clock_11xx.h ****  * to update the clock source.
 119:../../lib/lpc11cx4-library/lpc_chip_11cxx_lib/inc/clock_11xx.h ****  */
 120:../../lib/lpc11cx4-library/lpc_chip_11cxx_lib/inc/clock_11xx.h **** void Chip_Clock_SetUSBPLLSource(CHIP_SYSCTL_PLLCLKSRC_T src);
 121:../../lib/lpc11cx4-library/lpc_chip_11cxx_lib/inc/clock_11xx.h **** 
 122:../../lib/lpc11cx4-library/lpc_chip_11cxx_lib/inc/clock_11xx.h **** #endif /*defined(CHIP_LPC11UXX)*/
 123:../../lib/lpc11cx4-library/lpc_chip_11cxx_lib/inc/clock_11xx.h **** 
 124:../../lib/lpc11cx4-library/lpc_chip_11cxx_lib/inc/clock_11xx.h **** /**
 125:../../lib/lpc11cx4-library/lpc_chip_11cxx_lib/inc/clock_11xx.h ****  * @brief	Bypass System Oscillator and set oscillator frequency range
 126:../../lib/lpc11cx4-library/lpc_chip_11cxx_lib/inc/clock_11xx.h ****  * @param	bypass	: Flag to bypass oscillator
 127:../../lib/lpc11cx4-library/lpc_chip_11cxx_lib/inc/clock_11xx.h ****  * @param	highfr	: Flag to set oscillator range from 15-25 MHz
 128:../../lib/lpc11cx4-library/lpc_chip_11cxx_lib/inc/clock_11xx.h ****  * @return	Nothing
 129:../../lib/lpc11cx4-library/lpc_chip_11cxx_lib/inc/clock_11xx.h ****  * @note	Sets the PLL input to bypass the oscillator. This would be
 130:../../lib/lpc11cx4-library/lpc_chip_11cxx_lib/inc/clock_11xx.h ****  * used if an external clock that is not an oscillator is attached
 131:../../lib/lpc11cx4-library/lpc_chip_11cxx_lib/inc/clock_11xx.h ****  * to the XTALIN pin.
 132:../../lib/lpc11cx4-library/lpc_chip_11cxx_lib/inc/clock_11xx.h ****  */
 133:../../lib/lpc11cx4-library/lpc_chip_11cxx_lib/inc/clock_11xx.h **** void Chip_Clock_SetPLLBypass(bool bypass, bool highfr);
 134:../../lib/lpc11cx4-library/lpc_chip_11cxx_lib/inc/clock_11xx.h **** 
 135:../../lib/lpc11cx4-library/lpc_chip_11cxx_lib/inc/clock_11xx.h **** /**
 136:../../lib/lpc11cx4-library/lpc_chip_11cxx_lib/inc/clock_11xx.h ****  * Watchdog and low frequency oscillator frequencies plus or minus 40%
 137:../../lib/lpc11cx4-library/lpc_chip_11cxx_lib/inc/clock_11xx.h ****  */
 138:../../lib/lpc11cx4-library/lpc_chip_11cxx_lib/inc/clock_11xx.h **** typedef enum CHIP_WDTLFO_OSC {
 139:../../lib/lpc11cx4-library/lpc_chip_11cxx_lib/inc/clock_11xx.h **** 	WDTLFO_OSC_ILLEGAL,
 140:../../lib/lpc11cx4-library/lpc_chip_11cxx_lib/inc/clock_11xx.h **** 	WDTLFO_OSC_0_60,	/*!< 0.6 MHz watchdog/LFO rate */
 141:../../lib/lpc11cx4-library/lpc_chip_11cxx_lib/inc/clock_11xx.h **** 	WDTLFO_OSC_1_05,	/*!< 1.05 MHz watchdog/LFO rate */
 142:../../lib/lpc11cx4-library/lpc_chip_11cxx_lib/inc/clock_11xx.h **** 	WDTLFO_OSC_1_40,	/*!< 1.4 MHz watchdog/LFO rate */
 143:../../lib/lpc11cx4-library/lpc_chip_11cxx_lib/inc/clock_11xx.h **** 	WDTLFO_OSC_1_75,	/*!< 1.75 MHz watchdog/LFO rate */
 144:../../lib/lpc11cx4-library/lpc_chip_11cxx_lib/inc/clock_11xx.h **** 	WDTLFO_OSC_2_10,	/*!< 2.1 MHz watchdog/LFO rate */
 145:../../lib/lpc11cx4-library/lpc_chip_11cxx_lib/inc/clock_11xx.h **** 	WDTLFO_OSC_2_40,	/*!< 2.4 MHz watchdog/LFO rate */
 146:../../lib/lpc11cx4-library/lpc_chip_11cxx_lib/inc/clock_11xx.h **** 	WDTLFO_OSC_2_70,	/*!< 2.7 MHz watchdog/LFO rate */
 147:../../lib/lpc11cx4-library/lpc_chip_11cxx_lib/inc/clock_11xx.h **** 	WDTLFO_OSC_3_00,	/*!< 3.0 MHz watchdog/LFO rate */
 148:../../lib/lpc11cx4-library/lpc_chip_11cxx_lib/inc/clock_11xx.h **** 	WDTLFO_OSC_3_25,	/*!< 3.25 MHz watchdog/LFO rate */
 149:../../lib/lpc11cx4-library/lpc_chip_11cxx_lib/inc/clock_11xx.h **** 	WDTLFO_OSC_3_50,	/*!< 3.5 MHz watchdog/LFO rate */
 150:../../lib/lpc11cx4-library/lpc_chip_11cxx_lib/inc/clock_11xx.h **** 	WDTLFO_OSC_3_75,	/*!< 3.75 MHz watchdog/LFO rate */
 151:../../lib/lpc11cx4-library/lpc_chip_11cxx_lib/inc/clock_11xx.h **** 	WDTLFO_OSC_4_00,	/*!< 4.0 MHz watchdog/LFO rate */
 152:../../lib/lpc11cx4-library/lpc_chip_11cxx_lib/inc/clock_11xx.h **** 	WDTLFO_OSC_4_20,	/*!< 4.2 MHz watchdog/LFO rate */
 153:../../lib/lpc11cx4-library/lpc_chip_11cxx_lib/inc/clock_11xx.h **** 	WDTLFO_OSC_4_40,	/*!< 4.4 MHz watchdog/LFO rate */
 154:../../lib/lpc11cx4-library/lpc_chip_11cxx_lib/inc/clock_11xx.h **** 	WDTLFO_OSC_4_60		/*!< 4.6 MHz watchdog/LFO rate */
 155:../../lib/lpc11cx4-library/lpc_chip_11cxx_lib/inc/clock_11xx.h **** } CHIP_WDTLFO_OSC_T;
 156:../../lib/lpc11cx4-library/lpc_chip_11cxx_lib/inc/clock_11xx.h **** 
 157:../../lib/lpc11cx4-library/lpc_chip_11cxx_lib/inc/clock_11xx.h **** /**
 158:../../lib/lpc11cx4-library/lpc_chip_11cxx_lib/inc/clock_11xx.h ****  * @brief	Setup Watchdog oscillator rate and divider
 159:../../lib/lpc11cx4-library/lpc_chip_11cxx_lib/inc/clock_11xx.h ****  * @param	wdtclk	: Selected watchdog clock rate
 160:../../lib/lpc11cx4-library/lpc_chip_11cxx_lib/inc/clock_11xx.h ****  * @param	div		: Watchdog divider value, even value between 2 and 64
 161:../../lib/lpc11cx4-library/lpc_chip_11cxx_lib/inc/clock_11xx.h ****  * @return	Nothing
 162:../../lib/lpc11cx4-library/lpc_chip_11cxx_lib/inc/clock_11xx.h ****  * @note	Watchdog rate = selected rate divided by divider rate
 163:../../lib/lpc11cx4-library/lpc_chip_11cxx_lib/inc/clock_11xx.h ****  */
 164:../../lib/lpc11cx4-library/lpc_chip_11cxx_lib/inc/clock_11xx.h **** STATIC INLINE void Chip_Clock_SetWDTOSC(CHIP_WDTLFO_OSC_T wdtclk, uint8_t div)
ARM GAS  /var/folders/z0/6xlwn_996xz3mwq1cgzkbq4r0000gp/T//cc0Pdjko.s 			page 29


 165:../../lib/lpc11cx4-library/lpc_chip_11cxx_lib/inc/clock_11xx.h **** {
 166:../../lib/lpc11cx4-library/lpc_chip_11cxx_lib/inc/clock_11xx.h **** 	LPC_SYSCTL->WDTOSCCTRL  = (((uint32_t) wdtclk) << 5) | ((div >> 1) - 1);
 167:../../lib/lpc11cx4-library/lpc_chip_11cxx_lib/inc/clock_11xx.h **** }
 168:../../lib/lpc11cx4-library/lpc_chip_11cxx_lib/inc/clock_11xx.h **** 
 169:../../lib/lpc11cx4-library/lpc_chip_11cxx_lib/inc/clock_11xx.h **** #if defined(CHIP_LPC11AXX)
 170:../../lib/lpc11cx4-library/lpc_chip_11cxx_lib/inc/clock_11xx.h **** /**
 171:../../lib/lpc11cx4-library/lpc_chip_11cxx_lib/inc/clock_11xx.h ****  * @brief	Setup low frequency oscillator rate and divider
 172:../../lib/lpc11cx4-library/lpc_chip_11cxx_lib/inc/clock_11xx.h ****  * @param	lfoclk	: Selected low frequency clock rate
 173:../../lib/lpc11cx4-library/lpc_chip_11cxx_lib/inc/clock_11xx.h ****  * @param	div		: Low frequency divider value, even value between 2 and 64
 174:../../lib/lpc11cx4-library/lpc_chip_11cxx_lib/inc/clock_11xx.h ****  * @return	Nothing
 175:../../lib/lpc11cx4-library/lpc_chip_11cxx_lib/inc/clock_11xx.h ****  * @note	Low frequency oscillator rate = selected rate divided by divider rate
 176:../../lib/lpc11cx4-library/lpc_chip_11cxx_lib/inc/clock_11xx.h ****  */
 177:../../lib/lpc11cx4-library/lpc_chip_11cxx_lib/inc/clock_11xx.h **** STATIC INLINE void Chip_Clock_SetLFOSC(CHIP_WDTLFO_OSC_T lfoclk, uint8_t div)
 178:../../lib/lpc11cx4-library/lpc_chip_11cxx_lib/inc/clock_11xx.h **** {
 179:../../lib/lpc11cx4-library/lpc_chip_11cxx_lib/inc/clock_11xx.h **** 	LPC_SYSCTL->LFOSCCTRL  = (((uint32_t) lfoclk) << 5) | ((div >> 1) - 1);
 180:../../lib/lpc11cx4-library/lpc_chip_11cxx_lib/inc/clock_11xx.h **** }
 181:../../lib/lpc11cx4-library/lpc_chip_11cxx_lib/inc/clock_11xx.h **** 
 182:../../lib/lpc11cx4-library/lpc_chip_11cxx_lib/inc/clock_11xx.h **** #endif /*CHIP_LPC11AXX*/
 183:../../lib/lpc11cx4-library/lpc_chip_11cxx_lib/inc/clock_11xx.h **** 
 184:../../lib/lpc11cx4-library/lpc_chip_11cxx_lib/inc/clock_11xx.h **** /**
 185:../../lib/lpc11cx4-library/lpc_chip_11cxx_lib/inc/clock_11xx.h ****  * Clock sources for main system clock
 186:../../lib/lpc11cx4-library/lpc_chip_11cxx_lib/inc/clock_11xx.h ****  */
 187:../../lib/lpc11cx4-library/lpc_chip_11cxx_lib/inc/clock_11xx.h **** typedef enum CHIP_SYSCTL_MAINCLKSRC {
 188:../../lib/lpc11cx4-library/lpc_chip_11cxx_lib/inc/clock_11xx.h **** 	SYSCTL_MAINCLKSRC_IRC = 0,		/*!< Internal oscillator */
 189:../../lib/lpc11cx4-library/lpc_chip_11cxx_lib/inc/clock_11xx.h **** 	SYSCTL_MAINCLKSRC_PLLIN,		/*!< System PLL input */
 190:../../lib/lpc11cx4-library/lpc_chip_11cxx_lib/inc/clock_11xx.h **** 	SYSCTL_MAINCLKSRC_LFOSC,		/*!< LF oscillator rate (11Axx only) */
 191:../../lib/lpc11cx4-library/lpc_chip_11cxx_lib/inc/clock_11xx.h **** 	SYSCTL_MAINCLKSRC_WDTOSC = SYSCTL_MAINCLKSRC_LFOSC,	/*!< Watchdog oscillator rate */
 192:../../lib/lpc11cx4-library/lpc_chip_11cxx_lib/inc/clock_11xx.h **** 	SYSCTL_MAINCLKSRC_PLLOUT,		/*!< System PLL output */
 193:../../lib/lpc11cx4-library/lpc_chip_11cxx_lib/inc/clock_11xx.h **** } CHIP_SYSCTL_MAINCLKSRC_T;
 194:../../lib/lpc11cx4-library/lpc_chip_11cxx_lib/inc/clock_11xx.h **** 
 195:../../lib/lpc11cx4-library/lpc_chip_11cxx_lib/inc/clock_11xx.h **** /**
 196:../../lib/lpc11cx4-library/lpc_chip_11cxx_lib/inc/clock_11xx.h ****  * @brief	Set main system clock source
 197:../../lib/lpc11cx4-library/lpc_chip_11cxx_lib/inc/clock_11xx.h ****  * @param	src	: Clock source for main system
 198:../../lib/lpc11cx4-library/lpc_chip_11cxx_lib/inc/clock_11xx.h ****  * @return	Nothing
 199:../../lib/lpc11cx4-library/lpc_chip_11cxx_lib/inc/clock_11xx.h ****  * @note	This function will also toggle the clock source update register
 200:../../lib/lpc11cx4-library/lpc_chip_11cxx_lib/inc/clock_11xx.h ****  * to update the clock source.
 201:../../lib/lpc11cx4-library/lpc_chip_11cxx_lib/inc/clock_11xx.h ****  */
 202:../../lib/lpc11cx4-library/lpc_chip_11cxx_lib/inc/clock_11xx.h **** void Chip_Clock_SetMainClockSource(CHIP_SYSCTL_MAINCLKSRC_T src);
 203:../../lib/lpc11cx4-library/lpc_chip_11cxx_lib/inc/clock_11xx.h **** 
 204:../../lib/lpc11cx4-library/lpc_chip_11cxx_lib/inc/clock_11xx.h **** /**
 205:../../lib/lpc11cx4-library/lpc_chip_11cxx_lib/inc/clock_11xx.h ****  * @brief   Returns the main clock source
 206:../../lib/lpc11cx4-library/lpc_chip_11cxx_lib/inc/clock_11xx.h ****  * @return	Which clock is used for the core clock source?
 207:../../lib/lpc11cx4-library/lpc_chip_11cxx_lib/inc/clock_11xx.h ****  */
 208:../../lib/lpc11cx4-library/lpc_chip_11cxx_lib/inc/clock_11xx.h **** STATIC INLINE CHIP_SYSCTL_MAINCLKSRC_T Chip_Clock_GetMainClockSource(void)
 209:../../lib/lpc11cx4-library/lpc_chip_11cxx_lib/inc/clock_11xx.h **** {
 210:../../lib/lpc11cx4-library/lpc_chip_11cxx_lib/inc/clock_11xx.h **** 	return (CHIP_SYSCTL_MAINCLKSRC_T) (LPC_SYSCTL->MAINCLKSEL);
 211:../../lib/lpc11cx4-library/lpc_chip_11cxx_lib/inc/clock_11xx.h **** }
 212:../../lib/lpc11cx4-library/lpc_chip_11cxx_lib/inc/clock_11xx.h **** 
 213:../../lib/lpc11cx4-library/lpc_chip_11cxx_lib/inc/clock_11xx.h **** /**
 214:../../lib/lpc11cx4-library/lpc_chip_11cxx_lib/inc/clock_11xx.h ****  * @brief	Set system clock divider
 215:../../lib/lpc11cx4-library/lpc_chip_11cxx_lib/inc/clock_11xx.h ****  * @param	div	: divider for system clock
 216:../../lib/lpc11cx4-library/lpc_chip_11cxx_lib/inc/clock_11xx.h ****  * @return	Nothing
 217:../../lib/lpc11cx4-library/lpc_chip_11cxx_lib/inc/clock_11xx.h ****  * @note	Use 0 to disable, or a divider value of 1 to 255. The system clock
 218:../../lib/lpc11cx4-library/lpc_chip_11cxx_lib/inc/clock_11xx.h ****  * rate is the main system clock divided by this value.
 219:../../lib/lpc11cx4-library/lpc_chip_11cxx_lib/inc/clock_11xx.h ****  */
 220:../../lib/lpc11cx4-library/lpc_chip_11cxx_lib/inc/clock_11xx.h **** STATIC INLINE void Chip_Clock_SetSysClockDiv(uint32_t div)
 221:../../lib/lpc11cx4-library/lpc_chip_11cxx_lib/inc/clock_11xx.h **** {
ARM GAS  /var/folders/z0/6xlwn_996xz3mwq1cgzkbq4r0000gp/T//cc0Pdjko.s 			page 30


 222:../../lib/lpc11cx4-library/lpc_chip_11cxx_lib/inc/clock_11xx.h **** 	LPC_SYSCTL->SYSAHBCLKDIV  = div;
 223:../../lib/lpc11cx4-library/lpc_chip_11cxx_lib/inc/clock_11xx.h **** }
 224:../../lib/lpc11cx4-library/lpc_chip_11cxx_lib/inc/clock_11xx.h **** 
 225:../../lib/lpc11cx4-library/lpc_chip_11cxx_lib/inc/clock_11xx.h **** /**
 226:../../lib/lpc11cx4-library/lpc_chip_11cxx_lib/inc/clock_11xx.h ****  * System and peripheral clocks
 227:../../lib/lpc11cx4-library/lpc_chip_11cxx_lib/inc/clock_11xx.h ****  */
 228:../../lib/lpc11cx4-library/lpc_chip_11cxx_lib/inc/clock_11xx.h **** typedef enum CHIP_SYSCTL_CLOCK {
 229:../../lib/lpc11cx4-library/lpc_chip_11cxx_lib/inc/clock_11xx.h **** 	SYSCTL_CLOCK_SYS = 0,				/*!< 0: System clock */
 230:../../lib/lpc11cx4-library/lpc_chip_11cxx_lib/inc/clock_11xx.h **** 	SYSCTL_CLOCK_ROM,					/*!<1:  ROM clock */
 231:../../lib/lpc11cx4-library/lpc_chip_11cxx_lib/inc/clock_11xx.h **** 	SYSCTL_CLOCK_RAM,					/*!< 2: RAM clock */
 232:../../lib/lpc11cx4-library/lpc_chip_11cxx_lib/inc/clock_11xx.h **** 	SYSCTL_CLOCK_FLASHREG,				/*!< 3: FLASH register interface clock */
 233:../../lib/lpc11cx4-library/lpc_chip_11cxx_lib/inc/clock_11xx.h **** 	SYSCTL_CLOCK_FLASHARRAY,			/*!< 4: FLASH array access clock */
 234:../../lib/lpc11cx4-library/lpc_chip_11cxx_lib/inc/clock_11xx.h **** #if defined(CHIP_LPC110X)
 235:../../lib/lpc11cx4-library/lpc_chip_11cxx_lib/inc/clock_11xx.h **** 	SYSCTL_CLOCK_RESERVED5,				/*!< 5: Reserved */
 236:../../lib/lpc11cx4-library/lpc_chip_11cxx_lib/inc/clock_11xx.h **** #else
 237:../../lib/lpc11cx4-library/lpc_chip_11cxx_lib/inc/clock_11xx.h **** 	SYSCTL_CLOCK_I2C,					/*!< 5: I2C clock, not on LPC110x */
 238:../../lib/lpc11cx4-library/lpc_chip_11cxx_lib/inc/clock_11xx.h **** #endif
 239:../../lib/lpc11cx4-library/lpc_chip_11cxx_lib/inc/clock_11xx.h **** 	SYSCTL_CLOCK_GPIO,					/*!< 6: GPIO clock */
 240:../../lib/lpc11cx4-library/lpc_chip_11cxx_lib/inc/clock_11xx.h **** 	SYSCTL_CLOCK_CT16B0,				/*!< 7: 16-bit Counter/timer 0 clock */
 241:../../lib/lpc11cx4-library/lpc_chip_11cxx_lib/inc/clock_11xx.h **** 	SYSCTL_CLOCK_CT16B1,				/*!< 8: 16-bit Counter/timer 1 clock */
 242:../../lib/lpc11cx4-library/lpc_chip_11cxx_lib/inc/clock_11xx.h **** 	SYSCTL_CLOCK_CT32B0,				/*!< 9: 32-bit Counter/timer 0 clock */
 243:../../lib/lpc11cx4-library/lpc_chip_11cxx_lib/inc/clock_11xx.h **** 	SYSCTL_CLOCK_CT32B1,				/*!< 10: 32-bit Counter/timer 1 clock */
 244:../../lib/lpc11cx4-library/lpc_chip_11cxx_lib/inc/clock_11xx.h **** 	SYSCTL_CLOCK_SSP0,					/*!< 11: SSP0 clock */
 245:../../lib/lpc11cx4-library/lpc_chip_11cxx_lib/inc/clock_11xx.h **** 	SYSCTL_CLOCK_UART0,					/*!< 12: UART0 clock */
 246:../../lib/lpc11cx4-library/lpc_chip_11cxx_lib/inc/clock_11xx.h **** 	SYSCTL_CLOCK_ADC,					/*!< 13: ADC clock */
 247:../../lib/lpc11cx4-library/lpc_chip_11cxx_lib/inc/clock_11xx.h **** #if defined(CHIP_LPC11UXX)
 248:../../lib/lpc11cx4-library/lpc_chip_11cxx_lib/inc/clock_11xx.h **** 	SYSCTL_CLOCK_USB,					/*!< 14: USB clock, LPC11Uxx only */
 249:../../lib/lpc11cx4-library/lpc_chip_11cxx_lib/inc/clock_11xx.h **** #else
 250:../../lib/lpc11cx4-library/lpc_chip_11cxx_lib/inc/clock_11xx.h **** 	SYSCTL_CLOCK_RESERVED14,			/*!< 14: Reserved */
 251:../../lib/lpc11cx4-library/lpc_chip_11cxx_lib/inc/clock_11xx.h **** #endif
 252:../../lib/lpc11cx4-library/lpc_chip_11cxx_lib/inc/clock_11xx.h **** 	SYSCTL_CLOCK_WDT,					/*!< 15: Watchdog timer clock */
 253:../../lib/lpc11cx4-library/lpc_chip_11cxx_lib/inc/clock_11xx.h **** 	SYSCTL_CLOCK_IOCON,					/*!< 16: IOCON block clock */
 254:../../lib/lpc11cx4-library/lpc_chip_11cxx_lib/inc/clock_11xx.h **** #if defined(CHIP_LPC11CXX)
 255:../../lib/lpc11cx4-library/lpc_chip_11cxx_lib/inc/clock_11xx.h **** 	SYSCTL_CLOCK_CAN,					/*!< 17: CAN clock, LPC11Cxx only */
 256:../../lib/lpc11cx4-library/lpc_chip_11cxx_lib/inc/clock_11xx.h **** #else
 257:../../lib/lpc11cx4-library/lpc_chip_11cxx_lib/inc/clock_11xx.h **** 	SYSCTL_CLOCK_RESERVED17,			/*!< 17: Reserved */
 258:../../lib/lpc11cx4-library/lpc_chip_11cxx_lib/inc/clock_11xx.h **** #endif
 259:../../lib/lpc11cx4-library/lpc_chip_11cxx_lib/inc/clock_11xx.h **** #if !(defined(CHIP_LPC110X) || defined(CHIP_LPC11XXLV))  
 260:../../lib/lpc11cx4-library/lpc_chip_11cxx_lib/inc/clock_11xx.h **** 	SYSCTL_CLOCK_SSP1,					/*!< 18: SSP1 clock, LPC11A/C/E/Uxx//1125 only */
 261:../../lib/lpc11cx4-library/lpc_chip_11cxx_lib/inc/clock_11xx.h **** #if !defined(CHIP_LPC11CXX)
 262:../../lib/lpc11cx4-library/lpc_chip_11cxx_lib/inc/clock_11xx.h **** 	SYSCTL_CLOCK_PINT,					/*!< 19: GPIO Pin int register interface clock, LPC11A/E/Uxx only */
 263:../../lib/lpc11cx4-library/lpc_chip_11cxx_lib/inc/clock_11xx.h **** #if defined(CHIP_LPC11AXX)
 264:../../lib/lpc11cx4-library/lpc_chip_11cxx_lib/inc/clock_11xx.h **** 	SYSCTL_CLOCK_ACOMP,					/*!< 20: Analog comparator clock, LPC11Axx only */
 265:../../lib/lpc11cx4-library/lpc_chip_11cxx_lib/inc/clock_11xx.h **** 	SYSCTL_CLOCK_DAC,					/*!< 21: DAC clock, LPC11Axx only */
 266:../../lib/lpc11cx4-library/lpc_chip_11cxx_lib/inc/clock_11xx.h **** #else
 267:../../lib/lpc11cx4-library/lpc_chip_11cxx_lib/inc/clock_11xx.h **** 	SYSCTL_CLOCK_RESERVED20,			/*!< 20: Reserved */
 268:../../lib/lpc11cx4-library/lpc_chip_11cxx_lib/inc/clock_11xx.h **** 	SYSCTL_CLOCK_RESERVED21,			/*!< 21: Reserved */
 269:../../lib/lpc11cx4-library/lpc_chip_11cxx_lib/inc/clock_11xx.h **** #endif
 270:../../lib/lpc11cx4-library/lpc_chip_11cxx_lib/inc/clock_11xx.h **** 	SYSCTL_CLOCK_RESERVED22,			/*!< 22: Reserved */
 271:../../lib/lpc11cx4-library/lpc_chip_11cxx_lib/inc/clock_11xx.h **** 	SYSCTL_CLOCK_P0INT,					/*!< 23: GPIO GROUP1 interrupt register clock, LPC11Axx only */
 272:../../lib/lpc11cx4-library/lpc_chip_11cxx_lib/inc/clock_11xx.h **** 	SYSCTL_CLOCK_GROUP0INT = SYSCTL_CLOCK_P0INT,/*!< 23: GPIO GROUP0 interrupt register interface cloc
 273:../../lib/lpc11cx4-library/lpc_chip_11cxx_lib/inc/clock_11xx.h **** 	SYSCTL_CLOCK_P1INT,					/*!< 24: GPIO GROUP1 interrupt register clock, LPC11Axx only */
 274:../../lib/lpc11cx4-library/lpc_chip_11cxx_lib/inc/clock_11xx.h **** 	SYSCTL_CLOCK_GROUP1INT = SYSCTL_CLOCK_P1INT,/*!< 24: GPIO GROUP1 interrupt register interface cloc
 275:../../lib/lpc11cx4-library/lpc_chip_11cxx_lib/inc/clock_11xx.h **** 	SYSCTL_CLOCK_RESERVED25,			/*!< 25: Reserved */
 276:../../lib/lpc11cx4-library/lpc_chip_11cxx_lib/inc/clock_11xx.h **** #if defined(CHIP_LPC11EXX)  || defined(CHIP_LPC11UXX)
 277:../../lib/lpc11cx4-library/lpc_chip_11cxx_lib/inc/clock_11xx.h **** 	SYSCTL_CLOCK_RAM1,					/*!< 26: SRAM block (0x20000000) clock, LPC11E/Uxx only */
 278:../../lib/lpc11cx4-library/lpc_chip_11cxx_lib/inc/clock_11xx.h **** #else
ARM GAS  /var/folders/z0/6xlwn_996xz3mwq1cgzkbq4r0000gp/T//cc0Pdjko.s 			page 31


 279:../../lib/lpc11cx4-library/lpc_chip_11cxx_lib/inc/clock_11xx.h **** 	SYSCTL_CLOCK_RESERVED26,			/*!< 26: Reserved */
 280:../../lib/lpc11cx4-library/lpc_chip_11cxx_lib/inc/clock_11xx.h **** #endif
 281:../../lib/lpc11cx4-library/lpc_chip_11cxx_lib/inc/clock_11xx.h **** #if defined(CHIP_LPC11UXX)
 282:../../lib/lpc11cx4-library/lpc_chip_11cxx_lib/inc/clock_11xx.h **** 	SYSCTL_CLOCK_USBRAM,				/*!< 27: USB SRAM block clock, LPC11Uxx only */
 283:../../lib/lpc11cx4-library/lpc_chip_11cxx_lib/inc/clock_11xx.h **** #else
 284:../../lib/lpc11cx4-library/lpc_chip_11cxx_lib/inc/clock_11xx.h **** 	SYSCTL_CLOCK_RESERVED27,			/*!< 27: Reserved */
 285:../../lib/lpc11cx4-library/lpc_chip_11cxx_lib/inc/clock_11xx.h **** #endif
 286:../../lib/lpc11cx4-library/lpc_chip_11cxx_lib/inc/clock_11xx.h **** #endif /* !defined(CHIP_LPC11CXX) */
 287:../../lib/lpc11cx4-library/lpc_chip_11cxx_lib/inc/clock_11xx.h **** #endif /* !(defined(CHIP_LPC110X) || defined(CHIP_LPC11XXLV)) */
 288:../../lib/lpc11cx4-library/lpc_chip_11cxx_lib/inc/clock_11xx.h **** } CHIP_SYSCTL_CLOCK_T;
 289:../../lib/lpc11cx4-library/lpc_chip_11cxx_lib/inc/clock_11xx.h **** 
 290:../../lib/lpc11cx4-library/lpc_chip_11cxx_lib/inc/clock_11xx.h **** /**
 291:../../lib/lpc11cx4-library/lpc_chip_11cxx_lib/inc/clock_11xx.h ****  * @brief	Enable a system or peripheral clock
 292:../../lib/lpc11cx4-library/lpc_chip_11cxx_lib/inc/clock_11xx.h ****  * @param	clk	: Clock to enable
 293:../../lib/lpc11cx4-library/lpc_chip_11cxx_lib/inc/clock_11xx.h ****  * @return	Nothing
 294:../../lib/lpc11cx4-library/lpc_chip_11cxx_lib/inc/clock_11xx.h ****  */
 295:../../lib/lpc11cx4-library/lpc_chip_11cxx_lib/inc/clock_11xx.h **** STATIC INLINE void Chip_Clock_EnablePeriphClock(CHIP_SYSCTL_CLOCK_T clk)
 296:../../lib/lpc11cx4-library/lpc_chip_11cxx_lib/inc/clock_11xx.h **** {
 297:../../lib/lpc11cx4-library/lpc_chip_11cxx_lib/inc/clock_11xx.h **** 	LPC_SYSCTL->SYSAHBCLKCTRL |= (1 << clk);
 934              		.loc 2 297 0
 935 001c 2023     		movs	r3, #32	@ tmp130,
 936 001e 0648     		ldr	r0, .L101+8	@ tmp128,
 937              	.LVL56:
 938 0020 8032     		adds	r2, r2, #128	@ tmp129,
 939 0022 8458     		ldr	r4, [r0, r2]	@ D.6861, MEM[(struct LPC_SYSCTL_T *)1074036736B].SYSAHBCLKCTRL
 940              	.LBE89:
 941              	.LBE88:
 942              	.LBE87:
 378:../../lib/lpc11cx4-library/lpc_chip_11cxx_lib/src/i2c_11xx.c **** 
 379:../../lib/lpc11cx4-library/lpc_chip_11cxx_lib/src/i2c_11xx.c **** 
 380:../../lib/lpc11cx4-library/lpc_chip_11cxx_lib/src/i2c_11xx.c **** 	enableClk(id);
 381:../../lib/lpc11cx4-library/lpc_chip_11cxx_lib/src/i2c_11xx.c **** 
 382:../../lib/lpc11cx4-library/lpc_chip_11cxx_lib/src/i2c_11xx.c **** 	/* Set I2C operation to default */
 383:../../lib/lpc11cx4-library/lpc_chip_11cxx_lib/src/i2c_11xx.c **** 	LPC_I2Cx(id)->CONCLR = (I2C_CON_AA | I2C_CON_SI | I2C_CON_STA | I2C_CON_I2EN);
 384:../../lib/lpc11cx4-library/lpc_chip_11cxx_lib/src/i2c_11xx.c **** }
 943              		.loc 1 384 0
 944              		@ sp needed	@
 945              	.LBB92:
 946              	.LBB91:
 947              	.LBB90:
 948              		.loc 2 297 0
 949 0024 2343     		orrs	r3, r4	@ D.6861, D.6861
 950 0026 8350     		str	r3, [r0, r2]	@ D.6861, MEM[(struct LPC_SYSCTL_T *)1074036736B].SYSAHBCLKCTRL
 951              	.LVL57:
 952              	.LBE90:
 953              	.LBE91:
 954              	.LBE92:
 383:../../lib/lpc11cx4-library/lpc_chip_11cxx_lib/src/i2c_11xx.c **** }
 955              		.loc 1 383 0
 956 0028 6C23     		movs	r3, #108	@ tmp134,
 957 002a 8B61     		str	r3, [r1, #24]	@ tmp134, MEM[(struct LPC_I2C_T *)1073741824B].CONCLR
 958              		.loc 1 384 0
 959 002c 10BD     		pop	{r4, pc}
 960              	.L102:
 961 002e C046     		.align	2
 962              	.L101:
 963 0030 00000000 		.word	.LANCHOR0
ARM GAS  /var/folders/z0/6xlwn_996xz3mwq1cgzkbq4r0000gp/T//cc0Pdjko.s 			page 32


 964 0034 00000000 		.word	Chip_I2C_EventHandler
 965 0038 00800440 		.word	1074036736
 966              		.cfi_endproc
 967              	.LFE214:
 968              		.size	Chip_I2C_Init, .-Chip_I2C_Init
 969              		.section	.text.Chip_I2C_DeInit,"ax",%progbits
 970              		.align	2
 971              		.global	Chip_I2C_DeInit
 972              		.code	16
 973              		.thumb_func
 974              		.type	Chip_I2C_DeInit, %function
 975              	Chip_I2C_DeInit:
 976              	.LFB215:
 385:../../lib/lpc11cx4-library/lpc_chip_11cxx_lib/src/i2c_11xx.c **** 
 386:../../lib/lpc11cx4-library/lpc_chip_11cxx_lib/src/i2c_11xx.c **** /* De-initializes the I2C peripheral registers to their default reset values */
 387:../../lib/lpc11cx4-library/lpc_chip_11cxx_lib/src/i2c_11xx.c **** void Chip_I2C_DeInit(I2C_ID_T id)
 388:../../lib/lpc11cx4-library/lpc_chip_11cxx_lib/src/i2c_11xx.c **** {
 977              		.loc 1 388 0
 978              		.cfi_startproc
 979              		@ args = 0, pretend = 0, frame = 0
 980              		@ frame_needed = 0, uses_anonymous_args = 0
 981              	.LVL58:
 389:../../lib/lpc11cx4-library/lpc_chip_11cxx_lib/src/i2c_11xx.c **** 	/* Disable I2C control */
 390:../../lib/lpc11cx4-library/lpc_chip_11cxx_lib/src/i2c_11xx.c **** 	LPC_I2Cx(id)->CONCLR = I2C_CON_I2EN | I2C_CON_SI | I2C_CON_STO | I2C_CON_STA | I2C_CON_AA;
 982              		.loc 1 390 0
 983 0000 7C21     		movs	r1, #124	@ tmp120,
 388:../../lib/lpc11cx4-library/lpc_chip_11cxx_lib/src/i2c_11xx.c **** 	/* Disable I2C control */
 984              		.loc 1 388 0
 985 0002 10B5     		push	{r4, lr}	@
 986              		.cfi_def_cfa_offset 8
 987              		.cfi_offset 4, -8
 988              		.cfi_offset 14, -4
 989              		.loc 1 390 0
 990 0004 054A     		ldr	r2, .L104	@ tmp119,
 991              	.LBB93:
 992              	.LBB94:
 993              	.LBB95:
 994              	.LBB96:
 298:../../lib/lpc11cx4-library/lpc_chip_11cxx_lib/inc/clock_11xx.h **** }
 299:../../lib/lpc11cx4-library/lpc_chip_11cxx_lib/inc/clock_11xx.h **** 
 300:../../lib/lpc11cx4-library/lpc_chip_11cxx_lib/inc/clock_11xx.h **** /**
 301:../../lib/lpc11cx4-library/lpc_chip_11cxx_lib/inc/clock_11xx.h ****  * @brief	Disable a system or peripheral clock
 302:../../lib/lpc11cx4-library/lpc_chip_11cxx_lib/inc/clock_11xx.h ****  * @param	clk	: Clock to disable
 303:../../lib/lpc11cx4-library/lpc_chip_11cxx_lib/inc/clock_11xx.h ****  * @return	Nothing
 304:../../lib/lpc11cx4-library/lpc_chip_11cxx_lib/inc/clock_11xx.h ****  */
 305:../../lib/lpc11cx4-library/lpc_chip_11cxx_lib/inc/clock_11xx.h **** STATIC INLINE void Chip_Clock_DisablePeriphClock(CHIP_SYSCTL_CLOCK_T clk)
 306:../../lib/lpc11cx4-library/lpc_chip_11cxx_lib/inc/clock_11xx.h **** {
 307:../../lib/lpc11cx4-library/lpc_chip_11cxx_lib/inc/clock_11xx.h **** 	LPC_SYSCTL->SYSAHBCLKCTRL &= ~(1 << clk);
 995              		.loc 2 307 0
 996 0006 0648     		ldr	r0, .L104+4	@ tmp121,
 997              	.LVL59:
 998              	.LBE96:
 999              	.LBE95:
 1000              	.LBE94:
 1001              	.LBE93:
 1002              		.loc 1 390 0
 1003 0008 1368     		ldr	r3, [r2]	@ D.6865, i2c.ip
ARM GAS  /var/folders/z0/6xlwn_996xz3mwq1cgzkbq4r0000gp/T//cc0Pdjko.s 			page 33


 391:../../lib/lpc11cx4-library/lpc_chip_11cxx_lib/src/i2c_11xx.c **** 
 392:../../lib/lpc11cx4-library/lpc_chip_11cxx_lib/src/i2c_11xx.c **** 	disableClk(id);
 393:../../lib/lpc11cx4-library/lpc_chip_11cxx_lib/src/i2c_11xx.c **** }
 1004              		.loc 1 393 0
 1005              		@ sp needed	@
 390:../../lib/lpc11cx4-library/lpc_chip_11cxx_lib/src/i2c_11xx.c **** 
 1006              		.loc 1 390 0
 1007 000a 9961     		str	r1, [r3, #24]	@ tmp120, _2->CONCLR
 1008              	.LVL60:
 1009              	.LBB100:
 1010              	.LBB99:
 1011              	.LBB98:
 1012              	.LBB97:
 1013              		.loc 2 307 0
 1014 000c 1479     		ldrb	r4, [r2, #4]	@ D.6868,
 1015 000e 0122     		movs	r2, #1	@ tmp126,
 1016 0010 A240     		lsls	r2, r2, r4	@ D.6868, tmp126, D.6868
 1017 0012 0431     		adds	r1, r1, #4	@ tmp122,
 1018 0014 4358     		ldr	r3, [r0, r1]	@ D.6867, MEM[(struct LPC_SYSCTL_T *)1074036736B].SYSAHBCLKCTRL
 1019 0016 9343     		bics	r3, r2	@ D.6867, D.6868
 1020 0018 4350     		str	r3, [r0, r1]	@ D.6867, MEM[(struct LPC_SYSCTL_T *)1074036736B].SYSAHBCLKCTRL
 1021              	.LVL61:
 1022              	.LBE97:
 1023              	.LBE98:
 1024              	.LBE99:
 1025              	.LBE100:
 1026              		.loc 1 393 0
 1027 001a 10BD     		pop	{r4, pc}
 1028              	.L105:
 1029              		.align	2
 1030              	.L104:
 1031 001c 00000000 		.word	.LANCHOR0
 1032 0020 00800440 		.word	1074036736
 1033              		.cfi_endproc
 1034              	.LFE215:
 1035              		.size	Chip_I2C_DeInit, .-Chip_I2C_DeInit
 1036              		.global	__aeabi_uidiv
 1037              		.section	.text.Chip_I2C_SetClockRate,"ax",%progbits
 1038              		.align	2
 1039              		.global	Chip_I2C_SetClockRate
 1040              		.code	16
 1041              		.thumb_func
 1042              		.type	Chip_I2C_SetClockRate, %function
 1043              	Chip_I2C_SetClockRate:
 1044              	.LFB216:
 394:../../lib/lpc11cx4-library/lpc_chip_11cxx_lib/src/i2c_11xx.c **** 
 395:../../lib/lpc11cx4-library/lpc_chip_11cxx_lib/src/i2c_11xx.c **** /* Set up clock rate for LPC_I2C peripheral */
 396:../../lib/lpc11cx4-library/lpc_chip_11cxx_lib/src/i2c_11xx.c **** void Chip_I2C_SetClockRate(I2C_ID_T id, uint32_t clockrate)
 397:../../lib/lpc11cx4-library/lpc_chip_11cxx_lib/src/i2c_11xx.c **** {
 1045              		.loc 1 397 0
 1046              		.cfi_startproc
 1047              		@ args = 0, pretend = 0, frame = 0
 1048              		@ frame_needed = 0, uses_anonymous_args = 0
 1049              	.LVL62:
 398:../../lib/lpc11cx4-library/lpc_chip_11cxx_lib/src/i2c_11xx.c **** 	UNUSED(id);
 399:../../lib/lpc11cx4-library/lpc_chip_11cxx_lib/src/i2c_11xx.c **** 	uint32_t SCLValue;
 400:../../lib/lpc11cx4-library/lpc_chip_11cxx_lib/src/i2c_11xx.c **** 
ARM GAS  /var/folders/z0/6xlwn_996xz3mwq1cgzkbq4r0000gp/T//cc0Pdjko.s 			page 34


 401:../../lib/lpc11cx4-library/lpc_chip_11cxx_lib/src/i2c_11xx.c **** 	SCLValue = (getClkRate() / clockrate);
 1050              		.loc 1 401 0
 1051 0000 064B     		ldr	r3, .L107	@ tmp118,
 397:../../lib/lpc11cx4-library/lpc_chip_11cxx_lib/src/i2c_11xx.c **** 	UNUSED(id);
 1052              		.loc 1 397 0
 1053 0002 10B5     		push	{r4, lr}	@
 1054              		.cfi_def_cfa_offset 8
 1055              		.cfi_offset 4, -8
 1056              		.cfi_offset 14, -4
 1057              		.loc 1 401 0
 1058 0004 1868     		ldr	r0, [r3]	@, SystemCoreClock
 1059              	.LVL63:
 1060 0006 FFF7FEFF 		bl	__aeabi_uidiv	@
 1061              	.LVL64:
 402:../../lib/lpc11cx4-library/lpc_chip_11cxx_lib/src/i2c_11xx.c **** 	LPC_I2Cx(id)->SCLH = (uint32_t) (SCLValue >> 1);
 1062              		.loc 1 402 0
 1063 000a 054B     		ldr	r3, .L107+4	@ tmp122,
 1064 000c 4208     		lsrs	r2, r0, #1	@ D.6874, tmp121,
 1065 000e 1B68     		ldr	r3, [r3]	@ D.6873, i2c.ip
 403:../../lib/lpc11cx4-library/lpc_chip_11cxx_lib/src/i2c_11xx.c **** 	LPC_I2Cx(id)->SCLL = (uint32_t) (SCLValue - LPC_I2Cx(id)->SCLH);
 404:../../lib/lpc11cx4-library/lpc_chip_11cxx_lib/src/i2c_11xx.c **** }
 1066              		.loc 1 404 0
 1067              		@ sp needed	@
 402:../../lib/lpc11cx4-library/lpc_chip_11cxx_lib/src/i2c_11xx.c **** 	LPC_I2Cx(id)->SCLH = (uint32_t) (SCLValue >> 1);
 1068              		.loc 1 402 0
 1069 0010 1A61     		str	r2, [r3, #16]	@ D.6874, _5->SCLH
 403:../../lib/lpc11cx4-library/lpc_chip_11cxx_lib/src/i2c_11xx.c **** 	LPC_I2Cx(id)->SCLL = (uint32_t) (SCLValue - LPC_I2Cx(id)->SCLH);
 1070              		.loc 1 403 0
 1071 0012 1A69     		ldr	r2, [r3, #16]	@ D.6874, _5->SCLH
 1072 0014 801A     		subs	r0, r0, r2	@ D.6874, tmp121, D.6874
 1073              	.LVL65:
 1074 0016 5861     		str	r0, [r3, #20]	@ D.6874, _5->SCLL
 1075              		.loc 1 404 0
 1076 0018 10BD     		pop	{r4, pc}
 1077              	.L108:
 1078 001a C046     		.align	2
 1079              	.L107:
 1080 001c 00000000 		.word	SystemCoreClock
 1081 0020 00000000 		.word	.LANCHOR0
 1082              		.cfi_endproc
 1083              	.LFE216:
 1084              		.size	Chip_I2C_SetClockRate, .-Chip_I2C_SetClockRate
 1085              		.section	.text.Chip_I2C_GetClockRate,"ax",%progbits
 1086              		.align	2
 1087              		.global	Chip_I2C_GetClockRate
 1088              		.code	16
 1089              		.thumb_func
 1090              		.type	Chip_I2C_GetClockRate, %function
 1091              	Chip_I2C_GetClockRate:
 1092              	.LFB217:
 405:../../lib/lpc11cx4-library/lpc_chip_11cxx_lib/src/i2c_11xx.c **** 
 406:../../lib/lpc11cx4-library/lpc_chip_11cxx_lib/src/i2c_11xx.c **** /* Get current clock rate for LPC_I2C peripheral */
 407:../../lib/lpc11cx4-library/lpc_chip_11cxx_lib/src/i2c_11xx.c **** uint32_t Chip_I2C_GetClockRate(I2C_ID_T id)
 408:../../lib/lpc11cx4-library/lpc_chip_11cxx_lib/src/i2c_11xx.c **** {
 1093              		.loc 1 408 0
 1094              		.cfi_startproc
 1095              		@ args = 0, pretend = 0, frame = 0
ARM GAS  /var/folders/z0/6xlwn_996xz3mwq1cgzkbq4r0000gp/T//cc0Pdjko.s 			page 35


 1096              		@ frame_needed = 0, uses_anonymous_args = 0
 1097              	.LVL66:
 409:../../lib/lpc11cx4-library/lpc_chip_11cxx_lib/src/i2c_11xx.c **** 	UNUSED(id);
 410:../../lib/lpc11cx4-library/lpc_chip_11cxx_lib/src/i2c_11xx.c **** 	return getClkRate() / (LPC_I2Cx(id)->SCLH + LPC_I2Cx(id)->SCLL);
 1098              		.loc 1 410 0
 1099 0000 054B     		ldr	r3, .L110	@ tmp118,
 408:../../lib/lpc11cx4-library/lpc_chip_11cxx_lib/src/i2c_11xx.c **** 	UNUSED(id);
 1100              		.loc 1 408 0
 1101 0002 10B5     		push	{r4, lr}	@
 1102              		.cfi_def_cfa_offset 8
 1103              		.cfi_offset 4, -8
 1104              		.cfi_offset 14, -4
 1105              		.loc 1 410 0
 1106 0004 1B68     		ldr	r3, [r3]	@ D.6879, i2c.ip
 411:../../lib/lpc11cx4-library/lpc_chip_11cxx_lib/src/i2c_11xx.c **** }
 1107              		.loc 1 411 0
 1108              		@ sp needed	@
 410:../../lib/lpc11cx4-library/lpc_chip_11cxx_lib/src/i2c_11xx.c **** }
 1109              		.loc 1 410 0
 1110 0006 1969     		ldr	r1, [r3, #16]	@ D.6880, _3->SCLH
 1111 0008 5B69     		ldr	r3, [r3, #20]	@ D.6880, _3->SCLL
 1112 000a C918     		adds	r1, r1, r3	@ D.6880, D.6880, D.6880
 1113 000c 034B     		ldr	r3, .L110+4	@ tmp120,
 1114 000e 1868     		ldr	r0, [r3]	@, SystemCoreClock
 1115              	.LVL67:
 1116 0010 FFF7FEFF 		bl	__aeabi_uidiv	@
 1117              	.LVL68:
 1118              		.loc 1 411 0
 1119 0014 10BD     		pop	{r4, pc}
 1120              	.L111:
 1121 0016 C046     		.align	2
 1122              	.L110:
 1123 0018 00000000 		.word	.LANCHOR0
 1124 001c 00000000 		.word	SystemCoreClock
 1125              		.cfi_endproc
 1126              	.LFE217:
 1127              		.size	Chip_I2C_GetClockRate, .-Chip_I2C_GetClockRate
 1128              		.section	.text.Chip_I2C_SetMasterEventHandler,"ax",%progbits
 1129              		.align	2
 1130              		.global	Chip_I2C_SetMasterEventHandler
 1131              		.code	16
 1132              		.thumb_func
 1133              		.type	Chip_I2C_SetMasterEventHandler, %function
 1134              	Chip_I2C_SetMasterEventHandler:
 1135              	.LFB218:
 412:../../lib/lpc11cx4-library/lpc_chip_11cxx_lib/src/i2c_11xx.c **** 
 413:../../lib/lpc11cx4-library/lpc_chip_11cxx_lib/src/i2c_11xx.c **** /* Set the master event handler */
 414:../../lib/lpc11cx4-library/lpc_chip_11cxx_lib/src/i2c_11xx.c **** int Chip_I2C_SetMasterEventHandler(I2C_ID_T id, I2C_EVENTHANDLER_T event)
 415:../../lib/lpc11cx4-library/lpc_chip_11cxx_lib/src/i2c_11xx.c **** {
 1136              		.loc 1 415 0
 1137              		.cfi_startproc
 1138              		@ args = 0, pretend = 0, frame = 0
 1139              		@ frame_needed = 0, uses_anonymous_args = 0
 1140              		@ link register save eliminated.
 1141              	.LVL69:
 416:../../lib/lpc11cx4-library/lpc_chip_11cxx_lib/src/i2c_11xx.c **** 	UNUSED(id);
 417:../../lib/lpc11cx4-library/lpc_chip_11cxx_lib/src/i2c_11xx.c **** 	struct i2c_interface *iic = &i2c; 
ARM GAS  /var/folders/z0/6xlwn_996xz3mwq1cgzkbq4r0000gp/T//cc0Pdjko.s 			page 36


 418:../../lib/lpc11cx4-library/lpc_chip_11cxx_lib/src/i2c_11xx.c **** 	if (!iic->mXfer) {
 1142              		.loc 1 418 0
 1143 0000 064B     		ldr	r3, .L115	@ tmp117,
 1144 0002 1A69     		ldr	r2, [r3, #16]	@ tmp127, i2c.mXfer
 1145 0004 002A     		cmp	r2, #0	@ tmp127,
 1146 0006 05D0     		beq	.L113	@,
 1147 0008 9B68     		ldr	r3, [r3, #8]	@ i2c.mEvent, i2c.mEvent
 1148 000a 581A     		subs	r0, r3, r1	@ tmp123, i2c.mEvent, event
 1149              	.LVL70:
 1150 000c 4342     		rsbs	r3, r0, #0	@ D.6887, tmp123
 1151 000e 4341     		adcs	r3, r3, r0	@ D.6887, tmp123
 1152              	.LVL71:
 1153              	.L114:
 419:../../lib/lpc11cx4-library/lpc_chip_11cxx_lib/src/i2c_11xx.c **** 		iic->mEvent = event;
 420:../../lib/lpc11cx4-library/lpc_chip_11cxx_lib/src/i2c_11xx.c **** 	}
 421:../../lib/lpc11cx4-library/lpc_chip_11cxx_lib/src/i2c_11xx.c **** 	return iic->mEvent == event;
 422:../../lib/lpc11cx4-library/lpc_chip_11cxx_lib/src/i2c_11xx.c **** }
 1154              		.loc 1 422 0
 1155 0010 1800     		movs	r0, r3	@, D.6887
 1156              		@ sp needed	@
 1157 0012 7047     		bx	lr
 1158              	.LVL72:
 1159              	.L113:
 419:../../lib/lpc11cx4-library/lpc_chip_11cxx_lib/src/i2c_11xx.c **** 		iic->mEvent = event;
 1160              		.loc 1 419 0
 1161 0014 9960     		str	r1, [r3, #8]	@ event, i2c.mEvent
 1162 0016 0123     		movs	r3, #1	@ D.6887,
 1163 0018 FAE7     		b	.L114	@
 1164              	.L116:
 1165 001a C046     		.align	2
 1166              	.L115:
 1167 001c 00000000 		.word	.LANCHOR0
 1168              		.cfi_endproc
 1169              	.LFE218:
 1170              		.size	Chip_I2C_SetMasterEventHandler, .-Chip_I2C_SetMasterEventHandler
 1171              		.section	.text.Chip_I2C_GetMasterEventHandler,"ax",%progbits
 1172              		.align	2
 1173              		.global	Chip_I2C_GetMasterEventHandler
 1174              		.code	16
 1175              		.thumb_func
 1176              		.type	Chip_I2C_GetMasterEventHandler, %function
 1177              	Chip_I2C_GetMasterEventHandler:
 1178              	.LFB219:
 423:../../lib/lpc11cx4-library/lpc_chip_11cxx_lib/src/i2c_11xx.c **** 
 424:../../lib/lpc11cx4-library/lpc_chip_11cxx_lib/src/i2c_11xx.c **** /* Get the master event handler */
 425:../../lib/lpc11cx4-library/lpc_chip_11cxx_lib/src/i2c_11xx.c **** I2C_EVENTHANDLER_T Chip_I2C_GetMasterEventHandler(I2C_ID_T id)
 426:../../lib/lpc11cx4-library/lpc_chip_11cxx_lib/src/i2c_11xx.c **** {
 1179              		.loc 1 426 0
 1180              		.cfi_startproc
 1181              		@ args = 0, pretend = 0, frame = 0
 1182              		@ frame_needed = 0, uses_anonymous_args = 0
 1183              		@ link register save eliminated.
 1184              	.LVL73:
 427:../../lib/lpc11cx4-library/lpc_chip_11cxx_lib/src/i2c_11xx.c **** 	UNUSED(id);
 428:../../lib/lpc11cx4-library/lpc_chip_11cxx_lib/src/i2c_11xx.c **** 	return i2c.mEvent;
 1185              		.loc 1 428 0
 1186 0000 014B     		ldr	r3, .L118	@ tmp114,
ARM GAS  /var/folders/z0/6xlwn_996xz3mwq1cgzkbq4r0000gp/T//cc0Pdjko.s 			page 37


 429:../../lib/lpc11cx4-library/lpc_chip_11cxx_lib/src/i2c_11xx.c **** }
 1187              		.loc 1 429 0
 1188              		@ sp needed	@
 428:../../lib/lpc11cx4-library/lpc_chip_11cxx_lib/src/i2c_11xx.c **** }
 1189              		.loc 1 428 0
 1190 0002 9868     		ldr	r0, [r3, #8]	@ i2c.mEvent, i2c.mEvent
 1191              	.LVL74:
 1192              		.loc 1 429 0
 1193 0004 7047     		bx	lr
 1194              	.L119:
 1195 0006 C046     		.align	2
 1196              	.L118:
 1197 0008 00000000 		.word	.LANCHOR0
 1198              		.cfi_endproc
 1199              	.LFE219:
 1200              		.size	Chip_I2C_GetMasterEventHandler, .-Chip_I2C_GetMasterEventHandler
 1201              		.section	.text.Chip_I2C_MasterTransfer,"ax",%progbits
 1202              		.align	2
 1203              		.global	Chip_I2C_MasterTransfer
 1204              		.code	16
 1205              		.thumb_func
 1206              		.type	Chip_I2C_MasterTransfer, %function
 1207              	Chip_I2C_MasterTransfer:
 1208              	.LFB220:
 430:../../lib/lpc11cx4-library/lpc_chip_11cxx_lib/src/i2c_11xx.c **** 
 431:../../lib/lpc11cx4-library/lpc_chip_11cxx_lib/src/i2c_11xx.c **** /* Transmit and Receive data in master mode */
 432:../../lib/lpc11cx4-library/lpc_chip_11cxx_lib/src/i2c_11xx.c **** int Chip_I2C_MasterTransfer(I2C_ID_T id, I2C_XFER_T *xfer)
 433:../../lib/lpc11cx4-library/lpc_chip_11cxx_lib/src/i2c_11xx.c **** {
 1209              		.loc 1 433 0
 1210              		.cfi_startproc
 1211              		@ args = 0, pretend = 0, frame = 0
 1212              		@ frame_needed = 0, uses_anonymous_args = 0
 1213              	.LVL75:
 1214 0000 70B5     		push	{r4, r5, r6, lr}	@
 1215              		.cfi_def_cfa_offset 16
 1216              		.cfi_offset 4, -16
 1217              		.cfi_offset 5, -12
 1218              		.cfi_offset 6, -8
 1219              		.cfi_offset 14, -4
 434:../../lib/lpc11cx4-library/lpc_chip_11cxx_lib/src/i2c_11xx.c **** 	struct i2c_interface *iic = &i2c;
 435:../../lib/lpc11cx4-library/lpc_chip_11cxx_lib/src/i2c_11xx.c **** 
 436:../../lib/lpc11cx4-library/lpc_chip_11cxx_lib/src/i2c_11xx.c **** 	i2c.mEvent(id, I2C_EVENT_LOCK);
 1220              		.loc 1 436 0
 1221 0002 164C     		ldr	r4, .L129	@ tmp151,
 433:../../lib/lpc11cx4-library/lpc_chip_11cxx_lib/src/i2c_11xx.c **** 	struct i2c_interface *iic = &i2c;
 1222              		.loc 1 433 0
 1223 0004 0D00     		movs	r5, r1	@ xfer, xfer
 1224              		.loc 1 436 0
 1225 0006 A368     		ldr	r3, [r4, #8]	@ tmp154, i2c.mEvent
 1226 0008 0321     		movs	r1, #3	@,
 1227              	.LVL76:
 433:../../lib/lpc11cx4-library/lpc_chip_11cxx_lib/src/i2c_11xx.c **** 	struct i2c_interface *iic = &i2c;
 1228              		.loc 1 433 0
 1229 000a 0600     		movs	r6, r0	@ id, id
 1230              		.loc 1 436 0
 1231 000c 9847     		blx	r3	@ tmp154
 1232              	.LVL77:
ARM GAS  /var/folders/z0/6xlwn_996xz3mwq1cgzkbq4r0000gp/T//cc0Pdjko.s 			page 38


 437:../../lib/lpc11cx4-library/lpc_chip_11cxx_lib/src/i2c_11xx.c **** 	xfer->status = I2C_STATUS_BUSY;
 1233              		.loc 1 437 0
 1234 000e 0423     		movs	r3, #4	@ tmp127,
 1235 0010 2B75     		strb	r3, [r5, #20]	@ tmp127, xfer_8(D)->status
 438:../../lib/lpc11cx4-library/lpc_chip_11cxx_lib/src/i2c_11xx.c **** 	iic->mXfer = xfer;
 439:../../lib/lpc11cx4-library/lpc_chip_11cxx_lib/src/i2c_11xx.c **** 	/* If slave xfer not in progress */
 440:../../lib/lpc11cx4-library/lpc_chip_11cxx_lib/src/i2c_11xx.c **** 	if (!iic->sXfer) {
 1236              		.loc 1 440 0
 1237 0012 6369     		ldr	r3, [r4, #20]	@ tmp156, i2c.sXfer
 438:../../lib/lpc11cx4-library/lpc_chip_11cxx_lib/src/i2c_11xx.c **** 	iic->mXfer = xfer;
 1238              		.loc 1 438 0
 1239 0014 2561     		str	r5, [r4, #16]	@ xfer, i2c.mXfer
 1240              		.loc 1 440 0
 1241 0016 002B     		cmp	r3, #0	@ tmp156,
 1242 0018 19D0     		beq	.L128	@,
 1243              	.L121:
 441:../../lib/lpc11cx4-library/lpc_chip_11cxx_lib/src/i2c_11xx.c **** 		startMasterXfer(iic->ip);
 442:../../lib/lpc11cx4-library/lpc_chip_11cxx_lib/src/i2c_11xx.c **** 	} 
 443:../../lib/lpc11cx4-library/lpc_chip_11cxx_lib/src/i2c_11xx.c **** 	i2c.mEvent(id, I2C_EVENT_WAIT);
 1244              		.loc 1 443 0
 1245 001a 0121     		movs	r1, #1	@,
 1246 001c A368     		ldr	r3, [r4, #8]	@ tmp157, i2c.mEvent
 1247 001e 3000     		movs	r0, r6	@, id
 1248 0020 9847     		blx	r3	@ tmp157
 1249              	.LVL78:
 444:../../lib/lpc11cx4-library/lpc_chip_11cxx_lib/src/i2c_11xx.c **** 	iic->mXfer = 0;
 1250              		.loc 1 444 0
 1251 0022 0023     		movs	r3, #0	@ tmp138,
 445:../../lib/lpc11cx4-library/lpc_chip_11cxx_lib/src/i2c_11xx.c **** 
 446:../../lib/lpc11cx4-library/lpc_chip_11cxx_lib/src/i2c_11xx.c **** 	/* Wait for stop condition to appear on bus */
 447:../../lib/lpc11cx4-library/lpc_chip_11cxx_lib/src/i2c_11xx.c **** 	while (!isI2CBusFree(iic->ip)) {}
 1252              		.loc 1 447 0
 1253 0024 1021     		movs	r1, #16	@ tmp152,
 1254 0026 2268     		ldr	r2, [r4]	@ D.6895, i2c.ip
 444:../../lib/lpc11cx4-library/lpc_chip_11cxx_lib/src/i2c_11xx.c **** 	iic->mXfer = 0;
 1255              		.loc 1 444 0
 1256 0028 2361     		str	r3, [r4, #16]	@ tmp138, i2c.mXfer
 1257              	.L122:
 1258              	.LVL79:
 1259              	.LBB101:
 1260              	.LBB102:
 118:../../lib/lpc11cx4-library/lpc_chip_11cxx_lib/src/i2c_11xx.c **** }
 1261              		.loc 1 118 0 discriminator 1
 1262 002a 1368     		ldr	r3, [r2]	@ D.6898, _2->CONSET
 1263              	.LVL80:
 1264              	.LBE102:
 1265              	.LBE101:
 1266              		.loc 1 447 0 discriminator 1
 1267 002c 1942     		tst	r1, r3	@ tmp152, D.6898
 1268 002e FCD1     		bne	.L122	@,
 448:../../lib/lpc11cx4-library/lpc_chip_11cxx_lib/src/i2c_11xx.c **** 
 449:../../lib/lpc11cx4-library/lpc_chip_11cxx_lib/src/i2c_11xx.c **** 	/* Start slave if one is active */
 450:../../lib/lpc11cx4-library/lpc_chip_11cxx_lib/src/i2c_11xx.c **** 	if (SLAVE_ACTIVE(iic)) {
 1269              		.loc 1 450 0
 1270 0030 FF23     		movs	r3, #255	@ tmp145,
 1271 0032 A169     		ldr	r1, [r4, #24]	@ tmp159, i2c.flags
 1272 0034 1B02     		lsls	r3, r3, #8	@ tmp145, tmp145,
ARM GAS  /var/folders/z0/6xlwn_996xz3mwq1cgzkbq4r0000gp/T//cc0Pdjko.s 			page 39


 1273 0036 1942     		tst	r1, r3	@ tmp159, tmp145
 1274 0038 03D0     		beq	.L123	@,
 1275              	.LVL81:
 1276              	.LBB103:
 1277              	.LBB104:
 109:../../lib/lpc11cx4-library/lpc_chip_11cxx_lib/src/i2c_11xx.c **** 
 1278              		.loc 1 109 0
 1279 003a 3823     		movs	r3, #56	@ tmp146,
 1280 003c 9361     		str	r3, [r2, #24]	@ tmp146, _2->CONCLR
 112:../../lib/lpc11cx4-library/lpc_chip_11cxx_lib/src/i2c_11xx.c **** }
 1281              		.loc 1 112 0
 1282 003e 0C33     		adds	r3, r3, #12	@ tmp147,
 1283 0040 1360     		str	r3, [r2]	@ tmp147, _2->CONSET
 1284              	.LVL82:
 1285              	.L123:
 1286              	.LBE104:
 1287              	.LBE103:
 451:../../lib/lpc11cx4-library/lpc_chip_11cxx_lib/src/i2c_11xx.c **** 		startSlaverXfer(iic->ip);
 452:../../lib/lpc11cx4-library/lpc_chip_11cxx_lib/src/i2c_11xx.c **** 	}
 453:../../lib/lpc11cx4-library/lpc_chip_11cxx_lib/src/i2c_11xx.c **** 
 454:../../lib/lpc11cx4-library/lpc_chip_11cxx_lib/src/i2c_11xx.c **** 	i2c.mEvent(id, I2C_EVENT_UNLOCK);
 1288              		.loc 1 454 0
 1289 0042 3000     		movs	r0, r6	@, id
 1290 0044 A368     		ldr	r3, [r4, #8]	@ i2c.mEvent, i2c.mEvent
 1291 0046 0421     		movs	r1, #4	@,
 1292 0048 9847     		blx	r3	@ i2c.mEvent
 1293              	.LVL83:
 455:../../lib/lpc11cx4-library/lpc_chip_11cxx_lib/src/i2c_11xx.c **** 	return (int) xfer->status;
 456:../../lib/lpc11cx4-library/lpc_chip_11cxx_lib/src/i2c_11xx.c **** }
 1294              		.loc 1 456 0
 1295              		@ sp needed	@
 455:../../lib/lpc11cx4-library/lpc_chip_11cxx_lib/src/i2c_11xx.c **** 	return (int) xfer->status;
 1296              		.loc 1 455 0
 1297 004a 287D     		ldrb	r0, [r5, #20]	@ D.6900,
 1298              	.LVL84:
 1299              		.loc 1 456 0
 1300 004c 70BD     		pop	{r4, r5, r6, pc}
 1301              	.LVL85:
 1302              	.L128:
 1303              	.LBB105:
 1304              	.LBB106:
  99:../../lib/lpc11cx4-library/lpc_chip_11cxx_lib/src/i2c_11xx.c **** 
 1305              		.loc 1 99 0
 1306 004e 3C22     		movs	r2, #60	@ tmp133,
 1307              	.LBE106:
 1308              	.LBE105:
 441:../../lib/lpc11cx4-library/lpc_chip_11cxx_lib/src/i2c_11xx.c **** 	} 
 1309              		.loc 1 441 0
 1310 0050 2368     		ldr	r3, [r4]	@ D.6895, i2c.ip
 1311              	.LVL86:
 1312              	.LBB108:
 1313              	.LBB107:
  99:../../lib/lpc11cx4-library/lpc_chip_11cxx_lib/src/i2c_11xx.c **** 
 1314              		.loc 1 99 0
 1315 0052 9A61     		str	r2, [r3, #24]	@ tmp133, _12->CONCLR
 102:../../lib/lpc11cx4-library/lpc_chip_11cxx_lib/src/i2c_11xx.c **** }
 1316              		.loc 1 102 0
ARM GAS  /var/folders/z0/6xlwn_996xz3mwq1cgzkbq4r0000gp/T//cc0Pdjko.s 			page 40


 1317 0054 2432     		adds	r2, r2, #36	@ tmp134,
 1318 0056 1A60     		str	r2, [r3]	@ tmp134, _12->CONSET
 1319 0058 DFE7     		b	.L121	@
 1320              	.L130:
 1321 005a C046     		.align	2
 1322              	.L129:
 1323 005c 00000000 		.word	.LANCHOR0
 1324              	.LBE107:
 1325              	.LBE108:
 1326              		.cfi_endproc
 1327              	.LFE220:
 1328              		.size	Chip_I2C_MasterTransfer, .-Chip_I2C_MasterTransfer
 1329              		.section	.text.Chip_I2C_MasterSend,"ax",%progbits
 1330              		.align	2
 1331              		.global	Chip_I2C_MasterSend
 1332              		.code	16
 1333              		.thumb_func
 1334              		.type	Chip_I2C_MasterSend, %function
 1335              	Chip_I2C_MasterSend:
 1336              	.LFB221:
 457:../../lib/lpc11cx4-library/lpc_chip_11cxx_lib/src/i2c_11xx.c **** 
 458:../../lib/lpc11cx4-library/lpc_chip_11cxx_lib/src/i2c_11xx.c **** /* Master tx only */
 459:../../lib/lpc11cx4-library/lpc_chip_11cxx_lib/src/i2c_11xx.c **** int Chip_I2C_MasterSend(I2C_ID_T id, uint8_t slaveAddr, const uint8_t *buff, uint8_t len)
 460:../../lib/lpc11cx4-library/lpc_chip_11cxx_lib/src/i2c_11xx.c **** {
 1337              		.loc 1 460 0
 1338              		.cfi_startproc
 1339              		@ args = 0, pretend = 0, frame = 24
 1340              		@ frame_needed = 0, uses_anonymous_args = 0
 1341              	.LVL87:
 1342 0000 30B5     		push	{r4, r5, lr}	@
 1343              		.cfi_def_cfa_offset 12
 1344              		.cfi_offset 4, -12
 1345              		.cfi_offset 5, -8
 1346              		.cfi_offset 14, -4
 1347 0002 87B0     		sub	sp, sp, #28	@,,
 1348              		.cfi_def_cfa_offset 40
 1349              		.loc 1 460 0
 1350 0004 1D00     		movs	r5, r3	@ len, len
 461:../../lib/lpc11cx4-library/lpc_chip_11cxx_lib/src/i2c_11xx.c **** 	I2C_XFER_T xfer;
 462:../../lib/lpc11cx4-library/lpc_chip_11cxx_lib/src/i2c_11xx.c **** 	xfer.slaveAddr = slaveAddr;
 1351              		.loc 1 462 0
 1352 0006 6B46     		mov	r3, sp	@ tmp130,
 1353              	.LVL88:
 1354 0008 1970     		strb	r1, [r3]	@ slaveAddr, xfer.slaveAddr
 463:../../lib/lpc11cx4-library/lpc_chip_11cxx_lib/src/i2c_11xx.c **** 	xfer.txBuff = buff;
 464:../../lib/lpc11cx4-library/lpc_chip_11cxx_lib/src/i2c_11xx.c **** 	xfer.txSz = len;
 465:../../lib/lpc11cx4-library/lpc_chip_11cxx_lib/src/i2c_11xx.c **** 	xfer.rxSz = 0;
 1355              		.loc 1 465 0
 1356 000a 0023     		movs	r3, #0	@ tmp124,
 460:../../lib/lpc11cx4-library/lpc_chip_11cxx_lib/src/i2c_11xx.c **** 	I2C_XFER_T xfer;
 1357              		.loc 1 460 0
 1358 000c 0400     		movs	r4, r0	@ id, id
 463:../../lib/lpc11cx4-library/lpc_chip_11cxx_lib/src/i2c_11xx.c **** 	xfer.txBuff = buff;
 1359              		.loc 1 463 0
 1360 000e 0192     		str	r2, [sp, #4]	@ buff, xfer.txBuff
 464:../../lib/lpc11cx4-library/lpc_chip_11cxx_lib/src/i2c_11xx.c **** 	xfer.rxSz = 0;
 1361              		.loc 1 464 0
ARM GAS  /var/folders/z0/6xlwn_996xz3mwq1cgzkbq4r0000gp/T//cc0Pdjko.s 			page 41


 1362 0010 0295     		str	r5, [sp, #8]	@ len, xfer.txSz
 1363              		.loc 1 465 0
 1364 0012 0493     		str	r3, [sp, #16]	@ tmp124, xfer.rxSz
 1365              	.LVL89:
 1366              	.L132:
 466:../../lib/lpc11cx4-library/lpc_chip_11cxx_lib/src/i2c_11xx.c **** 	while (Chip_I2C_MasterTransfer(id, &xfer) == I2C_STATUS_ARBLOST) {}
 1367              		.loc 1 466 0 discriminator 1
 1368 0014 6946     		mov	r1, sp	@,
 1369 0016 2000     		movs	r0, r4	@, id
 1370 0018 FFF7FEFF 		bl	Chip_I2C_MasterTransfer	@
 1371              	.LVL90:
 1372 001c 0228     		cmp	r0, #2	@ D.6904,
 1373 001e F9D0     		beq	.L132	@,
 467:../../lib/lpc11cx4-library/lpc_chip_11cxx_lib/src/i2c_11xx.c **** 	return len - xfer.txSz;
 1374              		.loc 1 467 0
 1375 0020 0298     		ldr	r0, [sp, #8]	@ xfer.txSz, xfer.txSz
 1376 0022 281A     		subs	r0, r5, r0	@ D.6904, len, xfer.txSz
 468:../../lib/lpc11cx4-library/lpc_chip_11cxx_lib/src/i2c_11xx.c **** }
 1377              		.loc 1 468 0
 1378 0024 07B0     		add	sp, sp, #28	@,,
 1379              		@ sp needed	@
 1380 0026 30BD     		pop	{r4, r5, pc}
 1381              		.cfi_endproc
 1382              	.LFE221:
 1383              		.size	Chip_I2C_MasterSend, .-Chip_I2C_MasterSend
 1384              		.section	.text.Chip_I2C_MasterCmdRead,"ax",%progbits
 1385              		.align	2
 1386              		.global	Chip_I2C_MasterCmdRead
 1387              		.code	16
 1388              		.thumb_func
 1389              		.type	Chip_I2C_MasterCmdRead, %function
 1390              	Chip_I2C_MasterCmdRead:
 1391              	.LFB222:
 469:../../lib/lpc11cx4-library/lpc_chip_11cxx_lib/src/i2c_11xx.c **** 
 470:../../lib/lpc11cx4-library/lpc_chip_11cxx_lib/src/i2c_11xx.c **** /* Transmit one byte and receive an array of bytes after a repeated start condition is generated in
 471:../../lib/lpc11cx4-library/lpc_chip_11cxx_lib/src/i2c_11xx.c ****  * This function is useful for communicating with the I2C slave registers
 472:../../lib/lpc11cx4-library/lpc_chip_11cxx_lib/src/i2c_11xx.c ****  */
 473:../../lib/lpc11cx4-library/lpc_chip_11cxx_lib/src/i2c_11xx.c **** int Chip_I2C_MasterCmdRead(I2C_ID_T id, uint8_t slaveAddr, uint8_t cmd, uint8_t *buff, int len)
 474:../../lib/lpc11cx4-library/lpc_chip_11cxx_lib/src/i2c_11xx.c **** {
 1392              		.loc 1 474 0
 1393              		.cfi_startproc
 1394              		@ args = 4, pretend = 0, frame = 32
 1395              		@ frame_needed = 0, uses_anonymous_args = 0
 1396              	.LVL91:
 1397 0000 70B5     		push	{r4, r5, r6, lr}	@
 1398              		.cfi_def_cfa_offset 16
 1399              		.cfi_offset 4, -16
 1400              		.cfi_offset 5, -12
 1401              		.cfi_offset 6, -8
 1402              		.cfi_offset 14, -4
 1403 0002 88B0     		sub	sp, sp, #32	@,,
 1404              		.cfi_def_cfa_offset 48
 1405              		.loc 1 474 0
 1406 0004 0500     		movs	r5, r0	@ id, id
 1407 0006 6846     		mov	r0, sp	@ tmp134,
 1408              	.LVL92:
 1409 0008 C271     		strb	r2, [r0, #7]	@ cmd, cmd
ARM GAS  /var/folders/z0/6xlwn_996xz3mwq1cgzkbq4r0000gp/T//cc0Pdjko.s 			page 42


 475:../../lib/lpc11cx4-library/lpc_chip_11cxx_lib/src/i2c_11xx.c **** 	I2C_XFER_T xfer;
 476:../../lib/lpc11cx4-library/lpc_chip_11cxx_lib/src/i2c_11xx.c **** 	xfer.slaveAddr = slaveAddr;
 477:../../lib/lpc11cx4-library/lpc_chip_11cxx_lib/src/i2c_11xx.c **** 	xfer.txBuff = &cmd;
 478:../../lib/lpc11cx4-library/lpc_chip_11cxx_lib/src/i2c_11xx.c **** 	xfer.txSz = 1;
 1410              		.loc 1 478 0
 1411 000a 0122     		movs	r2, #1	@ tmp126,
 1412              	.LVL93:
 474:../../lib/lpc11cx4-library/lpc_chip_11cxx_lib/src/i2c_11xx.c **** 	I2C_XFER_T xfer;
 1413              		.loc 1 474 0
 1414 000c 0C9E     		ldr	r6, [sp, #48]	@ len, len
 476:../../lib/lpc11cx4-library/lpc_chip_11cxx_lib/src/i2c_11xx.c **** 	xfer.txBuff = &cmd;
 1415              		.loc 1 476 0
 1416 000e 02AC     		add	r4, sp, #8	@ tmp133,,
 474:../../lib/lpc11cx4-library/lpc_chip_11cxx_lib/src/i2c_11xx.c **** 	I2C_XFER_T xfer;
 1417              		.loc 1 474 0
 1418 0010 0730     		adds	r0, r0, #7	@ tmp117,
 1419              	.LVL94:
 476:../../lib/lpc11cx4-library/lpc_chip_11cxx_lib/src/i2c_11xx.c **** 	xfer.txBuff = &cmd;
 1420              		.loc 1 476 0
 1421 0012 2170     		strb	r1, [r4]	@ slaveAddr, xfer.slaveAddr
 477:../../lib/lpc11cx4-library/lpc_chip_11cxx_lib/src/i2c_11xx.c **** 	xfer.txSz = 1;
 1422              		.loc 1 477 0
 1423 0014 6060     		str	r0, [r4, #4]	@ tmp117, xfer.txBuff
 1424              		.loc 1 478 0
 1425 0016 A260     		str	r2, [r4, #8]	@ tmp126, xfer.txSz
 479:../../lib/lpc11cx4-library/lpc_chip_11cxx_lib/src/i2c_11xx.c **** 	xfer.rxBuff = buff;
 1426              		.loc 1 479 0
 1427 0018 E360     		str	r3, [r4, #12]	@ buff, xfer.rxBuff
 480:../../lib/lpc11cx4-library/lpc_chip_11cxx_lib/src/i2c_11xx.c **** 	xfer.rxSz = len;
 1428              		.loc 1 480 0
 1429 001a 2661     		str	r6, [r4, #16]	@ len, xfer.rxSz
 1430              	.LVL95:
 1431              	.L136:
 481:../../lib/lpc11cx4-library/lpc_chip_11cxx_lib/src/i2c_11xx.c **** 	while (Chip_I2C_MasterTransfer(id, &xfer) == I2C_STATUS_ARBLOST) {}
 1432              		.loc 1 481 0 discriminator 1
 1433 001c 2100     		movs	r1, r4	@, tmp133
 1434 001e 2800     		movs	r0, r5	@, id
 1435 0020 FFF7FEFF 		bl	Chip_I2C_MasterTransfer	@
 1436              	.LVL96:
 1437 0024 0228     		cmp	r0, #2	@ D.6907,
 1438 0026 F9D0     		beq	.L136	@,
 482:../../lib/lpc11cx4-library/lpc_chip_11cxx_lib/src/i2c_11xx.c **** 	return len - xfer.rxSz;
 1439              		.loc 1 482 0
 1440 0028 2069     		ldr	r0, [r4, #16]	@ xfer.rxSz, xfer.rxSz
 1441 002a 301A     		subs	r0, r6, r0	@ D.6907, len, xfer.rxSz
 483:../../lib/lpc11cx4-library/lpc_chip_11cxx_lib/src/i2c_11xx.c **** }
 1442              		.loc 1 483 0
 1443 002c 08B0     		add	sp, sp, #32	@,,
 1444              	.LVL97:
 1445              		@ sp needed	@
 1446 002e 70BD     		pop	{r4, r5, r6, pc}
 1447              		.cfi_endproc
 1448              	.LFE222:
 1449              		.size	Chip_I2C_MasterCmdRead, .-Chip_I2C_MasterCmdRead
 1450              		.section	.text.Chip_I2C_MasterRead,"ax",%progbits
 1451              		.align	2
 1452              		.global	Chip_I2C_MasterRead
ARM GAS  /var/folders/z0/6xlwn_996xz3mwq1cgzkbq4r0000gp/T//cc0Pdjko.s 			page 43


 1453              		.code	16
 1454              		.thumb_func
 1455              		.type	Chip_I2C_MasterRead, %function
 1456              	Chip_I2C_MasterRead:
 1457              	.LFB223:
 484:../../lib/lpc11cx4-library/lpc_chip_11cxx_lib/src/i2c_11xx.c **** 
 485:../../lib/lpc11cx4-library/lpc_chip_11cxx_lib/src/i2c_11xx.c **** /* Sequential master read */
 486:../../lib/lpc11cx4-library/lpc_chip_11cxx_lib/src/i2c_11xx.c **** int Chip_I2C_MasterRead(I2C_ID_T id, uint8_t slaveAddr, uint8_t *buff, int len)
 487:../../lib/lpc11cx4-library/lpc_chip_11cxx_lib/src/i2c_11xx.c **** {
 1458              		.loc 1 487 0
 1459              		.cfi_startproc
 1460              		@ args = 0, pretend = 0, frame = 24
 1461              		@ frame_needed = 0, uses_anonymous_args = 0
 1462              	.LVL98:
 1463 0000 30B5     		push	{r4, r5, lr}	@
 1464              		.cfi_def_cfa_offset 12
 1465              		.cfi_offset 4, -12
 1466              		.cfi_offset 5, -8
 1467              		.cfi_offset 14, -4
 1468 0002 87B0     		sub	sp, sp, #28	@,,
 1469              		.cfi_def_cfa_offset 40
 1470              		.loc 1 487 0
 1471 0004 1D00     		movs	r5, r3	@ len, len
 488:../../lib/lpc11cx4-library/lpc_chip_11cxx_lib/src/i2c_11xx.c **** 	UNUSED(id);
 489:../../lib/lpc11cx4-library/lpc_chip_11cxx_lib/src/i2c_11xx.c **** 	I2C_XFER_T xfer;
 490:../../lib/lpc11cx4-library/lpc_chip_11cxx_lib/src/i2c_11xx.c **** 	xfer.slaveAddr = slaveAddr;
 1472              		.loc 1 490 0
 1473 0006 6B46     		mov	r3, sp	@ tmp129,
 1474              	.LVL99:
 1475 0008 1970     		strb	r1, [r3]	@ slaveAddr, xfer.slaveAddr
 491:../../lib/lpc11cx4-library/lpc_chip_11cxx_lib/src/i2c_11xx.c **** 	xfer.rxBuff = buff;
 492:../../lib/lpc11cx4-library/lpc_chip_11cxx_lib/src/i2c_11xx.c **** 	xfer.rxSz = len;
 493:../../lib/lpc11cx4-library/lpc_chip_11cxx_lib/src/i2c_11xx.c **** 	xfer.txSz = 0;
 1476              		.loc 1 493 0
 1477 000a 0023     		movs	r3, #0	@ tmp123,
 487:../../lib/lpc11cx4-library/lpc_chip_11cxx_lib/src/i2c_11xx.c **** 	UNUSED(id);
 1478              		.loc 1 487 0
 1479 000c 0400     		movs	r4, r0	@ id, id
 491:../../lib/lpc11cx4-library/lpc_chip_11cxx_lib/src/i2c_11xx.c **** 	xfer.rxBuff = buff;
 1480              		.loc 1 491 0
 1481 000e 0392     		str	r2, [sp, #12]	@ buff, xfer.rxBuff
 492:../../lib/lpc11cx4-library/lpc_chip_11cxx_lib/src/i2c_11xx.c **** 	xfer.txSz = 0;
 1482              		.loc 1 492 0
 1483 0010 0495     		str	r5, [sp, #16]	@ len, xfer.rxSz
 1484              		.loc 1 493 0
 1485 0012 0293     		str	r3, [sp, #8]	@ tmp123, xfer.txSz
 1486              	.LVL100:
 1487              	.L140:
 494:../../lib/lpc11cx4-library/lpc_chip_11cxx_lib/src/i2c_11xx.c **** 	while (Chip_I2C_MasterTransfer(id, &xfer) == I2C_STATUS_ARBLOST) {}
 1488              		.loc 1 494 0 discriminator 1
 1489 0014 6946     		mov	r1, sp	@,
 1490 0016 2000     		movs	r0, r4	@, id
 1491 0018 FFF7FEFF 		bl	Chip_I2C_MasterTransfer	@
 1492              	.LVL101:
 1493 001c 0228     		cmp	r0, #2	@ D.6910,
 1494 001e F9D0     		beq	.L140	@,
 495:../../lib/lpc11cx4-library/lpc_chip_11cxx_lib/src/i2c_11xx.c **** 	return len - xfer.rxSz;
ARM GAS  /var/folders/z0/6xlwn_996xz3mwq1cgzkbq4r0000gp/T//cc0Pdjko.s 			page 44


 1495              		.loc 1 495 0
 1496 0020 0498     		ldr	r0, [sp, #16]	@ xfer.rxSz, xfer.rxSz
 1497 0022 281A     		subs	r0, r5, r0	@ D.6910, len, xfer.rxSz
 496:../../lib/lpc11cx4-library/lpc_chip_11cxx_lib/src/i2c_11xx.c **** }
 1498              		.loc 1 496 0
 1499 0024 07B0     		add	sp, sp, #28	@,,
 1500              		@ sp needed	@
 1501              	.LVL102:
 1502 0026 30BD     		pop	{r4, r5, pc}
 1503              		.cfi_endproc
 1504              	.LFE223:
 1505              		.size	Chip_I2C_MasterRead, .-Chip_I2C_MasterRead
 1506              		.section	.text.Chip_I2C_IsMasterActive,"ax",%progbits
 1507              		.align	2
 1508              		.global	Chip_I2C_IsMasterActive
 1509              		.code	16
 1510              		.thumb_func
 1511              		.type	Chip_I2C_IsMasterActive, %function
 1512              	Chip_I2C_IsMasterActive:
 1513              	.LFB224:
 497:../../lib/lpc11cx4-library/lpc_chip_11cxx_lib/src/i2c_11xx.c **** 
 498:../../lib/lpc11cx4-library/lpc_chip_11cxx_lib/src/i2c_11xx.c **** /* Check if master state is active */
 499:../../lib/lpc11cx4-library/lpc_chip_11cxx_lib/src/i2c_11xx.c **** int Chip_I2C_IsMasterActive(I2C_ID_T id)
 500:../../lib/lpc11cx4-library/lpc_chip_11cxx_lib/src/i2c_11xx.c **** {
 1514              		.loc 1 500 0
 1515              		.cfi_startproc
 1516              		@ args = 0, pretend = 0, frame = 0
 1517              		@ frame_needed = 0, uses_anonymous_args = 0
 1518              		@ link register save eliminated.
 1519              	.LVL103:
 501:../../lib/lpc11cx4-library/lpc_chip_11cxx_lib/src/i2c_11xx.c **** 	UNUSED(id);
 502:../../lib/lpc11cx4-library/lpc_chip_11cxx_lib/src/i2c_11xx.c **** 	return isMasterState(i2c.ip);
 1520              		.loc 1 502 0
 1521 0000 F822     		movs	r2, #248	@ tmp120,
 1522 0002 054B     		ldr	r3, .L144	@ tmp118,
 1523 0004 5F21     		movs	r1, #95	@ tmp124,
 1524 0006 1B68     		ldr	r3, [r3]	@ D.6913, i2c.ip
 1525              	.LVL104:
 503:../../lib/lpc11cx4-library/lpc_chip_11cxx_lib/src/i2c_11xx.c **** }
 1526              		.loc 1 503 0
 1527              		@ sp needed	@
 1528              	.LBB109:
 1529              	.LBB110:
 1530              	.LBB111:
 1531              	.LBB112:
 124:../../lib/lpc11cx4-library/lpc_chip_11cxx_lib/src/i2c_11xx.c **** }
 1532              		.loc 1 124 0
 1533 0008 5B68     		ldr	r3, [r3, #4]	@ D.6914, _2->STAT
 1534              	.LVL105:
 1535              	.LBE112:
 1536              	.LBE111:
 1537              	.LBE110:
 1538              	.LBE109:
 502:../../lib/lpc11cx4-library/lpc_chip_11cxx_lib/src/i2c_11xx.c **** }
 1539              		.loc 1 502 0
 1540 000a 1340     		ands	r3, r2	@ D.6915, tmp120
 1541 000c 0022     		movs	r2, #0	@ tmp126,
ARM GAS  /var/folders/z0/6xlwn_996xz3mwq1cgzkbq4r0000gp/T//cc0Pdjko.s 			page 45


 1542 000e D80F     		lsrs	r0, r3, #31	@ tmp125, D.6915,
 1543              	.LVL106:
 1544 0010 9942     		cmp	r1, r3	@ tmp124, D.6915
 1545 0012 5041     		adcs	r0, r0, r2	@ D.6916, tmp125, tmp126
 1546              		.loc 1 503 0
 1547 0014 7047     		bx	lr
 1548              	.L145:
 1549 0016 C046     		.align	2
 1550              	.L144:
 1551 0018 00000000 		.word	.LANCHOR0
 1552              		.cfi_endproc
 1553              	.LFE224:
 1554              		.size	Chip_I2C_IsMasterActive, .-Chip_I2C_IsMasterActive
 1555              		.section	.text.Chip_I2C_MasterStateHandler,"ax",%progbits
 1556              		.align	2
 1557              		.global	Chip_I2C_MasterStateHandler
 1558              		.code	16
 1559              		.thumb_func
 1560              		.type	Chip_I2C_MasterStateHandler, %function
 1561              	Chip_I2C_MasterStateHandler:
 1562              	.LFB225:
 504:../../lib/lpc11cx4-library/lpc_chip_11cxx_lib/src/i2c_11xx.c **** 
 505:../../lib/lpc11cx4-library/lpc_chip_11cxx_lib/src/i2c_11xx.c **** /* State change handler for master transfer */
 506:../../lib/lpc11cx4-library/lpc_chip_11cxx_lib/src/i2c_11xx.c **** void Chip_I2C_MasterStateHandler(I2C_ID_T id)
 507:../../lib/lpc11cx4-library/lpc_chip_11cxx_lib/src/i2c_11xx.c **** {
 1563              		.loc 1 507 0
 1564              		.cfi_startproc
 1565              		@ args = 0, pretend = 0, frame = 0
 1566              		@ frame_needed = 0, uses_anonymous_args = 0
 1567              	.LVL107:
 1568 0000 70B5     		push	{r4, r5, r6, lr}	@
 1569              		.cfi_def_cfa_offset 16
 1570              		.cfi_offset 4, -16
 1571              		.cfi_offset 5, -12
 1572              		.cfi_offset 6, -8
 1573              		.cfi_offset 14, -4
 508:../../lib/lpc11cx4-library/lpc_chip_11cxx_lib/src/i2c_11xx.c **** 	if (!handleMasterXferState(i2c.ip, i2c.mXfer)) {
 1574              		.loc 1 508 0
 1575 0002 064C     		ldr	r4, .L148	@ tmp115,
 507:../../lib/lpc11cx4-library/lpc_chip_11cxx_lib/src/i2c_11xx.c **** 	if (!handleMasterXferState(i2c.ip, i2c.mXfer)) {
 1576              		.loc 1 507 0
 1577 0004 0500     		movs	r5, r0	@ id, id
 1578              		.loc 1 508 0
 1579 0006 2169     		ldr	r1, [r4, #16]	@, i2c.mXfer
 1580 0008 2068     		ldr	r0, [r4]	@, i2c.ip
 1581              	.LVL108:
 1582 000a FFF7FEFF 		bl	handleMasterXferState	@
 1583              	.LVL109:
 1584 000e 0028     		cmp	r0, #0	@ D.6923,
 1585 0010 03D1     		bne	.L146	@,
 1586              	.LVL110:
 1587              	.LBB115:
 1588              	.LBB116:
 509:../../lib/lpc11cx4-library/lpc_chip_11cxx_lib/src/i2c_11xx.c **** 		i2c.mEvent(id, I2C_EVENT_DONE);
 1589              		.loc 1 509 0
 1590 0012 A368     		ldr	r3, [r4, #8]	@ i2c.mEvent, i2c.mEvent
 1591 0014 0221     		movs	r1, #2	@,
ARM GAS  /var/folders/z0/6xlwn_996xz3mwq1cgzkbq4r0000gp/T//cc0Pdjko.s 			page 46


 1592 0016 2800     		movs	r0, r5	@, id
 1593 0018 9847     		blx	r3	@ i2c.mEvent
 1594              	.LVL111:
 1595              	.L146:
 1596              	.LBE116:
 1597              	.LBE115:
 510:../../lib/lpc11cx4-library/lpc_chip_11cxx_lib/src/i2c_11xx.c **** 	}
 511:../../lib/lpc11cx4-library/lpc_chip_11cxx_lib/src/i2c_11xx.c **** }
 1598              		.loc 1 511 0
 1599              		@ sp needed	@
 1600 001a 70BD     		pop	{r4, r5, r6, pc}
 1601              	.L149:
 1602              		.align	2
 1603              	.L148:
 1604 001c 00000000 		.word	.LANCHOR0
 1605              		.cfi_endproc
 1606              	.LFE225:
 1607              		.size	Chip_I2C_MasterStateHandler, .-Chip_I2C_MasterStateHandler
 1608              		.section	.text.Chip_I2C_EventHandlerPolling,"ax",%progbits
 1609              		.align	2
 1610              		.global	Chip_I2C_EventHandlerPolling
 1611              		.code	16
 1612              		.thumb_func
 1613              		.type	Chip_I2C_EventHandlerPolling, %function
 1614              	Chip_I2C_EventHandlerPolling:
 1615              	.LFB213:
 349:../../lib/lpc11cx4-library/lpc_chip_11cxx_lib/src/i2c_11xx.c **** 	struct i2c_interface *iic = &i2c;
 1616              		.loc 1 349 0
 1617              		.cfi_startproc
 1618              		@ args = 0, pretend = 0, frame = 0
 1619              		@ frame_needed = 0, uses_anonymous_args = 0
 1620              	.LVL112:
 1621 0000 F8B5     		push	{r3, r4, r5, r6, r7, lr}	@
 1622              		.cfi_def_cfa_offset 24
 1623              		.cfi_offset 3, -24
 1624              		.cfi_offset 4, -20
 1625              		.cfi_offset 5, -16
 1626              		.cfi_offset 6, -12
 1627              		.cfi_offset 7, -8
 1628              		.cfi_offset 14, -4
 349:../../lib/lpc11cx4-library/lpc_chip_11cxx_lib/src/i2c_11xx.c **** 	struct i2c_interface *iic = &i2c;
 1629              		.loc 1 349 0
 1630 0002 0700     		movs	r7, r0	@ id, id
 354:../../lib/lpc11cx4-library/lpc_chip_11cxx_lib/src/i2c_11xx.c **** 		return;
 1631              		.loc 1 354 0
 1632 0004 0129     		cmp	r1, #1	@ event,
 1633 0006 00D0     		beq	.L158	@,
 1634              	.LVL113:
 1635              	.L150:
 365:../../lib/lpc11cx4-library/lpc_chip_11cxx_lib/src/i2c_11xx.c **** 
 1636              		.loc 1 365 0
 1637              		@ sp needed	@
 1638 0008 F8BD     		pop	{r3, r4, r5, r6, r7, pc}
 1639              	.LVL114:
 1640              	.L158:
 361:../../lib/lpc11cx4-library/lpc_chip_11cxx_lib/src/i2c_11xx.c **** 			Chip_I2C_MasterStateHandler(id);
 1641              		.loc 1 361 0
ARM GAS  /var/folders/z0/6xlwn_996xz3mwq1cgzkbq4r0000gp/T//cc0Pdjko.s 			page 47


 1642 000a 0825     		movs	r5, #8	@ tmp126,
 358:../../lib/lpc11cx4-library/lpc_chip_11cxx_lib/src/i2c_11xx.c **** 	/* Call the state change handler till xfer is done */
 1643              		.loc 1 358 0
 1644 000c 064E     		ldr	r6, .L159	@ tmp124,
 1645 000e 3469     		ldr	r4, [r6, #16]	@ D.6928, i2c.mXfer
 1646              	.LVL115:
 1647              	.L152:
 1648              	.LBB117:
 1649              	.LBB118:
 512:../../lib/lpc11cx4-library/lpc_chip_11cxx_lib/src/i2c_11xx.c **** 
 513:../../lib/lpc11cx4-library/lpc_chip_11cxx_lib/src/i2c_11xx.c **** /* Setup slave function */
 514:../../lib/lpc11cx4-library/lpc_chip_11cxx_lib/src/i2c_11xx.c **** void Chip_I2C_SlaveSetup(I2C_ID_T id,
 515:../../lib/lpc11cx4-library/lpc_chip_11cxx_lib/src/i2c_11xx.c **** 						 I2C_SLAVE_ID sid,
 516:../../lib/lpc11cx4-library/lpc_chip_11cxx_lib/src/i2c_11xx.c **** 						 I2C_XFER_T *xfer,
 517:../../lib/lpc11cx4-library/lpc_chip_11cxx_lib/src/i2c_11xx.c **** 						 I2C_EVENTHANDLER_T event,
 518:../../lib/lpc11cx4-library/lpc_chip_11cxx_lib/src/i2c_11xx.c **** 						 uint8_t addrMask)
 519:../../lib/lpc11cx4-library/lpc_chip_11cxx_lib/src/i2c_11xx.c **** {
 520:../../lib/lpc11cx4-library/lpc_chip_11cxx_lib/src/i2c_11xx.c **** 	struct i2c_interface *iic = &i2c;
 521:../../lib/lpc11cx4-library/lpc_chip_11cxx_lib/src/i2c_11xx.c **** 	struct i2c_slave_interface *si2c = &i2c_slave[id][sid];
 522:../../lib/lpc11cx4-library/lpc_chip_11cxx_lib/src/i2c_11xx.c **** 	si2c->xfer = xfer;
 523:../../lib/lpc11cx4-library/lpc_chip_11cxx_lib/src/i2c_11xx.c **** 	si2c->event = event;
 524:../../lib/lpc11cx4-library/lpc_chip_11cxx_lib/src/i2c_11xx.c **** 
 525:../../lib/lpc11cx4-library/lpc_chip_11cxx_lib/src/i2c_11xx.c **** 	/* Set up the slave address */
 526:../../lib/lpc11cx4-library/lpc_chip_11cxx_lib/src/i2c_11xx.c **** 	if (sid != I2C_SLAVE_GENERAL) {
 527:../../lib/lpc11cx4-library/lpc_chip_11cxx_lib/src/i2c_11xx.c **** 		setSlaveAddr(iic->ip, sid, xfer->slaveAddr, addrMask);
 528:../../lib/lpc11cx4-library/lpc_chip_11cxx_lib/src/i2c_11xx.c **** 	}
 529:../../lib/lpc11cx4-library/lpc_chip_11cxx_lib/src/i2c_11xx.c **** 
 530:../../lib/lpc11cx4-library/lpc_chip_11cxx_lib/src/i2c_11xx.c **** 	if (!SLAVE_ACTIVE(iic) && !iic->mXfer) {
 531:../../lib/lpc11cx4-library/lpc_chip_11cxx_lib/src/i2c_11xx.c **** 		startSlaverXfer(iic->ip);
 532:../../lib/lpc11cx4-library/lpc_chip_11cxx_lib/src/i2c_11xx.c **** 	}
 533:../../lib/lpc11cx4-library/lpc_chip_11cxx_lib/src/i2c_11xx.c **** 	iic->flags |= 1 << (sid + 8);
 534:../../lib/lpc11cx4-library/lpc_chip_11cxx_lib/src/i2c_11xx.c **** }
 535:../../lib/lpc11cx4-library/lpc_chip_11cxx_lib/src/i2c_11xx.c **** 
 536:../../lib/lpc11cx4-library/lpc_chip_11cxx_lib/src/i2c_11xx.c **** /* I2C Slave event handler */
 537:../../lib/lpc11cx4-library/lpc_chip_11cxx_lib/src/i2c_11xx.c **** void Chip_I2C_SlaveStateHandler(I2C_ID_T id)
 538:../../lib/lpc11cx4-library/lpc_chip_11cxx_lib/src/i2c_11xx.c **** {
 539:../../lib/lpc11cx4-library/lpc_chip_11cxx_lib/src/i2c_11xx.c **** 	int ret;
 540:../../lib/lpc11cx4-library/lpc_chip_11cxx_lib/src/i2c_11xx.c **** 	struct i2c_interface *iic = &i2c;
 541:../../lib/lpc11cx4-library/lpc_chip_11cxx_lib/src/i2c_11xx.c **** 
 542:../../lib/lpc11cx4-library/lpc_chip_11cxx_lib/src/i2c_11xx.c **** 	/* Get the currently addressed slave */
 543:../../lib/lpc11cx4-library/lpc_chip_11cxx_lib/src/i2c_11xx.c **** 	if (!iic->sXfer) {
 544:../../lib/lpc11cx4-library/lpc_chip_11cxx_lib/src/i2c_11xx.c **** 		struct i2c_slave_interface *si2c;
 545:../../lib/lpc11cx4-library/lpc_chip_11cxx_lib/src/i2c_11xx.c **** 
 546:../../lib/lpc11cx4-library/lpc_chip_11cxx_lib/src/i2c_11xx.c **** 		I2C_SLAVE_ID sid = getSlaveIndex(iic->ip);
 547:../../lib/lpc11cx4-library/lpc_chip_11cxx_lib/src/i2c_11xx.c **** 		si2c = &i2c_slave[id][sid];
 548:../../lib/lpc11cx4-library/lpc_chip_11cxx_lib/src/i2c_11xx.c **** 		iic->sXfer = si2c->xfer;
 549:../../lib/lpc11cx4-library/lpc_chip_11cxx_lib/src/i2c_11xx.c **** 		iic->sEvent = si2c->event;
 550:../../lib/lpc11cx4-library/lpc_chip_11cxx_lib/src/i2c_11xx.c **** 	}
 551:../../lib/lpc11cx4-library/lpc_chip_11cxx_lib/src/i2c_11xx.c **** 
 552:../../lib/lpc11cx4-library/lpc_chip_11cxx_lib/src/i2c_11xx.c **** 	iic->sXfer->slaveAddr |= iic->mXfer != 0;
 553:../../lib/lpc11cx4-library/lpc_chip_11cxx_lib/src/i2c_11xx.c **** 	ret = handleSlaveXferState(iic->ip, iic->sXfer);
 554:../../lib/lpc11cx4-library/lpc_chip_11cxx_lib/src/i2c_11xx.c **** 	if (ret) {
 555:../../lib/lpc11cx4-library/lpc_chip_11cxx_lib/src/i2c_11xx.c **** 		if (iic->sXfer->status == I2C_STATUS_DONE) {
 556:../../lib/lpc11cx4-library/lpc_chip_11cxx_lib/src/i2c_11xx.c **** 			iic->sXfer = 0;
 557:../../lib/lpc11cx4-library/lpc_chip_11cxx_lib/src/i2c_11xx.c **** 		}
 558:../../lib/lpc11cx4-library/lpc_chip_11cxx_lib/src/i2c_11xx.c **** 		iic->sEvent(id, (I2C_EVENT_T) ret);
 559:../../lib/lpc11cx4-library/lpc_chip_11cxx_lib/src/i2c_11xx.c **** 	}
ARM GAS  /var/folders/z0/6xlwn_996xz3mwq1cgzkbq4r0000gp/T//cc0Pdjko.s 			page 48


 560:../../lib/lpc11cx4-library/lpc_chip_11cxx_lib/src/i2c_11xx.c **** }
 561:../../lib/lpc11cx4-library/lpc_chip_11cxx_lib/src/i2c_11xx.c **** 
 562:../../lib/lpc11cx4-library/lpc_chip_11cxx_lib/src/i2c_11xx.c **** /* Disable I2C device */
 563:../../lib/lpc11cx4-library/lpc_chip_11cxx_lib/src/i2c_11xx.c **** void Chip_I2C_Disable(I2C_ID_T id)
 564:../../lib/lpc11cx4-library/lpc_chip_11cxx_lib/src/i2c_11xx.c **** {
 565:../../lib/lpc11cx4-library/lpc_chip_11cxx_lib/src/i2c_11xx.c **** 	UNUSED(id);
 566:../../lib/lpc11cx4-library/lpc_chip_11cxx_lib/src/i2c_11xx.c **** 	LPC_I2Cx(id)->CONCLR = I2C_I2CONCLR_I2ENC;
 567:../../lib/lpc11cx4-library/lpc_chip_11cxx_lib/src/i2c_11xx.c **** }
 568:../../lib/lpc11cx4-library/lpc_chip_11cxx_lib/src/i2c_11xx.c **** 
 569:../../lib/lpc11cx4-library/lpc_chip_11cxx_lib/src/i2c_11xx.c **** /* State change checking */
 570:../../lib/lpc11cx4-library/lpc_chip_11cxx_lib/src/i2c_11xx.c **** int Chip_I2C_IsStateChanged(I2C_ID_T id)
 571:../../lib/lpc11cx4-library/lpc_chip_11cxx_lib/src/i2c_11xx.c **** {
 572:../../lib/lpc11cx4-library/lpc_chip_11cxx_lib/src/i2c_11xx.c **** 	UNUSED(id);
 573:../../lib/lpc11cx4-library/lpc_chip_11cxx_lib/src/i2c_11xx.c **** 	return (LPC_I2Cx(id)->CONSET & I2C_CON_SI) != 0;
 1650              		.loc 1 573 0
 1651 0010 3268     		ldr	r2, [r6]	@ D.6930, i2c.ip
 1652              	.L153:
 1653              	.LBE118:
 1654              	.LBE117:
 360:../../lib/lpc11cx4-library/lpc_chip_11cxx_lib/src/i2c_11xx.c **** 		if (Chip_I2C_IsStateChanged(id)) {
 1655              		.loc 1 360 0
 1656 0012 237D     		ldrb	r3, [r4, #20]	@ MEM[(volatile I2C_STATUS_T *)_5 + 20B], MEM[(volatile I2C_STATUS_T *)_5 + 20B
 1657 0014 042B     		cmp	r3, #4	@ MEM[(volatile I2C_STATUS_T *)_5 + 20B],
 1658 0016 F7D1     		bne	.L150	@,
 1659              	.LVL116:
 1660              	.LBB120:
 1661              	.LBB119:
 1662              		.loc 1 573 0
 1663 0018 1368     		ldr	r3, [r2]	@ D.6931, _10->CONSET
 1664              	.LVL117:
 1665              	.LBE119:
 1666              	.LBE120:
 361:../../lib/lpc11cx4-library/lpc_chip_11cxx_lib/src/i2c_11xx.c **** 			Chip_I2C_MasterStateHandler(id);
 1667              		.loc 1 361 0
 1668 001a 1D42     		tst	r5, r3	@ tmp126, D.6931
 1669 001c F9D0     		beq	.L153	@,
 362:../../lib/lpc11cx4-library/lpc_chip_11cxx_lib/src/i2c_11xx.c **** 		}
 1670              		.loc 1 362 0
 1671 001e 3800     		movs	r0, r7	@, id
 1672 0020 FFF7FEFF 		bl	Chip_I2C_MasterStateHandler	@
 1673              	.LVL118:
 1674 0024 F4E7     		b	.L152	@
 1675              	.L160:
 1676 0026 C046     		.align	2
 1677              	.L159:
 1678 0028 00000000 		.word	.LANCHOR0
 1679              		.cfi_endproc
 1680              	.LFE213:
 1681              		.size	Chip_I2C_EventHandlerPolling, .-Chip_I2C_EventHandlerPolling
 1682              		.section	.text.Chip_I2C_SlaveSetup,"ax",%progbits
 1683              		.align	2
 1684              		.global	Chip_I2C_SlaveSetup
 1685              		.code	16
 1686              		.thumb_func
 1687              		.type	Chip_I2C_SlaveSetup, %function
 1688              	Chip_I2C_SlaveSetup:
 1689              	.LFB226:
ARM GAS  /var/folders/z0/6xlwn_996xz3mwq1cgzkbq4r0000gp/T//cc0Pdjko.s 			page 49


 519:../../lib/lpc11cx4-library/lpc_chip_11cxx_lib/src/i2c_11xx.c **** 	struct i2c_interface *iic = &i2c;
 1690              		.loc 1 519 0
 1691              		.cfi_startproc
 1692              		@ args = 4, pretend = 0, frame = 0
 1693              		@ frame_needed = 0, uses_anonymous_args = 0
 1694              	.LVL119:
 1695 0000 70B5     		push	{r4, r5, r6, lr}	@
 1696              		.cfi_def_cfa_offset 16
 1697              		.cfi_offset 4, -16
 1698              		.cfi_offset 5, -12
 1699              		.cfi_offset 6, -8
 1700              		.cfi_offset 14, -4
 519:../../lib/lpc11cx4-library/lpc_chip_11cxx_lib/src/i2c_11xx.c **** 	struct i2c_interface *iic = &i2c;
 1701              		.loc 1 519 0
 1702 0002 04AC     		add	r4, sp, #16	@ tmp136,,
 1703              	.LVL120:
 1704 0004 2678     		ldrb	r6, [r4]	@ addrMask, addrMask
 522:../../lib/lpc11cx4-library/lpc_chip_11cxx_lib/src/i2c_11xx.c **** 	si2c->event = event;
 1705              		.loc 1 522 0
 1706 0006 8400     		lsls	r4, r0, #2	@ tmp139, id,
 1707              	.LVL121:
 1708 0008 2418     		adds	r4, r4, r0	@ tmp140, tmp139, id
 1709 000a 164D     		ldr	r5, .L170	@ tmp137,
 1710 000c 6418     		adds	r4, r4, r1	@ tmp141, tmp140, sid
 1711 000e E000     		lsls	r0, r4, #3	@ tmp142, tmp141,
 1712              	.LVL122:
 1713 0010 4251     		str	r2, [r0, r5]	@ xfer, MEM[(struct i2c_slave_interface *)&i2c_slave][_4][_6].xfer
 523:../../lib/lpc11cx4-library/lpc_chip_11cxx_lib/src/i2c_11xx.c **** 
 1714              		.loc 1 523 0
 1715 0012 2818     		adds	r0, r5, r0	@ tmp149, tmp137, tmp142
 1716 0014 4360     		str	r3, [r0, #4]	@ event, MEM[(struct i2c_slave_interface *)&i2c_slave][_4][_6].event
 527:../../lib/lpc11cx4-library/lpc_chip_11cxx_lib/src/i2c_11xx.c **** 	}
 1717              		.loc 1 527 0
 1718 0016 1448     		ldr	r0, .L170+4	@ tmp170,
 526:../../lib/lpc11cx4-library/lpc_chip_11cxx_lib/src/i2c_11xx.c **** 		setSlaveAddr(iic->ip, sid, xfer->slaveAddr, addrMask);
 1719              		.loc 1 526 0
 1720 0018 0029     		cmp	r1, #0	@ sid,
 1721 001a 0DD0     		beq	.L162	@,
 527:../../lib/lpc11cx4-library/lpc_chip_11cxx_lib/src/i2c_11xx.c **** 	}
 1722              		.loc 1 527 0
 1723 001c 1478     		ldrb	r4, [r2]	@ D.6937, *xfer_8(D)
 1724              	.LBB121:
 1725              	.LBB122:
 137:../../lib/lpc11cx4-library/lpc_chip_11cxx_lib/src/i2c_11xx.c **** 	if (sid == I2C_SLAVE_0) {
 1726              		.loc 1 137 0
 1727 001e 0A00     		movs	r2, r1	@ tmp152, sid
 1728              	.LVL123:
 1729              	.LBE122:
 1730              	.LBE121:
 527:../../lib/lpc11cx4-library/lpc_chip_11cxx_lib/src/i2c_11xx.c **** 	}
 1731              		.loc 1 527 0
 1732 0020 0368     		ldr	r3, [r0]	@ D.6936, i2c.ip
 1733              	.LVL124:
 1734              	.LBB126:
 1735              	.LBB124:
 137:../../lib/lpc11cx4-library/lpc_chip_11cxx_lib/src/i2c_11xx.c **** 	if (sid == I2C_SLAVE_0) {
 1736              		.loc 1 137 0
ARM GAS  /var/folders/z0/6xlwn_996xz3mwq1cgzkbq4r0000gp/T//cc0Pdjko.s 			page 50


 1737 0022 0B32     		adds	r2, r2, #11	@ tmp152,
 1738 0024 9200     		lsls	r2, r2, #2	@ tmp153, tmp152,
 1739 0026 D650     		str	r6, [r2, r3]	@ addrMask, _12->MASK
 138:../../lib/lpc11cx4-library/lpc_chip_11cxx_lib/src/i2c_11xx.c **** 		pI2C->ADR0 = addr;
 1740              		.loc 1 138 0
 1741 0028 0129     		cmp	r1, #1	@ sid,
 1742 002a 13D0     		beq	.L168	@,
 1743              	.LVL125:
 1744              	.LBB123:
 143:../../lib/lpc11cx4-library/lpc_chip_11cxx_lib/src/i2c_11xx.c **** 	}
 1745              		.loc 1 143 0
 1746 002c 0F4A     		ldr	r2, .L170+8	@ tmp173,
 142:../../lib/lpc11cx4-library/lpc_chip_11cxx_lib/src/i2c_11xx.c **** 		abase[index - 1] = addr;
 1747              		.loc 1 142 0
 1748 002e 2033     		adds	r3, r3, #32	@ abase,
 1749              	.LVL126:
 143:../../lib/lpc11cx4-library/lpc_chip_11cxx_lib/src/i2c_11xx.c **** 	}
 1750              		.loc 1 143 0
 1751 0030 8A18     		adds	r2, r1, r2	@ D.6940, sid, tmp173
 1752 0032 9200     		lsls	r2, r2, #2	@ D.6940, D.6940,
 1753 0034 9B18     		adds	r3, r3, r2	@ D.6941, abase, D.6940
 1754              	.LVL127:
 1755 0036 1C60     		str	r4, [r3]	@ D.6937, *_33
 1756              	.LVL128:
 1757              	.L162:
 1758              	.LBE123:
 1759              	.LBE124:
 1760              	.LBE126:
 530:../../lib/lpc11cx4-library/lpc_chip_11cxx_lib/src/i2c_11xx.c **** 		startSlaverXfer(iic->ip);
 1761              		.loc 1 530 0
 1762 0038 FF22     		movs	r2, #255	@ tmp159,
 1763 003a 8369     		ldr	r3, [r0, #24]	@ D.6938, i2c.flags
 1764 003c 1202     		lsls	r2, r2, #8	@ tmp159, tmp159,
 1765 003e 1342     		tst	r3, r2	@ D.6938, tmp159
 1766 0040 02D1     		bne	.L164	@,
 530:../../lib/lpc11cx4-library/lpc_chip_11cxx_lib/src/i2c_11xx.c **** 		startSlaverXfer(iic->ip);
 1767              		.loc 1 530 0 is_stmt 0 discriminator 1
 1768 0042 0269     		ldr	r2, [r0, #16]	@ tmp174, i2c.mXfer
 1769 0044 002A     		cmp	r2, #0	@ tmp174,
 1770 0046 07D0     		beq	.L169	@,
 1771              	.L164:
 533:../../lib/lpc11cx4-library/lpc_chip_11cxx_lib/src/i2c_11xx.c **** }
 1772              		.loc 1 533 0 is_stmt 1
 1773 0048 0122     		movs	r2, #1	@ tmp168,
 1774 004a 0831     		adds	r1, r1, #8	@ D.6935,
 1775              	.LVL129:
 1776 004c 8A40     		lsls	r2, r2, r1	@ D.6935, tmp168, D.6935
 1777 004e 1343     		orrs	r3, r2	@ D.6938, D.6935
 1778 0050 8361     		str	r3, [r0, #24]	@ D.6938, i2c.flags
 534:../../lib/lpc11cx4-library/lpc_chip_11cxx_lib/src/i2c_11xx.c **** 
 1779              		.loc 1 534 0
 1780              		@ sp needed	@
 1781 0052 70BD     		pop	{r4, r5, r6, pc}
 1782              	.LVL130:
 1783              	.L168:
 1784              	.LBB127:
 1785              	.LBB125:
ARM GAS  /var/folders/z0/6xlwn_996xz3mwq1cgzkbq4r0000gp/T//cc0Pdjko.s 			page 51


 139:../../lib/lpc11cx4-library/lpc_chip_11cxx_lib/src/i2c_11xx.c **** 	}
 1786              		.loc 1 139 0
 1787 0054 DC60     		str	r4, [r3, #12]	@ D.6937, _12->ADR0
 1788 0056 EFE7     		b	.L162	@
 1789              	.LVL131:
 1790              	.L169:
 1791              	.LBE125:
 1792              	.LBE127:
 1793              	.LBB128:
 1794              	.LBB129:
 109:../../lib/lpc11cx4-library/lpc_chip_11cxx_lib/src/i2c_11xx.c **** 
 1795              		.loc 1 109 0
 1796 0058 3824     		movs	r4, #56	@ tmp163,
 1797              	.LBE129:
 1798              	.LBE128:
 531:../../lib/lpc11cx4-library/lpc_chip_11cxx_lib/src/i2c_11xx.c **** 	}
 1799              		.loc 1 531 0
 1800 005a 0268     		ldr	r2, [r0]	@ D.6936, i2c.ip
 1801              	.LVL132:
 1802              	.LBB131:
 1803              	.LBB130:
 109:../../lib/lpc11cx4-library/lpc_chip_11cxx_lib/src/i2c_11xx.c **** 
 1804              		.loc 1 109 0
 1805 005c 9461     		str	r4, [r2, #24]	@ tmp163, _19->CONCLR
 112:../../lib/lpc11cx4-library/lpc_chip_11cxx_lib/src/i2c_11xx.c **** }
 1806              		.loc 1 112 0
 1807 005e 0C34     		adds	r4, r4, #12	@ tmp164,
 1808 0060 1460     		str	r4, [r2]	@ tmp164, _19->CONSET
 1809 0062 F1E7     		b	.L164	@
 1810              	.L171:
 1811              		.align	2
 1812              	.L170:
 1813 0064 00000000 		.word	.LANCHOR1
 1814 0068 00000000 		.word	.LANCHOR0
 1815 006c FEFFFF3F 		.word	1073741822
 1816              	.LBE130:
 1817              	.LBE131:
 1818              		.cfi_endproc
 1819              	.LFE226:
 1820              		.size	Chip_I2C_SlaveSetup, .-Chip_I2C_SlaveSetup
 1821              		.section	.text.Chip_I2C_SlaveStateHandler,"ax",%progbits
 1822              		.align	2
 1823              		.global	Chip_I2C_SlaveStateHandler
 1824              		.code	16
 1825              		.thumb_func
 1826              		.type	Chip_I2C_SlaveStateHandler, %function
 1827              	Chip_I2C_SlaveStateHandler:
 1828              	.LFB227:
 538:../../lib/lpc11cx4-library/lpc_chip_11cxx_lib/src/i2c_11xx.c **** 	int ret;
 1829              		.loc 1 538 0
 1830              		.cfi_startproc
 1831              		@ args = 0, pretend = 0, frame = 0
 1832              		@ frame_needed = 0, uses_anonymous_args = 0
 1833              	.LVL133:
 1834 0000 F8B5     		push	{r3, r4, r5, r6, r7, lr}	@
 1835              		.cfi_def_cfa_offset 24
 1836              		.cfi_offset 3, -24
ARM GAS  /var/folders/z0/6xlwn_996xz3mwq1cgzkbq4r0000gp/T//cc0Pdjko.s 			page 52


 1837              		.cfi_offset 4, -20
 1838              		.cfi_offset 5, -16
 1839              		.cfi_offset 6, -12
 1840              		.cfi_offset 7, -8
 1841              		.cfi_offset 14, -4
 543:../../lib/lpc11cx4-library/lpc_chip_11cxx_lib/src/i2c_11xx.c **** 		struct i2c_slave_interface *si2c;
 1842              		.loc 1 543 0
 1843 0002 154D     		ldr	r5, .L182	@ tmp165,
 538:../../lib/lpc11cx4-library/lpc_chip_11cxx_lib/src/i2c_11xx.c **** 	int ret;
 1844              		.loc 1 538 0
 1845 0004 0600     		movs	r6, r0	@ id, id
 543:../../lib/lpc11cx4-library/lpc_chip_11cxx_lib/src/i2c_11xx.c **** 		struct i2c_slave_interface *si2c;
 1846              		.loc 1 543 0
 1847 0006 6C69     		ldr	r4, [r5, #20]	@ D.6946, i2c.sXfer
 1848              	.LBB132:
 546:../../lib/lpc11cx4-library/lpc_chip_11cxx_lib/src/i2c_11xx.c **** 		si2c = &i2c_slave[id][sid];
 1849              		.loc 1 546 0
 1850 0008 2F68     		ldr	r7, [r5]	@ D.6954, i2c.ip
 1851              	.LBE132:
 543:../../lib/lpc11cx4-library/lpc_chip_11cxx_lib/src/i2c_11xx.c **** 		struct i2c_slave_interface *si2c;
 1852              		.loc 1 543 0
 1853 000a 002C     		cmp	r4, #0	@ D.6946,
 1854 000c 15D0     		beq	.L180	@,
 1855              	.LVL134:
 1856              	.L174:
 552:../../lib/lpc11cx4-library/lpc_chip_11cxx_lib/src/i2c_11xx.c **** 	ret = handleSlaveXferState(iic->ip, iic->sXfer);
 1857              		.loc 1 552 0
 1858 000e 2A69     		ldr	r2, [r5, #16]	@ tmp153, i2c.mXfer
 553:../../lib/lpc11cx4-library/lpc_chip_11cxx_lib/src/i2c_11xx.c **** 	if (ret) {
 1859              		.loc 1 553 0
 1860 0010 2100     		movs	r1, r4	@, D.6946
 552:../../lib/lpc11cx4-library/lpc_chip_11cxx_lib/src/i2c_11xx.c **** 	ret = handleSlaveXferState(iic->ip, iic->sXfer);
 1861              		.loc 1 552 0
 1862 0012 531E     		subs	r3, r2, #1	@ tmp154, tmp153
 1863 0014 9A41     		sbcs	r2, r2, r3	@ tmp153, tmp153, tmp154
 1864 0016 2378     		ldrb	r3, [r4]	@ *_41, *_41
 553:../../lib/lpc11cx4-library/lpc_chip_11cxx_lib/src/i2c_11xx.c **** 	if (ret) {
 1865              		.loc 1 553 0
 1866 0018 3800     		movs	r0, r7	@, D.6954
 552:../../lib/lpc11cx4-library/lpc_chip_11cxx_lib/src/i2c_11xx.c **** 	ret = handleSlaveXferState(iic->ip, iic->sXfer);
 1867              		.loc 1 552 0
 1868 001a 1343     		orrs	r3, r2	@ tmp157, tmp153
 1869 001c 2370     		strb	r3, [r4]	@ tmp157, _41->slaveAddr
 553:../../lib/lpc11cx4-library/lpc_chip_11cxx_lib/src/i2c_11xx.c **** 	if (ret) {
 1870              		.loc 1 553 0
 1871 001e FFF7FEFF 		bl	handleSlaveXferState	@
 1872              	.LVL135:
 554:../../lib/lpc11cx4-library/lpc_chip_11cxx_lib/src/i2c_11xx.c **** 		if (iic->sXfer->status == I2C_STATUS_DONE) {
 1873              		.loc 1 554 0
 1874 0022 0028     		cmp	r0, #0	@ ret,
 1875 0024 06D0     		beq	.L172	@,
 555:../../lib/lpc11cx4-library/lpc_chip_11cxx_lib/src/i2c_11xx.c **** 			iic->sXfer = 0;
 1876              		.loc 1 555 0
 1877 0026 237D     		ldrb	r3, [r4, #20]	@ tmp159,
 1878 0028 002B     		cmp	r3, #0	@ tmp159,
 1879 002a 04D0     		beq	.L181	@,
 1880              	.L176:
ARM GAS  /var/folders/z0/6xlwn_996xz3mwq1cgzkbq4r0000gp/T//cc0Pdjko.s 			page 53


 558:../../lib/lpc11cx4-library/lpc_chip_11cxx_lib/src/i2c_11xx.c **** 	}
 1881              		.loc 1 558 0
 1882 002c C1B2     		uxtb	r1, r0	@ ret, ret
 1883 002e EB68     		ldr	r3, [r5, #12]	@ i2c.sEvent, i2c.sEvent
 1884 0030 3000     		movs	r0, r6	@, id
 1885              	.LVL136:
 1886 0032 9847     		blx	r3	@ i2c.sEvent
 1887              	.LVL137:
 1888              	.L172:
 560:../../lib/lpc11cx4-library/lpc_chip_11cxx_lib/src/i2c_11xx.c **** 
 1889              		.loc 1 560 0
 1890              		@ sp needed	@
 1891 0034 F8BD     		pop	{r3, r4, r5, r6, r7, pc}
 1892              	.LVL138:
 1893              	.L181:
 556:../../lib/lpc11cx4-library/lpc_chip_11cxx_lib/src/i2c_11xx.c **** 		}
 1894              		.loc 1 556 0
 1895 0036 6B61     		str	r3, [r5, #20]	@ tmp159, i2c.sXfer
 1896 0038 F8E7     		b	.L176	@
 1897              	.LVL139:
 1898              	.L180:
 1899              	.LBB133:
 546:../../lib/lpc11cx4-library/lpc_chip_11cxx_lib/src/i2c_11xx.c **** 		si2c = &i2c_slave[id][sid];
 1900              		.loc 1 546 0
 1901 003a 3800     		movs	r0, r7	@, D.6954
 1902              	.LVL140:
 1903 003c FFF7FEFF 		bl	getSlaveIndex	@
 1904              	.LVL141:
 548:../../lib/lpc11cx4-library/lpc_chip_11cxx_lib/src/i2c_11xx.c **** 		iic->sEvent = si2c->event;
 1905              		.loc 1 548 0
 1906 0040 B300     		lsls	r3, r6, #2	@ tmp135, id,
 1907 0042 9B19     		adds	r3, r3, r6	@ tmp136, tmp135, id
 1908 0044 0549     		ldr	r1, .L182+4	@ tmp133,
 1909 0046 1B18     		adds	r3, r3, r0	@ tmp137, tmp136, tmp131
 1910 0048 D800     		lsls	r0, r3, #3	@ tmp138, tmp137,
 1911              	.LVL142:
 1912 004a 4458     		ldr	r4, [r0, r1]	@ D.6946, MEM[(struct i2c_slave_interface *)&i2c_slave][_10][_11].xfer
 549:../../lib/lpc11cx4-library/lpc_chip_11cxx_lib/src/i2c_11xx.c **** 	}
 1913              		.loc 1 549 0
 1914 004c 0818     		adds	r0, r1, r0	@ tmp147, tmp133, tmp138
 1915 004e 4368     		ldr	r3, [r0, #4]	@ tmp168, MEM[(struct i2c_slave_interface *)&i2c_slave][_10][_11].event
 548:../../lib/lpc11cx4-library/lpc_chip_11cxx_lib/src/i2c_11xx.c **** 		iic->sEvent = si2c->event;
 1916              		.loc 1 548 0
 1917 0050 6C61     		str	r4, [r5, #20]	@ D.6946, i2c.sXfer
 549:../../lib/lpc11cx4-library/lpc_chip_11cxx_lib/src/i2c_11xx.c **** 	}
 1918              		.loc 1 549 0
 1919 0052 EB60     		str	r3, [r5, #12]	@ tmp168, i2c.sEvent
 1920 0054 DBE7     		b	.L174	@
 1921              	.L183:
 1922 0056 C046     		.align	2
 1923              	.L182:
 1924 0058 00000000 		.word	.LANCHOR0
 1925 005c 00000000 		.word	.LANCHOR1
 1926              	.LBE133:
 1927              		.cfi_endproc
 1928              	.LFE227:
 1929              		.size	Chip_I2C_SlaveStateHandler, .-Chip_I2C_SlaveStateHandler
ARM GAS  /var/folders/z0/6xlwn_996xz3mwq1cgzkbq4r0000gp/T//cc0Pdjko.s 			page 54


 1930              		.section	.text.Chip_I2C_Disable,"ax",%progbits
 1931              		.align	2
 1932              		.global	Chip_I2C_Disable
 1933              		.code	16
 1934              		.thumb_func
 1935              		.type	Chip_I2C_Disable, %function
 1936              	Chip_I2C_Disable:
 1937              	.LFB228:
 564:../../lib/lpc11cx4-library/lpc_chip_11cxx_lib/src/i2c_11xx.c **** 	UNUSED(id);
 1938              		.loc 1 564 0
 1939              		.cfi_startproc
 1940              		@ args = 0, pretend = 0, frame = 0
 1941              		@ frame_needed = 0, uses_anonymous_args = 0
 1942              		@ link register save eliminated.
 1943              	.LVL143:
 566:../../lib/lpc11cx4-library/lpc_chip_11cxx_lib/src/i2c_11xx.c **** }
 1944              		.loc 1 566 0
 1945 0000 4022     		movs	r2, #64	@ tmp113,
 1946 0002 024B     		ldr	r3, .L185	@ tmp112,
 567:../../lib/lpc11cx4-library/lpc_chip_11cxx_lib/src/i2c_11xx.c **** 
 1947              		.loc 1 567 0
 1948              		@ sp needed	@
 566:../../lib/lpc11cx4-library/lpc_chip_11cxx_lib/src/i2c_11xx.c **** }
 1949              		.loc 1 566 0
 1950 0004 1B68     		ldr	r3, [r3]	@ D.6959, i2c.ip
 1951 0006 9A61     		str	r2, [r3, #24]	@ tmp113, _2->CONCLR
 567:../../lib/lpc11cx4-library/lpc_chip_11cxx_lib/src/i2c_11xx.c **** 
 1952              		.loc 1 567 0
 1953 0008 7047     		bx	lr
 1954              	.L186:
 1955 000a C046     		.align	2
 1956              	.L185:
 1957 000c 00000000 		.word	.LANCHOR0
 1958              		.cfi_endproc
 1959              	.LFE228:
 1960              		.size	Chip_I2C_Disable, .-Chip_I2C_Disable
 1961              		.section	.text.Chip_I2C_IsStateChanged,"ax",%progbits
 1962              		.align	2
 1963              		.global	Chip_I2C_IsStateChanged
 1964              		.code	16
 1965              		.thumb_func
 1966              		.type	Chip_I2C_IsStateChanged, %function
 1967              	Chip_I2C_IsStateChanged:
 1968              	.LFB229:
 571:../../lib/lpc11cx4-library/lpc_chip_11cxx_lib/src/i2c_11xx.c **** 	UNUSED(id);
 1969              		.loc 1 571 0
 1970              		.cfi_startproc
 1971              		@ args = 0, pretend = 0, frame = 0
 1972              		@ frame_needed = 0, uses_anonymous_args = 0
 1973              		@ link register save eliminated.
 1974              	.LVL144:
 1975              		.loc 1 573 0
 1976 0000 024B     		ldr	r3, .L188	@ tmp117,
 574:../../lib/lpc11cx4-library/lpc_chip_11cxx_lib/src/i2c_11xx.c **** }
 1977              		.loc 1 574 0
 1978              		@ sp needed	@
 573:../../lib/lpc11cx4-library/lpc_chip_11cxx_lib/src/i2c_11xx.c **** }
ARM GAS  /var/folders/z0/6xlwn_996xz3mwq1cgzkbq4r0000gp/T//cc0Pdjko.s 			page 55


 1979              		.loc 1 573 0
 1980 0002 1B68     		ldr	r3, [r3]	@ D.6963, i2c.ip
 1981 0004 1868     		ldr	r0, [r3]	@ D.6964, _2->CONSET
 1982              	.LVL145:
 1983 0006 0007     		lsls	r0, r0, #28	@ tmp120, D.6964,
 1984 0008 C00F     		lsrs	r0, r0, #31	@ D.6965, tmp120,
 1985              		.loc 1 574 0
 1986 000a 7047     		bx	lr
 1987              	.L189:
 1988              		.align	2
 1989              	.L188:
 1990 000c 00000000 		.word	.LANCHOR0
 1991              		.cfi_endproc
 1992              	.LFE229:
 1993              		.size	Chip_I2C_IsStateChanged, .-Chip_I2C_IsStateChanged
 1994              		.section	.data.i2c,"aw",%progbits
 1995              		.align	2
 1996              		.set	.LANCHOR0,. + 0
 1997              		.type	i2c, %object
 1998              		.size	i2c, 28
 1999              	i2c:
 2000              	@ ip:
 2001 0000 00000040 		.word	1073741824
 2002              	@ clk:
 2003 0004 05       		.byte	5
 2004              	@ mEvent:
 2005 0005 000000   		.space	3
 2006 0008 00000000 		.word	Chip_I2C_EventHandler
 2007              	@ sEvent:
 2008 000c 00000000 		.word	0
 2009              	@ mXfer:
 2010 0010 00000000 		.word	0
 2011              	@ sXfer:
 2012 0014 00000000 		.word	0
 2013              	@ flags:
 2014 0018 00000000 		.word	0
 2015              		.section	.bss.i2c_slave,"aw",%nobits
 2016              		.align	2
 2017              		.set	.LANCHOR1,. + 0
 2018              		.type	i2c_slave, %object
 2019              		.size	i2c_slave, 40
 2020              	i2c_slave:
 2021 0000 00000000 		.space	40
 2021      00000000 
 2021      00000000 
 2021      00000000 
 2021      00000000 
 2022              		.text
 2023              	.Letext0:
 2024              		.file 3 "/usr/local/Cellar/gcc-arm-none-eabi/20160928/arm-none-eabi/include/machine/_default_types
 2025              		.file 4 "/usr/local/Cellar/gcc-arm-none-eabi/20160928/arm-none-eabi/include/sys/_stdint.h"
 2026              		.file 5 "../../lib/lpc11cx4-library/lpc_chip_11cxx_lib/inc/sysctl_11xx.h"
 2027              		.file 6 "../../lib/lpc11cx4-library/lpc_chip_11cxx_lib/inc/i2c_11xx.h"
 2028              		.file 7 "../../lib/lpc11cx4-library/lpc_chip_11cxx_lib/inc/chip.h"