ARM GAS  /var/folders/z0/6xlwn_996xz3mwq1cgzkbq4r0000gp/T//cc0Pdjko.s 			page 1


   1              		.syntax unified
   2              		.cpu cortex-m0
   3              		.fpu softvfp
   4              		.eabi_attribute 20, 1	@ Tag_ABI_FP_denormal
   5              		.eabi_attribute 21, 1	@ Tag_ABI_FP_exceptions
   6              		.eabi_attribute 23, 3	@ Tag_ABI_FP_number_model
   7              		.eabi_attribute 24, 1	@ Tag_ABI_align8_needed
   8              		.eabi_attribute 25, 1	@ Tag_ABI_align8_preserved
   9              		.eabi_attribute 26, 1	@ Tag_ABI_enum_size
  10              		.eabi_attribute 30, 2	@ Tag_ABI_optimization_goals
  11              		.eabi_attribute 34, 0	@ Tag_CPU_unaligned_access
  12              		.eabi_attribute 18, 4	@ Tag_ABI_PCS_wchar_t
  13              		.file	"i2c_11xx.c"
  14              	@ GNU C89 (GNU Tools for ARM Embedded Processors) version 5.4.1 20160919 (release) [ARM/embedded-5-
  15              	@	compiled by GNU C version 4.2.1 (Based on Apple Inc. build 5658) (LLVM build 2336.9.00), GMP vers
  16              	@ GGC heuristics: --param ggc-min-expand=100 --param ggc-min-heapsize=131072
  17              	@ options passed:  -I . -I inc/
  18              	@ -I ../../lib/lpc11cx4-library/lpc_chip_11cxx_lib/inc
  19              	@ -I ../../lib/lpc11cx4-library/evt_lib/inc/ -I ../../lib/CANlib
  20              	@ -imultilib armv6-m
  21              	@ -iprefix /usr/local/Cellar/gcc-arm-none-eabi/20160928/bin/../lib/gcc/arm-none-eabi/5.4.1/
  22              	@ -isysroot /usr/local/Cellar/gcc-arm-none-eabi/20160928/bin/../arm-none-eabi
  23              	@ -MD bin/i2c_11xx.d -MF bin/i2c_11xx.d -MP -MQ bin/i2c_11xx.o
  24              	@ -D__USES_INITFINI__ -D UART_BAUD=57600 -D CORE_M0 -D DEBUG_ENABLE
  25              	@ -D FSAE_DRIVERS -D CAN_ARCHITECTURE_ARM
  26              	@ ../../lib/lpc11cx4-library/lpc_chip_11cxx_lib/src/i2c_11xx.c
  27              	@ -mcpu=cortex-m0 -mthumb -auxbase-strip bin/i2c_11xx.o -g -ggdb3 -O2 -Wall
  28              	@ -Wstrict-prototypes -Wextra -std=gnu90 -ffunction-sections
  29              	@ -fdata-sections -fdiagnostics-color=always -fverbose-asm
  30              	@ options enabled:  -faggressive-loop-optimizations -falign-functions
  31              	@ -falign-jumps -falign-labels -falign-loops -fauto-inc-dec
  32              	@ -fbranch-count-reg -fcaller-saves -fchkp-check-incomplete-type
  33              	@ -fchkp-check-read -fchkp-check-write -fchkp-instrument-calls
  34              	@ -fchkp-narrow-bounds -fchkp-optimize -fchkp-store-bounds
  35              	@ -fchkp-use-static-bounds -fchkp-use-static-const-bounds
  36              	@ -fchkp-use-wrappers -fcombine-stack-adjustments -fcommon -fcompare-elim
  37              	@ -fcprop-registers -fcrossjumping -fcse-follow-jumps -fdata-sections
  38              	@ -fdefer-pop -fdelete-null-pointer-checks -fdevirtualize
  39              	@ -fdevirtualize-speculatively -fdwarf2-cfi-asm -fearly-inlining
  40              	@ -feliminate-unused-debug-types -fexpensive-optimizations
  41              	@ -fforward-propagate -ffunction-cse -ffunction-sections -fgcse -fgcse-lm
  42              	@ -fgnu-runtime -fgnu-unique -fguess-branch-probability
  43              	@ -fhoist-adjacent-loads -fident -fif-conversion -fif-conversion2
  44              	@ -findirect-inlining -finline -finline-atomics
  45              	@ -finline-functions-called-once -finline-small-functions -fipa-cp
  46              	@ -fipa-cp-alignment -fipa-icf -fipa-icf-functions -fipa-icf-variables
  47              	@ -fipa-profile -fipa-pure-const -fipa-reference -fipa-sra
  48              	@ -fira-hoist-pressure -fira-share-save-slots -fira-share-spill-slots
  49              	@ -fisolate-erroneous-paths-dereference -fivopts -fkeep-static-consts
  50              	@ -fleading-underscore -flifetime-dse -flra-remat -flto-odr-type-merging
  51              	@ -fmath-errno -fmerge-constants -fmerge-debug-strings
  52              	@ -fmove-loop-invariants -fomit-frame-pointer -foptimize-sibling-calls
  53              	@ -foptimize-strlen -fpartial-inlining -fpeephole -fpeephole2
  54              	@ -fprefetch-loop-arrays -freg-struct-return -freorder-blocks
  55              	@ -freorder-functions -frerun-cse-after-loop
  56              	@ -fsched-critical-path-heuristic -fsched-dep-count-heuristic
  57              	@ -fsched-group-heuristic -fsched-interblock -fsched-last-insn-heuristic
ARM GAS  /var/folders/z0/6xlwn_996xz3mwq1cgzkbq4r0000gp/T//cc0Pdjko.s 			page 2


  58              	@ -fsched-pressure -fsched-rank-heuristic -fsched-spec
  59              	@ -fsched-spec-insn-heuristic -fsched-stalled-insns-dep -fschedule-insns2
  60              	@ -fsection-anchors -fsemantic-interposition -fshow-column -fshrink-wrap
  61              	@ -fsigned-zeros -fsplit-ivs-in-unroller -fsplit-wide-types -fssa-phiopt
  62              	@ -fstdarg-opt -fstrict-aliasing -fstrict-overflow
  63              	@ -fstrict-volatile-bitfields -fsync-libcalls -fthread-jumps
  64              	@ -ftoplevel-reorder -ftrapping-math -ftree-bit-ccp -ftree-builtin-call-dce
  65              	@ -ftree-ccp -ftree-ch -ftree-coalesce-vars -ftree-copy-prop
  66              	@ -ftree-copyrename -ftree-cselim -ftree-dce -ftree-dominator-opts
  67              	@ -ftree-dse -ftree-forwprop -ftree-fre -ftree-loop-if-convert
  68              	@ -ftree-loop-im -ftree-loop-ivcanon -ftree-loop-optimize
  69              	@ -ftree-parallelize-loops= -ftree-phiprop -ftree-pre -ftree-pta
  70              	@ -ftree-reassoc -ftree-scev-cprop -ftree-sink -ftree-slsr -ftree-sra
  71              	@ -ftree-switch-conversion -ftree-tail-merge -ftree-ter -ftree-vrp
  72              	@ -funit-at-a-time -fvar-tracking -fvar-tracking-assignments -fverbose-asm
  73              	@ -fzero-initialized-in-bss -mlittle-endian -mpic-data-is-text-relative
  74              	@ -msched-prolog -mthumb -mvectorize-with-neon-quad
  75              	
  76              		.text
  77              	.Ltext0:
  78              		.cfi_sections	.debug_frame
  79              		.section	.text.Chip_I2C_EventHandler,"ax",%progbits
  80              		.align	2
  81              		.global	Chip_I2C_EventHandler
  82              		.code	16
  83              		.thumb_func
  84              		.type	Chip_I2C_EventHandler, %function
  85              	Chip_I2C_EventHandler:
  86              	.LFB212:
  87              		.file 1 "../../lib/lpc11cx4-library/lpc_chip_11cxx_lib/src/i2c_11xx.c"
   1:../../lib/lpc11cx4-library/lpc_chip_11cxx_lib/src/i2c_11xx.c **** /*
   2:../../lib/lpc11cx4-library/lpc_chip_11cxx_lib/src/i2c_11xx.c ****  * @brief LPC11xx I2C driver
   3:../../lib/lpc11cx4-library/lpc_chip_11cxx_lib/src/i2c_11xx.c ****  *
   4:../../lib/lpc11cx4-library/lpc_chip_11cxx_lib/src/i2c_11xx.c ****  * @note
   5:../../lib/lpc11cx4-library/lpc_chip_11cxx_lib/src/i2c_11xx.c ****  * Copyright(C) NXP Semiconductors, 2012
   6:../../lib/lpc11cx4-library/lpc_chip_11cxx_lib/src/i2c_11xx.c ****  * All rights reserved.
   7:../../lib/lpc11cx4-library/lpc_chip_11cxx_lib/src/i2c_11xx.c ****  *
   8:../../lib/lpc11cx4-library/lpc_chip_11cxx_lib/src/i2c_11xx.c ****  * @par
   9:../../lib/lpc11cx4-library/lpc_chip_11cxx_lib/src/i2c_11xx.c ****  * Software that is described herein is for illustrative purposes only
  10:../../lib/lpc11cx4-library/lpc_chip_11cxx_lib/src/i2c_11xx.c ****  * which provides customers with programming information regarding the
  11:../../lib/lpc11cx4-library/lpc_chip_11cxx_lib/src/i2c_11xx.c ****  * LPC products.  This software is supplied "AS IS" without any warranties of
  12:../../lib/lpc11cx4-library/lpc_chip_11cxx_lib/src/i2c_11xx.c ****  * any kind, and NXP Semiconductors and its licensor disclaim any and
  13:../../lib/lpc11cx4-library/lpc_chip_11cxx_lib/src/i2c_11xx.c ****  * all warranties, express or implied, including all implied warranties of
  14:../../lib/lpc11cx4-library/lpc_chip_11cxx_lib/src/i2c_11xx.c ****  * merchantability, fitness for a particular purpose and non-infringement of
  15:../../lib/lpc11cx4-library/lpc_chip_11cxx_lib/src/i2c_11xx.c ****  * intellectual property rights.  NXP Semiconductors assumes no responsibility
  16:../../lib/lpc11cx4-library/lpc_chip_11cxx_lib/src/i2c_11xx.c ****  * or liability for the use of the software, conveys no license or rights under any
  17:../../lib/lpc11cx4-library/lpc_chip_11cxx_lib/src/i2c_11xx.c ****  * patent, copyright, mask work right, or any other intellectual property rights in
  18:../../lib/lpc11cx4-library/lpc_chip_11cxx_lib/src/i2c_11xx.c ****  * or to any products. NXP Semiconductors reserves the right to make changes
  19:../../lib/lpc11cx4-library/lpc_chip_11cxx_lib/src/i2c_11xx.c ****  * in the software without notification. NXP Semiconductors also makes no
  20:../../lib/lpc11cx4-library/lpc_chip_11cxx_lib/src/i2c_11xx.c ****  * representation or warranty that such application will be suitable for the
  21:../../lib/lpc11cx4-library/lpc_chip_11cxx_lib/src/i2c_11xx.c ****  * specified use without further testing or modification.
  22:../../lib/lpc11cx4-library/lpc_chip_11cxx_lib/src/i2c_11xx.c ****  *
  23:../../lib/lpc11cx4-library/lpc_chip_11cxx_lib/src/i2c_11xx.c ****  * @par
  24:../../lib/lpc11cx4-library/lpc_chip_11cxx_lib/src/i2c_11xx.c ****  * Permission to use, copy, modify, and distribute this software and its
  25:../../lib/lpc11cx4-library/lpc_chip_11cxx_lib/src/i2c_11xx.c ****  * documentation is hereby granted, under NXP Semiconductors' and its
  26:../../lib/lpc11cx4-library/lpc_chip_11cxx_lib/src/i2c_11xx.c ****  * licensor's relevant copyrights in the software, without fee, provided that it
  27:../../lib/lpc11cx4-library/lpc_chip_11cxx_lib/src/i2c_11xx.c ****  * is used in conjunction with NXP Semiconductors microcontrollers.  This
ARM GAS  /var/folders/z0/6xlwn_996xz3mwq1cgzkbq4r0000gp/T//cc0Pdjko.s 			page 3


  28:../../lib/lpc11cx4-library/lpc_chip_11cxx_lib/src/i2c_11xx.c ****  * copyright, permission, and disclaimer notice must appear in all copies of
  29:../../lib/lpc11cx4-library/lpc_chip_11cxx_lib/src/i2c_11xx.c ****  * this code.
  30:../../lib/lpc11cx4-library/lpc_chip_11cxx_lib/src/i2c_11xx.c ****  */
  31:../../lib/lpc11cx4-library/lpc_chip_11cxx_lib/src/i2c_11xx.c **** 
  32:../../lib/lpc11cx4-library/lpc_chip_11cxx_lib/src/i2c_11xx.c **** #include "chip.h"
  33:../../lib/lpc11cx4-library/lpc_chip_11cxx_lib/src/i2c_11xx.c **** 
  34:../../lib/lpc11cx4-library/lpc_chip_11cxx_lib/src/i2c_11xx.c **** #if !defined(CHIP_LPC110X)
  35:../../lib/lpc11cx4-library/lpc_chip_11cxx_lib/src/i2c_11xx.c **** 
  36:../../lib/lpc11cx4-library/lpc_chip_11cxx_lib/src/i2c_11xx.c **** /*****************************************************************************
  37:../../lib/lpc11cx4-library/lpc_chip_11cxx_lib/src/i2c_11xx.c ****  * Private types/enumerations/variables
  38:../../lib/lpc11cx4-library/lpc_chip_11cxx_lib/src/i2c_11xx.c ****  ****************************************************************************/
  39:../../lib/lpc11cx4-library/lpc_chip_11cxx_lib/src/i2c_11xx.c **** 
  40:../../lib/lpc11cx4-library/lpc_chip_11cxx_lib/src/i2c_11xx.c **** /* Control flags */
  41:../../lib/lpc11cx4-library/lpc_chip_11cxx_lib/src/i2c_11xx.c **** #define I2C_CON_FLAGS (I2C_CON_AA | I2C_CON_SI | I2C_CON_STO | I2C_CON_STA)
  42:../../lib/lpc11cx4-library/lpc_chip_11cxx_lib/src/i2c_11xx.c **** #define LPC_I2Cx(id)      ((i2c.ip))
  43:../../lib/lpc11cx4-library/lpc_chip_11cxx_lib/src/i2c_11xx.c **** #define SLAVE_ACTIVE(iic) (((iic)->flags & 0xFF00) != 0)
  44:../../lib/lpc11cx4-library/lpc_chip_11cxx_lib/src/i2c_11xx.c **** 
  45:../../lib/lpc11cx4-library/lpc_chip_11cxx_lib/src/i2c_11xx.c **** /* I2C common interface structure */
  46:../../lib/lpc11cx4-library/lpc_chip_11cxx_lib/src/i2c_11xx.c **** struct i2c_interface {
  47:../../lib/lpc11cx4-library/lpc_chip_11cxx_lib/src/i2c_11xx.c **** 	LPC_I2C_T *ip;		/* IP base address of the I2C device */
  48:../../lib/lpc11cx4-library/lpc_chip_11cxx_lib/src/i2c_11xx.c **** 	CHIP_SYSCTL_CLOCK_T clk;	/* Clock used by I2C */
  49:../../lib/lpc11cx4-library/lpc_chip_11cxx_lib/src/i2c_11xx.c **** 	I2C_EVENTHANDLER_T mEvent;	/* Current active Master event handler */
  50:../../lib/lpc11cx4-library/lpc_chip_11cxx_lib/src/i2c_11xx.c **** 	I2C_EVENTHANDLER_T sEvent;	/* Slave transfer events */
  51:../../lib/lpc11cx4-library/lpc_chip_11cxx_lib/src/i2c_11xx.c **** 	I2C_XFER_T *mXfer;	/* Current active xfer pointer */
  52:../../lib/lpc11cx4-library/lpc_chip_11cxx_lib/src/i2c_11xx.c **** 	I2C_XFER_T *sXfer;	/* Pointer to store xfer when bus is busy */
  53:../../lib/lpc11cx4-library/lpc_chip_11cxx_lib/src/i2c_11xx.c **** 	uint32_t flags;		/* Flags used by I2C master and slave */
  54:../../lib/lpc11cx4-library/lpc_chip_11cxx_lib/src/i2c_11xx.c **** };
  55:../../lib/lpc11cx4-library/lpc_chip_11cxx_lib/src/i2c_11xx.c **** 
  56:../../lib/lpc11cx4-library/lpc_chip_11cxx_lib/src/i2c_11xx.c **** /* Slave interface structure */
  57:../../lib/lpc11cx4-library/lpc_chip_11cxx_lib/src/i2c_11xx.c **** struct i2c_slave_interface {
  58:../../lib/lpc11cx4-library/lpc_chip_11cxx_lib/src/i2c_11xx.c **** 	I2C_XFER_T *xfer;
  59:../../lib/lpc11cx4-library/lpc_chip_11cxx_lib/src/i2c_11xx.c **** 	I2C_EVENTHANDLER_T event;
  60:../../lib/lpc11cx4-library/lpc_chip_11cxx_lib/src/i2c_11xx.c **** };
  61:../../lib/lpc11cx4-library/lpc_chip_11cxx_lib/src/i2c_11xx.c **** 
  62:../../lib/lpc11cx4-library/lpc_chip_11cxx_lib/src/i2c_11xx.c **** /* I2C interfaces */
  63:../../lib/lpc11cx4-library/lpc_chip_11cxx_lib/src/i2c_11xx.c **** static struct i2c_interface i2c = 
  64:../../lib/lpc11cx4-library/lpc_chip_11cxx_lib/src/i2c_11xx.c **** 	{LPC_I2C, SYSCTL_CLOCK_I2C, Chip_I2C_EventHandler, NULL, NULL, NULL, 0};
  65:../../lib/lpc11cx4-library/lpc_chip_11cxx_lib/src/i2c_11xx.c **** 
  66:../../lib/lpc11cx4-library/lpc_chip_11cxx_lib/src/i2c_11xx.c **** static struct i2c_slave_interface i2c_slave[I2C_NUM_INTERFACE][I2C_SLAVE_NUM_INTERFACE];
  67:../../lib/lpc11cx4-library/lpc_chip_11cxx_lib/src/i2c_11xx.c **** 
  68:../../lib/lpc11cx4-library/lpc_chip_11cxx_lib/src/i2c_11xx.c **** /*****************************************************************************
  69:../../lib/lpc11cx4-library/lpc_chip_11cxx_lib/src/i2c_11xx.c ****  * Public types/enumerations/variables
  70:../../lib/lpc11cx4-library/lpc_chip_11cxx_lib/src/i2c_11xx.c ****  ****************************************************************************/
  71:../../lib/lpc11cx4-library/lpc_chip_11cxx_lib/src/i2c_11xx.c **** 
  72:../../lib/lpc11cx4-library/lpc_chip_11cxx_lib/src/i2c_11xx.c **** /*****************************************************************************
  73:../../lib/lpc11cx4-library/lpc_chip_11cxx_lib/src/i2c_11xx.c ****  * Private functions
  74:../../lib/lpc11cx4-library/lpc_chip_11cxx_lib/src/i2c_11xx.c ****  ****************************************************************************/
  75:../../lib/lpc11cx4-library/lpc_chip_11cxx_lib/src/i2c_11xx.c ****  
  76:../../lib/lpc11cx4-library/lpc_chip_11cxx_lib/src/i2c_11xx.c **** STATIC INLINE void enableClk(I2C_ID_T id)
  77:../../lib/lpc11cx4-library/lpc_chip_11cxx_lib/src/i2c_11xx.c **** {
  78:../../lib/lpc11cx4-library/lpc_chip_11cxx_lib/src/i2c_11xx.c **** 	UNUSED(id);
  79:../../lib/lpc11cx4-library/lpc_chip_11cxx_lib/src/i2c_11xx.c **** 	Chip_Clock_EnablePeriphClock(i2c.clk);
  80:../../lib/lpc11cx4-library/lpc_chip_11cxx_lib/src/i2c_11xx.c **** }
  81:../../lib/lpc11cx4-library/lpc_chip_11cxx_lib/src/i2c_11xx.c **** 
  82:../../lib/lpc11cx4-library/lpc_chip_11cxx_lib/src/i2c_11xx.c **** STATIC INLINE void disableClk(I2C_ID_T id)
  83:../../lib/lpc11cx4-library/lpc_chip_11cxx_lib/src/i2c_11xx.c **** {
  84:../../lib/lpc11cx4-library/lpc_chip_11cxx_lib/src/i2c_11xx.c **** 	UNUSED(id);
ARM GAS  /var/folders/z0/6xlwn_996xz3mwq1cgzkbq4r0000gp/T//cc0Pdjko.s 			page 4


  85:../../lib/lpc11cx4-library/lpc_chip_11cxx_lib/src/i2c_11xx.c **** 	Chip_Clock_DisablePeriphClock(i2c.clk);
  86:../../lib/lpc11cx4-library/lpc_chip_11cxx_lib/src/i2c_11xx.c **** }
  87:../../lib/lpc11cx4-library/lpc_chip_11cxx_lib/src/i2c_11xx.c **** 
  88:../../lib/lpc11cx4-library/lpc_chip_11cxx_lib/src/i2c_11xx.c **** /* Get the ADC Clock Rate */
  89:../../lib/lpc11cx4-library/lpc_chip_11cxx_lib/src/i2c_11xx.c **** STATIC INLINE uint32_t getClkRate(void)
  90:../../lib/lpc11cx4-library/lpc_chip_11cxx_lib/src/i2c_11xx.c **** {
  91:../../lib/lpc11cx4-library/lpc_chip_11cxx_lib/src/i2c_11xx.c **** 	// return Chip_Clock_GetMainClockRate();
  92:../../lib/lpc11cx4-library/lpc_chip_11cxx_lib/src/i2c_11xx.c **** 	return SystemCoreClock;
  93:../../lib/lpc11cx4-library/lpc_chip_11cxx_lib/src/i2c_11xx.c **** }
  94:../../lib/lpc11cx4-library/lpc_chip_11cxx_lib/src/i2c_11xx.c **** 
  95:../../lib/lpc11cx4-library/lpc_chip_11cxx_lib/src/i2c_11xx.c **** /* Enable I2C and start master transfer */
  96:../../lib/lpc11cx4-library/lpc_chip_11cxx_lib/src/i2c_11xx.c **** STATIC INLINE void startMasterXfer(LPC_I2C_T *pI2C)
  97:../../lib/lpc11cx4-library/lpc_chip_11cxx_lib/src/i2c_11xx.c **** {
  98:../../lib/lpc11cx4-library/lpc_chip_11cxx_lib/src/i2c_11xx.c **** 	/* Reset STA, STO, SI */
  99:../../lib/lpc11cx4-library/lpc_chip_11cxx_lib/src/i2c_11xx.c **** 	pI2C->CONCLR = I2C_CON_SI | I2C_CON_STO | I2C_CON_STA | I2C_CON_AA;
 100:../../lib/lpc11cx4-library/lpc_chip_11cxx_lib/src/i2c_11xx.c **** 
 101:../../lib/lpc11cx4-library/lpc_chip_11cxx_lib/src/i2c_11xx.c **** 	/* Enter to Master Transmitter mode */
 102:../../lib/lpc11cx4-library/lpc_chip_11cxx_lib/src/i2c_11xx.c **** 	pI2C->CONSET = I2C_CON_I2EN | I2C_CON_STA;
 103:../../lib/lpc11cx4-library/lpc_chip_11cxx_lib/src/i2c_11xx.c **** }
 104:../../lib/lpc11cx4-library/lpc_chip_11cxx_lib/src/i2c_11xx.c **** 
 105:../../lib/lpc11cx4-library/lpc_chip_11cxx_lib/src/i2c_11xx.c **** /* Enable I2C and enable slave transfers */
 106:../../lib/lpc11cx4-library/lpc_chip_11cxx_lib/src/i2c_11xx.c **** STATIC INLINE void startSlaverXfer(LPC_I2C_T *pI2C)
 107:../../lib/lpc11cx4-library/lpc_chip_11cxx_lib/src/i2c_11xx.c **** {
 108:../../lib/lpc11cx4-library/lpc_chip_11cxx_lib/src/i2c_11xx.c **** 	/* Reset STA, STO, SI */
 109:../../lib/lpc11cx4-library/lpc_chip_11cxx_lib/src/i2c_11xx.c **** 	pI2C->CONCLR = I2C_CON_SI | I2C_CON_STO | I2C_CON_STA;
 110:../../lib/lpc11cx4-library/lpc_chip_11cxx_lib/src/i2c_11xx.c **** 
 111:../../lib/lpc11cx4-library/lpc_chip_11cxx_lib/src/i2c_11xx.c **** 	/* Enter to Master Transmitter mode */
 112:../../lib/lpc11cx4-library/lpc_chip_11cxx_lib/src/i2c_11xx.c **** 	pI2C->CONSET = I2C_CON_I2EN | I2C_CON_AA;
 113:../../lib/lpc11cx4-library/lpc_chip_11cxx_lib/src/i2c_11xx.c **** }
 114:../../lib/lpc11cx4-library/lpc_chip_11cxx_lib/src/i2c_11xx.c **** 
 115:../../lib/lpc11cx4-library/lpc_chip_11cxx_lib/src/i2c_11xx.c **** /* Check if I2C bus is free */
 116:../../lib/lpc11cx4-library/lpc_chip_11cxx_lib/src/i2c_11xx.c **** STATIC INLINE int isI2CBusFree(LPC_I2C_T *pI2C)
 117:../../lib/lpc11cx4-library/lpc_chip_11cxx_lib/src/i2c_11xx.c **** {
 118:../../lib/lpc11cx4-library/lpc_chip_11cxx_lib/src/i2c_11xx.c **** 	return !(pI2C->CONSET & I2C_CON_STO);
 119:../../lib/lpc11cx4-library/lpc_chip_11cxx_lib/src/i2c_11xx.c **** }
 120:../../lib/lpc11cx4-library/lpc_chip_11cxx_lib/src/i2c_11xx.c **** 
 121:../../lib/lpc11cx4-library/lpc_chip_11cxx_lib/src/i2c_11xx.c **** /* Get current state of the I2C peripheral */
 122:../../lib/lpc11cx4-library/lpc_chip_11cxx_lib/src/i2c_11xx.c **** STATIC INLINE int getCurState(LPC_I2C_T *pI2C)
 123:../../lib/lpc11cx4-library/lpc_chip_11cxx_lib/src/i2c_11xx.c **** {
 124:../../lib/lpc11cx4-library/lpc_chip_11cxx_lib/src/i2c_11xx.c **** 	return (int) (pI2C->STAT & I2C_STAT_CODE_BITMASK);
 125:../../lib/lpc11cx4-library/lpc_chip_11cxx_lib/src/i2c_11xx.c **** }
 126:../../lib/lpc11cx4-library/lpc_chip_11cxx_lib/src/i2c_11xx.c **** 
 127:../../lib/lpc11cx4-library/lpc_chip_11cxx_lib/src/i2c_11xx.c **** /* Check if the active state belongs to master mode*/
 128:../../lib/lpc11cx4-library/lpc_chip_11cxx_lib/src/i2c_11xx.c **** STATIC INLINE int isMasterState(LPC_I2C_T *pI2C)
 129:../../lib/lpc11cx4-library/lpc_chip_11cxx_lib/src/i2c_11xx.c **** {
 130:../../lib/lpc11cx4-library/lpc_chip_11cxx_lib/src/i2c_11xx.c **** 	return getCurState(pI2C) < 0x60;
 131:../../lib/lpc11cx4-library/lpc_chip_11cxx_lib/src/i2c_11xx.c **** }
 132:../../lib/lpc11cx4-library/lpc_chip_11cxx_lib/src/i2c_11xx.c **** 
 133:../../lib/lpc11cx4-library/lpc_chip_11cxx_lib/src/i2c_11xx.c **** /* Set OWN slave address for specific slave ID */
 134:../../lib/lpc11cx4-library/lpc_chip_11cxx_lib/src/i2c_11xx.c **** STATIC void setSlaveAddr(LPC_I2C_T *pI2C, I2C_SLAVE_ID sid, uint8_t addr, uint8_t mask)
 135:../../lib/lpc11cx4-library/lpc_chip_11cxx_lib/src/i2c_11xx.c **** {
 136:../../lib/lpc11cx4-library/lpc_chip_11cxx_lib/src/i2c_11xx.c **** 	uint32_t index = (uint32_t) sid - 1;
 137:../../lib/lpc11cx4-library/lpc_chip_11cxx_lib/src/i2c_11xx.c **** 	pI2C->MASK[index] = mask;
 138:../../lib/lpc11cx4-library/lpc_chip_11cxx_lib/src/i2c_11xx.c **** 	if (sid == I2C_SLAVE_0) {
 139:../../lib/lpc11cx4-library/lpc_chip_11cxx_lib/src/i2c_11xx.c **** 		pI2C->ADR0 = addr;
 140:../../lib/lpc11cx4-library/lpc_chip_11cxx_lib/src/i2c_11xx.c **** 	}
 141:../../lib/lpc11cx4-library/lpc_chip_11cxx_lib/src/i2c_11xx.c **** 	else {
ARM GAS  /var/folders/z0/6xlwn_996xz3mwq1cgzkbq4r0000gp/T//cc0Pdjko.s 			page 5


 142:../../lib/lpc11cx4-library/lpc_chip_11cxx_lib/src/i2c_11xx.c **** 		volatile uint32_t *abase = &pI2C->ADR1;
 143:../../lib/lpc11cx4-library/lpc_chip_11cxx_lib/src/i2c_11xx.c **** 		abase[index - 1] = addr;
 144:../../lib/lpc11cx4-library/lpc_chip_11cxx_lib/src/i2c_11xx.c **** 	}
 145:../../lib/lpc11cx4-library/lpc_chip_11cxx_lib/src/i2c_11xx.c **** }
 146:../../lib/lpc11cx4-library/lpc_chip_11cxx_lib/src/i2c_11xx.c **** 
 147:../../lib/lpc11cx4-library/lpc_chip_11cxx_lib/src/i2c_11xx.c **** /* Match the slave address */
 148:../../lib/lpc11cx4-library/lpc_chip_11cxx_lib/src/i2c_11xx.c **** STATIC int isSlaveAddrMatching(uint8_t addr1, uint8_t addr2, uint8_t mask)
 149:../../lib/lpc11cx4-library/lpc_chip_11cxx_lib/src/i2c_11xx.c **** {
 150:../../lib/lpc11cx4-library/lpc_chip_11cxx_lib/src/i2c_11xx.c **** 	mask |= 1;
 151:../../lib/lpc11cx4-library/lpc_chip_11cxx_lib/src/i2c_11xx.c **** 	return (addr1 & ~mask) == (addr2 & ~mask);
 152:../../lib/lpc11cx4-library/lpc_chip_11cxx_lib/src/i2c_11xx.c **** }
 153:../../lib/lpc11cx4-library/lpc_chip_11cxx_lib/src/i2c_11xx.c **** 
 154:../../lib/lpc11cx4-library/lpc_chip_11cxx_lib/src/i2c_11xx.c **** /* Get the index of the active slave */
 155:../../lib/lpc11cx4-library/lpc_chip_11cxx_lib/src/i2c_11xx.c **** STATIC I2C_SLAVE_ID lookupSlaveIndex(LPC_I2C_T *pI2C, uint8_t slaveAddr)
 156:../../lib/lpc11cx4-library/lpc_chip_11cxx_lib/src/i2c_11xx.c **** {
 157:../../lib/lpc11cx4-library/lpc_chip_11cxx_lib/src/i2c_11xx.c **** 	if (!(slaveAddr >> 1)) {
 158:../../lib/lpc11cx4-library/lpc_chip_11cxx_lib/src/i2c_11xx.c **** 		return I2C_SLAVE_GENERAL;					/* General call address */
 159:../../lib/lpc11cx4-library/lpc_chip_11cxx_lib/src/i2c_11xx.c **** 	}
 160:../../lib/lpc11cx4-library/lpc_chip_11cxx_lib/src/i2c_11xx.c **** 	if (isSlaveAddrMatching(pI2C->ADR0, slaveAddr, pI2C->MASK[0])) {
 161:../../lib/lpc11cx4-library/lpc_chip_11cxx_lib/src/i2c_11xx.c **** 		return I2C_SLAVE_0;
 162:../../lib/lpc11cx4-library/lpc_chip_11cxx_lib/src/i2c_11xx.c **** 	}
 163:../../lib/lpc11cx4-library/lpc_chip_11cxx_lib/src/i2c_11xx.c **** 	if (isSlaveAddrMatching(pI2C->ADR1, slaveAddr, pI2C->MASK[1])) {
 164:../../lib/lpc11cx4-library/lpc_chip_11cxx_lib/src/i2c_11xx.c **** 		return I2C_SLAVE_1;
 165:../../lib/lpc11cx4-library/lpc_chip_11cxx_lib/src/i2c_11xx.c **** 	}
 166:../../lib/lpc11cx4-library/lpc_chip_11cxx_lib/src/i2c_11xx.c **** 	if (isSlaveAddrMatching(pI2C->ADR2, slaveAddr, pI2C->MASK[2])) {
 167:../../lib/lpc11cx4-library/lpc_chip_11cxx_lib/src/i2c_11xx.c **** 		return I2C_SLAVE_2;
 168:../../lib/lpc11cx4-library/lpc_chip_11cxx_lib/src/i2c_11xx.c **** 	}
 169:../../lib/lpc11cx4-library/lpc_chip_11cxx_lib/src/i2c_11xx.c **** 	if (isSlaveAddrMatching(pI2C->ADR3, slaveAddr, pI2C->MASK[3])) {
 170:../../lib/lpc11cx4-library/lpc_chip_11cxx_lib/src/i2c_11xx.c **** 		return I2C_SLAVE_3;
 171:../../lib/lpc11cx4-library/lpc_chip_11cxx_lib/src/i2c_11xx.c **** 	}
 172:../../lib/lpc11cx4-library/lpc_chip_11cxx_lib/src/i2c_11xx.c **** 
 173:../../lib/lpc11cx4-library/lpc_chip_11cxx_lib/src/i2c_11xx.c **** 	/* If everything is fine the code should never come here */
 174:../../lib/lpc11cx4-library/lpc_chip_11cxx_lib/src/i2c_11xx.c **** 	return I2C_SLAVE_GENERAL;
 175:../../lib/lpc11cx4-library/lpc_chip_11cxx_lib/src/i2c_11xx.c **** }
 176:../../lib/lpc11cx4-library/lpc_chip_11cxx_lib/src/i2c_11xx.c **** 
 177:../../lib/lpc11cx4-library/lpc_chip_11cxx_lib/src/i2c_11xx.c **** /* Master transfer state change handler handler */
 178:../../lib/lpc11cx4-library/lpc_chip_11cxx_lib/src/i2c_11xx.c **** int handleMasterXferState(LPC_I2C_T *pI2C, I2C_XFER_T  *xfer)
 179:../../lib/lpc11cx4-library/lpc_chip_11cxx_lib/src/i2c_11xx.c **** {
 180:../../lib/lpc11cx4-library/lpc_chip_11cxx_lib/src/i2c_11xx.c **** 	uint32_t cclr = I2C_CON_FLAGS;
 181:../../lib/lpc11cx4-library/lpc_chip_11cxx_lib/src/i2c_11xx.c **** 	switch (getCurState(pI2C)) {
 182:../../lib/lpc11cx4-library/lpc_chip_11cxx_lib/src/i2c_11xx.c **** 	case 0x08:		/* Start condition on bus */
 183:../../lib/lpc11cx4-library/lpc_chip_11cxx_lib/src/i2c_11xx.c **** 	case 0x10:		/* Repeated start condition */
 184:../../lib/lpc11cx4-library/lpc_chip_11cxx_lib/src/i2c_11xx.c **** 		pI2C->DAT = (xfer->slaveAddr << 1) | (xfer->txSz == 0);
 185:../../lib/lpc11cx4-library/lpc_chip_11cxx_lib/src/i2c_11xx.c **** 		break;
 186:../../lib/lpc11cx4-library/lpc_chip_11cxx_lib/src/i2c_11xx.c **** 
 187:../../lib/lpc11cx4-library/lpc_chip_11cxx_lib/src/i2c_11xx.c **** 	/* Tx handling */
 188:../../lib/lpc11cx4-library/lpc_chip_11cxx_lib/src/i2c_11xx.c **** 	case 0x18:		/* SLA+W sent and ACK received */
 189:../../lib/lpc11cx4-library/lpc_chip_11cxx_lib/src/i2c_11xx.c **** 	case 0x28:		/* DATA sent and ACK received */
 190:../../lib/lpc11cx4-library/lpc_chip_11cxx_lib/src/i2c_11xx.c **** 		if (!xfer->txSz) {
 191:../../lib/lpc11cx4-library/lpc_chip_11cxx_lib/src/i2c_11xx.c **** 			cclr &= ~(xfer->rxSz ? I2C_CON_STA : I2C_CON_STO);
 192:../../lib/lpc11cx4-library/lpc_chip_11cxx_lib/src/i2c_11xx.c **** 		}
 193:../../lib/lpc11cx4-library/lpc_chip_11cxx_lib/src/i2c_11xx.c **** 		else {
 194:../../lib/lpc11cx4-library/lpc_chip_11cxx_lib/src/i2c_11xx.c **** 			pI2C->DAT = *xfer->txBuff++;
 195:../../lib/lpc11cx4-library/lpc_chip_11cxx_lib/src/i2c_11xx.c **** 			xfer->txSz--;
 196:../../lib/lpc11cx4-library/lpc_chip_11cxx_lib/src/i2c_11xx.c **** 		}
 197:../../lib/lpc11cx4-library/lpc_chip_11cxx_lib/src/i2c_11xx.c **** 		break;
 198:../../lib/lpc11cx4-library/lpc_chip_11cxx_lib/src/i2c_11xx.c **** 
ARM GAS  /var/folders/z0/6xlwn_996xz3mwq1cgzkbq4r0000gp/T//cc0Pdjko.s 			page 6


 199:../../lib/lpc11cx4-library/lpc_chip_11cxx_lib/src/i2c_11xx.c **** 	/* Rx handling */
 200:../../lib/lpc11cx4-library/lpc_chip_11cxx_lib/src/i2c_11xx.c **** 	case 0x58:		/* Data Received and NACK sent */
 201:../../lib/lpc11cx4-library/lpc_chip_11cxx_lib/src/i2c_11xx.c **** 		cclr &= ~I2C_CON_STO;
 202:../../lib/lpc11cx4-library/lpc_chip_11cxx_lib/src/i2c_11xx.c **** 
 203:../../lib/lpc11cx4-library/lpc_chip_11cxx_lib/src/i2c_11xx.c **** 	case 0x50:		/* Data Received and ACK sent */
 204:../../lib/lpc11cx4-library/lpc_chip_11cxx_lib/src/i2c_11xx.c **** 		*xfer->rxBuff++ = pI2C->DAT;
 205:../../lib/lpc11cx4-library/lpc_chip_11cxx_lib/src/i2c_11xx.c **** 		xfer->rxSz--;
 206:../../lib/lpc11cx4-library/lpc_chip_11cxx_lib/src/i2c_11xx.c **** 
 207:../../lib/lpc11cx4-library/lpc_chip_11cxx_lib/src/i2c_11xx.c **** 	case 0x40:		/* SLA+R sent and ACK received */
 208:../../lib/lpc11cx4-library/lpc_chip_11cxx_lib/src/i2c_11xx.c **** 		if (xfer->rxSz > 1) {
 209:../../lib/lpc11cx4-library/lpc_chip_11cxx_lib/src/i2c_11xx.c **** 			cclr &= ~I2C_CON_AA;
 210:../../lib/lpc11cx4-library/lpc_chip_11cxx_lib/src/i2c_11xx.c **** 		}
 211:../../lib/lpc11cx4-library/lpc_chip_11cxx_lib/src/i2c_11xx.c **** 		break;
 212:../../lib/lpc11cx4-library/lpc_chip_11cxx_lib/src/i2c_11xx.c **** 
 213:../../lib/lpc11cx4-library/lpc_chip_11cxx_lib/src/i2c_11xx.c **** 	/* NAK Handling */
 214:../../lib/lpc11cx4-library/lpc_chip_11cxx_lib/src/i2c_11xx.c **** 	case 0x20:		/* SLA+W sent NAK received */
 215:../../lib/lpc11cx4-library/lpc_chip_11cxx_lib/src/i2c_11xx.c **** 	case 0x30:		/* DATA sent NAK received */
 216:../../lib/lpc11cx4-library/lpc_chip_11cxx_lib/src/i2c_11xx.c **** 	case 0x48:		/* SLA+R sent NAK received */
 217:../../lib/lpc11cx4-library/lpc_chip_11cxx_lib/src/i2c_11xx.c **** 		xfer->status = I2C_STATUS_NAK;
 218:../../lib/lpc11cx4-library/lpc_chip_11cxx_lib/src/i2c_11xx.c **** 		cclr &= ~I2C_CON_STO;
 219:../../lib/lpc11cx4-library/lpc_chip_11cxx_lib/src/i2c_11xx.c **** 		break;
 220:../../lib/lpc11cx4-library/lpc_chip_11cxx_lib/src/i2c_11xx.c **** 
 221:../../lib/lpc11cx4-library/lpc_chip_11cxx_lib/src/i2c_11xx.c **** 	case 0x38:		/* Arbitration lost */
 222:../../lib/lpc11cx4-library/lpc_chip_11cxx_lib/src/i2c_11xx.c **** 		xfer->status = I2C_STATUS_ARBLOST;
 223:../../lib/lpc11cx4-library/lpc_chip_11cxx_lib/src/i2c_11xx.c **** 		break;
 224:../../lib/lpc11cx4-library/lpc_chip_11cxx_lib/src/i2c_11xx.c **** 
 225:../../lib/lpc11cx4-library/lpc_chip_11cxx_lib/src/i2c_11xx.c **** 	/* Bus Error */
 226:../../lib/lpc11cx4-library/lpc_chip_11cxx_lib/src/i2c_11xx.c **** 	case 0x00:
 227:../../lib/lpc11cx4-library/lpc_chip_11cxx_lib/src/i2c_11xx.c **** 		xfer->status = I2C_STATUS_BUSERR;
 228:../../lib/lpc11cx4-library/lpc_chip_11cxx_lib/src/i2c_11xx.c **** 		cclr &= ~I2C_CON_STO;
 229:../../lib/lpc11cx4-library/lpc_chip_11cxx_lib/src/i2c_11xx.c **** 	}
 230:../../lib/lpc11cx4-library/lpc_chip_11cxx_lib/src/i2c_11xx.c **** 
 231:../../lib/lpc11cx4-library/lpc_chip_11cxx_lib/src/i2c_11xx.c **** 
 232:../../lib/lpc11cx4-library/lpc_chip_11cxx_lib/src/i2c_11xx.c **** 	/* Set clear control flags */
 233:../../lib/lpc11cx4-library/lpc_chip_11cxx_lib/src/i2c_11xx.c **** 	pI2C->CONSET = cclr ^ I2C_CON_FLAGS;
 234:../../lib/lpc11cx4-library/lpc_chip_11cxx_lib/src/i2c_11xx.c **** 	pI2C->CONCLR = cclr;
 235:../../lib/lpc11cx4-library/lpc_chip_11cxx_lib/src/i2c_11xx.c **** 
 236:../../lib/lpc11cx4-library/lpc_chip_11cxx_lib/src/i2c_11xx.c **** 	/* If stopped return 0 */
 237:../../lib/lpc11cx4-library/lpc_chip_11cxx_lib/src/i2c_11xx.c **** 	if (!(cclr & I2C_CON_STO) || (xfer->status == I2C_STATUS_ARBLOST)) {
 238:../../lib/lpc11cx4-library/lpc_chip_11cxx_lib/src/i2c_11xx.c **** 		if (xfer->status == I2C_STATUS_BUSY) {
 239:../../lib/lpc11cx4-library/lpc_chip_11cxx_lib/src/i2c_11xx.c **** 			xfer->status = I2C_STATUS_DONE;
 240:../../lib/lpc11cx4-library/lpc_chip_11cxx_lib/src/i2c_11xx.c **** 		}
 241:../../lib/lpc11cx4-library/lpc_chip_11cxx_lib/src/i2c_11xx.c **** 		return 0;
 242:../../lib/lpc11cx4-library/lpc_chip_11cxx_lib/src/i2c_11xx.c **** 	}
 243:../../lib/lpc11cx4-library/lpc_chip_11cxx_lib/src/i2c_11xx.c **** 	return 1;
 244:../../lib/lpc11cx4-library/lpc_chip_11cxx_lib/src/i2c_11xx.c **** }
 245:../../lib/lpc11cx4-library/lpc_chip_11cxx_lib/src/i2c_11xx.c **** 
 246:../../lib/lpc11cx4-library/lpc_chip_11cxx_lib/src/i2c_11xx.c **** /* Find the slave address of SLA+W or SLA+R */
 247:../../lib/lpc11cx4-library/lpc_chip_11cxx_lib/src/i2c_11xx.c **** I2C_SLAVE_ID getSlaveIndex(LPC_I2C_T *pI2C)
 248:../../lib/lpc11cx4-library/lpc_chip_11cxx_lib/src/i2c_11xx.c **** {
 249:../../lib/lpc11cx4-library/lpc_chip_11cxx_lib/src/i2c_11xx.c **** 	switch (getCurState(pI2C)) {
 250:../../lib/lpc11cx4-library/lpc_chip_11cxx_lib/src/i2c_11xx.c **** 	case 0x60:
 251:../../lib/lpc11cx4-library/lpc_chip_11cxx_lib/src/i2c_11xx.c **** 	case 0x68:
 252:../../lib/lpc11cx4-library/lpc_chip_11cxx_lib/src/i2c_11xx.c **** 	case 0x70:
 253:../../lib/lpc11cx4-library/lpc_chip_11cxx_lib/src/i2c_11xx.c **** 	case 0x78:
 254:../../lib/lpc11cx4-library/lpc_chip_11cxx_lib/src/i2c_11xx.c **** 	case 0xA8:
 255:../../lib/lpc11cx4-library/lpc_chip_11cxx_lib/src/i2c_11xx.c **** 	case 0xB0:
ARM GAS  /var/folders/z0/6xlwn_996xz3mwq1cgzkbq4r0000gp/T//cc0Pdjko.s 			page 7


 256:../../lib/lpc11cx4-library/lpc_chip_11cxx_lib/src/i2c_11xx.c **** 		return lookupSlaveIndex(pI2C, pI2C->DAT);
 257:../../lib/lpc11cx4-library/lpc_chip_11cxx_lib/src/i2c_11xx.c **** 	}
 258:../../lib/lpc11cx4-library/lpc_chip_11cxx_lib/src/i2c_11xx.c **** 
 259:../../lib/lpc11cx4-library/lpc_chip_11cxx_lib/src/i2c_11xx.c **** 	/* If everything is fine code should never come here */
 260:../../lib/lpc11cx4-library/lpc_chip_11cxx_lib/src/i2c_11xx.c **** 	return I2C_SLAVE_GENERAL;
 261:../../lib/lpc11cx4-library/lpc_chip_11cxx_lib/src/i2c_11xx.c **** }
 262:../../lib/lpc11cx4-library/lpc_chip_11cxx_lib/src/i2c_11xx.c **** 
 263:../../lib/lpc11cx4-library/lpc_chip_11cxx_lib/src/i2c_11xx.c **** /* Slave state machine handler */
 264:../../lib/lpc11cx4-library/lpc_chip_11cxx_lib/src/i2c_11xx.c **** int handleSlaveXferState(LPC_I2C_T *pI2C, I2C_XFER_T *xfer)
 265:../../lib/lpc11cx4-library/lpc_chip_11cxx_lib/src/i2c_11xx.c **** {
 266:../../lib/lpc11cx4-library/lpc_chip_11cxx_lib/src/i2c_11xx.c **** 	uint32_t cclr = I2C_CON_FLAGS;
 267:../../lib/lpc11cx4-library/lpc_chip_11cxx_lib/src/i2c_11xx.c **** 	int ret = RET_SLAVE_BUSY;
 268:../../lib/lpc11cx4-library/lpc_chip_11cxx_lib/src/i2c_11xx.c **** 
 269:../../lib/lpc11cx4-library/lpc_chip_11cxx_lib/src/i2c_11xx.c **** 	xfer->status = I2C_STATUS_BUSY;
 270:../../lib/lpc11cx4-library/lpc_chip_11cxx_lib/src/i2c_11xx.c **** 	switch (getCurState(pI2C)) {
 271:../../lib/lpc11cx4-library/lpc_chip_11cxx_lib/src/i2c_11xx.c **** 	case 0x80:		/* SLA: Data received + ACK sent */
 272:../../lib/lpc11cx4-library/lpc_chip_11cxx_lib/src/i2c_11xx.c **** 	case 0x90:		/* GC: Data received + ACK sent */
 273:../../lib/lpc11cx4-library/lpc_chip_11cxx_lib/src/i2c_11xx.c **** 		*xfer->rxBuff++ = pI2C->DAT;
 274:../../lib/lpc11cx4-library/lpc_chip_11cxx_lib/src/i2c_11xx.c **** 		xfer->rxSz--;
 275:../../lib/lpc11cx4-library/lpc_chip_11cxx_lib/src/i2c_11xx.c **** 		ret = RET_SLAVE_RX;
 276:../../lib/lpc11cx4-library/lpc_chip_11cxx_lib/src/i2c_11xx.c **** 		if (xfer->rxSz > 1) {
 277:../../lib/lpc11cx4-library/lpc_chip_11cxx_lib/src/i2c_11xx.c **** 			cclr &= ~I2C_CON_AA;
 278:../../lib/lpc11cx4-library/lpc_chip_11cxx_lib/src/i2c_11xx.c **** 		}
 279:../../lib/lpc11cx4-library/lpc_chip_11cxx_lib/src/i2c_11xx.c **** 		break;
 280:../../lib/lpc11cx4-library/lpc_chip_11cxx_lib/src/i2c_11xx.c **** 
 281:../../lib/lpc11cx4-library/lpc_chip_11cxx_lib/src/i2c_11xx.c **** 	case 0x60:		/* Own SLA+W received */
 282:../../lib/lpc11cx4-library/lpc_chip_11cxx_lib/src/i2c_11xx.c **** 	case 0x68:		/* Own SLA+W received after losing arbitration */
 283:../../lib/lpc11cx4-library/lpc_chip_11cxx_lib/src/i2c_11xx.c **** 	case 0x70:		/* GC+W received */
 284:../../lib/lpc11cx4-library/lpc_chip_11cxx_lib/src/i2c_11xx.c **** 	case 0x78:		/* GC+W received after losing arbitration */
 285:../../lib/lpc11cx4-library/lpc_chip_11cxx_lib/src/i2c_11xx.c **** 		xfer->slaveAddr = pI2C->DAT & ~1;
 286:../../lib/lpc11cx4-library/lpc_chip_11cxx_lib/src/i2c_11xx.c **** 		if (xfer->rxSz > 1) {
 287:../../lib/lpc11cx4-library/lpc_chip_11cxx_lib/src/i2c_11xx.c **** 			cclr &= ~I2C_CON_AA;
 288:../../lib/lpc11cx4-library/lpc_chip_11cxx_lib/src/i2c_11xx.c **** 		}
 289:../../lib/lpc11cx4-library/lpc_chip_11cxx_lib/src/i2c_11xx.c **** 		break;
 290:../../lib/lpc11cx4-library/lpc_chip_11cxx_lib/src/i2c_11xx.c **** 
 291:../../lib/lpc11cx4-library/lpc_chip_11cxx_lib/src/i2c_11xx.c **** 	case 0xA8:		/* SLA+R received */
 292:../../lib/lpc11cx4-library/lpc_chip_11cxx_lib/src/i2c_11xx.c **** 	case 0xB0:		/* SLA+R received after losing arbitration */
 293:../../lib/lpc11cx4-library/lpc_chip_11cxx_lib/src/i2c_11xx.c **** 		xfer->slaveAddr = pI2C->DAT & ~1;
 294:../../lib/lpc11cx4-library/lpc_chip_11cxx_lib/src/i2c_11xx.c **** 
 295:../../lib/lpc11cx4-library/lpc_chip_11cxx_lib/src/i2c_11xx.c **** 	case 0xB8:		/* DATA sent and ACK received */
 296:../../lib/lpc11cx4-library/lpc_chip_11cxx_lib/src/i2c_11xx.c **** 		pI2C->DAT = *xfer->txBuff++;
 297:../../lib/lpc11cx4-library/lpc_chip_11cxx_lib/src/i2c_11xx.c **** 		xfer->txSz--;
 298:../../lib/lpc11cx4-library/lpc_chip_11cxx_lib/src/i2c_11xx.c **** 		if (xfer->txSz > 0) {
 299:../../lib/lpc11cx4-library/lpc_chip_11cxx_lib/src/i2c_11xx.c **** 			cclr &= ~I2C_CON_AA;
 300:../../lib/lpc11cx4-library/lpc_chip_11cxx_lib/src/i2c_11xx.c **** 		}
 301:../../lib/lpc11cx4-library/lpc_chip_11cxx_lib/src/i2c_11xx.c **** 		ret = RET_SLAVE_TX;
 302:../../lib/lpc11cx4-library/lpc_chip_11cxx_lib/src/i2c_11xx.c **** 		break;
 303:../../lib/lpc11cx4-library/lpc_chip_11cxx_lib/src/i2c_11xx.c **** 
 304:../../lib/lpc11cx4-library/lpc_chip_11cxx_lib/src/i2c_11xx.c **** 	case 0xC0:		/* Data transmitted and NAK received */
 305:../../lib/lpc11cx4-library/lpc_chip_11cxx_lib/src/i2c_11xx.c **** 	case 0xC8:		/* Last data transmitted and ACK received */
 306:../../lib/lpc11cx4-library/lpc_chip_11cxx_lib/src/i2c_11xx.c **** 	case 0x88:		/* SLA: Data received + NAK sent */
 307:../../lib/lpc11cx4-library/lpc_chip_11cxx_lib/src/i2c_11xx.c **** 	case 0x98:		/* GC: Data received + NAK sent */
 308:../../lib/lpc11cx4-library/lpc_chip_11cxx_lib/src/i2c_11xx.c **** 	case 0xA0:		/* STOP/Repeated START condition received */
 309:../../lib/lpc11cx4-library/lpc_chip_11cxx_lib/src/i2c_11xx.c **** 		ret = RET_SLAVE_IDLE;
 310:../../lib/lpc11cx4-library/lpc_chip_11cxx_lib/src/i2c_11xx.c **** 		cclr &= ~I2C_CON_AA;
 311:../../lib/lpc11cx4-library/lpc_chip_11cxx_lib/src/i2c_11xx.c **** 		xfer->status = I2C_STATUS_DONE;
 312:../../lib/lpc11cx4-library/lpc_chip_11cxx_lib/src/i2c_11xx.c **** 		if (xfer->slaveAddr & 1) {
ARM GAS  /var/folders/z0/6xlwn_996xz3mwq1cgzkbq4r0000gp/T//cc0Pdjko.s 			page 8


 313:../../lib/lpc11cx4-library/lpc_chip_11cxx_lib/src/i2c_11xx.c **** 			cclr &= ~I2C_CON_STA;
 314:../../lib/lpc11cx4-library/lpc_chip_11cxx_lib/src/i2c_11xx.c **** 		}
 315:../../lib/lpc11cx4-library/lpc_chip_11cxx_lib/src/i2c_11xx.c **** 		break;
 316:../../lib/lpc11cx4-library/lpc_chip_11cxx_lib/src/i2c_11xx.c **** 	}
 317:../../lib/lpc11cx4-library/lpc_chip_11cxx_lib/src/i2c_11xx.c **** 
 318:../../lib/lpc11cx4-library/lpc_chip_11cxx_lib/src/i2c_11xx.c **** 	/* Set clear control flags */
 319:../../lib/lpc11cx4-library/lpc_chip_11cxx_lib/src/i2c_11xx.c **** 	pI2C->CONSET = cclr ^ I2C_CON_FLAGS;
 320:../../lib/lpc11cx4-library/lpc_chip_11cxx_lib/src/i2c_11xx.c **** 	pI2C->CONCLR = cclr;
 321:../../lib/lpc11cx4-library/lpc_chip_11cxx_lib/src/i2c_11xx.c **** 
 322:../../lib/lpc11cx4-library/lpc_chip_11cxx_lib/src/i2c_11xx.c **** 	return ret;
 323:../../lib/lpc11cx4-library/lpc_chip_11cxx_lib/src/i2c_11xx.c **** }
 324:../../lib/lpc11cx4-library/lpc_chip_11cxx_lib/src/i2c_11xx.c **** 
 325:../../lib/lpc11cx4-library/lpc_chip_11cxx_lib/src/i2c_11xx.c **** /*****************************************************************************
 326:../../lib/lpc11cx4-library/lpc_chip_11cxx_lib/src/i2c_11xx.c ****  * Public functions
 327:../../lib/lpc11cx4-library/lpc_chip_11cxx_lib/src/i2c_11xx.c ****  ****************************************************************************/
 328:../../lib/lpc11cx4-library/lpc_chip_11cxx_lib/src/i2c_11xx.c **** 
 329:../../lib/lpc11cx4-library/lpc_chip_11cxx_lib/src/i2c_11xx.c **** /* Chip event handler interrupt based */
 330:../../lib/lpc11cx4-library/lpc_chip_11cxx_lib/src/i2c_11xx.c **** void Chip_I2C_EventHandler(I2C_ID_T id, I2C_EVENT_T event)
 331:../../lib/lpc11cx4-library/lpc_chip_11cxx_lib/src/i2c_11xx.c **** {
  88              		.loc 1 331 0
  89              		.cfi_startproc
  90              		@ args = 0, pretend = 0, frame = 0
  91              		@ frame_needed = 0, uses_anonymous_args = 0
  92              		@ link register save eliminated.
  93              	.LVL0:
 332:../../lib/lpc11cx4-library/lpc_chip_11cxx_lib/src/i2c_11xx.c **** 	UNUSED(id);
 333:../../lib/lpc11cx4-library/lpc_chip_11cxx_lib/src/i2c_11xx.c **** 	struct i2c_interface *iic = &i2c;
 334:../../lib/lpc11cx4-library/lpc_chip_11cxx_lib/src/i2c_11xx.c **** 	volatile I2C_STATUS_T *stat;
 335:../../lib/lpc11cx4-library/lpc_chip_11cxx_lib/src/i2c_11xx.c **** 
 336:../../lib/lpc11cx4-library/lpc_chip_11cxx_lib/src/i2c_11xx.c **** 	/* Only WAIT event needs to be handled */
 337:../../lib/lpc11cx4-library/lpc_chip_11cxx_lib/src/i2c_11xx.c **** 	if (event != I2C_EVENT_WAIT) {
  94              		.loc 1 337 0
  95 0000 0129     		cmp	r1, #1	@ event,
  96 0002 00D0     		beq	.L7	@,
  97              	.L1:
 338:../../lib/lpc11cx4-library/lpc_chip_11cxx_lib/src/i2c_11xx.c **** 		return;
 339:../../lib/lpc11cx4-library/lpc_chip_11cxx_lib/src/i2c_11xx.c **** 	}
 340:../../lib/lpc11cx4-library/lpc_chip_11cxx_lib/src/i2c_11xx.c **** 
 341:../../lib/lpc11cx4-library/lpc_chip_11cxx_lib/src/i2c_11xx.c **** 	stat = &iic->mXfer->status;
 342:../../lib/lpc11cx4-library/lpc_chip_11cxx_lib/src/i2c_11xx.c **** 	/* Wait for the status to change */
 343:../../lib/lpc11cx4-library/lpc_chip_11cxx_lib/src/i2c_11xx.c **** 	while (*stat == I2C_STATUS_BUSY) {
 344:../../lib/lpc11cx4-library/lpc_chip_11cxx_lib/src/i2c_11xx.c **** 	}
 345:../../lib/lpc11cx4-library/lpc_chip_11cxx_lib/src/i2c_11xx.c **** }
  98              		.loc 1 345 0
  99              		@ sp needed	@
 100 0004 7047     		bx	lr
 101              	.L7:
 102              	.LVL1:
 103              	.LBB59:
 104              	.LBB60:
 341:../../lib/lpc11cx4-library/lpc_chip_11cxx_lib/src/i2c_11xx.c **** 	/* Wait for the status to change */
 105              		.loc 1 341 0
 106 0006 034B     		ldr	r3, .L8	@ tmp114,
 107 0008 1A69     		ldr	r2, [r3, #16]	@ D.6795, i2c.mXfer
 108              	.LVL2:
 109              	.L3:
 343:../../lib/lpc11cx4-library/lpc_chip_11cxx_lib/src/i2c_11xx.c **** 	}
ARM GAS  /var/folders/z0/6xlwn_996xz3mwq1cgzkbq4r0000gp/T//cc0Pdjko.s 			page 9


 110              		.loc 1 343 0
 111 000a 137D     		ldrb	r3, [r2, #20]	@ MEM[(volatile I2C_STATUS_T *)_6 + 20B], MEM[(volatile I2C_STATUS_T *)_6 + 20B
 112 000c 042B     		cmp	r3, #4	@ MEM[(volatile I2C_STATUS_T *)_6 + 20B],
 113 000e FCD0     		beq	.L3	@,
 114 0010 F8E7     		b	.L1	@
 115              	.L9:
 116 0012 C046     		.align	2
 117              	.L8:
 118 0014 00000000 		.word	.LANCHOR0
 119              	.LBE60:
 120              	.LBE59:
 121              		.cfi_endproc
 122              	.LFE212:
 123              		.size	Chip_I2C_EventHandler, .-Chip_I2C_EventHandler
 124              		.section	.text.handleMasterXferState,"ax",%progbits
 125              		.align	2
 126              		.global	handleMasterXferState
 127              		.code	16
 128              		.thumb_func
 129              		.type	handleMasterXferState, %function
 130              	handleMasterXferState:
 131              	.LFB209:
 179:../../lib/lpc11cx4-library/lpc_chip_11cxx_lib/src/i2c_11xx.c **** 	uint32_t cclr = I2C_CON_FLAGS;
 132              		.loc 1 179 0
 133              		.cfi_startproc
 134              		@ args = 0, pretend = 0, frame = 0
 135              		@ frame_needed = 0, uses_anonymous_args = 0
 136              	.LVL3:
 137              	.LBB61:
 138              	.LBB62:
 124:../../lib/lpc11cx4-library/lpc_chip_11cxx_lib/src/i2c_11xx.c **** }
 139              		.loc 1 124 0
 140 0000 4368     		ldr	r3, [r0, #4]	@ D.6810, pI2C_10(D)->STAT
 141              	.LVL4:
 142              	.LBE62:
 143              	.LBE61:
 179:../../lib/lpc11cx4-library/lpc_chip_11cxx_lib/src/i2c_11xx.c **** 	uint32_t cclr = I2C_CON_FLAGS;
 144              		.loc 1 179 0
 145 0002 0200     		movs	r2, r0	@ pI2C, pI2C
 181:../../lib/lpc11cx4-library/lpc_chip_11cxx_lib/src/i2c_11xx.c **** 	case 0x08:		/* Start condition on bus */
 146              		.loc 1 181 0
 147 0004 F820     		movs	r0, #248	@ tmp154,
 148              	.LVL5:
 179:../../lib/lpc11cx4-library/lpc_chip_11cxx_lib/src/i2c_11xx.c **** 	uint32_t cclr = I2C_CON_FLAGS;
 149              		.loc 1 179 0
 150 0006 30B5     		push	{r4, r5, lr}	@
 151              		.cfi_def_cfa_offset 12
 152              		.cfi_offset 4, -12
 153              		.cfi_offset 5, -8
 154              		.cfi_offset 14, -4
 181:../../lib/lpc11cx4-library/lpc_chip_11cxx_lib/src/i2c_11xx.c **** 	case 0x08:		/* Start condition on bus */
 155              		.loc 1 181 0
 156 0008 0340     		ands	r3, r0	@ D.6806, tmp154
 157 000a 582B     		cmp	r3, #88	@ D.6806,
 158 000c 58D8     		bhi	.L11	@,
 159 000e 3D48     		ldr	r0, .L48	@ tmp158,
 160 0010 9B00     		lsls	r3, r3, #2	@ tmp156, D.6806,
ARM GAS  /var/folders/z0/6xlwn_996xz3mwq1cgzkbq4r0000gp/T//cc0Pdjko.s 			page 10


 161 0012 C358     		ldr	r3, [r0, r3]	@ tmp159,
 162 0014 9F46     		mov	pc, r3	@ tmp159
 163              		.section	.rodata.handleMasterXferState,"a",%progbits
 164              		.align	2
 165              	.L13:
 166 0000 50000000 		.word	.L12
 167 0004 C0000000 		.word	.L11
 168 0008 C0000000 		.word	.L11
 169 000c C0000000 		.word	.L11
 170 0010 C0000000 		.word	.L11
 171 0014 C0000000 		.word	.L11
 172 0018 C0000000 		.word	.L11
 173 001c C0000000 		.word	.L11
 174 0020 60000000 		.word	.L14
 175 0024 C0000000 		.word	.L11
 176 0028 C0000000 		.word	.L11
 177 002c C0000000 		.word	.L11
 178 0030 C0000000 		.word	.L11
 179 0034 C0000000 		.word	.L11
 180 0038 C0000000 		.word	.L11
 181 003c C0000000 		.word	.L11
 182 0040 60000000 		.word	.L14
 183 0044 C0000000 		.word	.L11
 184 0048 C0000000 		.word	.L11
 185 004c C0000000 		.word	.L11
 186 0050 C0000000 		.word	.L11
 187 0054 C0000000 		.word	.L11
 188 0058 C0000000 		.word	.L11
 189 005c C0000000 		.word	.L11
 190 0060 80000000 		.word	.L15
 191 0064 C0000000 		.word	.L11
 192 0068 C0000000 		.word	.L11
 193 006c C0000000 		.word	.L11
 194 0070 C0000000 		.word	.L11
 195 0074 C0000000 		.word	.L11
 196 0078 C0000000 		.word	.L11
 197 007c C0000000 		.word	.L11
 198 0080 96000000 		.word	.L16
 199 0084 C0000000 		.word	.L11
 200 0088 C0000000 		.word	.L11
 201 008c C0000000 		.word	.L11
 202 0090 C0000000 		.word	.L11
 203 0094 C0000000 		.word	.L11
 204 0098 C0000000 		.word	.L11
 205 009c C0000000 		.word	.L11
 206 00a0 80000000 		.word	.L15
 207 00a4 C0000000 		.word	.L11
 208 00a8 C0000000 		.word	.L11
 209 00ac C0000000 		.word	.L11
 210 00b0 C0000000 		.word	.L11
 211 00b4 C0000000 		.word	.L11
 212 00b8 C0000000 		.word	.L11
 213 00bc C0000000 		.word	.L11
 214 00c0 96000000 		.word	.L16
 215 00c4 C0000000 		.word	.L11
 216 00c8 C0000000 		.word	.L11
 217 00cc C0000000 		.word	.L11
ARM GAS  /var/folders/z0/6xlwn_996xz3mwq1cgzkbq4r0000gp/T//cc0Pdjko.s 			page 11


 218 00d0 C0000000 		.word	.L11
 219 00d4 C0000000 		.word	.L11
 220 00d8 C0000000 		.word	.L11
 221 00dc C0000000 		.word	.L11
 222 00e0 B8000000 		.word	.L17
 223 00e4 C0000000 		.word	.L11
 224 00e8 C0000000 		.word	.L11
 225 00ec C0000000 		.word	.L11
 226 00f0 C0000000 		.word	.L11
 227 00f4 C0000000 		.word	.L11
 228 00f8 C0000000 		.word	.L11
 229 00fc C0000000 		.word	.L11
 230 0100 9C000000 		.word	.L18
 231 0104 C0000000 		.word	.L11
 232 0108 C0000000 		.word	.L11
 233 010c C0000000 		.word	.L11
 234 0110 C0000000 		.word	.L11
 235 0114 C0000000 		.word	.L11
 236 0118 C0000000 		.word	.L11
 237 011c C0000000 		.word	.L11
 238 0120 96000000 		.word	.L16
 239 0124 C0000000 		.word	.L11
 240 0128 C0000000 		.word	.L11
 241 012c C0000000 		.word	.L11
 242 0130 C0000000 		.word	.L11
 243 0134 C0000000 		.word	.L11
 244 0138 C0000000 		.word	.L11
 245 013c C0000000 		.word	.L11
 246 0140 B4000000 		.word	.L19
 247 0144 C0000000 		.word	.L11
 248 0148 C0000000 		.word	.L11
 249 014c C0000000 		.word	.L11
 250 0150 C0000000 		.word	.L11
 251 0154 C0000000 		.word	.L11
 252 0158 C0000000 		.word	.L11
 253 015c C0000000 		.word	.L11
 254 0160 16000000 		.word	.L34
 255              		.section	.text.handleMasterXferState
 256              	.L34:
 201:../../lib/lpc11cx4-library/lpc_chip_11cxx_lib/src/i2c_11xx.c **** 
 257              		.loc 1 201 0
 258 0016 2C24     		movs	r4, #44	@ cclr,
 259              	.L20:
 260              	.LVL6:
 204:../../lib/lpc11cx4-library/lpc_chip_11cxx_lib/src/i2c_11xx.c **** 		xfer->rxSz--;
 261              		.loc 1 204 0
 262 0018 CB68     		ldr	r3, [r1, #12]	@ D.6812, xfer_11(D)->rxBuff
 263 001a 581C     		adds	r0, r3, #1	@ D.6812, D.6812,
 264 001c C860     		str	r0, [r1, #12]	@ D.6812, xfer_11(D)->rxBuff
 265 001e 9068     		ldr	r0, [r2, #8]	@ D.6810, pI2C_10(D)->DAT
 266 0020 1870     		strb	r0, [r3]	@ D.6810, *_32
 205:../../lib/lpc11cx4-library/lpc_chip_11cxx_lib/src/i2c_11xx.c **** 
 267              		.loc 1 205 0
 268 0022 0B69     		ldr	r3, [r1, #16]	@ tmp227, xfer_11(D)->rxSz
 269 0024 013B     		subs	r3, r3, #1	@ D.6806,
 270 0026 0B61     		str	r3, [r1, #16]	@ D.6806, xfer_11(D)->rxSz
 208:../../lib/lpc11cx4-library/lpc_chip_11cxx_lib/src/i2c_11xx.c **** 			cclr &= ~I2C_CON_AA;
ARM GAS  /var/folders/z0/6xlwn_996xz3mwq1cgzkbq4r0000gp/T//cc0Pdjko.s 			page 12


 271              		.loc 1 208 0
 272 0028 012B     		cmp	r3, #1	@ D.6806,
 273 002a 4EDD     		ble	.L25	@,
 274 002c 0423     		movs	r3, #4	@ tmp182,
 275 002e 2500     		movs	r5, r4	@ cclr, cclr
 276 0030 3C20     		movs	r0, #60	@ tmp183,
 277 0032 9D43     		bics	r5, r3	@ cclr, tmp182
 278 0034 0C33     		adds	r3, r3, #12	@ tmp184,
 279 0036 6840     		eors	r0, r5	@ D.6810, cclr
 280 0038 2340     		ands	r3, r4	@ D.6810, cclr
 281              	.L26:
 282              	.LVL7:
 233:../../lib/lpc11cx4-library/lpc_chip_11cxx_lib/src/i2c_11xx.c **** 	pI2C->CONCLR = cclr;
 283              		.loc 1 233 0
 284 003a 1060     		str	r0, [r2]	@ D.6810, pI2C_10(D)->CONSET
 234:../../lib/lpc11cx4-library/lpc_chip_11cxx_lib/src/i2c_11xx.c **** 
 285              		.loc 1 234 0
 286 003c 9561     		str	r5, [r2, #24]	@ cclr, pI2C_10(D)->CONCLR
 237:../../lib/lpc11cx4-library/lpc_chip_11cxx_lib/src/i2c_11xx.c **** 		if (xfer->status == I2C_STATUS_BUSY) {
 287              		.loc 1 237 0
 288 003e 002B     		cmp	r3, #0	@ D.6810,
 289 0040 33D1     		bne	.L42	@,
 290              	.LVL8:
 291              	.L28:
 238:../../lib/lpc11cx4-library/lpc_chip_11cxx_lib/src/i2c_11xx.c **** 			xfer->status = I2C_STATUS_DONE;
 292              		.loc 1 238 0
 293 0042 0B7D     		ldrb	r3, [r1, #20]	@ tmp198,
 294 0044 042B     		cmp	r3, #4	@ tmp198,
 295 0046 09D1     		bne	.L43	@,
 239:../../lib/lpc11cx4-library/lpc_chip_11cxx_lib/src/i2c_11xx.c **** 		}
 296              		.loc 1 239 0
 297 0048 0023     		movs	r3, #0	@ tmp199,
 241:../../lib/lpc11cx4-library/lpc_chip_11cxx_lib/src/i2c_11xx.c **** 	}
 298              		.loc 1 241 0
 299 004a 0020     		movs	r0, #0	@ D.6806,
 239:../../lib/lpc11cx4-library/lpc_chip_11cxx_lib/src/i2c_11xx.c **** 		}
 300              		.loc 1 239 0
 301 004c 0B75     		strb	r3, [r1, #20]	@ tmp199, xfer_11(D)->status
 302              	.L40:
 244:../../lib/lpc11cx4-library/lpc_chip_11cxx_lib/src/i2c_11xx.c **** 
 303              		.loc 1 244 0
 304              		@ sp needed	@
 305 004e 30BD     		pop	{r4, r5, pc}
 306              	.LVL9:
 307              	.L12:
 227:../../lib/lpc11cx4-library/lpc_chip_11cxx_lib/src/i2c_11xx.c **** 		cclr &= ~I2C_CON_STO;
 308              		.loc 1 227 0
 309 0050 0323     		movs	r3, #3	@ tmp189,
 310 0052 0B75     		strb	r3, [r1, #20]	@ tmp189, xfer_11(D)->status
 311              	.LVL10:
 312              	.L27:
 233:../../lib/lpc11cx4-library/lpc_chip_11cxx_lib/src/i2c_11xx.c **** 	pI2C->CONCLR = cclr;
 313              		.loc 1 233 0
 314 0054 1023     		movs	r3, #16	@ tmp217,
 315 0056 1360     		str	r3, [r2]	@ tmp217, pI2C_10(D)->CONSET
 234:../../lib/lpc11cx4-library/lpc_chip_11cxx_lib/src/i2c_11xx.c **** 
 316              		.loc 1 234 0
ARM GAS  /var/folders/z0/6xlwn_996xz3mwq1cgzkbq4r0000gp/T//cc0Pdjko.s 			page 13


 317 0058 1C33     		adds	r3, r3, #28	@ tmp218,
 318 005a 9361     		str	r3, [r2, #24]	@ tmp218, pI2C_10(D)->CONCLR
 319              	.LVL11:
 320              	.L43:
 241:../../lib/lpc11cx4-library/lpc_chip_11cxx_lib/src/i2c_11xx.c **** 	}
 321              		.loc 1 241 0
 322 005c 0020     		movs	r0, #0	@ D.6806,
 323 005e F6E7     		b	.L40	@
 324              	.LVL12:
 325              	.L14:
 184:../../lib/lpc11cx4-library/lpc_chip_11cxx_lib/src/i2c_11xx.c **** 		break;
 326              		.loc 1 184 0
 327 0060 8868     		ldr	r0, [r1, #8]	@ D.6809, xfer_11(D)->txSz
 328 0062 0B78     		ldrb	r3, [r1]	@ D.6806, *xfer_11(D)
 329 0064 4442     		rsbs	r4, r0, #0	@ tmp165, D.6809
 330 0066 6041     		adcs	r0, r0, r4	@ D.6809, D.6809, tmp165
 331 0068 5B00     		lsls	r3, r3, #1	@ D.6806, D.6806,
 332 006a 0343     		orrs	r3, r0	@ D.6810, D.6809
 333 006c 9360     		str	r3, [r2, #8]	@ D.6810, pI2C_10(D)->DAT
 334 006e 087D     		ldrb	r0, [r1, #20]	@ tmp167,
 335 0070 0238     		subs	r0, r0, #2	@ tmp169,
 336 0072 431E     		subs	r3, r0, #1	@ tmp170, tmp169
 337 0074 9841     		sbcs	r0, r0, r3	@ D.6806, tmp169, tmp170
 338              	.L21:
 233:../../lib/lpc11cx4-library/lpc_chip_11cxx_lib/src/i2c_11xx.c **** 	pI2C->CONCLR = cclr;
 339              		.loc 1 233 0
 340 0076 0023     		movs	r3, #0	@ tmp215,
 341 0078 1360     		str	r3, [r2]	@ tmp215, pI2C_10(D)->CONSET
 234:../../lib/lpc11cx4-library/lpc_chip_11cxx_lib/src/i2c_11xx.c **** 
 342              		.loc 1 234 0
 343 007a 3C33     		adds	r3, r3, #60	@ tmp216,
 344 007c 9361     		str	r3, [r2, #24]	@ tmp216, pI2C_10(D)->CONCLR
 345 007e E6E7     		b	.L40	@
 346              	.L15:
 190:../../lib/lpc11cx4-library/lpc_chip_11cxx_lib/src/i2c_11xx.c **** 			cclr &= ~(xfer->rxSz ? I2C_CON_STA : I2C_CON_STO);
 347              		.loc 1 190 0
 348 0080 8B68     		ldr	r3, [r1, #8]	@ D.6806, xfer_11(D)->txSz
 349 0082 002B     		cmp	r3, #0	@ D.6806,
 350 0084 27D1     		bne	.L22	@,
 191:../../lib/lpc11cx4-library/lpc_chip_11cxx_lib/src/i2c_11xx.c **** 		}
 351              		.loc 1 191 0
 352 0086 0B69     		ldr	r3, [r1, #16]	@ tmp226, xfer_11(D)->rxSz
 353 0088 002B     		cmp	r3, #0	@ tmp226,
 354 008a 30D0     		beq	.L46	@,
 355              	.LVL13:
 233:../../lib/lpc11cx4-library/lpc_chip_11cxx_lib/src/i2c_11xx.c **** 	pI2C->CONCLR = cclr;
 356              		.loc 1 233 0
 357 008c 2023     		movs	r3, #32	@ tmp219,
 358 008e 1360     		str	r3, [r2]	@ tmp219, pI2C_10(D)->CONSET
 234:../../lib/lpc11cx4-library/lpc_chip_11cxx_lib/src/i2c_11xx.c **** 
 359              		.loc 1 234 0
 360 0090 043B     		subs	r3, r3, #4	@ tmp220,
 361 0092 9361     		str	r3, [r2, #24]	@ tmp220,
 362 0094 09E0     		b	.L42	@
 363              	.LVL14:
 364              	.L16:
 217:../../lib/lpc11cx4-library/lpc_chip_11cxx_lib/src/i2c_11xx.c **** 		cclr &= ~I2C_CON_STO;
ARM GAS  /var/folders/z0/6xlwn_996xz3mwq1cgzkbq4r0000gp/T//cc0Pdjko.s 			page 14


 365              		.loc 1 217 0
 366 0096 0123     		movs	r3, #1	@ tmp185,
 367 0098 0B75     		strb	r3, [r1, #20]	@ tmp185, xfer_11(D)->status
 368              	.LVL15:
 219:../../lib/lpc11cx4-library/lpc_chip_11cxx_lib/src/i2c_11xx.c **** 
 369              		.loc 1 219 0
 370 009a DBE7     		b	.L27	@
 371              	.LVL16:
 372              	.L18:
 208:../../lib/lpc11cx4-library/lpc_chip_11cxx_lib/src/i2c_11xx.c **** 			cclr &= ~I2C_CON_AA;
 373              		.loc 1 208 0
 374 009c 0B69     		ldr	r3, [r1, #16]	@ tmp229, xfer_11(D)->rxSz
 375 009e 012B     		cmp	r3, #1	@ tmp229,
 376 00a0 2ADD     		ble	.L47	@,
 377              	.LVL17:
 233:../../lib/lpc11cx4-library/lpc_chip_11cxx_lib/src/i2c_11xx.c **** 	pI2C->CONCLR = cclr;
 378              		.loc 1 233 0
 379 00a2 0423     		movs	r3, #4	@ tmp223,
 380 00a4 1360     		str	r3, [r2]	@ tmp223, pI2C_10(D)->CONSET
 234:../../lib/lpc11cx4-library/lpc_chip_11cxx_lib/src/i2c_11xx.c **** 
 381              		.loc 1 234 0
 382 00a6 3433     		adds	r3, r3, #52	@ tmp224,
 383 00a8 9361     		str	r3, [r2, #24]	@ tmp224,
 384              	.LVL18:
 385              	.L42:
 386 00aa 087D     		ldrb	r0, [r1, #20]	@ tmp205,
 387 00ac 0238     		subs	r0, r0, #2	@ tmp207,
 388 00ae 431E     		subs	r3, r0, #1	@ tmp208, tmp207
 389 00b0 9841     		sbcs	r0, r0, r3	@ D.6806, tmp207, tmp208
 390 00b2 CCE7     		b	.L40	@
 391              	.LVL19:
 392              	.L19:
 180:../../lib/lpc11cx4-library/lpc_chip_11cxx_lib/src/i2c_11xx.c **** 	switch (getCurState(pI2C)) {
 393              		.loc 1 180 0
 394 00b4 3C24     		movs	r4, #60	@ cclr,
 395 00b6 AFE7     		b	.L20	@
 396              	.L17:
 222:../../lib/lpc11cx4-library/lpc_chip_11cxx_lib/src/i2c_11xx.c **** 		break;
 397              		.loc 1 222 0
 398 00b8 0223     		movs	r3, #2	@ tmp187,
 223:../../lib/lpc11cx4-library/lpc_chip_11cxx_lib/src/i2c_11xx.c **** 
 399              		.loc 1 223 0
 400 00ba 0020     		movs	r0, #0	@ D.6806,
 222:../../lib/lpc11cx4-library/lpc_chip_11cxx_lib/src/i2c_11xx.c **** 		break;
 401              		.loc 1 222 0
 402 00bc 0B75     		strb	r3, [r1, #20]	@ tmp187, xfer_11(D)->status
 223:../../lib/lpc11cx4-library/lpc_chip_11cxx_lib/src/i2c_11xx.c **** 
 403              		.loc 1 223 0
 404 00be DAE7     		b	.L21	@
 405              	.L11:
 406 00c0 087D     		ldrb	r0, [r1, #20]	@ tmp211,
 407 00c2 0238     		subs	r0, r0, #2	@ tmp213,
 408 00c4 431E     		subs	r3, r0, #1	@ tmp214, tmp213
 409 00c6 9841     		sbcs	r0, r0, r3	@ D.6806, tmp213, tmp214
 410 00c8 D5E7     		b	.L21	@
 411              	.LVL20:
 412              	.L25:
ARM GAS  /var/folders/z0/6xlwn_996xz3mwq1cgzkbq4r0000gp/T//cc0Pdjko.s 			page 15


 413 00ca 3C20     		movs	r0, #60	@ tmp191,
 414 00cc 1023     		movs	r3, #16	@ tmp192,
 415 00ce 6040     		eors	r0, r4	@ D.6810, cclr
 416 00d0 2340     		ands	r3, r4	@ D.6810, cclr
 208:../../lib/lpc11cx4-library/lpc_chip_11cxx_lib/src/i2c_11xx.c **** 			cclr &= ~I2C_CON_AA;
 417              		.loc 1 208 0
 418 00d2 2500     		movs	r5, r4	@ cclr, cclr
 419 00d4 B1E7     		b	.L26	@
 420              	.LVL21:
 421              	.L22:
 194:../../lib/lpc11cx4-library/lpc_chip_11cxx_lib/src/i2c_11xx.c **** 			xfer->txSz--;
 422              		.loc 1 194 0
 423 00d6 4868     		ldr	r0, [r1, #4]	@ D.6811, xfer_11(D)->txBuff
 195:../../lib/lpc11cx4-library/lpc_chip_11cxx_lib/src/i2c_11xx.c **** 		}
 424              		.loc 1 195 0
 425 00d8 013B     		subs	r3, r3, #1	@ D.6806,
 194:../../lib/lpc11cx4-library/lpc_chip_11cxx_lib/src/i2c_11xx.c **** 			xfer->txSz--;
 426              		.loc 1 194 0
 427 00da 441C     		adds	r4, r0, #1	@ D.6811, D.6811,
 428 00dc 4C60     		str	r4, [r1, #4]	@ D.6811, xfer_11(D)->txBuff
 429 00de 0078     		ldrb	r0, [r0]	@ D.6810, *_22
 430 00e0 9060     		str	r0, [r2, #8]	@ D.6810, pI2C_10(D)->DAT
 431 00e2 087D     		ldrb	r0, [r1, #20]	@ tmp175,
 195:../../lib/lpc11cx4-library/lpc_chip_11cxx_lib/src/i2c_11xx.c **** 		}
 432              		.loc 1 195 0
 433 00e4 8B60     		str	r3, [r1, #8]	@ D.6806, xfer_11(D)->txSz
 434 00e6 0238     		subs	r0, r0, #2	@ tmp177,
 435 00e8 431E     		subs	r3, r0, #1	@ tmp178, tmp177
 436 00ea 9841     		sbcs	r0, r0, r3	@ D.6806, tmp177, tmp178
 437 00ec C3E7     		b	.L21	@
 438              	.L46:
 439              	.LVL22:
 233:../../lib/lpc11cx4-library/lpc_chip_11cxx_lib/src/i2c_11xx.c **** 	pI2C->CONCLR = cclr;
 440              		.loc 1 233 0
 441 00ee 1023     		movs	r3, #16	@ tmp221,
 442 00f0 1360     		str	r3, [r2]	@ tmp221, pI2C_10(D)->CONSET
 234:../../lib/lpc11cx4-library/lpc_chip_11cxx_lib/src/i2c_11xx.c **** 
 443              		.loc 1 234 0
 444 00f2 1C33     		adds	r3, r3, #28	@ tmp222,
 445 00f4 9361     		str	r3, [r2, #24]	@ tmp222, pI2C_10(D)->CONCLR
 446 00f6 A4E7     		b	.L28	@
 447              	.LVL23:
 448              	.L47:
 233:../../lib/lpc11cx4-library/lpc_chip_11cxx_lib/src/i2c_11xx.c **** 	pI2C->CONCLR = cclr;
 449              		.loc 1 233 0
 450 00f8 0023     		movs	r3, #0	@ tmp202,
 451 00fa 1360     		str	r3, [r2]	@ tmp202, pI2C_10(D)->CONSET
 234:../../lib/lpc11cx4-library/lpc_chip_11cxx_lib/src/i2c_11xx.c **** 
 452              		.loc 1 234 0
 453 00fc 3C33     		adds	r3, r3, #60	@ tmp203,
 454 00fe 9361     		str	r3, [r2, #24]	@ tmp203,
 455 0100 D3E7     		b	.L42	@
 456              	.L49:
 457 0102 C046     		.align	2
 458              	.L48:
 459 0104 00000000 		.word	.L13
 460              		.cfi_endproc
ARM GAS  /var/folders/z0/6xlwn_996xz3mwq1cgzkbq4r0000gp/T//cc0Pdjko.s 			page 16


 461              	.LFE209:
 462              		.size	handleMasterXferState, .-handleMasterXferState
 463              		.section	.text.getSlaveIndex,"ax",%progbits
 464              		.align	2
 465              		.global	getSlaveIndex
 466              		.code	16
 467              		.thumb_func
 468              		.type	getSlaveIndex, %function
 469              	getSlaveIndex:
 470              	.LFB210:
 248:../../lib/lpc11cx4-library/lpc_chip_11cxx_lib/src/i2c_11xx.c **** 	switch (getCurState(pI2C)) {
 471              		.loc 1 248 0
 472              		.cfi_startproc
 473              		@ args = 0, pretend = 0, frame = 0
 474              		@ frame_needed = 0, uses_anonymous_args = 0
 475              	.LVL24:
 249:../../lib/lpc11cx4-library/lpc_chip_11cxx_lib/src/i2c_11xx.c **** 	case 0x60:
 476              		.loc 1 249 0
 477 0000 F821     		movs	r1, #248	@ tmp159,
 478              	.LBB79:
 479              	.LBB80:
 124:../../lib/lpc11cx4-library/lpc_chip_11cxx_lib/src/i2c_11xx.c **** }
 480              		.loc 1 124 0
 481 0002 4368     		ldr	r3, [r0, #4]	@ D.6842, pI2C_4(D)->STAT
 482              	.LVL25:
 483              	.LBE80:
 484              	.LBE79:
 248:../../lib/lpc11cx4-library/lpc_chip_11cxx_lib/src/i2c_11xx.c **** 	switch (getCurState(pI2C)) {
 485              		.loc 1 248 0
 486 0004 10B5     		push	{r4, lr}	@
 487              		.cfi_def_cfa_offset 8
 488              		.cfi_offset 4, -8
 489              		.cfi_offset 14, -4
 248:../../lib/lpc11cx4-library/lpc_chip_11cxx_lib/src/i2c_11xx.c **** 	switch (getCurState(pI2C)) {
 490              		.loc 1 248 0
 491 0006 0200     		movs	r2, r0	@ pI2C, pI2C
 249:../../lib/lpc11cx4-library/lpc_chip_11cxx_lib/src/i2c_11xx.c **** 	case 0x60:
 492              		.loc 1 249 0
 493 0008 0B40     		ands	r3, r1	@ D.6843, tmp159
 494 000a 702B     		cmp	r3, #112	@ D.6843,
 495 000c 0CD0     		beq	.L52	@,
 496 000e 07DD     		ble	.L82	@,
 497 0010 A82B     		cmp	r3, #168	@ D.6843,
 498 0012 09D0     		beq	.L52	@,
 499 0014 B02B     		cmp	r3, #176	@ D.6843,
 500 0016 07D0     		beq	.L52	@,
 501 0018 782B     		cmp	r3, #120	@ D.6843,
 502 001a 05D0     		beq	.L52	@,
 503              	.L54:
 260:../../lib/lpc11cx4-library/lpc_chip_11cxx_lib/src/i2c_11xx.c **** }
 504              		.loc 1 260 0
 505 001c 0020     		movs	r0, #0	@ D.6840,
 506              	.LVL26:
 507              	.L51:
 261:../../lib/lpc11cx4-library/lpc_chip_11cxx_lib/src/i2c_11xx.c **** 
 508              		.loc 1 261 0
 509              		@ sp needed	@
ARM GAS  /var/folders/z0/6xlwn_996xz3mwq1cgzkbq4r0000gp/T//cc0Pdjko.s 			page 17


 510 001e 10BD     		pop	{r4, pc}
 511              	.LVL27:
 512              	.L82:
 249:../../lib/lpc11cx4-library/lpc_chip_11cxx_lib/src/i2c_11xx.c **** 	case 0x60:
 513              		.loc 1 249 0
 514 0020 602B     		cmp	r3, #96	@ D.6843,
 515 0022 01D0     		beq	.L52	@,
 516 0024 682B     		cmp	r3, #104	@ D.6843,
 517 0026 F9D1     		bne	.L54	@,
 518              	.L52:
 519              	.LVL28:
 520              	.LBB81:
 521              	.LBB82:
 256:../../lib/lpc11cx4-library/lpc_chip_11cxx_lib/src/i2c_11xx.c **** 	}
 522              		.loc 1 256 0
 523 0028 9068     		ldr	r0, [r2, #8]	@ D.6842, pI2C_4(D)->DAT
 524              	.LVL29:
 525 002a C1B2     		uxtb	r1, r0	@ D.6841, D.6842
 526              	.LVL30:
 527              	.LBB83:
 528              	.LBB84:
 157:../../lib/lpc11cx4-library/lpc_chip_11cxx_lib/src/i2c_11xx.c **** 		return I2C_SLAVE_GENERAL;					/* General call address */
 529              		.loc 1 157 0
 530 002c 4B08     		lsrs	r3, r1, #1	@ tmp163, D.6841,
 174:../../lib/lpc11cx4-library/lpc_chip_11cxx_lib/src/i2c_11xx.c **** }
 531              		.loc 1 174 0
 532 002e 0020     		movs	r0, #0	@ D.6840,
 157:../../lib/lpc11cx4-library/lpc_chip_11cxx_lib/src/i2c_11xx.c **** 		return I2C_SLAVE_GENERAL;					/* General call address */
 533              		.loc 1 157 0
 534 0030 002B     		cmp	r3, #0	@ tmp163,
 535 0032 F4D0     		beq	.L51	@,
 160:../../lib/lpc11cx4-library/lpc_chip_11cxx_lib/src/i2c_11xx.c **** 		return I2C_SLAVE_0;
 536              		.loc 1 160 0
 537 0034 0124     		movs	r4, #1	@ tmp164,
 538 0036 D368     		ldr	r3, [r2, #12]	@ D.6842, pI2C_4(D)->ADR0
 539 0038 106B     		ldr	r0, [r2, #48]	@ D.6842, pI2C_4(D)->MASK
 540 003a 4B40     		eors	r3, r1	@ tmp171, D.6841
 541 003c 2043     		orrs	r0, r4	@ tmp167, tmp164
 542 003e C0B2     		uxtb	r0, r0	@ D.6843, tmp167
 543 0040 DBB2     		uxtb	r3, r3	@ D.6843, tmp171
 544 0042 8343     		bics	r3, r0	@ D.6843, D.6843
 161:../../lib/lpc11cx4-library/lpc_chip_11cxx_lib/src/i2c_11xx.c **** 	}
 545              		.loc 1 161 0
 546 0044 0120     		movs	r0, #1	@ D.6840,
 160:../../lib/lpc11cx4-library/lpc_chip_11cxx_lib/src/i2c_11xx.c **** 		return I2C_SLAVE_0;
 547              		.loc 1 160 0
 548 0046 002B     		cmp	r3, #0	@ D.6843,
 549 0048 E9D0     		beq	.L51	@,
 163:../../lib/lpc11cx4-library/lpc_chip_11cxx_lib/src/i2c_11xx.c **** 		return I2C_SLAVE_1;
 550              		.loc 1 163 0
 551 004a 136A     		ldr	r3, [r2, #32]	@ D.6842, pI2C_4(D)->ADR1
 552 004c 506B     		ldr	r0, [r2, #52]	@ D.6842, pI2C_4(D)->MASK
 553 004e 4B40     		eors	r3, r1	@ tmp181, D.6841
 554 0050 2043     		orrs	r0, r4	@ tmp177, tmp164
 555 0052 C0B2     		uxtb	r0, r0	@ D.6843, tmp177
 556 0054 DBB2     		uxtb	r3, r3	@ D.6843, tmp181
 557 0056 8343     		bics	r3, r0	@ D.6843, D.6843
ARM GAS  /var/folders/z0/6xlwn_996xz3mwq1cgzkbq4r0000gp/T//cc0Pdjko.s 			page 18


 164:../../lib/lpc11cx4-library/lpc_chip_11cxx_lib/src/i2c_11xx.c **** 	}
 558              		.loc 1 164 0
 559 0058 0220     		movs	r0, #2	@ D.6840,
 163:../../lib/lpc11cx4-library/lpc_chip_11cxx_lib/src/i2c_11xx.c **** 		return I2C_SLAVE_1;
 560              		.loc 1 163 0
 561 005a 002B     		cmp	r3, #0	@ D.6843,
 562 005c DFD0     		beq	.L51	@,
 166:../../lib/lpc11cx4-library/lpc_chip_11cxx_lib/src/i2c_11xx.c **** 		return I2C_SLAVE_2;
 563              		.loc 1 166 0
 564 005e 536A     		ldr	r3, [r2, #36]	@ D.6842, pI2C_4(D)->ADR2
 565 0060 906B     		ldr	r0, [r2, #56]	@ D.6842, pI2C_4(D)->MASK
 566 0062 4B40     		eors	r3, r1	@ tmp191, D.6841
 567 0064 2043     		orrs	r0, r4	@ tmp187, tmp164
 568 0066 C0B2     		uxtb	r0, r0	@ D.6843, tmp187
 569 0068 DBB2     		uxtb	r3, r3	@ D.6843, tmp191
 570 006a 8343     		bics	r3, r0	@ D.6843, D.6843
 167:../../lib/lpc11cx4-library/lpc_chip_11cxx_lib/src/i2c_11xx.c **** 	}
 571              		.loc 1 167 0
 572 006c 0320     		movs	r0, #3	@ D.6840,
 166:../../lib/lpc11cx4-library/lpc_chip_11cxx_lib/src/i2c_11xx.c **** 		return I2C_SLAVE_2;
 573              		.loc 1 166 0
 574 006e 002B     		cmp	r3, #0	@ D.6843,
 575 0070 D5D0     		beq	.L51	@,
 169:../../lib/lpc11cx4-library/lpc_chip_11cxx_lib/src/i2c_11xx.c **** 		return I2C_SLAVE_3;
 576              		.loc 1 169 0
 577 0072 936A     		ldr	r3, [r2, #40]	@ D.6842, pI2C_4(D)->ADR3
 578 0074 D26B     		ldr	r2, [r2, #60]	@ D.6842, pI2C_4(D)->MASK
 579              	.LVL31:
 580 0076 5940     		eors	r1, r3	@ D.6841, D.6842
 581              	.LVL32:
 582 0078 1443     		orrs	r4, r2	@ tmp197, D.6842
 583 007a E4B2     		uxtb	r4, r4	@ D.6843, tmp197
 584 007c C8B2     		uxtb	r0, r1	@ D.6843, tmp201
 585 007e A043     		bics	r0, r4	@ D.6843, D.6843
 170:../../lib/lpc11cx4-library/lpc_chip_11cxx_lib/src/i2c_11xx.c **** 	}
 586              		.loc 1 170 0
 587 0080 4342     		rsbs	r3, r0, #0	@ tmp206, D.6843
 588 0082 5841     		adcs	r0, r0, r3	@ tmp205, D.6843, tmp206
 589 0084 8000     		lsls	r0, r0, #2	@ D.6840, tmp205,
 590 0086 CAE7     		b	.L51	@
 591              	.LBE84:
 592              	.LBE83:
 593              	.LBE82:
 594              	.LBE81:
 595              		.cfi_endproc
 596              	.LFE210:
 597              		.size	getSlaveIndex, .-getSlaveIndex
 598              		.section	.text.handleSlaveXferState,"ax",%progbits
 599              		.align	2
 600              		.global	handleSlaveXferState
 601              		.code	16
 602              		.thumb_func
 603              		.type	handleSlaveXferState, %function
 604              	handleSlaveXferState:
 605              	.LFB211:
 265:../../lib/lpc11cx4-library/lpc_chip_11cxx_lib/src/i2c_11xx.c **** 	uint32_t cclr = I2C_CON_FLAGS;
 606              		.loc 1 265 0
ARM GAS  /var/folders/z0/6xlwn_996xz3mwq1cgzkbq4r0000gp/T//cc0Pdjko.s 			page 19


 607              		.cfi_startproc
 608              		@ args = 0, pretend = 0, frame = 0
 609              		@ frame_needed = 0, uses_anonymous_args = 0
 610              		@ link register save eliminated.
 611              	.LVL33:
 269:../../lib/lpc11cx4-library/lpc_chip_11cxx_lib/src/i2c_11xx.c **** 	switch (getCurState(pI2C)) {
 612              		.loc 1 269 0
 613 0000 0423     		movs	r3, #4	@ tmp140,
 265:../../lib/lpc11cx4-library/lpc_chip_11cxx_lib/src/i2c_11xx.c **** 	uint32_t cclr = I2C_CON_FLAGS;
 614              		.loc 1 265 0
 615 0002 0200     		movs	r2, r0	@ pI2C, pI2C
 269:../../lib/lpc11cx4-library/lpc_chip_11cxx_lib/src/i2c_11xx.c **** 	switch (getCurState(pI2C)) {
 616              		.loc 1 269 0
 617 0004 0B75     		strb	r3, [r1, #20]	@ tmp140, xfer_7(D)->status
 618              	.LVL34:
 619              	.LBB85:
 620              	.LBB86:
 124:../../lib/lpc11cx4-library/lpc_chip_11cxx_lib/src/i2c_11xx.c **** }
 621              		.loc 1 124 0
 622 0006 4368     		ldr	r3, [r0, #4]	@ D.6855, pI2C_9(D)->STAT
 623              	.LVL35:
 624              	.LBE86:
 625              	.LBE85:
 270:../../lib/lpc11cx4-library/lpc_chip_11cxx_lib/src/i2c_11xx.c **** 	case 0x80:		/* SLA: Data received + ACK sent */
 626              		.loc 1 270 0
 627 0008 F820     		movs	r0, #248	@ tmp142,
 628              	.LVL36:
 629 000a 0340     		ands	r3, r0	@ D.6856, tmp142
 630 000c 603B     		subs	r3, r3, #96	@ tmp144,
 631 000e 682B     		cmp	r3, #104	@ tmp144,
 632 0010 39D8     		bhi	.L91	@,
 633 0012 2548     		ldr	r0, .L98	@ tmp147,
 634 0014 9B00     		lsls	r3, r3, #2	@ tmp145, tmp144,
 635 0016 C358     		ldr	r3, [r0, r3]	@ tmp148,
 636 0018 9F46     		mov	pc, r3	@ tmp148
 637              		.section	.rodata.handleSlaveXferState,"a",%progbits
 638              		.align	2
 639              	.L86:
 640 0000 42000000 		.word	.L85
 641 0004 86000000 		.word	.L91
 642 0008 86000000 		.word	.L91
 643 000c 86000000 		.word	.L91
 644 0010 86000000 		.word	.L91
 645 0014 86000000 		.word	.L91
 646 0018 86000000 		.word	.L91
 647 001c 86000000 		.word	.L91
 648 0020 42000000 		.word	.L85
 649 0024 86000000 		.word	.L91
 650 0028 86000000 		.word	.L91
 651 002c 86000000 		.word	.L91
 652 0030 86000000 		.word	.L91
 653 0034 86000000 		.word	.L91
 654 0038 86000000 		.word	.L91
 655 003c 86000000 		.word	.L91
 656 0040 42000000 		.word	.L85
 657 0044 86000000 		.word	.L91
 658 0048 86000000 		.word	.L91
ARM GAS  /var/folders/z0/6xlwn_996xz3mwq1cgzkbq4r0000gp/T//cc0Pdjko.s 			page 20


 659 004c 86000000 		.word	.L91
 660 0050 86000000 		.word	.L91
 661 0054 86000000 		.word	.L91
 662 0058 86000000 		.word	.L91
 663 005c 86000000 		.word	.L91
 664 0060 42000000 		.word	.L85
 665 0064 86000000 		.word	.L91
 666 0068 86000000 		.word	.L91
 667 006c 86000000 		.word	.L91
 668 0070 86000000 		.word	.L91
 669 0074 86000000 		.word	.L91
 670 0078 86000000 		.word	.L91
 671 007c 86000000 		.word	.L91
 672 0080 58000000 		.word	.L87
 673 0084 86000000 		.word	.L91
 674 0088 86000000 		.word	.L91
 675 008c 86000000 		.word	.L91
 676 0090 86000000 		.word	.L91
 677 0094 86000000 		.word	.L91
 678 0098 86000000 		.word	.L91
 679 009c 86000000 		.word	.L91
 680 00a0 74000000 		.word	.L88
 681 00a4 86000000 		.word	.L91
 682 00a8 86000000 		.word	.L91
 683 00ac 86000000 		.word	.L91
 684 00b0 86000000 		.word	.L91
 685 00b4 86000000 		.word	.L91
 686 00b8 86000000 		.word	.L91
 687 00bc 86000000 		.word	.L91
 688 00c0 58000000 		.word	.L87
 689 00c4 86000000 		.word	.L91
 690 00c8 86000000 		.word	.L91
 691 00cc 86000000 		.word	.L91
 692 00d0 86000000 		.word	.L91
 693 00d4 86000000 		.word	.L91
 694 00d8 86000000 		.word	.L91
 695 00dc 86000000 		.word	.L91
 696 00e0 74000000 		.word	.L88
 697 00e4 86000000 		.word	.L91
 698 00e8 86000000 		.word	.L91
 699 00ec 86000000 		.word	.L91
 700 00f0 86000000 		.word	.L91
 701 00f4 86000000 		.word	.L91
 702 00f8 86000000 		.word	.L91
 703 00fc 86000000 		.word	.L91
 704 0100 74000000 		.word	.L88
 705 0104 86000000 		.word	.L91
 706 0108 86000000 		.word	.L91
 707 010c 86000000 		.word	.L91
 708 0110 86000000 		.word	.L91
 709 0114 86000000 		.word	.L91
 710 0118 86000000 		.word	.L91
 711 011c 86000000 		.word	.L91
 712 0120 1A000000 		.word	.L89
 713 0124 86000000 		.word	.L91
 714 0128 86000000 		.word	.L91
 715 012c 86000000 		.word	.L91
ARM GAS  /var/folders/z0/6xlwn_996xz3mwq1cgzkbq4r0000gp/T//cc0Pdjko.s 			page 21


 716 0130 86000000 		.word	.L91
 717 0134 86000000 		.word	.L91
 718 0138 86000000 		.word	.L91
 719 013c 86000000 		.word	.L91
 720 0140 1A000000 		.word	.L89
 721 0144 86000000 		.word	.L91
 722 0148 86000000 		.word	.L91
 723 014c 86000000 		.word	.L91
 724 0150 86000000 		.word	.L91
 725 0154 86000000 		.word	.L91
 726 0158 86000000 		.word	.L91
 727 015c 86000000 		.word	.L91
 728 0160 22000000 		.word	.L90
 729 0164 86000000 		.word	.L91
 730 0168 86000000 		.word	.L91
 731 016c 86000000 		.word	.L91
 732 0170 86000000 		.word	.L91
 733 0174 86000000 		.word	.L91
 734 0178 86000000 		.word	.L91
 735 017c 86000000 		.word	.L91
 736 0180 74000000 		.word	.L88
 737 0184 86000000 		.word	.L91
 738 0188 86000000 		.word	.L91
 739 018c 86000000 		.word	.L91
 740 0190 86000000 		.word	.L91
 741 0194 86000000 		.word	.L91
 742 0198 86000000 		.word	.L91
 743 019c 86000000 		.word	.L91
 744 01a0 74000000 		.word	.L88
 745              		.section	.text.handleSlaveXferState
 746              	.L89:
 293:../../lib/lpc11cx4-library/lpc_chip_11cxx_lib/src/i2c_11xx.c **** 
 747              		.loc 1 293 0
 748 001a 0120     		movs	r0, #1	@ tmp159,
 749 001c 9368     		ldr	r3, [r2, #8]	@ D.6855, pI2C_9(D)->DAT
 750 001e 8343     		bics	r3, r0	@ tmp158, tmp159
 751 0020 0B70     		strb	r3, [r1]	@ tmp158, xfer_7(D)->slaveAddr
 752              	.L90:
 296:../../lib/lpc11cx4-library/lpc_chip_11cxx_lib/src/i2c_11xx.c **** 		xfer->txSz--;
 753              		.loc 1 296 0
 754 0022 4B68     		ldr	r3, [r1, #4]	@ D.6857, xfer_7(D)->txBuff
 755 0024 581C     		adds	r0, r3, #1	@ D.6857, D.6857,
 756 0026 4860     		str	r0, [r1, #4]	@ D.6857, xfer_7(D)->txBuff
 757 0028 1B78     		ldrb	r3, [r3]	@ D.6855, *_28
 758 002a 9360     		str	r3, [r2, #8]	@ D.6855, pI2C_9(D)->DAT
 297:../../lib/lpc11cx4-library/lpc_chip_11cxx_lib/src/i2c_11xx.c **** 		if (xfer->txSz > 0) {
 759              		.loc 1 297 0
 760 002c 8B68     		ldr	r3, [r1, #8]	@ tmp176, xfer_7(D)->txSz
 761 002e 013B     		subs	r3, r3, #1	@ D.6856,
 762 0030 8B60     		str	r3, [r1, #8]	@ D.6856, xfer_7(D)->txSz
 298:../../lib/lpc11cx4-library/lpc_chip_11cxx_lib/src/i2c_11xx.c **** 			cclr &= ~I2C_CON_AA;
 763              		.loc 1 298 0
 764 0032 002B     		cmp	r3, #0	@ D.6856,
 765 0034 2BDD     		ble	.L96	@,
 766 0036 0421     		movs	r1, #4	@ D.6855,
 767              	.LVL37:
 301:../../lib/lpc11cx4-library/lpc_chip_11cxx_lib/src/i2c_11xx.c **** 		break;
ARM GAS  /var/folders/z0/6xlwn_996xz3mwq1cgzkbq4r0000gp/T//cc0Pdjko.s 			page 22


 768              		.loc 1 301 0
 769 0038 0620     		movs	r0, #6	@ ret,
 299:../../lib/lpc11cx4-library/lpc_chip_11cxx_lib/src/i2c_11xx.c **** 		}
 770              		.loc 1 299 0
 771 003a 3823     		movs	r3, #56	@ cclr,
 772              	.LVL38:
 773              	.L84:
 319:../../lib/lpc11cx4-library/lpc_chip_11cxx_lib/src/i2c_11xx.c **** 	pI2C->CONCLR = cclr;
 774              		.loc 1 319 0
 775 003c 1160     		str	r1, [r2]	@ D.6855, pI2C_9(D)->CONSET
 323:../../lib/lpc11cx4-library/lpc_chip_11cxx_lib/src/i2c_11xx.c **** 
 776              		.loc 1 323 0
 777              		@ sp needed	@
 320:../../lib/lpc11cx4-library/lpc_chip_11cxx_lib/src/i2c_11xx.c **** 
 778              		.loc 1 320 0
 779 003e 9361     		str	r3, [r2, #24]	@ cclr, pI2C_9(D)->CONCLR
 323:../../lib/lpc11cx4-library/lpc_chip_11cxx_lib/src/i2c_11xx.c **** 
 780              		.loc 1 323 0
 781 0040 7047     		bx	lr
 782              	.LVL39:
 783              	.L85:
 285:../../lib/lpc11cx4-library/lpc_chip_11cxx_lib/src/i2c_11xx.c **** 		if (xfer->rxSz > 1) {
 784              		.loc 1 285 0
 785 0042 0120     		movs	r0, #1	@ tmp154,
 786 0044 9368     		ldr	r3, [r2, #8]	@ D.6855, pI2C_9(D)->DAT
 787 0046 8343     		bics	r3, r0	@ tmp153, tmp154
 788 0048 0B70     		strb	r3, [r1]	@ tmp153, xfer_7(D)->slaveAddr
 286:../../lib/lpc11cx4-library/lpc_chip_11cxx_lib/src/i2c_11xx.c **** 			cclr &= ~I2C_CON_AA;
 789              		.loc 1 286 0
 790 004a 0B69     		ldr	r3, [r1, #16]	@ xfer_7(D)->rxSz, xfer_7(D)->rxSz
 791 004c 012B     		cmp	r3, #1	@ xfer_7(D)->rxSz,
 792 004e 1ADD     		ble	.L91	@,
 793 0050 0421     		movs	r1, #4	@ D.6855,
 794              	.LVL40:
 267:../../lib/lpc11cx4-library/lpc_chip_11cxx_lib/src/i2c_11xx.c **** 
 795              		.loc 1 267 0
 796 0052 0020     		movs	r0, #0	@ ret,
 287:../../lib/lpc11cx4-library/lpc_chip_11cxx_lib/src/i2c_11xx.c **** 		}
 797              		.loc 1 287 0
 798 0054 3823     		movs	r3, #56	@ cclr,
 799 0056 F1E7     		b	.L84	@
 800              	.LVL41:
 801              	.L87:
 273:../../lib/lpc11cx4-library/lpc_chip_11cxx_lib/src/i2c_11xx.c **** 		xfer->rxSz--;
 802              		.loc 1 273 0
 803 0058 CB68     		ldr	r3, [r1, #12]	@ D.6854, xfer_7(D)->rxBuff
 804 005a 581C     		adds	r0, r3, #1	@ D.6854, D.6854,
 805 005c C860     		str	r0, [r1, #12]	@ D.6854, xfer_7(D)->rxBuff
 806 005e 9068     		ldr	r0, [r2, #8]	@ D.6855, pI2C_9(D)->DAT
 807 0060 1870     		strb	r0, [r3]	@ D.6855, *_10
 274:../../lib/lpc11cx4-library/lpc_chip_11cxx_lib/src/i2c_11xx.c **** 		ret = RET_SLAVE_RX;
 808              		.loc 1 274 0
 809 0062 0B69     		ldr	r3, [r1, #16]	@ tmp175, xfer_7(D)->rxSz
 810 0064 013B     		subs	r3, r3, #1	@ D.6856,
 811 0066 0B61     		str	r3, [r1, #16]	@ D.6856, xfer_7(D)->rxSz
 812              	.LVL42:
 276:../../lib/lpc11cx4-library/lpc_chip_11cxx_lib/src/i2c_11xx.c **** 			cclr &= ~I2C_CON_AA;
ARM GAS  /var/folders/z0/6xlwn_996xz3mwq1cgzkbq4r0000gp/T//cc0Pdjko.s 			page 23


 813              		.loc 1 276 0
 814 0068 012B     		cmp	r3, #1	@ D.6856,
 815 006a 18DD     		ble	.L97	@,
 816 006c 0421     		movs	r1, #4	@ D.6855,
 817              	.LVL43:
 275:../../lib/lpc11cx4-library/lpc_chip_11cxx_lib/src/i2c_11xx.c **** 		if (xfer->rxSz > 1) {
 818              		.loc 1 275 0
 819 006e 0520     		movs	r0, #5	@ ret,
 277:../../lib/lpc11cx4-library/lpc_chip_11cxx_lib/src/i2c_11xx.c **** 		}
 820              		.loc 1 277 0
 821 0070 3823     		movs	r3, #56	@ cclr,
 822 0072 E3E7     		b	.L84	@
 823              	.LVL44:
 824              	.L88:
 311:../../lib/lpc11cx4-library/lpc_chip_11cxx_lib/src/i2c_11xx.c **** 		if (xfer->slaveAddr & 1) {
 825              		.loc 1 311 0
 826 0074 0023     		movs	r3, #0	@ tmp163,
 827 0076 0B75     		strb	r3, [r1, #20]	@ tmp163, xfer_7(D)->status
 312:../../lib/lpc11cx4-library/lpc_chip_11cxx_lib/src/i2c_11xx.c **** 			cclr &= ~I2C_CON_STA;
 828              		.loc 1 312 0
 829 0078 0B78     		ldrb	r3, [r1]	@ *xfer_7(D), *xfer_7(D)
 830 007a DB07     		lsls	r3, r3, #31	@ tmp174, *xfer_7(D),
 831 007c 0BD4     		bmi	.L95	@,
 832 007e 0421     		movs	r1, #4	@ D.6855,
 833              	.LVL45:
 309:../../lib/lpc11cx4-library/lpc_chip_11cxx_lib/src/i2c_11xx.c **** 		cclr &= ~I2C_CON_AA;
 834              		.loc 1 309 0
 835 0080 0220     		movs	r0, #2	@ ret,
 310:../../lib/lpc11cx4-library/lpc_chip_11cxx_lib/src/i2c_11xx.c **** 		xfer->status = I2C_STATUS_DONE;
 836              		.loc 1 310 0
 837 0082 3823     		movs	r3, #56	@ cclr,
 838 0084 DAE7     		b	.L84	@
 839              	.LVL46:
 840              	.L91:
 270:../../lib/lpc11cx4-library/lpc_chip_11cxx_lib/src/i2c_11xx.c **** 	case 0x80:		/* SLA: Data received + ACK sent */
 841              		.loc 1 270 0
 842 0086 0021     		movs	r1, #0	@ D.6855,
 843              	.LVL47:
 267:../../lib/lpc11cx4-library/lpc_chip_11cxx_lib/src/i2c_11xx.c **** 
 844              		.loc 1 267 0
 845 0088 0020     		movs	r0, #0	@ ret,
 266:../../lib/lpc11cx4-library/lpc_chip_11cxx_lib/src/i2c_11xx.c **** 	int ret = RET_SLAVE_BUSY;
 846              		.loc 1 266 0
 847 008a 3C23     		movs	r3, #60	@ cclr,
 848 008c D6E7     		b	.L84	@
 849              	.LVL48:
 850              	.L96:
 298:../../lib/lpc11cx4-library/lpc_chip_11cxx_lib/src/i2c_11xx.c **** 			cclr &= ~I2C_CON_AA;
 851              		.loc 1 298 0
 852 008e 0021     		movs	r1, #0	@ D.6855,
 853              	.LVL49:
 301:../../lib/lpc11cx4-library/lpc_chip_11cxx_lib/src/i2c_11xx.c **** 		break;
 854              		.loc 1 301 0
 855 0090 0620     		movs	r0, #6	@ ret,
 266:../../lib/lpc11cx4-library/lpc_chip_11cxx_lib/src/i2c_11xx.c **** 	int ret = RET_SLAVE_BUSY;
 856              		.loc 1 266 0
 857 0092 3C23     		movs	r3, #60	@ cclr,
ARM GAS  /var/folders/z0/6xlwn_996xz3mwq1cgzkbq4r0000gp/T//cc0Pdjko.s 			page 24


 858 0094 D2E7     		b	.L84	@
 859              	.LVL50:
 860              	.L95:
 861 0096 2421     		movs	r1, #36	@ D.6855,
 862              	.LVL51:
 309:../../lib/lpc11cx4-library/lpc_chip_11cxx_lib/src/i2c_11xx.c **** 		cclr &= ~I2C_CON_AA;
 863              		.loc 1 309 0
 864 0098 0220     		movs	r0, #2	@ ret,
 313:../../lib/lpc11cx4-library/lpc_chip_11cxx_lib/src/i2c_11xx.c **** 		}
 865              		.loc 1 313 0
 866 009a 1823     		movs	r3, #24	@ cclr,
 867 009c CEE7     		b	.L84	@
 868              	.LVL52:
 869              	.L97:
 276:../../lib/lpc11cx4-library/lpc_chip_11cxx_lib/src/i2c_11xx.c **** 			cclr &= ~I2C_CON_AA;
 870              		.loc 1 276 0
 871 009e 0021     		movs	r1, #0	@ D.6855,
 872              	.LVL53:
 275:../../lib/lpc11cx4-library/lpc_chip_11cxx_lib/src/i2c_11xx.c **** 		if (xfer->rxSz > 1) {
 873              		.loc 1 275 0
 874 00a0 0520     		movs	r0, #5	@ ret,
 266:../../lib/lpc11cx4-library/lpc_chip_11cxx_lib/src/i2c_11xx.c **** 	int ret = RET_SLAVE_BUSY;
 875              		.loc 1 266 0
 876 00a2 3C23     		movs	r3, #60	@ cclr,
 877 00a4 CAE7     		b	.L84	@
 878              	.L99:
 879 00a6 C046     		.align	2
 880              	.L98:
 881 00a8 00000000 		.word	.L86
 882              		.cfi_endproc
 883              	.LFE211:
 884              		.size	handleSlaveXferState, .-handleSlaveXferState
 885              		.section	.text.Chip_I2C_Init,"ax",%progbits
 886              		.align	2
 887              		.global	Chip_I2C_Init
 888              		.code	16
 889              		.thumb_func
 890              		.type	Chip_I2C_Init, %function
 891              	Chip_I2C_Init:
 892              	.LFB214:
 346:../../lib/lpc11cx4-library/lpc_chip_11cxx_lib/src/i2c_11xx.c **** 
 347:../../lib/lpc11cx4-library/lpc_chip_11cxx_lib/src/i2c_11xx.c **** /* Chip polling event handler */
 348:../../lib/lpc11cx4-library/lpc_chip_11cxx_lib/src/i2c_11xx.c **** void Chip_I2C_EventHandlerPolling(I2C_ID_T id, I2C_EVENT_T event)
 349:../../lib/lpc11cx4-library/lpc_chip_11cxx_lib/src/i2c_11xx.c **** {
 350:../../lib/lpc11cx4-library/lpc_chip_11cxx_lib/src/i2c_11xx.c **** 	struct i2c_interface *iic = &i2c;
 351:../../lib/lpc11cx4-library/lpc_chip_11cxx_lib/src/i2c_11xx.c **** 	volatile I2C_STATUS_T *stat;
 352:../../lib/lpc11cx4-library/lpc_chip_11cxx_lib/src/i2c_11xx.c **** 
 353:../../lib/lpc11cx4-library/lpc_chip_11cxx_lib/src/i2c_11xx.c **** 	/* Only WAIT event needs to be handled */
 354:../../lib/lpc11cx4-library/lpc_chip_11cxx_lib/src/i2c_11xx.c **** 	if (event != I2C_EVENT_WAIT) {
 355:../../lib/lpc11cx4-library/lpc_chip_11cxx_lib/src/i2c_11xx.c **** 		return;
 356:../../lib/lpc11cx4-library/lpc_chip_11cxx_lib/src/i2c_11xx.c **** 	}
 357:../../lib/lpc11cx4-library/lpc_chip_11cxx_lib/src/i2c_11xx.c **** 
 358:../../lib/lpc11cx4-library/lpc_chip_11cxx_lib/src/i2c_11xx.c **** 	stat = &iic->mXfer->status;
 359:../../lib/lpc11cx4-library/lpc_chip_11cxx_lib/src/i2c_11xx.c **** 	/* Call the state change handler till xfer is done */
 360:../../lib/lpc11cx4-library/lpc_chip_11cxx_lib/src/i2c_11xx.c **** 	while (*stat == I2C_STATUS_BUSY) {
 361:../../lib/lpc11cx4-library/lpc_chip_11cxx_lib/src/i2c_11xx.c **** 		if (Chip_I2C_IsStateChanged(id)) {
 362:../../lib/lpc11cx4-library/lpc_chip_11cxx_lib/src/i2c_11xx.c **** 			Chip_I2C_MasterStateHandler(id);
ARM GAS  /var/folders/z0/6xlwn_996xz3mwq1cgzkbq4r0000gp/T//cc0Pdjko.s 			page 25


 363:../../lib/lpc11cx4-library/lpc_chip_11cxx_lib/src/i2c_11xx.c **** 		}
 364:../../lib/lpc11cx4-library/lpc_chip_11cxx_lib/src/i2c_11xx.c **** 	}
 365:../../lib/lpc11cx4-library/lpc_chip_11cxx_lib/src/i2c_11xx.c **** }
 366:../../lib/lpc11cx4-library/lpc_chip_11cxx_lib/src/i2c_11xx.c **** 
 367:../../lib/lpc11cx4-library/lpc_chip_11cxx_lib/src/i2c_11xx.c **** /* Initializes the LPC_I2C peripheral with specified parameter */
 368:../../lib/lpc11cx4-library/lpc_chip_11cxx_lib/src/i2c_11xx.c **** void Chip_I2C_Init(I2C_ID_T id)
 369:../../lib/lpc11cx4-library/lpc_chip_11cxx_lib/src/i2c_11xx.c **** {
 893              		.loc 1 369 0
 894              		.cfi_startproc
 895              		@ args = 0, pretend = 0, frame = 0
 896              		@ frame_needed = 0, uses_anonymous_args = 0
 897              	.LVL54:
 370:../../lib/lpc11cx4-library/lpc_chip_11cxx_lib/src/i2c_11xx.c **** 
 371:../../lib/lpc11cx4-library/lpc_chip_11cxx_lib/src/i2c_11xx.c **** 	i2c.ip = LPC_I2C;
 372:../../lib/lpc11cx4-library/lpc_chip_11cxx_lib/src/i2c_11xx.c **** 	i2c.clk = SYSCTL_CLOCK_I2C;
 898              		.loc 1 372 0
 899 0000 0522     		movs	r2, #5	@ tmp116,
 371:../../lib/lpc11cx4-library/lpc_chip_11cxx_lib/src/i2c_11xx.c **** 	i2c.clk = SYSCTL_CLOCK_I2C;
 900              		.loc 1 371 0
 901 0002 0B4B     		ldr	r3, .L101	@ tmp113,
 369:../../lib/lpc11cx4-library/lpc_chip_11cxx_lib/src/i2c_11xx.c **** 
 902              		.loc 1 369 0
 903 0004 10B5     		push	{r4, lr}	@
 904              		.cfi_def_cfa_offset 8
 905              		.cfi_offset 4, -8
 906              		.cfi_offset 14, -4
 907              		.loc 1 372 0
 908 0006 1A71     		strb	r2, [r3, #4]	@ tmp116, i2c.clk
 373:../../lib/lpc11cx4-library/lpc_chip_11cxx_lib/src/i2c_11xx.c **** 	i2c.mEvent = Chip_I2C_EventHandler;
 909              		.loc 1 373 0
 910 0008 0A4A     		ldr	r2, .L101+4	@ tmp119,
 371:../../lib/lpc11cx4-library/lpc_chip_11cxx_lib/src/i2c_11xx.c **** 	i2c.clk = SYSCTL_CLOCK_I2C;
 911              		.loc 1 371 0
 912 000a 8021     		movs	r1, #128	@ tmp114,
 913              		.loc 1 373 0
 914 000c 9A60     		str	r2, [r3, #8]	@ tmp119, i2c.mEvent
 374:../../lib/lpc11cx4-library/lpc_chip_11cxx_lib/src/i2c_11xx.c **** 	i2c.sEvent = NULL;
 915              		.loc 1 374 0
 916 000e 0022     		movs	r2, #0	@ tmp121,
 371:../../lib/lpc11cx4-library/lpc_chip_11cxx_lib/src/i2c_11xx.c **** 	i2c.clk = SYSCTL_CLOCK_I2C;
 917              		.loc 1 371 0
 918 0010 C905     		lsls	r1, r1, #23	@ tmp114, tmp114,
 375:../../lib/lpc11cx4-library/lpc_chip_11cxx_lib/src/i2c_11xx.c **** 	i2c.mXfer = NULL;
 376:../../lib/lpc11cx4-library/lpc_chip_11cxx_lib/src/i2c_11xx.c **** 	i2c.sXfer = NULL;
 377:../../lib/lpc11cx4-library/lpc_chip_11cxx_lib/src/i2c_11xx.c **** 	i2c.flags = 0;
 919              		.loc 1 377 0
 920 0012 9A61     		str	r2, [r3, #24]	@ tmp121, i2c.flags
 921              	.LVL55:
 374:../../lib/lpc11cx4-library/lpc_chip_11cxx_lib/src/i2c_11xx.c **** 	i2c.mXfer = NULL;
 922              		.loc 1 374 0
 923 0014 DA60     		str	r2, [r3, #12]	@ tmp121, i2c.sEvent
 375:../../lib/lpc11cx4-library/lpc_chip_11cxx_lib/src/i2c_11xx.c **** 	i2c.mXfer = NULL;
 924              		.loc 1 375 0
 925 0016 1A61     		str	r2, [r3, #16]	@ tmp121, i2c.mXfer
 376:../../lib/lpc11cx4-library/lpc_chip_11cxx_lib/src/i2c_11xx.c **** 	i2c.flags = 0;
 926              		.loc 1 376 0
 927 0018 5A61     		str	r2, [r3, #20]	@ tmp121, i2c.sXfer
ARM GAS  /var/folders/z0/6xlwn_996xz3mwq1cgzkbq4r0000gp/T//cc0Pdjko.s 			page 26


 371:../../lib/lpc11cx4-library/lpc_chip_11cxx_lib/src/i2c_11xx.c **** 	i2c.clk = SYSCTL_CLOCK_I2C;
 928              		.loc 1 371 0
 929 001a 1960     		str	r1, [r3]	@ tmp114, i2c.ip
 930              	.LBB87:
 931              	.LBB88:
 932              	.LBB89:
 933              		.file 2 "../../lib/lpc11cx4-library/lpc_chip_11cxx_lib/inc/clock_11xx.h"
   1:../../lib/lpc11cx4-library/lpc_chip_11cxx_lib/inc/clock_11xx.h **** /*
   2:../../lib/lpc11cx4-library/lpc_chip_11cxx_lib/inc/clock_11xx.h ****  * @brief LPC11XX Clock control functions
   3:../../lib/lpc11cx4-library/lpc_chip_11cxx_lib/inc/clock_11xx.h ****  *
   4:../../lib/lpc11cx4-library/lpc_chip_11cxx_lib/inc/clock_11xx.h ****  * @note
   5:../../lib/lpc11cx4-library/lpc_chip_11cxx_lib/inc/clock_11xx.h ****  * Copyright(C) NXP Semiconductors, 2012
   6:../../lib/lpc11cx4-library/lpc_chip_11cxx_lib/inc/clock_11xx.h ****  * All rights reserved.
   7:../../lib/lpc11cx4-library/lpc_chip_11cxx_lib/inc/clock_11xx.h ****  *
   8:../../lib/lpc11cx4-library/lpc_chip_11cxx_lib/inc/clock_11xx.h ****  * @par
   9:../../lib/lpc11cx4-library/lpc_chip_11cxx_lib/inc/clock_11xx.h ****  * Software that is described herein is for illustrative purposes only
  10:../../lib/lpc11cx4-library/lpc_chip_11cxx_lib/inc/clock_11xx.h ****  * which provides customers with programming information regarding the
  11:../../lib/lpc11cx4-library/lpc_chip_11cxx_lib/inc/clock_11xx.h ****  * LPC products.  This software is supplied "AS IS" without any warranties of
  12:../../lib/lpc11cx4-library/lpc_chip_11cxx_lib/inc/clock_11xx.h ****  * any kind, and NXP Semiconductors and its licensor disclaim any and
  13:../../lib/lpc11cx4-library/lpc_chip_11cxx_lib/inc/clock_11xx.h ****  * all warranties, express or implied, including all implied warranties of
  14:../../lib/lpc11cx4-library/lpc_chip_11cxx_lib/inc/clock_11xx.h ****  * merchantability, fitness for a particular purpose and non-infringement of
  15:../../lib/lpc11cx4-library/lpc_chip_11cxx_lib/inc/clock_11xx.h ****  * intellectual property rights.  NXP Semiconductors assumes no responsibility
  16:../../lib/lpc11cx4-library/lpc_chip_11cxx_lib/inc/clock_11xx.h ****  * or liability for the use of the software, conveys no license or rights under any
  17:../../lib/lpc11cx4-library/lpc_chip_11cxx_lib/inc/clock_11xx.h ****  * patent, copyright, mask work right, or any other intellectual property rights in
  18:../../lib/lpc11cx4-library/lpc_chip_11cxx_lib/inc/clock_11xx.h ****  * or to any products. NXP Semiconductors reserves the right to make changes
  19:../../lib/lpc11cx4-library/lpc_chip_11cxx_lib/inc/clock_11xx.h ****  * in the software without notification. NXP Semiconductors also makes no
  20:../../lib/lpc11cx4-library/lpc_chip_11cxx_lib/inc/clock_11xx.h ****  * representation or warranty that such application will be suitable for the
  21:../../lib/lpc11cx4-library/lpc_chip_11cxx_lib/inc/clock_11xx.h ****  * specified use without further testing or modification.
  22:../../lib/lpc11cx4-library/lpc_chip_11cxx_lib/inc/clock_11xx.h ****  *
  23:../../lib/lpc11cx4-library/lpc_chip_11cxx_lib/inc/clock_11xx.h ****  * @par
  24:../../lib/lpc11cx4-library/lpc_chip_11cxx_lib/inc/clock_11xx.h ****  * Permission to use, copy, modify, and distribute this software and its
  25:../../lib/lpc11cx4-library/lpc_chip_11cxx_lib/inc/clock_11xx.h ****  * documentation is hereby granted, under NXP Semiconductors' and its
  26:../../lib/lpc11cx4-library/lpc_chip_11cxx_lib/inc/clock_11xx.h ****  * licensor's relevant copyrights in the software, without fee, provided that it
  27:../../lib/lpc11cx4-library/lpc_chip_11cxx_lib/inc/clock_11xx.h ****  * is used in conjunction with NXP Semiconductors microcontrollers.  This
  28:../../lib/lpc11cx4-library/lpc_chip_11cxx_lib/inc/clock_11xx.h ****  * copyright, permission, and disclaimer notice must appear in all copies of
  29:../../lib/lpc11cx4-library/lpc_chip_11cxx_lib/inc/clock_11xx.h ****  * this code.
  30:../../lib/lpc11cx4-library/lpc_chip_11cxx_lib/inc/clock_11xx.h ****  */
  31:../../lib/lpc11cx4-library/lpc_chip_11cxx_lib/inc/clock_11xx.h **** 
  32:../../lib/lpc11cx4-library/lpc_chip_11cxx_lib/inc/clock_11xx.h **** #ifndef __CLOCK_11XX_H_
  33:../../lib/lpc11cx4-library/lpc_chip_11cxx_lib/inc/clock_11xx.h **** #define __CLOCK_11XX_H_
  34:../../lib/lpc11cx4-library/lpc_chip_11cxx_lib/inc/clock_11xx.h **** 
  35:../../lib/lpc11cx4-library/lpc_chip_11cxx_lib/inc/clock_11xx.h **** #ifdef __cplusplus
  36:../../lib/lpc11cx4-library/lpc_chip_11cxx_lib/inc/clock_11xx.h **** extern "C" {
  37:../../lib/lpc11cx4-library/lpc_chip_11cxx_lib/inc/clock_11xx.h **** #endif
  38:../../lib/lpc11cx4-library/lpc_chip_11cxx_lib/inc/clock_11xx.h **** 
  39:../../lib/lpc11cx4-library/lpc_chip_11cxx_lib/inc/clock_11xx.h **** /** @defgroup CLOCK_11XX CHIP: LPC11xx Clock Control block driver
  40:../../lib/lpc11cx4-library/lpc_chip_11cxx_lib/inc/clock_11xx.h ****  * @ingroup CHIP_11XX_Drivers
  41:../../lib/lpc11cx4-library/lpc_chip_11cxx_lib/inc/clock_11xx.h ****  * @{
  42:../../lib/lpc11cx4-library/lpc_chip_11cxx_lib/inc/clock_11xx.h ****  */
  43:../../lib/lpc11cx4-library/lpc_chip_11cxx_lib/inc/clock_11xx.h **** 
  44:../../lib/lpc11cx4-library/lpc_chip_11cxx_lib/inc/clock_11xx.h **** /** Internal oscillator frequency */
  45:../../lib/lpc11cx4-library/lpc_chip_11cxx_lib/inc/clock_11xx.h **** #define SYSCTL_IRC_FREQ (12000000)
  46:../../lib/lpc11cx4-library/lpc_chip_11cxx_lib/inc/clock_11xx.h **** 
  47:../../lib/lpc11cx4-library/lpc_chip_11cxx_lib/inc/clock_11xx.h **** /**
  48:../../lib/lpc11cx4-library/lpc_chip_11cxx_lib/inc/clock_11xx.h ****  * @brief	Set System PLL divider values
  49:../../lib/lpc11cx4-library/lpc_chip_11cxx_lib/inc/clock_11xx.h ****  * @param	msel    : PLL feedback divider value. M = msel + 1.
  50:../../lib/lpc11cx4-library/lpc_chip_11cxx_lib/inc/clock_11xx.h ****  * @param	psel    : PLL post divider value. P =  (1<<psel).
ARM GAS  /var/folders/z0/6xlwn_996xz3mwq1cgzkbq4r0000gp/T//cc0Pdjko.s 			page 27


  51:../../lib/lpc11cx4-library/lpc_chip_11cxx_lib/inc/clock_11xx.h ****  * @return	Nothing
  52:../../lib/lpc11cx4-library/lpc_chip_11cxx_lib/inc/clock_11xx.h ****  * @note	See the user manual for how to setup the PLL.
  53:../../lib/lpc11cx4-library/lpc_chip_11cxx_lib/inc/clock_11xx.h ****  */
  54:../../lib/lpc11cx4-library/lpc_chip_11cxx_lib/inc/clock_11xx.h **** STATIC INLINE void Chip_Clock_SetupSystemPLL(uint8_t msel, uint8_t psel)
  55:../../lib/lpc11cx4-library/lpc_chip_11cxx_lib/inc/clock_11xx.h **** {
  56:../../lib/lpc11cx4-library/lpc_chip_11cxx_lib/inc/clock_11xx.h **** 	LPC_SYSCTL->SYSPLLCTRL = (msel & 0x1F) | ((psel & 0x3) << 5);
  57:../../lib/lpc11cx4-library/lpc_chip_11cxx_lib/inc/clock_11xx.h **** }
  58:../../lib/lpc11cx4-library/lpc_chip_11cxx_lib/inc/clock_11xx.h **** 
  59:../../lib/lpc11cx4-library/lpc_chip_11cxx_lib/inc/clock_11xx.h **** /**
  60:../../lib/lpc11cx4-library/lpc_chip_11cxx_lib/inc/clock_11xx.h ****  * @brief	Read System PLL lock status
  61:../../lib/lpc11cx4-library/lpc_chip_11cxx_lib/inc/clock_11xx.h ****  * @return	true of the PLL is locked. false if not locked
  62:../../lib/lpc11cx4-library/lpc_chip_11cxx_lib/inc/clock_11xx.h ****  */
  63:../../lib/lpc11cx4-library/lpc_chip_11cxx_lib/inc/clock_11xx.h **** STATIC INLINE bool Chip_Clock_IsSystemPLLLocked(void)
  64:../../lib/lpc11cx4-library/lpc_chip_11cxx_lib/inc/clock_11xx.h **** {
  65:../../lib/lpc11cx4-library/lpc_chip_11cxx_lib/inc/clock_11xx.h **** 	return (bool) ((LPC_SYSCTL->SYSPLLSTAT & 1) != 0);
  66:../../lib/lpc11cx4-library/lpc_chip_11cxx_lib/inc/clock_11xx.h **** }
  67:../../lib/lpc11cx4-library/lpc_chip_11cxx_lib/inc/clock_11xx.h **** 
  68:../../lib/lpc11cx4-library/lpc_chip_11cxx_lib/inc/clock_11xx.h **** /**
  69:../../lib/lpc11cx4-library/lpc_chip_11cxx_lib/inc/clock_11xx.h ****  * Clock sources for system and USB PLLs
  70:../../lib/lpc11cx4-library/lpc_chip_11cxx_lib/inc/clock_11xx.h ****  */
  71:../../lib/lpc11cx4-library/lpc_chip_11cxx_lib/inc/clock_11xx.h **** typedef enum CHIP_SYSCTL_PLLCLKSRC {
  72:../../lib/lpc11cx4-library/lpc_chip_11cxx_lib/inc/clock_11xx.h **** 	SYSCTL_PLLCLKSRC_IRC = 0,		/*!< Internal oscillator in */
  73:../../lib/lpc11cx4-library/lpc_chip_11cxx_lib/inc/clock_11xx.h **** 	SYSCTL_PLLCLKSRC_MAINOSC,		/*!< Crystal (main) oscillator in */
  74:../../lib/lpc11cx4-library/lpc_chip_11cxx_lib/inc/clock_11xx.h **** #if defined(CHIP_LPC11AXX)
  75:../../lib/lpc11cx4-library/lpc_chip_11cxx_lib/inc/clock_11xx.h **** 	SYSCTL_PLLCLKSRC_EXT_CLKIN,	/*!< External clock in (11Axx only) */
  76:../../lib/lpc11cx4-library/lpc_chip_11cxx_lib/inc/clock_11xx.h **** #else
  77:../../lib/lpc11cx4-library/lpc_chip_11cxx_lib/inc/clock_11xx.h **** 	SYSCTL_PLLCLKSRC_RESERVED1,	/*!< Reserved */
  78:../../lib/lpc11cx4-library/lpc_chip_11cxx_lib/inc/clock_11xx.h **** #endif
  79:../../lib/lpc11cx4-library/lpc_chip_11cxx_lib/inc/clock_11xx.h **** 	SYSCTL_PLLCLKSRC_RESERVED2,	/*!< Reserved */
  80:../../lib/lpc11cx4-library/lpc_chip_11cxx_lib/inc/clock_11xx.h **** } CHIP_SYSCTL_PLLCLKSRC_T;
  81:../../lib/lpc11cx4-library/lpc_chip_11cxx_lib/inc/clock_11xx.h **** 
  82:../../lib/lpc11cx4-library/lpc_chip_11cxx_lib/inc/clock_11xx.h **** /**
  83:../../lib/lpc11cx4-library/lpc_chip_11cxx_lib/inc/clock_11xx.h ****  * @brief	Set System PLL clock source
  84:../../lib/lpc11cx4-library/lpc_chip_11cxx_lib/inc/clock_11xx.h ****  * @param	src	: Clock source for system PLL
  85:../../lib/lpc11cx4-library/lpc_chip_11cxx_lib/inc/clock_11xx.h ****  * @return	Nothing
  86:../../lib/lpc11cx4-library/lpc_chip_11cxx_lib/inc/clock_11xx.h ****  * @note	This function will also toggle the clock source update register
  87:../../lib/lpc11cx4-library/lpc_chip_11cxx_lib/inc/clock_11xx.h ****  * to update the clock source.
  88:../../lib/lpc11cx4-library/lpc_chip_11cxx_lib/inc/clock_11xx.h ****  */
  89:../../lib/lpc11cx4-library/lpc_chip_11cxx_lib/inc/clock_11xx.h **** void Chip_Clock_SetSystemPLLSource(CHIP_SYSCTL_PLLCLKSRC_T src);
  90:../../lib/lpc11cx4-library/lpc_chip_11cxx_lib/inc/clock_11xx.h **** 
  91:../../lib/lpc11cx4-library/lpc_chip_11cxx_lib/inc/clock_11xx.h **** #if defined(CHIP_LPC11UXX)
  92:../../lib/lpc11cx4-library/lpc_chip_11cxx_lib/inc/clock_11xx.h **** /**
  93:../../lib/lpc11cx4-library/lpc_chip_11cxx_lib/inc/clock_11xx.h ****  * @brief	Set USB PLL divider values
  94:../../lib/lpc11cx4-library/lpc_chip_11cxx_lib/inc/clock_11xx.h ****  * @param	msel    : PLL feedback divider value. M = msel + 1.
  95:../../lib/lpc11cx4-library/lpc_chip_11cxx_lib/inc/clock_11xx.h ****  * @param	psel    : PLL post divider value. P = (1<<psel).
  96:../../lib/lpc11cx4-library/lpc_chip_11cxx_lib/inc/clock_11xx.h ****  * @return	Nothing
  97:../../lib/lpc11cx4-library/lpc_chip_11cxx_lib/inc/clock_11xx.h ****  * @note	See the user manual for how to setup the PLL.
  98:../../lib/lpc11cx4-library/lpc_chip_11cxx_lib/inc/clock_11xx.h ****  */
  99:../../lib/lpc11cx4-library/lpc_chip_11cxx_lib/inc/clock_11xx.h **** STATIC INLINE void Chip_Clock_SetupUSBPLL(uint8_t msel, uint8_t psel)
 100:../../lib/lpc11cx4-library/lpc_chip_11cxx_lib/inc/clock_11xx.h **** {
 101:../../lib/lpc11cx4-library/lpc_chip_11cxx_lib/inc/clock_11xx.h **** 	LPC_SYSCTL->USBPLLCTRL = (msel & 0x1F) | ((psel & 0x3) << 5);
 102:../../lib/lpc11cx4-library/lpc_chip_11cxx_lib/inc/clock_11xx.h **** }
 103:../../lib/lpc11cx4-library/lpc_chip_11cxx_lib/inc/clock_11xx.h **** 
 104:../../lib/lpc11cx4-library/lpc_chip_11cxx_lib/inc/clock_11xx.h **** /**
 105:../../lib/lpc11cx4-library/lpc_chip_11cxx_lib/inc/clock_11xx.h ****  * @brief	Read USB PLL lock status
 106:../../lib/lpc11cx4-library/lpc_chip_11cxx_lib/inc/clock_11xx.h ****  * @return	true of the PLL is locked. false if not locked
 107:../../lib/lpc11cx4-library/lpc_chip_11cxx_lib/inc/clock_11xx.h ****  */
ARM GAS  /var/folders/z0/6xlwn_996xz3mwq1cgzkbq4r0000gp/T//cc0Pdjko.s 			page 28


 108:../../lib/lpc11cx4-library/lpc_chip_11cxx_lib/inc/clock_11xx.h **** STATIC INLINE bool Chip_Clock_IsUSBPLLLocked(void)
 109:../../lib/lpc11cx4-library/lpc_chip_11cxx_lib/inc/clock_11xx.h **** {
 110:../../lib/lpc11cx4-library/lpc_chip_11cxx_lib/inc/clock_11xx.h **** 	return (bool) ((LPC_SYSCTL->USBPLLSTAT & 1) != 0);
 111:../../lib/lpc11cx4-library/lpc_chip_11cxx_lib/inc/clock_11xx.h **** }
 112:../../lib/lpc11cx4-library/lpc_chip_11cxx_lib/inc/clock_11xx.h **** 
 113:../../lib/lpc11cx4-library/lpc_chip_11cxx_lib/inc/clock_11xx.h **** /**
 114:../../lib/lpc11cx4-library/lpc_chip_11cxx_lib/inc/clock_11xx.h ****  * @brief	Set USB PLL clock source
 115:../../lib/lpc11cx4-library/lpc_chip_11cxx_lib/inc/clock_11xx.h ****  * @param	src	: Clock source for USB PLL
 116:../../lib/lpc11cx4-library/lpc_chip_11cxx_lib/inc/clock_11xx.h ****  * @return	Nothing
 117:../../lib/lpc11cx4-library/lpc_chip_11cxx_lib/inc/clock_11xx.h ****  * @note	This function will also toggle the clock source update register
 118:../../lib/lpc11cx4-library/lpc_chip_11cxx_lib/inc/clock_11xx.h ****  * to update the clock source.
 119:../../lib/lpc11cx4-library/lpc_chip_11cxx_lib/inc/clock_11xx.h ****  */
 120:../../lib/lpc11cx4-library/lpc_chip_11cxx_lib/inc/clock_11xx.h **** void Chip_Clock_SetUSBPLLSource(CHIP_SYSCTL_PLLCLKSRC_T src);
 121:../../lib/lpc11cx4-library/lpc_chip_11cxx_lib/inc/clock_11xx.h **** 
 122:../../lib/lpc11cx4-library/lpc_chip_11cxx_lib/inc/clock_11xx.h **** #endif /*defined(CHIP_LPC11UXX)*/
 123:../../lib/lpc11cx4-library/lpc_chip_11cxx_lib/inc/clock_11xx.h **** 
 124:../../lib/lpc11cx4-library/lpc_chip_11cxx_lib/inc/clock_11xx.h **** /**
 125:../../lib/lpc11cx4-library/lpc_chip_11cxx_lib/inc/clock_11xx.h ****  * @brief	Bypass System Oscillator and set oscillator frequency range
 126:../../lib/lpc11cx4-library/lpc_chip_11cxx_lib/inc/clock_11xx.h ****  * @param	bypass	: Flag to bypass oscillator
 127:../../lib/lpc11cx4-library/lpc_chip_11cxx_lib/inc/clock_11xx.h ****  * @param	highfr	: Flag to set oscillator range from 15-25 MHz
 128:../../lib/lpc11cx4-library/lpc_chip_11cxx_lib/inc/clock_11xx.h ****  * @return	Nothing
 129:../../lib/lpc11cx4-library/lpc_chip_11cxx_lib/inc/clock_11xx.h ****  * @note	Sets the PLL input to bypass the oscillator. This would be
 130:../../lib/lpc11cx4-library/lpc_chip_11cxx_lib/inc/clock_11xx.h ****  * used if an external clock that is not an oscillator is attached
 131:../../lib/lpc11cx4-library/lpc_chip_11cxx_lib/inc/clock_11xx.h ****  * to the XTALIN pin.
 132:../../lib/lpc11cx4-library/lpc_chip_11cxx_lib/inc/clock_11xx.h ****  */
 133:../../lib/lpc11cx4-library/lpc_chip_11cxx_lib/inc/clock_11xx.h **** void Chip_Clock_SetPLLBypass(bool bypass, bool highfr);
 134:../../lib/lpc11cx4-library/lpc_chip_11cxx_lib/inc/clock_11xx.h **** 
 135:../../lib/lpc11cx4-library/lpc_chip_11cxx_lib/inc/clock_11xx.h **** /**
 136:../../lib/lpc11cx4-library/lpc_chip_11cxx_lib/inc/clock_11xx.h ****  * Watchdog and low frequency oscillator frequencies plus or minus 40%
 137:../../lib/lpc11cx4-library/lpc_chip_11cxx_lib/inc/clock_11xx.h ****  */
 138:../../lib/lpc11cx4-library/lpc_chip_11cxx_lib/inc/clock_11xx.h **** typedef enum CHIP_WDTLFO_OSC {
 139:../../lib/lpc11cx4-library/lpc_chip_11cxx_lib/inc/clock_11xx.h **** 	WDTLFO_OSC_ILLEGAL,
 140:../../lib/lpc11cx4-library/lpc_chip_11cxx_lib/inc/clock_11xx.h **** 	WDTLFO_OSC_0_60,	/*!< 0.6 MHz watchdog/LFO rate */
 141:../../lib/lpc11cx4-library/lpc_chip_11cxx_lib/inc/clock_11xx.h **** 	WDTLFO_OSC_1_05,	/*!< 1.05 MHz watchdog/LFO rate */
 142:../../lib/lpc11cx4-library/lpc_chip_11cxx_lib/inc/clock_11xx.h **** 	WDTLFO_OSC_1_40,	/*!< 1.4 MHz watchdog/LFO rate */
 143:../../lib/lpc11cx4-library/lpc_chip_11cxx_lib/inc/clock_11xx.h **** 	WDTLFO_OSC_1_75,	/*!< 1.75 MHz watchdog/LFO rate */
 144:../../lib/lpc11cx4-library/lpc_chip_11cxx_lib/inc/clock_11xx.h **** 	WDTLFO_OSC_2_10,	/*!< 2.1 MHz watchdog/LFO rate */
 145:../../lib/lpc11cx4-library/lpc_chip_11cxx_lib/inc/clock_11xx.h **** 	WDTLFO_OSC_2_40,	/*!< 2.4 MHz watchdog/LFO rate */
 146:../../lib/lpc11cx4-library/lpc_chip_11cxx_lib/inc/clock_11xx.h **** 	WDTLFO_OSC_2_70,	/*!< 2.7 MHz watchdog/LFO rate */
 147:../../lib/lpc11cx4-library/lpc_chip_11cxx_lib/inc/clock_11xx.h **** 	WDTLFO_OSC_3_00,	/*!< 3.0 MHz watchdog/LFO rate */
 148:../../lib/lpc11cx4-library/lpc_chip_11cxx_lib/inc/clock_11xx.h **** 	WDTLFO_OSC_3_25,	/*!< 3.25 MHz watchdog/LFO rate */
 149:../../lib/lpc11cx4-library/lpc_chip_11cxx_lib/inc/clock_11xx.h **** 	WDTLFO_OSC_3_50,	/*!< 3.5 MHz watchdog/LFO rate */
 150:../../lib/lpc11cx4-library/lpc_chip_11cxx_lib/inc/clock_11xx.h **** 	WDTLFO_OSC_3_75,	/*!< 3.75 MHz watchdog/LFO rate */
 151:../../lib/lpc11cx4-library/lpc_chip_11cxx_lib/inc/clock_11xx.h **** 	WDTLFO_OSC_4_00,	/*!< 4.0 MHz watchdog/LFO rate */
 152:../../lib/lpc11cx4-library/lpc_chip_11cxx_lib/inc/clock_11xx.h **** 	WDTLFO_OSC_4_20,	/*!< 4.2 MHz watchdog/LFO rate */
 153:../../lib/lpc11cx4-library/lpc_chip_11cxx_lib/inc/clock_11xx.h **** 	WDTLFO_OSC_4_40,	/*!< 4.4 MHz watchdog/LFO rate */
 154:../../lib/lpc11cx4-library/lpc_chip_11cxx_lib/inc/clock_11xx.h **** 	WDTLFO_OSC_4_60		/*!< 4.6 MHz watchdog/LFO rate */
 155:../../lib/lpc11cx4-library/lpc_chip_11cxx_lib/inc/clock_11xx.h **** } CHIP_WDTLFO_OSC_T;
 156:../../lib/lpc11cx4-library/lpc_chip_11cxx_lib/inc/clock_11xx.h **** 
 157:../../lib/lpc11cx4-library/lpc_chip_11cxx_lib/inc/clock_11xx.h **** /**
 158:../../lib/lpc11cx4-library/lpc_chip_11cxx_lib/inc/clock_11xx.h ****  * @brief	Setup Watchdog oscillator rate and divider
 159:../../lib/lpc11cx4-library/lpc_chip_11cxx_lib/inc/clock_11xx.h ****  * @param	wdtclk	: Selected watchdog clock rate
 160:../../lib/lpc11cx4-library/lpc_chip_11cxx_lib/inc/clock_11xx.h ****  * @param	div		: Watchdog divider value, even value between 2 and 64
 161:../../lib/lpc11cx4-library/lpc_chip_11cxx_lib/inc/clock_11xx.h ****  * @return	Nothing
 162:../../lib/lpc11cx4-library/lpc_chip_11cxx_lib/inc/clock_11xx.h ****  * @note	Watchdog rate = selected rate divided by divider rate
 163:../../lib/lpc11cx4-library/lpc_chip_11cxx_lib/inc/clock_11xx.h ****  */
 164:../../lib/lpc11cx4-library/lpc_chip_11cxx_lib/inc/clock_11xx.h **** STATIC INLINE void Chip_Clock_SetWDTOSC(CHIP_WDTLFO_OSC_T wdtclk, uint8_t div)
ARM GAS  /var/folders/z0/6xlwn_996xz3mwq1cgzkbq4r0000gp/T//cc0Pdjko.s 			page 29


 165:../../lib/lpc11cx4-library/lpc_chip_11cxx_lib/inc/clock_11xx.h **** {
 166:../../lib/lpc11cx4-library/lpc_chip_11cxx_lib/inc/clock_11xx.h **** 	LPC_SYSCTL->WDTOSCCTRL  = (((uint32_t) wdtclk) << 5) | ((div >> 1) - 1);
 167:../../lib/lpc11cx4-library/lpc_chip_11cxx_lib/inc/clock_11xx.h **** }
 168:../../lib/lpc11cx4-library/lpc_chip_11cxx_lib/inc/clock_11xx.h **** 
 169:../../lib/lpc11cx4-library/lpc_chip_11cxx_lib/inc/clock_11xx.h **** #if defined(CHIP_LPC11AXX)
 170:../../lib/lpc11cx4-library/lpc_chip_11cxx_lib/inc/clock_11xx.h **** /**
 171:../../lib/lpc11cx4-library/lpc_chip_11cxx_lib/inc/clock_11xx.h ****  * @brief	Setup low frequency oscillator rate and divider
 172:../../lib/lpc11cx4-library/lpc_chip_11cxx_lib/inc/clock_11xx.h ****  * @param	lfoclk	: Selected low frequency clock rate
 173:../../lib/lpc11cx4-library/lpc_chip_11cxx_lib/inc/clock_11xx.h ****  * @param	div		: Low frequency divider value, even value between 2 and 64
 174:../../lib/lpc11cx4-library/lpc_chip_11cxx_lib/inc/clock_11xx.h ****  * @return	Nothing
 175:../../lib/lpc11cx4-library/lpc_chip_11cxx_lib/inc/clock_11xx.h ****  * @note	Low frequency oscillator rate = selected rate divided by divider rate
 176:../../lib/lpc11cx4-library/lpc_chip_11cxx_lib/inc/clock_11xx.h ****  */
 177:../../lib/lpc11cx4-library/lpc_chip_11cxx_lib/inc/clock_11xx.h **** STATIC INLINE void Chip_Clock_SetLFOSC(CHIP_WDTLFO_OSC_T lfoclk, uint8_t div)
 178:../../lib/lpc11cx4-library/lpc_chip_11cxx_lib/inc/clock_11xx.h **** {
 179:../../lib/lpc11cx4-library/lpc_chip_11cxx_lib/inc/clock_11xx.h **** 	LPC_SYSCTL->LFOSCCTRL  = (((uint32_t) lfoclk) << 5) | ((div >> 1) - 1);
 180:../../lib/lpc11cx4-library/lpc_chip_11cxx_lib/inc/clock_11xx.h **** }
 181:../../lib/lpc11cx4-library/lpc_chip_11cxx_lib/inc/clock_11xx.h **** 
 182:../../lib/lpc11cx4-library/lpc_chip_11cxx_lib/inc/clock_11xx.h **** #endif /*CHIP_LPC11AXX*/
 183:../../lib/lpc11cx4-library/lpc_chip_11cxx_lib/inc/clock_11xx.h **** 
 184:../../lib/lpc11cx4-library/lpc_chip_11cxx_lib/inc/clock_11xx.h **** /**
 185:../../lib/lpc11cx4-library/lpc_chip_11cxx_lib/inc/clock_11xx.h ****  * Clock sources for main system clock
 186:../../lib/lpc11cx4-library/lpc_chip_11cxx_lib/inc/clock_11xx.h ****  */
 187:../../lib/lpc11cx4-library/lpc_chip_11cxx_lib/inc/clock_11xx.h **** typedef enum CHIP_SYSCTL_MAINCLKSRC {
 188:../../lib/lpc11cx4-library/lpc_chip_11cxx_lib/inc/clock_11xx.h **** 	SYSCTL_MAINCLKSRC_IRC = 0,		/*!< Internal oscillator */
 189:../../lib/lpc11cx4-library/lpc_chip_11cxx_lib/inc/clock_11xx.h **** 	SYSCTL_MAINCLKSRC_PLLIN,		/*!< System PLL input */
 190:../../lib/lpc11cx4-library/lpc_chip_11cxx_lib/inc/clock_11xx.h **** 	SYSCTL_MAINCLKSRC_LFOSC,		/*!< LF oscillator rate (11Axx only) */
 191:../../lib/lpc11cx4-library/lpc_chip_11cxx_lib/inc/clock_11xx.h **** 	SYSCTL_MAINCLKSRC_WDTOSC = SYSCTL_MAINCLKSRC_LFOSC,	/*!< Watchdog oscillator rate */
 192:../../lib/lpc11cx4-library/lpc_chip_11cxx_lib/inc/clock_11xx.h **** 	SYSCTL_MAINCLKSRC_PLLOUT,		/*!< System PLL output */
 193:../../lib/lpc11cx4-library/lpc_chip_11cxx_lib/inc/clock_11xx.h **** } CHIP_SYSCTL_MAINCLKSRC_T;
 194:../../lib/lpc11cx4-library/lpc_chip_11cxx_lib/inc/clock_11xx.h **** 
 195:../../lib/lpc11cx4-library/lpc_chip_11cxx_lib/inc/clock_11xx.h **** /**
 196:../../lib/lpc11cx4-library/lpc_chip_11cxx_lib/inc/clock_11xx.h ****  * @brief	Set main system clock source
 197:../../lib/lpc11cx4-library/lpc_chip_11cxx_lib/inc/clock_11xx.h ****  * @param	src	: Clock source for main system
 198:../../lib/lpc11cx4-library/lpc_chip_11cxx_lib/inc/clock_11xx.h ****  * @return	Nothing
 199:../../lib/lpc11cx4-library/lpc_chip_11cxx_lib/inc/clock_11xx.h ****  * @note	This function will also toggle the clock source update register
 200:../../lib/lpc11cx4-library/lpc_chip_11cxx_lib/inc/clock_11xx.h ****  * to update the clock source.
 201:../../lib/lpc11cx4-library/lpc_chip_11cxx_lib/inc/clock_11xx.h ****  */
 202:../../lib/lpc11cx4-library/lpc_chip_11cxx_lib/inc/clock_11xx.h **** void Chip_Clock_SetMainClockSource(CHIP_SYSCTL_MAINCLKSRC_T src);
 203:../../lib/lpc11cx4-library/lpc_chip_11cxx_lib/inc/clock_11xx.h **** 
 204:../../lib/lpc11cx4-library/lpc_chip_11cxx_lib/inc/clock_11xx.h **** /**
 205:../../lib/lpc11cx4-library/lpc_chip_11cxx_lib/inc/clock_11xx.h ****  * @brief   Returns the main clock source
 206:../../lib/lpc11cx4-library/lpc_chip_11cxx_lib/inc/clock_11xx.h ****  * @return	Which clock is used for the core clock source?
 207:../../lib/lpc11cx4-library/lpc_chip_11cxx_lib/inc/clock_11xx.h ****  */
 208:../../lib/lpc11cx4-library/lpc_chip_11cxx_lib/inc/clock_11xx.h **** STATIC INLINE CHIP_SYSCTL_MAINCLKSRC_T Chip_Clock_GetMainClockSource(void)
 209:../../lib/lpc11cx4-library/lpc_chip_11cxx_lib/inc/clock_11xx.h **** {
 210:../../lib/lpc11cx4-library/lpc_chip_11cxx_lib/inc/clock_11xx.h **** 	return (CHIP_SYSCTL_MAINCLKSRC_T) (LPC_SYSCTL->MAINCLKSEL);
 211:../../lib/lpc11cx4-library/lpc_chip_11cxx_lib/inc/clock_11xx.h **** }
 212:../../lib/lpc11cx4-library/lpc_chip_11cxx_lib/inc/clock_11xx.h **** 
 213:../../lib/lpc11cx4-library/lpc_chip_11cxx_lib/inc/clock_11xx.h **** /**
 214:../../lib/lpc11cx4-library/lpc_chip_11cxx_lib/inc/clock_11xx.h ****  * @brief	Set system clock divider
 215:../../lib/lpc11cx4-library/lpc_chip_11cxx_lib/inc/clock_11xx.h ****  * @param	div	: divider for system clock
 216:../../lib/lpc11cx4-library/lpc_chip_11cxx_lib/inc/clock_11xx.h ****  * @return	Nothing
 217:../../lib/lpc11cx4-library/lpc_chip_11cxx_lib/inc/clock_11xx.h ****  * @note	Use 0 to disable, or a divider value of 1 to 255. The system clock
 218:../../lib/lpc11cx4-library/lpc_chip_11cxx_lib/inc/clock_11xx.h ****  * rate is the main system clock divided by this value.
 219:../../lib/lpc11cx4-library/lpc_chip_11cxx_lib/inc/clock_11xx.h ****  */
 220:../../lib/lpc11cx4-library/lpc_chip_11cxx_lib/inc/clock_11xx.h **** STATIC INLINE void Chip_Clock_SetSysClockDiv(uint32_t div)
 221:../../lib/lpc11cx4-library/lpc_chip_11cxx_lib/inc/clock_11xx.h **** {
ARM GAS  /var/folders/z0/6xlwn_996xz3mwq1cgzkbq4r0000gp/T//cc0Pdjko.s 			page 30


 222:../../lib/lpc11cx4-library/lpc_chip_11cxx_lib/inc/clock_11xx.h **** 	LPC_SYSCTL->SYSAHBCLKDIV  = div;
 223:../../lib/lpc11cx4-library/lpc_chip_11cxx_lib/inc/clock_11xx.h **** }
 224:../../lib/lpc11cx4-library/lpc_chip_11cxx_lib/inc/clock_11xx.h **** 
 225:../../lib/lpc11cx4-library/lpc_chip_11cxx_lib/inc/clock_11xx.h **** /**
 226:../../lib/lpc11cx4-library/lpc_chip_11cxx_lib/inc/clock_11xx.h ****  * System and peripheral clocks
 227:../../lib/lpc11cx4-library/lpc_chip_11cxx_lib/inc/clock_11xx.h ****  */
 228:../../lib/lpc11cx4-library/lpc_chip_11cxx_lib/inc/clock_11xx.h **** typedef enum CHIP_SYSCTL_CLOCK {
 229:../../lib/lpc11cx4-library/lpc_chip_11cxx_lib/inc/clock_11xx.h **** 	SYSCTL_CLOCK_SYS = 0,				/*!< 0: System clock */
 230:../../lib/lpc11cx4-library/lpc_chip_11cxx_lib/inc/clock_11xx.h **** 	SYSCTL_CLOCK_ROM,					/*!<1:  ROM clock */
 231:../../lib/lpc11cx4-library/lpc_chip_11cxx_lib/inc/clock_11xx.h **** 	SYSCTL_CLOCK_RAM,					/*!< 2: RAM clock */
 232:../../lib/lpc11cx4-library/lpc_chip_11cxx_lib/inc/clock_11xx.h **** 	SYSCTL_CLOCK_FLASHREG,				/*!< 3: FLASH register interface clock */
 233:../../lib/lpc11cx4-library/lpc_chip_11cxx_lib/inc/clock_11xx.h **** 	SYSCTL_CLOCK_FLASHARRAY,			/*!< 4: FLASH array access clock */
 234:../../lib/lpc11cx4-library/lpc_chip_11cxx_lib/inc/clock_11xx.h **** #if defined(CHIP_LPC110X)
 235:../../lib/lpc11cx4-library/lpc_chip_11cxx_lib/inc/clock_11xx.h **** 	SYSCTL_CLOCK_RESERVED5,				/*!< 5: Reserved */
 236:../../lib/lpc11cx4-library/lpc_chip_11cxx_lib/inc/clock_11xx.h **** #else
 237:../../lib/lpc11cx4-library/lpc_chip_11cxx_lib/inc/clock_11xx.h **** 	SYSCTL_CLOCK_I2C,					/*!< 5: I2C clock, not on LPC110x */
 238:../../lib/lpc11cx4-library/lpc_chip_11cxx_lib/inc/clock_11xx.h **** #endif
 239:../../lib/lpc11cx4-library/lpc_chip_11cxx_lib/inc/clock_11xx.h **** 	SYSCTL_CLOCK_GPIO,					/*!< 6: GPIO clock */
 240:../../lib/lpc11cx4-library/lpc_chip_11cxx_lib/inc/clock_11xx.h **** 	SYSCTL_CLOCK_CT16B0,				/*!< 7: 16-bit Counter/timer 0 clock */
 241:../../lib/lpc11cx4-library/lpc_chip_11cxx_lib/inc/clock_11xx.h **** 	SYSCTL_CLOCK_CT16B1,				/*!< 8: 16-bit Counter/timer 1 clock */
 242:../../lib/lpc11cx4-library/lpc_chip_11cxx_lib/inc/clock_11xx.h **** 	SYSCTL_CLOCK_CT32B0,				/*!< 9: 32-bit Counter/timer 0 clock */
 243:../../lib/lpc11cx4-library/lpc_chip_11cxx_lib/inc/clock_11xx.h **** 	SYSCTL_CLOCK_CT32B1,				/*!< 10: 32-bit Counter/timer 1 clock */
 244:../../lib/lpc11cx4-library/lpc_chip_11cxx_lib/inc/clock_11xx.h **** 	SYSCTL_CLOCK_SSP0,					/*!< 11: SSP0 clock */
 245:../../lib/lpc11cx4-library/lpc_chip_11cxx_lib/inc/clock_11xx.h **** 	SYSCTL_CLOCK_UART0,					/*!< 12: UART0 clock */
 246:../../lib/lpc11cx4-library/lpc_chip_11cxx_lib/inc/clock_11xx.h **** 	SYSCTL_CLOCK_ADC,					/*!< 13: ADC clock */
 247:../../lib/lpc11cx4-library/lpc_chip_11cxx_lib/inc/clock_11xx.h **** #if defined(CHIP_LPC11UXX)
 248:../../lib/lpc11cx4-library/lpc_chip_11cxx_lib/inc/clock_11xx.h **** 	SYSCTL_CLOCK_USB,					/*!< 14: USB clock, LPC11Uxx only */
 249:../../lib/lpc11cx4-library/lpc_chip_11cxx_lib/inc/clock_11xx.h **** #else
 250:../../lib/lpc11cx4-library/lpc_chip_11cxx_lib/inc/clock_11xx.h **** 	SYSCTL_CLOCK_RESERVED14,			/*!< 14: Reserved */
 251:../../lib/lpc11cx4-library/lpc_chip_11cxx_lib/inc/clock_11xx.h **** #endif
 252:../../lib/lpc11cx4-library/lpc_chip_11cxx_lib/inc/clock_11xx.h **** 	SYSCTL_CLOCK_WDT,					/*!< 15: Watchdog timer clock */
 253:../../lib/lpc11cx4-library/lpc_chip_11cxx_lib/inc/clock_11xx.h **** 	SYSCTL_CLOCK_IOCON,					/*!< 16: IOCON block clock */
 254:../../lib/lpc11cx4-library/lpc_chip_11cxx_lib/inc/clock_11xx.h **** #if defined(CHIP_LPC11CXX)
 255:../../lib/lpc11cx4-library/lpc_chip_11cxx_lib/inc/clock_11xx.h **** 	SYSCTL_CLOCK_CAN,					/*!< 17: CAN clock, LPC11Cxx only */
 256:../../lib/lpc11cx4-library/lpc_chip_11cxx_lib/inc/clock_11xx.h **** #else
 257:../../lib/lpc11cx4-library/lpc_chip_11cxx_lib/inc/clock_11xx.h **** 	SYSCTL_CLOCK_RESERVED17,			/*!< 17: Reserved */
 258:../../lib/lpc11cx4-library/lpc_chip_11cxx_lib/inc/clock_11xx.h **** #endif
 259:../../lib/lpc11cx4-library/lpc_chip_11cxx_lib/inc/clock_11xx.h **** #if !(defined(CHIP_LPC110X) || defined(CHIP_LPC11XXLV))  
 260:../../lib/lpc11cx4-library/lpc_chip_11cxx_lib/inc/clock_11xx.h **** 	SYSCTL_CLOCK_SSP1,					/*!< 18: SSP1 clock, LPC11A/C/E/Uxx//1125 only */
 261:../../lib/lpc11cx4-library/lpc_chip_11cxx_lib/inc/clock_11xx.h **** #if !defined(CHIP_LPC11CXX)
 262:../../lib/lpc11cx4-library/lpc_chip_11cxx_lib/inc/clock_11xx.h **** 	SYSCTL_CLOCK_PINT,					/*!< 19: GPIO Pin int register interface clock, LPC11A/E/Uxx only */
 263:../../lib/lpc11cx4-library/lpc_chip_11cxx_lib/inc/clock_11xx.h **** #if defined(CHIP_LPC11AXX)
 264:../../lib/lpc11cx4-library/lpc_chip_11cxx_lib/inc/clock_11xx.h **** 	SYSCTL_CLOCK_ACOMP,					/*!< 20: Analog comparator clock, LPC11Axx only */
 265:../../lib/lpc11cx4-library/lpc_chip_11cxx_lib/inc/clock_11xx.h **** 	SYSCTL_CLOCK_DAC,					/*!< 21: DAC clock, LPC11Axx only */
 266:../../lib/lpc11cx4-library/lpc_chip_11cxx_lib/inc/clock_11xx.h **** #else
 267:../../lib/lpc11cx4-library/lpc_chip_11cxx_lib/inc/clock_11xx.h **** 	SYSCTL_CLOCK_RESERVED20,			/*!< 20: Reserved */
 268:../../lib/lpc11cx4-library/lpc_chip_11cxx_lib/inc/clock_11xx.h **** 	SYSCTL_CLOCK_RESERVED21,			/*!< 21: Reserved */
 269:../../lib/lpc11cx4-library/lpc_chip_11cxx_lib/inc/clock_11xx.h **** #endif
 270:../../lib/lpc11cx4-library/lpc_chip_11cxx_lib/inc/clock_11xx.h **** 	SYSCTL_CLOCK_RESERVED22,			/*!< 22: Reserved */
 271:../../lib/lpc11cx4-library/lpc_chip_11cxx_lib/inc/clock_11xx.h **** 	SYSCTL_CLOCK_P0INT,					/*!< 23: GPIO GROUP1 interrupt register clock, LPC11Axx only */
 272:../../lib/lpc11cx4-library/lpc_chip_11cxx_lib/inc/clock_11xx.h **** 	SYSCTL_CLOCK_GROUP0INT = SYSCTL_CLOCK_P0INT,/*!< 23: GPIO GROUP0 interrupt register interface cloc
 273:../../lib/lpc11cx4-library/lpc_chip_11cxx_lib/inc/clock_11xx.h **** 	SYSCTL_CLOCK_P1INT,					/*!< 24: GPIO GROUP1 interrupt register clock, LPC11Axx only */
 274:../../lib/lpc11cx4-library/lpc_chip_11cxx_lib/inc/clock_11xx.h **** 	SYSCTL_CLOCK_GROUP1INT = SYSCTL_CLOCK_P1INT,/*!< 24: GPIO GROUP1 interrupt register interface cloc
 275:../../lib/lpc11cx4-library/lpc_chip_11cxx_lib/inc/clock_11xx.h **** 	SYSCTL_CLOCK_RESERVED25,			/*!< 25: Reserved */
 276:../../lib/lpc11cx4-library/lpc_chip_11cxx_lib/inc/clock_11xx.h **** #if defined(CHIP_LPC11EXX)  || defined(CHIP_LPC11UXX)
 277:../../lib/lpc11cx4-library/lpc_chip_11cxx_lib/inc/clock_11xx.h **** 	SYSCTL_CLOCK_RAM1,					/*!< 26: SRAM block (0x20000000) clock, LPC11E/Uxx only */
 278:../../lib/lpc11cx4-library/lpc_chip_11cxx_lib/inc/clock_11xx.h **** #else
ARM GAS  /var/folders/z0/6xlwn_996xz3mwq1cgzkbq4r0000gp/T//cc0Pdjko.s 			page 31


 279:../../lib/lpc11cx4-library/lpc_chip_11cxx_lib/inc/clock_11xx.h **** 	SYSCTL_CLOCK_RESERVED26,			/*!< 26: Reserved */
 280:../../lib/lpc11cx4-library/lpc_chip_11cxx_lib/inc/clock_11xx.h **** #endif
 281:../../lib/lpc11cx4-library/lpc_chip_11cxx_lib/inc/clock_11xx.h **** #if defined(CHIP_LPC11UXX)
 282:../../lib/lpc11cx4-library/lpc_chip_11cxx_lib/inc/clock_11xx.h **** 	SYSCTL_CLOCK_USBRAM,				/*!< 27: USB SRAM block clock, LPC11Uxx only */
 283:../../lib/lpc11cx4-library/lpc_chip_11cxx_lib/inc/clock_11xx.h **** #else
 284:../../lib/lpc11cx4-library/lpc_chip_11cxx_lib/inc/clock_11xx.h **** 	SYSCTL_CLOCK_RESERVED27,			/*!< 27: Reserved */
 285:../../lib/lpc11cx4-library/lpc_chip_11cxx_lib/inc/clock_11xx.h **** #endif
 286:../../lib/lpc11cx4-library/lpc_chip_11cxx_lib/inc/clock_11xx.h **** #endif /* !defined(CHIP_LPC11CXX) */
 287:../../lib/lpc11cx4-library/lpc_chip_11cxx_lib/inc/clock_11xx.h **** #endif /* !(defined(CHIP_LPC110X) || defined(CHIP_LPC11XXLV)) */
 288:../../lib/lpc11cx4-library/lpc_chip_11cxx_lib/inc/clock_11xx.h **** } CHIP_SYSCTL_CLOCK_T;
 289:../../lib/lpc11cx4-library/lpc_chip_11cxx_lib/inc/clock_11xx.h **** 
 290:../../lib/lpc11cx4-library/lpc_chip_11cxx_lib/inc/clock_11xx.h **** /**
 291:../../lib/lpc11cx4-library/lpc_chip_11cxx_lib/inc/clock_11xx.h ****  * @brief	Enable a system or peripheral clock
 292:../../lib/lpc11cx4-library/lpc_chip_11cxx_lib/inc/clock_11xx.h ****  * @param	clk	: Clock to enable
 293:../../lib/lpc11cx4-library/lpc_chip_11cxx_lib/inc/clock_11xx.h ****  * @return	Nothing
 294:../../lib/lpc11cx4-library/lpc_chip_11cxx_lib/inc/clock_11xx.h ****  */
 295:../../lib/lpc11cx4-library/lpc_chip_11cxx_lib/inc/clock_11xx.h **** STATIC INLINE void Chip_Clock_EnablePeriphClock(CHIP_SYSCTL_CLOCK_T clk)
 296:../../lib/lpc11cx4-library/lpc_chip_11cxx_lib/inc/clock_11xx.h **** {
 297:../../lib/lpc11cx4-library/lpc_chip_11cxx_lib/inc/clock_11xx.h **** 	LPC_SYSCTL->SYSAHBCLKCTRL |= (1 << clk);
 934              		.loc 2 297 0
 935 001c 2023     		movs	r3, #32	@ tmp130,
 936 001e 0648     		ldr	r0, .L101+8	@ tmp128,
 937              	.LVL56:
 938 0020 8032     		adds	r2, r2, #128	@ tmp129,
 939 0022 8458     		ldr	r4, [r0, r2]	@ D.6861, MEM[(struct LPC_SYSCTL_T *)1074036736B].SYSAHBCLKCTRL
 940              	.LBE89:
 941              	.LBE88:
 942              	.LBE87:
 378:../../lib/lpc11cx4-library/lpc_chip_11cxx_lib/src/i2c_11xx.c **** 
 379:../../lib/lpc11cx4-library/lpc_chip_11cxx_lib/src/i2c_11xx.c **** 
 380:../../lib/lpc11cx4-library/lpc_chip_11cxx_lib/src/i2c_11xx.c **** 	enableClk(id);
 381:../../lib/lpc11cx4-library/lpc_chip_11cxx_lib/src/i2c_11xx.c **** 
 382:../../lib/lpc11cx4-library/lpc_chip_11cxx_lib/src/i2c_11xx.c **** 	/* Set I2C operation to default */
 383:../../lib/lpc11cx4-library/lpc_chip_11cxx_lib/src/i2c_11xx.c **** 	LPC_I2Cx(id)->CONCLR = (I2C_CON_AA | I2C_CON_SI | I2C_CON_STA | I2C_CON_I2EN);
 384:../../lib/lpc11cx4-library/lpc_chip_11cxx_lib/src/i2c_11xx.c **** }
 943              		.loc 1 384 0
 944              		@ sp needed	@
 945              	.LBB92:
 946              	.LBB91:
 947              	.LBB90:
 948              		.loc 2 297 0
 949 0024 2343     		orrs	r3, r4	@ D.6861, D.6861
 950 0026 8350     		str	r3, [r0, r2]	@ D.6861, MEM[(struct LPC_SYSCTL_T *)1074036736B].SYSAHBCLKCTRL
 951              	.LVL57:
 952              	.LBE90:
 953              	.LBE91:
 954              	.LBE92:
 383:../../lib/lpc11cx4-library/lpc_chip_11cxx_lib/src/i2c_11xx.c **** }
 955              		.loc 1 383 0
 956 0028 6C23     		movs	r3, #108	@ tmp134,
 957 002a 8B61     		str	r3, [r1, #24]	@ tmp134, MEM[(struct LPC_I2C_T *)1073741824B].CONCLR
 958              		.loc 1 384 0
 959 002c 10BD     		pop	{r4, pc}
 960              	.L102:
 961 002e C046     		.align	2
 962              	.L101:
 963 0030 00000000 		.word	.LANCHOR0
ARM GAS  /var/folders/z0/6xlwn_996xz3mwq1cgzkbq4r0000gp/T//cc0Pdjko.s 			page 32


 964 0034 00000000 		.word	Chip_I2C_EventHandler
 965 0038 00800440 		.word	1074036736
 966              		.cfi_endproc
 967              	.LFE214:
 968              		.size	Chip_I2C_Init, .-Chip_I2C_Init
 969              		.section	.text.Chip_I2C_DeInit,"ax",%progbits
 970              		.align	2
 971              		.global	Chip_I2C_DeInit
 972              		.code	16
 973              		.thumb_func
 974              		.type	Chip_I2C_DeInit, %function
 975              	Chip_I2C_DeInit:
 976              	.LFB215:
 385:../../lib/lpc11cx4-library/lpc_chip_11cxx_lib/src/i2c_11xx.c **** 
 386:../../lib/lpc11cx4-library/lpc_chip_11cxx_lib/src/i2c_11xx.c **** /* De-initializes the I2C peripheral registers to their default reset values */
 387:../../lib/lpc11cx4-library/lpc_chip_11cxx_lib/src/i2c_11xx.c **** void Chip_I2C_DeInit(I2C_ID_T id)
 388:../../lib/lpc11cx4-library/lpc_chip_11cxx_lib/src/i2c_11xx.c **** {
 977              		.loc 1 388 0
 978              		.cfi_startproc
 979              		@ args = 0, pretend = 0, frame = 0
 980              		@ frame_needed = 0, uses_anonymous_args = 0
 981              	.LVL58:
 389:../../lib/lpc11cx4-library/lpc_chip_11cxx_lib/src/i2c_11xx.c **** 	/* Disable I2C control */
 390:../../lib/lpc11cx4-library/lpc_chip_11cxx_lib/src/i2c_11xx.c **** 	LPC_I2Cx(id)->CONCLR = I2C_CON_I2EN | I2C_CON_SI | I2C_CON_STO | I2C_CON_STA | I2C_CON_AA;
 982              		.loc 1 390 0
 983 0000 7C21     		movs	r1, #124	@ tmp120,
 388:../../lib/lpc11cx4-library/lpc_chip_11cxx_lib/src/i2c_11xx.c **** 	/* Disable I2C control */
 984              		.loc 1 388 0
 985 0002 10B5     		push	{r4, lr}	@
 986              		.cfi_def_cfa_offset 8
 987              		.cfi_offset 4, -8
 988              		.cfi_offset 14, -4
 989              		.loc 1 390 0
 990 0004 054A     		ldr	r2, .L104	@ tmp119,
 991              	.LBB93:
 992              	.LBB94:
 993              	.LBB95:
 994              	.LBB96:
 298:../../lib/lpc11cx4-library/lpc_chip_11cxx_lib/inc/clock_11xx.h **** }
 299:../../lib/lpc11cx4-library/lpc_chip_11cxx_lib/inc/clock_11xx.h **** 
 300:../../lib/lpc11cx4-library/lpc_chip_11cxx_lib/inc/clock_11xx.h **** /**
 301:../../lib/lpc11cx4-library/lpc_chip_11cxx_lib/inc/clock_11xx.h ****  * @brief	Disable a system or peripheral clock
 302:../../lib/lpc11cx4-library/lpc_chip_11cxx_lib/inc/clock_11xx.h ****  * @param	clk	: Clock to disable
 303:../../lib/lpc11cx4-library/lpc_chip_11cxx_lib/inc/clock_11xx.h ****  * @return	Nothing
 304:../../lib/lpc11cx4-library/lpc_chip_11cxx_lib/inc/clock_11xx.h ****  */
 305:../../lib/lpc11cx4-library/lpc_chip_11cxx_lib/inc/clock_11xx.h **** STATIC INLINE void Chip_Clock_DisablePeriphClock(CHIP_SYSCTL_CLOCK_T clk)
 306:../../lib/lpc11cx4-library/lpc_chip_11cxx_lib/inc/clock_11xx.h **** {
 307:../../lib/lpc11cx4-library/lpc_chip_11cxx_lib/inc/clock_11xx.h **** 	LPC_SYSCTL->SYSAHBCLKCTRL &= ~(1 << clk);
 995              		.loc 2 307 0
 996 0006 0648     		ldr	r0, .L104+4	@ tmp121,
 997              	.LVL59:
 998              	.LBE96:
 999              	.LBE95:
 1000              	.LBE94:
 1001              	.LBE93:
 1002              		.loc 1 390 0
 1003 0008 1368     		ldr	r3, [r2]	@ D.6865, i2c.ip
ARM GAS  /var/folders/z0/6xlwn_996xz3mwq1cgzkbq4r0000gp/T//cc0Pdjko.s 			page 33


 391:../../lib/lpc11cx4-library/lpc_chip_11cxx_lib/src/i2c_11xx.c **** 
 392:../../lib/lpc11cx4-library/lpc_chip_11cxx_lib/src/i2c_11xx.c **** 	disableClk(id);
 393:../../lib/lpc11cx4-library/lpc_chip_11cxx_lib/src/i2c_11xx.c **** }
 1004              		.loc 1 393 0
 1005              		@ sp needed	@
 390:../../lib/lpc11cx4-library/lpc_chip_11cxx_lib/src/i2c_11xx.c **** 
 1006              		.loc 1 390 0
 1007 000a 9961     		str	r1, [r3, #24]	@ tmp120, _2->CONCLR
 1008              	.LVL60:
 1009              	.LBB100:
 1010              	.LBB99:
 1011              	.LBB98:
 1012              	.LBB97:
 1013              		.loc 2 307 0
 1014 000c 1479     		ldrb	r4, [r2, #4]	@ D.6868,
 1015 000e 0122     		movs	r2, #1	@ tmp126,
 1016 0010 A240     		lsls	r2, r2, r4	@ D.6868, tmp126, D.6868
 1017 0012 0431     		adds	r1, r1, #4	@ tmp122,
 1018 0014 4358     		ldr	r3, [r0, r1]	@ D.6867, MEM[(struct LPC_SYSCTL_T *)1074036736B].SYSAHBCLKCTRL
 1019 0016 9343     		bics	r3, r2	@ D.6867, D.6868
 1020 0018 4350     		str	r3, [r0, r1]	@ D.6867, MEM[(struct LPC_SYSCTL_T *)1074036736B].SYSAHBCLKCTRL
 1021              	.LVL61:
 1022              	.LBE97:
 1023              	.LBE98:
 1024              	.LBE99:
 1025              	.LBE100:
 1026              		.loc 1 393 0
 1027 001a 10BD     		pop	{r4, pc}
 1028              	.L105:
 1029              		.align	2
 1030              	.L104:
 1031 001c 00000000 		.word	.LANCHOR0
 1032 0020 00800440 		.word	1074036736
 1033              		.cfi_endproc
 1034              	.LFE215:
 1035              		.size	Chip_I2C_DeInit, .-Chip_I2C_DeInit
 1036              		.global	__aeabi_uidiv
 1037              		.section	.text.Chip_I2C_SetClockRate,"ax",%progbits
 1038              		.align	2
 1039              		.global	Chip_I2C_SetClockRate
 1040              		.code	16
 1041              		.thumb_func
 1042              		.type	Chip_I2C_SetClockRate, %function
 1043              	Chip_I2C_SetClockRate:
 1044              	.LFB216:
 394:../../lib/lpc11cx4-library/lpc_chip_11cxx_lib/src/i2c_11xx.c **** 
 395:../../lib/lpc11cx4-library/lpc_chip_11cxx_lib/src/i2c_11xx.c **** /* Set up clock rate for LPC_I2C peripheral */
 396:../../lib/lpc11cx4-library/lpc_chip_11cxx_lib/src/i2c_11xx.c **** void Chip_I2C_SetClockRate(I2C_ID_T id, uint32_t clockrate)
 397:../../lib/lpc11cx4-library/lpc_chip_11cxx_lib/src/i2c_11xx.c **** {
 1045              		.loc 1 397 0
 1046              		.cfi_startproc
 1047              		@ args = 0, pretend = 0, frame = 0
 1048              		@ frame_needed = 0, uses_anonymous_args = 0
 1049              	.LVL62:
 398:../../lib/lpc11cx4-library/lpc_chip_11cxx_lib/src/i2c_11xx.c **** 	UNUSED(id);
 399:../../lib/lpc11cx4-library/lpc_chip_11cxx_lib/src/i2c_11xx.c **** 	uint32_t SCLValue;
 400:../../lib/lpc11cx4-library/lpc_chip_11cxx_lib/src/i2c_11xx.c **** 
ARM GAS  /var/folders/z0/6xlwn_996xz3mwq1cgzkbq4r0000gp/T//cc0Pdjko.s 			page 34


 401:../../lib/lpc11cx4-library/lpc_chip_11cxx_lib/src/i2c_11xx.c **** 	SCLValue = (getClkRate() / clockrate);
 1050              		.loc 1 401 0
 1051 0000 064B     		ldr	r3, .L107	@ tmp118,
 397:../../lib/lpc11cx4-library/lpc_chip_11cxx_lib/src/i2c_11xx.c **** 	UNUSED(id);
 1052              		.loc 1 397 0
 1053 0002 10B5     		push	{r4, lr}	@
 1054              		.cfi_def_cfa_offset 8
 1055              		.cfi_offset 4, -8
 1056              		.cfi_offset 14, -4
 1057              		.loc 1 401 0
 1058 0004 1868     		ldr	r0, [r3]	@, SystemCoreClock
 1059              	.LVL63:
 1060 0006 FFF7FEFF 		bl	__aeabi_uidiv	@
 1061              	.LVL64:
 402:../../lib/lpc11cx4-library/lpc_chip_11cxx_lib/src/i2c_11xx.c **** 	LPC_I2Cx(id)->SCLH = (uint32_t) (SCLValue >> 1);
 1062              		.loc 1 402 0
 1063 000a 054B     		ldr	r3, .L107+4	@ tmp122,
 1064 000c 4208     		lsrs	r2, r0, #1	@ D.6874, tmp121,
 1065 000e 1B68     		ldr	r3, [r3]	@ D.6873, i2c.ip
 403:../../lib/lpc11cx4-library/lpc_chip_11cxx_lib/src/i2c_11xx.c **** 	LPC_I2Cx(id)->SCLL = (uint32_t) (SCLValue - LPC_I2Cx(id)->SCLH);
 404:../../lib/lpc11cx4-library/lpc_chip_11cxx_lib/src/i2c_11xx.c **** }
 1066              		.loc 1 404 0
 1067              		@ sp needed	@
 402:../../lib/lpc11cx4-library/lpc_chip_11cxx_lib/src/i2c_11xx.c **** 	LPC_I2Cx(id)->SCLH = (uint32_t) (SCLValue >> 1);
 1068              		.loc 1 402 0
 1069 0010 1A61     		str	r2, [r3, #16]	@ D.6874, _5->SCLH
 403:../../lib/lpc11cx4-library/lpc_chip_11cxx_lib/src/i2c_11xx.c **** 	LPC_I2Cx(id)->SCLL = (uint32_t) (SCLValue - LPC_I2Cx(id)->SCLH);
 1070              		.loc 1 403 0
 1071 0012 1A69     		ldr	r2, [r3, #16]	@ D.6874, _5->SCLH
 1072 0014 801A     		subs	r0, r0, r2	@ D.6874, tmp121, D.6874
 1073              	.LVL65:
 1074 0016 5861     		str	r0, [r3, #20]	@ D.6874, _5->SCLL
 1075              		.loc 1 404 0
 1076 0018 10BD     		pop	{r4, pc}
 1077              	.L108:
 1078 001a C046     		.align	2
 1079              	.L107:
 1080 001c 00000000 		.word	SystemCoreClock
 1081 0020 00000000 		.word	.LANCHOR0
 1082              		.cfi_endproc
 1083              	.LFE216:
 1084              		.size	Chip_I2C_SetClockRate, .-Chip_I2C_SetClockRate
 1085              		.section	.text.Chip_I2C_GetClockRate,"ax",%progbits
 1086              		.align	2
 1087              		.global	Chip_I2C_GetClockRate
 1088              		.code	16
 1089              		.thumb_func
 1090              		.type	Chip_I2C_GetClockRate, %function
 1091              	Chip_I2C_GetClockRate:
 1092              	.LFB217:
 405:../../lib/lpc11cx4-library/lpc_chip_11cxx_lib/src/i2c_11xx.c **** 
 406:../../lib/lpc11cx4-library/lpc_chip_11cxx_lib/src/i2c_11xx.c **** /* Get current clock rate for LPC_I2C peripheral */
 407:../../lib/lpc11cx4-library/lpc_chip_11cxx_lib/src/i2c_11xx.c **** uint32_t Chip_I2C_GetClockRate(I2C_ID_T id)
 408:../../lib/lpc11cx4-library/lpc_chip_11cxx_lib/src/i2c_11xx.c **** {
 1093              		.loc 1 408 0
 1094              		.cfi_startproc
 1095              		@ args = 0, pretend = 0, frame = 0
ARM GAS  /var/folders/z0/6xlwn_996xz3mwq1cgzkbq4r0000gp/T//cc0Pdjko.s 			page 35


 1096              		@ frame_needed = 0, uses_anonymous_args = 0
 1097              	.LVL66:
 409:../../lib/lpc11cx4-library/lpc_chip_11cxx_lib/src/i2c_11xx.c **** 	UNUSED(id);
 410:../../lib/lpc11cx4-library/lpc_chip_11cxx_lib/src/i2c_11xx.c **** 	return getClkRate() / (LPC_I2Cx(id)->SCLH + LPC_I2Cx(id)->SCLL);
 1098              		.loc 1 410 0
 1099 0000 054B     		ldr	r3, .L110	@ tmp118,
 408:../../lib/lpc11cx4-library/lpc_chip_11cxx_lib/src/i2c_11xx.c **** 	UNUSED(id);
 1100              		.loc 1 408 0
 1101 0002 10B5     		push	{r4, lr}	@
 1102              		.cfi_def_cfa_offset 8
 1103              		.cfi_offset 4, -8
 1104              		.cfi_offset 14, -4
 1105              		.loc 1 410 0
 1106 0004 1B68     		ldr	r3, [r3]	@ D.6879, i2c.ip
 411:../../lib/lpc11cx4-library/lpc_chip_11cxx_lib/src/i2c_11xx.c **** }
 1107              		.loc 1 411 0
 1108              		@ sp needed	@
 410:../../lib/lpc11cx4-library/lpc_chip_11cxx_lib/src/i2c_11xx.c **** }
 1109              		.loc 1 410 0
 1110 0006 1969     		ldr	r1, [r3, #16]	@ D.6880, _3->SCLH
 1111 0008 5B69     		ldr	r3, [r3, #20]	@ D.6880, _3->SCLL
 1112 000a C918     		adds	r1, r1, r3	@ D.6880, D.6880, D.6880
 1113 000c 034B     		ldr	r3, .L110+4	@ tmp120,
 1114 000e 1868     		ldr	r0, [r3]	@, SystemCoreClock
 1115              	.LVL67:
 1116 0010 FFF7FEFF 		bl	__aeabi_uidiv	@
 1117              	.LVL68:
 1118              		.loc 1 411 0
 1119 0014 10BD     		pop	{r4, pc}
 1120              	.L111:
 1121 0016 C046     		.align	2
 1122              	.L110:
 1123 0018 00000000 		.word	.LANCHOR0
 1124 001c 00000000 		.word	SystemCoreClock
 1125              		.cfi_endproc
 1126              	.LFE217:
 1127              		.size	Chip_I2C_GetClockRate, .-Chip_I2C_GetClockRate
 1128              		.section	.text.Chip_I2C_SetMasterEventHandler,"ax",%progbits
 1129              		.align	2
 1130              		.global	Chip_I2C_SetMasterEventHandler
 1131              		.code	16
 1132              		.thumb_func
 1133              		.type	Chip_I2C_SetMasterEventHandler, %function
 1134              	Chip_I2C_SetMasterEventHandler:
 1135              	.LFB218:
 412:../../lib/lpc11cx4-library/lpc_chip_11cxx_lib/src/i2c_11xx.c **** 
 413:../../lib/lpc11cx4-library/lpc_chip_11cxx_lib/src/i2c_11xx.c **** /* Set the master event handler */
 414:../../lib/lpc11cx4-library/lpc_chip_11cxx_lib/src/i2c_11xx.c **** int Chip_I2C_SetMasterEventHandler(I2C_ID_T id, I2C_EVENTHANDLER_T event)
 415:../../lib/lpc11cx4-library/lpc_chip_11cxx_lib/src/i2c_11xx.c **** {
 1136              		.loc 1 415 0
 1137              		.cfi_startproc
 1138              		@ args = 0, pretend = 0, frame = 0
 1139              		@ frame_needed = 0, uses_anonymous_args = 0
 1140              		@ link register save eliminated.
 1141              	.LVL69:
 416:../../lib/lpc11cx4-library/lpc_chip_11cxx_lib/src/i2c_11xx.c **** 	UNUSED(id);
 417:../../lib/lpc11cx4-library/lpc_chip_11cxx_lib/src/i2c_11xx.c **** 	struct i2c_interface *iic = &i2c; 
ARM GAS  /var/folders/z0/6xlwn_996xz3mwq1cgzkbq4r0000gp/T//cc0Pdjko.s 			page 36


 418:../../lib/lpc11cx4-library/lpc_chip_11cxx_lib/src/i2c_11xx.c **** 	if (!iic->mXfer) {
 1142              		.loc 1 418 0
 1143 0000 064B     		ldr	r3, .L115	@ tmp117,
 1144 0002 1A69     		ldr	r2, [r3, #16]	@ tmp127, i2c.mXfer
 1145 0004 002A     		cmp	r2, #0	@ tmp127,
 1146 0006 05D0     		beq	.L113	@,
 1147 0008 9B68     		ldr	r3, [r3, #8]	@ i2c.mEvent, i2c.mEvent
 1148 000a 581A     		subs	r0, r3, r1	@ tmp123, i2c.mEvent, event
 1149              	.LVL70:
 1150 000c 4342     		rsbs	r3, r0, #0	@ D.6887, tmp123
 1151 000e 4341     		adcs	r3, r3, r0	@ D.6887, tmp123
 1152              	.LVL71:
 1153              	.L114:
 419:../../lib/lpc11cx4-library/lpc_chip_11cxx_lib/src/i2c_11xx.c **** 		iic->mEvent = event;
 420:../../lib/lpc11cx4-library/lpc_chip_11cxx_lib/src/i2c_11xx.c **** 	}
 421:../../lib/lpc11cx4-library/lpc_chip_11cxx_lib/src/i2c_11xx.c **** 	return iic->mEvent == event;
 422:../../lib/lpc11cx4-library/lpc_chip_11cxx_lib/src/i2c_11xx.c **** }
 1154              		.loc 1 422 0
 1155 0010 1800     		movs	r0, r3	@, D.6887
 1156              		@ sp needed	@
 1157 0012 7047     		bx	lr
 1158              	.LVL72:
 1159              	.L113:
 419:../../lib/lpc11cx4-library/lpc_chip_11cxx_lib/src/i2c_11xx.c **** 		iic->mEvent = event;
 1160              		.loc 1 419 0
 1161 0014 9960     		str	r1, [r3, #8]	@ event, i2c.mEvent
 1162 0016 0123     		movs	r3, #1	@ D.6887,
 1163 0018 FAE7     		b	.L114	@
 1164              	.L116:
 1165 001a C046     		.align	2
 1166              	.L115:
 1167 001c 00000000 		.word	.LANCHOR0
 1168              		.cfi_endproc
 1169              	.LFE218:
 1170              		.size	Chip_I2C_SetMasterEventHandler, .-Chip_I2C_SetMasterEventHandler
 1171              		.section	.text.Chip_I2C_GetMasterEventHandler,"ax",%progbits
 1172              		.align	2
 1173              		.global	Chip_I2C_GetMasterEventHandler
 1174              		.code	16
 1175              		.thumb_func
 1176              		.type	Chip_I2C_GetMasterEventHandler, %function
 1177              	Chip_I2C_GetMasterEventHandler:
 1178              	.LFB219:
 423:../../lib/lpc11cx4-library/lpc_chip_11cxx_lib/src/i2c_11xx.c **** 
 424:../../lib/lpc11cx4-library/lpc_chip_11cxx_lib/src/i2c_11xx.c **** /* Get the master event handler */
 425:../../lib/lpc11cx4-library/lpc_chip_11cxx_lib/src/i2c_11xx.c **** I2C_EVENTHANDLER_T Chip_I2C_GetMasterEventHandler(I2C_ID_T id)
 426:../../lib/lpc11cx4-library/lpc_chip_11cxx_lib/src/i2c_11xx.c **** {
 1179              		.loc 1 426 0
 1180              		.cfi_startproc
 1181              		@ args = 0, pretend = 0, frame = 0
 1182              		@ frame_needed = 0, uses_anonymous_args = 0
 1183              		@ link register save eliminated.
 1184              	.LVL73:
 427:../../lib/lpc11cx4-library/lpc_chip_11cxx_lib/src/i2c_11xx.c **** 	UNUSED(id);
 428:../../lib/lpc11cx4-library/lpc_chip_11cxx_lib/src/i2c_11xx.c **** 	return i2c.mEvent;
 1185              		.loc 1 428 0
 1186 0000 014B     		ldr	r3, .L118	@ tmp114,
ARM GAS  /var/folders/z0/6xlwn_996xz3mwq1cgzkbq4r0000gp/T//cc0Pdjko.s 			page 37


 429:../../lib/lpc11cx4-library/lpc_chip_11cxx_lib/src/i2c_11xx.c **** }
 1187              		.loc 1 429 0
 1188              		@ sp needed	@
 428:../../lib/lpc11cx4-library/lpc_chip_11cxx_lib/src/i2c_11xx.c **** }
 1189              		.loc 1 428 0
 1190 0002 9868     		ldr	r0, [r3, #8]	@ i2c.mEvent, i2c.mEvent
 1191              	.LVL74:
 1192              		.loc 1 429 0
 1193 0004 7047     		bx	lr
 1194              	.L119:
 1195 0006 C046     		.align	2
 1196              	.L118:
 1197 0008 00000000 		.word	.LANCHOR0
 1198              		.cfi_endproc
 1199              	.LFE219:
 1200              		.size	Chip_I2C_GetMasterEventHandler, .-Chip_I2C_GetMasterEventHandler
 1201              		.section	.text.Chip_I2C_MasterTransfer,"ax",%progbits
 1202              		.align	2
 1203              		.global	Chip_I2C_MasterTransfer
 1204              		.code	16
 1205              		.thumb_func
 1206              		.type	Chip_I2C_MasterTransfer, %function
 1207              	Chip_I2C_MasterTransfer:
 1208              	.LFB220:
 430:../../lib/lpc11cx4-library/lpc_chip_11cxx_lib/src/i2c_11xx.c **** 
 431:../../lib/lpc11cx4-library/lpc_chip_11cxx_lib/src/i2c_11xx.c **** /* Transmit and Receive data in master mode */
 432:../../lib/lpc11cx4-library/lpc_chip_11cxx_lib/src/i2c_11xx.c **** int Chip_I2C_MasterTransfer(I2C_ID_T id, I2C_XFER_T *xfer)
 433:../../lib/lpc11cx4-library/lpc_chip_11cxx_lib/src/i2c_11xx.c **** {
 1209              		.loc 1 433 0
 1210              		.cfi_startproc
 1211              		@ args = 0, pretend = 0, frame = 0
 1212              		@ frame_needed = 0, uses_anonymous_args = 0
 1213              	.LVL75:
 1214 0000 70B5     		push	{r4, r5, r6, lr}	@
 1215              		.cfi_def_cfa_offset 16
 1216              		.cfi_offset 4, -16
 1217              		.cfi_offset 5, -12
 1218              		.cfi_offset 6, -8
 1219              		.cfi_offset 14, -4
 434:../../lib/lpc11cx4-library/lpc_chip_11cxx_lib/src/i2c_11xx.c **** 	struct i2c_interface *iic = &i2c;
 435:../../lib/lpc11cx4-library/lpc_chip_11cxx_lib/src/i2c_11xx.c **** 
 436:../../lib/lpc11cx4-library/lpc_chip_11cxx_lib/src/i2c_11xx.c **** 	i2c.mEvent(id, I2C_EVENT_LOCK);
 1220              		.loc 1 436 0
 1221 0002 164C     		ldr	r4, .L129	@ tmp151,
 433:../../lib/lpc11cx4-library/lpc_chip_11cxx_lib/src/i2c_11xx.c **** 	struct i2c_interface *iic = &i2c;
 1222              		.loc 1 433 0
 1223 0004 0D00     		movs	r5, r1	@ xfer, xfer
 1224              		.loc 1 436 0
 1225 0006 A368     		ldr	r3, [r4, #8]	@ tmp154, i2c.mEvent
 1226 0008 0321     		movs	r1, #3	@,
 1227              	.LVL76:
 433:../../lib/lpc11cx4-library/lpc_chip_11cxx_lib/src/i2c_11xx.c **** 	struct i2c_interface *iic = &i2c;
 1228              		.loc 1 433 0
 1229 000a 0600     		movs	r6, r0	@ id, id
 1230              		.loc 1 436 0
 1231 000c 9847     		blx	r3	@ tmp154
 1232              	.LVL77:
ARM GAS  /var/folders/z0/6xlwn_996xz3mwq1cgzkbq4r0000gp/T//cc0Pdjko.s 			page 38


 437:../../lib/lpc11cx4-library/lpc_chip_11cxx_lib/src/i2c_11xx.c **** 	xfer->status = I2C_STATUS_BUSY;
 1233              		.loc 1 437 0
 1234 000e 0423     		movs	r3, #4	@ tmp127,
 1235 0010 2B75     		strb	r3, [r5, #20]	@ tmp127, xfer_8(D)->status
 438:../../lib/lpc11cx4-library/lpc_chip_11cxx_lib/src/i2c_11xx.c **** 	iic->mXfer = xfer;
 439:../../lib/lpc11cx4-library/lpc_chip_11cxx_lib/src/i2c_11xx.c **** 	/* If slave xfer not in progress */
 440:../../lib/lpc11cx4-library/lpc_chip_11cxx_lib/src/i2c_11xx.c **** 	if (!iic->sXfer) {
 1236              		.loc 1 440 0
 1237 0012 6369     		ldr	r3, [r4, #20]	@ tmp156, i2c.sXfer
 438:../../lib/lpc11cx4-library/lpc_chip_11cxx_lib/src/i2c_11xx.c **** 	iic->mXfer = xfer;
 1238              		.loc 1 438 0
 1239 0014 2561     		str	r5, [r4, #16]	@ xfer, i2c.mXfer
 1240              		.loc 1 440 0
 1241 0016 002B     		cmp	r3, #0	@ tmp156,
 1242 0018 19D0     		beq	.L128	@,
 1243              	.L121:
 441:../../lib/lpc11cx4-library/lpc_chip_11cxx_lib/src/i2c_11xx.c **** 		startMasterXfer(iic->ip);
 442:../../lib/lpc11cx4-library/lpc_chip_11cxx_lib/src/i2c_11xx.c **** 	} 
 443:../../lib/lpc11cx4-library/lpc_chip_11cxx_lib/src/i2c_11xx.c **** 	i2c.mEvent(id, I2C_EVENT_WAIT);
 1244              		.loc 1 443 0
 1245 001a 0121     		movs	r1, #1	@,
 1246 001c A368     		ldr	r3, [r4, #8]	@ tmp157, i2c.mEvent
 1247 001e 3000     		movs	r0, r6	@, id
 1248 0020 9847     		blx	r3	@ tmp157
 1249              	.LVL78:
 444:../../lib/lpc11cx4-library/lpc_chip_11cxx_lib/src/i2c_11xx.c **** 	iic->mXfer = 0;
 1250              		.loc 1 444 0
 1251 0022 0023     		movs	r3, #0	@ tmp138,
 445:../../lib/lpc11cx4-library/lpc_chip_11cxx_lib/src/i2c_11xx.c **** 
 446:../../lib/lpc11cx4-library/lpc_chip_11cxx_lib/src/i2c_11xx.c **** 	/* Wait for stop condition to appear on bus */
 447:../../lib/lpc11cx4-library/lpc_chip_11cxx_lib/src/i2c_11xx.c **** 	while (!isI2CBusFree(iic->ip)) {}
 1252              		.loc 1 447 0
 1253 0024 1021     		movs	r1, #16	@ tmp152,
 1254 0026 2268     		ldr	r2, [r4]	@ D.6895, i2c.ip
 444:../../lib/lpc11cx4-library/lpc_chip_11cxx_lib/src/i2c_11xx.c **** 	iic->mXfer = 0;
 1255              		.loc 1 444 0
 1256 0028 2361     		str	r3, [r4, #16]	@ tmp138, i2c.mXfer
 1257              	.L122:
 1258              	.LVL79:
 1259              	.LBB101:
 1260              	.LBB102:
 118:../../lib/lpc11cx4-library/lpc_chip_11cxx_lib/src/i2c_11xx.c **** }
 1261              		.loc 1 118 0 discriminator 1
 1262 002a 1368     		ldr	r3, [r2]	@ D.6898, _2->CONSET
 1263              	.LVL80:
 1264              	.LBE102:
 1265              	.LBE101:
 1266              		.loc 1 447 0 discriminator 1
 1267 002c 1942     		tst	r1, r3	@ tmp152, D.6898
 1268 002e FCD1     		bne	.L122	@,
 448:../../lib/lpc11cx4-library/lpc_chip_11cxx_lib/src/i2c_11xx.c **** 
 449:../../lib/lpc11cx4-library/lpc_chip_11cxx_lib/src/i2c_11xx.c **** 	/* Start slave if one is active */
 450:../../lib/lpc11cx4-library/lpc_chip_11cxx_lib/src/i2c_11xx.c **** 	if (SLAVE_ACTIVE(iic)) {
 1269              		.loc 1 450 0
 1270 0030 FF23     		movs	r3, #255	@ tmp145,
 1271 0032 A169     		ldr	r1, [r4, #24]	@ tmp159, i2c.flags
 1272 0034 1B02     		lsls	r3, r3, #8	@ tmp145, tmp145,
ARM GAS  /var/folders/z0/6xlwn_996xz3mwq1cgzkbq4r0000gp/T//cc0Pdjko.s 			page 39


 1273 0036 1942     		tst	r1, r3	@ tmp159, tmp145
 1274 0038 03D0     		beq	.L123	@,
 1275              	.LVL81:
 1276              	.LBB103:
 1277              	.LBB104:
 109:../../lib/lpc11cx4-library/lpc_chip_11cxx_lib/src/i2c_11xx.c **** 
 1278              		.loc 1 109 0
 1279 003a 3823     		movs	r3, #56	@ tmp146,
 1280 003c 9361     		str	r3, [r2, #24]	@ tmp146, _2->CONCLR
 112:../../lib/lpc11cx4-library/lpc_chip_11cxx_lib/src/i2c_11xx.c **** }
 1281              		.loc 1 112 0
 1282 003e 0C33     		adds	r3, r3, #12	@ tmp147,
 1283 0040 1360     		str	r3, [r2]	@ tmp147, _2->CONSET
 1284              	.LVL82:
 1285              	.L123:
 1286              	.LBE104:
 1287              	.LBE103:
 451:../../lib/lpc11cx4-library/lpc_chip_11cxx_lib/src/i2c_11xx.c **** 		startSlaverXfer(iic->ip);
 452:../../lib/lpc11cx4-library/lpc_chip_11cxx_lib/src/i2c_11xx.c **** 	}
 453:../../lib/lpc11cx4-library/lpc_chip_11cxx_lib/src/i2c_11xx.c **** 
 454:../../lib/lpc11cx4-library/lpc_chip_11cxx_lib/src/i2c_11xx.c **** 	i2c.mEvent(id, I2C_EVENT_UNLOCK);
 1288              		.loc 1 454 0
 1289 0042 3000     		movs	r0, r6	@, id
 1290 0044 A368     		ldr	r3, [r4, #8]	@ i2c.mEvent, i2c.mEvent
 1291 0046 0421     		movs	r1, #4	@,
 1292 0048 9847     		blx	r3	@ i2c.mEvent
 1293              	.LVL83:
 455:../../lib/lpc11cx4-library/lpc_chip_11cxx_lib/src/i2c_11xx.c **** 	return (int) xfer->status;
 456:../../lib/lpc11cx4-library/lpc_chip_11cxx_lib/src/i2c_11xx.c **** }
 1294              		.loc 1 456 0
 1295              		@ sp needed	@
 455:../../lib/lpc11cx4-library/lpc_chip_11cxx_lib/src/i2c_11xx.c **** 	return (int) xfer->status;
 1296              		.loc 1 455 0
 1297 004a 287D     		ldrb	r0, [r5, #20]	@ D.6900,
 1298              	.LVL84:
 1299              		.loc 1 456 0
 1300 004c 70BD     		pop	{r4, r5, r6, pc}
 1301              	.LVL85:
 1302              	.L128:
 1303              	.LBB105:
 1304              	.LBB106:
  99:../../lib/lpc11cx4-library/lpc_chip_11cxx_lib/src/i2c_11xx.c **** 
 1305              		.loc 1 99 0
 1306 004e 3C22     		movs	r2, #60	@ tmp133,
 1307              	.LBE106:
 1308              	.LBE105:
 441:../../lib/lpc11cx4-library/lpc_chip_11cxx_lib/src/i2c_11xx.c **** 	} 
 1309              		.loc 1 441 0
 1310 0050 2368     		ldr	r3, [r4]	@ D.6895, i2c.ip
 1311              	.LVL86:
 1312              	.LBB108:
 1313              	.LBB107:
  99:../../lib/lpc11cx4-library/lpc_chip_11cxx_lib/src/i2c_11xx.c **** 
 1314              		.loc 1 99 0
 1315 0052 9A61     		str	r2, [r3, #24]	@ tmp133, _12->CONCLR
 102:../../lib/lpc11cx4-library/lpc_chip_11cxx_lib/src/i2c_11xx.c **** }
 1316              		.loc 1 102 0
ARM GAS  /var/folders/z0/6xlwn_996xz3mwq1cgzkbq4r0000gp/T//cc0Pdjko.s 			page 40


 1317 0054 2432     		adds	r2, r2, #36	@ tmp134,
 1318 0056 1A60     		str	r2, [r3]	@ tmp134, _12->CONSET
 1319 0058 DFE7     		b	.L121	@
 1320              	.L130:
 1321 005a C046     		.align	2
 1322              	.L129:
 1323 005c 00000000 		.word	.LANCHOR0
 1324              	.LBE107:
 1325              	.LBE108:
 1326              		.cfi_endproc
 1327              	.LFE220:
 1328              		.size	Chip_I2C_MasterTransfer, .-Chip_I2C_MasterTransfer
 1329              		.section	.text.Chip_I2C_MasterSend,"ax",%progbits
 1330              		.align	2
 1331              		.global	Chip_I2C_MasterSend
 1332              		.code	16
 1333              		.thumb_func
 1334              		.type	Chip_I2C_MasterSend, %function
 1335              	Chip_I2C_MasterSend:
 1336              	.LFB221:
 457:../../lib/lpc11cx4-library/lpc_chip_11cxx_lib/src/i2c_11xx.c **** 
 458:../../lib/lpc11cx4-library/lpc_chip_11cxx_lib/src/i2c_11xx.c **** /* Master tx only */
 459:../../lib/lpc11cx4-library/lpc_chip_11cxx_lib/src/i2c_11xx.c **** int Chip_I2C_MasterSend(I2C_ID_T id, uint8_t slaveAddr, const uint8_t *buff, uint8_t len)
 460:../../lib/lpc11cx4-library/lpc_chip_11cxx_lib/src/i2c_11xx.c **** {
 1337              		.loc 1 460 0
 1338              		.cfi_startproc
 1339              		@ args = 0, pretend = 0, frame = 24
 1340              		@ frame_needed = 0, uses_anonymous_args = 0
 1341              	.LVL87:
 1342 0000 30B5     		push	{r4, r5, lr}	@
 1343              		.cfi_def_cfa_offset 12
 1344              		.cfi_offset 4, -12
 1345              		.cfi_offset 5, -8
 1346              		.cfi_offset 14, -4
 1347 0002 87B0     		sub	sp, sp, #28	@,,
 1348              		.cfi_def_cfa_offset 40
 1349              		.loc 1 460 0
 1350 0004 1D00     		movs	r5, r3	@ len, len
 461:../../lib/lpc11cx4-library/lpc_chip_11cxx_lib/src/i2c_11xx.c **** 	I2C_XFER_T xfer;
 462:../../lib/lpc11cx4-library/lpc_chip_11cxx_lib/src/i2c_11xx.c **** 	xfer.slaveAddr = slaveAddr;
 1351              		.loc 1 462 0
 1352 0006 6B46     		mov	r3, sp	@ tmp130,
 1353              	.LVL88:
 1354 0008 1970     		strb	r1, [r3]	@ slaveAddr, xfer.slaveAddr
 463:../../lib/lpc11cx4-library/lpc_chip_11cxx_lib/src/i2c_11xx.c **** 	xfer.txBuff = buff;
 464:../../lib/lpc11cx4-library/lpc_chip_11cxx_lib/src/i2c_11xx.c **** 	xfer.txSz = len;
 465:../../lib/lpc11cx4-library/lpc_chip_11cxx_lib/src/i2c_11xx.c **** 	xfer.rxSz = 0;
 1355              		.loc 1 465 0
 1356 000a 0023     		movs	r3, #0	@ tmp124,
 460:../../lib/lpc11cx4-library/lpc_chip_11cxx_lib/src/i2c_11xx.c **** 	I2C_XFER_T xfer;
 1357              		.loc 1 460 0
 1358 000c 0400     		movs	r4, r0	@ id, id
 463:../../lib/lpc11cx4-library/lpc_chip_11cxx_lib/src/i2c_11xx.c **** 	xfer.txBuff = buff;
 1359              		.loc 1 463 0
 1360 000e 0192     		str	r2, [sp, #4]	@ buff, xfer.txBuff
 464:../../lib/lpc11cx4-library/lpc_chip_11cxx_lib/src/i2c_11xx.c **** 	xfer.rxSz = 0;
 1361              		.loc 1 464 0
ARM GAS  /var/folders/z0/6xlwn_996xz3mwq1cgzkbq4r0000gp/T//cc0Pdjko.s 			page 41


 1362 0010 0295     		str	r5, [sp, #8]	@ len, xfer.txSz
 1363              		.loc 1 465 0
 1364 0012 0493     		str	r3, [sp, #16]	@ tmp124, xfer.rxSz
 1365              	.LVL89:
 1366              	.L132:
 466:../../lib/lpc11cx4-library/lpc_chip_11cxx_lib/src/i2c_11xx.c **** 	while (Chip_I2C_MasterTransfer(id, &xfer) == I2C_STATUS_ARBLOST) {}
 1367              		.loc 1 466 0 discriminator 1
 1368 0014 6946     		mov	r1, sp	@,
 1369 0016 2000     		movs	r0, r4	@, id
 1370 0018 FFF7FEFF 		bl	Chip_I2C_MasterTransfer	@
 1371              	.LVL90:
 1372 001c 0228     		cmp	r0, #2	@ D.6904,
 1373 001e F9D0     		beq	.L132	@,
 467:../../lib/lpc11cx4-library/lpc_chip_11cxx_lib/src/i2c_11xx.c **** 	return len - xfer.txSz;
 1374              		.loc 1 467 0
 1375 0020 0298     		ldr	r0, [sp, #8]	@ xfer.txSz, xfer.txSz
 1376 0022 281A     		subs	r0, r5, r0	@ D.6904, len, xfer.txSz
 468:../../lib/lpc11cx4-library/lpc_chip_11cxx_lib/src/i2c_11xx.c **** }
 1377              		.loc 1 468 0
 1378 0024 07B0     		add	sp, sp, #28	@,,
 1379              		@ sp needed	@
 1380 0026 30BD     		pop	{r4, r5, pc}
 1381              		.cfi_endproc
 1382              	.LFE221:
 1383              		.size	Chip_I2C_MasterSend, .-Chip_I2C_MasterSend
 1384              		.section	.text.Chip_I2C_MasterCmdRead,"ax",%progbits
 1385              		.align	2
 1386              		.global	Chip_I2C_MasterCmdRead
 1387              		.code	16
 1388              		.thumb_func
 1389              		.type	Chip_I2C_MasterCmdRead, %function
 1390              	Chip_I2C_MasterCmdRead:
 1391              	.LFB222:
 469:../../lib/lpc11cx4-library/lpc_chip_11cxx_lib/src/i2c_11xx.c **** 
 470:../../lib/lpc11cx4-library/lpc_chip_11cxx_lib/src/i2c_11xx.c **** /* Transmit one byte and receive an array of bytes after a repeated start condition is generated in
 471:../../lib/lpc11cx4-library/lpc_chip_11cxx_lib/src/i2c_11xx.c ****  * This function is useful for communicating with the I2C slave registers
 472:../../lib/lpc11cx4-library/lpc_chip_11cxx_lib/src/i2c_11xx.c ****  */
 473:../../lib/lpc11cx4-library/lpc_chip_11cxx_lib/src/i2c_11xx.c **** int Chip_I2C_MasterCmdRead(I2C_ID_T id, uint8_t slaveAddr, uint8_t cmd, uint8_t *buff, int len)
 474:../../lib/lpc11cx4-library/lpc_chip_11cxx_lib/src/i2c_11xx.c **** {
 1392              		.loc 1 474 0
 1393              		.cfi_startproc
 1394              		@ args = 4, pretend = 0, frame = 32
 1395              		@ frame_needed = 0, uses_anonymous_args = 0
 1396              	.LVL91:
 1397 0000 70B5     		push	{r4, r5, r6, lr}	@
 1398              		.cfi_def_cfa_offset 16
 1399              		.cfi_offset 4, -16
 1400              		.cfi_offset 5, -12
 1401              		.cfi_offset 6, -8
 1402              		.cfi_offset 14, -4
 1403 0002 88B0     		sub	sp, sp, #32	@,,
 1404              		.cfi_def_cfa_offset 48
 1405              		.loc 1 474 0
 1406 0004 0500     		movs	r5, r0	@ id, id
 1407 0006 6846     		mov	r0, sp	@ tmp134,
 1408              	.LVL92:
 1409 0008 C271     		strb	r2, [r0, #7]	@ cmd, cmd
ARM GAS  /var/folders/z0/6xlwn_996xz3mwq1cgzkbq4r0000gp/T//cc0Pdjko.s 			page 42


 475:../../lib/lpc11cx4-library/lpc_chip_11cxx_lib/src/i2c_11xx.c **** 	I2C_XFER_T xfer;
 476:../../lib/lpc11cx4-library/lpc_chip_11cxx_lib/src/i2c_11xx.c **** 	xfer.slaveAddr = slaveAddr;
 477:../../lib/lpc11cx4-library/lpc_chip_11cxx_lib/src/i2c_11xx.c **** 	xfer.txBuff = &cmd;
 478:../../lib/lpc11cx4-library/lpc_chip_11cxx_lib/src/i2c_11xx.c **** 	xfer.txSz = 1;
 1410              		.loc 1 478 0
 1411 000a 0122     		movs	r2, #1	@ tmp126,
 1412              	.LVL93:
 474:../../lib/lpc11cx4-library/lpc_chip_11cxx_lib/src/i2c_11xx.c **** 	I2C_XFER_T xfer;
 1413              		.loc 1 474 0
 1414 000c 0C9E     		ldr	r6, [sp, #48]	@ len, len
 476:../../lib/lpc11cx4-library/lpc_chip_11cxx_lib/src/i2c_11xx.c **** 	xfer.txBuff = &cmd;
 1415              		.loc 1 476 0
 1416 000e 02AC     		add	r4, sp, #8	@ tmp133,,
 474:../../lib/lpc11cx4-library/lpc_chip_11cxx_lib/src/i2c_11xx.c **** 	I2C_XFER_T xfer;
 1417              		.loc 1 474 0
 1418 0010 0730     		adds	r0, r0, #7	@ tmp117,
 1419              	.LVL94:
 476:../../lib/lpc11cx4-library/lpc_chip_11cxx_lib/src/i2c_11xx.c **** 	xfer.txBuff = &cmd;
 1420              		.loc 1 476 0
 1421 0012 2170     		strb	r1, [r4]	@ slaveAddr, xfer.slaveAddr
 477:../../lib/lpc11cx4-library/lpc_chip_11cxx_lib/src/i2c_11xx.c **** 	xfer.txSz = 1;
 1422              		.loc 1 477 0
 1423 0014 6060     		str	r0, [r4, #4]	@ tmp117, xfer.txBuff
 1424              		.loc 1 478 0
 1425 0016 A260     		str	r2, [r4, #8]	@ tmp126, xfer.txSz
 479:../../lib/lpc11cx4-library/lpc_chip_11cxx_lib/src/i2c_11xx.c **** 	xfer.rxBuff = buff;
 1426              		.loc 1 479 0
 1427 0018 E360     		str	r3, [r4, #12]	@ buff, xfer.rxBuff
 480:../../lib/lpc11cx4-library/lpc_chip_11cxx_lib/src/i2c_11xx.c **** 	xfer.rxSz = len;
 1428              		.loc 1 480 0
 1429 001a 2661     		str	r6, [r4, #16]	@ len, xfer.rxSz
 1430              	.LVL95:
 1431              	.L136:
 481:../../lib/lpc11cx4-library/lpc_chip_11cxx_lib/src/i2c_11xx.c **** 	while (Chip_I2C_MasterTransfer(id, &xfer) == I2C_STATUS_ARBLOST) {}
 1432              		.loc 1 481 0 discriminator 1
 1433 001c 2100     		movs	r1, r4	@, tmp133
 1434 001e 2800     		movs	r0, r5	@, id
 1435 0020 FFF7FEFF 		bl	Chip_I2C_MasterTransfer	@
 1436              	.LVL96:
 1437 0024 0228     		cmp	r0, #2	@ D.6907,
 1438 0026 F9D0     		beq	.L136	@,
 482:../../lib/lpc11cx4-library/lpc_chip_11cxx_lib/src/i2c_11xx.c **** 	return len - xfer.rxSz;
 1439              		.loc 1 482 0
 1440 0028 2069     		ldr	r0, [r4, #16]	@ xfer.rxSz, xfer.rxSz
 1441 002a 301A     		subs	r0, r6, r0	@ D.6907, len, xfer.rxSz
 483:../../lib/lpc11cx4-library/lpc_chip_11cxx_lib/src/i2c_11xx.c **** }
 1442              		.loc 1 483 0
 1443 002c 08B0     		add	sp, sp, #32	@,,
 1444              	.LVL97:
 1445              		@ sp needed	@
 1446 002e 70BD     		pop	{r4, r5, r6, pc}
 1447              		.cfi_endproc
 1448              	.LFE222:
 1449              		.size	Chip_I2C_MasterCmdRead, .-Chip_I2C_MasterCmdRead
 1450              		.section	.text.Chip_I2C_MasterRead,"ax",%progbits
 1451              		.align	2
 1452              		.global	Chip_I2C_MasterRead
ARM GAS  /var/folders/z0/6xlwn_996xz3mwq1cgzkbq4r0000gp/T//cc0Pdjko.s 			page 43


 1453              		.code	16
 1454              		.thumb_func
 1455              		.type	Chip_I2C_MasterRead, %function
 1456              	Chip_I2C_MasterRead:
 1457              	.LFB223:
 484:../../lib/lpc11cx4-library/lpc_chip_11cxx_lib/src/i2c_11xx.c **** 
 485:../../lib/lpc11cx4-library/lpc_chip_11cxx_lib/src/i2c_11xx.c **** /* Sequential master read */
 486:../../lib/lpc11cx4-library/lpc_chip_11cxx_lib/src/i2c_11xx.c **** int Chip_I2C_MasterRead(I2C_ID_T id, uint8_t slaveAddr, uint8_t *buff, int len)
 487:../../lib/lpc11cx4-library/lpc_chip_11cxx_lib/src/i2c_11xx.c **** {
 1458              		.loc 1 487 0
 1459              		.cfi_startproc
 1460              		@ args = 0, pretend = 0, frame = 24
 1461              		@ frame_needed = 0, uses_anonymous_args = 0
 1462              	.LVL98:
 1463 0000 30B5     		push	{r4, r5, lr}	@
 1464              		.cfi_def_cfa_offset 12
 1465              		.cfi_offset 4, -12
 1466              		.cfi_offset 5, -8
 1467              		.cfi_offset 14, -4
 1468 0002 87B0     		sub	sp, sp, #28	@,,
 1469              		.cfi_def_cfa_offset 40
 1470              		.loc 1 487 0
 1471 0004 1D00     		movs	r5, r3	@ len, len
 488:../../lib/lpc11cx4-library/lpc_chip_11cxx_lib/src/i2c_11xx.c **** 	UNUSED(id);
 489:../../lib/lpc11cx4-library/lpc_chip_11cxx_lib/src/i2c_11xx.c **** 	I2C_XFER_T xfer;
 490:../../lib/lpc11cx4-library/lpc_chip_11cxx_lib/src/i2c_11xx.c **** 	xfer.slaveAddr = slaveAddr;
 1472              		.loc 1 490 0
 1473 0006 6B46     		mov	r3, sp	@ tmp129,
 1474              	.LVL99:
 1475 0008 1970     		strb	r1, [r3]	@ slaveAddr, xfer.slaveAddr
 491:../../lib/lpc11cx4-library/lpc_chip_11cxx_lib/src/i2c_11xx.c **** 	xfer.rxBuff = buff;
 492:../../lib/lpc11cx4-library/lpc_chip_11cxx_lib/src/i2c_11xx.c **** 	xfer.rxSz = len;
 493:../../lib/lpc11cx4-library/lpc_chip_11cxx_lib/src/i2c_11xx.c **** 	xfer.txSz = 0;
 1476              		.loc 1 493 0
 1477 000a 0023     		movs	r3, #0	@ tmp123,
 487:../../lib/lpc11cx4-library/lpc_chip_11cxx_lib/src/i2c_11xx.c **** 	UNUSED(id);
 1478              		.loc 1 487 0
 1479 000c 0400     		movs	r4, r0	@ id, id
 491:../../lib/lpc11cx4-library/lpc_chip_11cxx_lib/src/i2c_11xx.c **** 	xfer.rxBuff = buff;
 1480              		.loc 1 491 0
 1481 000e 0392     		str	r2, [sp, #12]	@ buff, xfer.rxBuff
 492:../../lib/lpc11cx4-library/lpc_chip_11cxx_lib/src/i2c_11xx.c **** 	xfer.txSz = 0;
 1482              		.loc 1 492 0
 1483 0010 0495     		str	r5, [sp, #16]	@ len, xfer.rxSz
 1484              		.loc 1 493 0
 1485 0012 0293     		str	r3, [sp, #8]	@ tmp123, xfer.txSz
 1486              	.LVL100:
 1487              	.L140:
 494:../../lib/lpc11cx4-library/lpc_chip_11cxx_lib/src/i2c_11xx.c **** 	while (Chip_I2C_MasterTransfer(id, &xfer) == I2C_STATUS_ARBLOST) {}
 1488              		.loc 1 494 0 discriminator 1
 1489 0014 6946     		mov	r1, sp	@,
 1490 0016 2000     		movs	r0, r4	@, id
 1491 0018 FFF7FEFF 		bl	Chip_I2C_MasterTransfer	@
 1492              	.LVL101:
 1493 001c 0228     		cmp	r0, #2	@ D.6910,
 1494 001e F9D0     		beq	.L140	@,
 495:../../lib/lpc11cx4-library/lpc_chip_11cxx_lib/src/i2c_11xx.c **** 	return len - xfer.rxSz;
ARM GAS  /var/folders/z0/6xlwn_996xz3mwq1cgzkbq4r0000gp/T//cc0Pdjko.s 			page 44


 1495              		.loc 1 495 0
 1496 0020 0498     		ldr	r0, [sp, #16]	@ xfer.rxSz, xfer.rxSz
 1497 0022 281A     		subs	r0, r5, r0	@ D.6910, len, xfer.rxSz
 496:../../lib/lpc11cx4-library/lpc_chip_11cxx_lib/src/i2c_11xx.c **** }
 1498              		.loc 1 496 0
 1499 0024 07B0     		add	sp, sp, #28	@,,
 1500              		@ sp needed	@
 1501              	.LVL102:
 1502 0026 30BD     		pop	{r4, r5, pc}
 1503              		.cfi_endproc
 1504              	.LFE223:
 1505              		.size	Chip_I2C_MasterRead, .-Chip_I2C_MasterRead
 1506              		.section	.text.Chip_I2C_IsMasterActive,"ax",%progbits
 1507              		.align	2
 1508              		.global	Chip_I2C_IsMasterActive
 1509              		.code	16
 1510              		.thumb_func
 1511              		.type	Chip_I2C_IsMasterActive, %function
 1512              	Chip_I2C_IsMasterActive:
 1513              	.LFB224:
 497:../../lib/lpc11cx4-library/lpc_chip_11cxx_lib/src/i2c_11xx.c **** 
 498:../../lib/lpc11cx4-library/lpc_chip_11cxx_lib/src/i2c_11xx.c **** /* Check if master state is active */
 499:../../lib/lpc11cx4-library/lpc_chip_11cxx_lib/src/i2c_11xx.c **** int Chip_I2C_IsMasterActive(I2C_ID_T id)
 500:../../lib/lpc11cx4-library/lpc_chip_11cxx_lib/src/i2c_11xx.c **** {
 1514              		.loc 1 500 0
 1515              		.cfi_startproc
 1516              		@ args = 0, pretend = 0, frame = 0
 1517              		@ frame_needed = 0, uses_anonymous_args = 0
 1518              		@ link register save eliminated.
 1519              	.LVL103:
 501:../../lib/lpc11cx4-library/lpc_chip_11cxx_lib/src/i2c_11xx.c **** 	UNUSED(id);
 502:../../lib/lpc11cx4-library/lpc_chip_11cxx_lib/src/i2c_11xx.c **** 	return isMasterState(i2c.ip);
 1520              		.loc 1 502 0
 1521 0000 F822     		movs	r2, #248	@ tmp120,
 1522 0002 054B     		ldr	r3, .L144	@ tmp118,
 1523 0004 5F21     		movs	r1, #95	@ tmp124,
 1524 0006 1B68     		ldr	r3, [r3]	@ D.6913, i2c.ip
 1525              	.LVL104:
 503:../../lib/lpc11cx4-library/lpc_chip_11cxx_lib/src/i2c_11xx.c **** }
 1526              		.loc 1 503 0
 1527              		@ sp needed	@
 1528              	.LBB109:
 1529              	.LBB110:
 1530              	.LBB111:
 1531              	.LBB112:
 124:../../lib/lpc11cx4-library/lpc_chip_11cxx_lib/src/i2c_11xx.c **** }
 1532              		.loc 1 124 0
 1533 0008 5B68     		ldr	r3, [r3, #4]	@ D.6914, _2->STAT
 1534              	.LVL105:
 1535              	.LBE112:
 1536              	.LBE111:
 1537              	.LBE110:
 1538              	.LBE109:
 502:../../lib/lpc11cx4-library/lpc_chip_11cxx_lib/src/i2c_11xx.c **** }
 1539              		.loc 1 502 0
 1540 000a 1340     		ands	r3, r2	@ D.6915, tmp120
 1541 000c 0022     		movs	r2, #0	@ tmp126,
ARM GAS  /var/folders/z0/6xlwn_996xz3mwq1cgzkbq4r0000gp/T//cc0Pdjko.s 			page 45


 1542 000e D80F     		lsrs	r0, r3, #31	@ tmp125, D.6915,
 1543              	.LVL106:
 1544 0010 9942     		cmp	r1, r3	@ tmp124, D.6915
 1545 0012 5041     		adcs	r0, r0, r2	@ D.6916, tmp125, tmp126
 1546              		.loc 1 503 0
 1547 0014 7047     		bx	lr
 1548              	.L145:
 1549 0016 C046     		.align	2
 1550              	.L144:
 1551 0018 00000000 		.word	.LANCHOR0
 1552              		.cfi_endproc
 1553              	.LFE224:
 1554              		.size	Chip_I2C_IsMasterActive, .-Chip_I2C_IsMasterActive
 1555              		.section	.text.Chip_I2C_MasterStateHandler,"ax",%progbits
 1556              		.align	2
 1557              		.global	Chip_I2C_MasterStateHandler
 1558              		.code	16
 1559              		.thumb_func
 1560              		.type	Chip_I2C_MasterStateHandler, %function
 1561              	Chip_I2C_MasterStateHandler:
 1562              	.LFB225:
 504:../../lib/lpc11cx4-library/lpc_chip_11cxx_lib/src/i2c_11xx.c **** 
 505:../../lib/lpc11cx4-library/lpc_chip_11cxx_lib/src/i2c_11xx.c **** /* State change handler for master transfer */
 506:../../lib/lpc11cx4-library/lpc_chip_11cxx_lib/src/i2c_11xx.c **** void Chip_I2C_MasterStateHandler(I2C_ID_T id)
 507:../../lib/lpc11cx4-library/lpc_chip_11cxx_lib/src/i2c_11xx.c **** {
 1563              		.loc 1 507 0
 1564              		.cfi_startproc
 1565              		@ args = 0, pretend = 0, frame = 0
 1566              		@ frame_needed = 0, uses_anonymous_args = 0
 1567              	.LVL107:
 1568 0000 70B5     		push	{r4, r5, r6, lr}	@
 1569              		.cfi_def_cfa_offset 16
 1570              		.cfi_offset 4, -16
 1571              		.cfi_offset 5, -12
 1572              		.cfi_offset 6, -8
 1573              		.cfi_offset 14, -4
 508:../../lib/lpc11cx4-library/lpc_chip_11cxx_lib/src/i2c_11xx.c **** 	if (!handleMasterXferState(i2c.ip, i2c.mXfer)) {
 1574              		.loc 1 508 0
 1575 0002 064C     		ldr	r4, .L148	@ tmp115,
 507:../../lib/lpc11cx4-library/lpc_chip_11cxx_lib/src/i2c_11xx.c **** 	if (!handleMasterXferState(i2c.ip, i2c.mXfer)) {
 1576              		.loc 1 507 0
 1577 0004 0500     		movs	r5, r0	@ id, id
 1578              		.loc 1 508 0
 1579 0006 2169     		ldr	r1, [r4, #16]	@, i2c.mXfer
 1580 0008 2068     		ldr	r0, [r4]	@, i2c.ip
 1581              	.LVL108:
 1582 000a FFF7FEFF 		bl	handleMasterXferState	@
 1583              	.LVL109:
 1584 000e 0028     		cmp	r0, #0	@ D.6923,
 1585 0010 03D1     		bne	.L146	@,
 1586              	.LVL110:
 1587              	.LBB115:
 1588              	.LBB116:
 509:../../lib/lpc11cx4-library/lpc_chip_11cxx_lib/src/i2c_11xx.c **** 		i2c.mEvent(id, I2C_EVENT_DONE);
 1589              		.loc 1 509 0
 1590 0012 A368     		ldr	r3, [r4, #8]	@ i2c.mEvent, i2c.mEvent
 1591 0014 0221     		movs	r1, #2	@,
ARM GAS  /var/folders/z0/6xlwn_996xz3mwq1cgzkbq4r0000gp/T//cc0Pdjko.s 			page 46


 1592 0016 2800     		movs	r0, r5	@, id
 1593 0018 9847     		blx	r3	@ i2c.mEvent
 1594              	.LVL111:
 1595              	.L146:
 1596              	.LBE116:
 1597              	.LBE115:
 510:../../lib/lpc11cx4-library/lpc_chip_11cxx_lib/src/i2c_11xx.c **** 	}
 511:../../lib/lpc11cx4-library/lpc_chip_11cxx_lib/src/i2c_11xx.c **** }
 1598              		.loc 1 511 0
 1599              		@ sp needed	@
 1600 001a 70BD     		pop	{r4, r5, r6, pc}
 1601              	.L149:
 1602              		.align	2
 1603              	.L148:
 1604 001c 00000000 		.word	.LANCHOR0
 1605              		.cfi_endproc
 1606              	.LFE225:
 1607              		.size	Chip_I2C_MasterStateHandler, .-Chip_I2C_MasterStateHandler
 1608              		.section	.text.Chip_I2C_EventHandlerPolling,"ax",%progbits
 1609              		.align	2
 1610              		.global	Chip_I2C_EventHandlerPolling
 1611              		.code	16
 1612              		.thumb_func
 1613              		.type	Chip_I2C_EventHandlerPolling, %function
 1614              	Chip_I2C_EventHandlerPolling:
 1615              	.LFB213:
 349:../../lib/lpc11cx4-library/lpc_chip_11cxx_lib/src/i2c_11xx.c **** 	struct i2c_interface *iic = &i2c;
 1616              		.loc 1 349 0
 1617              		.cfi_startproc
 1618              		@ args = 0, pretend = 0, frame = 0
 1619              		@ frame_needed = 0, uses_anonymous_args = 0
 1620              	.LVL112:
 1621 0000 F8B5     		push	{r3, r4, r5, r6, r7, lr}	@
 1622              		.cfi_def_cfa_offset 24
 1623              		.cfi_offset 3, -24
 1624              		.cfi_offset 4, -20
 1625              		.cfi_offset 5, -16
 1626              		.cfi_offset 6, -12
 1627              		.cfi_offset 7, -8
 1628              		.cfi_offset 14, -4
 349:../../lib/lpc11cx4-library/lpc_chip_11cxx_lib/src/i2c_11xx.c **** 	struct i2c_interface *iic = &i2c;
 1629              		.loc 1 349 0
 1630 0002 0700     		movs	r7, r0	@ id, id
 354:../../lib/lpc11cx4-library/lpc_chip_11cxx_lib/src/i2c_11xx.c **** 		return;
 1631              		.loc 1 354 0
 1632 0004 0129     		cmp	r1, #1	@ event,
 1633 0006 00D0     		beq	.L158	@,
 1634              	.LVL113:
 1635              	.L150:
 365:../../lib/lpc11cx4-library/lpc_chip_11cxx_lib/src/i2c_11xx.c **** 
 1636              		.loc 1 365 0
 1637              		@ sp needed	@
 1638 0008 F8BD     		pop	{r3, r4, r5, r6, r7, pc}
 1639              	.LVL114:
 1640              	.L158:
 361:../../lib/lpc11cx4-library/lpc_chip_11cxx_lib/src/i2c_11xx.c **** 			Chip_I2C_MasterStateHandler(id);
 1641              		.loc 1 361 0
ARM GAS  /var/folders/z0/6xlwn_996xz3mwq1cgzkbq4r0000gp/T//cc0Pdjko.s 			page 47


 1642 000a 0825     		movs	r5, #8	@ tmp126,
 358:../../lib/lpc11cx4-library/lpc_chip_11cxx_lib/src/i2c_11xx.c **** 	/* Call the state change handler till xfer is done */
 1643              		.loc 1 358 0
 1644 000c 064E     		ldr	r6, .L159	@ tmp124,
 1645 000e 3469     		ldr	r4, [r6, #16]	@ D.6928, i2c.mXfer
 1646              	.LVL115:
 1647              	.L152:
 1648              	.LBB117:
 1649              	.LBB118:
 512:../../lib/lpc11cx4-library/lpc_chip_11cxx_lib/src/i2c_11xx.c **** 
 513:../../lib/lpc11cx4-library/lpc_chip_11cxx_lib/src/i2c_11xx.c **** /* Setup slave function */
 514:../../lib/lpc11cx4-library/lpc_chip_11cxx_lib/src/i2c_11xx.c **** void Chip_I2C_SlaveSetup(I2C_ID_T id,
 515:../../lib/lpc11cx4-library/lpc_chip_11cxx_lib/src/i2c_11xx.c **** 						 I2C_SLAVE_ID sid,
 516:../../lib/lpc11cx4-library/lpc_chip_11cxx_lib/src/i2c_11xx.c **** 						 I2C_XFER_T *xfer,
 517:../../lib/lpc11cx4-library/lpc_chip_11cxx_lib/src/i2c_11xx.c **** 						 I2C_EVENTHANDLER_T event,
 518:../../lib/lpc11cx4-library/lpc_chip_11cxx_lib/src/i2c_11xx.c **** 						 uint8_t addrMask)
 519:../../lib/lpc11cx4-library/lpc_chip_11cxx_lib/src/i2c_11xx.c **** {
 520:../../lib/lpc11cx4-library/lpc_chip_11cxx_lib/src/i2c_11xx.c **** 	struct i2c_interface *iic = &i2c;
 521:../../lib/lpc11cx4-library/lpc_chip_11cxx_lib/src/i2c_11xx.c **** 	struct i2c_slave_interface *si2c = &i2c_slave[id][sid];
 522:../../lib/lpc11cx4-library/lpc_chip_11cxx_lib/src/i2c_11xx.c **** 	si2c->xfer = xfer;
 523:../../lib/lpc11cx4-library/lpc_chip_11cxx_lib/src/i2c_11xx.c **** 	si2c->event = event;
 524:../../lib/lpc11cx4-library/lpc_chip_11cxx_lib/src/i2c_11xx.c **** 
 525:../../lib/lpc11cx4-library/lpc_chip_11cxx_lib/src/i2c_11xx.c **** 	/* Set up the slave address */
 526:../../lib/lpc11cx4-library/lpc_chip_11cxx_lib/src/i2c_11xx.c **** 	if (sid != I2C_SLAVE_GENERAL) {
 527:../../lib/lpc11cx4-library/lpc_chip_11cxx_lib/src/i2c_11xx.c **** 		setSlaveAddr(iic->ip, sid, xfer->slaveAddr, addrMask);
 528:../../lib/lpc11cx4-library/lpc_chip_11cxx_lib/src/i2c_11xx.c **** 	}
 529:../../lib/lpc11cx4-library/lpc_chip_11cxx_lib/src/i2c_11xx.c **** 
 530:../../lib/lpc11cx4-library/lpc_chip_11cxx_lib/src/i2c_11xx.c **** 	if (!SLAVE_ACTIVE(iic) && !iic->mXfer) {
 531:../../lib/lpc11cx4-library/lpc_chip_11cxx_lib/src/i2c_11xx.c **** 		startSlaverXfer(iic->ip);
 532:../../lib/lpc11cx4-library/lpc_chip_11cxx_lib/src/i2c_11xx.c **** 	}
 533:../../lib/lpc11cx4-library/lpc_chip_11cxx_lib/src/i2c_11xx.c **** 	iic->flags |= 1 << (sid + 8);
 534:../../lib/lpc11cx4-library/lpc_chip_11cxx_lib/src/i2c_11xx.c **** }
 535:../../lib/lpc11cx4-library/lpc_chip_11cxx_lib/src/i2c_11xx.c **** 
 536:../../lib/lpc11cx4-library/lpc_chip_11cxx_lib/src/i2c_11xx.c **** /* I2C Slave event handler */
 537:../../lib/lpc11cx4-library/lpc_chip_11cxx_lib/src/i2c_11xx.c **** void Chip_I2C_SlaveStateHandler(I2C_ID_T id)
 538:../../lib/lpc11cx4-library/lpc_chip_11cxx_lib/src/i2c_11xx.c **** {
 539:../../lib/lpc11cx4-library/lpc_chip_11cxx_lib/src/i2c_11xx.c **** 	int ret;
 540:../../lib/lpc11cx4-library/lpc_chip_11cxx_lib/src/i2c_11xx.c **** 	struct i2c_interface *iic = &i2c;
 541:../../lib/lpc11cx4-library/lpc_chip_11cxx_lib/src/i2c_11xx.c **** 
 542:../../lib/lpc11cx4-library/lpc_chip_11cxx_lib/src/i2c_11xx.c **** 	/* Get the currently addressed slave */
 543:../../lib/lpc11cx4-library/lpc_chip_11cxx_lib/src/i2c_11xx.c **** 	if (!iic->sXfer) {
 544:../../lib/lpc11cx4-library/lpc_chip_11cxx_lib/src/i2c_11xx.c **** 		struct i2c_slave_interface *si2c;
 545:../../lib/lpc11cx4-library/lpc_chip_11cxx_lib/src/i2c_11xx.c **** 
 546:../../lib/lpc11cx4-library/lpc_chip_11cxx_lib/src/i2c_11xx.c **** 		I2C_SLAVE_ID sid = getSlaveIndex(iic->ip);
 547:../../lib/lpc11cx4-library/lpc_chip_11cxx_lib/src/i2c_11xx.c **** 		si2c = &i2c_slave[id][sid];
 548:../../lib/lpc11cx4-library/lpc_chip_11cxx_lib/src/i2c_11xx.c **** 		iic->sXfer = si2c->xfer;
 549:../../lib/lpc11cx4-library/lpc_chip_11cxx_lib/src/i2c_11xx.c **** 		iic->sEvent = si2c->event;
 550:../../lib/lpc11cx4-library/lpc_chip_11cxx_lib/src/i2c_11xx.c **** 	}
 551:../../lib/lpc11cx4-library/lpc_chip_11cxx_lib/src/i2c_11xx.c **** 
 552:../../lib/lpc11cx4-library/lpc_chip_11cxx_lib/src/i2c_11xx.c **** 	iic->sXfer->slaveAddr |= iic->mXfer != 0;
 553:../../lib/lpc11cx4-library/lpc_chip_11cxx_lib/src/i2c_11xx.c **** 	ret = handleSlaveXferState(iic->ip, iic->sXfer);
 554:../../lib/lpc11cx4-library/lpc_chip_11cxx_lib/src/i2c_11xx.c **** 	if (ret) {
 555:../../lib/lpc11cx4-library/lpc_chip_11cxx_lib/src/i2c_11xx.c **** 		if (iic->sXfer->status == I2C_STATUS_DONE) {
 556:../../lib/lpc11cx4-library/lpc_chip_11cxx_lib/src/i2c_11xx.c **** 			iic->sXfer = 0;
 557:../../lib/lpc11cx4-library/lpc_chip_11cxx_lib/src/i2c_11xx.c **** 		}
 558:../../lib/lpc11cx4-library/lpc_chip_11cxx_lib/src/i2c_11xx.c **** 		iic->sEvent(id, (I2C_EVENT_T) ret);
 559:../../lib/lpc11cx4-library/lpc_chip_11cxx_lib/src/i2c_11xx.c **** 	}
ARM GAS  /var/folders/z0/6xlwn_996xz3mwq1cgzkbq4r0000gp/T//cc0Pdjko.s 			page 48


 560:../../lib/lpc11cx4-library/lpc_chip_11cxx_lib/src/i2c_11xx.c **** }
 561:../../lib/lpc11cx4-library/lpc_chip_11cxx_lib/src/i2c_11xx.c **** 
 562:../../lib/lpc11cx4-library/lpc_chip_11cxx_lib/src/i2c_11xx.c **** /* Disable I2C device */
 563:../../lib/lpc11cx4-library/lpc_chip_11cxx_lib/src/i2c_11xx.c **** void Chip_I2C_Disable(I2C_ID_T id)
 564:../../lib/lpc11cx4-library/lpc_chip_11cxx_lib/src/i2c_11xx.c **** {
 565:../../lib/lpc11cx4-library/lpc_chip_11cxx_lib/src/i2c_11xx.c **** 	UNUSED(id);
 566:../../lib/lpc11cx4-library/lpc_chip_11cxx_lib/src/i2c_11xx.c **** 	LPC_I2Cx(id)->CONCLR = I2C_I2CONCLR_I2ENC;
 567:../../lib/lpc11cx4-library/lpc_chip_11cxx_lib/src/i2c_11xx.c **** }
 568:../../lib/lpc11cx4-library/lpc_chip_11cxx_lib/src/i2c_11xx.c **** 
 569:../../lib/lpc11cx4-library/lpc_chip_11cxx_lib/src/i2c_11xx.c **** /* State change checking */
 570:../../lib/lpc11cx4-library/lpc_chip_11cxx_lib/src/i2c_11xx.c **** int Chip_I2C_IsStateChanged(I2C_ID_T id)
 571:../../lib/lpc11cx4-library/lpc_chip_11cxx_lib/src/i2c_11xx.c **** {
 572:../../lib/lpc11cx4-library/lpc_chip_11cxx_lib/src/i2c_11xx.c **** 	UNUSED(id);
 573:../../lib/lpc11cx4-library/lpc_chip_11cxx_lib/src/i2c_11xx.c **** 	return (LPC_I2Cx(id)->CONSET & I2C_CON_SI) != 0;
 1650              		.loc 1 573 0
 1651 0010 3268     		ldr	r2, [r6]	@ D.6930, i2c.ip
 1652              	.L153:
 1653              	.LBE118:
 1654              	.LBE117:
 360:../../lib/lpc11cx4-library/lpc_chip_11cxx_lib/src/i2c_11xx.c **** 		if (Chip_I2C_IsStateChanged(id)) {
 1655              		.loc 1 360 0
 1656 0012 237D     		ldrb	r3, [r4, #20]	@ MEM[(volatile I2C_STATUS_T *)_5 + 20B], MEM[(volatile I2C_STATUS_T *)_5 + 20B
 1657 0014 042B     		cmp	r3, #4	@ MEM[(volatile I2C_STATUS_T *)_5 + 20B],
 1658 0016 F7D1     		bne	.L150	@,
 1659              	.LVL116:
 1660              	.LBB120:
 1661              	.LBB119:
 1662              		.loc 1 573 0
 1663 0018 1368     		ldr	r3, [r2]	@ D.6931, _10->CONSET
 1664              	.LVL117:
 1665              	.LBE119:
 1666              	.LBE120:
 361:../../lib/lpc11cx4-library/lpc_chip_11cxx_lib/src/i2c_11xx.c **** 			Chip_I2C_MasterStateHandler(id);
 1667              		.loc 1 361 0
 1668 001a 1D42     		tst	r5, r3	@ tmp126, D.6931
 1669 001c F9D0     		beq	.L153	@,
 362:../../lib/lpc11cx4-library/lpc_chip_11cxx_lib/src/i2c_11xx.c **** 		}
 1670              		.loc 1 362 0
 1671 001e 3800     		movs	r0, r7	@, id
 1672 0020 FFF7FEFF 		bl	Chip_I2C_MasterStateHandler	@
 1673              	.LVL118:
 1674 0024 F4E7     		b	.L152	@
 1675              	.L160:
 1676 0026 C046     		.align	2
 1677              	.L159:
 1678 0028 00000000 		.word	.LANCHOR0
 1679              		.cfi_endproc
 1680              	.LFE213:
 1681              		.size	Chip_I2C_EventHandlerPolling, .-Chip_I2C_EventHandlerPolling
 1682              		.section	.text.Chip_I2C_SlaveSetup,"ax",%progbits
 1683              		.align	2
 1684              		.global	Chip_I2C_SlaveSetup
 1685              		.code	16
 1686              		.thumb_func
 1687              		.type	Chip_I2C_SlaveSetup, %function
 1688              	Chip_I2C_SlaveSetup:
 1689              	.LFB226:
ARM GAS  /var/folders/z0/6xlwn_996xz3mwq1cgzkbq4r0000gp/T//cc0Pdjko.s 			page 49


 519:../../lib/lpc11cx4-library/lpc_chip_11cxx_lib/src/i2c_11xx.c **** 	struct i2c_interface *iic = &i2c;
 1690              		.loc 1 519 0
 1691              		.cfi_startproc
 1692              		@ args = 4, pretend = 0, frame = 0
 1693              		@ frame_needed = 0, uses_anonymous_args = 0
 1694              	.LVL119:
 1695 0000 70B5     		push	{r4, r5, r6, lr}	@
 1696              		.cfi_def_cfa_offset 16
 1697              		.cfi_offset 4, -16
 1698              		.cfi_offset 5, -12
 1699              		.cfi_offset 6, -8
 1700              		.cfi_offset 14, -4
 519:../../lib/lpc11cx4-library/lpc_chip_11cxx_lib/src/i2c_11xx.c **** 	struct i2c_interface *iic = &i2c;
 1701              		.loc 1 519 0
 1702 0002 04AC     		add	r4, sp, #16	@ tmp136,,
 1703              	.LVL120:
 1704 0004 2678     		ldrb	r6, [r4]	@ addrMask, addrMask
 522:../../lib/lpc11cx4-library/lpc_chip_11cxx_lib/src/i2c_11xx.c **** 	si2c->event = event;
 1705              		.loc 1 522 0
 1706 0006 8400     		lsls	r4, r0, #2	@ tmp139, id,
 1707              	.LVL121:
 1708 0008 2418     		adds	r4, r4, r0	@ tmp140, tmp139, id
 1709 000a 164D     		ldr	r5, .L170	@ tmp137,
 1710 000c 6418     		adds	r4, r4, r1	@ tmp141, tmp140, sid
 1711 000e E000     		lsls	r0, r4, #3	@ tmp142, tmp141,
 1712              	.LVL122:
 1713 0010 4251     		str	r2, [r0, r5]	@ xfer, MEM[(struct i2c_slave_interface *)&i2c_slave][_4][_6].xfer
 523:../../lib/lpc11cx4-library/lpc_chip_11cxx_lib/src/i2c_11xx.c **** 
 1714              		.loc 1 523 0
 1715 0012 2818     		adds	r0, r5, r0	@ tmp149, tmp137, tmp142
 1716 0014 4360     		str	r3, [r0, #4]	@ event, MEM[(struct i2c_slave_interface *)&i2c_slave][_4][_6].event
 527:../../lib/lpc11cx4-library/lpc_chip_11cxx_lib/src/i2c_11xx.c **** 	}
 1717              		.loc 1 527 0
 1718 0016 1448     		ldr	r0, .L170+4	@ tmp170,
 526:../../lib/lpc11cx4-library/lpc_chip_11cxx_lib/src/i2c_11xx.c **** 		setSlaveAddr(iic->ip, sid, xfer->slaveAddr, addrMask);
 1719              		.loc 1 526 0
 1720 0018 0029     		cmp	r1, #0	@ sid,
 1721 001a 0DD0     		beq	.L162	@,
 527:../../lib/lpc11cx4-library/lpc_chip_11cxx_lib/src/i2c_11xx.c **** 	}
 1722              		.loc 1 527 0
 1723 001c 1478     		ldrb	r4, [r2]	@ D.6937, *xfer_8(D)
 1724              	.LBB121:
 1725              	.LBB122:
 137:../../lib/lpc11cx4-library/lpc_chip_11cxx_lib/src/i2c_11xx.c **** 	if (sid == I2C_SLAVE_0) {
 1726              		.loc 1 137 0
 1727 001e 0A00     		movs	r2, r1	@ tmp152, sid
 1728              	.LVL123:
 1729              	.LBE122:
 1730              	.LBE121:
 527:../../lib/lpc11cx4-library/lpc_chip_11cxx_lib/src/i2c_11xx.c **** 	}
 1731              		.loc 1 527 0
 1732 0020 0368     		ldr	r3, [r0]	@ D.6936, i2c.ip
 1733              	.LVL124:
 1734              	.LBB126:
 1735              	.LBB124:
 137:../../lib/lpc11cx4-library/lpc_chip_11cxx_lib/src/i2c_11xx.c **** 	if (sid == I2C_SLAVE_0) {
 1736              		.loc 1 137 0
ARM GAS  /var/folders/z0/6xlwn_996xz3mwq1cgzkbq4r0000gp/T//cc0Pdjko.s 			page 50


 1737 0022 0B32     		adds	r2, r2, #11	@ tmp152,
 1738 0024 9200     		lsls	r2, r2, #2	@ tmp153, tmp152,
 1739 0026 D650     		str	r6, [r2, r3]	@ addrMask, _12->MASK
 138:../../lib/lpc11cx4-library/lpc_chip_11cxx_lib/src/i2c_11xx.c **** 		pI2C->ADR0 = addr;
 1740              		.loc 1 138 0
 1741 0028 0129     		cmp	r1, #1	@ sid,
 1742 002a 13D0     		beq	.L168	@,
 1743              	.LVL125:
 1744              	.LBB123:
 143:../../lib/lpc11cx4-library/lpc_chip_11cxx_lib/src/i2c_11xx.c **** 	}
 1745              		.loc 1 143 0
 1746 002c 0F4A     		ldr	r2, .L170+8	@ tmp173,
 142:../../lib/lpc11cx4-library/lpc_chip_11cxx_lib/src/i2c_11xx.c **** 		abase[index - 1] = addr;
 1747              		.loc 1 142 0
 1748 002e 2033     		adds	r3, r3, #32	@ abase,
 1749              	.LVL126:
 143:../../lib/lpc11cx4-library/lpc_chip_11cxx_lib/src/i2c_11xx.c **** 	}
 1750              		.loc 1 143 0
 1751 0030 8A18     		adds	r2, r1, r2	@ D.6940, sid, tmp173
 1752 0032 9200     		lsls	r2, r2, #2	@ D.6940, D.6940,
 1753 0034 9B18     		adds	r3, r3, r2	@ D.6941, abase, D.6940
 1754              	.LVL127:
 1755 0036 1C60     		str	r4, [r3]	@ D.6937, *_33
 1756              	.LVL128:
 1757              	.L162:
 1758              	.LBE123:
 1759              	.LBE124:
 1760              	.LBE126:
 530:../../lib/lpc11cx4-library/lpc_chip_11cxx_lib/src/i2c_11xx.c **** 		startSlaverXfer(iic->ip);
 1761              		.loc 1 530 0
 1762 0038 FF22     		movs	r2, #255	@ tmp159,
 1763 003a 8369     		ldr	r3, [r0, #24]	@ D.6938, i2c.flags
 1764 003c 1202     		lsls	r2, r2, #8	@ tmp159, tmp159,
 1765 003e 1342     		tst	r3, r2	@ D.6938, tmp159
 1766 0040 02D1     		bne	.L164	@,
 530:../../lib/lpc11cx4-library/lpc_chip_11cxx_lib/src/i2c_11xx.c **** 		startSlaverXfer(iic->ip);
 1767              		.loc 1 530 0 is_stmt 0 discriminator 1
 1768 0042 0269     		ldr	r2, [r0, #16]	@ tmp174, i2c.mXfer
 1769 0044 002A     		cmp	r2, #0	@ tmp174,
 1770 0046 07D0     		beq	.L169	@,
 1771              	.L164:
 533:../../lib/lpc11cx4-library/lpc_chip_11cxx_lib/src/i2c_11xx.c **** }
 1772              		.loc 1 533 0 is_stmt 1
 1773 0048 0122     		movs	r2, #1	@ tmp168,
 1774 004a 0831     		adds	r1, r1, #8	@ D.6935,
 1775              	.LVL129:
 1776 004c 8A40     		lsls	r2, r2, r1	@ D.6935, tmp168, D.6935
 1777 004e 1343     		orrs	r3, r2	@ D.6938, D.6935
 1778 0050 8361     		str	r3, [r0, #24]	@ D.6938, i2c.flags
 534:../../lib/lpc11cx4-library/lpc_chip_11cxx_lib/src/i2c_11xx.c **** 
 1779              		.loc 1 534 0
 1780              		@ sp needed	@
 1781 0052 70BD     		pop	{r4, r5, r6, pc}
 1782              	.LVL130:
 1783              	.L168:
 1784              	.LBB127:
 1785              	.LBB125:
ARM GAS  /var/folders/z0/6xlwn_996xz3mwq1cgzkbq4r0000gp/T//cc0Pdjko.s 			page 51


 139:../../lib/lpc11cx4-library/lpc_chip_11cxx_lib/src/i2c_11xx.c **** 	}
 1786              		.loc 1 139 0
 1787 0054 DC60     		str	r4, [r3, #12]	@ D.6937, _12->ADR0
 1788 0056 EFE7     		b	.L162	@
 1789              	.LVL131:
 1790              	.L169:
 1791              	.LBE125:
 1792              	.LBE127:
 1793              	.LBB128:
 1794              	.LBB129:
 109:../../lib/lpc11cx4-library/lpc_chip_11cxx_lib/src/i2c_11xx.c **** 
 1795              		.loc 1 109 0
 1796 0058 3824     		movs	r4, #56	@ tmp163,
 1797              	.LBE129:
 1798              	.LBE128:
 531:../../lib/lpc11cx4-library/lpc_chip_11cxx_lib/src/i2c_11xx.c **** 	}
 1799              		.loc 1 531 0
 1800 005a 0268     		ldr	r2, [r0]	@ D.6936, i2c.ip
 1801              	.LVL132:
 1802              	.LBB131:
 1803              	.LBB130:
 109:../../lib/lpc11cx4-library/lpc_chip_11cxx_lib/src/i2c_11xx.c **** 
 1804              		.loc 1 109 0
 1805 005c 9461     		str	r4, [r2, #24]	@ tmp163, _19->CONCLR
 112:../../lib/lpc11cx4-library/lpc_chip_11cxx_lib/src/i2c_11xx.c **** }
 1806              		.loc 1 112 0
 1807 005e 0C34     		adds	r4, r4, #12	@ tmp164,
 1808 0060 1460     		str	r4, [r2]	@ tmp164, _19->CONSET
 1809 0062 F1E7     		b	.L164	@
 1810              	.L171:
 1811              		.align	2
 1812              	.L170:
 1813 0064 00000000 		.word	.LANCHOR1
 1814 0068 00000000 		.word	.LANCHOR0
 1815 006c FEFFFF3F 		.word	1073741822
 1816              	.LBE130:
 1817              	.LBE131:
 1818              		.cfi_endproc
 1819              	.LFE226:
 1820              		.size	Chip_I2C_SlaveSetup, .-Chip_I2C_SlaveSetup
 1821              		.section	.text.Chip_I2C_SlaveStateHandler,"ax",%progbits
 1822              		.align	2
 1823              		.global	Chip_I2C_SlaveStateHandler
 1824              		.code	16
 1825              		.thumb_func
 1826              		.type	Chip_I2C_SlaveStateHandler, %function
 1827              	Chip_I2C_SlaveStateHandler:
 1828              	.LFB227:
 538:../../lib/lpc11cx4-library/lpc_chip_11cxx_lib/src/i2c_11xx.c **** 	int ret;
 1829              		.loc 1 538 0
 1830              		.cfi_startproc
 1831              		@ args = 0, pretend = 0, frame = 0
 1832              		@ frame_needed = 0, uses_anonymous_args = 0
 1833              	.LVL133:
 1834 0000 F8B5     		push	{r3, r4, r5, r6, r7, lr}	@
 1835              		.cfi_def_cfa_offset 24
 1836              		.cfi_offset 3, -24
ARM GAS  /var/folders/z0/6xlwn_996xz3mwq1cgzkbq4r0000gp/T//cc0Pdjko.s 			page 52


 1837              		.cfi_offset 4, -20
 1838              		.cfi_offset 5, -16
 1839              		.cfi_offset 6, -12
 1840              		.cfi_offset 7, -8
 1841              		.cfi_offset 14, -4
 543:../../lib/lpc11cx4-library/lpc_chip_11cxx_lib/src/i2c_11xx.c **** 		struct i2c_slave_interface *si2c;
 1842              		.loc 1 543 0
 1843 0002 154D     		ldr	r5, .L182	@ tmp165,
 538:../../lib/lpc11cx4-library/lpc_chip_11cxx_lib/src/i2c_11xx.c **** 	int ret;
 1844              		.loc 1 538 0
 1845 0004 0600     		movs	r6, r0	@ id, id
 543:../../lib/lpc11cx4-library/lpc_chip_11cxx_lib/src/i2c_11xx.c **** 		struct i2c_slave_interface *si2c;
 1846              		.loc 1 543 0
 1847 0006 6C69     		ldr	r4, [r5, #20]	@ D.6946, i2c.sXfer
 1848              	.LBB132:
 546:../../lib/lpc11cx4-library/lpc_chip_11cxx_lib/src/i2c_11xx.c **** 		si2c = &i2c_slave[id][sid];
 1849              		.loc 1 546 0
 1850 0008 2F68     		ldr	r7, [r5]	@ D.6954, i2c.ip
 1851              	.LBE132:
 543:../../lib/lpc11cx4-library/lpc_chip_11cxx_lib/src/i2c_11xx.c **** 		struct i2c_slave_interface *si2c;
 1852              		.loc 1 543 0
 1853 000a 002C     		cmp	r4, #0	@ D.6946,
 1854 000c 15D0     		beq	.L180	@,
 1855              	.LVL134:
 1856              	.L174:
 552:../../lib/lpc11cx4-library/lpc_chip_11cxx_lib/src/i2c_11xx.c **** 	ret = handleSlaveXferState(iic->ip, iic->sXfer);
 1857              		.loc 1 552 0
 1858 000e 2A69     		ldr	r2, [r5, #16]	@ tmp153, i2c.mXfer
 553:../../lib/lpc11cx4-library/lpc_chip_11cxx_lib/src/i2c_11xx.c **** 	if (ret) {
 1859              		.loc 1 553 0
 1860 0010 2100     		movs	r1, r4	@, D.6946
 552:../../lib/lpc11cx4-library/lpc_chip_11cxx_lib/src/i2c_11xx.c **** 	ret = handleSlaveXferState(iic->ip, iic->sXfer);
 1861              		.loc 1 552 0
 1862 0012 531E     		subs	r3, r2, #1	@ tmp154, tmp153
 1863 0014 9A41     		sbcs	r2, r2, r3	@ tmp153, tmp153, tmp154
 1864 0016 2378     		ldrb	r3, [r4]	@ *_41, *_41
 553:../../lib/lpc11cx4-library/lpc_chip_11cxx_lib/src/i2c_11xx.c **** 	if (ret) {
 1865              		.loc 1 553 0
 1866 0018 3800     		movs	r0, r7	@, D.6954
 552:../../lib/lpc11cx4-library/lpc_chip_11cxx_lib/src/i2c_11xx.c **** 	ret = handleSlaveXferState(iic->ip, iic->sXfer);
 1867              		.loc 1 552 0
 1868 001a 1343     		orrs	r3, r2	@ tmp157, tmp153
 1869 001c 2370     		strb	r3, [r4]	@ tmp157, _41->slaveAddr
 553:../../lib/lpc11cx4-library/lpc_chip_11cxx_lib/src/i2c_11xx.c **** 	if (ret) {
 1870              		.loc 1 553 0
 1871 001e FFF7FEFF 		bl	handleSlaveXferState	@
 1872              	.LVL135:
 554:../../lib/lpc11cx4-library/lpc_chip_11cxx_lib/src/i2c_11xx.c **** 		if (iic->sXfer->status == I2C_STATUS_DONE) {
 1873              		.loc 1 554 0
 1874 0022 0028     		cmp	r0, #0	@ ret,
 1875 0024 06D0     		beq	.L172	@,
 555:../../lib/lpc11cx4-library/lpc_chip_11cxx_lib/src/i2c_11xx.c **** 			iic->sXfer = 0;
 1876              		.loc 1 555 0
 1877 0026 237D     		ldrb	r3, [r4, #20]	@ tmp159,
 1878 0028 002B     		cmp	r3, #0	@ tmp159,
 1879 002a 04D0     		beq	.L181	@,
 1880              	.L176:
ARM GAS  /var/folders/z0/6xlwn_996xz3mwq1cgzkbq4r0000gp/T//cc0Pdjko.s 			page 53


 558:../../lib/lpc11cx4-library/lpc_chip_11cxx_lib/src/i2c_11xx.c **** 	}
 1881              		.loc 1 558 0
 1882 002c C1B2     		uxtb	r1, r0	@ ret, ret
 1883 002e EB68     		ldr	r3, [r5, #12]	@ i2c.sEvent, i2c.sEvent
 1884 0030 3000     		movs	r0, r6	@, id
 1885              	.LVL136:
 1886 0032 9847     		blx	r3	@ i2c.sEvent
 1887              	.LVL137:
 1888              	.L172:
 560:../../lib/lpc11cx4-library/lpc_chip_11cxx_lib/src/i2c_11xx.c **** 
 1889              		.loc 1 560 0
 1890              		@ sp needed	@
 1891 0034 F8BD     		pop	{r3, r4, r5, r6, r7, pc}
 1892              	.LVL138:
 1893              	.L181:
 556:../../lib/lpc11cx4-library/lpc_chip_11cxx_lib/src/i2c_11xx.c **** 		}
 1894              		.loc 1 556 0
 1895 0036 6B61     		str	r3, [r5, #20]	@ tmp159, i2c.sXfer
 1896 0038 F8E7     		b	.L176	@
 1897              	.LVL139:
 1898              	.L180:
 1899              	.LBB133:
 546:../../lib/lpc11cx4-library/lpc_chip_11cxx_lib/src/i2c_11xx.c **** 		si2c = &i2c_slave[id][sid];
 1900              		.loc 1 546 0
 1901 003a 3800     		movs	r0, r7	@, D.6954
 1902              	.LVL140:
 1903 003c FFF7FEFF 		bl	getSlaveIndex	@
 1904              	.LVL141:
 548:../../lib/lpc11cx4-library/lpc_chip_11cxx_lib/src/i2c_11xx.c **** 		iic->sEvent = si2c->event;
 1905              		.loc 1 548 0
 1906 0040 B300     		lsls	r3, r6, #2	@ tmp135, id,
 1907 0042 9B19     		adds	r3, r3, r6	@ tmp136, tmp135, id
 1908 0044 0549     		ldr	r1, .L182+4	@ tmp133,
 1909 0046 1B18     		adds	r3, r3, r0	@ tmp137, tmp136, tmp131
 1910 0048 D800     		lsls	r0, r3, #3	@ tmp138, tmp137,
 1911              	.LVL142:
 1912 004a 4458     		ldr	r4, [r0, r1]	@ D.6946, MEM[(struct i2c_slave_interface *)&i2c_slave][_10][_11].xfer
 549:../../lib/lpc11cx4-library/lpc_chip_11cxx_lib/src/i2c_11xx.c **** 	}
 1913              		.loc 1 549 0
 1914 004c 0818     		adds	r0, r1, r0	@ tmp147, tmp133, tmp138
 1915 004e 4368     		ldr	r3, [r0, #4]	@ tmp168, MEM[(struct i2c_slave_interface *)&i2c_slave][_10][_11].event
 548:../../lib/lpc11cx4-library/lpc_chip_11cxx_lib/src/i2c_11xx.c **** 		iic->sEvent = si2c->event;
 1916              		.loc 1 548 0
 1917 0050 6C61     		str	r4, [r5, #20]	@ D.6946, i2c.sXfer
 549:../../lib/lpc11cx4-library/lpc_chip_11cxx_lib/src/i2c_11xx.c **** 	}
 1918              		.loc 1 549 0
 1919 0052 EB60     		str	r3, [r5, #12]	@ tmp168, i2c.sEvent
 1920 0054 DBE7     		b	.L174	@
 1921              	.L183:
 1922 0056 C046     		.align	2
 1923              	.L182:
 1924 0058 00000000 		.word	.LANCHOR0
 1925 005c 00000000 		.word	.LANCHOR1
 1926              	.LBE133:
 1927              		.cfi_endproc
 1928              	.LFE227:
 1929              		.size	Chip_I2C_SlaveStateHandler, .-Chip_I2C_SlaveStateHandler
ARM GAS  /var/folders/z0/6xlwn_996xz3mwq1cgzkbq4r0000gp/T//cc0Pdjko.s 			page 54


 1930              		.section	.text.Chip_I2C_Disable,"ax",%progbits
 1931              		.align	2
 1932              		.global	Chip_I2C_Disable
 1933              		.code	16
 1934              		.thumb_func
 1935              		.type	Chip_I2C_Disable, %function
 1936              	Chip_I2C_Disable:
 1937              	.LFB228:
 564:../../lib/lpc11cx4-library/lpc_chip_11cxx_lib/src/i2c_11xx.c **** 	UNUSED(id);
 1938              		.loc 1 564 0
 1939              		.cfi_startproc
 1940              		@ args = 0, pretend = 0, frame = 0
 1941              		@ frame_needed = 0, uses_anonymous_args = 0
 1942              		@ link register save eliminated.
 1943              	.LVL143:
 566:../../lib/lpc11cx4-library/lpc_chip_11cxx_lib/src/i2c_11xx.c **** }
 1944              		.loc 1 566 0
 1945 0000 4022     		movs	r2, #64	@ tmp113,
 1946 0002 024B     		ldr	r3, .L185	@ tmp112,
 567:../../lib/lpc11cx4-library/lpc_chip_11cxx_lib/src/i2c_11xx.c **** 
 1947              		.loc 1 567 0
 1948              		@ sp needed	@
 566:../../lib/lpc11cx4-library/lpc_chip_11cxx_lib/src/i2c_11xx.c **** }
 1949              		.loc 1 566 0
 1950 0004 1B68     		ldr	r3, [r3]	@ D.6959, i2c.ip
 1951 0006 9A61     		str	r2, [r3, #24]	@ tmp113, _2->CONCLR
 567:../../lib/lpc11cx4-library/lpc_chip_11cxx_lib/src/i2c_11xx.c **** 
 1952              		.loc 1 567 0
 1953 0008 7047     		bx	lr
 1954              	.L186:
 1955 000a C046     		.align	2
 1956              	.L185:
 1957 000c 00000000 		.word	.LANCHOR0
 1958              		.cfi_endproc
 1959              	.LFE228:
 1960              		.size	Chip_I2C_Disable, .-Chip_I2C_Disable
 1961              		.section	.text.Chip_I2C_IsStateChanged,"ax",%progbits
 1962              		.align	2
 1963              		.global	Chip_I2C_IsStateChanged
 1964              		.code	16
 1965              		.thumb_func
 1966              		.type	Chip_I2C_IsStateChanged, %function
 1967              	Chip_I2C_IsStateChanged:
 1968              	.LFB229:
 571:../../lib/lpc11cx4-library/lpc_chip_11cxx_lib/src/i2c_11xx.c **** 	UNUSED(id);
 1969              		.loc 1 571 0
 1970              		.cfi_startproc
 1971              		@ args = 0, pretend = 0, frame = 0
 1972              		@ frame_needed = 0, uses_anonymous_args = 0
 1973              		@ link register save eliminated.
 1974              	.LVL144:
 1975              		.loc 1 573 0
 1976 0000 024B     		ldr	r3, .L188	@ tmp117,
 574:../../lib/lpc11cx4-library/lpc_chip_11cxx_lib/src/i2c_11xx.c **** }
 1977              		.loc 1 574 0
 1978              		@ sp needed	@
 573:../../lib/lpc11cx4-library/lpc_chip_11cxx_lib/src/i2c_11xx.c **** }
ARM GAS  /var/folders/z0/6xlwn_996xz3mwq1cgzkbq4r0000gp/T//cc0Pdjko.s 			page 55


 1979              		.loc 1 573 0
 1980 0002 1B68     		ldr	r3, [r3]	@ D.6963, i2c.ip
 1981 0004 1868     		ldr	r0, [r3]	@ D.6964, _2->CONSET
 1982              	.LVL145:
 1983 0006 0007     		lsls	r0, r0, #28	@ tmp120, D.6964,
 1984 0008 C00F     		lsrs	r0, r0, #31	@ D.6965, tmp120,
 1985              		.loc 1 574 0
 1986 000a 7047     		bx	lr
 1987              	.L189:
 1988              		.align	2
 1989              	.L188:
 1990 000c 00000000 		.word	.LANCHOR0
 1991              		.cfi_endproc
 1992              	.LFE229:
 1993              		.size	Chip_I2C_IsStateChanged, .-Chip_I2C_IsStateChanged
 1994              		.section	.data.i2c,"aw",%progbits
 1995              		.align	2
 1996              		.set	.LANCHOR0,. + 0
 1997              		.type	i2c, %object
 1998              		.size	i2c, 28
 1999              	i2c:
 2000              	@ ip:
 2001 0000 00000040 		.word	1073741824
 2002              	@ clk:
 2003 0004 05       		.byte	5
 2004              	@ mEvent:
 2005 0005 000000   		.space	3
 2006 0008 00000000 		.word	Chip_I2C_EventHandler
 2007              	@ sEvent:
 2008 000c 00000000 		.word	0
 2009              	@ mXfer:
 2010 0010 00000000 		.word	0
 2011              	@ sXfer:
 2012 0014 00000000 		.word	0
 2013              	@ flags:
 2014 0018 00000000 		.word	0
 2015              		.section	.bss.i2c_slave,"aw",%nobits
 2016              		.align	2
 2017              		.set	.LANCHOR1,. + 0
 2018              		.type	i2c_slave, %object
 2019              		.size	i2c_slave, 40
 2020              	i2c_slave:
 2021 0000 00000000 		.space	40
 2021      00000000 
 2021      00000000 
 2021      00000000 
 2021      00000000 
 2022              		.text
 2023              	.Letext0:
 2024              		.file 3 "/usr/local/Cellar/gcc-arm-none-eabi/20160928/arm-none-eabi/include/machine/_default_types
 2025              		.file 4 "/usr/local/Cellar/gcc-arm-none-eabi/20160928/arm-none-eabi/include/sys/_stdint.h"
 2026              		.file 5 "../../lib/lpc11cx4-library/lpc_chip_11cxx_lib/inc/sysctl_11xx.h"
 2027              		.file 6 "../../lib/lpc11cx4-library/lpc_chip_11cxx_lib/inc/i2c_11xx.h"
 2028              		.file 7 "../../lib/lpc11cx4-library/lpc_chip_11cxx_lib/inc/chip.h"
 2029              		.section	.debug_info,"",%progbits
 2030              	.Ldebug_info0:
 2031 0000 AE130000 		.4byte	0x13ae
ARM GAS  /var/folders/z0/6xlwn_996xz3mwq1cgzkbq4r0000gp/T//cc0Pdjko.s 			page 56


 2032 0004 0400     		.2byte	0x4
 2033 0006 00000000 		.4byte	.Ldebug_abbrev0
 2034 000a 04       		.byte	0x4
 2035 000b 01       		.uleb128 0x1
 2036 000c 70460000 		.4byte	.LASF1262
 2037 0010 01       		.byte	0x1
 2038 0011 A2620000 		.4byte	.LASF1263
 2039 0015 7A4A0000 		.4byte	.LASF1264
 2040 0019 C8000000 		.4byte	.Ldebug_ranges0+0xc8
 2041 001d 00000000 		.4byte	0
 2042 0021 00000000 		.4byte	.Ldebug_line0
 2043 0025 00000000 		.4byte	.Ldebug_macro0
 2044 0029 02       		.uleb128 0x2
 2045 002a 01       		.byte	0x1
 2046 002b 06       		.byte	0x6
 2047 002c 681A0000 		.4byte	.LASF1058
 2048 0030 03       		.uleb128 0x3
 2049 0031 F80F0000 		.4byte	.LASF1063
 2050 0035 03       		.byte	0x3
 2051 0036 1D       		.byte	0x1d
 2052 0037 3B000000 		.4byte	0x3b
 2053 003b 02       		.uleb128 0x2
 2054 003c 01       		.byte	0x1
 2055 003d 08       		.byte	0x8
 2056 003e B91D0000 		.4byte	.LASF1059
 2057 0042 02       		.uleb128 0x2
 2058 0043 02       		.byte	0x2
 2059 0044 05       		.byte	0x5
 2060 0045 A9680000 		.4byte	.LASF1060
 2061 0049 02       		.uleb128 0x2
 2062 004a 02       		.byte	0x2
 2063 004b 07       		.byte	0x7
 2064 004c E3760000 		.4byte	.LASF1061
 2065 0050 02       		.uleb128 0x2
 2066 0051 04       		.byte	0x4
 2067 0052 05       		.byte	0x5
 2068 0053 9D130000 		.4byte	.LASF1062
 2069 0057 03       		.uleb128 0x3
 2070 0058 923F0000 		.4byte	.LASF1064
 2071 005c 03       		.byte	0x3
 2072 005d 41       		.byte	0x41
 2073 005e 62000000 		.4byte	0x62
 2074 0062 02       		.uleb128 0x2
 2075 0063 04       		.byte	0x4
 2076 0064 07       		.byte	0x7
 2077 0065 D1360000 		.4byte	.LASF1065
 2078 0069 02       		.uleb128 0x2
 2079 006a 08       		.byte	0x8
 2080 006b 05       		.byte	0x5
 2081 006c F43F0000 		.4byte	.LASF1066
 2082 0070 02       		.uleb128 0x2
 2083 0071 08       		.byte	0x8
 2084 0072 07       		.byte	0x7
 2085 0073 2E590000 		.4byte	.LASF1067
 2086 0077 04       		.uleb128 0x4
 2087 0078 04       		.byte	0x4
 2088 0079 05       		.byte	0x5
ARM GAS  /var/folders/z0/6xlwn_996xz3mwq1cgzkbq4r0000gp/T//cc0Pdjko.s 			page 57


 2089 007a 696E7400 		.ascii	"int\000"
 2090 007e 02       		.uleb128 0x2
 2091 007f 04       		.byte	0x4
 2092 0080 07       		.byte	0x7
 2093 0081 7D480000 		.4byte	.LASF1068
 2094 0085 03       		.uleb128 0x3
 2095 0086 B11A0000 		.4byte	.LASF1069
 2096 008a 04       		.byte	0x4
 2097 008b 18       		.byte	0x18
 2098 008c 30000000 		.4byte	0x30
 2099 0090 03       		.uleb128 0x3
 2100 0091 24730000 		.4byte	.LASF1070
 2101 0095 04       		.byte	0x4
 2102 0096 30       		.byte	0x30
 2103 0097 57000000 		.4byte	0x57
 2104 009b 02       		.uleb128 0x2
 2105 009c 01       		.byte	0x1
 2106 009d 08       		.byte	0x8
 2107 009e C9220000 		.4byte	.LASF392
 2108 00a2 02       		.uleb128 0x2
 2109 00a3 01       		.byte	0x1
 2110 00a4 02       		.byte	0x2
 2111 00a5 4B210000 		.4byte	.LASF1071
 2112 00a9 02       		.uleb128 0x2
 2113 00aa 04       		.byte	0x4
 2114 00ab 07       		.byte	0x7
 2115 00ac 9E010000 		.4byte	.LASF1072
 2116 00b0 05       		.uleb128 0x5
 2117 00b1 90000000 		.4byte	0x90
 2118 00b5 06       		.uleb128 0x6
 2119 00b6 B0000000 		.4byte	0xb0
 2120 00ba C5000000 		.4byte	0xc5
 2121 00be 07       		.uleb128 0x7
 2122 00bf A9000000 		.4byte	0xa9
 2123 00c3 07       		.byte	0x7
 2124 00c4 00       		.byte	0
 2125 00c5 08       		.uleb128 0x8
 2126 00c6 B0000000 		.4byte	0xb0
 2127 00ca 06       		.uleb128 0x6
 2128 00cb B0000000 		.4byte	0xb0
 2129 00cf DA000000 		.4byte	0xda
 2130 00d3 07       		.uleb128 0x7
 2131 00d4 A9000000 		.4byte	0xa9
 2132 00d8 03       		.byte	0x3
 2133 00d9 00       		.byte	0
 2134 00da 06       		.uleb128 0x6
 2135 00db C5000000 		.4byte	0xc5
 2136 00df EA000000 		.4byte	0xea
 2137 00e3 07       		.uleb128 0x7
 2138 00e4 A9000000 		.4byte	0xa9
 2139 00e8 03       		.byte	0x3
 2140 00e9 00       		.byte	0
 2141 00ea 06       		.uleb128 0x6
 2142 00eb C5000000 		.4byte	0xc5
 2143 00ef FA000000 		.4byte	0xfa
 2144 00f3 07       		.uleb128 0x7
 2145 00f4 A9000000 		.4byte	0xa9
ARM GAS  /var/folders/z0/6xlwn_996xz3mwq1cgzkbq4r0000gp/T//cc0Pdjko.s 			page 58


 2146 00f8 02       		.byte	0x2
 2147 00f9 00       		.byte	0
 2148 00fa 09       		.uleb128 0x9
 2149 00fb F803     		.2byte	0x3f8
 2150 00fd 05       		.byte	0x5
 2151 00fe 2F       		.byte	0x2f
 2152 00ff 0F040000 		.4byte	0x40f
 2153 0103 0A       		.uleb128 0xa
 2154 0104 432E0000 		.4byte	.LASF1073
 2155 0108 05       		.byte	0x5
 2156 0109 30       		.byte	0x30
 2157 010a B0000000 		.4byte	0xb0
 2158 010e 00       		.byte	0
 2159 010f 0A       		.uleb128 0xa
 2160 0110 115E0000 		.4byte	.LASF1074
 2161 0114 05       		.byte	0x5
 2162 0115 31       		.byte	0x31
 2163 0116 B0000000 		.4byte	0xb0
 2164 011a 04       		.byte	0x4
 2165 011b 0A       		.uleb128 0xa
 2166 011c 952D0000 		.4byte	.LASF1075
 2167 0120 05       		.byte	0x5
 2168 0121 32       		.byte	0x32
 2169 0122 B0000000 		.4byte	0xb0
 2170 0126 08       		.byte	0x8
 2171 0127 0A       		.uleb128 0xa
 2172 0128 E36F0000 		.4byte	.LASF1076
 2173 012c 05       		.byte	0x5
 2174 012d 33       		.byte	0x33
 2175 012e C5000000 		.4byte	0xc5
 2176 0132 0C       		.byte	0xc
 2177 0133 0A       		.uleb128 0xa
 2178 0134 CA6F0000 		.4byte	.LASF1077
 2179 0138 05       		.byte	0x5
 2180 0139 34       		.byte	0x34
 2181 013a B0000000 		.4byte	0xb0
 2182 013e 10       		.byte	0x10
 2183 013f 0A       		.uleb128 0xa
 2184 0140 8A340000 		.4byte	.LASF1078
 2185 0144 05       		.byte	0x5
 2186 0145 35       		.byte	0x35
 2187 0146 C5000000 		.4byte	0xc5
 2188 014a 14       		.byte	0x14
 2189 014b 0A       		.uleb128 0xa
 2190 014c AF1D0000 		.4byte	.LASF1079
 2191 0150 05       		.byte	0x5
 2192 0151 36       		.byte	0x36
 2193 0152 24040000 		.4byte	0x424
 2194 0156 18       		.byte	0x18
 2195 0157 0A       		.uleb128 0xa
 2196 0158 AB530000 		.4byte	.LASF1080
 2197 015c 05       		.byte	0x5
 2198 015d 37       		.byte	0x37
 2199 015e B0000000 		.4byte	0xb0
 2200 0162 20       		.byte	0x20
 2201 0163 0A       		.uleb128 0xa
 2202 0164 2E750000 		.4byte	.LASF1081
ARM GAS  /var/folders/z0/6xlwn_996xz3mwq1cgzkbq4r0000gp/T//cc0Pdjko.s 			page 59


 2203 0168 05       		.byte	0x5
 2204 0169 38       		.byte	0x38
 2205 016a B0000000 		.4byte	0xb0
 2206 016e 24       		.byte	0x24
 2207 016f 0A       		.uleb128 0xa
 2208 0170 0F5D0000 		.4byte	.LASF1082
 2209 0174 05       		.byte	0x5
 2210 0175 39       		.byte	0x39
 2211 0176 B0000000 		.4byte	0xb0
 2212 017a 28       		.byte	0x28
 2213 017b 0A       		.uleb128 0xa
 2214 017c 9B660000 		.4byte	.LASF1083
 2215 0180 05       		.byte	0x5
 2216 0181 3A       		.byte	0x3a
 2217 0182 B0000000 		.4byte	0xb0
 2218 0186 2C       		.byte	0x2c
 2219 0187 0A       		.uleb128 0xa
 2220 0188 50420000 		.4byte	.LASF1084
 2221 018c 05       		.byte	0x5
 2222 018d 3B       		.byte	0x3b
 2223 018e B0000000 		.4byte	0xb0
 2224 0192 30       		.byte	0x30
 2225 0193 0A       		.uleb128 0xa
 2226 0194 00220000 		.4byte	.LASF1085
 2227 0198 05       		.byte	0x5
 2228 0199 3C       		.byte	0x3c
 2229 019a 2E040000 		.4byte	0x42e
 2230 019e 34       		.byte	0x34
 2231 019f 0A       		.uleb128 0xa
 2232 01a0 F6140000 		.4byte	.LASF1086
 2233 01a4 05       		.byte	0x5
 2234 01a5 3D       		.byte	0x3d
 2235 01a6 B0000000 		.4byte	0xb0
 2236 01aa 40       		.byte	0x40
 2237 01ab 0A       		.uleb128 0xa
 2238 01ac A4480000 		.4byte	.LASF1087
 2239 01b0 05       		.byte	0x5
 2240 01b1 3E       		.byte	0x3e
 2241 01b2 B0000000 		.4byte	0xb0
 2242 01b6 44       		.byte	0x44
 2243 01b7 0A       		.uleb128 0xa
 2244 01b8 DC1A0000 		.4byte	.LASF1088
 2245 01bc 05       		.byte	0x5
 2246 01bd 3F       		.byte	0x3f
 2247 01be B0000000 		.4byte	0xb0
 2248 01c2 48       		.byte	0x48
 2249 01c3 0A       		.uleb128 0xa
 2250 01c4 E94E0000 		.4byte	.LASF1089
 2251 01c8 05       		.byte	0x5
 2252 01c9 40       		.byte	0x40
 2253 01ca B0000000 		.4byte	0xb0
 2254 01ce 4C       		.byte	0x4c
 2255 01cf 0A       		.uleb128 0xa
 2256 01d0 C71D0000 		.4byte	.LASF1090
 2257 01d4 05       		.byte	0x5
 2258 01d5 41       		.byte	0x41
 2259 01d6 48040000 		.4byte	0x448
ARM GAS  /var/folders/z0/6xlwn_996xz3mwq1cgzkbq4r0000gp/T//cc0Pdjko.s 			page 60


 2260 01da 50       		.byte	0x50
 2261 01db 0A       		.uleb128 0xa
 2262 01dc 351E0000 		.4byte	.LASF1091
 2263 01e0 05       		.byte	0x5
 2264 01e1 42       		.byte	0x42
 2265 01e2 B0000000 		.4byte	0xb0
 2266 01e6 70       		.byte	0x70
 2267 01e7 0A       		.uleb128 0xa
 2268 01e8 23520000 		.4byte	.LASF1092
 2269 01ec 05       		.byte	0x5
 2270 01ed 43       		.byte	0x43
 2271 01ee B0000000 		.4byte	0xb0
 2272 01f2 74       		.byte	0x74
 2273 01f3 0A       		.uleb128 0xa
 2274 01f4 AC4B0000 		.4byte	.LASF1093
 2275 01f8 05       		.byte	0x5
 2276 01f9 44       		.byte	0x44
 2277 01fa B0000000 		.4byte	0xb0
 2278 01fe 78       		.byte	0x78
 2279 01ff 0A       		.uleb128 0xa
 2280 0200 D11D0000 		.4byte	.LASF1094
 2281 0204 05       		.byte	0x5
 2282 0205 45       		.byte	0x45
 2283 0206 C5000000 		.4byte	0xc5
 2284 020a 7C       		.byte	0x7c
 2285 020b 0A       		.uleb128 0xa
 2286 020c E75C0000 		.4byte	.LASF1095
 2287 0210 05       		.byte	0x5
 2288 0211 46       		.byte	0x46
 2289 0212 B0000000 		.4byte	0xb0
 2290 0216 80       		.byte	0x80
 2291 0217 0A       		.uleb128 0xa
 2292 0218 DB1D0000 		.4byte	.LASF1096
 2293 021c 05       		.byte	0x5
 2294 021d 47       		.byte	0x47
 2295 021e 52040000 		.4byte	0x452
 2296 0222 84       		.byte	0x84
 2297 0223 0A       		.uleb128 0xa
 2298 0224 9C700000 		.4byte	.LASF1097
 2299 0228 05       		.byte	0x5
 2300 0229 48       		.byte	0x48
 2301 022a B0000000 		.4byte	0xb0
 2302 022e 94       		.byte	0x94
 2303 022f 0A       		.uleb128 0xa
 2304 0230 2C230000 		.4byte	.LASF1098
 2305 0234 05       		.byte	0x5
 2306 0235 49       		.byte	0x49
 2307 0236 B0000000 		.4byte	0xb0
 2308 023a 98       		.byte	0x98
 2309 023b 0A       		.uleb128 0xa
 2310 023c 69760000 		.4byte	.LASF1099
 2311 0240 05       		.byte	0x5
 2312 0241 4A       		.byte	0x4a
 2313 0242 B0000000 		.4byte	0xb0
 2314 0246 9C       		.byte	0x9c
 2315 0247 0A       		.uleb128 0xa
 2316 0248 E51D0000 		.4byte	.LASF1100
ARM GAS  /var/folders/z0/6xlwn_996xz3mwq1cgzkbq4r0000gp/T//cc0Pdjko.s 			page 61


 2317 024c 05       		.byte	0x5
 2318 024d 4B       		.byte	0x4b
 2319 024e 5C040000 		.4byte	0x45c
 2320 0252 A0       		.byte	0xa0
 2321 0253 0A       		.uleb128 0xa
 2322 0254 4C7A0000 		.4byte	.LASF1101
 2323 0258 05       		.byte	0x5
 2324 0259 4C       		.byte	0x4c
 2325 025a B0000000 		.4byte	0xb0
 2326 025e C0       		.byte	0xc0
 2327 025f 0A       		.uleb128 0xa
 2328 0260 8A300000 		.4byte	.LASF1102
 2329 0264 05       		.byte	0x5
 2330 0265 4D       		.byte	0x4d
 2331 0266 B0000000 		.4byte	0xb0
 2332 026a C4       		.byte	0xc4
 2333 026b 0A       		.uleb128 0xa
 2334 026c 2F0A0000 		.4byte	.LASF1103
 2335 0270 05       		.byte	0x5
 2336 0271 4E       		.byte	0x4e
 2337 0272 B0000000 		.4byte	0xb0
 2338 0276 C8       		.byte	0xc8
 2339 0277 0A       		.uleb128 0xa
 2340 0278 EF1D0000 		.4byte	.LASF1104
 2341 027c 05       		.byte	0x5
 2342 027d 4F       		.byte	0x4f
 2343 027e C5000000 		.4byte	0xc5
 2344 0282 CC       		.byte	0xcc
 2345 0283 0A       		.uleb128 0xa
 2346 0284 70600000 		.4byte	.LASF1105
 2347 0288 05       		.byte	0x5
 2348 0289 50       		.byte	0x50
 2349 028a B0000000 		.4byte	0xb0
 2350 028e D0       		.byte	0xd0
 2351 028f 0A       		.uleb128 0xa
 2352 0290 13150000 		.4byte	.LASF1106
 2353 0294 05       		.byte	0x5
 2354 0295 51       		.byte	0x51
 2355 0296 B0000000 		.4byte	0xb0
 2356 029a D4       		.byte	0xd4
 2357 029b 0A       		.uleb128 0xa
 2358 029c 316F0000 		.4byte	.LASF1107
 2359 02a0 05       		.byte	0x5
 2360 02a1 52       		.byte	0x52
 2361 02a2 B0000000 		.4byte	0xb0
 2362 02a6 D8       		.byte	0xd8
 2363 02a7 0A       		.uleb128 0xa
 2364 02a8 F91D0000 		.4byte	.LASF1108
 2365 02ac 05       		.byte	0x5
 2366 02ad 53       		.byte	0x53
 2367 02ae C5000000 		.4byte	0xc5
 2368 02b2 DC       		.byte	0xdc
 2369 02b3 0A       		.uleb128 0xa
 2370 02b4 1C680000 		.4byte	.LASF1109
 2371 02b8 05       		.byte	0x5
 2372 02b9 54       		.byte	0x54
 2373 02ba B0000000 		.4byte	0xb0
ARM GAS  /var/folders/z0/6xlwn_996xz3mwq1cgzkbq4r0000gp/T//cc0Pdjko.s 			page 62


 2374 02be E0       		.byte	0xe0
 2375 02bf 0A       		.uleb128 0xa
 2376 02c0 8C1B0000 		.4byte	.LASF1110
 2377 02c4 05       		.byte	0x5
 2378 02c5 55       		.byte	0x55
 2379 02c6 B0000000 		.4byte	0xb0
 2380 02ca E4       		.byte	0xe4
 2381 02cb 0A       		.uleb128 0xa
 2382 02cc 87750000 		.4byte	.LASF1111
 2383 02d0 05       		.byte	0x5
 2384 02d1 56       		.byte	0x56
 2385 02d2 B0000000 		.4byte	0xb0
 2386 02d6 E8       		.byte	0xe8
 2387 02d7 0A       		.uleb128 0xa
 2388 02d8 031E0000 		.4byte	.LASF1112
 2389 02dc 05       		.byte	0x5
 2390 02dd 57       		.byte	0x57
 2391 02de 76040000 		.4byte	0x476
 2392 02e2 EC       		.byte	0xec
 2393 02e3 0B       		.uleb128 0xb
 2394 02e4 4D140000 		.4byte	.LASF1113
 2395 02e8 05       		.byte	0x5
 2396 02e9 58       		.byte	0x58
 2397 02ea 80040000 		.4byte	0x480
 2398 02ee 0001     		.2byte	0x100
 2399 02f0 0B       		.uleb128 0xb
 2400 02f1 8D5B0000 		.4byte	.LASF1114
 2401 02f5 05       		.byte	0x5
 2402 02f6 59       		.byte	0x59
 2403 02f7 9A040000 		.4byte	0x49a
 2404 02fb 0801     		.2byte	0x108
 2405 02fd 0B       		.uleb128 0xb
 2406 02fe 3A060000 		.4byte	.LASF1115
 2407 0302 05       		.byte	0x5
 2408 0303 5A       		.byte	0x5a
 2409 0304 B0000000 		.4byte	0xb0
 2410 0308 5001     		.2byte	0x150
 2411 030a 0B       		.uleb128 0xb
 2412 030b DA790000 		.4byte	.LASF1116
 2413 030f 05       		.byte	0x5
 2414 0310 5B       		.byte	0x5b
 2415 0311 B0000000 		.4byte	0xb0
 2416 0315 5401     		.2byte	0x154
 2417 0317 0B       		.uleb128 0xb
 2418 0318 985B0000 		.4byte	.LASF1117
 2419 031c 05       		.byte	0x5
 2420 031d 5C       		.byte	0x5c
 2421 031e B4040000 		.4byte	0x4b4
 2422 0322 5801     		.2byte	0x158
 2423 0324 0B       		.uleb128 0xb
 2424 0325 893B0000 		.4byte	.LASF1118
 2425 0329 05       		.byte	0x5
 2426 032a 5D       		.byte	0x5d
 2427 032b B0000000 		.4byte	0xb0
 2428 032f 7001     		.2byte	0x170
 2429 0331 0B       		.uleb128 0xb
 2430 0332 596D0000 		.4byte	.LASF1119
ARM GAS  /var/folders/z0/6xlwn_996xz3mwq1cgzkbq4r0000gp/T//cc0Pdjko.s 			page 63


 2431 0336 05       		.byte	0x5
 2432 0337 5E       		.byte	0x5e
 2433 0338 B0000000 		.4byte	0xb0
 2434 033c 7401     		.2byte	0x174
 2435 033e 0B       		.uleb128 0xb
 2436 033f 87110000 		.4byte	.LASF1120
 2437 0343 05       		.byte	0x5
 2438 0344 5F       		.byte	0x5f
 2439 0345 B9040000 		.4byte	0x4b9
 2440 0349 7801     		.2byte	0x178
 2441 034b 0B       		.uleb128 0xb
 2442 034c 95310000 		.4byte	.LASF1121
 2443 0350 05       		.byte	0x5
 2444 0351 60       		.byte	0x60
 2445 0352 B0000000 		.4byte	0xb0
 2446 0356 9801     		.2byte	0x198
 2447 0358 0B       		.uleb128 0xb
 2448 0359 085E0000 		.4byte	.LASF1122
 2449 035d 05       		.byte	0x5
 2450 035e 61       		.byte	0x61
 2451 035f C5000000 		.4byte	0xc5
 2452 0363 9C01     		.2byte	0x19c
 2453 0365 0B       		.uleb128 0xb
 2454 0366 A35B0000 		.4byte	.LASF1123
 2455 036a 05       		.byte	0x5
 2456 036b 62       		.byte	0x62
 2457 036c D3040000 		.4byte	0x4d3
 2458 0370 A001     		.2byte	0x1a0
 2459 0372 0B       		.uleb128 0xb
 2460 0373 B24D0000 		.4byte	.LASF1124
 2461 0377 05       		.byte	0x5
 2462 0378 63       		.byte	0x63
 2463 0379 B0000000 		.4byte	0xb0
 2464 037d 0002     		.2byte	0x200
 2465 037f 0B       		.uleb128 0xb
 2466 0380 DC6A0000 		.4byte	.LASF1125
 2467 0384 05       		.byte	0x5
 2468 0385 64       		.byte	0x64
 2469 0386 B0000000 		.4byte	0xb0
 2470 038a 0402     		.2byte	0x204
 2471 038c 0B       		.uleb128 0xb
 2472 038d D56F0000 		.4byte	.LASF1126
 2473 0391 05       		.byte	0x5
 2474 0392 65       		.byte	0x65
 2475 0393 B0000000 		.4byte	0xb0
 2476 0397 0802     		.2byte	0x208
 2477 0399 0B       		.uleb128 0xb
 2478 039a 5B730000 		.4byte	.LASF1127
 2479 039e 05       		.byte	0x5
 2480 039f 66       		.byte	0x66
 2481 03a0 B0000000 		.4byte	0xb0
 2482 03a4 0C02     		.2byte	0x20c
 2483 03a6 0B       		.uleb128 0xb
 2484 03a7 AE5B0000 		.4byte	.LASF1128
 2485 03ab 05       		.byte	0x5
 2486 03ac 67       		.byte	0x67
 2487 03ad C5000000 		.4byte	0xc5
ARM GAS  /var/folders/z0/6xlwn_996xz3mwq1cgzkbq4r0000gp/T//cc0Pdjko.s 			page 64


 2488 03b1 1002     		.2byte	0x210
 2489 03b3 0B       		.uleb128 0xb
 2490 03b4 E66A0000 		.4byte	.LASF1129
 2491 03b8 05       		.byte	0x5
 2492 03b9 68       		.byte	0x68
 2493 03ba B0000000 		.4byte	0xb0
 2494 03be 1402     		.2byte	0x214
 2495 03c0 0B       		.uleb128 0xb
 2496 03c1 B95B0000 		.4byte	.LASF1130
 2497 03c5 05       		.byte	0x5
 2498 03c6 69       		.byte	0x69
 2499 03c7 DD040000 		.4byte	0x4dd
 2500 03cb 1802     		.2byte	0x218
 2501 03cd 0B       		.uleb128 0xb
 2502 03ce 5A4C0000 		.4byte	.LASF1131
 2503 03d2 05       		.byte	0x5
 2504 03d3 6A       		.byte	0x6a
 2505 03d4 B0000000 		.4byte	0xb0
 2506 03d8 3002     		.2byte	0x230
 2507 03da 0B       		.uleb128 0xb
 2508 03db E65D0000 		.4byte	.LASF1132
 2509 03df 05       		.byte	0x5
 2510 03e0 6B       		.byte	0x6b
 2511 03e1 B0000000 		.4byte	0xb0
 2512 03e5 3402     		.2byte	0x234
 2513 03e7 0B       		.uleb128 0xb
 2514 03e8 36190000 		.4byte	.LASF1133
 2515 03ec 05       		.byte	0x5
 2516 03ed 6C       		.byte	0x6c
 2517 03ee B0000000 		.4byte	0xb0
 2518 03f2 3802     		.2byte	0x238
 2519 03f4 0B       		.uleb128 0xb
 2520 03f5 C45B0000 		.4byte	.LASF1134
 2521 03f9 05       		.byte	0x5
 2522 03fa 6D       		.byte	0x6d
 2523 03fb F7040000 		.4byte	0x4f7
 2524 03ff 3C02     		.2byte	0x23c
 2525 0401 0B       		.uleb128 0xb
 2526 0402 A1670000 		.4byte	.LASF1135
 2527 0406 05       		.byte	0x5
 2528 0407 6E       		.byte	0x6e
 2529 0408 C5000000 		.4byte	0xc5
 2530 040c F403     		.2byte	0x3f4
 2531 040e 00       		.byte	0
 2532 040f 06       		.uleb128 0x6
 2533 0410 C5000000 		.4byte	0xc5
 2534 0414 1F040000 		.4byte	0x41f
 2535 0418 07       		.uleb128 0x7
 2536 0419 A9000000 		.4byte	0xa9
 2537 041d 01       		.byte	0x1
 2538 041e 00       		.byte	0
 2539 041f 05       		.uleb128 0x5
 2540 0420 0F040000 		.4byte	0x40f
 2541 0424 08       		.uleb128 0x8
 2542 0425 1F040000 		.4byte	0x41f
 2543 0429 05       		.uleb128 0x5
 2544 042a EA000000 		.4byte	0xea
ARM GAS  /var/folders/z0/6xlwn_996xz3mwq1cgzkbq4r0000gp/T//cc0Pdjko.s 			page 65


 2545 042e 08       		.uleb128 0x8
 2546 042f 29040000 		.4byte	0x429
 2547 0433 06       		.uleb128 0x6
 2548 0434 C5000000 		.4byte	0xc5
 2549 0438 43040000 		.4byte	0x443
 2550 043c 07       		.uleb128 0x7
 2551 043d A9000000 		.4byte	0xa9
 2552 0441 07       		.byte	0x7
 2553 0442 00       		.byte	0
 2554 0443 05       		.uleb128 0x5
 2555 0444 33040000 		.4byte	0x433
 2556 0448 08       		.uleb128 0x8
 2557 0449 43040000 		.4byte	0x443
 2558 044d 05       		.uleb128 0x5
 2559 044e DA000000 		.4byte	0xda
 2560 0452 08       		.uleb128 0x8
 2561 0453 4D040000 		.4byte	0x44d
 2562 0457 05       		.uleb128 0x5
 2563 0458 33040000 		.4byte	0x433
 2564 045c 08       		.uleb128 0x8
 2565 045d 57040000 		.4byte	0x457
 2566 0461 06       		.uleb128 0x6
 2567 0462 C5000000 		.4byte	0xc5
 2568 0466 71040000 		.4byte	0x471
 2569 046a 07       		.uleb128 0x7
 2570 046b A9000000 		.4byte	0xa9
 2571 046f 04       		.byte	0x4
 2572 0470 00       		.byte	0
 2573 0471 05       		.uleb128 0x5
 2574 0472 61040000 		.4byte	0x461
 2575 0476 08       		.uleb128 0x8
 2576 0477 71040000 		.4byte	0x471
 2577 047b 05       		.uleb128 0x5
 2578 047c 0F040000 		.4byte	0x40f
 2579 0480 08       		.uleb128 0x8
 2580 0481 7B040000 		.4byte	0x47b
 2581 0485 06       		.uleb128 0x6
 2582 0486 C5000000 		.4byte	0xc5
 2583 048a 95040000 		.4byte	0x495
 2584 048e 07       		.uleb128 0x7
 2585 048f A9000000 		.4byte	0xa9
 2586 0493 11       		.byte	0x11
 2587 0494 00       		.byte	0
 2588 0495 05       		.uleb128 0x5
 2589 0496 85040000 		.4byte	0x485
 2590 049a 08       		.uleb128 0x8
 2591 049b 95040000 		.4byte	0x495
 2592 049f 06       		.uleb128 0x6
 2593 04a0 C5000000 		.4byte	0xc5
 2594 04a4 AF040000 		.4byte	0x4af
 2595 04a8 07       		.uleb128 0x7
 2596 04a9 A9000000 		.4byte	0xa9
 2597 04ad 05       		.byte	0x5
 2598 04ae 00       		.byte	0
 2599 04af 05       		.uleb128 0x5
 2600 04b0 9F040000 		.4byte	0x49f
 2601 04b4 08       		.uleb128 0x8
ARM GAS  /var/folders/z0/6xlwn_996xz3mwq1cgzkbq4r0000gp/T//cc0Pdjko.s 			page 66


 2602 04b5 AF040000 		.4byte	0x4af
 2603 04b9 05       		.uleb128 0x5
 2604 04ba B5000000 		.4byte	0xb5
 2605 04be 06       		.uleb128 0x6
 2606 04bf C5000000 		.4byte	0xc5
 2607 04c3 CE040000 		.4byte	0x4ce
 2608 04c7 07       		.uleb128 0x7
 2609 04c8 A9000000 		.4byte	0xa9
 2610 04cc 17       		.byte	0x17
 2611 04cd 00       		.byte	0
 2612 04ce 05       		.uleb128 0x5
 2613 04cf BE040000 		.4byte	0x4be
 2614 04d3 08       		.uleb128 0x8
 2615 04d4 CE040000 		.4byte	0x4ce
 2616 04d8 05       		.uleb128 0x5
 2617 04d9 9F040000 		.4byte	0x49f
 2618 04dd 08       		.uleb128 0x8
 2619 04de D8040000 		.4byte	0x4d8
 2620 04e2 06       		.uleb128 0x6
 2621 04e3 C5000000 		.4byte	0xc5
 2622 04e7 F2040000 		.4byte	0x4f2
 2623 04eb 07       		.uleb128 0x7
 2624 04ec A9000000 		.4byte	0xa9
 2625 04f0 6D       		.byte	0x6d
 2626 04f1 00       		.byte	0
 2627 04f2 05       		.uleb128 0x5
 2628 04f3 E2040000 		.4byte	0x4e2
 2629 04f7 08       		.uleb128 0x8
 2630 04f8 F2040000 		.4byte	0x4f2
 2631 04fc 03       		.uleb128 0x3
 2632 04fd 61100000 		.4byte	.LASF1136
 2633 0501 05       		.byte	0x5
 2634 0502 6F       		.byte	0x6f
 2635 0503 FA000000 		.4byte	0xfa
 2636 0507 0C       		.uleb128 0xc
 2637 0508 773B0000 		.4byte	.LASF1190
 2638 050c 01       		.byte	0x1
 2639 050d 3B000000 		.4byte	0x3b
 2640 0511 02       		.byte	0x2
 2641 0512 E4       		.byte	0xe4
 2642 0513 8A050000 		.4byte	0x58a
 2643 0517 0D       		.uleb128 0xd
 2644 0518 BC000000 		.4byte	.LASF1137
 2645 051c 00       		.byte	0
 2646 051d 0D       		.uleb128 0xd
 2647 051e 7D3D0000 		.4byte	.LASF1138
 2648 0522 01       		.byte	0x1
 2649 0523 0D       		.uleb128 0xd
 2650 0524 7B010000 		.4byte	.LASF1139
 2651 0528 02       		.byte	0x2
 2652 0529 0D       		.uleb128 0xd
 2653 052a B7550000 		.4byte	.LASF1140
 2654 052e 03       		.byte	0x3
 2655 052f 0D       		.uleb128 0xd
 2656 0530 52330000 		.4byte	.LASF1141
 2657 0534 04       		.byte	0x4
 2658 0535 0D       		.uleb128 0xd
ARM GAS  /var/folders/z0/6xlwn_996xz3mwq1cgzkbq4r0000gp/T//cc0Pdjko.s 			page 67


 2659 0536 6D5A0000 		.4byte	.LASF1142
 2660 053a 05       		.byte	0x5
 2661 053b 0D       		.uleb128 0xd
 2662 053c D0330000 		.4byte	.LASF1143
 2663 0540 06       		.byte	0x6
 2664 0541 0D       		.uleb128 0xd
 2665 0542 10730000 		.4byte	.LASF1144
 2666 0546 07       		.byte	0x7
 2667 0547 0D       		.uleb128 0xd
 2668 0548 0F070000 		.4byte	.LASF1145
 2669 054c 08       		.byte	0x8
 2670 054d 0D       		.uleb128 0xd
 2671 054e FE0D0000 		.4byte	.LASF1146
 2672 0552 09       		.byte	0x9
 2673 0553 0D       		.uleb128 0xd
 2674 0554 120E0000 		.4byte	.LASF1147
 2675 0558 0A       		.byte	0xa
 2676 0559 0D       		.uleb128 0xd
 2677 055a 88230000 		.4byte	.LASF1148
 2678 055e 0B       		.byte	0xb
 2679 055f 0D       		.uleb128 0xd
 2680 0560 5A5A0000 		.4byte	.LASF1149
 2681 0564 0C       		.byte	0xc
 2682 0565 0D       		.uleb128 0xd
 2683 0566 62570000 		.4byte	.LASF1150
 2684 056a 0D       		.byte	0xd
 2685 056b 0D       		.uleb128 0xd
 2686 056c B9590000 		.4byte	.LASF1151
 2687 0570 0E       		.byte	0xe
 2688 0571 0D       		.uleb128 0xd
 2689 0572 B70F0000 		.4byte	.LASF1152
 2690 0576 0F       		.byte	0xf
 2691 0577 0D       		.uleb128 0xd
 2692 0578 AC3B0000 		.4byte	.LASF1153
 2693 057c 10       		.byte	0x10
 2694 057d 0D       		.uleb128 0xd
 2695 057e 8D7D0000 		.4byte	.LASF1154
 2696 0582 11       		.byte	0x11
 2697 0583 0D       		.uleb128 0xd
 2698 0584 9A230000 		.4byte	.LASF1155
 2699 0588 12       		.byte	0x12
 2700 0589 00       		.byte	0
 2701 058a 0E       		.uleb128 0xe
 2702 058b 10060000 		.4byte	.LASF1156
 2703 058f 02       		.byte	0x2
 2704 0590 2001     		.2byte	0x120
 2705 0592 07050000 		.4byte	0x507
 2706 0596 08       		.uleb128 0x8
 2707 0597 90000000 		.4byte	0x90
 2708 059b 0F       		.uleb128 0xf
 2709 059c 40       		.byte	0x40
 2710 059d 06       		.byte	0x6
 2711 059e 31       		.byte	0x31
 2712 059f 40060000 		.4byte	0x640
 2713 05a3 0A       		.uleb128 0xa
 2714 05a4 36280000 		.4byte	.LASF1157
 2715 05a8 06       		.byte	0x6
ARM GAS  /var/folders/z0/6xlwn_996xz3mwq1cgzkbq4r0000gp/T//cc0Pdjko.s 			page 68


 2716 05a9 32       		.byte	0x32
 2717 05aa B0000000 		.4byte	0xb0
 2718 05ae 00       		.byte	0
 2719 05af 0A       		.uleb128 0xa
 2720 05b0 F80B0000 		.4byte	.LASF1158
 2721 05b4 06       		.byte	0x6
 2722 05b5 33       		.byte	0x33
 2723 05b6 C5000000 		.4byte	0xc5
 2724 05ba 04       		.byte	0x4
 2725 05bb 10       		.uleb128 0x10
 2726 05bc 44415400 		.ascii	"DAT\000"
 2727 05c0 06       		.byte	0x6
 2728 05c1 34       		.byte	0x34
 2729 05c2 B0000000 		.4byte	0xb0
 2730 05c6 08       		.byte	0x8
 2731 05c7 0A       		.uleb128 0xa
 2732 05c8 AD280000 		.4byte	.LASF1159
 2733 05cc 06       		.byte	0x6
 2734 05cd 35       		.byte	0x35
 2735 05ce B0000000 		.4byte	0xb0
 2736 05d2 0C       		.byte	0xc
 2737 05d3 0A       		.uleb128 0xa
 2738 05d4 DC010000 		.4byte	.LASF1160
 2739 05d8 06       		.byte	0x6
 2740 05d9 36       		.byte	0x36
 2741 05da B0000000 		.4byte	0xb0
 2742 05de 10       		.byte	0x10
 2743 05df 0A       		.uleb128 0xa
 2744 05e0 E1010000 		.4byte	.LASF1161
 2745 05e4 06       		.byte	0x6
 2746 05e5 37       		.byte	0x37
 2747 05e6 B0000000 		.4byte	0xb0
 2748 05ea 14       		.byte	0x14
 2749 05eb 0A       		.uleb128 0xa
 2750 05ec E4730000 		.4byte	.LASF1162
 2751 05f0 06       		.byte	0x6
 2752 05f1 38       		.byte	0x38
 2753 05f2 B0000000 		.4byte	0xb0
 2754 05f6 18       		.byte	0x18
 2755 05f7 0A       		.uleb128 0xa
 2756 05f8 53360000 		.4byte	.LASF1163
 2757 05fc 06       		.byte	0x6
 2758 05fd 39       		.byte	0x39
 2759 05fe B0000000 		.4byte	0xb0
 2760 0602 1C       		.byte	0x1c
 2761 0603 0A       		.uleb128 0xa
 2762 0604 B2280000 		.4byte	.LASF1164
 2763 0608 06       		.byte	0x6
 2764 0609 3A       		.byte	0x3a
 2765 060a B0000000 		.4byte	0xb0
 2766 060e 20       		.byte	0x20
 2767 060f 0A       		.uleb128 0xa
 2768 0610 B7280000 		.4byte	.LASF1165
 2769 0614 06       		.byte	0x6
 2770 0615 3B       		.byte	0x3b
 2771 0616 B0000000 		.4byte	0xb0
 2772 061a 24       		.byte	0x24
ARM GAS  /var/folders/z0/6xlwn_996xz3mwq1cgzkbq4r0000gp/T//cc0Pdjko.s 			page 69


 2773 061b 0A       		.uleb128 0xa
 2774 061c BC280000 		.4byte	.LASF1166
 2775 0620 06       		.byte	0x6
 2776 0621 3C       		.byte	0x3c
 2777 0622 B0000000 		.4byte	0xb0
 2778 0626 28       		.byte	0x28
 2779 0627 0A       		.uleb128 0xa
 2780 0628 03740000 		.4byte	.LASF1167
 2781 062c 06       		.byte	0x6
 2782 062d 3D       		.byte	0x3d
 2783 062e C5000000 		.4byte	0xc5
 2784 0632 2C       		.byte	0x2c
 2785 0633 0A       		.uleb128 0xa
 2786 0634 8D680000 		.4byte	.LASF1168
 2787 0638 06       		.byte	0x6
 2788 0639 3E       		.byte	0x3e
 2789 063a 40060000 		.4byte	0x640
 2790 063e 30       		.byte	0x30
 2791 063f 00       		.byte	0
 2792 0640 05       		.uleb128 0x5
 2793 0641 CA000000 		.4byte	0xca
 2794 0645 03       		.uleb128 0x3
 2795 0646 F05D0000 		.4byte	.LASF1169
 2796 064a 06       		.byte	0x6
 2797 064b 3F       		.byte	0x3f
 2798 064c 9B050000 		.4byte	0x59b
 2799 0650 11       		.uleb128 0x11
 2800 0651 01       		.byte	0x1
 2801 0652 3B000000 		.4byte	0x3b
 2802 0656 06       		.byte	0x6
 2803 0657 F1       		.byte	0xf1
 2804 0658 81060000 		.4byte	0x681
 2805 065c 0D       		.uleb128 0xd
 2806 065d A6090000 		.4byte	.LASF1170
 2807 0661 00       		.byte	0
 2808 0662 0D       		.uleb128 0xd
 2809 0663 1E110000 		.4byte	.LASF1171
 2810 0667 01       		.byte	0x1
 2811 0668 0D       		.uleb128 0xd
 2812 0669 2A110000 		.4byte	.LASF1172
 2813 066d 02       		.byte	0x2
 2814 066e 0D       		.uleb128 0xd
 2815 066f 36110000 		.4byte	.LASF1173
 2816 0673 03       		.byte	0x3
 2817 0674 0D       		.uleb128 0xd
 2818 0675 42110000 		.4byte	.LASF1174
 2819 0679 04       		.byte	0x4
 2820 067a 0D       		.uleb128 0xd
 2821 067b BC0D0000 		.4byte	.LASF1175
 2822 067f 05       		.byte	0x5
 2823 0680 00       		.byte	0
 2824 0681 03       		.uleb128 0x3
 2825 0682 AA380000 		.4byte	.LASF1176
 2826 0686 06       		.byte	0x6
 2827 0687 F8       		.byte	0xf8
 2828 0688 50060000 		.4byte	0x650
 2829 068c 11       		.uleb128 0x11
ARM GAS  /var/folders/z0/6xlwn_996xz3mwq1cgzkbq4r0000gp/T//cc0Pdjko.s 			page 70


 2830 068d 01       		.byte	0x1
 2831 068e 3B000000 		.4byte	0x3b
 2832 0692 06       		.byte	0x6
 2833 0693 FD       		.byte	0xfd
 2834 0694 B7060000 		.4byte	0x6b7
 2835 0698 0D       		.uleb128 0xd
 2836 0699 3D380000 		.4byte	.LASF1177
 2837 069d 00       		.byte	0
 2838 069e 0D       		.uleb128 0xd
 2839 069f 7F6E0000 		.4byte	.LASF1178
 2840 06a3 01       		.byte	0x1
 2841 06a4 0D       		.uleb128 0xd
 2842 06a5 0B210000 		.4byte	.LASF1179
 2843 06a9 02       		.byte	0x2
 2844 06aa 0D       		.uleb128 0xd
 2845 06ab 10370000 		.4byte	.LASF1180
 2846 06af 03       		.byte	0x3
 2847 06b0 0D       		.uleb128 0xd
 2848 06b1 04670000 		.4byte	.LASF1181
 2849 06b5 04       		.byte	0x4
 2850 06b6 00       		.byte	0
 2851 06b7 0E       		.uleb128 0xe
 2852 06b8 BD440000 		.4byte	.LASF1182
 2853 06bc 06       		.byte	0x6
 2854 06bd 0301     		.2byte	0x103
 2855 06bf 8C060000 		.4byte	0x68c
 2856 06c3 12       		.uleb128 0x12
 2857 06c4 18       		.byte	0x18
 2858 06c5 06       		.byte	0x6
 2859 06c6 0801     		.2byte	0x108
 2860 06c8 1B070000 		.4byte	0x71b
 2861 06cc 13       		.uleb128 0x13
 2862 06cd 05640000 		.4byte	.LASF1183
 2863 06d1 06       		.byte	0x6
 2864 06d2 0901     		.2byte	0x109
 2865 06d4 85000000 		.4byte	0x85
 2866 06d8 00       		.byte	0
 2867 06d9 13       		.uleb128 0x13
 2868 06da 453C0000 		.4byte	.LASF1184
 2869 06de 06       		.byte	0x6
 2870 06df 0A01     		.2byte	0x10a
 2871 06e1 1B070000 		.4byte	0x71b
 2872 06e5 04       		.byte	0x4
 2873 06e6 13       		.uleb128 0x13
 2874 06e7 9E780000 		.4byte	.LASF1185
 2875 06eb 06       		.byte	0x6
 2876 06ec 0B01     		.2byte	0x10b
 2877 06ee 77000000 		.4byte	0x77
 2878 06f2 08       		.byte	0x8
 2879 06f3 13       		.uleb128 0x13
 2880 06f4 155B0000 		.4byte	.LASF1186
 2881 06f8 06       		.byte	0x6
 2882 06f9 0D01     		.2byte	0x10d
 2883 06fb 26070000 		.4byte	0x726
 2884 06ff 0C       		.byte	0xc
 2885 0700 13       		.uleb128 0x13
 2886 0701 8E770000 		.4byte	.LASF1187
ARM GAS  /var/folders/z0/6xlwn_996xz3mwq1cgzkbq4r0000gp/T//cc0Pdjko.s 			page 71


 2887 0705 06       		.byte	0x6
 2888 0706 0E01     		.2byte	0x10e
 2889 0708 77000000 		.4byte	0x77
 2890 070c 10       		.byte	0x10
 2891 070d 13       		.uleb128 0x13
 2892 070e A4370000 		.4byte	.LASF1188
 2893 0712 06       		.byte	0x6
 2894 0713 1001     		.2byte	0x110
 2895 0715 B7060000 		.4byte	0x6b7
 2896 0719 14       		.byte	0x14
 2897 071a 00       		.byte	0
 2898 071b 14       		.uleb128 0x14
 2899 071c 04       		.byte	0x4
 2900 071d 21070000 		.4byte	0x721
 2901 0721 08       		.uleb128 0x8
 2902 0722 85000000 		.4byte	0x85
 2903 0726 14       		.uleb128 0x14
 2904 0727 04       		.byte	0x4
 2905 0728 85000000 		.4byte	0x85
 2906 072c 0E       		.uleb128 0xe
 2907 072d 22370000 		.4byte	.LASF1189
 2908 0731 06       		.byte	0x6
 2909 0732 1101     		.2byte	0x111
 2910 0734 C3060000 		.4byte	0x6c3
 2911 0738 15       		.uleb128 0x15
 2912 0739 B25D0000 		.4byte	.LASF1191
 2913 073d 01       		.byte	0x1
 2914 073e 3B000000 		.4byte	0x3b
 2915 0742 06       		.byte	0x6
 2916 0743 1B01     		.2byte	0x11b
 2917 0745 56070000 		.4byte	0x756
 2918 0749 0D       		.uleb128 0xd
 2919 074a 5D570000 		.4byte	.LASF1192
 2920 074e 00       		.byte	0
 2921 074f 0D       		.uleb128 0xd
 2922 0750 1A4C0000 		.4byte	.LASF1193
 2923 0754 01       		.byte	0x1
 2924 0755 00       		.byte	0
 2925 0756 0E       		.uleb128 0xe
 2926 0757 781D0000 		.4byte	.LASF1194
 2927 075b 06       		.byte	0x6
 2928 075c 1E01     		.2byte	0x11e
 2929 075e 38070000 		.4byte	0x738
 2930 0762 16       		.uleb128 0x16
 2931 0763 01       		.byte	0x1
 2932 0764 3B000000 		.4byte	0x3b
 2933 0768 06       		.byte	0x6
 2934 0769 2301     		.2byte	0x123
 2935 076b 94070000 		.4byte	0x794
 2936 076f 0D       		.uleb128 0xd
 2937 0770 CC430000 		.4byte	.LASF1195
 2938 0774 01       		.byte	0x1
 2939 0775 0D       		.uleb128 0xd
 2940 0776 FA430000 		.4byte	.LASF1196
 2941 077a 02       		.byte	0x2
 2942 077b 0D       		.uleb128 0xd
 2943 077c 7F4C0000 		.4byte	.LASF1197
ARM GAS  /var/folders/z0/6xlwn_996xz3mwq1cgzkbq4r0000gp/T//cc0Pdjko.s 			page 72


 2944 0780 03       		.byte	0x3
 2945 0781 0D       		.uleb128 0xd
 2946 0782 38150000 		.4byte	.LASF1198
 2947 0786 04       		.byte	0x4
 2948 0787 0D       		.uleb128 0xd
 2949 0788 8C2E0000 		.4byte	.LASF1199
 2950 078c 05       		.byte	0x5
 2951 078d 0D       		.uleb128 0xd
 2952 078e 2D370000 		.4byte	.LASF1200
 2953 0792 06       		.byte	0x6
 2954 0793 00       		.byte	0
 2955 0794 0E       		.uleb128 0xe
 2956 0795 994F0000 		.4byte	.LASF1201
 2957 0799 06       		.byte	0x6
 2958 079a 2A01     		.2byte	0x12a
 2959 079c 62070000 		.4byte	0x762
 2960 07a0 0E       		.uleb128 0xe
 2961 07a1 A1640000 		.4byte	.LASF1202
 2962 07a5 06       		.byte	0x6
 2963 07a6 2F01     		.2byte	0x12f
 2964 07a8 AC070000 		.4byte	0x7ac
 2965 07ac 14       		.uleb128 0x14
 2966 07ad 04       		.byte	0x4
 2967 07ae B2070000 		.4byte	0x7b2
 2968 07b2 17       		.uleb128 0x17
 2969 07b3 C2070000 		.4byte	0x7c2
 2970 07b7 18       		.uleb128 0x18
 2971 07b8 56070000 		.4byte	0x756
 2972 07bc 18       		.uleb128 0x18
 2973 07bd 94070000 		.4byte	0x794
 2974 07c1 00       		.byte	0
 2975 07c2 19       		.uleb128 0x19
 2976 07c3 8B4F0000 		.4byte	.LASF1208
 2977 07c7 1C       		.byte	0x1c
 2978 07c8 01       		.byte	0x1
 2979 07c9 2E       		.byte	0x2e
 2980 07ca 22080000 		.4byte	0x822
 2981 07ce 10       		.uleb128 0x10
 2982 07cf 697000   		.ascii	"ip\000"
 2983 07d2 01       		.byte	0x1
 2984 07d3 2F       		.byte	0x2f
 2985 07d4 22080000 		.4byte	0x822
 2986 07d8 00       		.byte	0
 2987 07d9 10       		.uleb128 0x10
 2988 07da 636C6B00 		.ascii	"clk\000"
 2989 07de 01       		.byte	0x1
 2990 07df 30       		.byte	0x30
 2991 07e0 8A050000 		.4byte	0x58a
 2992 07e4 04       		.byte	0x4
 2993 07e5 0A       		.uleb128 0xa
 2994 07e6 F55C0000 		.4byte	.LASF1203
 2995 07ea 01       		.byte	0x1
 2996 07eb 31       		.byte	0x31
 2997 07ec A0070000 		.4byte	0x7a0
 2998 07f0 08       		.byte	0x8
 2999 07f1 0A       		.uleb128 0xa
 3000 07f2 F0080000 		.4byte	.LASF1204
ARM GAS  /var/folders/z0/6xlwn_996xz3mwq1cgzkbq4r0000gp/T//cc0Pdjko.s 			page 73


 3001 07f6 01       		.byte	0x1
 3002 07f7 32       		.byte	0x32
 3003 07f8 A0070000 		.4byte	0x7a0
 3004 07fc 0C       		.byte	0xc
 3005 07fd 0A       		.uleb128 0xa
 3006 07fe 31080000 		.4byte	.LASF1205
 3007 0802 01       		.byte	0x1
 3008 0803 33       		.byte	0x33
 3009 0804 28080000 		.4byte	0x828
 3010 0808 10       		.byte	0x10
 3011 0809 0A       		.uleb128 0xa
 3012 080a 1B3B0000 		.4byte	.LASF1206
 3013 080e 01       		.byte	0x1
 3014 080f 34       		.byte	0x34
 3015 0810 28080000 		.4byte	0x828
 3016 0814 14       		.byte	0x14
 3017 0815 0A       		.uleb128 0xa
 3018 0816 01280000 		.4byte	.LASF1207
 3019 081a 01       		.byte	0x1
 3020 081b 35       		.byte	0x35
 3021 081c 90000000 		.4byte	0x90
 3022 0820 18       		.byte	0x18
 3023 0821 00       		.byte	0
 3024 0822 14       		.uleb128 0x14
 3025 0823 04       		.byte	0x4
 3026 0824 45060000 		.4byte	0x645
 3027 0828 14       		.uleb128 0x14
 3028 0829 04       		.byte	0x4
 3029 082a 2C070000 		.4byte	0x72c
 3030 082e 19       		.uleb128 0x19
 3031 082f CA440000 		.4byte	.LASF1209
 3032 0833 08       		.byte	0x8
 3033 0834 01       		.byte	0x1
 3034 0835 39       		.byte	0x39
 3035 0836 53080000 		.4byte	0x853
 3036 083a 0A       		.uleb128 0xa
 3037 083b 30760000 		.4byte	.LASF1210
 3038 083f 01       		.byte	0x1
 3039 0840 3A       		.byte	0x3a
 3040 0841 28080000 		.4byte	0x828
 3041 0845 00       		.byte	0
 3042 0846 0A       		.uleb128 0xa
 3043 0847 7A400000 		.4byte	.LASF1211
 3044 084b 01       		.byte	0x1
 3045 084c 3B       		.byte	0x3b
 3046 084d A0070000 		.4byte	0x7a0
 3047 0851 04       		.byte	0x4
 3048 0852 00       		.byte	0
 3049 0853 1A       		.uleb128 0x1a
 3050 0854 F4590000 		.4byte	.LASF1212
 3051 0858 02       		.byte	0x2
 3052 0859 2701     		.2byte	0x127
 3053 085b 03       		.byte	0x3
 3054 085c 6D080000 		.4byte	0x86d
 3055 0860 1B       		.uleb128 0x1b
 3056 0861 636C6B00 		.ascii	"clk\000"
 3057 0865 02       		.byte	0x2
ARM GAS  /var/folders/z0/6xlwn_996xz3mwq1cgzkbq4r0000gp/T//cc0Pdjko.s 			page 74


 3058 0866 2701     		.2byte	0x127
 3059 0868 8A050000 		.4byte	0x58a
 3060 086c 00       		.byte	0
 3061 086d 1C       		.uleb128 0x1c
 3062 086e A9360000 		.4byte	.LASF1213
 3063 0872 01       		.byte	0x1
 3064 0873 4C       		.byte	0x4c
 3065 0874 03       		.byte	0x3
 3066 0875 84080000 		.4byte	0x884
 3067 0879 1D       		.uleb128 0x1d
 3068 087a 696400   		.ascii	"id\000"
 3069 087d 01       		.byte	0x1
 3070 087e 4C       		.byte	0x4c
 3071 087f 56070000 		.4byte	0x756
 3072 0883 00       		.byte	0
 3073 0884 1A       		.uleb128 0x1a
 3074 0885 30340000 		.4byte	.LASF1214
 3075 0889 02       		.byte	0x2
 3076 088a 3101     		.2byte	0x131
 3077 088c 03       		.byte	0x3
 3078 088d 9E080000 		.4byte	0x89e
 3079 0891 1B       		.uleb128 0x1b
 3080 0892 636C6B00 		.ascii	"clk\000"
 3081 0896 02       		.byte	0x2
 3082 0897 3101     		.2byte	0x131
 3083 0899 8A050000 		.4byte	0x58a
 3084 089d 00       		.byte	0
 3085 089e 1C       		.uleb128 0x1c
 3086 089f 4A3D0000 		.4byte	.LASF1215
 3087 08a3 01       		.byte	0x1
 3088 08a4 52       		.byte	0x52
 3089 08a5 03       		.byte	0x3
 3090 08a6 B5080000 		.4byte	0x8b5
 3091 08aa 1D       		.uleb128 0x1d
 3092 08ab 696400   		.ascii	"id\000"
 3093 08ae 01       		.byte	0x1
 3094 08af 52       		.byte	0x52
 3095 08b0 56070000 		.4byte	0x756
 3096 08b4 00       		.byte	0
 3097 08b5 1E       		.uleb128 0x1e
 3098 08b6 38020000 		.4byte	.LASF1217
 3099 08ba 01       		.byte	0x1
 3100 08bb 7A       		.byte	0x7a
 3101 08bc 77000000 		.4byte	0x77
 3102 08c0 03       		.byte	0x3
 3103 08c1 D1080000 		.4byte	0x8d1
 3104 08c5 1F       		.uleb128 0x1f
 3105 08c6 3C790000 		.4byte	.LASF1216
 3106 08ca 01       		.byte	0x1
 3107 08cb 7A       		.byte	0x7a
 3108 08cc 22080000 		.4byte	0x822
 3109 08d0 00       		.byte	0
 3110 08d1 1E       		.uleb128 0x1e
 3111 08d2 881C0000 		.4byte	.LASF1218
 3112 08d6 01       		.byte	0x1
 3113 08d7 94       		.byte	0x94
 3114 08d8 77000000 		.4byte	0x77
ARM GAS  /var/folders/z0/6xlwn_996xz3mwq1cgzkbq4r0000gp/T//cc0Pdjko.s 			page 75


 3115 08dc 01       		.byte	0x1
 3116 08dd 03090000 		.4byte	0x903
 3117 08e1 1F       		.uleb128 0x1f
 3118 08e2 D47B0000 		.4byte	.LASF1219
 3119 08e6 01       		.byte	0x1
 3120 08e7 94       		.byte	0x94
 3121 08e8 85000000 		.4byte	0x85
 3122 08ec 1F       		.uleb128 0x1f
 3123 08ed DA7B0000 		.4byte	.LASF1220
 3124 08f1 01       		.byte	0x1
 3125 08f2 94       		.byte	0x94
 3126 08f3 85000000 		.4byte	0x85
 3127 08f7 1F       		.uleb128 0x1f
 3128 08f8 87430000 		.4byte	.LASF1221
 3129 08fc 01       		.byte	0x1
 3130 08fd 94       		.byte	0x94
 3131 08fe 85000000 		.4byte	0x85
 3132 0902 00       		.byte	0
 3133 0903 20       		.uleb128 0x20
 3134 0904 C40B0000 		.4byte	.LASF1227
 3135 0908 01       		.byte	0x1
 3136 0909 4A01     		.2byte	0x14a
 3137 090b 01       		.byte	0x1
 3138 090c 40090000 		.4byte	0x940
 3139 0910 1B       		.uleb128 0x1b
 3140 0911 696400   		.ascii	"id\000"
 3141 0914 01       		.byte	0x1
 3142 0915 4A01     		.2byte	0x14a
 3143 0917 56070000 		.4byte	0x756
 3144 091b 21       		.uleb128 0x21
 3145 091c 7A400000 		.4byte	.LASF1211
 3146 0920 01       		.byte	0x1
 3147 0921 4A01     		.2byte	0x14a
 3148 0923 94070000 		.4byte	0x794
 3149 0927 22       		.uleb128 0x22
 3150 0928 69696300 		.ascii	"iic\000"
 3151 092c 01       		.byte	0x1
 3152 092d 4D01     		.2byte	0x14d
 3153 092f 40090000 		.4byte	0x940
 3154 0933 23       		.uleb128 0x23
 3155 0934 660C0000 		.4byte	.LASF1222
 3156 0938 01       		.byte	0x1
 3157 0939 4E01     		.2byte	0x14e
 3158 093b 46090000 		.4byte	0x946
 3159 093f 00       		.byte	0
 3160 0940 14       		.uleb128 0x14
 3161 0941 04       		.byte	0x4
 3162 0942 C2070000 		.4byte	0x7c2
 3163 0946 14       		.uleb128 0x14
 3164 0947 04       		.byte	0x4
 3165 0948 4C090000 		.4byte	0x94c
 3166 094c 05       		.uleb128 0x5
 3167 094d B7060000 		.4byte	0x6b7
 3168 0951 24       		.uleb128 0x24
 3169 0952 9F770000 		.4byte	.LASF1233
 3170 0956 01       		.byte	0x1
 3171 0957 F7       		.byte	0xf7
ARM GAS  /var/folders/z0/6xlwn_996xz3mwq1cgzkbq4r0000gp/T//cc0Pdjko.s 			page 76


 3172 0958 81060000 		.4byte	0x681
 3173 095c 01       		.byte	0x1
 3174 095d 6D090000 		.4byte	0x96d
 3175 0961 1F       		.uleb128 0x1f
 3176 0962 3C790000 		.4byte	.LASF1216
 3177 0966 01       		.byte	0x1
 3178 0967 F7       		.byte	0xf7
 3179 0968 22080000 		.4byte	0x822
 3180 096c 00       		.byte	0
 3181 096d 25       		.uleb128 0x25
 3182 096e 09440000 		.4byte	.LASF1265
 3183 0972 01       		.byte	0x1
 3184 0973 59       		.byte	0x59
 3185 0974 90000000 		.4byte	0x90
 3186 0978 03       		.byte	0x3
 3187 0979 1C       		.uleb128 0x1c
 3188 097a 20030000 		.4byte	.LASF1223
 3189 097e 01       		.byte	0x1
 3190 097f 60       		.byte	0x60
 3191 0980 03       		.byte	0x3
 3192 0981 91090000 		.4byte	0x991
 3193 0985 1F       		.uleb128 0x1f
 3194 0986 3C790000 		.4byte	.LASF1216
 3195 098a 01       		.byte	0x1
 3196 098b 60       		.byte	0x60
 3197 098c 22080000 		.4byte	0x822
 3198 0990 00       		.byte	0
 3199 0991 1E       		.uleb128 0x1e
 3200 0992 59600000 		.4byte	.LASF1224
 3201 0996 01       		.byte	0x1
 3202 0997 74       		.byte	0x74
 3203 0998 77000000 		.4byte	0x77
 3204 099c 03       		.byte	0x3
 3205 099d AD090000 		.4byte	0x9ad
 3206 09a1 1F       		.uleb128 0x1f
 3207 09a2 3C790000 		.4byte	.LASF1216
 3208 09a6 01       		.byte	0x1
 3209 09a7 74       		.byte	0x74
 3210 09a8 22080000 		.4byte	0x822
 3211 09ac 00       		.byte	0
 3212 09ad 1C       		.uleb128 0x1c
 3213 09ae EF310000 		.4byte	.LASF1225
 3214 09b2 01       		.byte	0x1
 3215 09b3 6A       		.byte	0x6a
 3216 09b4 03       		.byte	0x3
 3217 09b5 C5090000 		.4byte	0x9c5
 3218 09b9 1F       		.uleb128 0x1f
 3219 09ba 3C790000 		.4byte	.LASF1216
 3220 09be 01       		.byte	0x1
 3221 09bf 6A       		.byte	0x6a
 3222 09c0 22080000 		.4byte	0x822
 3223 09c4 00       		.byte	0
 3224 09c5 1E       		.uleb128 0x1e
 3225 09c6 34010000 		.4byte	.LASF1226
 3226 09ca 01       		.byte	0x1
 3227 09cb 80       		.byte	0x80
 3228 09cc 77000000 		.4byte	0x77
ARM GAS  /var/folders/z0/6xlwn_996xz3mwq1cgzkbq4r0000gp/T//cc0Pdjko.s 			page 77


 3229 09d0 03       		.byte	0x3
 3230 09d1 E1090000 		.4byte	0x9e1
 3231 09d5 1F       		.uleb128 0x1f
 3232 09d6 3C790000 		.4byte	.LASF1216
 3233 09da 01       		.byte	0x1
 3234 09db 80       		.byte	0x80
 3235 09dc 22080000 		.4byte	0x822
 3236 09e0 00       		.byte	0
 3237 09e1 20       		.uleb128 0x20
 3238 09e2 953A0000 		.4byte	.LASF1228
 3239 09e6 01       		.byte	0x1
 3240 09e7 FA01     		.2byte	0x1fa
 3241 09e9 01       		.byte	0x1
 3242 09ea FA090000 		.4byte	0x9fa
 3243 09ee 1B       		.uleb128 0x1b
 3244 09ef 696400   		.ascii	"id\000"
 3245 09f2 01       		.byte	0x1
 3246 09f3 FA01     		.2byte	0x1fa
 3247 09f5 56070000 		.4byte	0x756
 3248 09f9 00       		.byte	0
 3249 09fa 1C       		.uleb128 0x1c
 3250 09fb 927C0000 		.4byte	.LASF1229
 3251 09ff 01       		.byte	0x1
 3252 0a00 86       		.byte	0x86
 3253 0a01 01       		.byte	0x1
 3254 0a02 4B0A0000 		.4byte	0xa4b
 3255 0a06 1F       		.uleb128 0x1f
 3256 0a07 3C790000 		.4byte	.LASF1216
 3257 0a0b 01       		.byte	0x1
 3258 0a0c 86       		.byte	0x86
 3259 0a0d 22080000 		.4byte	0x822
 3260 0a11 1D       		.uleb128 0x1d
 3261 0a12 73696400 		.ascii	"sid\000"
 3262 0a16 01       		.byte	0x1
 3263 0a17 86       		.byte	0x86
 3264 0a18 81060000 		.4byte	0x681
 3265 0a1c 1F       		.uleb128 0x1f
 3266 0a1d 29470000 		.4byte	.LASF1230
 3267 0a21 01       		.byte	0x1
 3268 0a22 86       		.byte	0x86
 3269 0a23 85000000 		.4byte	0x85
 3270 0a27 1F       		.uleb128 0x1f
 3271 0a28 87430000 		.4byte	.LASF1221
 3272 0a2c 01       		.byte	0x1
 3273 0a2d 86       		.byte	0x86
 3274 0a2e 85000000 		.4byte	0x85
 3275 0a32 26       		.uleb128 0x26
 3276 0a33 CA330000 		.4byte	.LASF1231
 3277 0a37 01       		.byte	0x1
 3278 0a38 88       		.byte	0x88
 3279 0a39 90000000 		.4byte	0x90
 3280 0a3d 27       		.uleb128 0x27
 3281 0a3e 26       		.uleb128 0x26
 3282 0a3f F2360000 		.4byte	.LASF1232
 3283 0a43 01       		.byte	0x1
 3284 0a44 8E       		.byte	0x8e
 3285 0a45 4B0A0000 		.4byte	0xa4b
ARM GAS  /var/folders/z0/6xlwn_996xz3mwq1cgzkbq4r0000gp/T//cc0Pdjko.s 			page 78


 3286 0a49 00       		.byte	0
 3287 0a4a 00       		.byte	0
 3288 0a4b 14       		.uleb128 0x14
 3289 0a4c 04       		.byte	0x4
 3290 0a4d B0000000 		.4byte	0xb0
 3291 0a51 28       		.uleb128 0x28
 3292 0a52 1E4D0000 		.4byte	.LASF1234
 3293 0a56 01       		.byte	0x1
 3294 0a57 3A02     		.2byte	0x23a
 3295 0a59 77000000 		.4byte	0x77
 3296 0a5d 01       		.byte	0x1
 3297 0a5e 6E0A0000 		.4byte	0xa6e
 3298 0a62 1B       		.uleb128 0x1b
 3299 0a63 696400   		.ascii	"id\000"
 3300 0a66 01       		.byte	0x1
 3301 0a67 3A02     		.2byte	0x23a
 3302 0a69 56070000 		.4byte	0x756
 3303 0a6d 00       		.byte	0
 3304 0a6e 29       		.uleb128 0x29
 3305 0a6f 03090000 		.4byte	0x903
 3306 0a73 00000000 		.4byte	.LFB212
 3307 0a77 18000000 		.4byte	.LFE212-.LFB212
 3308 0a7b 01       		.uleb128 0x1
 3309 0a7c 9C       		.byte	0x9c
 3310 0a7d D30A0000 		.4byte	0xad3
 3311 0a81 2A       		.uleb128 0x2a
 3312 0a82 10090000 		.4byte	0x910
 3313 0a86 01       		.uleb128 0x1
 3314 0a87 50       		.byte	0x50
 3315 0a88 2A       		.uleb128 0x2a
 3316 0a89 1B090000 		.4byte	0x91b
 3317 0a8d 01       		.uleb128 0x1
 3318 0a8e 51       		.byte	0x51
 3319 0a8f 2B       		.uleb128 0x2b
 3320 0a90 27090000 		.4byte	0x927
 3321 0a94 06       		.uleb128 0x6
 3322 0a95 03       		.byte	0x3
 3323 0a96 00000000 		.4byte	i2c
 3324 0a9a 9F       		.byte	0x9f
 3325 0a9b 2C       		.uleb128 0x2c
 3326 0a9c 33090000 		.4byte	0x933
 3327 0aa0 2D       		.uleb128 0x2d
 3328 0aa1 06000000 		.4byte	.LBB59
 3329 0aa5 12000000 		.4byte	.LBE59-.LBB59
 3330 0aa9 2A       		.uleb128 0x2a
 3331 0aaa 10090000 		.4byte	0x910
 3332 0aae 04       		.uleb128 0x4
 3333 0aaf F3       		.byte	0xf3
 3334 0ab0 01       		.uleb128 0x1
 3335 0ab1 50       		.byte	0x50
 3336 0ab2 9F       		.byte	0x9f
 3337 0ab3 2E       		.uleb128 0x2e
 3338 0ab4 1B090000 		.4byte	0x91b
 3339 0ab8 01       		.byte	0x1
 3340 0ab9 2D       		.uleb128 0x2d
 3341 0aba 06000000 		.4byte	.LBB60
 3342 0abe 12000000 		.4byte	.LBE60-.LBB60
ARM GAS  /var/folders/z0/6xlwn_996xz3mwq1cgzkbq4r0000gp/T//cc0Pdjko.s 			page 79


 3343 0ac2 2C       		.uleb128 0x2c
 3344 0ac3 27090000 		.4byte	0x927
 3345 0ac7 2B       		.uleb128 0x2b
 3346 0ac8 33090000 		.4byte	0x933
 3347 0acc 03       		.uleb128 0x3
 3348 0acd 72       		.byte	0x72
 3349 0ace 14       		.sleb128 20
 3350 0acf 9F       		.byte	0x9f
 3351 0ad0 00       		.byte	0
 3352 0ad1 00       		.byte	0
 3353 0ad2 00       		.byte	0
 3354 0ad3 2F       		.uleb128 0x2f
 3355 0ad4 B15E0000 		.4byte	.LASF1236
 3356 0ad8 01       		.byte	0x1
 3357 0ad9 B2       		.byte	0xb2
 3358 0ada 77000000 		.4byte	0x77
 3359 0ade 00000000 		.4byte	.LFB209
 3360 0ae2 08010000 		.4byte	.LFE209-.LFB209
 3361 0ae6 01       		.uleb128 0x1
 3362 0ae7 9C       		.byte	0x9c
 3363 0ae8 310B0000 		.4byte	0xb31
 3364 0aec 30       		.uleb128 0x30
 3365 0aed 3C790000 		.4byte	.LASF1216
 3366 0af1 01       		.byte	0x1
 3367 0af2 B2       		.byte	0xb2
 3368 0af3 22080000 		.4byte	0x822
 3369 0af7 00000000 		.4byte	.LLST0
 3370 0afb 31       		.uleb128 0x31
 3371 0afc 30760000 		.4byte	.LASF1210
 3372 0b00 01       		.byte	0x1
 3373 0b01 B2       		.byte	0xb2
 3374 0b02 28080000 		.4byte	0x828
 3375 0b06 01       		.uleb128 0x1
 3376 0b07 51       		.byte	0x51
 3377 0b08 32       		.uleb128 0x32
 3378 0b09 F64F0000 		.4byte	.LASF1238
 3379 0b0d 01       		.byte	0x1
 3380 0b0e B4       		.byte	0xb4
 3381 0b0f 90000000 		.4byte	0x90
 3382 0b13 1E000000 		.4byte	.LLST1
 3383 0b17 33       		.uleb128 0x33
 3384 0b18 B5080000 		.4byte	0x8b5
 3385 0b1c 00000000 		.4byte	.LBB61
 3386 0b20 02000000 		.4byte	.LBE61-.LBB61
 3387 0b24 01       		.byte	0x1
 3388 0b25 B5       		.byte	0xb5
 3389 0b26 34       		.uleb128 0x34
 3390 0b27 C5080000 		.4byte	0x8c5
 3391 0b2b D9000000 		.4byte	.LLST2
 3392 0b2f 00       		.byte	0
 3393 0b30 00       		.byte	0
 3394 0b31 1E       		.uleb128 0x1e
 3395 0b32 92790000 		.4byte	.LASF1235
 3396 0b36 01       		.byte	0x1
 3397 0b37 9B       		.byte	0x9b
 3398 0b38 81060000 		.4byte	0x681
 3399 0b3c 01       		.byte	0x1
ARM GAS  /var/folders/z0/6xlwn_996xz3mwq1cgzkbq4r0000gp/T//cc0Pdjko.s 			page 80


 3400 0b3d 580B0000 		.4byte	0xb58
 3401 0b41 1F       		.uleb128 0x1f
 3402 0b42 3C790000 		.4byte	.LASF1216
 3403 0b46 01       		.byte	0x1
 3404 0b47 9B       		.byte	0x9b
 3405 0b48 22080000 		.4byte	0x822
 3406 0b4c 1F       		.uleb128 0x1f
 3407 0b4d 05640000 		.4byte	.LASF1183
 3408 0b51 01       		.byte	0x1
 3409 0b52 9B       		.byte	0x9b
 3410 0b53 85000000 		.4byte	0x85
 3411 0b57 00       		.byte	0
 3412 0b58 29       		.uleb128 0x29
 3413 0b59 51090000 		.4byte	0x951
 3414 0b5d 00000000 		.4byte	.LFB210
 3415 0b61 88000000 		.4byte	.LFE210-.LFB210
 3416 0b65 01       		.uleb128 0x1
 3417 0b66 9C       		.byte	0x9c
 3418 0b67 C80B0000 		.4byte	0xbc8
 3419 0b6b 34       		.uleb128 0x34
 3420 0b6c 61090000 		.4byte	0x961
 3421 0b70 EC000000 		.4byte	.LLST3
 3422 0b74 35       		.uleb128 0x35
 3423 0b75 B5080000 		.4byte	0x8b5
 3424 0b79 02000000 		.4byte	.LBB79
 3425 0b7d 02000000 		.4byte	.LBE79-.LBB79
 3426 0b81 01       		.byte	0x1
 3427 0b82 F9       		.byte	0xf9
 3428 0b83 910B0000 		.4byte	0xb91
 3429 0b87 34       		.uleb128 0x34
 3430 0b88 C5080000 		.4byte	0x8c5
 3431 0b8c 31010000 		.4byte	.LLST4
 3432 0b90 00       		.byte	0
 3433 0b91 2D       		.uleb128 0x2d
 3434 0b92 28000000 		.4byte	.LBB81
 3435 0b96 60000000 		.4byte	.LBE81-.LBB81
 3436 0b9a 34       		.uleb128 0x34
 3437 0b9b 61090000 		.4byte	0x961
 3438 0b9f 44010000 		.4byte	.LLST5
 3439 0ba3 36       		.uleb128 0x36
 3440 0ba4 310B0000 		.4byte	0xb31
 3441 0ba8 2C000000 		.4byte	.LBB83
 3442 0bac 5C000000 		.4byte	.LBE83-.LBB83
 3443 0bb0 01       		.byte	0x1
 3444 0bb1 0001     		.2byte	0x100
 3445 0bb3 34       		.uleb128 0x34
 3446 0bb4 4C0B0000 		.4byte	0xb4c
 3447 0bb8 70010000 		.4byte	.LLST6
 3448 0bbc 34       		.uleb128 0x34
 3449 0bbd 410B0000 		.4byte	0xb41
 3450 0bc1 83010000 		.4byte	.LLST7
 3451 0bc5 00       		.byte	0
 3452 0bc6 00       		.byte	0
 3453 0bc7 00       		.byte	0
 3454 0bc8 37       		.uleb128 0x37
 3455 0bc9 35760000 		.4byte	.LASF1237
 3456 0bcd 01       		.byte	0x1
ARM GAS  /var/folders/z0/6xlwn_996xz3mwq1cgzkbq4r0000gp/T//cc0Pdjko.s 			page 81


 3457 0bce 0801     		.2byte	0x108
 3458 0bd0 77000000 		.4byte	0x77
 3459 0bd4 00000000 		.4byte	.LFB211
 3460 0bd8 AC000000 		.4byte	.LFE211-.LFB211
 3461 0bdc 01       		.uleb128 0x1
 3462 0bdd 9C       		.byte	0x9c
 3463 0bde 3D0C0000 		.4byte	0xc3d
 3464 0be2 38       		.uleb128 0x38
 3465 0be3 3C790000 		.4byte	.LASF1216
 3466 0be7 01       		.byte	0x1
 3467 0be8 0801     		.2byte	0x108
 3468 0bea 22080000 		.4byte	0x822
 3469 0bee A4010000 		.4byte	.LLST8
 3470 0bf2 38       		.uleb128 0x38
 3471 0bf3 30760000 		.4byte	.LASF1210
 3472 0bf7 01       		.byte	0x1
 3473 0bf8 0801     		.2byte	0x108
 3474 0bfa 28080000 		.4byte	0x828
 3475 0bfe C2010000 		.4byte	.LLST9
 3476 0c02 39       		.uleb128 0x39
 3477 0c03 F64F0000 		.4byte	.LASF1238
 3478 0c07 01       		.byte	0x1
 3479 0c08 0A01     		.2byte	0x10a
 3480 0c0a 90000000 		.4byte	0x90
 3481 0c0e 92020000 		.4byte	.LLST10
 3482 0c12 3A       		.uleb128 0x3a
 3483 0c13 72657400 		.ascii	"ret\000"
 3484 0c17 01       		.byte	0x1
 3485 0c18 0B01     		.2byte	0x10b
 3486 0c1a 77000000 		.4byte	0x77
 3487 0c1e F3020000 		.4byte	.LLST11
 3488 0c22 36       		.uleb128 0x36
 3489 0c23 B5080000 		.4byte	0x8b5
 3490 0c27 06000000 		.4byte	.LBB85
 3491 0c2b 02000000 		.4byte	.LBE85-.LBB85
 3492 0c2f 01       		.byte	0x1
 3493 0c30 0E01     		.2byte	0x10e
 3494 0c32 34       		.uleb128 0x34
 3495 0c33 C5080000 		.4byte	0x8c5
 3496 0c37 5A030000 		.4byte	.LLST12
 3497 0c3b 00       		.byte	0
 3498 0c3c 00       		.byte	0
 3499 0c3d 3B       		.uleb128 0x3b
 3500 0c3e 39630000 		.4byte	.LASF1239
 3501 0c42 01       		.byte	0x1
 3502 0c43 7001     		.2byte	0x170
 3503 0c45 00000000 		.4byte	.LFB214
 3504 0c49 3C000000 		.4byte	.LFE214-.LFB214
 3505 0c4d 01       		.uleb128 0x1
 3506 0c4e 9C       		.byte	0x9c
 3507 0c4f 970C0000 		.4byte	0xc97
 3508 0c53 3C       		.uleb128 0x3c
 3509 0c54 696400   		.ascii	"id\000"
 3510 0c57 01       		.byte	0x1
 3511 0c58 7001     		.2byte	0x170
 3512 0c5a 56070000 		.4byte	0x756
 3513 0c5e 6D030000 		.4byte	.LLST13
ARM GAS  /var/folders/z0/6xlwn_996xz3mwq1cgzkbq4r0000gp/T//cc0Pdjko.s 			page 82


 3514 0c62 3D       		.uleb128 0x3d
 3515 0c63 6D080000 		.4byte	0x86d
 3516 0c67 1C000000 		.4byte	.LBB87
 3517 0c6b 00000000 		.4byte	.Ldebug_ranges0+0
 3518 0c6f 01       		.byte	0x1
 3519 0c70 7C01     		.2byte	0x17c
 3520 0c72 2A       		.uleb128 0x2a
 3521 0c73 79080000 		.4byte	0x879
 3522 0c77 04       		.uleb128 0x4
 3523 0c78 F3       		.byte	0xf3
 3524 0c79 01       		.uleb128 0x1
 3525 0c7a 50       		.byte	0x50
 3526 0c7b 9F       		.byte	0x9f
 3527 0c7c 3E       		.uleb128 0x3e
 3528 0c7d 53080000 		.4byte	0x853
 3529 0c81 1C000000 		.4byte	.LBB88
 3530 0c85 00000000 		.4byte	.Ldebug_ranges0+0
 3531 0c89 01       		.byte	0x1
 3532 0c8a 4F       		.byte	0x4f
 3533 0c8b 34       		.uleb128 0x34
 3534 0c8c 60080000 		.4byte	0x860
 3535 0c90 8E030000 		.4byte	.LLST14
 3536 0c94 00       		.byte	0
 3537 0c95 00       		.byte	0
 3538 0c96 00       		.byte	0
 3539 0c97 3B       		.uleb128 0x3b
 3540 0c98 1D1B0000 		.4byte	.LASF1240
 3541 0c9c 01       		.byte	0x1
 3542 0c9d 8301     		.2byte	0x183
 3543 0c9f 00000000 		.4byte	.LFB215
 3544 0ca3 24000000 		.4byte	.LFE215-.LFB215
 3545 0ca7 01       		.uleb128 0x1
 3546 0ca8 9C       		.byte	0x9c
 3547 0ca9 F10C0000 		.4byte	0xcf1
 3548 0cad 3C       		.uleb128 0x3c
 3549 0cae 696400   		.ascii	"id\000"
 3550 0cb1 01       		.byte	0x1
 3551 0cb2 8301     		.2byte	0x183
 3552 0cb4 56070000 		.4byte	0x756
 3553 0cb8 A2030000 		.4byte	.LLST15
 3554 0cbc 3D       		.uleb128 0x3d
 3555 0cbd 9E080000 		.4byte	0x89e
 3556 0cc1 06000000 		.4byte	.LBB93
 3557 0cc5 18000000 		.4byte	.Ldebug_ranges0+0x18
 3558 0cc9 01       		.byte	0x1
 3559 0cca 8801     		.2byte	0x188
 3560 0ccc 2A       		.uleb128 0x2a
 3561 0ccd AA080000 		.4byte	0x8aa
 3562 0cd1 04       		.uleb128 0x4
 3563 0cd2 F3       		.byte	0xf3
 3564 0cd3 01       		.uleb128 0x1
 3565 0cd4 50       		.byte	0x50
 3566 0cd5 9F       		.byte	0x9f
 3567 0cd6 3E       		.uleb128 0x3e
 3568 0cd7 84080000 		.4byte	0x884
 3569 0cdb 06000000 		.4byte	.LBB95
 3570 0cdf 30000000 		.4byte	.Ldebug_ranges0+0x30
ARM GAS  /var/folders/z0/6xlwn_996xz3mwq1cgzkbq4r0000gp/T//cc0Pdjko.s 			page 83


 3571 0ce3 01       		.byte	0x1
 3572 0ce4 55       		.byte	0x55
 3573 0ce5 34       		.uleb128 0x34
 3574 0ce6 91080000 		.4byte	0x891
 3575 0cea C3030000 		.4byte	.LLST16
 3576 0cee 00       		.byte	0
 3577 0cef 00       		.byte	0
 3578 0cf0 00       		.byte	0
 3579 0cf1 3F       		.uleb128 0x3f
 3580 0cf2 B95D0000 		.4byte	.LASF1241
 3581 0cf6 01       		.byte	0x1
 3582 0cf7 8C01     		.2byte	0x18c
 3583 0cf9 00000000 		.4byte	.LFB216
 3584 0cfd 24000000 		.4byte	.LFE216-.LFB216
 3585 0d01 01       		.uleb128 0x1
 3586 0d02 9C       		.byte	0x9c
 3587 0d03 370D0000 		.4byte	0xd37
 3588 0d07 3C       		.uleb128 0x3c
 3589 0d08 696400   		.ascii	"id\000"
 3590 0d0b 01       		.byte	0x1
 3591 0d0c 8C01     		.2byte	0x18c
 3592 0d0e 56070000 		.4byte	0x756
 3593 0d12 DA030000 		.4byte	.LLST17
 3594 0d16 38       		.uleb128 0x38
 3595 0d17 94300000 		.4byte	.LASF1242
 3596 0d1b 01       		.byte	0x1
 3597 0d1c 8C01     		.2byte	0x18c
 3598 0d1e 90000000 		.4byte	0x90
 3599 0d22 FB030000 		.4byte	.LLST18
 3600 0d26 39       		.uleb128 0x39
 3601 0d27 B7730000 		.4byte	.LASF1243
 3602 0d2b 01       		.byte	0x1
 3603 0d2c 8F01     		.2byte	0x18f
 3604 0d2e 90000000 		.4byte	0x90
 3605 0d32 1C040000 		.4byte	.LLST19
 3606 0d36 00       		.byte	0
 3607 0d37 40       		.uleb128 0x40
 3608 0d38 97410000 		.4byte	.LASF1244
 3609 0d3c 01       		.byte	0x1
 3610 0d3d 9701     		.2byte	0x197
 3611 0d3f 90000000 		.4byte	0x90
 3612 0d43 00000000 		.4byte	.LFB217
 3613 0d47 20000000 		.4byte	.LFE217-.LFB217
 3614 0d4b 01       		.uleb128 0x1
 3615 0d4c 9C       		.byte	0x9c
 3616 0d4d 610D0000 		.4byte	0xd61
 3617 0d51 3C       		.uleb128 0x3c
 3618 0d52 696400   		.ascii	"id\000"
 3619 0d55 01       		.byte	0x1
 3620 0d56 9701     		.2byte	0x197
 3621 0d58 56070000 		.4byte	0x756
 3622 0d5c 2F040000 		.4byte	.LLST20
 3623 0d60 00       		.byte	0
 3624 0d61 37       		.uleb128 0x37
 3625 0d62 6F770000 		.4byte	.LASF1245
 3626 0d66 01       		.byte	0x1
 3627 0d67 9E01     		.2byte	0x19e
ARM GAS  /var/folders/z0/6xlwn_996xz3mwq1cgzkbq4r0000gp/T//cc0Pdjko.s 			page 84


 3628 0d69 77000000 		.4byte	0x77
 3629 0d6d 00000000 		.4byte	.LFB218
 3630 0d71 20000000 		.4byte	.LFE218-.LFB218
 3631 0d75 01       		.uleb128 0x1
 3632 0d76 9C       		.byte	0x9c
 3633 0d77 AE0D0000 		.4byte	0xdae
 3634 0d7b 3C       		.uleb128 0x3c
 3635 0d7c 696400   		.ascii	"id\000"
 3636 0d7f 01       		.byte	0x1
 3637 0d80 9E01     		.2byte	0x19e
 3638 0d82 56070000 		.4byte	0x756
 3639 0d86 50040000 		.4byte	.LLST21
 3640 0d8a 38       		.uleb128 0x38
 3641 0d8b 7A400000 		.4byte	.LASF1211
 3642 0d8f 01       		.byte	0x1
 3643 0d90 9E01     		.2byte	0x19e
 3644 0d92 A0070000 		.4byte	0x7a0
 3645 0d96 7C040000 		.4byte	.LLST22
 3646 0d9a 41       		.uleb128 0x41
 3647 0d9b 69696300 		.ascii	"iic\000"
 3648 0d9f 01       		.byte	0x1
 3649 0da0 A101     		.2byte	0x1a1
 3650 0da2 40090000 		.4byte	0x940
 3651 0da6 06       		.uleb128 0x6
 3652 0da7 03       		.byte	0x3
 3653 0da8 00000000 		.4byte	i2c
 3654 0dac 9F       		.byte	0x9f
 3655 0dad 00       		.byte	0
 3656 0dae 37       		.uleb128 0x37
 3657 0daf 5B0A0000 		.4byte	.LASF1246
 3658 0db3 01       		.byte	0x1
 3659 0db4 A901     		.2byte	0x1a9
 3660 0db6 A0070000 		.4byte	0x7a0
 3661 0dba 00000000 		.4byte	.LFB219
 3662 0dbe 0C000000 		.4byte	.LFE219-.LFB219
 3663 0dc2 01       		.uleb128 0x1
 3664 0dc3 9C       		.byte	0x9c
 3665 0dc4 D80D0000 		.4byte	0xdd8
 3666 0dc8 3C       		.uleb128 0x3c
 3667 0dc9 696400   		.ascii	"id\000"
 3668 0dcc 01       		.byte	0x1
 3669 0dcd A901     		.2byte	0x1a9
 3670 0dcf 56070000 		.4byte	0x756
 3671 0dd3 A8040000 		.4byte	.LLST23
 3672 0dd7 00       		.byte	0
 3673 0dd8 37       		.uleb128 0x37
 3674 0dd9 62400000 		.4byte	.LASF1247
 3675 0ddd 01       		.byte	0x1
 3676 0dde B001     		.2byte	0x1b0
 3677 0de0 77000000 		.4byte	0x77
 3678 0de4 00000000 		.4byte	.LFB220
 3679 0de8 60000000 		.4byte	.LFE220-.LFB220
 3680 0dec 01       		.uleb128 0x1
 3681 0ded 9C       		.byte	0x9c
 3682 0dee B80E0000 		.4byte	0xeb8
 3683 0df2 3C       		.uleb128 0x3c
 3684 0df3 696400   		.ascii	"id\000"
ARM GAS  /var/folders/z0/6xlwn_996xz3mwq1cgzkbq4r0000gp/T//cc0Pdjko.s 			page 85


 3685 0df6 01       		.byte	0x1
 3686 0df7 B001     		.2byte	0x1b0
 3687 0df9 56070000 		.4byte	0x756
 3688 0dfd C9040000 		.4byte	.LLST24
 3689 0e01 38       		.uleb128 0x38
 3690 0e02 30760000 		.4byte	.LASF1210
 3691 0e06 01       		.byte	0x1
 3692 0e07 B001     		.2byte	0x1b0
 3693 0e09 28080000 		.4byte	0x828
 3694 0e0d EA040000 		.4byte	.LLST25
 3695 0e11 41       		.uleb128 0x41
 3696 0e12 69696300 		.ascii	"iic\000"
 3697 0e16 01       		.byte	0x1
 3698 0e17 B201     		.2byte	0x1b2
 3699 0e19 40090000 		.4byte	0x940
 3700 0e1d 06       		.uleb128 0x6
 3701 0e1e 03       		.byte	0x3
 3702 0e1f 00000000 		.4byte	i2c
 3703 0e23 9F       		.byte	0x9f
 3704 0e24 42       		.uleb128 0x42
 3705 0e25 91090000 		.4byte	0x991
 3706 0e29 2A000000 		.4byte	.LBB101
 3707 0e2d 02000000 		.4byte	.LBE101-.LBB101
 3708 0e31 01       		.byte	0x1
 3709 0e32 BF01     		.2byte	0x1bf
 3710 0e34 420E0000 		.4byte	0xe42
 3711 0e38 34       		.uleb128 0x34
 3712 0e39 A1090000 		.4byte	0x9a1
 3713 0e3d 21050000 		.4byte	.LLST26
 3714 0e41 00       		.byte	0
 3715 0e42 42       		.uleb128 0x42
 3716 0e43 AD090000 		.4byte	0x9ad
 3717 0e47 3A000000 		.4byte	.LBB103
 3718 0e4b 08000000 		.4byte	.LBE103-.LBB103
 3719 0e4f 01       		.byte	0x1
 3720 0e50 C301     		.2byte	0x1c3
 3721 0e52 600E0000 		.4byte	0xe60
 3722 0e56 34       		.uleb128 0x34
 3723 0e57 B9090000 		.4byte	0x9b9
 3724 0e5b 38050000 		.4byte	.LLST27
 3725 0e5f 00       		.byte	0
 3726 0e60 43       		.uleb128 0x43
 3727 0e61 79090000 		.4byte	0x979
 3728 0e65 4E000000 		.4byte	.LBB105
 3729 0e69 48000000 		.4byte	.Ldebug_ranges0+0x48
 3730 0e6d 01       		.byte	0x1
 3731 0e6e B901     		.2byte	0x1b9
 3732 0e70 7C0E0000 		.4byte	0xe7c
 3733 0e74 2A       		.uleb128 0x2a
 3734 0e75 85090000 		.4byte	0x985
 3735 0e79 01       		.uleb128 0x1
 3736 0e7a 53       		.byte	0x53
 3737 0e7b 00       		.byte	0
 3738 0e7c 44       		.uleb128 0x44
 3739 0e7d 0E000000 		.4byte	.LVL77
 3740 0e81 910E0000 		.4byte	0xe91
 3741 0e85 45       		.uleb128 0x45
ARM GAS  /var/folders/z0/6xlwn_996xz3mwq1cgzkbq4r0000gp/T//cc0Pdjko.s 			page 86


 3742 0e86 01       		.uleb128 0x1
 3743 0e87 50       		.byte	0x50
 3744 0e88 02       		.uleb128 0x2
 3745 0e89 76       		.byte	0x76
 3746 0e8a 00       		.sleb128 0
 3747 0e8b 45       		.uleb128 0x45
 3748 0e8c 01       		.uleb128 0x1
 3749 0e8d 51       		.byte	0x51
 3750 0e8e 01       		.uleb128 0x1
 3751 0e8f 33       		.byte	0x33
 3752 0e90 00       		.byte	0
 3753 0e91 44       		.uleb128 0x44
 3754 0e92 22000000 		.4byte	.LVL78
 3755 0e96 A60E0000 		.4byte	0xea6
 3756 0e9a 45       		.uleb128 0x45
 3757 0e9b 01       		.uleb128 0x1
 3758 0e9c 50       		.byte	0x50
 3759 0e9d 02       		.uleb128 0x2
 3760 0e9e 76       		.byte	0x76
 3761 0e9f 00       		.sleb128 0
 3762 0ea0 45       		.uleb128 0x45
 3763 0ea1 01       		.uleb128 0x1
 3764 0ea2 51       		.byte	0x51
 3765 0ea3 01       		.uleb128 0x1
 3766 0ea4 31       		.byte	0x31
 3767 0ea5 00       		.byte	0
 3768 0ea6 46       		.uleb128 0x46
 3769 0ea7 4A000000 		.4byte	.LVL83
 3770 0eab 45       		.uleb128 0x45
 3771 0eac 01       		.uleb128 0x1
 3772 0ead 50       		.byte	0x50
 3773 0eae 02       		.uleb128 0x2
 3774 0eaf 76       		.byte	0x76
 3775 0eb0 00       		.sleb128 0
 3776 0eb1 45       		.uleb128 0x45
 3777 0eb2 01       		.uleb128 0x1
 3778 0eb3 51       		.byte	0x51
 3779 0eb4 01       		.uleb128 0x1
 3780 0eb5 34       		.byte	0x34
 3781 0eb6 00       		.byte	0
 3782 0eb7 00       		.byte	0
 3783 0eb8 37       		.uleb128 0x37
 3784 0eb9 1C340000 		.4byte	.LASF1248
 3785 0ebd 01       		.byte	0x1
 3786 0ebe CB01     		.2byte	0x1cb
 3787 0ec0 77000000 		.4byte	0x77
 3788 0ec4 00000000 		.4byte	.LFB221
 3789 0ec8 28000000 		.4byte	.LFE221-.LFB221
 3790 0ecc 01       		.uleb128 0x1
 3791 0ecd 9C       		.byte	0x9c
 3792 0ece 370F0000 		.4byte	0xf37
 3793 0ed2 3C       		.uleb128 0x3c
 3794 0ed3 696400   		.ascii	"id\000"
 3795 0ed6 01       		.byte	0x1
 3796 0ed7 CB01     		.2byte	0x1cb
 3797 0ed9 56070000 		.4byte	0x756
 3798 0edd 4F050000 		.4byte	.LLST28
ARM GAS  /var/folders/z0/6xlwn_996xz3mwq1cgzkbq4r0000gp/T//cc0Pdjko.s 			page 87


 3799 0ee1 38       		.uleb128 0x38
 3800 0ee2 05640000 		.4byte	.LASF1183
 3801 0ee6 01       		.byte	0x1
 3802 0ee7 CB01     		.2byte	0x1cb
 3803 0ee9 85000000 		.4byte	0x85
 3804 0eed 70050000 		.4byte	.LLST29
 3805 0ef1 38       		.uleb128 0x38
 3806 0ef2 6E450000 		.4byte	.LASF1249
 3807 0ef6 01       		.byte	0x1
 3808 0ef7 CB01     		.2byte	0x1cb
 3809 0ef9 1B070000 		.4byte	0x71b
 3810 0efd 91050000 		.4byte	.LLST30
 3811 0f01 3C       		.uleb128 0x3c
 3812 0f02 6C656E00 		.ascii	"len\000"
 3813 0f06 01       		.byte	0x1
 3814 0f07 CB01     		.2byte	0x1cb
 3815 0f09 85000000 		.4byte	0x85
 3816 0f0d B2050000 		.4byte	.LLST31
 3817 0f11 47       		.uleb128 0x47
 3818 0f12 30760000 		.4byte	.LASF1210
 3819 0f16 01       		.byte	0x1
 3820 0f17 CD01     		.2byte	0x1cd
 3821 0f19 2C070000 		.4byte	0x72c
 3822 0f1d 02       		.uleb128 0x2
 3823 0f1e 91       		.byte	0x91
 3824 0f1f 58       		.sleb128 -40
 3825 0f20 48       		.uleb128 0x48
 3826 0f21 1C000000 		.4byte	.LVL90
 3827 0f25 D80D0000 		.4byte	0xdd8
 3828 0f29 45       		.uleb128 0x45
 3829 0f2a 01       		.uleb128 0x1
 3830 0f2b 50       		.byte	0x50
 3831 0f2c 02       		.uleb128 0x2
 3832 0f2d 74       		.byte	0x74
 3833 0f2e 00       		.sleb128 0
 3834 0f2f 45       		.uleb128 0x45
 3835 0f30 01       		.uleb128 0x1
 3836 0f31 51       		.byte	0x51
 3837 0f32 02       		.uleb128 0x2
 3838 0f33 7D       		.byte	0x7d
 3839 0f34 00       		.sleb128 0
 3840 0f35 00       		.byte	0
 3841 0f36 00       		.byte	0
 3842 0f37 37       		.uleb128 0x37
 3843 0f38 83550000 		.4byte	.LASF1250
 3844 0f3c 01       		.byte	0x1
 3845 0f3d D901     		.2byte	0x1d9
 3846 0f3f 77000000 		.4byte	0x77
 3847 0f43 00000000 		.4byte	.LFB222
 3848 0f47 30000000 		.4byte	.LFE222-.LFB222
 3849 0f4b 01       		.uleb128 0x1
 3850 0f4c 9C       		.byte	0x9c
 3851 0f4d C50F0000 		.4byte	0xfc5
 3852 0f51 3C       		.uleb128 0x3c
 3853 0f52 696400   		.ascii	"id\000"
 3854 0f55 01       		.byte	0x1
 3855 0f56 D901     		.2byte	0x1d9
ARM GAS  /var/folders/z0/6xlwn_996xz3mwq1cgzkbq4r0000gp/T//cc0Pdjko.s 			page 88


 3856 0f58 56070000 		.4byte	0x756
 3857 0f5c D3050000 		.4byte	.LLST32
 3858 0f60 38       		.uleb128 0x38
 3859 0f61 05640000 		.4byte	.LASF1183
 3860 0f65 01       		.byte	0x1
 3861 0f66 D901     		.2byte	0x1d9
 3862 0f68 85000000 		.4byte	0x85
 3863 0f6c F4050000 		.4byte	.LLST33
 3864 0f70 3C       		.uleb128 0x3c
 3865 0f71 636D6400 		.ascii	"cmd\000"
 3866 0f75 01       		.byte	0x1
 3867 0f76 D901     		.2byte	0x1d9
 3868 0f78 85000000 		.4byte	0x85
 3869 0f7c 15060000 		.4byte	.LLST34
 3870 0f80 38       		.uleb128 0x38
 3871 0f81 6E450000 		.4byte	.LASF1249
 3872 0f85 01       		.byte	0x1
 3873 0f86 D901     		.2byte	0x1d9
 3874 0f88 26070000 		.4byte	0x726
 3875 0f8c 58060000 		.4byte	.LLST35
 3876 0f90 49       		.uleb128 0x49
 3877 0f91 6C656E00 		.ascii	"len\000"
 3878 0f95 01       		.byte	0x1
 3879 0f96 D901     		.2byte	0x1d9
 3880 0f98 77000000 		.4byte	0x77
 3881 0f9c 02       		.uleb128 0x2
 3882 0f9d 91       		.byte	0x91
 3883 0f9e 00       		.sleb128 0
 3884 0f9f 47       		.uleb128 0x47
 3885 0fa0 30760000 		.4byte	.LASF1210
 3886 0fa4 01       		.byte	0x1
 3887 0fa5 DB01     		.2byte	0x1db
 3888 0fa7 2C070000 		.4byte	0x72c
 3889 0fab 02       		.uleb128 0x2
 3890 0fac 91       		.byte	0x91
 3891 0fad 58       		.sleb128 -40
 3892 0fae 48       		.uleb128 0x48
 3893 0faf 24000000 		.4byte	.LVL96
 3894 0fb3 D80D0000 		.4byte	0xdd8
 3895 0fb7 45       		.uleb128 0x45
 3896 0fb8 01       		.uleb128 0x1
 3897 0fb9 50       		.byte	0x50
 3898 0fba 02       		.uleb128 0x2
 3899 0fbb 75       		.byte	0x75
 3900 0fbc 00       		.sleb128 0
 3901 0fbd 45       		.uleb128 0x45
 3902 0fbe 01       		.uleb128 0x1
 3903 0fbf 51       		.byte	0x51
 3904 0fc0 02       		.uleb128 0x2
 3905 0fc1 74       		.byte	0x74
 3906 0fc2 00       		.sleb128 0
 3907 0fc3 00       		.byte	0
 3908 0fc4 00       		.byte	0
 3909 0fc5 37       		.uleb128 0x37
 3910 0fc6 4C3C0000 		.4byte	.LASF1251
 3911 0fca 01       		.byte	0x1
 3912 0fcb E601     		.2byte	0x1e6
ARM GAS  /var/folders/z0/6xlwn_996xz3mwq1cgzkbq4r0000gp/T//cc0Pdjko.s 			page 89


 3913 0fcd 77000000 		.4byte	0x77
 3914 0fd1 00000000 		.4byte	.LFB223
 3915 0fd5 28000000 		.4byte	.LFE223-.LFB223
 3916 0fd9 01       		.uleb128 0x1
 3917 0fda 9C       		.byte	0x9c
 3918 0fdb 44100000 		.4byte	0x1044
 3919 0fdf 3C       		.uleb128 0x3c
 3920 0fe0 696400   		.ascii	"id\000"
 3921 0fe3 01       		.byte	0x1
 3922 0fe4 E601     		.2byte	0x1e6
 3923 0fe6 56070000 		.4byte	0x756
 3924 0fea 79060000 		.4byte	.LLST36
 3925 0fee 38       		.uleb128 0x38
 3926 0fef 05640000 		.4byte	.LASF1183
 3927 0ff3 01       		.byte	0x1
 3928 0ff4 E601     		.2byte	0x1e6
 3929 0ff6 85000000 		.4byte	0x85
 3930 0ffa 9A060000 		.4byte	.LLST37
 3931 0ffe 38       		.uleb128 0x38
 3932 0fff 6E450000 		.4byte	.LASF1249
 3933 1003 01       		.byte	0x1
 3934 1004 E601     		.2byte	0x1e6
 3935 1006 26070000 		.4byte	0x726
 3936 100a BB060000 		.4byte	.LLST38
 3937 100e 3C       		.uleb128 0x3c
 3938 100f 6C656E00 		.ascii	"len\000"
 3939 1013 01       		.byte	0x1
 3940 1014 E601     		.2byte	0x1e6
 3941 1016 77000000 		.4byte	0x77
 3942 101a DC060000 		.4byte	.LLST39
 3943 101e 47       		.uleb128 0x47
 3944 101f 30760000 		.4byte	.LASF1210
 3945 1023 01       		.byte	0x1
 3946 1024 E901     		.2byte	0x1e9
 3947 1026 2C070000 		.4byte	0x72c
 3948 102a 02       		.uleb128 0x2
 3949 102b 91       		.byte	0x91
 3950 102c 58       		.sleb128 -40
 3951 102d 48       		.uleb128 0x48
 3952 102e 1C000000 		.4byte	.LVL101
 3953 1032 D80D0000 		.4byte	0xdd8
 3954 1036 45       		.uleb128 0x45
 3955 1037 01       		.uleb128 0x1
 3956 1038 50       		.byte	0x50
 3957 1039 02       		.uleb128 0x2
 3958 103a 74       		.byte	0x74
 3959 103b 00       		.sleb128 0
 3960 103c 45       		.uleb128 0x45
 3961 103d 01       		.uleb128 0x1
 3962 103e 51       		.byte	0x51
 3963 103f 02       		.uleb128 0x2
 3964 1040 7D       		.byte	0x7d
 3965 1041 00       		.sleb128 0
 3966 1042 00       		.byte	0
 3967 1043 00       		.byte	0
 3968 1044 37       		.uleb128 0x37
 3969 1045 DA270000 		.4byte	.LASF1252
ARM GAS  /var/folders/z0/6xlwn_996xz3mwq1cgzkbq4r0000gp/T//cc0Pdjko.s 			page 90


 3970 1049 01       		.byte	0x1
 3971 104a F301     		.2byte	0x1f3
 3972 104c 77000000 		.4byte	0x77
 3973 1050 00000000 		.4byte	.LFB224
 3974 1054 1C000000 		.4byte	.LFE224-.LFB224
 3975 1058 01       		.uleb128 0x1
 3976 1059 9C       		.byte	0x9c
 3977 105a A1100000 		.4byte	0x10a1
 3978 105e 3C       		.uleb128 0x3c
 3979 105f 696400   		.ascii	"id\000"
 3980 1062 01       		.byte	0x1
 3981 1063 F301     		.2byte	0x1f3
 3982 1065 56070000 		.4byte	0x756
 3983 1069 08070000 		.4byte	.LLST40
 3984 106d 36       		.uleb128 0x36
 3985 106e C5090000 		.4byte	0x9c5
 3986 1072 08000000 		.4byte	.LBB109
 3987 1076 02000000 		.4byte	.LBE109-.LBB109
 3988 107a 01       		.byte	0x1
 3989 107b F601     		.2byte	0x1f6
 3990 107d 34       		.uleb128 0x34
 3991 107e D5090000 		.4byte	0x9d5
 3992 1082 29070000 		.4byte	.LLST41
 3993 1086 33       		.uleb128 0x33
 3994 1087 B5080000 		.4byte	0x8b5
 3995 108b 08000000 		.4byte	.LBB111
 3996 108f 02000000 		.4byte	.LBE111-.LBB111
 3997 1093 01       		.byte	0x1
 3998 1094 82       		.byte	0x82
 3999 1095 34       		.uleb128 0x34
 4000 1096 C5080000 		.4byte	0x8c5
 4001 109a 29070000 		.4byte	.LLST41
 4002 109e 00       		.byte	0
 4003 109f 00       		.byte	0
 4004 10a0 00       		.byte	0
 4005 10a1 29       		.uleb128 0x29
 4006 10a2 E1090000 		.4byte	0x9e1
 4007 10a6 00000000 		.4byte	.LFB225
 4008 10aa 20000000 		.4byte	.LFE225-.LFB225
 4009 10ae 01       		.uleb128 0x1
 4010 10af 9C       		.byte	0x9c
 4011 10b0 EF100000 		.4byte	0x10ef
 4012 10b4 34       		.uleb128 0x34
 4013 10b5 EE090000 		.4byte	0x9ee
 4014 10b9 3C070000 		.4byte	.LLST43
 4015 10bd 4A       		.uleb128 0x4a
 4016 10be 12000000 		.4byte	.LBB115
 4017 10c2 08000000 		.4byte	.LBE115-.LBB115
 4018 10c6 E5100000 		.4byte	0x10e5
 4019 10ca 34       		.uleb128 0x34
 4020 10cb EE090000 		.4byte	0x9ee
 4021 10cf 5D070000 		.4byte	.LLST44
 4022 10d3 46       		.uleb128 0x46
 4023 10d4 1A000000 		.4byte	.LVL111
 4024 10d8 45       		.uleb128 0x45
 4025 10d9 01       		.uleb128 0x1
 4026 10da 50       		.byte	0x50
ARM GAS  /var/folders/z0/6xlwn_996xz3mwq1cgzkbq4r0000gp/T//cc0Pdjko.s 			page 91


 4027 10db 02       		.uleb128 0x2
 4028 10dc 75       		.byte	0x75
 4029 10dd 00       		.sleb128 0
 4030 10de 45       		.uleb128 0x45
 4031 10df 01       		.uleb128 0x1
 4032 10e0 51       		.byte	0x51
 4033 10e1 01       		.uleb128 0x1
 4034 10e2 32       		.byte	0x32
 4035 10e3 00       		.byte	0
 4036 10e4 00       		.byte	0
 4037 10e5 4B       		.uleb128 0x4b
 4038 10e6 0E000000 		.4byte	.LVL109
 4039 10ea D30A0000 		.4byte	0xad3
 4040 10ee 00       		.byte	0
 4041 10ef 3B       		.uleb128 0x3b
 4042 10f0 28180000 		.4byte	.LASF1253
 4043 10f4 01       		.byte	0x1
 4044 10f5 5C01     		.2byte	0x15c
 4045 10f7 00000000 		.4byte	.LFB213
 4046 10fb 2C000000 		.4byte	.LFE213-.LFB213
 4047 10ff 01       		.uleb128 0x1
 4048 1100 9C       		.byte	0x9c
 4049 1101 76110000 		.4byte	0x1176
 4050 1105 3C       		.uleb128 0x3c
 4051 1106 696400   		.ascii	"id\000"
 4052 1109 01       		.byte	0x1
 4053 110a 5C01     		.2byte	0x15c
 4054 110c 56070000 		.4byte	0x756
 4055 1110 70070000 		.4byte	.LLST45
 4056 1114 38       		.uleb128 0x38
 4057 1115 7A400000 		.4byte	.LASF1211
 4058 1119 01       		.byte	0x1
 4059 111a 5C01     		.2byte	0x15c
 4060 111c 94070000 		.4byte	0x794
 4061 1120 AA070000 		.4byte	.LLST46
 4062 1124 41       		.uleb128 0x41
 4063 1125 69696300 		.ascii	"iic\000"
 4064 1129 01       		.byte	0x1
 4065 112a 5E01     		.2byte	0x15e
 4066 112c 40090000 		.4byte	0x940
 4067 1130 06       		.uleb128 0x6
 4068 1131 03       		.byte	0x3
 4069 1132 00000000 		.4byte	i2c
 4070 1136 9F       		.byte	0x9f
 4071 1137 47       		.uleb128 0x47
 4072 1138 660C0000 		.4byte	.LASF1222
 4073 113c 01       		.byte	0x1
 4074 113d 5F01     		.2byte	0x15f
 4075 113f 46090000 		.4byte	0x946
 4076 1143 03       		.uleb128 0x3
 4077 1144 74       		.byte	0x74
 4078 1145 14       		.sleb128 20
 4079 1146 9F       		.byte	0x9f
 4080 1147 43       		.uleb128 0x43
 4081 1148 510A0000 		.4byte	0xa51
 4082 114c 10000000 		.4byte	.LBB117
 4083 1150 60000000 		.4byte	.Ldebug_ranges0+0x60
ARM GAS  /var/folders/z0/6xlwn_996xz3mwq1cgzkbq4r0000gp/T//cc0Pdjko.s 			page 92


 4084 1154 01       		.byte	0x1
 4085 1155 6901     		.2byte	0x169
 4086 1157 65110000 		.4byte	0x1165
 4087 115b 34       		.uleb128 0x34
 4088 115c 620A0000 		.4byte	0xa62
 4089 1160 E4070000 		.4byte	.LLST47
 4090 1164 00       		.byte	0
 4091 1165 48       		.uleb128 0x48
 4092 1166 24000000 		.4byte	.LVL118
 4093 116a E1090000 		.4byte	0x9e1
 4094 116e 45       		.uleb128 0x45
 4095 116f 01       		.uleb128 0x1
 4096 1170 50       		.byte	0x50
 4097 1171 02       		.uleb128 0x2
 4098 1172 77       		.byte	0x77
 4099 1173 00       		.sleb128 0
 4100 1174 00       		.byte	0
 4101 1175 00       		.byte	0
 4102 1176 3B       		.uleb128 0x3b
 4103 1177 D04A0000 		.4byte	.LASF1254
 4104 117b 01       		.byte	0x1
 4105 117c 0202     		.2byte	0x202
 4106 117e 00000000 		.4byte	.LFB226
 4107 1182 70000000 		.4byte	.LFE226-.LFB226
 4108 1186 01       		.uleb128 0x1
 4109 1187 9C       		.byte	0x9c
 4110 1188 72120000 		.4byte	0x1272
 4111 118c 3C       		.uleb128 0x3c
 4112 118d 696400   		.ascii	"id\000"
 4113 1190 01       		.byte	0x1
 4114 1191 0202     		.2byte	0x202
 4115 1193 56070000 		.4byte	0x756
 4116 1197 F7070000 		.4byte	.LLST48
 4117 119b 3C       		.uleb128 0x3c
 4118 119c 73696400 		.ascii	"sid\000"
 4119 11a0 01       		.byte	0x1
 4120 11a1 0302     		.2byte	0x203
 4121 11a3 81060000 		.4byte	0x681
 4122 11a7 18080000 		.4byte	.LLST49
 4123 11ab 38       		.uleb128 0x38
 4124 11ac 30760000 		.4byte	.LASF1210
 4125 11b0 01       		.byte	0x1
 4126 11b1 0402     		.2byte	0x204
 4127 11b3 28080000 		.4byte	0x828
 4128 11b7 44080000 		.4byte	.LLST50
 4129 11bb 38       		.uleb128 0x38
 4130 11bc 7A400000 		.4byte	.LASF1211
 4131 11c0 01       		.byte	0x1
 4132 11c1 0502     		.2byte	0x205
 4133 11c3 A0070000 		.4byte	0x7a0
 4134 11c7 65080000 		.4byte	.LLST51
 4135 11cb 38       		.uleb128 0x38
 4136 11cc 95340000 		.4byte	.LASF1255
 4137 11d0 01       		.byte	0x1
 4138 11d1 0602     		.2byte	0x206
 4139 11d3 85000000 		.4byte	0x85
 4140 11d7 86080000 		.4byte	.LLST52
ARM GAS  /var/folders/z0/6xlwn_996xz3mwq1cgzkbq4r0000gp/T//cc0Pdjko.s 			page 93


 4141 11db 41       		.uleb128 0x41
 4142 11dc 69696300 		.ascii	"iic\000"
 4143 11e0 01       		.byte	0x1
 4144 11e1 0802     		.2byte	0x208
 4145 11e3 40090000 		.4byte	0x940
 4146 11e7 06       		.uleb128 0x6
 4147 11e8 03       		.byte	0x3
 4148 11e9 00000000 		.4byte	i2c
 4149 11ed 9F       		.byte	0x9f
 4150 11ee 39       		.uleb128 0x39
 4151 11ef 432A0000 		.4byte	.LASF1256
 4152 11f3 01       		.byte	0x1
 4153 11f4 0902     		.2byte	0x209
 4154 11f6 72120000 		.4byte	0x1272
 4155 11fa B2080000 		.4byte	.LLST53
 4156 11fe 43       		.uleb128 0x43
 4157 11ff FA090000 		.4byte	0x9fa
 4158 1203 1E000000 		.4byte	.LBB121
 4159 1207 78000000 		.4byte	.Ldebug_ranges0+0x78
 4160 120b 01       		.byte	0x1
 4161 120c 0F02     		.2byte	0x20f
 4162 120e 59120000 		.4byte	0x1259
 4163 1212 34       		.uleb128 0x34
 4164 1213 270A0000 		.4byte	0xa27
 4165 1217 D4080000 		.4byte	.LLST54
 4166 121b 34       		.uleb128 0x34
 4167 121c 1C0A0000 		.4byte	0xa1c
 4168 1220 F2080000 		.4byte	.LLST55
 4169 1224 34       		.uleb128 0x34
 4170 1225 110A0000 		.4byte	0xa11
 4171 1229 10090000 		.4byte	.LLST56
 4172 122d 34       		.uleb128 0x34
 4173 122e 060A0000 		.4byte	0xa06
 4174 1232 2E090000 		.4byte	.LLST57
 4175 1236 4C       		.uleb128 0x4c
 4176 1237 78000000 		.4byte	.Ldebug_ranges0+0x78
 4177 123b 4D       		.uleb128 0x4d
 4178 123c 320A0000 		.4byte	0xa32
 4179 1240 5B090000 		.4byte	.LLST58
 4180 1244 2D       		.uleb128 0x2d
 4181 1245 2C000000 		.4byte	.LBB123
 4182 1249 0C000000 		.4byte	.LBE123-.LBB123
 4183 124d 4D       		.uleb128 0x4d
 4184 124e 3E0A0000 		.4byte	0xa3e
 4185 1252 7D090000 		.4byte	.LLST59
 4186 1256 00       		.byte	0
 4187 1257 00       		.byte	0
 4188 1258 00       		.byte	0
 4189 1259 3D       		.uleb128 0x3d
 4190 125a AD090000 		.4byte	0x9ad
 4191 125e 58000000 		.4byte	.LBB128
 4192 1262 98000000 		.4byte	.Ldebug_ranges0+0x98
 4193 1266 01       		.byte	0x1
 4194 1267 1302     		.2byte	0x213
 4195 1269 2A       		.uleb128 0x2a
 4196 126a B9090000 		.4byte	0x9b9
 4197 126e 01       		.uleb128 0x1
ARM GAS  /var/folders/z0/6xlwn_996xz3mwq1cgzkbq4r0000gp/T//cc0Pdjko.s 			page 94


 4198 126f 52       		.byte	0x52
 4199 1270 00       		.byte	0
 4200 1271 00       		.byte	0
 4201 1272 14       		.uleb128 0x14
 4202 1273 04       		.byte	0x4
 4203 1274 2E080000 		.4byte	0x82e
 4204 1278 3B       		.uleb128 0x3b
 4205 1279 C1280000 		.4byte	.LASF1257
 4206 127d 01       		.byte	0x1
 4207 127e 1902     		.2byte	0x219
 4208 1280 00000000 		.4byte	.LFB227
 4209 1284 60000000 		.4byte	.LFE227-.LFB227
 4210 1288 01       		.uleb128 0x1
 4211 1289 9C       		.byte	0x9c
 4212 128a 21130000 		.4byte	0x1321
 4213 128e 3C       		.uleb128 0x3c
 4214 128f 696400   		.ascii	"id\000"
 4215 1292 01       		.byte	0x1
 4216 1293 1902     		.2byte	0x219
 4217 1295 56070000 		.4byte	0x756
 4218 1299 B0090000 		.4byte	.LLST60
 4219 129d 3A       		.uleb128 0x3a
 4220 129e 72657400 		.ascii	"ret\000"
 4221 12a2 01       		.byte	0x1
 4222 12a3 1B02     		.2byte	0x21b
 4223 12a5 77000000 		.4byte	0x77
 4224 12a9 EA090000 		.4byte	.LLST61
 4225 12ad 41       		.uleb128 0x41
 4226 12ae 69696300 		.ascii	"iic\000"
 4227 12b2 01       		.byte	0x1
 4228 12b3 1C02     		.2byte	0x21c
 4229 12b5 40090000 		.4byte	0x940
 4230 12b9 06       		.uleb128 0x6
 4231 12ba 03       		.byte	0x3
 4232 12bb 00000000 		.4byte	i2c
 4233 12bf 9F       		.byte	0x9f
 4234 12c0 4E       		.uleb128 0x4e
 4235 12c1 B0000000 		.4byte	.Ldebug_ranges0+0xb0
 4236 12c5 FA120000 		.4byte	0x12fa
 4237 12c9 39       		.uleb128 0x39
 4238 12ca 432A0000 		.4byte	.LASF1256
 4239 12ce 01       		.byte	0x1
 4240 12cf 2002     		.2byte	0x220
 4241 12d1 72120000 		.4byte	0x1272
 4242 12d5 080A0000 		.4byte	.LLST62
 4243 12d9 3A       		.uleb128 0x3a
 4244 12da 73696400 		.ascii	"sid\000"
 4245 12de 01       		.byte	0x1
 4246 12df 2202     		.2byte	0x222
 4247 12e1 81060000 		.4byte	0x681
 4248 12e5 2A0A0000 		.4byte	.LLST63
 4249 12e9 48       		.uleb128 0x48
 4250 12ea 40000000 		.4byte	.LVL141
 4251 12ee 51090000 		.4byte	0x951
 4252 12f2 45       		.uleb128 0x45
 4253 12f3 01       		.uleb128 0x1
 4254 12f4 50       		.byte	0x50
ARM GAS  /var/folders/z0/6xlwn_996xz3mwq1cgzkbq4r0000gp/T//cc0Pdjko.s 			page 95


 4255 12f5 02       		.uleb128 0x2
 4256 12f6 77       		.byte	0x77
 4257 12f7 00       		.sleb128 0
 4258 12f8 00       		.byte	0
 4259 12f9 00       		.byte	0
 4260 12fa 4F       		.uleb128 0x4f
 4261 12fb 22000000 		.4byte	.LVL135
 4262 12ff C80B0000 		.4byte	0xbc8
 4263 1303 14130000 		.4byte	0x1314
 4264 1307 45       		.uleb128 0x45
 4265 1308 01       		.uleb128 0x1
 4266 1309 50       		.byte	0x50
 4267 130a 02       		.uleb128 0x2
 4268 130b 77       		.byte	0x77
 4269 130c 00       		.sleb128 0
 4270 130d 45       		.uleb128 0x45
 4271 130e 01       		.uleb128 0x1
 4272 130f 51       		.byte	0x51
 4273 1310 02       		.uleb128 0x2
 4274 1311 74       		.byte	0x74
 4275 1312 00       		.sleb128 0
 4276 1313 00       		.byte	0
 4277 1314 46       		.uleb128 0x46
 4278 1315 34000000 		.4byte	.LVL137
 4279 1319 45       		.uleb128 0x45
 4280 131a 01       		.uleb128 0x1
 4281 131b 50       		.byte	0x50
 4282 131c 02       		.uleb128 0x2
 4283 131d 76       		.byte	0x76
 4284 131e 00       		.sleb128 0
 4285 131f 00       		.byte	0
 4286 1320 00       		.byte	0
 4287 1321 3B       		.uleb128 0x3b
 4288 1322 B17D0000 		.4byte	.LASF1258
 4289 1326 01       		.byte	0x1
 4290 1327 3302     		.2byte	0x233
 4291 1329 00000000 		.4byte	.LFB228
 4292 132d 10000000 		.4byte	.LFE228-.LFB228
 4293 1331 01       		.uleb128 0x1
 4294 1332 9C       		.byte	0x9c
 4295 1333 45130000 		.4byte	0x1345
 4296 1337 49       		.uleb128 0x49
 4297 1338 696400   		.ascii	"id\000"
 4298 133b 01       		.byte	0x1
 4299 133c 3302     		.2byte	0x233
 4300 133e 56070000 		.4byte	0x756
 4301 1342 01       		.uleb128 0x1
 4302 1343 50       		.byte	0x50
 4303 1344 00       		.byte	0
 4304 1345 29       		.uleb128 0x29
 4305 1346 510A0000 		.4byte	0xa51
 4306 134a 00000000 		.4byte	.LFB229
 4307 134e 10000000 		.4byte	.LFE229-.LFB229
 4308 1352 01       		.uleb128 0x1
 4309 1353 9C       		.byte	0x9c
 4310 1354 62130000 		.4byte	0x1362
 4311 1358 34       		.uleb128 0x34
ARM GAS  /var/folders/z0/6xlwn_996xz3mwq1cgzkbq4r0000gp/T//cc0Pdjko.s 			page 96


 4312 1359 620A0000 		.4byte	0xa62
 4313 135d 3D0A0000 		.4byte	.LLST64
 4314 1361 00       		.byte	0
 4315 1362 50       		.uleb128 0x50
 4316 1363 69326300 		.ascii	"i2c\000"
 4317 1367 01       		.byte	0x1
 4318 1368 3F       		.byte	0x3f
 4319 1369 C2070000 		.4byte	0x7c2
 4320 136d 05       		.uleb128 0x5
 4321 136e 03       		.byte	0x3
 4322 136f 00000000 		.4byte	i2c
 4323 1373 06       		.uleb128 0x6
 4324 1374 2E080000 		.4byte	0x82e
 4325 1378 89130000 		.4byte	0x1389
 4326 137c 07       		.uleb128 0x7
 4327 137d A9000000 		.4byte	0xa9
 4328 1381 00       		.byte	0
 4329 1382 07       		.uleb128 0x7
 4330 1383 A9000000 		.4byte	0xa9
 4331 1387 04       		.byte	0x4
 4332 1388 00       		.byte	0
 4333 1389 51       		.uleb128 0x51
 4334 138a 8F4E0000 		.4byte	.LASF1259
 4335 138e 01       		.byte	0x1
 4336 138f 42       		.byte	0x42
 4337 1390 73130000 		.4byte	0x1373
 4338 1394 05       		.uleb128 0x5
 4339 1395 03       		.byte	0x3
 4340 1396 00000000 		.4byte	i2c_slave
 4341 139a 52       		.uleb128 0x52
 4342 139b 41560000 		.4byte	.LASF1260
 4343 139f 07       		.byte	0x7
 4344 13a0 D4       		.byte	0xd4
 4345 13a1 96050000 		.4byte	0x596
 4346 13a5 53       		.uleb128 0x53
 4347 13a6 520B0000 		.4byte	.LASF1261
 4348 13aa 07       		.byte	0x7
 4349 13ab 1D01     		.2byte	0x11d
 4350 13ad 90000000 		.4byte	0x90
 4351 13b1 00       		.byte	0
 4352              		.section	.debug_abbrev,"",%progbits
 4353              	.Ldebug_abbrev0:
 4354 0000 01       		.uleb128 0x1
 4355 0001 11       		.uleb128 0x11
 4356 0002 01       		.byte	0x1
 4357 0003 25       		.uleb128 0x25
 4358 0004 0E       		.uleb128 0xe
 4359 0005 13       		.uleb128 0x13
 4360 0006 0B       		.uleb128 0xb
 4361 0007 03       		.uleb128 0x3
 4362 0008 0E       		.uleb128 0xe
 4363 0009 1B       		.uleb128 0x1b
 4364 000a 0E       		.uleb128 0xe
 4365 000b 55       		.uleb128 0x55
 4366 000c 17       		.uleb128 0x17
 4367 000d 11       		.uleb128 0x11
 4368 000e 01       		.uleb128 0x1
ARM GAS  /var/folders/z0/6xlwn_996xz3mwq1cgzkbq4r0000gp/T//cc0Pdjko.s 			page 97


 4369 000f 10       		.uleb128 0x10
 4370 0010 17       		.uleb128 0x17
 4371 0011 9942     		.uleb128 0x2119
 4372 0013 17       		.uleb128 0x17
 4373 0014 00       		.byte	0
 4374 0015 00       		.byte	0
 4375 0016 02       		.uleb128 0x2
 4376 0017 24       		.uleb128 0x24
 4377 0018 00       		.byte	0
 4378 0019 0B       		.uleb128 0xb
 4379 001a 0B       		.uleb128 0xb
 4380 001b 3E       		.uleb128 0x3e
 4381 001c 0B       		.uleb128 0xb
 4382 001d 03       		.uleb128 0x3
 4383 001e 0E       		.uleb128 0xe
 4384 001f 00       		.byte	0
 4385 0020 00       		.byte	0
 4386 0021 03       		.uleb128 0x3
 4387 0022 16       		.uleb128 0x16
 4388 0023 00       		.byte	0
 4389 0024 03       		.uleb128 0x3
 4390 0025 0E       		.uleb128 0xe
 4391 0026 3A       		.uleb128 0x3a
 4392 0027 0B       		.uleb128 0xb
 4393 0028 3B       		.uleb128 0x3b
 4394 0029 0B       		.uleb128 0xb
 4395 002a 49       		.uleb128 0x49
 4396 002b 13       		.uleb128 0x13
 4397 002c 00       		.byte	0
 4398 002d 00       		.byte	0
 4399 002e 04       		.uleb128 0x4
 4400 002f 24       		.uleb128 0x24
 4401 0030 00       		.byte	0
 4402 0031 0B       		.uleb128 0xb
 4403 0032 0B       		.uleb128 0xb
 4404 0033 3E       		.uleb128 0x3e
 4405 0034 0B       		.uleb128 0xb
 4406 0035 03       		.uleb128 0x3
 4407 0036 08       		.uleb128 0x8
 4408 0037 00       		.byte	0
 4409 0038 00       		.byte	0
 4410 0039 05       		.uleb128 0x5
 4411 003a 35       		.uleb128 0x35
 4412 003b 00       		.byte	0
 4413 003c 49       		.uleb128 0x49
 4414 003d 13       		.uleb128 0x13
 4415 003e 00       		.byte	0
 4416 003f 00       		.byte	0
 4417 0040 06       		.uleb128 0x6
 4418 0041 01       		.uleb128 0x1
 4419 0042 01       		.byte	0x1
 4420 0043 49       		.uleb128 0x49
 4421 0044 13       		.uleb128 0x13
 4422 0045 01       		.uleb128 0x1
 4423 0046 13       		.uleb128 0x13
 4424 0047 00       		.byte	0
 4425 0048 00       		.byte	0
ARM GAS  /var/folders/z0/6xlwn_996xz3mwq1cgzkbq4r0000gp/T//cc0Pdjko.s 			page 98


 4426 0049 07       		.uleb128 0x7
 4427 004a 21       		.uleb128 0x21
 4428 004b 00       		.byte	0
 4429 004c 49       		.uleb128 0x49
 4430 004d 13       		.uleb128 0x13
 4431 004e 2F       		.uleb128 0x2f
 4432 004f 0B       		.uleb128 0xb
 4433 0050 00       		.byte	0
 4434 0051 00       		.byte	0
 4435 0052 08       		.uleb128 0x8
 4436 0053 26       		.uleb128 0x26
 4437 0054 00       		.byte	0
 4438 0055 49       		.uleb128 0x49
 4439 0056 13       		.uleb128 0x13
 4440 0057 00       		.byte	0
 4441 0058 00       		.byte	0
 4442 0059 09       		.uleb128 0x9
 4443 005a 13       		.uleb128 0x13
 4444 005b 01       		.byte	0x1
 4445 005c 0B       		.uleb128 0xb
 4446 005d 05       		.uleb128 0x5
 4447 005e 3A       		.uleb128 0x3a
 4448 005f 0B       		.uleb128 0xb
 4449 0060 3B       		.uleb128 0x3b
 4450 0061 0B       		.uleb128 0xb
 4451 0062 01       		.uleb128 0x1
 4452 0063 13       		.uleb128 0x13
 4453 0064 00       		.byte	0
 4454 0065 00       		.byte	0
 4455 0066 0A       		.uleb128 0xa
 4456 0067 0D       		.uleb128 0xd
 4457 0068 00       		.byte	0
 4458 0069 03       		.uleb128 0x3
 4459 006a 0E       		.uleb128 0xe
 4460 006b 3A       		.uleb128 0x3a
 4461 006c 0B       		.uleb128 0xb
 4462 006d 3B       		.uleb128 0x3b
 4463 006e 0B       		.uleb128 0xb
 4464 006f 49       		.uleb128 0x49
 4465 0070 13       		.uleb128 0x13
 4466 0071 38       		.uleb128 0x38
 4467 0072 0B       		.uleb128 0xb
 4468 0073 00       		.byte	0
 4469 0074 00       		.byte	0
 4470 0075 0B       		.uleb128 0xb
 4471 0076 0D       		.uleb128 0xd
 4472 0077 00       		.byte	0
 4473 0078 03       		.uleb128 0x3
 4474 0079 0E       		.uleb128 0xe
 4475 007a 3A       		.uleb128 0x3a
 4476 007b 0B       		.uleb128 0xb
 4477 007c 3B       		.uleb128 0x3b
 4478 007d 0B       		.uleb128 0xb
 4479 007e 49       		.uleb128 0x49
 4480 007f 13       		.uleb128 0x13
 4481 0080 38       		.uleb128 0x38
 4482 0081 05       		.uleb128 0x5
ARM GAS  /var/folders/z0/6xlwn_996xz3mwq1cgzkbq4r0000gp/T//cc0Pdjko.s 			page 99


 4483 0082 00       		.byte	0
 4484 0083 00       		.byte	0
 4485 0084 0C       		.uleb128 0xc
 4486 0085 04       		.uleb128 0x4
 4487 0086 01       		.byte	0x1
 4488 0087 03       		.uleb128 0x3
 4489 0088 0E       		.uleb128 0xe
 4490 0089 0B       		.uleb128 0xb
 4491 008a 0B       		.uleb128 0xb
 4492 008b 49       		.uleb128 0x49
 4493 008c 13       		.uleb128 0x13
 4494 008d 3A       		.uleb128 0x3a
 4495 008e 0B       		.uleb128 0xb
 4496 008f 3B       		.uleb128 0x3b
 4497 0090 0B       		.uleb128 0xb
 4498 0091 01       		.uleb128 0x1
 4499 0092 13       		.uleb128 0x13
 4500 0093 00       		.byte	0
 4501 0094 00       		.byte	0
 4502 0095 0D       		.uleb128 0xd
 4503 0096 28       		.uleb128 0x28
 4504 0097 00       		.byte	0
 4505 0098 03       		.uleb128 0x3
 4506 0099 0E       		.uleb128 0xe
 4507 009a 1C       		.uleb128 0x1c
 4508 009b 0B       		.uleb128 0xb
 4509 009c 00       		.byte	0
 4510 009d 00       		.byte	0
 4511 009e 0E       		.uleb128 0xe
 4512 009f 16       		.uleb128 0x16
 4513 00a0 00       		.byte	0
 4514 00a1 03       		.uleb128 0x3
 4515 00a2 0E       		.uleb128 0xe
 4516 00a3 3A       		.uleb128 0x3a
 4517 00a4 0B       		.uleb128 0xb
 4518 00a5 3B       		.uleb128 0x3b
 4519 00a6 05       		.uleb128 0x5
 4520 00a7 49       		.uleb128 0x49
 4521 00a8 13       		.uleb128 0x13
 4522 00a9 00       		.byte	0
 4523 00aa 00       		.byte	0
 4524 00ab 0F       		.uleb128 0xf
 4525 00ac 13       		.uleb128 0x13
 4526 00ad 01       		.byte	0x1
 4527 00ae 0B       		.uleb128 0xb
 4528 00af 0B       		.uleb128 0xb
 4529 00b0 3A       		.uleb128 0x3a
 4530 00b1 0B       		.uleb128 0xb
 4531 00b2 3B       		.uleb128 0x3b
 4532 00b3 0B       		.uleb128 0xb
 4533 00b4 01       		.uleb128 0x1
 4534 00b5 13       		.uleb128 0x13
 4535 00b6 00       		.byte	0
 4536 00b7 00       		.byte	0
 4537 00b8 10       		.uleb128 0x10
 4538 00b9 0D       		.uleb128 0xd
 4539 00ba 00       		.byte	0
ARM GAS  /var/folders/z0/6xlwn_996xz3mwq1cgzkbq4r0000gp/T//cc0Pdjko.s 			page 100


 4540 00bb 03       		.uleb128 0x3
 4541 00bc 08       		.uleb128 0x8
 4542 00bd 3A       		.uleb128 0x3a
 4543 00be 0B       		.uleb128 0xb
 4544 00bf 3B       		.uleb128 0x3b
 4545 00c0 0B       		.uleb128 0xb
 4546 00c1 49       		.uleb128 0x49
 4547 00c2 13       		.uleb128 0x13
 4548 00c3 38       		.uleb128 0x38
 4549 00c4 0B       		.uleb128 0xb
 4550 00c5 00       		.byte	0
 4551 00c6 00       		.byte	0
 4552 00c7 11       		.uleb128 0x11
 4553 00c8 04       		.uleb128 0x4
 4554 00c9 01       		.byte	0x1
 4555 00ca 0B       		.uleb128 0xb
 4556 00cb 0B       		.uleb128 0xb
 4557 00cc 49       		.uleb128 0x49
 4558 00cd 13       		.uleb128 0x13
 4559 00ce 3A       		.uleb128 0x3a
 4560 00cf 0B       		.uleb128 0xb
 4561 00d0 3B       		.uleb128 0x3b
 4562 00d1 0B       		.uleb128 0xb
 4563 00d2 01       		.uleb128 0x1
 4564 00d3 13       		.uleb128 0x13
 4565 00d4 00       		.byte	0
 4566 00d5 00       		.byte	0
 4567 00d6 12       		.uleb128 0x12
 4568 00d7 13       		.uleb128 0x13
 4569 00d8 01       		.byte	0x1
 4570 00d9 0B       		.uleb128 0xb
 4571 00da 0B       		.uleb128 0xb
 4572 00db 3A       		.uleb128 0x3a
 4573 00dc 0B       		.uleb128 0xb
 4574 00dd 3B       		.uleb128 0x3b
 4575 00de 05       		.uleb128 0x5
 4576 00df 01       		.uleb128 0x1
 4577 00e0 13       		.uleb128 0x13
 4578 00e1 00       		.byte	0
 4579 00e2 00       		.byte	0
 4580 00e3 13       		.uleb128 0x13
 4581 00e4 0D       		.uleb128 0xd
 4582 00e5 00       		.byte	0
 4583 00e6 03       		.uleb128 0x3
 4584 00e7 0E       		.uleb128 0xe
 4585 00e8 3A       		.uleb128 0x3a
 4586 00e9 0B       		.uleb128 0xb
 4587 00ea 3B       		.uleb128 0x3b
 4588 00eb 05       		.uleb128 0x5
 4589 00ec 49       		.uleb128 0x49
 4590 00ed 13       		.uleb128 0x13
 4591 00ee 38       		.uleb128 0x38
 4592 00ef 0B       		.uleb128 0xb
 4593 00f0 00       		.byte	0
 4594 00f1 00       		.byte	0
 4595 00f2 14       		.uleb128 0x14
 4596 00f3 0F       		.uleb128 0xf
ARM GAS  /var/folders/z0/6xlwn_996xz3mwq1cgzkbq4r0000gp/T//cc0Pdjko.s 			page 101


 4597 00f4 00       		.byte	0
 4598 00f5 0B       		.uleb128 0xb
 4599 00f6 0B       		.uleb128 0xb
 4600 00f7 49       		.uleb128 0x49
 4601 00f8 13       		.uleb128 0x13
 4602 00f9 00       		.byte	0
 4603 00fa 00       		.byte	0
 4604 00fb 15       		.uleb128 0x15
 4605 00fc 04       		.uleb128 0x4
 4606 00fd 01       		.byte	0x1
 4607 00fe 03       		.uleb128 0x3
 4608 00ff 0E       		.uleb128 0xe
 4609 0100 0B       		.uleb128 0xb
 4610 0101 0B       		.uleb128 0xb
 4611 0102 49       		.uleb128 0x49
 4612 0103 13       		.uleb128 0x13
 4613 0104 3A       		.uleb128 0x3a
 4614 0105 0B       		.uleb128 0xb
 4615 0106 3B       		.uleb128 0x3b
 4616 0107 05       		.uleb128 0x5
 4617 0108 01       		.uleb128 0x1
 4618 0109 13       		.uleb128 0x13
 4619 010a 00       		.byte	0
 4620 010b 00       		.byte	0
 4621 010c 16       		.uleb128 0x16
 4622 010d 04       		.uleb128 0x4
 4623 010e 01       		.byte	0x1
 4624 010f 0B       		.uleb128 0xb
 4625 0110 0B       		.uleb128 0xb
 4626 0111 49       		.uleb128 0x49
 4627 0112 13       		.uleb128 0x13
 4628 0113 3A       		.uleb128 0x3a
 4629 0114 0B       		.uleb128 0xb
 4630 0115 3B       		.uleb128 0x3b
 4631 0116 05       		.uleb128 0x5
 4632 0117 01       		.uleb128 0x1
 4633 0118 13       		.uleb128 0x13
 4634 0119 00       		.byte	0
 4635 011a 00       		.byte	0
 4636 011b 17       		.uleb128 0x17
 4637 011c 15       		.uleb128 0x15
 4638 011d 01       		.byte	0x1
 4639 011e 27       		.uleb128 0x27
 4640 011f 19       		.uleb128 0x19
 4641 0120 01       		.uleb128 0x1
 4642 0121 13       		.uleb128 0x13
 4643 0122 00       		.byte	0
 4644 0123 00       		.byte	0
 4645 0124 18       		.uleb128 0x18
 4646 0125 05       		.uleb128 0x5
 4647 0126 00       		.byte	0
 4648 0127 49       		.uleb128 0x49
 4649 0128 13       		.uleb128 0x13
 4650 0129 00       		.byte	0
 4651 012a 00       		.byte	0
 4652 012b 19       		.uleb128 0x19
 4653 012c 13       		.uleb128 0x13
ARM GAS  /var/folders/z0/6xlwn_996xz3mwq1cgzkbq4r0000gp/T//cc0Pdjko.s 			page 102


 4654 012d 01       		.byte	0x1
 4655 012e 03       		.uleb128 0x3
 4656 012f 0E       		.uleb128 0xe
 4657 0130 0B       		.uleb128 0xb
 4658 0131 0B       		.uleb128 0xb
 4659 0132 3A       		.uleb128 0x3a
 4660 0133 0B       		.uleb128 0xb
 4661 0134 3B       		.uleb128 0x3b
 4662 0135 0B       		.uleb128 0xb
 4663 0136 01       		.uleb128 0x1
 4664 0137 13       		.uleb128 0x13
 4665 0138 00       		.byte	0
 4666 0139 00       		.byte	0
 4667 013a 1A       		.uleb128 0x1a
 4668 013b 2E       		.uleb128 0x2e
 4669 013c 01       		.byte	0x1
 4670 013d 03       		.uleb128 0x3
 4671 013e 0E       		.uleb128 0xe
 4672 013f 3A       		.uleb128 0x3a
 4673 0140 0B       		.uleb128 0xb
 4674 0141 3B       		.uleb128 0x3b
 4675 0142 05       		.uleb128 0x5
 4676 0143 27       		.uleb128 0x27
 4677 0144 19       		.uleb128 0x19
 4678 0145 20       		.uleb128 0x20
 4679 0146 0B       		.uleb128 0xb
 4680 0147 01       		.uleb128 0x1
 4681 0148 13       		.uleb128 0x13
 4682 0149 00       		.byte	0
 4683 014a 00       		.byte	0
 4684 014b 1B       		.uleb128 0x1b
 4685 014c 05       		.uleb128 0x5
 4686 014d 00       		.byte	0
 4687 014e 03       		.uleb128 0x3
 4688 014f 08       		.uleb128 0x8
 4689 0150 3A       		.uleb128 0x3a
 4690 0151 0B       		.uleb128 0xb
 4691 0152 3B       		.uleb128 0x3b
 4692 0153 05       		.uleb128 0x5
 4693 0154 49       		.uleb128 0x49
 4694 0155 13       		.uleb128 0x13
 4695 0156 00       		.byte	0
 4696 0157 00       		.byte	0
 4697 0158 1C       		.uleb128 0x1c
 4698 0159 2E       		.uleb128 0x2e
 4699 015a 01       		.byte	0x1
 4700 015b 03       		.uleb128 0x3
 4701 015c 0E       		.uleb128 0xe
 4702 015d 3A       		.uleb128 0x3a
 4703 015e 0B       		.uleb128 0xb
 4704 015f 3B       		.uleb128 0x3b
 4705 0160 0B       		.uleb128 0xb
 4706 0161 27       		.uleb128 0x27
 4707 0162 19       		.uleb128 0x19
 4708 0163 20       		.uleb128 0x20
 4709 0164 0B       		.uleb128 0xb
 4710 0165 01       		.uleb128 0x1
ARM GAS  /var/folders/z0/6xlwn_996xz3mwq1cgzkbq4r0000gp/T//cc0Pdjko.s 			page 103


 4711 0166 13       		.uleb128 0x13
 4712 0167 00       		.byte	0
 4713 0168 00       		.byte	0
 4714 0169 1D       		.uleb128 0x1d
 4715 016a 05       		.uleb128 0x5
 4716 016b 00       		.byte	0
 4717 016c 03       		.uleb128 0x3
 4718 016d 08       		.uleb128 0x8
 4719 016e 3A       		.uleb128 0x3a
 4720 016f 0B       		.uleb128 0xb
 4721 0170 3B       		.uleb128 0x3b
 4722 0171 0B       		.uleb128 0xb
 4723 0172 49       		.uleb128 0x49
 4724 0173 13       		.uleb128 0x13
 4725 0174 00       		.byte	0
 4726 0175 00       		.byte	0
 4727 0176 1E       		.uleb128 0x1e
 4728 0177 2E       		.uleb128 0x2e
 4729 0178 01       		.byte	0x1
 4730 0179 03       		.uleb128 0x3
 4731 017a 0E       		.uleb128 0xe
 4732 017b 3A       		.uleb128 0x3a
 4733 017c 0B       		.uleb128 0xb
 4734 017d 3B       		.uleb128 0x3b
 4735 017e 0B       		.uleb128 0xb
 4736 017f 27       		.uleb128 0x27
 4737 0180 19       		.uleb128 0x19
 4738 0181 49       		.uleb128 0x49
 4739 0182 13       		.uleb128 0x13
 4740 0183 20       		.uleb128 0x20
 4741 0184 0B       		.uleb128 0xb
 4742 0185 01       		.uleb128 0x1
 4743 0186 13       		.uleb128 0x13
 4744 0187 00       		.byte	0
 4745 0188 00       		.byte	0
 4746 0189 1F       		.uleb128 0x1f
 4747 018a 05       		.uleb128 0x5
 4748 018b 00       		.byte	0
 4749 018c 03       		.uleb128 0x3
 4750 018d 0E       		.uleb128 0xe
 4751 018e 3A       		.uleb128 0x3a
 4752 018f 0B       		.uleb128 0xb
 4753 0190 3B       		.uleb128 0x3b
 4754 0191 0B       		.uleb128 0xb
 4755 0192 49       		.uleb128 0x49
 4756 0193 13       		.uleb128 0x13
 4757 0194 00       		.byte	0
 4758 0195 00       		.byte	0
 4759 0196 20       		.uleb128 0x20
 4760 0197 2E       		.uleb128 0x2e
 4761 0198 01       		.byte	0x1
 4762 0199 3F       		.uleb128 0x3f
 4763 019a 19       		.uleb128 0x19
 4764 019b 03       		.uleb128 0x3
 4765 019c 0E       		.uleb128 0xe
 4766 019d 3A       		.uleb128 0x3a
 4767 019e 0B       		.uleb128 0xb
ARM GAS  /var/folders/z0/6xlwn_996xz3mwq1cgzkbq4r0000gp/T//cc0Pdjko.s 			page 104


 4768 019f 3B       		.uleb128 0x3b
 4769 01a0 05       		.uleb128 0x5
 4770 01a1 27       		.uleb128 0x27
 4771 01a2 19       		.uleb128 0x19
 4772 01a3 20       		.uleb128 0x20
 4773 01a4 0B       		.uleb128 0xb
 4774 01a5 01       		.uleb128 0x1
 4775 01a6 13       		.uleb128 0x13
 4776 01a7 00       		.byte	0
 4777 01a8 00       		.byte	0
 4778 01a9 21       		.uleb128 0x21
 4779 01aa 05       		.uleb128 0x5
 4780 01ab 00       		.byte	0
 4781 01ac 03       		.uleb128 0x3
 4782 01ad 0E       		.uleb128 0xe
 4783 01ae 3A       		.uleb128 0x3a
 4784 01af 0B       		.uleb128 0xb
 4785 01b0 3B       		.uleb128 0x3b
 4786 01b1 05       		.uleb128 0x5
 4787 01b2 49       		.uleb128 0x49
 4788 01b3 13       		.uleb128 0x13
 4789 01b4 00       		.byte	0
 4790 01b5 00       		.byte	0
 4791 01b6 22       		.uleb128 0x22
 4792 01b7 34       		.uleb128 0x34
 4793 01b8 00       		.byte	0
 4794 01b9 03       		.uleb128 0x3
 4795 01ba 08       		.uleb128 0x8
 4796 01bb 3A       		.uleb128 0x3a
 4797 01bc 0B       		.uleb128 0xb
 4798 01bd 3B       		.uleb128 0x3b
 4799 01be 05       		.uleb128 0x5
 4800 01bf 49       		.uleb128 0x49
 4801 01c0 13       		.uleb128 0x13
 4802 01c1 00       		.byte	0
 4803 01c2 00       		.byte	0
 4804 01c3 23       		.uleb128 0x23
 4805 01c4 34       		.uleb128 0x34
 4806 01c5 00       		.byte	0
 4807 01c6 03       		.uleb128 0x3
 4808 01c7 0E       		.uleb128 0xe
 4809 01c8 3A       		.uleb128 0x3a
 4810 01c9 0B       		.uleb128 0xb
 4811 01ca 3B       		.uleb128 0x3b
 4812 01cb 05       		.uleb128 0x5
 4813 01cc 49       		.uleb128 0x49
 4814 01cd 13       		.uleb128 0x13
 4815 01ce 00       		.byte	0
 4816 01cf 00       		.byte	0
 4817 01d0 24       		.uleb128 0x24
 4818 01d1 2E       		.uleb128 0x2e
 4819 01d2 01       		.byte	0x1
 4820 01d3 3F       		.uleb128 0x3f
 4821 01d4 19       		.uleb128 0x19
 4822 01d5 03       		.uleb128 0x3
 4823 01d6 0E       		.uleb128 0xe
 4824 01d7 3A       		.uleb128 0x3a
ARM GAS  /var/folders/z0/6xlwn_996xz3mwq1cgzkbq4r0000gp/T//cc0Pdjko.s 			page 105


 4825 01d8 0B       		.uleb128 0xb
 4826 01d9 3B       		.uleb128 0x3b
 4827 01da 0B       		.uleb128 0xb
 4828 01db 27       		.uleb128 0x27
 4829 01dc 19       		.uleb128 0x19
 4830 01dd 49       		.uleb128 0x49
 4831 01de 13       		.uleb128 0x13
 4832 01df 20       		.uleb128 0x20
 4833 01e0 0B       		.uleb128 0xb
 4834 01e1 01       		.uleb128 0x1
 4835 01e2 13       		.uleb128 0x13
 4836 01e3 00       		.byte	0
 4837 01e4 00       		.byte	0
 4838 01e5 25       		.uleb128 0x25
 4839 01e6 2E       		.uleb128 0x2e
 4840 01e7 00       		.byte	0
 4841 01e8 03       		.uleb128 0x3
 4842 01e9 0E       		.uleb128 0xe
 4843 01ea 3A       		.uleb128 0x3a
 4844 01eb 0B       		.uleb128 0xb
 4845 01ec 3B       		.uleb128 0x3b
 4846 01ed 0B       		.uleb128 0xb
 4847 01ee 27       		.uleb128 0x27
 4848 01ef 19       		.uleb128 0x19
 4849 01f0 49       		.uleb128 0x49
 4850 01f1 13       		.uleb128 0x13
 4851 01f2 20       		.uleb128 0x20
 4852 01f3 0B       		.uleb128 0xb
 4853 01f4 00       		.byte	0
 4854 01f5 00       		.byte	0
 4855 01f6 26       		.uleb128 0x26
 4856 01f7 34       		.uleb128 0x34
 4857 01f8 00       		.byte	0
 4858 01f9 03       		.uleb128 0x3
 4859 01fa 0E       		.uleb128 0xe
 4860 01fb 3A       		.uleb128 0x3a
 4861 01fc 0B       		.uleb128 0xb
 4862 01fd 3B       		.uleb128 0x3b
 4863 01fe 0B       		.uleb128 0xb
 4864 01ff 49       		.uleb128 0x49
 4865 0200 13       		.uleb128 0x13
 4866 0201 00       		.byte	0
 4867 0202 00       		.byte	0
 4868 0203 27       		.uleb128 0x27
 4869 0204 0B       		.uleb128 0xb
 4870 0205 01       		.byte	0x1
 4871 0206 00       		.byte	0
 4872 0207 00       		.byte	0
 4873 0208 28       		.uleb128 0x28
 4874 0209 2E       		.uleb128 0x2e
 4875 020a 01       		.byte	0x1
 4876 020b 3F       		.uleb128 0x3f
 4877 020c 19       		.uleb128 0x19
 4878 020d 03       		.uleb128 0x3
 4879 020e 0E       		.uleb128 0xe
 4880 020f 3A       		.uleb128 0x3a
 4881 0210 0B       		.uleb128 0xb
ARM GAS  /var/folders/z0/6xlwn_996xz3mwq1cgzkbq4r0000gp/T//cc0Pdjko.s 			page 106


 4882 0211 3B       		.uleb128 0x3b
 4883 0212 05       		.uleb128 0x5
 4884 0213 27       		.uleb128 0x27
 4885 0214 19       		.uleb128 0x19
 4886 0215 49       		.uleb128 0x49
 4887 0216 13       		.uleb128 0x13
 4888 0217 20       		.uleb128 0x20
 4889 0218 0B       		.uleb128 0xb
 4890 0219 01       		.uleb128 0x1
 4891 021a 13       		.uleb128 0x13
 4892 021b 00       		.byte	0
 4893 021c 00       		.byte	0
 4894 021d 29       		.uleb128 0x29
 4895 021e 2E       		.uleb128 0x2e
 4896 021f 01       		.byte	0x1
 4897 0220 31       		.uleb128 0x31
 4898 0221 13       		.uleb128 0x13
 4899 0222 11       		.uleb128 0x11
 4900 0223 01       		.uleb128 0x1
 4901 0224 12       		.uleb128 0x12
 4902 0225 06       		.uleb128 0x6
 4903 0226 40       		.uleb128 0x40
 4904 0227 18       		.uleb128 0x18
 4905 0228 9742     		.uleb128 0x2117
 4906 022a 19       		.uleb128 0x19
 4907 022b 01       		.uleb128 0x1
 4908 022c 13       		.uleb128 0x13
 4909 022d 00       		.byte	0
 4910 022e 00       		.byte	0
 4911 022f 2A       		.uleb128 0x2a
 4912 0230 05       		.uleb128 0x5
 4913 0231 00       		.byte	0
 4914 0232 31       		.uleb128 0x31
 4915 0233 13       		.uleb128 0x13
 4916 0234 02       		.uleb128 0x2
 4917 0235 18       		.uleb128 0x18
 4918 0236 00       		.byte	0
 4919 0237 00       		.byte	0
 4920 0238 2B       		.uleb128 0x2b
 4921 0239 34       		.uleb128 0x34
 4922 023a 00       		.byte	0
 4923 023b 31       		.uleb128 0x31
 4924 023c 13       		.uleb128 0x13
 4925 023d 02       		.uleb128 0x2
 4926 023e 18       		.uleb128 0x18
 4927 023f 00       		.byte	0
 4928 0240 00       		.byte	0
 4929 0241 2C       		.uleb128 0x2c
 4930 0242 34       		.uleb128 0x34
 4931 0243 00       		.byte	0
 4932 0244 31       		.uleb128 0x31
 4933 0245 13       		.uleb128 0x13
 4934 0246 00       		.byte	0
 4935 0247 00       		.byte	0
 4936 0248 2D       		.uleb128 0x2d
 4937 0249 0B       		.uleb128 0xb
 4938 024a 01       		.byte	0x1
ARM GAS  /var/folders/z0/6xlwn_996xz3mwq1cgzkbq4r0000gp/T//cc0Pdjko.s 			page 107


 4939 024b 11       		.uleb128 0x11
 4940 024c 01       		.uleb128 0x1
 4941 024d 12       		.uleb128 0x12
 4942 024e 06       		.uleb128 0x6
 4943 024f 00       		.byte	0
 4944 0250 00       		.byte	0
 4945 0251 2E       		.uleb128 0x2e
 4946 0252 05       		.uleb128 0x5
 4947 0253 00       		.byte	0
 4948 0254 31       		.uleb128 0x31
 4949 0255 13       		.uleb128 0x13
 4950 0256 1C       		.uleb128 0x1c
 4951 0257 0B       		.uleb128 0xb
 4952 0258 00       		.byte	0
 4953 0259 00       		.byte	0
 4954 025a 2F       		.uleb128 0x2f
 4955 025b 2E       		.uleb128 0x2e
 4956 025c 01       		.byte	0x1
 4957 025d 3F       		.uleb128 0x3f
 4958 025e 19       		.uleb128 0x19
 4959 025f 03       		.uleb128 0x3
 4960 0260 0E       		.uleb128 0xe
 4961 0261 3A       		.uleb128 0x3a
 4962 0262 0B       		.uleb128 0xb
 4963 0263 3B       		.uleb128 0x3b
 4964 0264 0B       		.uleb128 0xb
 4965 0265 27       		.uleb128 0x27
 4966 0266 19       		.uleb128 0x19
 4967 0267 49       		.uleb128 0x49
 4968 0268 13       		.uleb128 0x13
 4969 0269 11       		.uleb128 0x11
 4970 026a 01       		.uleb128 0x1
 4971 026b 12       		.uleb128 0x12
 4972 026c 06       		.uleb128 0x6
 4973 026d 40       		.uleb128 0x40
 4974 026e 18       		.uleb128 0x18
 4975 026f 9742     		.uleb128 0x2117
 4976 0271 19       		.uleb128 0x19
 4977 0272 01       		.uleb128 0x1
 4978 0273 13       		.uleb128 0x13
 4979 0274 00       		.byte	0
 4980 0275 00       		.byte	0
 4981 0276 30       		.uleb128 0x30
 4982 0277 05       		.uleb128 0x5
 4983 0278 00       		.byte	0
 4984 0279 03       		.uleb128 0x3
 4985 027a 0E       		.uleb128 0xe
 4986 027b 3A       		.uleb128 0x3a
 4987 027c 0B       		.uleb128 0xb
 4988 027d 3B       		.uleb128 0x3b
 4989 027e 0B       		.uleb128 0xb
 4990 027f 49       		.uleb128 0x49
 4991 0280 13       		.uleb128 0x13
 4992 0281 02       		.uleb128 0x2
 4993 0282 17       		.uleb128 0x17
 4994 0283 00       		.byte	0
 4995 0284 00       		.byte	0
ARM GAS  /var/folders/z0/6xlwn_996xz3mwq1cgzkbq4r0000gp/T//cc0Pdjko.s 			page 108


 4996 0285 31       		.uleb128 0x31
 4997 0286 05       		.uleb128 0x5
 4998 0287 00       		.byte	0
 4999 0288 03       		.uleb128 0x3
 5000 0289 0E       		.uleb128 0xe
 5001 028a 3A       		.uleb128 0x3a
 5002 028b 0B       		.uleb128 0xb
 5003 028c 3B       		.uleb128 0x3b
 5004 028d 0B       		.uleb128 0xb
 5005 028e 49       		.uleb128 0x49
 5006 028f 13       		.uleb128 0x13
 5007 0290 02       		.uleb128 0x2
 5008 0291 18       		.uleb128 0x18
 5009 0292 00       		.byte	0
 5010 0293 00       		.byte	0
 5011 0294 32       		.uleb128 0x32
 5012 0295 34       		.uleb128 0x34
 5013 0296 00       		.byte	0
 5014 0297 03       		.uleb128 0x3
 5015 0298 0E       		.uleb128 0xe
 5016 0299 3A       		.uleb128 0x3a
 5017 029a 0B       		.uleb128 0xb
 5018 029b 3B       		.uleb128 0x3b
 5019 029c 0B       		.uleb128 0xb
 5020 029d 49       		.uleb128 0x49
 5021 029e 13       		.uleb128 0x13
 5022 029f 02       		.uleb128 0x2
 5023 02a0 17       		.uleb128 0x17
 5024 02a1 00       		.byte	0
 5025 02a2 00       		.byte	0
 5026 02a3 33       		.uleb128 0x33
 5027 02a4 1D       		.uleb128 0x1d
 5028 02a5 01       		.byte	0x1
 5029 02a6 31       		.uleb128 0x31
 5030 02a7 13       		.uleb128 0x13
 5031 02a8 11       		.uleb128 0x11
 5032 02a9 01       		.uleb128 0x1
 5033 02aa 12       		.uleb128 0x12
 5034 02ab 06       		.uleb128 0x6
 5035 02ac 58       		.uleb128 0x58
 5036 02ad 0B       		.uleb128 0xb
 5037 02ae 59       		.uleb128 0x59
 5038 02af 0B       		.uleb128 0xb
 5039 02b0 00       		.byte	0
 5040 02b1 00       		.byte	0
 5041 02b2 34       		.uleb128 0x34
 5042 02b3 05       		.uleb128 0x5
 5043 02b4 00       		.byte	0
 5044 02b5 31       		.uleb128 0x31
 5045 02b6 13       		.uleb128 0x13
 5046 02b7 02       		.uleb128 0x2
 5047 02b8 17       		.uleb128 0x17
 5048 02b9 00       		.byte	0
 5049 02ba 00       		.byte	0
 5050 02bb 35       		.uleb128 0x35
 5051 02bc 1D       		.uleb128 0x1d
 5052 02bd 01       		.byte	0x1
ARM GAS  /var/folders/z0/6xlwn_996xz3mwq1cgzkbq4r0000gp/T//cc0Pdjko.s 			page 109


 5053 02be 31       		.uleb128 0x31
 5054 02bf 13       		.uleb128 0x13
 5055 02c0 11       		.uleb128 0x11
 5056 02c1 01       		.uleb128 0x1
 5057 02c2 12       		.uleb128 0x12
 5058 02c3 06       		.uleb128 0x6
 5059 02c4 58       		.uleb128 0x58
 5060 02c5 0B       		.uleb128 0xb
 5061 02c6 59       		.uleb128 0x59
 5062 02c7 0B       		.uleb128 0xb
 5063 02c8 01       		.uleb128 0x1
 5064 02c9 13       		.uleb128 0x13
 5065 02ca 00       		.byte	0
 5066 02cb 00       		.byte	0
 5067 02cc 36       		.uleb128 0x36
 5068 02cd 1D       		.uleb128 0x1d
 5069 02ce 01       		.byte	0x1
 5070 02cf 31       		.uleb128 0x31
 5071 02d0 13       		.uleb128 0x13
 5072 02d1 11       		.uleb128 0x11
 5073 02d2 01       		.uleb128 0x1
 5074 02d3 12       		.uleb128 0x12
 5075 02d4 06       		.uleb128 0x6
 5076 02d5 58       		.uleb128 0x58
 5077 02d6 0B       		.uleb128 0xb
 5078 02d7 59       		.uleb128 0x59
 5079 02d8 05       		.uleb128 0x5
 5080 02d9 00       		.byte	0
 5081 02da 00       		.byte	0
 5082 02db 37       		.uleb128 0x37
 5083 02dc 2E       		.uleb128 0x2e
 5084 02dd 01       		.byte	0x1
 5085 02de 3F       		.uleb128 0x3f
 5086 02df 19       		.uleb128 0x19
 5087 02e0 03       		.uleb128 0x3
 5088 02e1 0E       		.uleb128 0xe
 5089 02e2 3A       		.uleb128 0x3a
 5090 02e3 0B       		.uleb128 0xb
 5091 02e4 3B       		.uleb128 0x3b
 5092 02e5 05       		.uleb128 0x5
 5093 02e6 27       		.uleb128 0x27
 5094 02e7 19       		.uleb128 0x19
 5095 02e8 49       		.uleb128 0x49
 5096 02e9 13       		.uleb128 0x13
 5097 02ea 11       		.uleb128 0x11
 5098 02eb 01       		.uleb128 0x1
 5099 02ec 12       		.uleb128 0x12
 5100 02ed 06       		.uleb128 0x6
 5101 02ee 40       		.uleb128 0x40
 5102 02ef 18       		.uleb128 0x18
 5103 02f0 9742     		.uleb128 0x2117
 5104 02f2 19       		.uleb128 0x19
 5105 02f3 01       		.uleb128 0x1
 5106 02f4 13       		.uleb128 0x13
 5107 02f5 00       		.byte	0
 5108 02f6 00       		.byte	0
 5109 02f7 38       		.uleb128 0x38
ARM GAS  /var/folders/z0/6xlwn_996xz3mwq1cgzkbq4r0000gp/T//cc0Pdjko.s 			page 110


 5110 02f8 05       		.uleb128 0x5
 5111 02f9 00       		.byte	0
 5112 02fa 03       		.uleb128 0x3
 5113 02fb 0E       		.uleb128 0xe
 5114 02fc 3A       		.uleb128 0x3a
 5115 02fd 0B       		.uleb128 0xb
 5116 02fe 3B       		.uleb128 0x3b
 5117 02ff 05       		.uleb128 0x5
 5118 0300 49       		.uleb128 0x49
 5119 0301 13       		.uleb128 0x13
 5120 0302 02       		.uleb128 0x2
 5121 0303 17       		.uleb128 0x17
 5122 0304 00       		.byte	0
 5123 0305 00       		.byte	0
 5124 0306 39       		.uleb128 0x39
 5125 0307 34       		.uleb128 0x34
 5126 0308 00       		.byte	0
 5127 0309 03       		.uleb128 0x3
 5128 030a 0E       		.uleb128 0xe
 5129 030b 3A       		.uleb128 0x3a
 5130 030c 0B       		.uleb128 0xb
 5131 030d 3B       		.uleb128 0x3b
 5132 030e 05       		.uleb128 0x5
 5133 030f 49       		.uleb128 0x49
 5134 0310 13       		.uleb128 0x13
 5135 0311 02       		.uleb128 0x2
 5136 0312 17       		.uleb128 0x17
 5137 0313 00       		.byte	0
 5138 0314 00       		.byte	0
 5139 0315 3A       		.uleb128 0x3a
 5140 0316 34       		.uleb128 0x34
 5141 0317 00       		.byte	0
 5142 0318 03       		.uleb128 0x3
 5143 0319 08       		.uleb128 0x8
 5144 031a 3A       		.uleb128 0x3a
 5145 031b 0B       		.uleb128 0xb
 5146 031c 3B       		.uleb128 0x3b
 5147 031d 05       		.uleb128 0x5
 5148 031e 49       		.uleb128 0x49
 5149 031f 13       		.uleb128 0x13
 5150 0320 02       		.uleb128 0x2
 5151 0321 17       		.uleb128 0x17
 5152 0322 00       		.byte	0
 5153 0323 00       		.byte	0
 5154 0324 3B       		.uleb128 0x3b
 5155 0325 2E       		.uleb128 0x2e
 5156 0326 01       		.byte	0x1
 5157 0327 3F       		.uleb128 0x3f
 5158 0328 19       		.uleb128 0x19
 5159 0329 03       		.uleb128 0x3
 5160 032a 0E       		.uleb128 0xe
 5161 032b 3A       		.uleb128 0x3a
 5162 032c 0B       		.uleb128 0xb
 5163 032d 3B       		.uleb128 0x3b
 5164 032e 05       		.uleb128 0x5
 5165 032f 27       		.uleb128 0x27
 5166 0330 19       		.uleb128 0x19
ARM GAS  /var/folders/z0/6xlwn_996xz3mwq1cgzkbq4r0000gp/T//cc0Pdjko.s 			page 111


 5167 0331 11       		.uleb128 0x11
 5168 0332 01       		.uleb128 0x1
 5169 0333 12       		.uleb128 0x12
 5170 0334 06       		.uleb128 0x6
 5171 0335 40       		.uleb128 0x40
 5172 0336 18       		.uleb128 0x18
 5173 0337 9742     		.uleb128 0x2117
 5174 0339 19       		.uleb128 0x19
 5175 033a 01       		.uleb128 0x1
 5176 033b 13       		.uleb128 0x13
 5177 033c 00       		.byte	0
 5178 033d 00       		.byte	0
 5179 033e 3C       		.uleb128 0x3c
 5180 033f 05       		.uleb128 0x5
 5181 0340 00       		.byte	0
 5182 0341 03       		.uleb128 0x3
 5183 0342 08       		.uleb128 0x8
 5184 0343 3A       		.uleb128 0x3a
 5185 0344 0B       		.uleb128 0xb
 5186 0345 3B       		.uleb128 0x3b
 5187 0346 05       		.uleb128 0x5
 5188 0347 49       		.uleb128 0x49
 5189 0348 13       		.uleb128 0x13
 5190 0349 02       		.uleb128 0x2
 5191 034a 17       		.uleb128 0x17
 5192 034b 00       		.byte	0
 5193 034c 00       		.byte	0
 5194 034d 3D       		.uleb128 0x3d
 5195 034e 1D       		.uleb128 0x1d
 5196 034f 01       		.byte	0x1
 5197 0350 31       		.uleb128 0x31
 5198 0351 13       		.uleb128 0x13
 5199 0352 52       		.uleb128 0x52
 5200 0353 01       		.uleb128 0x1
 5201 0354 55       		.uleb128 0x55
 5202 0355 17       		.uleb128 0x17
 5203 0356 58       		.uleb128 0x58
 5204 0357 0B       		.uleb128 0xb
 5205 0358 59       		.uleb128 0x59
 5206 0359 05       		.uleb128 0x5
 5207 035a 00       		.byte	0
 5208 035b 00       		.byte	0
 5209 035c 3E       		.uleb128 0x3e
 5210 035d 1D       		.uleb128 0x1d
 5211 035e 01       		.byte	0x1
 5212 035f 31       		.uleb128 0x31
 5213 0360 13       		.uleb128 0x13
 5214 0361 52       		.uleb128 0x52
 5215 0362 01       		.uleb128 0x1
 5216 0363 55       		.uleb128 0x55
 5217 0364 17       		.uleb128 0x17
 5218 0365 58       		.uleb128 0x58
 5219 0366 0B       		.uleb128 0xb
 5220 0367 59       		.uleb128 0x59
 5221 0368 0B       		.uleb128 0xb
 5222 0369 00       		.byte	0
 5223 036a 00       		.byte	0
ARM GAS  /var/folders/z0/6xlwn_996xz3mwq1cgzkbq4r0000gp/T//cc0Pdjko.s 			page 112


 5224 036b 3F       		.uleb128 0x3f
 5225 036c 2E       		.uleb128 0x2e
 5226 036d 01       		.byte	0x1
 5227 036e 3F       		.uleb128 0x3f
 5228 036f 19       		.uleb128 0x19
 5229 0370 03       		.uleb128 0x3
 5230 0371 0E       		.uleb128 0xe
 5231 0372 3A       		.uleb128 0x3a
 5232 0373 0B       		.uleb128 0xb
 5233 0374 3B       		.uleb128 0x3b
 5234 0375 05       		.uleb128 0x5
 5235 0376 27       		.uleb128 0x27
 5236 0377 19       		.uleb128 0x19
 5237 0378 11       		.uleb128 0x11
 5238 0379 01       		.uleb128 0x1
 5239 037a 12       		.uleb128 0x12
 5240 037b 06       		.uleb128 0x6
 5241 037c 40       		.uleb128 0x40
 5242 037d 18       		.uleb128 0x18
 5243 037e 9642     		.uleb128 0x2116
 5244 0380 19       		.uleb128 0x19
 5245 0381 01       		.uleb128 0x1
 5246 0382 13       		.uleb128 0x13
 5247 0383 00       		.byte	0
 5248 0384 00       		.byte	0
 5249 0385 40       		.uleb128 0x40
 5250 0386 2E       		.uleb128 0x2e
 5251 0387 01       		.byte	0x1
 5252 0388 3F       		.uleb128 0x3f
 5253 0389 19       		.uleb128 0x19
 5254 038a 03       		.uleb128 0x3
 5255 038b 0E       		.uleb128 0xe
 5256 038c 3A       		.uleb128 0x3a
 5257 038d 0B       		.uleb128 0xb
 5258 038e 3B       		.uleb128 0x3b
 5259 038f 05       		.uleb128 0x5
 5260 0390 27       		.uleb128 0x27
 5261 0391 19       		.uleb128 0x19
 5262 0392 49       		.uleb128 0x49
 5263 0393 13       		.uleb128 0x13
 5264 0394 11       		.uleb128 0x11
 5265 0395 01       		.uleb128 0x1
 5266 0396 12       		.uleb128 0x12
 5267 0397 06       		.uleb128 0x6
 5268 0398 40       		.uleb128 0x40
 5269 0399 18       		.uleb128 0x18
 5270 039a 9642     		.uleb128 0x2116
 5271 039c 19       		.uleb128 0x19
 5272 039d 01       		.uleb128 0x1
 5273 039e 13       		.uleb128 0x13
 5274 039f 00       		.byte	0
 5275 03a0 00       		.byte	0
 5276 03a1 41       		.uleb128 0x41
 5277 03a2 34       		.uleb128 0x34
 5278 03a3 00       		.byte	0
 5279 03a4 03       		.uleb128 0x3
 5280 03a5 08       		.uleb128 0x8
ARM GAS  /var/folders/z0/6xlwn_996xz3mwq1cgzkbq4r0000gp/T//cc0Pdjko.s 			page 113


 5281 03a6 3A       		.uleb128 0x3a
 5282 03a7 0B       		.uleb128 0xb
 5283 03a8 3B       		.uleb128 0x3b
 5284 03a9 05       		.uleb128 0x5
 5285 03aa 49       		.uleb128 0x49
 5286 03ab 13       		.uleb128 0x13
 5287 03ac 02       		.uleb128 0x2
 5288 03ad 18       		.uleb128 0x18
 5289 03ae 00       		.byte	0
 5290 03af 00       		.byte	0
 5291 03b0 42       		.uleb128 0x42
 5292 03b1 1D       		.uleb128 0x1d
 5293 03b2 01       		.byte	0x1
 5294 03b3 31       		.uleb128 0x31
 5295 03b4 13       		.uleb128 0x13
 5296 03b5 11       		.uleb128 0x11
 5297 03b6 01       		.uleb128 0x1
 5298 03b7 12       		.uleb128 0x12
 5299 03b8 06       		.uleb128 0x6
 5300 03b9 58       		.uleb128 0x58
 5301 03ba 0B       		.uleb128 0xb
 5302 03bb 59       		.uleb128 0x59
 5303 03bc 05       		.uleb128 0x5
 5304 03bd 01       		.uleb128 0x1
 5305 03be 13       		.uleb128 0x13
 5306 03bf 00       		.byte	0
 5307 03c0 00       		.byte	0
 5308 03c1 43       		.uleb128 0x43
 5309 03c2 1D       		.uleb128 0x1d
 5310 03c3 01       		.byte	0x1
 5311 03c4 31       		.uleb128 0x31
 5312 03c5 13       		.uleb128 0x13
 5313 03c6 52       		.uleb128 0x52
 5314 03c7 01       		.uleb128 0x1
 5315 03c8 55       		.uleb128 0x55
 5316 03c9 17       		.uleb128 0x17
 5317 03ca 58       		.uleb128 0x58
 5318 03cb 0B       		.uleb128 0xb
 5319 03cc 59       		.uleb128 0x59
 5320 03cd 05       		.uleb128 0x5
 5321 03ce 01       		.uleb128 0x1
 5322 03cf 13       		.uleb128 0x13
 5323 03d0 00       		.byte	0
 5324 03d1 00       		.byte	0
 5325 03d2 44       		.uleb128 0x44
 5326 03d3 898201   		.uleb128 0x4109
 5327 03d6 01       		.byte	0x1
 5328 03d7 11       		.uleb128 0x11
 5329 03d8 01       		.uleb128 0x1
 5330 03d9 01       		.uleb128 0x1
 5331 03da 13       		.uleb128 0x13
 5332 03db 00       		.byte	0
 5333 03dc 00       		.byte	0
 5334 03dd 45       		.uleb128 0x45
 5335 03de 8A8201   		.uleb128 0x410a
 5336 03e1 00       		.byte	0
 5337 03e2 02       		.uleb128 0x2
ARM GAS  /var/folders/z0/6xlwn_996xz3mwq1cgzkbq4r0000gp/T//cc0Pdjko.s 			page 114


 5338 03e3 18       		.uleb128 0x18
 5339 03e4 9142     		.uleb128 0x2111
 5340 03e6 18       		.uleb128 0x18
 5341 03e7 00       		.byte	0
 5342 03e8 00       		.byte	0
 5343 03e9 46       		.uleb128 0x46
 5344 03ea 898201   		.uleb128 0x4109
 5345 03ed 01       		.byte	0x1
 5346 03ee 11       		.uleb128 0x11
 5347 03ef 01       		.uleb128 0x1
 5348 03f0 00       		.byte	0
 5349 03f1 00       		.byte	0
 5350 03f2 47       		.uleb128 0x47
 5351 03f3 34       		.uleb128 0x34
 5352 03f4 00       		.byte	0
 5353 03f5 03       		.uleb128 0x3
 5354 03f6 0E       		.uleb128 0xe
 5355 03f7 3A       		.uleb128 0x3a
 5356 03f8 0B       		.uleb128 0xb
 5357 03f9 3B       		.uleb128 0x3b
 5358 03fa 05       		.uleb128 0x5
 5359 03fb 49       		.uleb128 0x49
 5360 03fc 13       		.uleb128 0x13
 5361 03fd 02       		.uleb128 0x2
 5362 03fe 18       		.uleb128 0x18
 5363 03ff 00       		.byte	0
 5364 0400 00       		.byte	0
 5365 0401 48       		.uleb128 0x48
 5366 0402 898201   		.uleb128 0x4109
 5367 0405 01       		.byte	0x1
 5368 0406 11       		.uleb128 0x11
 5369 0407 01       		.uleb128 0x1
 5370 0408 31       		.uleb128 0x31
 5371 0409 13       		.uleb128 0x13
 5372 040a 00       		.byte	0
 5373 040b 00       		.byte	0
 5374 040c 49       		.uleb128 0x49
 5375 040d 05       		.uleb128 0x5
 5376 040e 00       		.byte	0
 5377 040f 03       		.uleb128 0x3
 5378 0410 08       		.uleb128 0x8
 5379 0411 3A       		.uleb128 0x3a
 5380 0412 0B       		.uleb128 0xb
 5381 0413 3B       		.uleb128 0x3b
 5382 0414 05       		.uleb128 0x5
 5383 0415 49       		.uleb128 0x49
 5384 0416 13       		.uleb128 0x13
 5385 0417 02       		.uleb128 0x2
 5386 0418 18       		.uleb128 0x18
 5387 0419 00       		.byte	0
 5388 041a 00       		.byte	0
 5389 041b 4A       		.uleb128 0x4a
 5390 041c 0B       		.uleb128 0xb
 5391 041d 01       		.byte	0x1
 5392 041e 11       		.uleb128 0x11
 5393 041f 01       		.uleb128 0x1
 5394 0420 12       		.uleb128 0x12
ARM GAS  /var/folders/z0/6xlwn_996xz3mwq1cgzkbq4r0000gp/T//cc0Pdjko.s 			page 115


 5395 0421 06       		.uleb128 0x6
 5396 0422 01       		.uleb128 0x1
 5397 0423 13       		.uleb128 0x13
 5398 0424 00       		.byte	0
 5399 0425 00       		.byte	0
 5400 0426 4B       		.uleb128 0x4b
 5401 0427 898201   		.uleb128 0x4109
 5402 042a 00       		.byte	0
 5403 042b 11       		.uleb128 0x11
 5404 042c 01       		.uleb128 0x1
 5405 042d 31       		.uleb128 0x31
 5406 042e 13       		.uleb128 0x13
 5407 042f 00       		.byte	0
 5408 0430 00       		.byte	0
 5409 0431 4C       		.uleb128 0x4c
 5410 0432 0B       		.uleb128 0xb
 5411 0433 01       		.byte	0x1
 5412 0434 55       		.uleb128 0x55
 5413 0435 17       		.uleb128 0x17
 5414 0436 00       		.byte	0
 5415 0437 00       		.byte	0
 5416 0438 4D       		.uleb128 0x4d
 5417 0439 34       		.uleb128 0x34
 5418 043a 00       		.byte	0
 5419 043b 31       		.uleb128 0x31
 5420 043c 13       		.uleb128 0x13
 5421 043d 02       		.uleb128 0x2
 5422 043e 17       		.uleb128 0x17
 5423 043f 00       		.byte	0
 5424 0440 00       		.byte	0
 5425 0441 4E       		.uleb128 0x4e
 5426 0442 0B       		.uleb128 0xb
 5427 0443 01       		.byte	0x1
 5428 0444 55       		.uleb128 0x55
 5429 0445 17       		.uleb128 0x17
 5430 0446 01       		.uleb128 0x1
 5431 0447 13       		.uleb128 0x13
 5432 0448 00       		.byte	0
 5433 0449 00       		.byte	0
 5434 044a 4F       		.uleb128 0x4f
 5435 044b 898201   		.uleb128 0x4109
 5436 044e 01       		.byte	0x1
 5437 044f 11       		.uleb128 0x11
 5438 0450 01       		.uleb128 0x1
 5439 0451 31       		.uleb128 0x31
 5440 0452 13       		.uleb128 0x13
 5441 0453 01       		.uleb128 0x1
 5442 0454 13       		.uleb128 0x13
 5443 0455 00       		.byte	0
 5444 0456 00       		.byte	0
 5445 0457 50       		.uleb128 0x50
 5446 0458 34       		.uleb128 0x34
 5447 0459 00       		.byte	0
 5448 045a 03       		.uleb128 0x3
 5449 045b 08       		.uleb128 0x8
 5450 045c 3A       		.uleb128 0x3a
 5451 045d 0B       		.uleb128 0xb
ARM GAS  /var/folders/z0/6xlwn_996xz3mwq1cgzkbq4r0000gp/T//cc0Pdjko.s 			page 116


 5452 045e 3B       		.uleb128 0x3b
 5453 045f 0B       		.uleb128 0xb
 5454 0460 49       		.uleb128 0x49
 5455 0461 13       		.uleb128 0x13
 5456 0462 02       		.uleb128 0x2
 5457 0463 18       		.uleb128 0x18
 5458 0464 00       		.byte	0
 5459 0465 00       		.byte	0
 5460 0466 51       		.uleb128 0x51
 5461 0467 34       		.uleb128 0x34
 5462 0468 00       		.byte	0
 5463 0469 03       		.uleb128 0x3
 5464 046a 0E       		.uleb128 0xe
 5465 046b 3A       		.uleb128 0x3a
 5466 046c 0B       		.uleb128 0xb
 5467 046d 3B       		.uleb128 0x3b
 5468 046e 0B       		.uleb128 0xb
 5469 046f 49       		.uleb128 0x49
 5470 0470 13       		.uleb128 0x13
 5471 0471 02       		.uleb128 0x2
 5472 0472 18       		.uleb128 0x18
 5473 0473 00       		.byte	0
 5474 0474 00       		.byte	0
 5475 0475 52       		.uleb128 0x52
 5476 0476 34       		.uleb128 0x34
 5477 0477 00       		.byte	0
 5478 0478 03       		.uleb128 0x3
 5479 0479 0E       		.uleb128 0xe
 5480 047a 3A       		.uleb128 0x3a
 5481 047b 0B       		.uleb128 0xb
 5482 047c 3B       		.uleb128 0x3b
 5483 047d 0B       		.uleb128 0xb
 5484 047e 49       		.uleb128 0x49
 5485 047f 13       		.uleb128 0x13
 5486 0480 3F       		.uleb128 0x3f
 5487 0481 19       		.uleb128 0x19
 5488 0482 3C       		.uleb128 0x3c
 5489 0483 19       		.uleb128 0x19
 5490 0484 00       		.byte	0
 5491 0485 00       		.byte	0
 5492 0486 53       		.uleb128 0x53
 5493 0487 34       		.uleb128 0x34
 5494 0488 00       		.byte	0
 5495 0489 03       		.uleb128 0x3
 5496 048a 0E       		.uleb128 0xe
 5497 048b 3A       		.uleb128 0x3a
 5498 048c 0B       		.uleb128 0xb
 5499 048d 3B       		.uleb128 0x3b
 5500 048e 05       		.uleb128 0x5
 5501 048f 49       		.uleb128 0x49
 5502 0490 13       		.uleb128 0x13
 5503 0491 3F       		.uleb128 0x3f
 5504 0492 19       		.uleb128 0x19
 5505 0493 3C       		.uleb128 0x3c
 5506 0494 19       		.uleb128 0x19
 5507 0495 00       		.byte	0
 5508 0496 00       		.byte	0
ARM GAS  /var/folders/z0/6xlwn_996xz3mwq1cgzkbq4r0000gp/T//cc0Pdjko.s 			page 117


 5509 0497 00       		.byte	0
 5510              		.section	.debug_loc,"",%progbits
 5511              	.Ldebug_loc0:
 5512              	.LLST0:
 5513 0000 00000000 		.4byte	.LVL3
 5514 0004 06000000 		.4byte	.LVL5
 5515 0008 0100     		.2byte	0x1
 5516 000a 50       		.byte	0x50
 5517 000b 06000000 		.4byte	.LVL5
 5518 000f 08010000 		.4byte	.LFE209
 5519 0013 0100     		.2byte	0x1
 5520 0015 52       		.byte	0x52
 5521 0016 00000000 		.4byte	0
 5522 001a 00000000 		.4byte	0
 5523              	.LLST1:
 5524 001e 00000000 		.4byte	.LVL3
 5525 0022 18000000 		.4byte	.LVL6
 5526 0026 0300     		.2byte	0x3
 5527 0028 08       		.byte	0x8
 5528 0029 3C       		.byte	0x3c
 5529 002a 9F       		.byte	0x9f
 5530 002b 3A000000 		.4byte	.LVL7
 5531 002f 42000000 		.4byte	.LVL8
 5532 0033 0100     		.2byte	0x1
 5533 0035 55       		.byte	0x55
 5534 0036 50000000 		.4byte	.LVL9
 5535 003a 54000000 		.4byte	.LVL10
 5536 003e 0300     		.2byte	0x3
 5537 0040 08       		.byte	0x8
 5538 0041 3C       		.byte	0x3c
 5539 0042 9F       		.byte	0x9f
 5540 0043 54000000 		.4byte	.LVL10
 5541 0047 5C000000 		.4byte	.LVL11
 5542 004b 0300     		.2byte	0x3
 5543 004d 08       		.byte	0x8
 5544 004e 2C       		.byte	0x2c
 5545 004f 9F       		.byte	0x9f
 5546 0050 60000000 		.4byte	.LVL12
 5547 0054 8C000000 		.4byte	.LVL13
 5548 0058 0300     		.2byte	0x3
 5549 005a 08       		.byte	0x8
 5550 005b 3C       		.byte	0x3c
 5551 005c 9F       		.byte	0x9f
 5552 005d 8C000000 		.4byte	.LVL13
 5553 0061 96000000 		.4byte	.LVL14
 5554 0065 0200     		.2byte	0x2
 5555 0067 4C       		.byte	0x4c
 5556 0068 9F       		.byte	0x9f
 5557 0069 96000000 		.4byte	.LVL14
 5558 006d 9A000000 		.4byte	.LVL15
 5559 0071 0300     		.2byte	0x3
 5560 0073 08       		.byte	0x8
 5561 0074 3C       		.byte	0x3c
 5562 0075 9F       		.byte	0x9f
 5563 0076 9A000000 		.4byte	.LVL15
 5564 007a 9C000000 		.4byte	.LVL16
 5565 007e 0300     		.2byte	0x3
ARM GAS  /var/folders/z0/6xlwn_996xz3mwq1cgzkbq4r0000gp/T//cc0Pdjko.s 			page 118


 5566 0080 08       		.byte	0x8
 5567 0081 2C       		.byte	0x2c
 5568 0082 9F       		.byte	0x9f
 5569 0083 9C000000 		.4byte	.LVL16
 5570 0087 A2000000 		.4byte	.LVL17
 5571 008b 0300     		.2byte	0x3
 5572 008d 08       		.byte	0x8
 5573 008e 3C       		.byte	0x3c
 5574 008f 9F       		.byte	0x9f
 5575 0090 A2000000 		.4byte	.LVL17
 5576 0094 AA000000 		.4byte	.LVL18
 5577 0098 0300     		.2byte	0x3
 5578 009a 08       		.byte	0x8
 5579 009b 38       		.byte	0x38
 5580 009c 9F       		.byte	0x9f
 5581 009d B4000000 		.4byte	.LVL19
 5582 00a1 CA000000 		.4byte	.LVL20
 5583 00a5 0300     		.2byte	0x3
 5584 00a7 08       		.byte	0x8
 5585 00a8 3C       		.byte	0x3c
 5586 00a9 9F       		.byte	0x9f
 5587 00aa D6000000 		.4byte	.LVL21
 5588 00ae EE000000 		.4byte	.LVL22
 5589 00b2 0300     		.2byte	0x3
 5590 00b4 08       		.byte	0x8
 5591 00b5 3C       		.byte	0x3c
 5592 00b6 9F       		.byte	0x9f
 5593 00b7 EE000000 		.4byte	.LVL22
 5594 00bb F8000000 		.4byte	.LVL23
 5595 00bf 0300     		.2byte	0x3
 5596 00c1 08       		.byte	0x8
 5597 00c2 2C       		.byte	0x2c
 5598 00c3 9F       		.byte	0x9f
 5599 00c4 F8000000 		.4byte	.LVL23
 5600 00c8 08010000 		.4byte	.LFE209
 5601 00cc 0300     		.2byte	0x3
 5602 00ce 08       		.byte	0x8
 5603 00cf 3C       		.byte	0x3c
 5604 00d0 9F       		.byte	0x9f
 5605 00d1 00000000 		.4byte	0
 5606 00d5 00000000 		.4byte	0
 5607              	.LLST2:
 5608 00d9 00000000 		.4byte	.LVL3
 5609 00dd 02000000 		.4byte	.LVL4
 5610 00e1 0100     		.2byte	0x1
 5611 00e3 50       		.byte	0x50
 5612 00e4 00000000 		.4byte	0
 5613 00e8 00000000 		.4byte	0
 5614              	.LLST3:
 5615 00ec 00000000 		.4byte	.LVL24
 5616 00f0 1E000000 		.4byte	.LVL26
 5617 00f4 0100     		.2byte	0x1
 5618 00f6 50       		.byte	0x50
 5619 00f7 1E000000 		.4byte	.LVL26
 5620 00fb 20000000 		.4byte	.LVL27
 5621 00ff 0400     		.2byte	0x4
 5622 0101 F3       		.byte	0xf3
ARM GAS  /var/folders/z0/6xlwn_996xz3mwq1cgzkbq4r0000gp/T//cc0Pdjko.s 			page 119


 5623 0102 01       		.uleb128 0x1
 5624 0103 50       		.byte	0x50
 5625 0104 9F       		.byte	0x9f
 5626 0105 20000000 		.4byte	.LVL27
 5627 0109 2A000000 		.4byte	.LVL29
 5628 010d 0100     		.2byte	0x1
 5629 010f 50       		.byte	0x50
 5630 0110 2A000000 		.4byte	.LVL29
 5631 0114 76000000 		.4byte	.LVL31
 5632 0118 0100     		.2byte	0x1
 5633 011a 52       		.byte	0x52
 5634 011b 76000000 		.4byte	.LVL31
 5635 011f 88000000 		.4byte	.LFE210
 5636 0123 0400     		.2byte	0x4
 5637 0125 F3       		.byte	0xf3
 5638 0126 01       		.uleb128 0x1
 5639 0127 50       		.byte	0x50
 5640 0128 9F       		.byte	0x9f
 5641 0129 00000000 		.4byte	0
 5642 012d 00000000 		.4byte	0
 5643              	.LLST4:
 5644 0131 00000000 		.4byte	.LVL24
 5645 0135 04000000 		.4byte	.LVL25
 5646 0139 0100     		.2byte	0x1
 5647 013b 50       		.byte	0x50
 5648 013c 00000000 		.4byte	0
 5649 0140 00000000 		.4byte	0
 5650              	.LLST5:
 5651 0144 28000000 		.4byte	.LVL28
 5652 0148 2A000000 		.4byte	.LVL29
 5653 014c 0100     		.2byte	0x1
 5654 014e 50       		.byte	0x50
 5655 014f 2A000000 		.4byte	.LVL29
 5656 0153 76000000 		.4byte	.LVL31
 5657 0157 0100     		.2byte	0x1
 5658 0159 52       		.byte	0x52
 5659 015a 76000000 		.4byte	.LVL31
 5660 015e 88000000 		.4byte	.LFE210
 5661 0162 0400     		.2byte	0x4
 5662 0164 F3       		.byte	0xf3
 5663 0165 01       		.uleb128 0x1
 5664 0166 50       		.byte	0x50
 5665 0167 9F       		.byte	0x9f
 5666 0168 00000000 		.4byte	0
 5667 016c 00000000 		.4byte	0
 5668              	.LLST6:
 5669 0170 2C000000 		.4byte	.LVL30
 5670 0174 78000000 		.4byte	.LVL32
 5671 0178 0100     		.2byte	0x1
 5672 017a 51       		.byte	0x51
 5673 017b 00000000 		.4byte	0
 5674 017f 00000000 		.4byte	0
 5675              	.LLST7:
 5676 0183 2C000000 		.4byte	.LVL30
 5677 0187 76000000 		.4byte	.LVL31
 5678 018b 0100     		.2byte	0x1
 5679 018d 52       		.byte	0x52
ARM GAS  /var/folders/z0/6xlwn_996xz3mwq1cgzkbq4r0000gp/T//cc0Pdjko.s 			page 120


 5680 018e 76000000 		.4byte	.LVL31
 5681 0192 88000000 		.4byte	.LFE210
 5682 0196 0400     		.2byte	0x4
 5683 0198 F3       		.byte	0xf3
 5684 0199 01       		.uleb128 0x1
 5685 019a 50       		.byte	0x50
 5686 019b 9F       		.byte	0x9f
 5687 019c 00000000 		.4byte	0
 5688 01a0 00000000 		.4byte	0
 5689              	.LLST8:
 5690 01a4 00000000 		.4byte	.LVL33
 5691 01a8 0A000000 		.4byte	.LVL36
 5692 01ac 0100     		.2byte	0x1
 5693 01ae 50       		.byte	0x50
 5694 01af 0A000000 		.4byte	.LVL36
 5695 01b3 AC000000 		.4byte	.LFE211
 5696 01b7 0100     		.2byte	0x1
 5697 01b9 52       		.byte	0x52
 5698 01ba 00000000 		.4byte	0
 5699 01be 00000000 		.4byte	0
 5700              	.LLST9:
 5701 01c2 00000000 		.4byte	.LVL33
 5702 01c6 38000000 		.4byte	.LVL37
 5703 01ca 0100     		.2byte	0x1
 5704 01cc 51       		.byte	0x51
 5705 01cd 38000000 		.4byte	.LVL37
 5706 01d1 42000000 		.4byte	.LVL39
 5707 01d5 0400     		.2byte	0x4
 5708 01d7 F3       		.byte	0xf3
 5709 01d8 01       		.uleb128 0x1
 5710 01d9 51       		.byte	0x51
 5711 01da 9F       		.byte	0x9f
 5712 01db 42000000 		.4byte	.LVL39
 5713 01df 52000000 		.4byte	.LVL40
 5714 01e3 0100     		.2byte	0x1
 5715 01e5 51       		.byte	0x51
 5716 01e6 52000000 		.4byte	.LVL40
 5717 01ea 58000000 		.4byte	.LVL41
 5718 01ee 0400     		.2byte	0x4
 5719 01f0 F3       		.byte	0xf3
 5720 01f1 01       		.uleb128 0x1
 5721 01f2 51       		.byte	0x51
 5722 01f3 9F       		.byte	0x9f
 5723 01f4 58000000 		.4byte	.LVL41
 5724 01f8 6E000000 		.4byte	.LVL43
 5725 01fc 0100     		.2byte	0x1
 5726 01fe 51       		.byte	0x51
 5727 01ff 6E000000 		.4byte	.LVL43
 5728 0203 74000000 		.4byte	.LVL44
 5729 0207 0400     		.2byte	0x4
 5730 0209 F3       		.byte	0xf3
 5731 020a 01       		.uleb128 0x1
 5732 020b 51       		.byte	0x51
 5733 020c 9F       		.byte	0x9f
 5734 020d 74000000 		.4byte	.LVL44
 5735 0211 80000000 		.4byte	.LVL45
 5736 0215 0100     		.2byte	0x1
ARM GAS  /var/folders/z0/6xlwn_996xz3mwq1cgzkbq4r0000gp/T//cc0Pdjko.s 			page 121


 5737 0217 51       		.byte	0x51
 5738 0218 80000000 		.4byte	.LVL45
 5739 021c 86000000 		.4byte	.LVL46
 5740 0220 0400     		.2byte	0x4
 5741 0222 F3       		.byte	0xf3
 5742 0223 01       		.uleb128 0x1
 5743 0224 51       		.byte	0x51
 5744 0225 9F       		.byte	0x9f
 5745 0226 86000000 		.4byte	.LVL46
 5746 022a 88000000 		.4byte	.LVL47
 5747 022e 0100     		.2byte	0x1
 5748 0230 51       		.byte	0x51
 5749 0231 88000000 		.4byte	.LVL47
 5750 0235 8E000000 		.4byte	.LVL48
 5751 0239 0400     		.2byte	0x4
 5752 023b F3       		.byte	0xf3
 5753 023c 01       		.uleb128 0x1
 5754 023d 51       		.byte	0x51
 5755 023e 9F       		.byte	0x9f
 5756 023f 8E000000 		.4byte	.LVL48
 5757 0243 90000000 		.4byte	.LVL49
 5758 0247 0100     		.2byte	0x1
 5759 0249 51       		.byte	0x51
 5760 024a 90000000 		.4byte	.LVL49
 5761 024e 96000000 		.4byte	.LVL50
 5762 0252 0400     		.2byte	0x4
 5763 0254 F3       		.byte	0xf3
 5764 0255 01       		.uleb128 0x1
 5765 0256 51       		.byte	0x51
 5766 0257 9F       		.byte	0x9f
 5767 0258 96000000 		.4byte	.LVL50
 5768 025c 98000000 		.4byte	.LVL51
 5769 0260 0100     		.2byte	0x1
 5770 0262 51       		.byte	0x51
 5771 0263 98000000 		.4byte	.LVL51
 5772 0267 9E000000 		.4byte	.LVL52
 5773 026b 0400     		.2byte	0x4
 5774 026d F3       		.byte	0xf3
 5775 026e 01       		.uleb128 0x1
 5776 026f 51       		.byte	0x51
 5777 0270 9F       		.byte	0x9f
 5778 0271 9E000000 		.4byte	.LVL52
 5779 0275 A0000000 		.4byte	.LVL53
 5780 0279 0100     		.2byte	0x1
 5781 027b 51       		.byte	0x51
 5782 027c A0000000 		.4byte	.LVL53
 5783 0280 AC000000 		.4byte	.LFE211
 5784 0284 0400     		.2byte	0x4
 5785 0286 F3       		.byte	0xf3
 5786 0287 01       		.uleb128 0x1
 5787 0288 51       		.byte	0x51
 5788 0289 9F       		.byte	0x9f
 5789 028a 00000000 		.4byte	0
 5790 028e 00000000 		.4byte	0
 5791              	.LLST10:
 5792 0292 00000000 		.4byte	.LVL33
 5793 0296 3C000000 		.4byte	.LVL38
ARM GAS  /var/folders/z0/6xlwn_996xz3mwq1cgzkbq4r0000gp/T//cc0Pdjko.s 			page 122


 5794 029a 0300     		.2byte	0x3
 5795 029c 08       		.byte	0x8
 5796 029d 3C       		.byte	0x3c
 5797 029e 9F       		.byte	0x9f
 5798 029f 3C000000 		.4byte	.LVL38
 5799 02a3 42000000 		.4byte	.LVL39
 5800 02a7 0100     		.2byte	0x1
 5801 02a9 53       		.byte	0x53
 5802 02aa 42000000 		.4byte	.LVL39
 5803 02ae 74000000 		.4byte	.LVL44
 5804 02b2 0300     		.2byte	0x3
 5805 02b4 08       		.byte	0x8
 5806 02b5 3C       		.byte	0x3c
 5807 02b6 9F       		.byte	0x9f
 5808 02b7 74000000 		.4byte	.LVL44
 5809 02bb 86000000 		.4byte	.LVL46
 5810 02bf 0300     		.2byte	0x3
 5811 02c1 08       		.byte	0x8
 5812 02c2 38       		.byte	0x38
 5813 02c3 9F       		.byte	0x9f
 5814 02c4 86000000 		.4byte	.LVL46
 5815 02c8 96000000 		.4byte	.LVL50
 5816 02cc 0300     		.2byte	0x3
 5817 02ce 08       		.byte	0x8
 5818 02cf 3C       		.byte	0x3c
 5819 02d0 9F       		.byte	0x9f
 5820 02d1 96000000 		.4byte	.LVL50
 5821 02d5 9E000000 		.4byte	.LVL52
 5822 02d9 0300     		.2byte	0x3
 5823 02db 08       		.byte	0x8
 5824 02dc 38       		.byte	0x38
 5825 02dd 9F       		.byte	0x9f
 5826 02de 9E000000 		.4byte	.LVL52
 5827 02e2 AC000000 		.4byte	.LFE211
 5828 02e6 0300     		.2byte	0x3
 5829 02e8 08       		.byte	0x8
 5830 02e9 3C       		.byte	0x3c
 5831 02ea 9F       		.byte	0x9f
 5832 02eb 00000000 		.4byte	0
 5833 02ef 00000000 		.4byte	0
 5834              	.LLST11:
 5835 02f3 00000000 		.4byte	.LVL33
 5836 02f7 3C000000 		.4byte	.LVL38
 5837 02fb 0200     		.2byte	0x2
 5838 02fd 30       		.byte	0x30
 5839 02fe 9F       		.byte	0x9f
 5840 02ff 3C000000 		.4byte	.LVL38
 5841 0303 42000000 		.4byte	.LVL39
 5842 0307 0100     		.2byte	0x1
 5843 0309 50       		.byte	0x50
 5844 030a 42000000 		.4byte	.LVL39
 5845 030e 68000000 		.4byte	.LVL42
 5846 0312 0200     		.2byte	0x2
 5847 0314 30       		.byte	0x30
 5848 0315 9F       		.byte	0x9f
 5849 0316 68000000 		.4byte	.LVL42
 5850 031a 74000000 		.4byte	.LVL44
ARM GAS  /var/folders/z0/6xlwn_996xz3mwq1cgzkbq4r0000gp/T//cc0Pdjko.s 			page 123


 5851 031e 0200     		.2byte	0x2
 5852 0320 35       		.byte	0x35
 5853 0321 9F       		.byte	0x9f
 5854 0322 74000000 		.4byte	.LVL44
 5855 0326 86000000 		.4byte	.LVL46
 5856 032a 0200     		.2byte	0x2
 5857 032c 32       		.byte	0x32
 5858 032d 9F       		.byte	0x9f
 5859 032e 86000000 		.4byte	.LVL46
 5860 0332 96000000 		.4byte	.LVL50
 5861 0336 0200     		.2byte	0x2
 5862 0338 30       		.byte	0x30
 5863 0339 9F       		.byte	0x9f
 5864 033a 96000000 		.4byte	.LVL50
 5865 033e 9E000000 		.4byte	.LVL52
 5866 0342 0200     		.2byte	0x2
 5867 0344 32       		.byte	0x32
 5868 0345 9F       		.byte	0x9f
 5869 0346 9E000000 		.4byte	.LVL52
 5870 034a AC000000 		.4byte	.LFE211
 5871 034e 0200     		.2byte	0x2
 5872 0350 35       		.byte	0x35
 5873 0351 9F       		.byte	0x9f
 5874 0352 00000000 		.4byte	0
 5875 0356 00000000 		.4byte	0
 5876              	.LLST12:
 5877 035a 06000000 		.4byte	.LVL34
 5878 035e 08000000 		.4byte	.LVL35
 5879 0362 0100     		.2byte	0x1
 5880 0364 50       		.byte	0x50
 5881 0365 00000000 		.4byte	0
 5882 0369 00000000 		.4byte	0
 5883              	.LLST13:
 5884 036d 00000000 		.4byte	.LVL54
 5885 0371 20000000 		.4byte	.LVL56
 5886 0375 0100     		.2byte	0x1
 5887 0377 50       		.byte	0x50
 5888 0378 20000000 		.4byte	.LVL56
 5889 037c 3C000000 		.4byte	.LFE214
 5890 0380 0400     		.2byte	0x4
 5891 0382 F3       		.byte	0xf3
 5892 0383 01       		.uleb128 0x1
 5893 0384 50       		.byte	0x50
 5894 0385 9F       		.byte	0x9f
 5895 0386 00000000 		.4byte	0
 5896 038a 00000000 		.4byte	0
 5897              	.LLST14:
 5898 038e 14000000 		.4byte	.LVL55
 5899 0392 28000000 		.4byte	.LVL57
 5900 0396 0200     		.2byte	0x2
 5901 0398 35       		.byte	0x35
 5902 0399 9F       		.byte	0x9f
 5903 039a 00000000 		.4byte	0
 5904 039e 00000000 		.4byte	0
 5905              	.LLST15:
 5906 03a2 00000000 		.4byte	.LVL58
 5907 03a6 08000000 		.4byte	.LVL59
ARM GAS  /var/folders/z0/6xlwn_996xz3mwq1cgzkbq4r0000gp/T//cc0Pdjko.s 			page 124


 5908 03aa 0100     		.2byte	0x1
 5909 03ac 50       		.byte	0x50
 5910 03ad 08000000 		.4byte	.LVL59
 5911 03b1 24000000 		.4byte	.LFE215
 5912 03b5 0400     		.2byte	0x4
 5913 03b7 F3       		.byte	0xf3
 5914 03b8 01       		.uleb128 0x1
 5915 03b9 50       		.byte	0x50
 5916 03ba 9F       		.byte	0x9f
 5917 03bb 00000000 		.4byte	0
 5918 03bf 00000000 		.4byte	0
 5919              	.LLST16:
 5920 03c3 0C000000 		.4byte	.LVL60
 5921 03c7 1A000000 		.4byte	.LVL61
 5922 03cb 0500     		.2byte	0x5
 5923 03cd 03       		.byte	0x3
 5924 03ce 04000000 		.4byte	i2c+4
 5925 03d2 00000000 		.4byte	0
 5926 03d6 00000000 		.4byte	0
 5927              	.LLST17:
 5928 03da 00000000 		.4byte	.LVL62
 5929 03de 06000000 		.4byte	.LVL63
 5930 03e2 0100     		.2byte	0x1
 5931 03e4 50       		.byte	0x50
 5932 03e5 06000000 		.4byte	.LVL63
 5933 03e9 24000000 		.4byte	.LFE216
 5934 03ed 0400     		.2byte	0x4
 5935 03ef F3       		.byte	0xf3
 5936 03f0 01       		.uleb128 0x1
 5937 03f1 50       		.byte	0x50
 5938 03f2 9F       		.byte	0x9f
 5939 03f3 00000000 		.4byte	0
 5940 03f7 00000000 		.4byte	0
 5941              	.LLST18:
 5942 03fb 00000000 		.4byte	.LVL62
 5943 03ff 09000000 		.4byte	.LVL64-1
 5944 0403 0100     		.2byte	0x1
 5945 0405 51       		.byte	0x51
 5946 0406 09000000 		.4byte	.LVL64-1
 5947 040a 24000000 		.4byte	.LFE216
 5948 040e 0400     		.2byte	0x4
 5949 0410 F3       		.byte	0xf3
 5950 0411 01       		.uleb128 0x1
 5951 0412 51       		.byte	0x51
 5952 0413 9F       		.byte	0x9f
 5953 0414 00000000 		.4byte	0
 5954 0418 00000000 		.4byte	0
 5955              	.LLST19:
 5956 041c 0A000000 		.4byte	.LVL64
 5957 0420 16000000 		.4byte	.LVL65
 5958 0424 0100     		.2byte	0x1
 5959 0426 50       		.byte	0x50
 5960 0427 00000000 		.4byte	0
 5961 042b 00000000 		.4byte	0
 5962              	.LLST20:
 5963 042f 00000000 		.4byte	.LVL66
 5964 0433 10000000 		.4byte	.LVL67
ARM GAS  /var/folders/z0/6xlwn_996xz3mwq1cgzkbq4r0000gp/T//cc0Pdjko.s 			page 125


 5965 0437 0100     		.2byte	0x1
 5966 0439 50       		.byte	0x50
 5967 043a 10000000 		.4byte	.LVL67
 5968 043e 20000000 		.4byte	.LFE217
 5969 0442 0400     		.2byte	0x4
 5970 0444 F3       		.byte	0xf3
 5971 0445 01       		.uleb128 0x1
 5972 0446 50       		.byte	0x50
 5973 0447 9F       		.byte	0x9f
 5974 0448 00000000 		.4byte	0
 5975 044c 00000000 		.4byte	0
 5976              	.LLST21:
 5977 0450 00000000 		.4byte	.LVL69
 5978 0454 0C000000 		.4byte	.LVL70
 5979 0458 0100     		.2byte	0x1
 5980 045a 50       		.byte	0x50
 5981 045b 0C000000 		.4byte	.LVL70
 5982 045f 14000000 		.4byte	.LVL72
 5983 0463 0400     		.2byte	0x4
 5984 0465 F3       		.byte	0xf3
 5985 0466 01       		.uleb128 0x1
 5986 0467 50       		.byte	0x50
 5987 0468 9F       		.byte	0x9f
 5988 0469 14000000 		.4byte	.LVL72
 5989 046d 20000000 		.4byte	.LFE218
 5990 0471 0100     		.2byte	0x1
 5991 0473 50       		.byte	0x50
 5992 0474 00000000 		.4byte	0
 5993 0478 00000000 		.4byte	0
 5994              	.LLST22:
 5995 047c 00000000 		.4byte	.LVL69
 5996 0480 10000000 		.4byte	.LVL71
 5997 0484 0100     		.2byte	0x1
 5998 0486 51       		.byte	0x51
 5999 0487 10000000 		.4byte	.LVL71
 6000 048b 14000000 		.4byte	.LVL72
 6001 048f 0400     		.2byte	0x4
 6002 0491 F3       		.byte	0xf3
 6003 0492 01       		.uleb128 0x1
 6004 0493 51       		.byte	0x51
 6005 0494 9F       		.byte	0x9f
 6006 0495 14000000 		.4byte	.LVL72
 6007 0499 20000000 		.4byte	.LFE218
 6008 049d 0100     		.2byte	0x1
 6009 049f 51       		.byte	0x51
 6010 04a0 00000000 		.4byte	0
 6011 04a4 00000000 		.4byte	0
 6012              	.LLST23:
 6013 04a8 00000000 		.4byte	.LVL73
 6014 04ac 04000000 		.4byte	.LVL74
 6015 04b0 0100     		.2byte	0x1
 6016 04b2 50       		.byte	0x50
 6017 04b3 04000000 		.4byte	.LVL74
 6018 04b7 0C000000 		.4byte	.LFE219
 6019 04bb 0400     		.2byte	0x4
 6020 04bd F3       		.byte	0xf3
 6021 04be 01       		.uleb128 0x1
ARM GAS  /var/folders/z0/6xlwn_996xz3mwq1cgzkbq4r0000gp/T//cc0Pdjko.s 			page 126


 6022 04bf 50       		.byte	0x50
 6023 04c0 9F       		.byte	0x9f
 6024 04c1 00000000 		.4byte	0
 6025 04c5 00000000 		.4byte	0
 6026              	.LLST24:
 6027 04c9 00000000 		.4byte	.LVL75
 6028 04cd 0D000000 		.4byte	.LVL77-1
 6029 04d1 0100     		.2byte	0x1
 6030 04d3 50       		.byte	0x50
 6031 04d4 0D000000 		.4byte	.LVL77-1
 6032 04d8 60000000 		.4byte	.LFE220
 6033 04dc 0400     		.2byte	0x4
 6034 04de F3       		.byte	0xf3
 6035 04df 01       		.uleb128 0x1
 6036 04e0 50       		.byte	0x50
 6037 04e1 9F       		.byte	0x9f
 6038 04e2 00000000 		.4byte	0
 6039 04e6 00000000 		.4byte	0
 6040              	.LLST25:
 6041 04ea 00000000 		.4byte	.LVL75
 6042 04ee 0A000000 		.4byte	.LVL76
 6043 04f2 0100     		.2byte	0x1
 6044 04f4 51       		.byte	0x51
 6045 04f5 0A000000 		.4byte	.LVL76
 6046 04f9 4C000000 		.4byte	.LVL84
 6047 04fd 0100     		.2byte	0x1
 6048 04ff 55       		.byte	0x55
 6049 0500 4C000000 		.4byte	.LVL84
 6050 0504 4E000000 		.4byte	.LVL85
 6051 0508 0400     		.2byte	0x4
 6052 050a F3       		.byte	0xf3
 6053 050b 01       		.uleb128 0x1
 6054 050c 51       		.byte	0x51
 6055 050d 9F       		.byte	0x9f
 6056 050e 4E000000 		.4byte	.LVL85
 6057 0512 60000000 		.4byte	.LFE220
 6058 0516 0100     		.2byte	0x1
 6059 0518 55       		.byte	0x55
 6060 0519 00000000 		.4byte	0
 6061 051d 00000000 		.4byte	0
 6062              	.LLST26:
 6063 0521 2A000000 		.4byte	.LVL79
 6064 0525 2C000000 		.4byte	.LVL80
 6065 0529 0500     		.2byte	0x5
 6066 052b 03       		.byte	0x3
 6067 052c 00000000 		.4byte	i2c
 6068 0530 00000000 		.4byte	0
 6069 0534 00000000 		.4byte	0
 6070              	.LLST27:
 6071 0538 3A000000 		.4byte	.LVL81
 6072 053c 42000000 		.4byte	.LVL82
 6073 0540 0500     		.2byte	0x5
 6074 0542 03       		.byte	0x3
 6075 0543 00000000 		.4byte	i2c
 6076 0547 00000000 		.4byte	0
 6077 054b 00000000 		.4byte	0
 6078              	.LLST28:
ARM GAS  /var/folders/z0/6xlwn_996xz3mwq1cgzkbq4r0000gp/T//cc0Pdjko.s 			page 127


 6079 054f 00000000 		.4byte	.LVL87
 6080 0553 14000000 		.4byte	.LVL89
 6081 0557 0100     		.2byte	0x1
 6082 0559 50       		.byte	0x50
 6083 055a 14000000 		.4byte	.LVL89
 6084 055e 28000000 		.4byte	.LFE221
 6085 0562 0400     		.2byte	0x4
 6086 0564 F3       		.byte	0xf3
 6087 0565 01       		.uleb128 0x1
 6088 0566 50       		.byte	0x50
 6089 0567 9F       		.byte	0x9f
 6090 0568 00000000 		.4byte	0
 6091 056c 00000000 		.4byte	0
 6092              	.LLST29:
 6093 0570 00000000 		.4byte	.LVL87
 6094 0574 14000000 		.4byte	.LVL89
 6095 0578 0100     		.2byte	0x1
 6096 057a 51       		.byte	0x51
 6097 057b 14000000 		.4byte	.LVL89
 6098 057f 28000000 		.4byte	.LFE221
 6099 0583 0400     		.2byte	0x4
 6100 0585 F3       		.byte	0xf3
 6101 0586 01       		.uleb128 0x1
 6102 0587 51       		.byte	0x51
 6103 0588 9F       		.byte	0x9f
 6104 0589 00000000 		.4byte	0
 6105 058d 00000000 		.4byte	0
 6106              	.LLST30:
 6107 0591 00000000 		.4byte	.LVL87
 6108 0595 14000000 		.4byte	.LVL89
 6109 0599 0100     		.2byte	0x1
 6110 059b 52       		.byte	0x52
 6111 059c 14000000 		.4byte	.LVL89
 6112 05a0 28000000 		.4byte	.LFE221
 6113 05a4 0400     		.2byte	0x4
 6114 05a6 F3       		.byte	0xf3
 6115 05a7 01       		.uleb128 0x1
 6116 05a8 52       		.byte	0x52
 6117 05a9 9F       		.byte	0x9f
 6118 05aa 00000000 		.4byte	0
 6119 05ae 00000000 		.4byte	0
 6120              	.LLST31:
 6121 05b2 00000000 		.4byte	.LVL87
 6122 05b6 08000000 		.4byte	.LVL88
 6123 05ba 0100     		.2byte	0x1
 6124 05bc 53       		.byte	0x53
 6125 05bd 08000000 		.4byte	.LVL88
 6126 05c1 28000000 		.4byte	.LFE221
 6127 05c5 0400     		.2byte	0x4
 6128 05c7 F3       		.byte	0xf3
 6129 05c8 01       		.uleb128 0x1
 6130 05c9 53       		.byte	0x53
 6131 05ca 9F       		.byte	0x9f
 6132 05cb 00000000 		.4byte	0
 6133 05cf 00000000 		.4byte	0
 6134              	.LLST32:
 6135 05d3 00000000 		.4byte	.LVL91
ARM GAS  /var/folders/z0/6xlwn_996xz3mwq1cgzkbq4r0000gp/T//cc0Pdjko.s 			page 128


 6136 05d7 08000000 		.4byte	.LVL92
 6137 05db 0100     		.2byte	0x1
 6138 05dd 50       		.byte	0x50
 6139 05de 08000000 		.4byte	.LVL92
 6140 05e2 30000000 		.4byte	.LFE222
 6141 05e6 0400     		.2byte	0x4
 6142 05e8 F3       		.byte	0xf3
 6143 05e9 01       		.uleb128 0x1
 6144 05ea 50       		.byte	0x50
 6145 05eb 9F       		.byte	0x9f
 6146 05ec 00000000 		.4byte	0
 6147 05f0 00000000 		.4byte	0
 6148              	.LLST33:
 6149 05f4 00000000 		.4byte	.LVL91
 6150 05f8 1C000000 		.4byte	.LVL95
 6151 05fc 0100     		.2byte	0x1
 6152 05fe 51       		.byte	0x51
 6153 05ff 1C000000 		.4byte	.LVL95
 6154 0603 30000000 		.4byte	.LFE222
 6155 0607 0400     		.2byte	0x4
 6156 0609 F3       		.byte	0xf3
 6157 060a 01       		.uleb128 0x1
 6158 060b 51       		.byte	0x51
 6159 060c 9F       		.byte	0x9f
 6160 060d 00000000 		.4byte	0
 6161 0611 00000000 		.4byte	0
 6162              	.LLST34:
 6163 0615 00000000 		.4byte	.LVL91
 6164 0619 0C000000 		.4byte	.LVL93
 6165 061d 0100     		.2byte	0x1
 6166 061f 52       		.byte	0x52
 6167 0620 0C000000 		.4byte	.LVL93
 6168 0624 12000000 		.4byte	.LVL94
 6169 0628 0200     		.2byte	0x2
 6170 062a 70       		.byte	0x70
 6171 062b 07       		.sleb128 7
 6172 062c 12000000 		.4byte	.LVL94
 6173 0630 1C000000 		.4byte	.LVL95
 6174 0634 0200     		.2byte	0x2
 6175 0636 70       		.byte	0x70
 6176 0637 00       		.sleb128 0
 6177 0638 1C000000 		.4byte	.LVL95
 6178 063c 2E000000 		.4byte	.LVL97
 6179 0640 0200     		.2byte	0x2
 6180 0642 7D       		.byte	0x7d
 6181 0643 07       		.sleb128 7
 6182 0644 2E000000 		.4byte	.LVL97
 6183 0648 30000000 		.4byte	.LFE222
 6184 064c 0200     		.2byte	0x2
 6185 064e 91       		.byte	0x91
 6186 064f 57       		.sleb128 -41
 6187 0650 00000000 		.4byte	0
 6188 0654 00000000 		.4byte	0
 6189              	.LLST35:
 6190 0658 00000000 		.4byte	.LVL91
 6191 065c 1C000000 		.4byte	.LVL95
 6192 0660 0100     		.2byte	0x1
ARM GAS  /var/folders/z0/6xlwn_996xz3mwq1cgzkbq4r0000gp/T//cc0Pdjko.s 			page 129


 6193 0662 53       		.byte	0x53
 6194 0663 1C000000 		.4byte	.LVL95
 6195 0667 30000000 		.4byte	.LFE222
 6196 066b 0400     		.2byte	0x4
 6197 066d F3       		.byte	0xf3
 6198 066e 01       		.uleb128 0x1
 6199 066f 53       		.byte	0x53
 6200 0670 9F       		.byte	0x9f
 6201 0671 00000000 		.4byte	0
 6202 0675 00000000 		.4byte	0
 6203              	.LLST36:
 6204 0679 00000000 		.4byte	.LVL98
 6205 067d 14000000 		.4byte	.LVL100
 6206 0681 0100     		.2byte	0x1
 6207 0683 50       		.byte	0x50
 6208 0684 14000000 		.4byte	.LVL100
 6209 0688 28000000 		.4byte	.LFE223
 6210 068c 0400     		.2byte	0x4
 6211 068e F3       		.byte	0xf3
 6212 068f 01       		.uleb128 0x1
 6213 0690 50       		.byte	0x50
 6214 0691 9F       		.byte	0x9f
 6215 0692 00000000 		.4byte	0
 6216 0696 00000000 		.4byte	0
 6217              	.LLST37:
 6218 069a 00000000 		.4byte	.LVL98
 6219 069e 14000000 		.4byte	.LVL100
 6220 06a2 0100     		.2byte	0x1
 6221 06a4 51       		.byte	0x51
 6222 06a5 14000000 		.4byte	.LVL100
 6223 06a9 28000000 		.4byte	.LFE223
 6224 06ad 0400     		.2byte	0x4
 6225 06af F3       		.byte	0xf3
 6226 06b0 01       		.uleb128 0x1
 6227 06b1 51       		.byte	0x51
 6228 06b2 9F       		.byte	0x9f
 6229 06b3 00000000 		.4byte	0
 6230 06b7 00000000 		.4byte	0
 6231              	.LLST38:
 6232 06bb 00000000 		.4byte	.LVL98
 6233 06bf 14000000 		.4byte	.LVL100
 6234 06c3 0100     		.2byte	0x1
 6235 06c5 52       		.byte	0x52
 6236 06c6 14000000 		.4byte	.LVL100
 6237 06ca 28000000 		.4byte	.LFE223
 6238 06ce 0400     		.2byte	0x4
 6239 06d0 F3       		.byte	0xf3
 6240 06d1 01       		.uleb128 0x1
 6241 06d2 52       		.byte	0x52
 6242 06d3 9F       		.byte	0x9f
 6243 06d4 00000000 		.4byte	0
 6244 06d8 00000000 		.4byte	0
 6245              	.LLST39:
 6246 06dc 00000000 		.4byte	.LVL98
 6247 06e0 08000000 		.4byte	.LVL99
 6248 06e4 0100     		.2byte	0x1
 6249 06e6 53       		.byte	0x53
ARM GAS  /var/folders/z0/6xlwn_996xz3mwq1cgzkbq4r0000gp/T//cc0Pdjko.s 			page 130


 6250 06e7 08000000 		.4byte	.LVL99
 6251 06eb 26000000 		.4byte	.LVL102
 6252 06ef 0100     		.2byte	0x1
 6253 06f1 55       		.byte	0x55
 6254 06f2 26000000 		.4byte	.LVL102
 6255 06f6 28000000 		.4byte	.LFE223
 6256 06fa 0400     		.2byte	0x4
 6257 06fc F3       		.byte	0xf3
 6258 06fd 01       		.uleb128 0x1
 6259 06fe 53       		.byte	0x53
 6260 06ff 9F       		.byte	0x9f
 6261 0700 00000000 		.4byte	0
 6262 0704 00000000 		.4byte	0
 6263              	.LLST40:
 6264 0708 00000000 		.4byte	.LVL103
 6265 070c 10000000 		.4byte	.LVL106
 6266 0710 0100     		.2byte	0x1
 6267 0712 50       		.byte	0x50
 6268 0713 10000000 		.4byte	.LVL106
 6269 0717 1C000000 		.4byte	.LFE224
 6270 071b 0400     		.2byte	0x4
 6271 071d F3       		.byte	0xf3
 6272 071e 01       		.uleb128 0x1
 6273 071f 50       		.byte	0x50
 6274 0720 9F       		.byte	0x9f
 6275 0721 00000000 		.4byte	0
 6276 0725 00000000 		.4byte	0
 6277              	.LLST41:
 6278 0729 08000000 		.4byte	.LVL104
 6279 072d 0A000000 		.4byte	.LVL105
 6280 0731 0100     		.2byte	0x1
 6281 0733 53       		.byte	0x53
 6282 0734 00000000 		.4byte	0
 6283 0738 00000000 		.4byte	0
 6284              	.LLST43:
 6285 073c 00000000 		.4byte	.LVL107
 6286 0740 0A000000 		.4byte	.LVL108
 6287 0744 0100     		.2byte	0x1
 6288 0746 50       		.byte	0x50
 6289 0747 0A000000 		.4byte	.LVL108
 6290 074b 20000000 		.4byte	.LFE225
 6291 074f 0400     		.2byte	0x4
 6292 0751 F3       		.byte	0xf3
 6293 0752 01       		.uleb128 0x1
 6294 0753 50       		.byte	0x50
 6295 0754 9F       		.byte	0x9f
 6296 0755 00000000 		.4byte	0
 6297 0759 00000000 		.4byte	0
 6298              	.LLST44:
 6299 075d 12000000 		.4byte	.LVL110
 6300 0761 1A000000 		.4byte	.LVL111
 6301 0765 0100     		.2byte	0x1
 6302 0767 55       		.byte	0x55
 6303 0768 00000000 		.4byte	0
 6304 076c 00000000 		.4byte	0
 6305              	.LLST45:
 6306 0770 00000000 		.4byte	.LVL112
ARM GAS  /var/folders/z0/6xlwn_996xz3mwq1cgzkbq4r0000gp/T//cc0Pdjko.s 			page 131


 6307 0774 08000000 		.4byte	.LVL113
 6308 0778 0100     		.2byte	0x1
 6309 077a 50       		.byte	0x50
 6310 077b 08000000 		.4byte	.LVL113
 6311 077f 0A000000 		.4byte	.LVL114
 6312 0783 0400     		.2byte	0x4
 6313 0785 F3       		.byte	0xf3
 6314 0786 01       		.uleb128 0x1
 6315 0787 50       		.byte	0x50
 6316 0788 9F       		.byte	0x9f
 6317 0789 0A000000 		.4byte	.LVL114
 6318 078d 10000000 		.4byte	.LVL115
 6319 0791 0100     		.2byte	0x1
 6320 0793 50       		.byte	0x50
 6321 0794 10000000 		.4byte	.LVL115
 6322 0798 2C000000 		.4byte	.LFE213
 6323 079c 0400     		.2byte	0x4
 6324 079e F3       		.byte	0xf3
 6325 079f 01       		.uleb128 0x1
 6326 07a0 50       		.byte	0x50
 6327 07a1 9F       		.byte	0x9f
 6328 07a2 00000000 		.4byte	0
 6329 07a6 00000000 		.4byte	0
 6330              	.LLST46:
 6331 07aa 00000000 		.4byte	.LVL112
 6332 07ae 08000000 		.4byte	.LVL113
 6333 07b2 0100     		.2byte	0x1
 6334 07b4 51       		.byte	0x51
 6335 07b5 08000000 		.4byte	.LVL113
 6336 07b9 0A000000 		.4byte	.LVL114
 6337 07bd 0400     		.2byte	0x4
 6338 07bf F3       		.byte	0xf3
 6339 07c0 01       		.uleb128 0x1
 6340 07c1 51       		.byte	0x51
 6341 07c2 9F       		.byte	0x9f
 6342 07c3 0A000000 		.4byte	.LVL114
 6343 07c7 10000000 		.4byte	.LVL115
 6344 07cb 0100     		.2byte	0x1
 6345 07cd 51       		.byte	0x51
 6346 07ce 10000000 		.4byte	.LVL115
 6347 07d2 2C000000 		.4byte	.LFE213
 6348 07d6 0400     		.2byte	0x4
 6349 07d8 F3       		.byte	0xf3
 6350 07d9 01       		.uleb128 0x1
 6351 07da 51       		.byte	0x51
 6352 07db 9F       		.byte	0x9f
 6353 07dc 00000000 		.4byte	0
 6354 07e0 00000000 		.4byte	0
 6355              	.LLST47:
 6356 07e4 18000000 		.4byte	.LVL116
 6357 07e8 1A000000 		.4byte	.LVL117
 6358 07ec 0100     		.2byte	0x1
 6359 07ee 57       		.byte	0x57
 6360 07ef 00000000 		.4byte	0
 6361 07f3 00000000 		.4byte	0
 6362              	.LLST48:
 6363 07f7 00000000 		.4byte	.LVL119
ARM GAS  /var/folders/z0/6xlwn_996xz3mwq1cgzkbq4r0000gp/T//cc0Pdjko.s 			page 132


 6364 07fb 10000000 		.4byte	.LVL122
 6365 07ff 0100     		.2byte	0x1
 6366 0801 50       		.byte	0x50
 6367 0802 10000000 		.4byte	.LVL122
 6368 0806 70000000 		.4byte	.LFE226
 6369 080a 0400     		.2byte	0x4
 6370 080c F3       		.byte	0xf3
 6371 080d 01       		.uleb128 0x1
 6372 080e 50       		.byte	0x50
 6373 080f 9F       		.byte	0x9f
 6374 0810 00000000 		.4byte	0
 6375 0814 00000000 		.4byte	0
 6376              	.LLST49:
 6377 0818 00000000 		.4byte	.LVL119
 6378 081c 4C000000 		.4byte	.LVL129
 6379 0820 0100     		.2byte	0x1
 6380 0822 51       		.byte	0x51
 6381 0823 4C000000 		.4byte	.LVL129
 6382 0827 54000000 		.4byte	.LVL130
 6383 082b 0400     		.2byte	0x4
 6384 082d F3       		.byte	0xf3
 6385 082e 01       		.uleb128 0x1
 6386 082f 51       		.byte	0x51
 6387 0830 9F       		.byte	0x9f
 6388 0831 54000000 		.4byte	.LVL130
 6389 0835 70000000 		.4byte	.LFE226
 6390 0839 0100     		.2byte	0x1
 6391 083b 51       		.byte	0x51
 6392 083c 00000000 		.4byte	0
 6393 0840 00000000 		.4byte	0
 6394              	.LLST50:
 6395 0844 00000000 		.4byte	.LVL119
 6396 0848 20000000 		.4byte	.LVL123
 6397 084c 0100     		.2byte	0x1
 6398 084e 52       		.byte	0x52
 6399 084f 20000000 		.4byte	.LVL123
 6400 0853 70000000 		.4byte	.LFE226
 6401 0857 0400     		.2byte	0x4
 6402 0859 F3       		.byte	0xf3
 6403 085a 01       		.uleb128 0x1
 6404 085b 52       		.byte	0x52
 6405 085c 9F       		.byte	0x9f
 6406 085d 00000000 		.4byte	0
 6407 0861 00000000 		.4byte	0
 6408              	.LLST51:
 6409 0865 00000000 		.4byte	.LVL119
 6410 0869 22000000 		.4byte	.LVL124
 6411 086d 0100     		.2byte	0x1
 6412 086f 53       		.byte	0x53
 6413 0870 22000000 		.4byte	.LVL124
 6414 0874 70000000 		.4byte	.LFE226
 6415 0878 0400     		.2byte	0x4
 6416 087a F3       		.byte	0xf3
 6417 087b 01       		.uleb128 0x1
 6418 087c 53       		.byte	0x53
 6419 087d 9F       		.byte	0x9f
 6420 087e 00000000 		.4byte	0
ARM GAS  /var/folders/z0/6xlwn_996xz3mwq1cgzkbq4r0000gp/T//cc0Pdjko.s 			page 133


 6421 0882 00000000 		.4byte	0
 6422              	.LLST52:
 6423 0886 00000000 		.4byte	.LVL119
 6424 088a 04000000 		.4byte	.LVL120
 6425 088e 0200     		.2byte	0x2
 6426 0890 91       		.byte	0x91
 6427 0891 00       		.sleb128 0
 6428 0892 04000000 		.4byte	.LVL120
 6429 0896 08000000 		.4byte	.LVL121
 6430 089a 0200     		.2byte	0x2
 6431 089c 74       		.byte	0x74
 6432 089d 00       		.sleb128 0
 6433 089e 08000000 		.4byte	.LVL121
 6434 08a2 70000000 		.4byte	.LFE226
 6435 08a6 0200     		.2byte	0x2
 6436 08a8 91       		.byte	0x91
 6437 08a9 00       		.sleb128 0
 6438 08aa 00000000 		.4byte	0
 6439 08ae 00000000 		.4byte	0
 6440              	.LLST53:
 6441 08b2 00000000 		.4byte	.LVL119
 6442 08b6 10000000 		.4byte	.LVL122
 6443 08ba 1000     		.2byte	0x10
 6444 08bc 70       		.byte	0x70
 6445 08bd 00       		.sleb128 0
 6446 08be 35       		.byte	0x35
 6447 08bf 1E       		.byte	0x1e
 6448 08c0 71       		.byte	0x71
 6449 08c1 00       		.sleb128 0
 6450 08c2 22       		.byte	0x22
 6451 08c3 33       		.byte	0x33
 6452 08c4 24       		.byte	0x24
 6453 08c5 03       		.byte	0x3
 6454 08c6 00000000 		.4byte	i2c_slave
 6455 08ca 22       		.byte	0x22
 6456 08cb 9F       		.byte	0x9f
 6457 08cc 00000000 		.4byte	0
 6458 08d0 00000000 		.4byte	0
 6459              	.LLST54:
 6460 08d4 22000000 		.4byte	.LVL124
 6461 08d8 38000000 		.4byte	.LVL128
 6462 08dc 0100     		.2byte	0x1
 6463 08de 56       		.byte	0x56
 6464 08df 54000000 		.4byte	.LVL130
 6465 08e3 58000000 		.4byte	.LVL131
 6466 08e7 0100     		.2byte	0x1
 6467 08e9 56       		.byte	0x56
 6468 08ea 00000000 		.4byte	0
 6469 08ee 00000000 		.4byte	0
 6470              	.LLST55:
 6471 08f2 22000000 		.4byte	.LVL124
 6472 08f6 38000000 		.4byte	.LVL128
 6473 08fa 0100     		.2byte	0x1
 6474 08fc 54       		.byte	0x54
 6475 08fd 54000000 		.4byte	.LVL130
 6476 0901 58000000 		.4byte	.LVL131
 6477 0905 0100     		.2byte	0x1
ARM GAS  /var/folders/z0/6xlwn_996xz3mwq1cgzkbq4r0000gp/T//cc0Pdjko.s 			page 134


 6478 0907 54       		.byte	0x54
 6479 0908 00000000 		.4byte	0
 6480 090c 00000000 		.4byte	0
 6481              	.LLST56:
 6482 0910 22000000 		.4byte	.LVL124
 6483 0914 38000000 		.4byte	.LVL128
 6484 0918 0100     		.2byte	0x1
 6485 091a 51       		.byte	0x51
 6486 091b 54000000 		.4byte	.LVL130
 6487 091f 58000000 		.4byte	.LVL131
 6488 0923 0100     		.2byte	0x1
 6489 0925 51       		.byte	0x51
 6490 0926 00000000 		.4byte	0
 6491 092a 00000000 		.4byte	0
 6492              	.LLST57:
 6493 092e 22000000 		.4byte	.LVL124
 6494 0932 30000000 		.4byte	.LVL126
 6495 0936 0100     		.2byte	0x1
 6496 0938 53       		.byte	0x53
 6497 0939 30000000 		.4byte	.LVL126
 6498 093d 38000000 		.4byte	.LVL128
 6499 0941 0500     		.2byte	0x5
 6500 0943 03       		.byte	0x3
 6501 0944 00000000 		.4byte	i2c
 6502 0948 54000000 		.4byte	.LVL130
 6503 094c 58000000 		.4byte	.LVL131
 6504 0950 0100     		.2byte	0x1
 6505 0952 53       		.byte	0x53
 6506 0953 00000000 		.4byte	0
 6507 0957 00000000 		.4byte	0
 6508              	.LLST58:
 6509 095b 22000000 		.4byte	.LVL124
 6510 095f 38000000 		.4byte	.LVL128
 6511 0963 0300     		.2byte	0x3
 6512 0965 71       		.byte	0x71
 6513 0966 7F       		.sleb128 -1
 6514 0967 9F       		.byte	0x9f
 6515 0968 54000000 		.4byte	.LVL130
 6516 096c 58000000 		.4byte	.LVL131
 6517 0970 0300     		.2byte	0x3
 6518 0972 71       		.byte	0x71
 6519 0973 7F       		.sleb128 -1
 6520 0974 9F       		.byte	0x9f
 6521 0975 00000000 		.4byte	0
 6522 0979 00000000 		.4byte	0
 6523              	.LLST59:
 6524 097d 2C000000 		.4byte	.LVL125
 6525 0981 30000000 		.4byte	.LVL126
 6526 0985 0300     		.2byte	0x3
 6527 0987 73       		.byte	0x73
 6528 0988 20       		.sleb128 32
 6529 0989 9F       		.byte	0x9f
 6530 098a 30000000 		.4byte	.LVL126
 6531 098e 36000000 		.4byte	.LVL127
 6532 0992 0100     		.2byte	0x1
 6533 0994 53       		.byte	0x53
 6534 0995 36000000 		.4byte	.LVL127
ARM GAS  /var/folders/z0/6xlwn_996xz3mwq1cgzkbq4r0000gp/T//cc0Pdjko.s 			page 135


 6535 0999 38000000 		.4byte	.LVL128
 6536 099d 0900     		.2byte	0x9
 6537 099f 03       		.byte	0x3
 6538 09a0 00000000 		.4byte	i2c
 6539 09a4 06       		.byte	0x6
 6540 09a5 23       		.byte	0x23
 6541 09a6 20       		.uleb128 0x20
 6542 09a7 9F       		.byte	0x9f
 6543 09a8 00000000 		.4byte	0
 6544 09ac 00000000 		.4byte	0
 6545              	.LLST60:
 6546 09b0 00000000 		.4byte	.LVL133
 6547 09b4 0E000000 		.4byte	.LVL134
 6548 09b8 0100     		.2byte	0x1
 6549 09ba 50       		.byte	0x50
 6550 09bb 0E000000 		.4byte	.LVL134
 6551 09bf 3A000000 		.4byte	.LVL139
 6552 09c3 0400     		.2byte	0x4
 6553 09c5 F3       		.byte	0xf3
 6554 09c6 01       		.uleb128 0x1
 6555 09c7 50       		.byte	0x50
 6556 09c8 9F       		.byte	0x9f
 6557 09c9 3A000000 		.4byte	.LVL139
 6558 09cd 3C000000 		.4byte	.LVL140
 6559 09d1 0100     		.2byte	0x1
 6560 09d3 50       		.byte	0x50
 6561 09d4 3C000000 		.4byte	.LVL140
 6562 09d8 60000000 		.4byte	.LFE227
 6563 09dc 0400     		.2byte	0x4
 6564 09de F3       		.byte	0xf3
 6565 09df 01       		.uleb128 0x1
 6566 09e0 50       		.byte	0x50
 6567 09e1 9F       		.byte	0x9f
 6568 09e2 00000000 		.4byte	0
 6569 09e6 00000000 		.4byte	0
 6570              	.LLST61:
 6571 09ea 22000000 		.4byte	.LVL135
 6572 09ee 32000000 		.4byte	.LVL136
 6573 09f2 0100     		.2byte	0x1
 6574 09f4 50       		.byte	0x50
 6575 09f5 36000000 		.4byte	.LVL138
 6576 09f9 3A000000 		.4byte	.LVL139
 6577 09fd 0100     		.2byte	0x1
 6578 09ff 50       		.byte	0x50
 6579 0a00 00000000 		.4byte	0
 6580 0a04 00000000 		.4byte	0
 6581              	.LLST62:
 6582 0a08 40000000 		.4byte	.LVL141
 6583 0a0c 4A000000 		.4byte	.LVL142
 6584 0a10 1000     		.2byte	0x10
 6585 0a12 76       		.byte	0x76
 6586 0a13 00       		.sleb128 0
 6587 0a14 35       		.byte	0x35
 6588 0a15 1E       		.byte	0x1e
 6589 0a16 70       		.byte	0x70
 6590 0a17 00       		.sleb128 0
 6591 0a18 22       		.byte	0x22
ARM GAS  /var/folders/z0/6xlwn_996xz3mwq1cgzkbq4r0000gp/T//cc0Pdjko.s 			page 136


 6592 0a19 33       		.byte	0x33
 6593 0a1a 24       		.byte	0x24
 6594 0a1b 03       		.byte	0x3
 6595 0a1c 00000000 		.4byte	i2c_slave
 6596 0a20 22       		.byte	0x22
 6597 0a21 9F       		.byte	0x9f
 6598 0a22 00000000 		.4byte	0
 6599 0a26 00000000 		.4byte	0
 6600              	.LLST63:
 6601 0a2a 40000000 		.4byte	.LVL141
 6602 0a2e 4A000000 		.4byte	.LVL142
 6603 0a32 0100     		.2byte	0x1
 6604 0a34 50       		.byte	0x50
 6605 0a35 00000000 		.4byte	0
 6606 0a39 00000000 		.4byte	0
 6607              	.LLST64:
 6608 0a3d 00000000 		.4byte	.LVL144
 6609 0a41 06000000 		.4byte	.LVL145
 6610 0a45 0100     		.2byte	0x1
 6611 0a47 50       		.byte	0x50
 6612 0a48 06000000 		.4byte	.LVL145
 6613 0a4c 10000000 		.4byte	.LFE229
 6614 0a50 0400     		.2byte	0x4
 6615 0a52 F3       		.byte	0xf3
 6616 0a53 01       		.uleb128 0x1
 6617 0a54 50       		.byte	0x50
 6618 0a55 9F       		.byte	0x9f
 6619 0a56 00000000 		.4byte	0
 6620 0a5a 00000000 		.4byte	0
 6621              		.section	.debug_aranges,"",%progbits
 6622 0000 BC000000 		.4byte	0xbc
 6623 0004 0200     		.2byte	0x2
 6624 0006 00000000 		.4byte	.Ldebug_info0
 6625 000a 04       		.byte	0x4
 6626 000b 00       		.byte	0
 6627 000c 0000     		.2byte	0
 6628 000e 0000     		.2byte	0
 6629 0010 00000000 		.4byte	.LFB212
 6630 0014 18000000 		.4byte	.LFE212-.LFB212
 6631 0018 00000000 		.4byte	.LFB209
 6632 001c 08010000 		.4byte	.LFE209-.LFB209
 6633 0020 00000000 		.4byte	.LFB210
 6634 0024 88000000 		.4byte	.LFE210-.LFB210
 6635 0028 00000000 		.4byte	.LFB211
 6636 002c AC000000 		.4byte	.LFE211-.LFB211
 6637 0030 00000000 		.4byte	.LFB214
 6638 0034 3C000000 		.4byte	.LFE214-.LFB214
 6639 0038 00000000 		.4byte	.LFB215
 6640 003c 24000000 		.4byte	.LFE215-.LFB215
 6641 0040 00000000 		.4byte	.LFB216
 6642 0044 24000000 		.4byte	.LFE216-.LFB216
 6643 0048 00000000 		.4byte	.LFB217
 6644 004c 20000000 		.4byte	.LFE217-.LFB217
 6645 0050 00000000 		.4byte	.LFB218
 6646 0054 20000000 		.4byte	.LFE218-.LFB218
 6647 0058 00000000 		.4byte	.LFB219
 6648 005c 0C000000 		.4byte	.LFE219-.LFB219
ARM GAS  /var/folders/z0/6xlwn_996xz3mwq1cgzkbq4r0000gp/T//cc0Pdjko.s 			page 137


 6649 0060 00000000 		.4byte	.LFB220
 6650 0064 60000000 		.4byte	.LFE220-.LFB220
 6651 0068 00000000 		.4byte	.LFB221
 6652 006c 28000000 		.4byte	.LFE221-.LFB221
 6653 0070 00000000 		.4byte	.LFB222
 6654 0074 30000000 		.4byte	.LFE222-.LFB222
 6655 0078 00000000 		.4byte	.LFB223
 6656 007c 28000000 		.4byte	.LFE223-.LFB223
 6657 0080 00000000 		.4byte	.LFB224
 6658 0084 1C000000 		.4byte	.LFE224-.LFB224
 6659 0088 00000000 		.4byte	.LFB225
 6660 008c 20000000 		.4byte	.LFE225-.LFB225
 6661 0090 00000000 		.4byte	.LFB213
 6662 0094 2C000000 		.4byte	.LFE213-.LFB213
 6663 0098 00000000 		.4byte	.LFB226
 6664 009c 70000000 		.4byte	.LFE226-.LFB226
 6665 00a0 00000000 		.4byte	.LFB227
 6666 00a4 60000000 		.4byte	.LFE227-.LFB227
 6667 00a8 00000000 		.4byte	.LFB228
 6668 00ac 10000000 		.4byte	.LFE228-.LFB228
 6669 00b0 00000000 		.4byte	.LFB229
 6670 00b4 10000000 		.4byte	.LFE229-.LFB229
 6671 00b8 00000000 		.4byte	0
 6672 00bc 00000000 		.4byte	0
 6673              		.section	.debug_ranges,"",%progbits
 6674              	.Ldebug_ranges0:
 6675 0000 1C000000 		.4byte	.LBB87
 6676 0004 24000000 		.4byte	.LBE87
 6677 0008 24000000 		.4byte	.LBB92
 6678 000c 28000000 		.4byte	.LBE92
 6679 0010 00000000 		.4byte	0
 6680 0014 00000000 		.4byte	0
 6681 0018 06000000 		.4byte	.LBB93
 6682 001c 08000000 		.4byte	.LBE93
 6683 0020 0C000000 		.4byte	.LBB100
 6684 0024 1A000000 		.4byte	.LBE100
 6685 0028 00000000 		.4byte	0
 6686 002c 00000000 		.4byte	0
 6687 0030 06000000 		.4byte	.LBB95
 6688 0034 08000000 		.4byte	.LBE95
 6689 0038 0C000000 		.4byte	.LBB98
 6690 003c 1A000000 		.4byte	.LBE98
 6691 0040 00000000 		.4byte	0
 6692 0044 00000000 		.4byte	0
 6693 0048 4E000000 		.4byte	.LBB105
 6694 004c 50000000 		.4byte	.LBE105
 6695 0050 52000000 		.4byte	.LBB108
 6696 0054 60000000 		.4byte	.LBE108
 6697 0058 00000000 		.4byte	0
 6698 005c 00000000 		.4byte	0
 6699 0060 10000000 		.4byte	.LBB117
 6700 0064 12000000 		.4byte	.LBE117
 6701 0068 18000000 		.4byte	.LBB120
 6702 006c 1A000000 		.4byte	.LBE120
 6703 0070 00000000 		.4byte	0
 6704 0074 00000000 		.4byte	0
 6705 0078 1E000000 		.4byte	.LBB121
ARM GAS  /var/folders/z0/6xlwn_996xz3mwq1cgzkbq4r0000gp/T//cc0Pdjko.s 			page 138


 6706 007c 20000000 		.4byte	.LBE121
 6707 0080 22000000 		.4byte	.LBB126
 6708 0084 38000000 		.4byte	.LBE126
 6709 0088 54000000 		.4byte	.LBB127
 6710 008c 58000000 		.4byte	.LBE127
 6711 0090 00000000 		.4byte	0
 6712 0094 00000000 		.4byte	0
 6713 0098 58000000 		.4byte	.LBB128
 6714 009c 5A000000 		.4byte	.LBE128
 6715 00a0 5C000000 		.4byte	.LBB131
 6716 00a4 70000000 		.4byte	.LBE131
 6717 00a8 00000000 		.4byte	0
 6718 00ac 00000000 		.4byte	0
 6719 00b0 08000000 		.4byte	.LBB132
 6720 00b4 0A000000 		.4byte	.LBE132
 6721 00b8 3A000000 		.4byte	.LBB133
 6722 00bc 60000000 		.4byte	.LBE133
 6723 00c0 00000000 		.4byte	0
 6724 00c4 00000000 		.4byte	0
 6725 00c8 00000000 		.4byte	.LFB212
 6726 00cc 18000000 		.4byte	.LFE212
 6727 00d0 00000000 		.4byte	.LFB209
 6728 00d4 08010000 		.4byte	.LFE209
 6729 00d8 00000000 		.4byte	.LFB210
 6730 00dc 88000000 		.4byte	.LFE210
 6731 00e0 00000000 		.4byte	.LFB211
 6732 00e4 AC000000 		.4byte	.LFE211
 6733 00e8 00000000 		.4byte	.LFB214
 6734 00ec 3C000000 		.4byte	.LFE214
 6735 00f0 00000000 		.4byte	.LFB215
 6736 00f4 24000000 		.4byte	.LFE215
 6737 00f8 00000000 		.4byte	.LFB216
 6738 00fc 24000000 		.4byte	.LFE216
 6739 0100 00000000 		.4byte	.LFB217
 6740 0104 20000000 		.4byte	.LFE217
 6741 0108 00000000 		.4byte	.LFB218
 6742 010c 20000000 		.4byte	.LFE218
 6743 0110 00000000 		.4byte	.LFB219
 6744 0114 0C000000 		.4byte	.LFE219
 6745 0118 00000000 		.4byte	.LFB220
 6746 011c 60000000 		.4byte	.LFE220
 6747 0120 00000000 		.4byte	.LFB221
 6748 0124 28000000 		.4byte	.LFE221
 6749 0128 00000000 		.4byte	.LFB222
 6750 012c 30000000 		.4byte	.LFE222
 6751 0130 00000000 		.4byte	.LFB223
 6752 0134 28000000 		.4byte	.LFE223
 6753 0138 00000000 		.4byte	.LFB224
 6754 013c 1C000000 		.4byte	.LFE224
 6755 0140 00000000 		.4byte	.LFB225
 6756 0144 20000000 		.4byte	.LFE225
 6757 0148 00000000 		.4byte	.LFB213
 6758 014c 2C000000 		.4byte	.LFE213
 6759 0150 00000000 		.4byte	.LFB226
 6760 0154 70000000 		.4byte	.LFE226
 6761 0158 00000000 		.4byte	.LFB227
 6762 015c 60000000 		.4byte	.LFE227
ARM GAS  /var/folders/z0/6xlwn_996xz3mwq1cgzkbq4r0000gp/T//cc0Pdjko.s 			page 139


 6763 0160 00000000 		.4byte	.LFB228
 6764 0164 10000000 		.4byte	.LFE228
 6765 0168 00000000 		.4byte	.LFB229
 6766 016c 10000000 		.4byte	.LFE229
 6767 0170 00000000 		.4byte	0
 6768 0174 00000000 		.4byte	0
 6769              		.section	.debug_macro,"",%progbits
 6770              	.Ldebug_macro0:
 6771 0000 0400     		.2byte	0x4
 6772 0002 02       		.byte	0x2
 6773 0003 00000000 		.4byte	.Ldebug_line0
 6774 0007 07       		.byte	0x7
 6775 0008 00000000 		.4byte	.Ldebug_macro1
 6776 000c 03       		.byte	0x3
 6777 000d 00       		.uleb128 0
 6778 000e 01       		.uleb128 0x1
 6779 000f 03       		.byte	0x3
 6780 0010 20       		.uleb128 0x20
 6781 0011 07       		.uleb128 0x7
 6782 0012 05       		.byte	0x5
 6783 0013 1E       		.uleb128 0x1e
 6784 0014 0B7C0000 		.4byte	.LASF347
 6785              		.file 8 "../../lib/lpc11cx4-library/lpc_chip_11cxx_lib/inc/lpc_types.h"
 6786 0018 03       		.byte	0x3
 6787 0019 20       		.uleb128 0x20
 6788 001a 08       		.uleb128 0x8
 6789 001b 05       		.byte	0x5
 6790 001c 21       		.uleb128 0x21
 6791 001d B6210000 		.4byte	.LASF348
 6792              		.file 9 "/usr/local/Cellar/gcc-arm-none-eabi/20160928/lib/gcc/arm-none-eabi/5.4.1/include/stdint.h
 6793 0021 03       		.byte	0x3
 6794 0022 23       		.uleb128 0x23
 6795 0023 09       		.uleb128 0x9
 6796              		.file 10 "/usr/local/Cellar/gcc-arm-none-eabi/20160928/arm-none-eabi/include/stdint.h"
 6797 0024 03       		.byte	0x3
 6798 0025 09       		.uleb128 0x9
 6799 0026 0A       		.uleb128 0xa
 6800 0027 05       		.byte	0x5
 6801 0028 0A       		.uleb128 0xa
 6802 0029 9C1C0000 		.4byte	.LASF349
 6803 002d 03       		.byte	0x3
 6804 002e 0C       		.uleb128 0xc
 6805 002f 03       		.uleb128 0x3
 6806 0030 05       		.byte	0x5
 6807 0031 06       		.uleb128 0x6
 6808 0032 4E510000 		.4byte	.LASF350
 6809              		.file 11 "/usr/local/Cellar/gcc-arm-none-eabi/20160928/arm-none-eabi/include/sys/features.h"
 6810 0036 03       		.byte	0x3
 6811 0037 08       		.uleb128 0x8
 6812 0038 0B       		.uleb128 0xb
 6813 0039 05       		.byte	0x5
 6814 003a 16       		.uleb128 0x16
 6815 003b 02010000 		.4byte	.LASF351
 6816              		.file 12 "/usr/local/Cellar/gcc-arm-none-eabi/20160928/arm-none-eabi/include/_newlib_version.h"
 6817 003f 03       		.byte	0x3
 6818 0040 1C       		.uleb128 0x1c
 6819 0041 0C       		.uleb128 0xc
ARM GAS  /var/folders/z0/6xlwn_996xz3mwq1cgzkbq4r0000gp/T//cc0Pdjko.s 			page 140


 6820 0042 07       		.byte	0x7
 6821 0043 00000000 		.4byte	.Ldebug_macro2
 6822 0047 04       		.byte	0x4
 6823 0048 07       		.byte	0x7
 6824 0049 00000000 		.4byte	.Ldebug_macro3
 6825 004d 04       		.byte	0x4
 6826 004e 07       		.byte	0x7
 6827 004f 00000000 		.4byte	.Ldebug_macro4
 6828 0053 04       		.byte	0x4
 6829              		.file 13 "/usr/local/Cellar/gcc-arm-none-eabi/20160928/arm-none-eabi/include/sys/_intsup.h"
 6830 0054 03       		.byte	0x3
 6831 0055 0D       		.uleb128 0xd
 6832 0056 0D       		.uleb128 0xd
 6833 0057 07       		.byte	0x7
 6834 0058 00000000 		.4byte	.Ldebug_macro5
 6835 005c 04       		.byte	0x4
 6836 005d 03       		.byte	0x3
 6837 005e 0E       		.uleb128 0xe
 6838 005f 04       		.uleb128 0x4
 6839 0060 07       		.byte	0x7
 6840 0061 00000000 		.4byte	.Ldebug_macro6
 6841 0065 04       		.byte	0x4
 6842 0066 07       		.byte	0x7
 6843 0067 00000000 		.4byte	.Ldebug_macro7
 6844 006b 04       		.byte	0x4
 6845 006c 05       		.byte	0x5
 6846 006d 0D       		.uleb128 0xd
 6847 006e F0670000 		.4byte	.LASF501
 6848 0072 04       		.byte	0x4
 6849              		.file 14 "/usr/local/Cellar/gcc-arm-none-eabi/20160928/lib/gcc/arm-none-eabi/5.4.1/include/stdbool
 6850 0073 03       		.byte	0x3
 6851 0074 24       		.uleb128 0x24
 6852 0075 0E       		.uleb128 0xe
 6853 0076 07       		.byte	0x7
 6854 0077 00000000 		.4byte	.Ldebug_macro8
 6855 007b 04       		.byte	0x4
 6856 007c 07       		.byte	0x7
 6857 007d 00000000 		.4byte	.Ldebug_macro9
 6858 0081 04       		.byte	0x4
 6859              		.file 15 "../../lib/lpc11cx4-library/lpc_chip_11cxx_lib/inc/sys_config.h"
 6860 0082 03       		.byte	0x3
 6861 0083 21       		.uleb128 0x21
 6862 0084 0F       		.uleb128 0xf
 6863 0085 07       		.byte	0x7
 6864 0086 00000000 		.4byte	.Ldebug_macro10
 6865 008a 04       		.byte	0x4
 6866              		.file 16 "../../lib/lpc11cx4-library/lpc_chip_11cxx_lib/inc/cmsis.h"
 6867 008b 03       		.byte	0x3
 6868 008c 22       		.uleb128 0x22
 6869 008d 10       		.uleb128 0x10
 6870 008e 05       		.byte	0x5
 6871 008f 1E       		.uleb128 0x1e
 6872 0090 4F500000 		.4byte	.LASF525
 6873              		.file 17 "../../lib/lpc11cx4-library/lpc_chip_11cxx_lib/inc/cmsis_11cxx.h"
 6874 0094 03       		.byte	0x3
 6875 0095 2E       		.uleb128 0x2e
 6876 0096 11       		.uleb128 0x11
ARM GAS  /var/folders/z0/6xlwn_996xz3mwq1cgzkbq4r0000gp/T//cc0Pdjko.s 			page 141


 6877 0097 07       		.byte	0x7
 6878 0098 00000000 		.4byte	.Ldebug_macro11
 6879 009c 04       		.byte	0x4
 6880              		.file 18 "../../lib/lpc11cx4-library/lpc_chip_11cxx_lib/inc/core_cm0.h"
 6881 009d 03       		.byte	0x3
 6882 009e 3E       		.uleb128 0x3e
 6883 009f 12       		.uleb128 0x12
 6884 00a0 07       		.byte	0x7
 6885 00a1 00000000 		.4byte	.Ldebug_macro12
 6886              		.file 19 "../../lib/lpc11cx4-library/lpc_chip_11cxx_lib/inc/core_cmInstr.h"
 6887 00a5 03       		.byte	0x3
 6888 00a6 70       		.uleb128 0x70
 6889 00a7 13       		.uleb128 0x13
 6890 00a8 05       		.byte	0x5
 6891 00a9 19       		.uleb128 0x19
 6892 00aa 251D0000 		.4byte	.LASF539
 6893 00ae 04       		.byte	0x4
 6894              		.file 20 "../../lib/lpc11cx4-library/lpc_chip_11cxx_lib/inc/core_cmFunc.h"
 6895 00af 03       		.byte	0x3
 6896 00b0 71       		.uleb128 0x71
 6897 00b1 14       		.uleb128 0x14
 6898 00b2 05       		.byte	0x5
 6899 00b3 19       		.uleb128 0x19
 6900 00b4 8C720000 		.4byte	.LASF540
 6901 00b8 04       		.byte	0x4
 6902 00b9 07       		.byte	0x7
 6903 00ba 00000000 		.4byte	.Ldebug_macro13
 6904 00be 04       		.byte	0x4
 6905 00bf 04       		.byte	0x4
 6906 00c0 07       		.byte	0x7
 6907 00c1 00000000 		.4byte	.Ldebug_macro14
 6908              		.file 21 "../../lib/lpc11cx4-library/lpc_chip_11cxx_lib/inc/pmu_11xx.h"
 6909 00c5 03       		.byte	0x3
 6910 00c6 E901     		.uleb128 0xe9
 6911 00c8 15       		.uleb128 0x15
 6912 00c9 07       		.byte	0x7
 6913 00ca 00000000 		.4byte	.Ldebug_macro15
 6914 00ce 04       		.byte	0x4
 6915              		.file 22 "../../lib/lpc11cx4-library/lpc_chip_11cxx_lib/inc/fmc_11xx.h"
 6916 00cf 03       		.byte	0x3
 6917 00d0 EA01     		.uleb128 0xea
 6918 00d2 16       		.uleb128 0x16
 6919 00d3 05       		.byte	0x5
 6920 00d4 21       		.uleb128 0x21
 6921 00d5 176A0000 		.4byte	.LASF670
 6922 00d9 04       		.byte	0x4
 6923 00da 03       		.byte	0x3
 6924 00db EB01     		.uleb128 0xeb
 6925 00dd 05       		.uleb128 0x5
 6926 00de 07       		.byte	0x7
 6927 00df 00000000 		.4byte	.Ldebug_macro16
 6928 00e3 04       		.byte	0x4
 6929 00e4 03       		.byte	0x3
 6930 00e5 EC01     		.uleb128 0xec
 6931 00e7 02       		.uleb128 0x2
 6932 00e8 07       		.byte	0x7
 6933 00e9 00000000 		.4byte	.Ldebug_macro17
ARM GAS  /var/folders/z0/6xlwn_996xz3mwq1cgzkbq4r0000gp/T//cc0Pdjko.s 			page 142


 6934 00ed 04       		.byte	0x4
 6935              		.file 23 "../../lib/lpc11cx4-library/lpc_chip_11cxx_lib/inc/iocon_11xx.h"
 6936 00ee 03       		.byte	0x3
 6937 00ef ED01     		.uleb128 0xed
 6938 00f1 17       		.uleb128 0x17
 6939 00f2 07       		.byte	0x7
 6940 00f3 00000000 		.4byte	.Ldebug_macro18
 6941 00f7 04       		.byte	0x4
 6942              		.file 24 "../../lib/lpc11cx4-library/lpc_chip_11cxx_lib/inc/timer_11xx.h"
 6943 00f8 03       		.byte	0x3
 6944 00f9 EE01     		.uleb128 0xee
 6945 00fb 18       		.uleb128 0x18
 6946 00fc 07       		.byte	0x7
 6947 00fd 00000000 		.4byte	.Ldebug_macro19
 6948 0101 04       		.byte	0x4
 6949              		.file 25 "../../lib/lpc11cx4-library/lpc_chip_11cxx_lib/inc/uart_11xx.h"
 6950 0102 03       		.byte	0x3
 6951 0103 EF01     		.uleb128 0xef
 6952 0105 19       		.uleb128 0x19
 6953 0106 05       		.byte	0x5
 6954 0107 21       		.uleb128 0x21
 6955 0108 A0240000 		.4byte	.LASF754
 6956              		.file 26 "../../lib/lpc11cx4-library/lpc_chip_11cxx_lib/inc/ring_buffer.h"
 6957 010c 03       		.byte	0x3
 6958 010d 23       		.uleb128 0x23
 6959 010e 1A       		.uleb128 0x1a
 6960 010f 07       		.byte	0x7
 6961 0110 00000000 		.4byte	.Ldebug_macro20
 6962 0114 04       		.byte	0x4
 6963 0115 07       		.byte	0x7
 6964 0116 00000000 		.4byte	.Ldebug_macro21
 6965 011a 04       		.byte	0x4
 6966              		.file 27 "../../lib/lpc11cx4-library/lpc_chip_11cxx_lib/inc/wwdt_11xx.h"
 6967 011b 03       		.byte	0x3
 6968 011c F001     		.uleb128 0xf0
 6969 011e 1B       		.uleb128 0x1b
 6970 011f 07       		.byte	0x7
 6971 0120 00000000 		.4byte	.Ldebug_macro22
 6972 0124 04       		.byte	0x4
 6973              		.file 28 "../../lib/lpc11cx4-library/lpc_chip_11cxx_lib/inc/ssp_11xx.h"
 6974 0125 03       		.byte	0x3
 6975 0126 F101     		.uleb128 0xf1
 6976 0128 1C       		.uleb128 0x1c
 6977 0129 07       		.byte	0x7
 6978 012a 00000000 		.4byte	.Ldebug_macro23
 6979 012e 04       		.byte	0x4
 6980              		.file 29 "../../lib/lpc11cx4-library/lpc_chip_11cxx_lib/inc/romapi_11xx.h"
 6981 012f 03       		.byte	0x3
 6982 0130 F201     		.uleb128 0xf2
 6983 0132 1D       		.uleb128 0x1d
 6984 0133 05       		.byte	0x5
 6985 0134 21       		.uleb128 0x21
 6986 0135 832D0000 		.4byte	.LASF907
 6987              		.file 30 "../../lib/lpc11cx4-library/lpc_chip_11cxx_lib/inc/error.h"
 6988 0139 03       		.byte	0x3
 6989 013a 23       		.uleb128 0x23
 6990 013b 1E       		.uleb128 0x1e
ARM GAS  /var/folders/z0/6xlwn_996xz3mwq1cgzkbq4r0000gp/T//cc0Pdjko.s 			page 143


 6991 013c 07       		.byte	0x7
 6992 013d 00000000 		.4byte	.Ldebug_macro24
 6993 0141 04       		.byte	0x4
 6994 0142 04       		.byte	0x4
 6995              		.file 31 "../../lib/lpc11cx4-library/lpc_chip_11cxx_lib/inc/adc_11xx.h"
 6996 0143 03       		.byte	0x3
 6997 0144 F601     		.uleb128 0xf6
 6998 0146 1F       		.uleb128 0x1f
 6999 0147 07       		.byte	0x7
 7000 0148 00000000 		.4byte	.Ldebug_macro25
 7001 014c 04       		.byte	0x4
 7002              		.file 32 "../../lib/lpc11cx4-library/lpc_chip_11cxx_lib/inc/gpio_11xx_2.h"
 7003 014d 03       		.byte	0x3
 7004 014e FF01     		.uleb128 0xff
 7005 0150 20       		.uleb128 0x20
 7006 0151 05       		.byte	0x5
 7007 0152 22       		.uleb128 0x22
 7008 0153 4D380000 		.4byte	.LASF930
 7009 0157 04       		.byte	0x4
 7010 0158 03       		.byte	0x3
 7011 0159 8C02     		.uleb128 0x10c
 7012 015b 06       		.uleb128 0x6
 7013 015c 07       		.byte	0x7
 7014 015d 00000000 		.4byte	.Ldebug_macro26
 7015 0161 04       		.byte	0x4
 7016              		.file 33 "../../lib/lpc11cx4-library/lpc_chip_11cxx_lib/inc/ccand_11xx.h"
 7017 0162 03       		.byte	0x3
 7018 0163 8F02     		.uleb128 0x10f
 7019 0165 21       		.uleb128 0x21
 7020 0166 07       		.byte	0x7
 7021 0167 00000000 		.4byte	.Ldebug_macro27
 7022 016b 04       		.byte	0x4
 7023 016c 04       		.byte	0x4
 7024 016d 05       		.byte	0x5
 7025 016e 29       		.uleb128 0x29
 7026 016f DA740000 		.4byte	.LASF1055
 7027 0173 05       		.byte	0x5
 7028 0174 2A       		.uleb128 0x2a
 7029 0175 33210000 		.4byte	.LASF1056
 7030 0179 05       		.byte	0x5
 7031 017a 2B       		.uleb128 0x2b
 7032 017b C0580000 		.4byte	.LASF1057
 7033 017f 04       		.byte	0x4
 7034 0180 00       		.byte	0
 7035              		.section	.debug_macro,"G",%progbits,wm4.0.875846967d3f9b39cda0d496d1540481,comdat
 7036              	.Ldebug_macro1:
 7037 0000 0400     		.2byte	0x4
 7038 0002 00       		.byte	0
 7039 0003 05       		.byte	0x5
 7040 0004 00       		.uleb128 0
 7041 0005 4F4C0000 		.4byte	.LASF0
 7042 0009 05       		.byte	0x5
 7043 000a 00       		.uleb128 0
 7044 000b EE090000 		.4byte	.LASF1
 7045 000f 05       		.byte	0x5
 7046 0010 00       		.uleb128 0
 7047 0011 F74D0000 		.4byte	.LASF2
ARM GAS  /var/folders/z0/6xlwn_996xz3mwq1cgzkbq4r0000gp/T//cc0Pdjko.s 			page 144


 7048 0015 05       		.byte	0x5
 7049 0016 00       		.uleb128 0
 7050 0017 07620000 		.4byte	.LASF3
 7051 001b 05       		.byte	0x5
 7052 001c 00       		.uleb128 0
 7053 001d C51B0000 		.4byte	.LASF4
 7054 0021 05       		.byte	0x5
 7055 0022 00       		.uleb128 0
 7056 0023 D32D0000 		.4byte	.LASF5
 7057 0027 05       		.byte	0x5
 7058 0028 00       		.uleb128 0
 7059 0029 EC690000 		.4byte	.LASF6
 7060 002d 05       		.byte	0x5
 7061 002e 00       		.uleb128 0
 7062 002f 811E0000 		.4byte	.LASF7
 7063 0033 05       		.byte	0x5
 7064 0034 00       		.uleb128 0
 7065 0035 3C580000 		.4byte	.LASF8
 7066 0039 05       		.byte	0x5
 7067 003a 00       		.uleb128 0
 7068 003b 443B0000 		.4byte	.LASF9
 7069 003f 05       		.byte	0x5
 7070 0040 00       		.uleb128 0
 7071 0041 E07B0000 		.4byte	.LASF10
 7072 0045 05       		.byte	0x5
 7073 0046 00       		.uleb128 0
 7074 0047 30030000 		.4byte	.LASF11
 7075 004b 05       		.byte	0x5
 7076 004c 00       		.uleb128 0
 7077 004d 163C0000 		.4byte	.LASF12
 7078 0051 05       		.byte	0x5
 7079 0052 00       		.uleb128 0
 7080 0053 815C0000 		.4byte	.LASF13
 7081 0057 05       		.byte	0x5
 7082 0058 00       		.uleb128 0
 7083 0059 AC720000 		.4byte	.LASF14
 7084 005d 05       		.byte	0x5
 7085 005e 00       		.uleb128 0
 7086 005f 6B170000 		.4byte	.LASF15
 7087 0063 05       		.byte	0x5
 7088 0064 00       		.uleb128 0
 7089 0065 93040000 		.4byte	.LASF16
 7090 0069 05       		.byte	0x5
 7091 006a 00       		.uleb128 0
 7092 006b FC5C0000 		.4byte	.LASF17
 7093 006f 05       		.byte	0x5
 7094 0070 00       		.uleb128 0
 7095 0071 2A6B0000 		.4byte	.LASF18
 7096 0075 05       		.byte	0x5
 7097 0076 00       		.uleb128 0
 7098 0077 B1170000 		.4byte	.LASF19
 7099 007b 05       		.byte	0x5
 7100 007c 00       		.uleb128 0
 7101 007d 22220000 		.4byte	.LASF20
 7102 0081 05       		.byte	0x5
 7103 0082 00       		.uleb128 0
 7104 0083 F0660000 		.4byte	.LASF21
ARM GAS  /var/folders/z0/6xlwn_996xz3mwq1cgzkbq4r0000gp/T//cc0Pdjko.s 			page 145


 7105 0087 05       		.byte	0x5
 7106 0088 00       		.uleb128 0
 7107 0089 28430000 		.4byte	.LASF22
 7108 008d 05       		.byte	0x5
 7109 008e 00       		.uleb128 0
 7110 008f 69510000 		.4byte	.LASF23
 7111 0093 05       		.byte	0x5
 7112 0094 00       		.uleb128 0
 7113 0095 F1580000 		.4byte	.LASF24
 7114 0099 05       		.byte	0x5
 7115 009a 00       		.uleb128 0
 7116 009b E40D0000 		.4byte	.LASF25
 7117 009f 05       		.byte	0x5
 7118 00a0 00       		.uleb128 0
 7119 00a1 F6050000 		.4byte	.LASF26
 7120 00a5 05       		.byte	0x5
 7121 00a6 00       		.uleb128 0
 7122 00a7 47450000 		.4byte	.LASF27
 7123 00ab 05       		.byte	0x5
 7124 00ac 00       		.uleb128 0
 7125 00ad 3D240000 		.4byte	.LASF28
 7126 00b1 05       		.byte	0x5
 7127 00b2 00       		.uleb128 0
 7128 00b3 61150000 		.4byte	.LASF29
 7129 00b7 05       		.byte	0x5
 7130 00b8 00       		.uleb128 0
 7131 00b9 097A0000 		.4byte	.LASF30
 7132 00bd 05       		.byte	0x5
 7133 00be 00       		.uleb128 0
 7134 00bf D1590000 		.4byte	.LASF31
 7135 00c3 05       		.byte	0x5
 7136 00c4 00       		.uleb128 0
 7137 00c5 87220000 		.4byte	.LASF32
 7138 00c9 05       		.byte	0x5
 7139 00ca 00       		.uleb128 0
 7140 00cb 0E470000 		.4byte	.LASF33
 7141 00cf 05       		.byte	0x5
 7142 00d0 00       		.uleb128 0
 7143 00d1 61620000 		.4byte	.LASF34
 7144 00d5 05       		.byte	0x5
 7145 00d6 00       		.uleb128 0
 7146 00d7 B0490000 		.4byte	.LASF35
 7147 00db 05       		.byte	0x5
 7148 00dc 00       		.uleb128 0
 7149 00dd A2650000 		.4byte	.LASF36
 7150 00e1 05       		.byte	0x5
 7151 00e2 00       		.uleb128 0
 7152 00e3 D2160000 		.4byte	.LASF37
 7153 00e7 05       		.byte	0x5
 7154 00e8 00       		.uleb128 0
 7155 00e9 C6390000 		.4byte	.LASF38
 7156 00ed 05       		.byte	0x5
 7157 00ee 00       		.uleb128 0
 7158 00ef 90060000 		.4byte	.LASF39
 7159 00f3 05       		.byte	0x5
 7160 00f4 00       		.uleb128 0
 7161 00f5 0F080000 		.4byte	.LASF40
ARM GAS  /var/folders/z0/6xlwn_996xz3mwq1cgzkbq4r0000gp/T//cc0Pdjko.s 			page 146


 7162 00f9 05       		.byte	0x5
 7163 00fa 00       		.uleb128 0
 7164 00fb F37B0000 		.4byte	.LASF41
 7165 00ff 05       		.byte	0x5
 7166 0100 00       		.uleb128 0
 7167 0101 F8420000 		.4byte	.LASF42
 7168 0105 05       		.byte	0x5
 7169 0106 00       		.uleb128 0
 7170 0107 AB4C0000 		.4byte	.LASF43
 7171 010b 05       		.byte	0x5
 7172 010c 00       		.uleb128 0
 7173 010d 66370000 		.4byte	.LASF44
 7174 0111 05       		.byte	0x5
 7175 0112 00       		.uleb128 0
 7176 0113 62710000 		.4byte	.LASF45
 7177 0117 05       		.byte	0x5
 7178 0118 00       		.uleb128 0
 7179 0119 39670000 		.4byte	.LASF46
 7180 011d 05       		.byte	0x5
 7181 011e 00       		.uleb128 0
 7182 011f 76150000 		.4byte	.LASF47
 7183 0123 05       		.byte	0x5
 7184 0124 00       		.uleb128 0
 7185 0125 4A760000 		.4byte	.LASF48
 7186 0129 05       		.byte	0x5
 7187 012a 00       		.uleb128 0
 7188 012b 3F570000 		.4byte	.LASF49
 7189 012f 05       		.byte	0x5
 7190 0130 00       		.uleb128 0
 7191 0131 F47D0000 		.4byte	.LASF50
 7192 0135 05       		.byte	0x5
 7193 0136 00       		.uleb128 0
 7194 0137 AB120000 		.4byte	.LASF51
 7195 013b 05       		.byte	0x5
 7196 013c 00       		.uleb128 0
 7197 013d 1C5B0000 		.4byte	.LASF52
 7198 0141 05       		.byte	0x5
 7199 0142 00       		.uleb128 0
 7200 0143 18620000 		.4byte	.LASF53
 7201 0147 05       		.byte	0x5
 7202 0148 00       		.uleb128 0
 7203 0149 683A0000 		.4byte	.LASF54
 7204 014d 05       		.byte	0x5
 7205 014e 00       		.uleb128 0
 7206 014f DF140000 		.4byte	.LASF55
 7207 0153 05       		.byte	0x5
 7208 0154 00       		.uleb128 0
 7209 0155 A05A0000 		.4byte	.LASF56
 7210 0159 05       		.byte	0x5
 7211 015a 00       		.uleb128 0
 7212 015b 943B0000 		.4byte	.LASF57
 7213 015f 05       		.byte	0x5
 7214 0160 00       		.uleb128 0
 7215 0161 390A0000 		.4byte	.LASF58
 7216 0165 05       		.byte	0x5
 7217 0166 00       		.uleb128 0
 7218 0167 75380000 		.4byte	.LASF59
ARM GAS  /var/folders/z0/6xlwn_996xz3mwq1cgzkbq4r0000gp/T//cc0Pdjko.s 			page 147


 7219 016b 05       		.byte	0x5
 7220 016c 00       		.uleb128 0
 7221 016d 22740000 		.4byte	.LASF60
 7222 0171 05       		.byte	0x5
 7223 0172 00       		.uleb128 0
 7224 0173 7E5A0000 		.4byte	.LASF61
 7225 0177 05       		.byte	0x5
 7226 0178 00       		.uleb128 0
 7227 0179 5C230000 		.4byte	.LASF62
 7228 017d 05       		.byte	0x5
 7229 017e 00       		.uleb128 0
 7230 017f 8E650000 		.4byte	.LASF63
 7231 0183 05       		.byte	0x5
 7232 0184 00       		.uleb128 0
 7233 0185 C5650000 		.4byte	.LASF64
 7234 0189 05       		.byte	0x5
 7235 018a 00       		.uleb128 0
 7236 018b E1340000 		.4byte	.LASF65
 7237 018f 05       		.byte	0x5
 7238 0190 00       		.uleb128 0
 7239 0191 DC280000 		.4byte	.LASF66
 7240 0195 05       		.byte	0x5
 7241 0196 00       		.uleb128 0
 7242 0197 AC230000 		.4byte	.LASF67
 7243 019b 05       		.byte	0x5
 7244 019c 00       		.uleb128 0
 7245 019d 494A0000 		.4byte	.LASF68
 7246 01a1 05       		.byte	0x5
 7247 01a2 00       		.uleb128 0
 7248 01a3 81590000 		.4byte	.LASF69
 7249 01a7 05       		.byte	0x5
 7250 01a8 00       		.uleb128 0
 7251 01a9 DD7D0000 		.4byte	.LASF70
 7252 01ad 05       		.byte	0x5
 7253 01ae 00       		.uleb128 0
 7254 01af 0B790000 		.4byte	.LASF71
 7255 01b3 05       		.byte	0x5
 7256 01b4 00       		.uleb128 0
 7257 01b5 62530000 		.4byte	.LASF72
 7258 01b9 05       		.byte	0x5
 7259 01ba 00       		.uleb128 0
 7260 01bb 61030000 		.4byte	.LASF73
 7261 01bf 05       		.byte	0x5
 7262 01c0 00       		.uleb128 0
 7263 01c1 143F0000 		.4byte	.LASF74
 7264 01c5 05       		.byte	0x5
 7265 01c6 00       		.uleb128 0
 7266 01c7 17760000 		.4byte	.LASF75
 7267 01cb 05       		.byte	0x5
 7268 01cc 00       		.uleb128 0
 7269 01cd 91750000 		.4byte	.LASF76
 7270 01d1 05       		.byte	0x5
 7271 01d2 00       		.uleb128 0
 7272 01d3 FE010000 		.4byte	.LASF77
 7273 01d7 05       		.byte	0x5
 7274 01d8 00       		.uleb128 0
 7275 01d9 51780000 		.4byte	.LASF78
ARM GAS  /var/folders/z0/6xlwn_996xz3mwq1cgzkbq4r0000gp/T//cc0Pdjko.s 			page 148


 7276 01dd 05       		.byte	0x5
 7277 01de 00       		.uleb128 0
 7278 01df 58020000 		.4byte	.LASF79
 7279 01e3 05       		.byte	0x5
 7280 01e4 00       		.uleb128 0
 7281 01e5 5B420000 		.4byte	.LASF80
 7282 01e9 05       		.byte	0x5
 7283 01ea 00       		.uleb128 0
 7284 01eb 677D0000 		.4byte	.LASF81
 7285 01ef 05       		.byte	0x5
 7286 01f0 00       		.uleb128 0
 7287 01f1 49150000 		.4byte	.LASF82
 7288 01f5 05       		.byte	0x5
 7289 01f6 00       		.uleb128 0
 7290 01f7 6E6A0000 		.4byte	.LASF83
 7291 01fb 05       		.byte	0x5
 7292 01fc 00       		.uleb128 0
 7293 01fd 082F0000 		.4byte	.LASF84
 7294 0201 05       		.byte	0x5
 7295 0202 00       		.uleb128 0
 7296 0203 27360000 		.4byte	.LASF85
 7297 0207 05       		.byte	0x5
 7298 0208 00       		.uleb128 0
 7299 0209 A76C0000 		.4byte	.LASF86
 7300 020d 05       		.byte	0x5
 7301 020e 00       		.uleb128 0
 7302 020f 40390000 		.4byte	.LASF87
 7303 0213 05       		.byte	0x5
 7304 0214 00       		.uleb128 0
 7305 0215 273D0000 		.4byte	.LASF88
 7306 0219 05       		.byte	0x5
 7307 021a 00       		.uleb128 0
 7308 021b 0D260000 		.4byte	.LASF89
 7309 021f 05       		.byte	0x5
 7310 0220 00       		.uleb128 0
 7311 0221 F11F0000 		.4byte	.LASF90
 7312 0225 05       		.byte	0x5
 7313 0226 00       		.uleb128 0
 7314 0227 6A330000 		.4byte	.LASF91
 7315 022b 05       		.byte	0x5
 7316 022c 00       		.uleb128 0
 7317 022d DB320000 		.4byte	.LASF92
 7318 0231 05       		.byte	0x5
 7319 0232 00       		.uleb128 0
 7320 0233 682E0000 		.4byte	.LASF93
 7321 0237 05       		.byte	0x5
 7322 0238 00       		.uleb128 0
 7323 0239 46540000 		.4byte	.LASF94
 7324 023d 05       		.byte	0x5
 7325 023e 00       		.uleb128 0
 7326 023f 1B280000 		.4byte	.LASF95
 7327 0243 05       		.byte	0x5
 7328 0244 00       		.uleb128 0
 7329 0245 167B0000 		.4byte	.LASF96
 7330 0249 05       		.byte	0x5
 7331 024a 00       		.uleb128 0
 7332 024b 896F0000 		.4byte	.LASF97
ARM GAS  /var/folders/z0/6xlwn_996xz3mwq1cgzkbq4r0000gp/T//cc0Pdjko.s 			page 149


 7333 024f 05       		.byte	0x5
 7334 0250 00       		.uleb128 0
 7335 0251 48250000 		.4byte	.LASF98
 7336 0255 05       		.byte	0x5
 7337 0256 00       		.uleb128 0
 7338 0257 364D0000 		.4byte	.LASF99
 7339 025b 05       		.byte	0x5
 7340 025c 00       		.uleb128 0
 7341 025d 79670000 		.4byte	.LASF100
 7342 0261 05       		.byte	0x5
 7343 0262 00       		.uleb128 0
 7344 0263 352F0000 		.4byte	.LASF101
 7345 0267 05       		.byte	0x5
 7346 0268 00       		.uleb128 0
 7347 0269 00080000 		.4byte	.LASF102
 7348 026d 05       		.byte	0x5
 7349 026e 00       		.uleb128 0
 7350 026f 141C0000 		.4byte	.LASF103
 7351 0273 05       		.byte	0x5
 7352 0274 00       		.uleb128 0
 7353 0275 3A690000 		.4byte	.LASF104
 7354 0279 05       		.byte	0x5
 7355 027a 00       		.uleb128 0
 7356 027b 2B350000 		.4byte	.LASF105
 7357 027f 05       		.byte	0x5
 7358 0280 00       		.uleb128 0
 7359 0281 5B290000 		.4byte	.LASF106
 7360 0285 05       		.byte	0x5
 7361 0286 00       		.uleb128 0
 7362 0287 E7570000 		.4byte	.LASF107
 7363 028b 05       		.byte	0x5
 7364 028c 00       		.uleb128 0
 7365 028d F3560000 		.4byte	.LASF108
 7366 0291 05       		.byte	0x5
 7367 0292 00       		.uleb128 0
 7368 0293 30700000 		.4byte	.LASF109
 7369 0297 05       		.byte	0x5
 7370 0298 00       		.uleb128 0
 7371 0299 985C0000 		.4byte	.LASF110
 7372 029d 05       		.byte	0x5
 7373 029e 00       		.uleb128 0
 7374 029f 631E0000 		.4byte	.LASF111
 7375 02a3 05       		.byte	0x5
 7376 02a4 00       		.uleb128 0
 7377 02a5 E7130000 		.4byte	.LASF112
 7378 02a9 05       		.byte	0x5
 7379 02aa 00       		.uleb128 0
 7380 02ab 490F0000 		.4byte	.LASF113
 7381 02af 05       		.byte	0x5
 7382 02b0 00       		.uleb128 0
 7383 02b1 84690000 		.4byte	.LASF114
 7384 02b5 05       		.byte	0x5
 7385 02b6 00       		.uleb128 0
 7386 02b7 37170000 		.4byte	.LASF115
 7387 02bb 05       		.byte	0x5
 7388 02bc 00       		.uleb128 0
 7389 02bd 12580000 		.4byte	.LASF116
ARM GAS  /var/folders/z0/6xlwn_996xz3mwq1cgzkbq4r0000gp/T//cc0Pdjko.s 			page 150


 7390 02c1 05       		.byte	0x5
 7391 02c2 00       		.uleb128 0
 7392 02c3 D2100000 		.4byte	.LASF117
 7393 02c7 05       		.byte	0x5
 7394 02c8 00       		.uleb128 0
 7395 02c9 3A3A0000 		.4byte	.LASF118
 7396 02cd 05       		.byte	0x5
 7397 02ce 00       		.uleb128 0
 7398 02cf 251E0000 		.4byte	.LASF119
 7399 02d3 05       		.byte	0x5
 7400 02d4 00       		.uleb128 0
 7401 02d5 F8360000 		.4byte	.LASF120
 7402 02d9 05       		.byte	0x5
 7403 02da 00       		.uleb128 0
 7404 02db 1D4A0000 		.4byte	.LASF121
 7405 02df 05       		.byte	0x5
 7406 02e0 00       		.uleb128 0
 7407 02e1 C8480000 		.4byte	.LASF122
 7408 02e5 05       		.byte	0x5
 7409 02e6 00       		.uleb128 0
 7410 02e7 C33F0000 		.4byte	.LASF123
 7411 02eb 05       		.byte	0x5
 7412 02ec 00       		.uleb128 0
 7413 02ed 633B0000 		.4byte	.LASF124
 7414 02f1 05       		.byte	0x5
 7415 02f2 00       		.uleb128 0
 7416 02f3 A2490000 		.4byte	.LASF125
 7417 02f7 05       		.byte	0x5
 7418 02f8 00       		.uleb128 0
 7419 02f9 B1480000 		.4byte	.LASF126
 7420 02fd 05       		.byte	0x5
 7421 02fe 00       		.uleb128 0
 7422 02ff B1190000 		.4byte	.LASF127
 7423 0303 05       		.byte	0x5
 7424 0304 00       		.uleb128 0
 7425 0305 57170000 		.4byte	.LASF128
 7426 0309 05       		.byte	0x5
 7427 030a 00       		.uleb128 0
 7428 030b AA610000 		.4byte	.LASF129
 7429 030f 05       		.byte	0x5
 7430 0310 00       		.uleb128 0
 7431 0311 221A0000 		.4byte	.LASF130
 7432 0315 05       		.byte	0x5
 7433 0316 00       		.uleb128 0
 7434 0317 913E0000 		.4byte	.LASF131
 7435 031b 05       		.byte	0x5
 7436 031c 00       		.uleb128 0
 7437 031d DD230000 		.4byte	.LASF132
 7438 0321 05       		.byte	0x5
 7439 0322 00       		.uleb128 0
 7440 0323 1C2A0000 		.4byte	.LASF133
 7441 0327 05       		.byte	0x5
 7442 0328 00       		.uleb128 0
 7443 0329 74280000 		.4byte	.LASF134
 7444 032d 05       		.byte	0x5
 7445 032e 00       		.uleb128 0
 7446 032f 7B060000 		.4byte	.LASF135
ARM GAS  /var/folders/z0/6xlwn_996xz3mwq1cgzkbq4r0000gp/T//cc0Pdjko.s 			page 151


 7447 0333 05       		.byte	0x5
 7448 0334 00       		.uleb128 0
 7449 0335 BC350000 		.4byte	.LASF136
 7450 0339 05       		.byte	0x5
 7451 033a 00       		.uleb128 0
 7452 033b 961B0000 		.4byte	.LASF137
 7453 033f 05       		.byte	0x5
 7454 0340 00       		.uleb128 0
 7455 0341 6F0E0000 		.4byte	.LASF138
 7456 0345 05       		.byte	0x5
 7457 0346 00       		.uleb128 0
 7458 0347 26040000 		.4byte	.LASF139
 7459 034b 05       		.byte	0x5
 7460 034c 00       		.uleb128 0
 7461 034d 15550000 		.4byte	.LASF140
 7462 0351 05       		.byte	0x5
 7463 0352 00       		.uleb128 0
 7464 0353 167C0000 		.4byte	.LASF141
 7465 0357 05       		.byte	0x5
 7466 0358 00       		.uleb128 0
 7467 0359 213B0000 		.4byte	.LASF142
 7468 035d 05       		.byte	0x5
 7469 035e 00       		.uleb128 0
 7470 035f AA040000 		.4byte	.LASF143
 7471 0363 05       		.byte	0x5
 7472 0364 00       		.uleb128 0
 7473 0365 B76B0000 		.4byte	.LASF144
 7474 0369 05       		.byte	0x5
 7475 036a 00       		.uleb128 0
 7476 036b B4760000 		.4byte	.LASF145
 7477 036f 05       		.byte	0x5
 7478 0370 00       		.uleb128 0
 7479 0371 0F140000 		.4byte	.LASF146
 7480 0375 05       		.byte	0x5
 7481 0376 00       		.uleb128 0
 7482 0377 75350000 		.4byte	.LASF147
 7483 037b 05       		.byte	0x5
 7484 037c 00       		.uleb128 0
 7485 037d 66700000 		.4byte	.LASF148
 7486 0381 05       		.byte	0x5
 7487 0382 00       		.uleb128 0
 7488 0383 D5260000 		.4byte	.LASF149
 7489 0387 05       		.byte	0x5
 7490 0388 00       		.uleb128 0
 7491 0389 3F6A0000 		.4byte	.LASF150
 7492 038d 05       		.byte	0x5
 7493 038e 00       		.uleb128 0
 7494 038f AA630000 		.4byte	.LASF151
 7495 0393 05       		.byte	0x5
 7496 0394 00       		.uleb128 0
 7497 0395 89070000 		.4byte	.LASF152
 7498 0399 05       		.byte	0x5
 7499 039a 00       		.uleb128 0
 7500 039b 1E750000 		.4byte	.LASF153
 7501 039f 05       		.byte	0x5
 7502 03a0 00       		.uleb128 0
 7503 03a1 60070000 		.4byte	.LASF154
ARM GAS  /var/folders/z0/6xlwn_996xz3mwq1cgzkbq4r0000gp/T//cc0Pdjko.s 			page 152


 7504 03a5 05       		.byte	0x5
 7505 03a6 00       		.uleb128 0
 7506 03a7 744E0000 		.4byte	.LASF155
 7507 03ab 05       		.byte	0x5
 7508 03ac 00       		.uleb128 0
 7509 03ad 35260000 		.4byte	.LASF156
 7510 03b1 05       		.byte	0x5
 7511 03b2 00       		.uleb128 0
 7512 03b3 9A470000 		.4byte	.LASF157
 7513 03b7 05       		.byte	0x5
 7514 03b8 00       		.uleb128 0
 7515 03b9 42000000 		.4byte	.LASF158
 7516 03bd 05       		.byte	0x5
 7517 03be 00       		.uleb128 0
 7518 03bf 9D3F0000 		.4byte	.LASF159
 7519 03c3 05       		.byte	0x5
 7520 03c4 00       		.uleb128 0
 7521 03c5 26680000 		.4byte	.LASF160
 7522 03c9 05       		.byte	0x5
 7523 03ca 00       		.uleb128 0
 7524 03cb B13A0000 		.4byte	.LASF161
 7525 03cf 05       		.byte	0x5
 7526 03d0 00       		.uleb128 0
 7527 03d1 FA3C0000 		.4byte	.LASF162
 7528 03d5 05       		.byte	0x5
 7529 03d6 00       		.uleb128 0
 7530 03d7 81560000 		.4byte	.LASF163
 7531 03db 05       		.byte	0x5
 7532 03dc 00       		.uleb128 0
 7533 03dd 4B480000 		.4byte	.LASF164
 7534 03e1 05       		.byte	0x5
 7535 03e2 00       		.uleb128 0
 7536 03e3 DF110000 		.4byte	.LASF165
 7537 03e7 05       		.byte	0x5
 7538 03e8 00       		.uleb128 0
 7539 03e9 10510000 		.4byte	.LASF166
 7540 03ed 05       		.byte	0x5
 7541 03ee 00       		.uleb128 0
 7542 03ef 1D250000 		.4byte	.LASF167
 7543 03f3 05       		.byte	0x5
 7544 03f4 00       		.uleb128 0
 7545 03f5 C3370000 		.4byte	.LASF168
 7546 03f9 05       		.byte	0x5
 7547 03fa 00       		.uleb128 0
 7548 03fb 98050000 		.4byte	.LASF169
 7549 03ff 05       		.byte	0x5
 7550 0400 00       		.uleb128 0
 7551 0401 8F110000 		.4byte	.LASF170
 7552 0405 05       		.byte	0x5
 7553 0406 00       		.uleb128 0
 7554 0407 680F0000 		.4byte	.LASF171
 7555 040b 05       		.byte	0x5
 7556 040c 00       		.uleb128 0
 7557 040d 7C020000 		.4byte	.LASF172
 7558 0411 05       		.byte	0x5
 7559 0412 00       		.uleb128 0
 7560 0413 6D550000 		.4byte	.LASF173
ARM GAS  /var/folders/z0/6xlwn_996xz3mwq1cgzkbq4r0000gp/T//cc0Pdjko.s 			page 153


 7561 0417 05       		.byte	0x5
 7562 0418 00       		.uleb128 0
 7563 0419 934B0000 		.4byte	.LASF174
 7564 041d 05       		.byte	0x5
 7565 041e 00       		.uleb128 0
 7566 041f 24060000 		.4byte	.LASF175
 7567 0423 05       		.byte	0x5
 7568 0424 00       		.uleb128 0
 7569 0425 556B0000 		.4byte	.LASF176
 7570 0429 05       		.byte	0x5
 7571 042a 00       		.uleb128 0
 7572 042b 03190000 		.4byte	.LASF177
 7573 042f 05       		.byte	0x5
 7574 0430 00       		.uleb128 0
 7575 0431 C0750000 		.4byte	.LASF178
 7576 0435 05       		.byte	0x5
 7577 0436 00       		.uleb128 0
 7578 0437 A0310000 		.4byte	.LASF179
 7579 043b 05       		.byte	0x5
 7580 043c 00       		.uleb128 0
 7581 043d BD4D0000 		.4byte	.LASF180
 7582 0441 05       		.byte	0x5
 7583 0442 00       		.uleb128 0
 7584 0443 A5140000 		.4byte	.LASF181
 7585 0447 05       		.byte	0x5
 7586 0448 00       		.uleb128 0
 7587 0449 0D1E0000 		.4byte	.LASF182
 7588 044d 05       		.byte	0x5
 7589 044e 00       		.uleb128 0
 7590 044f 60670000 		.4byte	.LASF183
 7591 0453 05       		.byte	0x5
 7592 0454 00       		.uleb128 0
 7593 0455 003A0000 		.4byte	.LASF184
 7594 0459 05       		.byte	0x5
 7595 045a 00       		.uleb128 0
 7596 045b CD000000 		.4byte	.LASF185
 7597 045f 05       		.byte	0x5
 7598 0460 00       		.uleb128 0
 7599 0461 56660000 		.4byte	.LASF186
 7600 0465 05       		.byte	0x5
 7601 0466 00       		.uleb128 0
 7602 0467 8C010000 		.4byte	.LASF187
 7603 046b 05       		.byte	0x5
 7604 046c 00       		.uleb128 0
 7605 046d DE440000 		.4byte	.LASF188
 7606 0471 05       		.byte	0x5
 7607 0472 00       		.uleb128 0
 7608 0473 B3360000 		.4byte	.LASF189
 7609 0477 05       		.byte	0x5
 7610 0478 00       		.uleb128 0
 7611 0479 917A0000 		.4byte	.LASF190
 7612 047d 05       		.byte	0x5
 7613 047e 00       		.uleb128 0
 7614 047f A00D0000 		.4byte	.LASF191
 7615 0483 05       		.byte	0x5
 7616 0484 00       		.uleb128 0
 7617 0485 49320000 		.4byte	.LASF192
ARM GAS  /var/folders/z0/6xlwn_996xz3mwq1cgzkbq4r0000gp/T//cc0Pdjko.s 			page 154


 7618 0489 05       		.byte	0x5
 7619 048a 00       		.uleb128 0
 7620 048b 35250000 		.4byte	.LASF193
 7621 048f 05       		.byte	0x5
 7622 0490 00       		.uleb128 0
 7623 0491 CE250000 		.4byte	.LASF194
 7624 0495 05       		.byte	0x5
 7625 0496 00       		.uleb128 0
 7626 0497 620B0000 		.4byte	.LASF195
 7627 049b 05       		.byte	0x5
 7628 049c 00       		.uleb128 0
 7629 049d D1310000 		.4byte	.LASF196
 7630 04a1 05       		.byte	0x5
 7631 04a2 00       		.uleb128 0
 7632 04a3 7A1B0000 		.4byte	.LASF197
 7633 04a7 05       		.byte	0x5
 7634 04a8 00       		.uleb128 0
 7635 04a9 4D200000 		.4byte	.LASF198
 7636 04ad 05       		.byte	0x5
 7637 04ae 00       		.uleb128 0
 7638 04af F5040000 		.4byte	.LASF199
 7639 04b3 05       		.byte	0x5
 7640 04b4 00       		.uleb128 0
 7641 04b5 8A480000 		.4byte	.LASF200
 7642 04b9 05       		.byte	0x5
 7643 04ba 00       		.uleb128 0
 7644 04bb B7380000 		.4byte	.LASF201
 7645 04bf 05       		.byte	0x5
 7646 04c0 00       		.uleb128 0
 7647 04c1 27690000 		.4byte	.LASF202
 7648 04c5 05       		.byte	0x5
 7649 04c6 00       		.uleb128 0
 7650 04c7 E4530000 		.4byte	.LASF203
 7651 04cb 05       		.byte	0x5
 7652 04cc 00       		.uleb128 0
 7653 04cd AB110000 		.4byte	.LASF204
 7654 04d1 05       		.byte	0x5
 7655 04d2 00       		.uleb128 0
 7656 04d3 37440000 		.4byte	.LASF205
 7657 04d7 05       		.byte	0x5
 7658 04d8 00       		.uleb128 0
 7659 04d9 F73E0000 		.4byte	.LASF206
 7660 04dd 05       		.byte	0x5
 7661 04de 00       		.uleb128 0
 7662 04df 15430000 		.4byte	.LASF207
 7663 04e3 05       		.byte	0x5
 7664 04e4 00       		.uleb128 0
 7665 04e5 54540000 		.4byte	.LASF208
 7666 04e9 05       		.byte	0x5
 7667 04ea 00       		.uleb128 0
 7668 04eb 43030000 		.4byte	.LASF209
 7669 04ef 05       		.byte	0x5
 7670 04f0 00       		.uleb128 0
 7671 04f1 FA4B0000 		.4byte	.LASF210
 7672 04f5 05       		.byte	0x5
 7673 04f6 00       		.uleb128 0
 7674 04f7 054F0000 		.4byte	.LASF211
ARM GAS  /var/folders/z0/6xlwn_996xz3mwq1cgzkbq4r0000gp/T//cc0Pdjko.s 			page 155


 7675 04fb 05       		.byte	0x5
 7676 04fc 00       		.uleb128 0
 7677 04fd B30C0000 		.4byte	.LASF212
 7678 0501 05       		.byte	0x5
 7679 0502 00       		.uleb128 0
 7680 0503 9E7D0000 		.4byte	.LASF213
 7681 0507 05       		.byte	0x5
 7682 0508 00       		.uleb128 0
 7683 0509 CF5D0000 		.4byte	.LASF214
 7684 050d 05       		.byte	0x5
 7685 050e 00       		.uleb128 0
 7686 050f 956B0000 		.4byte	.LASF215
 7687 0513 05       		.byte	0x5
 7688 0514 00       		.uleb128 0
 7689 0515 A5660000 		.4byte	.LASF216
 7690 0519 05       		.byte	0x5
 7691 051a 00       		.uleb128 0
 7692 051b F6760000 		.4byte	.LASF217
 7693 051f 05       		.byte	0x5
 7694 0520 00       		.uleb128 0
 7695 0521 BD720000 		.4byte	.LASF218
 7696 0525 05       		.byte	0x5
 7697 0526 00       		.uleb128 0
 7698 0527 A96F0000 		.4byte	.LASF219
 7699 052b 05       		.byte	0x5
 7700 052c 00       		.uleb128 0
 7701 052d 0F640000 		.4byte	.LASF220
 7702 0531 05       		.byte	0x5
 7703 0532 00       		.uleb128 0
 7704 0533 3A600000 		.4byte	.LASF221
 7705 0537 05       		.byte	0x5
 7706 0538 00       		.uleb128 0
 7707 0539 000A0000 		.4byte	.LASF222
 7708 053d 05       		.byte	0x5
 7709 053e 00       		.uleb128 0
 7710 053f 693D0000 		.4byte	.LASF223
 7711 0543 05       		.byte	0x5
 7712 0544 00       		.uleb128 0
 7713 0545 45720000 		.4byte	.LASF224
 7714 0549 05       		.byte	0x5
 7715 054a 00       		.uleb128 0
 7716 054b 11160000 		.4byte	.LASF225
 7717 054f 05       		.byte	0x5
 7718 0550 00       		.uleb128 0
 7719 0551 106F0000 		.4byte	.LASF226
 7720 0555 05       		.byte	0x5
 7721 0556 00       		.uleb128 0
 7722 0557 607E0000 		.4byte	.LASF227
 7723 055b 05       		.byte	0x5
 7724 055c 00       		.uleb128 0
 7725 055d 395A0000 		.4byte	.LASF228
 7726 0561 05       		.byte	0x5
 7727 0562 00       		.uleb128 0
 7728 0563 F35A0000 		.4byte	.LASF229
 7729 0567 05       		.byte	0x5
 7730 0568 00       		.uleb128 0
 7731 0569 73650000 		.4byte	.LASF230
ARM GAS  /var/folders/z0/6xlwn_996xz3mwq1cgzkbq4r0000gp/T//cc0Pdjko.s 			page 156


 7732 056d 05       		.byte	0x5
 7733 056e 00       		.uleb128 0
 7734 056f 7F730000 		.4byte	.LASF231
 7735 0573 05       		.byte	0x5
 7736 0574 00       		.uleb128 0
 7737 0575 162C0000 		.4byte	.LASF232
 7738 0579 05       		.byte	0x5
 7739 057a 00       		.uleb128 0
 7740 057b 45490000 		.4byte	.LASF233
 7741 057f 05       		.byte	0x5
 7742 0580 00       		.uleb128 0
 7743 0581 A3510000 		.4byte	.LASF234
 7744 0585 05       		.byte	0x5
 7745 0586 00       		.uleb128 0
 7746 0587 7B050000 		.4byte	.LASF235
 7747 058b 05       		.byte	0x5
 7748 058c 00       		.uleb128 0
 7749 058d 8C630000 		.4byte	.LASF236
 7750 0591 05       		.byte	0x5
 7751 0592 00       		.uleb128 0
 7752 0593 FC120000 		.4byte	.LASF237
 7753 0597 05       		.byte	0x5
 7754 0598 00       		.uleb128 0
 7755 0599 4C680000 		.4byte	.LASF238
 7756 059d 05       		.byte	0x5
 7757 059e 00       		.uleb128 0
 7758 059f BC030000 		.4byte	.LASF239
 7759 05a3 05       		.byte	0x5
 7760 05a4 00       		.uleb128 0
 7761 05a5 0A570000 		.4byte	.LASF240
 7762 05a9 05       		.byte	0x5
 7763 05aa 00       		.uleb128 0
 7764 05ab A0740000 		.4byte	.LASF241
 7765 05af 05       		.byte	0x5
 7766 05b0 00       		.uleb128 0
 7767 05b1 C63E0000 		.4byte	.LASF242
 7768 05b5 05       		.byte	0x5
 7769 05b6 00       		.uleb128 0
 7770 05b7 8A130000 		.4byte	.LASF243
 7771 05bb 05       		.byte	0x5
 7772 05bc 00       		.uleb128 0
 7773 05bd DE290000 		.4byte	.LASF244
 7774 05c1 05       		.byte	0x5
 7775 05c2 00       		.uleb128 0
 7776 05c3 253C0000 		.4byte	.LASF245
 7777 05c7 05       		.byte	0x5
 7778 05c8 00       		.uleb128 0
 7779 05c9 362B0000 		.4byte	.LASF246
 7780 05cd 05       		.byte	0x5
 7781 05ce 00       		.uleb128 0
 7782 05cf F92C0000 		.4byte	.LASF247
 7783 05d3 05       		.byte	0x5
 7784 05d4 00       		.uleb128 0
 7785 05d5 8E670000 		.4byte	.LASF248
 7786 05d9 05       		.byte	0x5
 7787 05da 00       		.uleb128 0
 7788 05db EE6F0000 		.4byte	.LASF249
ARM GAS  /var/folders/z0/6xlwn_996xz3mwq1cgzkbq4r0000gp/T//cc0Pdjko.s 			page 157


 7789 05df 05       		.byte	0x5
 7790 05e0 00       		.uleb128 0
 7791 05e1 AA080000 		.4byte	.LASF250
 7792 05e5 05       		.byte	0x5
 7793 05e6 00       		.uleb128 0
 7794 05e7 C6210000 		.4byte	.LASF251
 7795 05eb 05       		.byte	0x5
 7796 05ec 00       		.uleb128 0
 7797 05ed 216C0000 		.4byte	.LASF252
 7798 05f1 05       		.byte	0x5
 7799 05f2 00       		.uleb128 0
 7800 05f3 6D590000 		.4byte	.LASF253
 7801 05f7 05       		.byte	0x5
 7802 05f8 00       		.uleb128 0
 7803 05f9 7B3F0000 		.4byte	.LASF254
 7804 05fd 05       		.byte	0x5
 7805 05fe 00       		.uleb128 0
 7806 05ff 885D0000 		.4byte	.LASF255
 7807 0603 05       		.byte	0x5
 7808 0604 00       		.uleb128 0
 7809 0605 BB740000 		.4byte	.LASF256
 7810 0609 05       		.byte	0x5
 7811 060a 00       		.uleb128 0
 7812 060b 96610000 		.4byte	.LASF257
 7813 060f 05       		.byte	0x5
 7814 0610 00       		.uleb128 0
 7815 0611 96380000 		.4byte	.LASF258
 7816 0615 05       		.byte	0x5
 7817 0616 00       		.uleb128 0
 7818 0617 CD550000 		.4byte	.LASF259
 7819 061b 05       		.byte	0x5
 7820 061c 00       		.uleb128 0
 7821 061d 5C320000 		.4byte	.LASF260
 7822 0621 05       		.byte	0x5
 7823 0622 00       		.uleb128 0
 7824 0623 625C0000 		.4byte	.LASF261
 7825 0627 05       		.byte	0x5
 7826 0628 00       		.uleb128 0
 7827 0629 1E210000 		.4byte	.LASF262
 7828 062d 05       		.byte	0x5
 7829 062e 00       		.uleb128 0
 7830 062f 9E6E0000 		.4byte	.LASF263
 7831 0633 05       		.byte	0x5
 7832 0634 00       		.uleb128 0
 7833 0635 727E0000 		.4byte	.LASF264
 7834 0639 05       		.byte	0x5
 7835 063a 00       		.uleb128 0
 7836 063b 10050000 		.4byte	.LASF265
 7837 063f 05       		.byte	0x5
 7838 0640 00       		.uleb128 0
 7839 0641 74760000 		.4byte	.LASF266
 7840 0645 05       		.byte	0x5
 7841 0646 00       		.uleb128 0
 7842 0647 936D0000 		.4byte	.LASF267
 7843 064b 05       		.byte	0x5
 7844 064c 00       		.uleb128 0
 7845 064d 0F610000 		.4byte	.LASF268
ARM GAS  /var/folders/z0/6xlwn_996xz3mwq1cgzkbq4r0000gp/T//cc0Pdjko.s 			page 158


 7846 0651 05       		.byte	0x5
 7847 0652 00       		.uleb128 0
 7848 0653 AD770000 		.4byte	.LASF269
 7849 0657 05       		.byte	0x5
 7850 0658 00       		.uleb128 0
 7851 0659 F62B0000 		.4byte	.LASF270
 7852 065d 05       		.byte	0x5
 7853 065e 00       		.uleb128 0
 7854 065f 260E0000 		.4byte	.LASF271
 7855 0663 05       		.byte	0x5
 7856 0664 00       		.uleb128 0
 7857 0665 E8050000 		.4byte	.LASF272
 7858 0669 05       		.byte	0x5
 7859 066a 00       		.uleb128 0
 7860 066b 4B5A0000 		.4byte	.LASF273
 7861 066f 05       		.byte	0x5
 7862 0670 00       		.uleb128 0
 7863 0671 FA5D0000 		.4byte	.LASF274
 7864 0675 05       		.byte	0x5
 7865 0676 00       		.uleb128 0
 7866 0677 1E200000 		.4byte	.LASF275
 7867 067b 05       		.byte	0x5
 7868 067c 00       		.uleb128 0
 7869 067d A3020000 		.4byte	.LASF276
 7870 0681 05       		.byte	0x5
 7871 0682 00       		.uleb128 0
 7872 0683 0B4B0000 		.4byte	.LASF277
 7873 0687 05       		.byte	0x5
 7874 0688 00       		.uleb128 0
 7875 0689 363F0000 		.4byte	.LASF278
 7876 068d 05       		.byte	0x5
 7877 068e 00       		.uleb128 0
 7878 068f D80E0000 		.4byte	.LASF279
 7879 0693 05       		.byte	0x5
 7880 0694 00       		.uleb128 0
 7881 0695 40620000 		.4byte	.LASF280
 7882 0699 05       		.byte	0x5
 7883 069a 00       		.uleb128 0
 7884 069b D40D0000 		.4byte	.LASF281
 7885 069f 05       		.byte	0x5
 7886 06a0 00       		.uleb128 0
 7887 06a1 E6610000 		.4byte	.LASF282
 7888 06a5 05       		.byte	0x5
 7889 06a6 00       		.uleb128 0
 7890 06a7 2E470000 		.4byte	.LASF283
 7891 06ab 05       		.byte	0x5
 7892 06ac 00       		.uleb128 0
 7893 06ad 9D720000 		.4byte	.LASF284
 7894 06b1 05       		.byte	0x5
 7895 06b2 00       		.uleb128 0
 7896 06b3 F15B0000 		.4byte	.LASF285
 7897 06b7 05       		.byte	0x5
 7898 06b8 00       		.uleb128 0
 7899 06b9 1C600000 		.4byte	.LASF286
 7900 06bd 05       		.byte	0x5
 7901 06be 00       		.uleb128 0
 7902 06bf 01240000 		.4byte	.LASF287
ARM GAS  /var/folders/z0/6xlwn_996xz3mwq1cgzkbq4r0000gp/T//cc0Pdjko.s 			page 159


 7903 06c3 05       		.byte	0x5
 7904 06c4 00       		.uleb128 0
 7905 06c5 53410000 		.4byte	.LASF288
 7906 06c9 05       		.byte	0x5
 7907 06ca 00       		.uleb128 0
 7908 06cb 2B600000 		.4byte	.LASF289
 7909 06cf 05       		.byte	0x5
 7910 06d0 00       		.uleb128 0
 7911 06d1 E3360000 		.4byte	.LASF290
 7912 06d5 05       		.byte	0x5
 7913 06d6 00       		.uleb128 0
 7914 06d7 F2270000 		.4byte	.LASF291
 7915 06db 05       		.byte	0x5
 7916 06dc 00       		.uleb128 0
 7917 06dd 507B0000 		.4byte	.LASF292
 7918 06e1 05       		.byte	0x5
 7919 06e2 00       		.uleb128 0
 7920 06e3 A02D0000 		.4byte	.LASF293
 7921 06e7 05       		.byte	0x5
 7922 06e8 00       		.uleb128 0
 7923 06e9 EA510000 		.4byte	.LASF294
 7924 06ed 05       		.byte	0x5
 7925 06ee 00       		.uleb128 0
 7926 06ef 74000000 		.4byte	.LASF295
 7927 06f3 05       		.byte	0x5
 7928 06f4 00       		.uleb128 0
 7929 06f5 7B740000 		.4byte	.LASF296
 7930 06f9 05       		.byte	0x5
 7931 06fa 00       		.uleb128 0
 7932 06fb 024E0000 		.4byte	.LASF297
 7933 06ff 05       		.byte	0x5
 7934 0700 00       		.uleb128 0
 7935 0701 CE220000 		.4byte	.LASF298
 7936 0705 05       		.byte	0x5
 7937 0706 00       		.uleb128 0
 7938 0707 03150000 		.4byte	.LASF299
 7939 070b 05       		.byte	0x5
 7940 070c 00       		.uleb128 0
 7941 070d F8030000 		.4byte	.LASF300
 7942 0711 05       		.byte	0x5
 7943 0712 00       		.uleb128 0
 7944 0713 5F0E0000 		.4byte	.LASF301
 7945 0717 05       		.byte	0x5
 7946 0718 00       		.uleb128 0
 7947 0719 8E6E0000 		.4byte	.LASF302
 7948 071d 05       		.byte	0x5
 7949 071e 00       		.uleb128 0
 7950 071f 41660000 		.4byte	.LASF303
 7951 0723 05       		.byte	0x5
 7952 0724 00       		.uleb128 0
 7953 0725 C4320000 		.4byte	.LASF304
 7954 0729 05       		.byte	0x5
 7955 072a 00       		.uleb128 0
 7956 072b 280B0000 		.4byte	.LASF305
 7957 072f 05       		.byte	0x5
 7958 0730 00       		.uleb128 0
 7959 0731 07280000 		.4byte	.LASF306
ARM GAS  /var/folders/z0/6xlwn_996xz3mwq1cgzkbq4r0000gp/T//cc0Pdjko.s 			page 160


 7960 0735 05       		.byte	0x5
 7961 0736 00       		.uleb128 0
 7962 0737 96150000 		.4byte	.LASF307
 7963 073b 05       		.byte	0x5
 7964 073c 00       		.uleb128 0
 7965 073d B84E0000 		.4byte	.LASF308
 7966 0741 05       		.byte	0x5
 7967 0742 00       		.uleb128 0
 7968 0743 F93A0000 		.4byte	.LASF309
 7969 0747 05       		.byte	0x5
 7970 0748 00       		.uleb128 0
 7971 0749 4B550000 		.4byte	.LASF310
 7972 074d 05       		.byte	0x5
 7973 074e 00       		.uleb128 0
 7974 074f 13010000 		.4byte	.LASF311
 7975 0753 05       		.byte	0x5
 7976 0754 00       		.uleb128 0
 7977 0755 8C2B0000 		.4byte	.LASF312
 7978 0759 05       		.byte	0x5
 7979 075a 00       		.uleb128 0
 7980 075b 7F620000 		.4byte	.LASF313
 7981 075f 05       		.byte	0x5
 7982 0760 00       		.uleb128 0
 7983 0761 5D3F0000 		.4byte	.LASF314
 7984 0765 05       		.byte	0x5
 7985 0766 00       		.uleb128 0
 7986 0767 61410000 		.4byte	.LASF315
 7987 076b 05       		.byte	0x5
 7988 076c 00       		.uleb128 0
 7989 076d 292C0000 		.4byte	.LASF316
 7990 0771 05       		.byte	0x5
 7991 0772 00       		.uleb128 0
 7992 0773 F4540000 		.4byte	.LASF317
 7993 0777 05       		.byte	0x5
 7994 0778 00       		.uleb128 0
 7995 0779 8D360000 		.4byte	.LASF318
 7996 077d 05       		.byte	0x5
 7997 077e 00       		.uleb128 0
 7998 077f 6B220000 		.4byte	.LASF319
 7999 0783 05       		.byte	0x5
 8000 0784 00       		.uleb128 0
 8001 0785 37430000 		.4byte	.LASF320
 8002 0789 05       		.byte	0x5
 8003 078a 00       		.uleb128 0
 8004 078b 5A6F0000 		.4byte	.LASF321
 8005 078f 05       		.byte	0x5
 8006 0790 00       		.uleb128 0
 8007 0791 6D690000 		.4byte	.LASF322
 8008 0795 05       		.byte	0x5
 8009 0796 00       		.uleb128 0
 8010 0797 6F4F0000 		.4byte	.LASF323
 8011 079b 05       		.byte	0x5
 8012 079c 00       		.uleb128 0
 8013 079d AE340000 		.4byte	.LASF324
 8014 07a1 05       		.byte	0x5
 8015 07a2 00       		.uleb128 0
 8016 07a3 AA060000 		.4byte	.LASF325
ARM GAS  /var/folders/z0/6xlwn_996xz3mwq1cgzkbq4r0000gp/T//cc0Pdjko.s 			page 161


 8017 07a7 05       		.byte	0x5
 8018 07a8 00       		.uleb128 0
 8019 07a9 A54F0000 		.4byte	.LASF326
 8020 07ad 05       		.byte	0x5
 8021 07ae 00       		.uleb128 0
 8022 07af 485D0000 		.4byte	.LASF327
 8023 07b3 05       		.byte	0x5
 8024 07b4 00       		.uleb128 0
 8025 07b5 E6590000 		.4byte	.LASF328
 8026 07b9 05       		.byte	0x5
 8027 07ba 00       		.uleb128 0
 8028 07bb 4A770000 		.4byte	.LASF329
 8029 07bf 05       		.byte	0x5
 8030 07c0 00       		.uleb128 0
 8031 07c1 2B530000 		.4byte	.LASF330
 8032 07c5 05       		.byte	0x5
 8033 07c6 00       		.uleb128 0
 8034 07c7 93770000 		.4byte	.LASF331
 8035 07cb 05       		.byte	0x5
 8036 07cc 00       		.uleb128 0
 8037 07cd F1600000 		.4byte	.LASF332
 8038 07d1 05       		.byte	0x5
 8039 07d2 00       		.uleb128 0
 8040 07d3 97370000 		.4byte	.LASF333
 8041 07d7 05       		.byte	0x5
 8042 07d8 00       		.uleb128 0
 8043 07d9 AA100000 		.4byte	.LASF334
 8044 07dd 05       		.byte	0x5
 8045 07de 00       		.uleb128 0
 8046 07df FB150000 		.4byte	.LASF335
 8047 07e3 05       		.byte	0x5
 8048 07e4 00       		.uleb128 0
 8049 07e5 DE660000 		.4byte	.LASF336
 8050 07e9 05       		.byte	0x5
 8051 07ea 00       		.uleb128 0
 8052 07eb 802E0000 		.4byte	.LASF337
 8053 07ef 05       		.byte	0x5
 8054 07f0 00       		.uleb128 0
 8055 07f1 7A600000 		.4byte	.LASF338
 8056 07f5 05       		.byte	0x5
 8057 07f6 00       		.uleb128 0
 8058 07f7 95390000 		.4byte	.LASF339
 8059 07fb 05       		.byte	0x5
 8060 07fc 00       		.uleb128 0
 8061 07fd C8600000 		.4byte	.LASF340
 8062 0801 05       		.byte	0x5
 8063 0802 00       		.uleb128 0
 8064 0803 B5200000 		.4byte	.LASF341
 8065 0807 05       		.byte	0x5
 8066 0808 00       		.uleb128 0
 8067 0809 BE250000 		.4byte	.LASF342
 8068 080d 05       		.byte	0x5
 8069 080e 00       		.uleb128 0
 8070 080f 84710000 		.4byte	.LASF343
 8071 0813 05       		.byte	0x5
 8072 0814 00       		.uleb128 0
 8073 0815 F2300000 		.4byte	.LASF344
ARM GAS  /var/folders/z0/6xlwn_996xz3mwq1cgzkbq4r0000gp/T//cc0Pdjko.s 			page 162


 8074 0819 05       		.byte	0x5
 8075 081a 00       		.uleb128 0
 8076 081b F3290000 		.4byte	.LASF345
 8077 081f 05       		.byte	0x5
 8078 0820 00       		.uleb128 0
 8079 0821 28570000 		.4byte	.LASF346
 8080 0825 00       		.byte	0
 8081              		.section	.debug_macro,"G",%progbits,wm4._newlib_version.h.4.ad342815780c8db09778091a421b5b5b,comda
 8082              	.Ldebug_macro2:
 8083 0000 0400     		.2byte	0x4
 8084 0002 00       		.byte	0
 8085 0003 05       		.byte	0x5
 8086 0004 04       		.uleb128 0x4
 8087 0005 8A740000 		.4byte	.LASF352
 8088 0009 05       		.byte	0x5
 8089 000a 06       		.uleb128 0x6
 8090 000b 453F0000 		.4byte	.LASF353
 8091 000f 05       		.byte	0x5
 8092 0010 07       		.uleb128 0x7
 8093 0011 29190000 		.4byte	.LASF354
 8094 0015 05       		.byte	0x5
 8095 0016 08       		.uleb128 0x8
 8096 0017 7A680000 		.4byte	.LASF355
 8097 001b 05       		.byte	0x5
 8098 001c 09       		.uleb128 0x9
 8099 001d 7F580000 		.4byte	.LASF356
 8100 0021 00       		.byte	0
 8101              		.section	.debug_macro,"G",%progbits,wm4.features.h.33.863f3be0b2e521e624fcc7d6fa31d2ca,comdat
 8102              	.Ldebug_macro3:
 8103 0000 0400     		.2byte	0x4
 8104 0002 00       		.byte	0
 8105 0003 05       		.byte	0x5
 8106 0004 21       		.uleb128 0x21
 8107 0005 0E130000 		.4byte	.LASF357
 8108 0009 05       		.byte	0x5
 8109 000a 28       		.uleb128 0x28
 8110 000b 386E0000 		.4byte	.LASF358
 8111 000f 06       		.byte	0x6
 8112 0010 8001     		.uleb128 0x80
 8113 0012 C9710000 		.4byte	.LASF359
 8114 0016 05       		.byte	0x5
 8115 0017 8101     		.uleb128 0x81
 8116 0019 EE390000 		.4byte	.LASF360
 8117 001d 06       		.byte	0x6
 8118 001e 8501     		.uleb128 0x85
 8119 0020 89370000 		.4byte	.LASF361
 8120 0024 05       		.byte	0x5
 8121 0025 8601     		.uleb128 0x86
 8122 0027 32000000 		.4byte	.LASF362
 8123 002b 06       		.byte	0x6
 8124 002c 8701     		.uleb128 0x87
 8125 002e 577D0000 		.4byte	.LASF363
 8126 0032 05       		.byte	0x5
 8127 0033 8801     		.uleb128 0x88
 8128 0035 1F170000 		.4byte	.LASF364
 8129 0039 06       		.byte	0x6
 8130 003a 9B01     		.uleb128 0x9b
ARM GAS  /var/folders/z0/6xlwn_996xz3mwq1cgzkbq4r0000gp/T//cc0Pdjko.s 			page 163


 8131 003c 9E330000 		.4byte	.LASF365
 8132 0040 05       		.byte	0x5
 8133 0041 9C01     		.uleb128 0x9c
 8134 0043 05450000 		.4byte	.LASF366
 8135 0047 05       		.byte	0x5
 8136 0048 F201     		.uleb128 0xf2
 8137 004a D64E0000 		.4byte	.LASF367
 8138 004e 05       		.byte	0x5
 8139 004f F801     		.uleb128 0xf8
 8140 0051 4C430000 		.4byte	.LASF368
 8141 0055 05       		.byte	0x5
 8142 0056 8002     		.uleb128 0x100
 8143 0058 115A0000 		.4byte	.LASF369
 8144 005c 05       		.byte	0x5
 8145 005d 8802     		.uleb128 0x108
 8146 005f CA190000 		.4byte	.LASF370
 8147 0063 05       		.byte	0x5
 8148 0064 9002     		.uleb128 0x110
 8149 0066 ED180000 		.4byte	.LASF371
 8150 006a 05       		.byte	0x5
 8151 006b 9402     		.uleb128 0x114
 8152 006d 30560000 		.4byte	.LASF372
 8153 0071 05       		.byte	0x5
 8154 0072 9A02     		.uleb128 0x11a
 8155 0074 21460000 		.4byte	.LASF373
 8156 0078 05       		.byte	0x5
 8157 0079 AA02     		.uleb128 0x12a
 8158 007b 83000000 		.4byte	.LASF374
 8159 007f 05       		.byte	0x5
 8160 0080 BA02     		.uleb128 0x13a
 8161 0082 79070000 		.4byte	.LASF375
 8162 0086 00       		.byte	0
 8163              		.section	.debug_macro,"G",%progbits,wm4._default_types.h.15.933e8edd27a65e0b69af4a865eb623d2,comda
 8164              	.Ldebug_macro4:
 8165 0000 0400     		.2byte	0x4
 8166 0002 00       		.byte	0
 8167 0003 05       		.byte	0x5
 8168 0004 0F       		.uleb128 0xf
 8169 0005 32450000 		.4byte	.LASF376
 8170 0009 05       		.byte	0x5
 8171 000a 21       		.uleb128 0x21
 8172 000b 7D170000 		.4byte	.LASF377
 8173 000f 05       		.byte	0x5
 8174 0010 2F       		.uleb128 0x2f
 8175 0011 20260000 		.4byte	.LASF378
 8176 0015 05       		.byte	0x5
 8177 0016 45       		.uleb128 0x45
 8178 0017 9A1D0000 		.4byte	.LASF379
 8179 001b 05       		.byte	0x5
 8180 001c 5F       		.uleb128 0x5f
 8181 001d 6C560000 		.4byte	.LASF380
 8182 0021 05       		.byte	0x5
 8183 0022 7E       		.uleb128 0x7e
 8184 0023 654C0000 		.4byte	.LASF381
 8185 0027 05       		.byte	0x5
 8186 0028 9801     		.uleb128 0x98
 8187 002a 57140000 		.4byte	.LASF382
ARM GAS  /var/folders/z0/6xlwn_996xz3mwq1cgzkbq4r0000gp/T//cc0Pdjko.s 			page 164


 8188 002e 05       		.byte	0x5
 8189 002f AE01     		.uleb128 0xae
 8190 0031 71630000 		.4byte	.LASF383
 8191 0035 05       		.byte	0x5
 8192 0036 C001     		.uleb128 0xc0
 8193 0038 53440000 		.4byte	.LASF384
 8194 003c 06       		.byte	0x6
 8195 003d D601     		.uleb128 0xd6
 8196 003f 4B560000 		.4byte	.LASF385
 8197 0043 00       		.byte	0
 8198              		.section	.debug_macro,"G",%progbits,wm4._intsup.h.10.b82bf99f69d6a5c085fc866de0d3eb9b,comdat
 8199              	.Ldebug_macro5:
 8200 0000 0400     		.2byte	0x4
 8201 0002 00       		.byte	0
 8202 0003 05       		.byte	0x5
 8203 0004 0A       		.uleb128 0xa
 8204 0005 4B730000 		.4byte	.LASF386
 8205 0009 05       		.byte	0x5
 8206 000a 10       		.uleb128 0x10
 8207 000b 16450000 		.4byte	.LASF387
 8208 000f 05       		.byte	0x5
 8209 0010 1A       		.uleb128 0x1a
 8210 0011 B65C0000 		.4byte	.LASF388
 8211 0015 05       		.byte	0x5
 8212 0016 21       		.uleb128 0x21
 8213 0017 E86B0000 		.4byte	.LASF389
 8214 001b 06       		.byte	0x6
 8215 001c 38       		.uleb128 0x38
 8216 001d 597E0000 		.4byte	.LASF390
 8217 0021 06       		.byte	0x6
 8218 0022 39       		.uleb128 0x39
 8219 0023 28080000 		.4byte	.LASF391
 8220 0027 06       		.byte	0x6
 8221 0028 3A       		.uleb128 0x3a
 8222 0029 C9220000 		.4byte	.LASF392
 8223 002d 06       		.byte	0x6
 8224 002e 3B       		.uleb128 0x3b
 8225 002f 9C620000 		.4byte	.LASF393
 8226 0033 02       		.byte	0x2
 8227 0034 3C       		.uleb128 0x3c
 8228 0035 696E7400 		.ascii	"int\000"
 8229 0039 06       		.byte	0x6
 8230 003a 3D       		.uleb128 0x3d
 8231 003b A97C0000 		.4byte	.LASF394
 8232 003f 06       		.byte	0x6
 8233 0040 3E       		.uleb128 0x3e
 8234 0041 A6530000 		.4byte	.LASF395
 8235 0045 05       		.byte	0x5
 8236 0046 3F       		.uleb128 0x3f
 8237 0047 D00A0000 		.4byte	.LASF396
 8238 004b 05       		.byte	0x5
 8239 004c 40       		.uleb128 0x40
 8240 004d 573B0000 		.4byte	.LASF397
 8241 0051 05       		.byte	0x5
 8242 0052 41       		.uleb128 0x41
 8243 0053 F24B0000 		.4byte	.LASF398
 8244 0057 05       		.byte	0x5
ARM GAS  /var/folders/z0/6xlwn_996xz3mwq1cgzkbq4r0000gp/T//cc0Pdjko.s 			page 165


 8245 0058 42       		.uleb128 0x42
 8246 0059 7A7B0000 		.4byte	.LASF399
 8247 005d 05       		.byte	0x5
 8248 005e 43       		.uleb128 0x43
 8249 005f A43C0000 		.4byte	.LASF400
 8250 0063 05       		.byte	0x5
 8251 0064 44       		.uleb128 0x44
 8252 0065 36380000 		.4byte	.LASF401
 8253 0069 05       		.byte	0x5
 8254 006a 45       		.uleb128 0x45
 8255 006b 8A790000 		.4byte	.LASF402
 8256 006f 05       		.byte	0x5
 8257 0070 4E       		.uleb128 0x4e
 8258 0071 9E340000 		.4byte	.LASF403
 8259 0075 05       		.byte	0x5
 8260 0076 55       		.uleb128 0x55
 8261 0077 04780000 		.4byte	.LASF404
 8262 007b 05       		.byte	0x5
 8263 007c 5D       		.uleb128 0x5d
 8264 007d 9A090000 		.4byte	.LASF405
 8265 0081 05       		.byte	0x5
 8266 0082 68       		.uleb128 0x68
 8267 0083 B64A0000 		.4byte	.LASF406
 8268 0087 05       		.byte	0x5
 8269 0088 73       		.uleb128 0x73
 8270 0089 E4700000 		.4byte	.LASF407
 8271 008d 05       		.byte	0x5
 8272 008e 7C       		.uleb128 0x7c
 8273 008f C5100000 		.4byte	.LASF408
 8274 0093 05       		.byte	0x5
 8275 0094 8301     		.uleb128 0x83
 8276 0096 506D0000 		.4byte	.LASF409
 8277 009a 05       		.byte	0x5
 8278 009b 8C01     		.uleb128 0x8c
 8279 009d 8B180000 		.4byte	.LASF410
 8280 00a1 05       		.byte	0x5
 8281 00a2 9301     		.uleb128 0x93
 8282 00a4 9A3C0000 		.4byte	.LASF411
 8283 00a8 05       		.byte	0x5
 8284 00a9 9E01     		.uleb128 0x9e
 8285 00ab 363B0000 		.4byte	.LASF412
 8286 00af 05       		.byte	0x5
 8287 00b0 A201     		.uleb128 0xa2
 8288 00b2 9F280000 		.4byte	.LASF413
 8289 00b6 05       		.byte	0x5
 8290 00b7 AD01     		.uleb128 0xad
 8291 00b9 A4690000 		.4byte	.LASF414
 8292 00bd 05       		.byte	0x5
 8293 00be B801     		.uleb128 0xb8
 8294 00c0 B7100000 		.4byte	.LASF415
 8295 00c4 05       		.byte	0x5
 8296 00c5 C101     		.uleb128 0xc1
 8297 00c7 14520000 		.4byte	.LASF416
 8298 00cb 06       		.byte	0x6
 8299 00cc C301     		.uleb128 0xc3
 8300 00ce 597E0000 		.4byte	.LASF390
 8301 00d2 06       		.byte	0x6
ARM GAS  /var/folders/z0/6xlwn_996xz3mwq1cgzkbq4r0000gp/T//cc0Pdjko.s 			page 166


 8302 00d3 C401     		.uleb128 0xc4
 8303 00d5 28080000 		.4byte	.LASF391
 8304 00d9 06       		.byte	0x6
 8305 00da C501     		.uleb128 0xc5
 8306 00dc C9220000 		.4byte	.LASF392
 8307 00e0 06       		.byte	0x6
 8308 00e1 C601     		.uleb128 0xc6
 8309 00e3 9C620000 		.4byte	.LASF393
 8310 00e7 02       		.byte	0x2
 8311 00e8 C701     		.uleb128 0xc7
 8312 00ea 696E7400 		.ascii	"int\000"
 8313 00ee 06       		.byte	0x6
 8314 00ef C801     		.uleb128 0xc8
 8315 00f1 A6530000 		.4byte	.LASF395
 8316 00f5 06       		.byte	0x6
 8317 00f6 CD01     		.uleb128 0xcd
 8318 00f8 A97C0000 		.4byte	.LASF394
 8319 00fc 00       		.byte	0
 8320              		.section	.debug_macro,"G",%progbits,wm4._stdint.h.10.7a5f60e6741af4a5594a3867d347e1f9,comdat
 8321              	.Ldebug_macro6:
 8322 0000 0400     		.2byte	0x4
 8323 0002 00       		.byte	0
 8324 0003 05       		.byte	0x5
 8325 0004 0A       		.uleb128 0xa
 8326 0005 DE390000 		.4byte	.LASF417
 8327 0009 05       		.byte	0x5
 8328 000a 15       		.uleb128 0x15
 8329 000b A7700000 		.4byte	.LASF418
 8330 000f 05       		.byte	0x5
 8331 0010 19       		.uleb128 0x19
 8332 0011 381A0000 		.4byte	.LASF419
 8333 0015 05       		.byte	0x5
 8334 0016 1B       		.uleb128 0x1b
 8335 0017 A6260000 		.4byte	.LASF420
 8336 001b 05       		.byte	0x5
 8337 001c 21       		.uleb128 0x21
 8338 001d 77300000 		.4byte	.LASF421
 8339 0021 05       		.byte	0x5
 8340 0022 25       		.uleb128 0x25
 8341 0023 830E0000 		.4byte	.LASF422
 8342 0027 05       		.byte	0x5
 8343 0028 27       		.uleb128 0x27
 8344 0029 553D0000 		.4byte	.LASF423
 8345 002d 05       		.byte	0x5
 8346 002e 2D       		.uleb128 0x2d
 8347 002f B1020000 		.4byte	.LASF424
 8348 0033 05       		.byte	0x5
 8349 0034 31       		.uleb128 0x31
 8350 0035 44020000 		.4byte	.LASF425
 8351 0039 05       		.byte	0x5
 8352 003a 33       		.uleb128 0x33
 8353 003b D3130000 		.4byte	.LASF426
 8354 003f 05       		.byte	0x5
 8355 0040 39       		.uleb128 0x39
 8356 0041 C75E0000 		.4byte	.LASF427
 8357 0045 05       		.byte	0x5
 8358 0046 3D       		.uleb128 0x3d
ARM GAS  /var/folders/z0/6xlwn_996xz3mwq1cgzkbq4r0000gp/T//cc0Pdjko.s 			page 167


 8359 0047 BE160000 		.4byte	.LASF428
 8360 004b 05       		.byte	0x5
 8361 004c 3F       		.uleb128 0x3f
 8362 004d 936C0000 		.4byte	.LASF429
 8363 0051 05       		.byte	0x5
 8364 0052 44       		.uleb128 0x44
 8365 0053 1E120000 		.4byte	.LASF430
 8366 0057 05       		.byte	0x5
 8367 0058 49       		.uleb128 0x49
 8368 0059 335D0000 		.4byte	.LASF431
 8369 005d 00       		.byte	0
 8370              		.section	.debug_macro,"G",%progbits,wm4.stdint.h.23.373a9d32a9e4c2e88fd347156532d281,comdat
 8371              	.Ldebug_macro7:
 8372 0000 0400     		.2byte	0x4
 8373 0002 00       		.byte	0
 8374 0003 05       		.byte	0x5
 8375 0004 17       		.uleb128 0x17
 8376 0005 6E750000 		.4byte	.LASF432
 8377 0009 05       		.byte	0x5
 8378 000a 1D       		.uleb128 0x1d
 8379 000b 1C2B0000 		.4byte	.LASF433
 8380 000f 05       		.byte	0x5
 8381 0010 23       		.uleb128 0x23
 8382 0011 AA320000 		.4byte	.LASF434
 8383 0015 05       		.byte	0x5
 8384 0016 29       		.uleb128 0x29
 8385 0017 22310000 		.4byte	.LASF435
 8386 001b 05       		.byte	0x5
 8387 001c 35       		.uleb128 0x35
 8388 001d 064D0000 		.4byte	.LASF436
 8389 0021 05       		.byte	0x5
 8390 0022 3F       		.uleb128 0x3f
 8391 0023 68470000 		.4byte	.LASF437
 8392 0027 05       		.byte	0x5
 8393 0028 49       		.uleb128 0x49
 8394 0029 120D0000 		.4byte	.LASF438
 8395 002d 05       		.byte	0x5
 8396 002e 53       		.uleb128 0x53
 8397 002f 7C200000 		.4byte	.LASF439
 8398 0033 05       		.byte	0x5
 8399 0034 9301     		.uleb128 0x93
 8400 0036 222E0000 		.4byte	.LASF440
 8401 003a 05       		.byte	0x5
 8402 003b 9401     		.uleb128 0x94
 8403 003d D44D0000 		.4byte	.LASF441
 8404 0041 05       		.byte	0x5
 8405 0042 9501     		.uleb128 0x95
 8406 0044 DD150000 		.4byte	.LASF442
 8407 0048 05       		.byte	0x5
 8408 0049 AB01     		.uleb128 0xab
 8409 004b AD330000 		.4byte	.LASF443
 8410 004f 05       		.byte	0x5
 8411 0050 AC01     		.uleb128 0xac
 8412 0052 940A0000 		.4byte	.LASF444
 8413 0056 05       		.byte	0x5
 8414 0057 AD01     		.uleb128 0xad
 8415 0059 F1780000 		.4byte	.LASF445
ARM GAS  /var/folders/z0/6xlwn_996xz3mwq1cgzkbq4r0000gp/T//cc0Pdjko.s 			page 168


 8416 005d 05       		.byte	0x5
 8417 005e B501     		.uleb128 0xb5
 8418 0060 F86B0000 		.4byte	.LASF446
 8419 0064 05       		.byte	0x5
 8420 0065 B601     		.uleb128 0xb6
 8421 0067 C80F0000 		.4byte	.LASF447
 8422 006b 05       		.byte	0x5
 8423 006c B701     		.uleb128 0xb7
 8424 006e C0610000 		.4byte	.LASF448
 8425 0072 05       		.byte	0x5
 8426 0073 C101     		.uleb128 0xc1
 8427 0075 78500000 		.4byte	.LASF449
 8428 0079 05       		.byte	0x5
 8429 007a C201     		.uleb128 0xc2
 8430 007c 6B0C0000 		.4byte	.LASF450
 8431 0080 05       		.byte	0x5
 8432 0081 C301     		.uleb128 0xc3
 8433 0083 C5340000 		.4byte	.LASF451
 8434 0087 05       		.byte	0x5
 8435 0088 CB01     		.uleb128 0xcb
 8436 008a 5C430000 		.4byte	.LASF452
 8437 008e 05       		.byte	0x5
 8438 008f CC01     		.uleb128 0xcc
 8439 0091 C8090000 		.4byte	.LASF453
 8440 0095 05       		.byte	0x5
 8441 0096 CD01     		.uleb128 0xcd
 8442 0098 33290000 		.4byte	.LASF454
 8443 009c 05       		.byte	0x5
 8444 009d D701     		.uleb128 0xd7
 8445 009f D2600000 		.4byte	.LASF455
 8446 00a3 05       		.byte	0x5
 8447 00a4 D801     		.uleb128 0xd8
 8448 00a6 A4270000 		.4byte	.LASF456
 8449 00aa 05       		.byte	0x5
 8450 00ab D901     		.uleb128 0xd9
 8451 00ad 2E400000 		.4byte	.LASF457
 8452 00b1 05       		.byte	0x5
 8453 00b2 E701     		.uleb128 0xe7
 8454 00b4 AA670000 		.4byte	.LASF458
 8455 00b8 05       		.byte	0x5
 8456 00b9 E801     		.uleb128 0xe8
 8457 00bb 662B0000 		.4byte	.LASF459
 8458 00bf 05       		.byte	0x5
 8459 00c0 E901     		.uleb128 0xe9
 8460 00c2 79640000 		.4byte	.LASF460
 8461 00c6 05       		.byte	0x5
 8462 00c7 F901     		.uleb128 0xf9
 8463 00c9 CD690000 		.4byte	.LASF461
 8464 00cd 05       		.byte	0x5
 8465 00ce FA01     		.uleb128 0xfa
 8466 00d0 0D480000 		.4byte	.LASF462
 8467 00d4 05       		.byte	0x5
 8468 00d5 FB01     		.uleb128 0xfb
 8469 00d7 8C6A0000 		.4byte	.LASF463
 8470 00db 05       		.byte	0x5
 8471 00dc 8902     		.uleb128 0x109
 8472 00de F4160000 		.4byte	.LASF464
ARM GAS  /var/folders/z0/6xlwn_996xz3mwq1cgzkbq4r0000gp/T//cc0Pdjko.s 			page 169


 8473 00e2 05       		.byte	0x5
 8474 00e3 8A02     		.uleb128 0x10a
 8475 00e5 E80E0000 		.4byte	.LASF465
 8476 00e9 05       		.byte	0x5
 8477 00ea 8B02     		.uleb128 0x10b
 8478 00ec 45590000 		.4byte	.LASF466
 8479 00f0 05       		.byte	0x5
 8480 00f1 9902     		.uleb128 0x119
 8481 00f3 67490000 		.4byte	.LASF467
 8482 00f7 05       		.byte	0x5
 8483 00f8 9A02     		.uleb128 0x11a
 8484 00fa 9F1F0000 		.4byte	.LASF468
 8485 00fe 05       		.byte	0x5
 8486 00ff 9B02     		.uleb128 0x11b
 8487 0101 95590000 		.4byte	.LASF469
 8488 0105 05       		.byte	0x5
 8489 0106 A902     		.uleb128 0x129
 8490 0108 371D0000 		.4byte	.LASF470
 8491 010c 05       		.byte	0x5
 8492 010d AA02     		.uleb128 0x12a
 8493 010f F9490000 		.4byte	.LASF471
 8494 0113 05       		.byte	0x5
 8495 0114 AB02     		.uleb128 0x12b
 8496 0116 DF630000 		.4byte	.LASF472
 8497 011a 05       		.byte	0x5
 8498 011b B902     		.uleb128 0x139
 8499 011d 51120000 		.4byte	.LASF473
 8500 0121 05       		.byte	0x5
 8501 0122 BA02     		.uleb128 0x13a
 8502 0124 E67C0000 		.4byte	.LASF474
 8503 0128 05       		.byte	0x5
 8504 0129 BB02     		.uleb128 0x13b
 8505 012b BD240000 		.4byte	.LASF475
 8506 012f 05       		.byte	0x5
 8507 0130 C902     		.uleb128 0x149
 8508 0132 25510000 		.4byte	.LASF476
 8509 0136 05       		.byte	0x5
 8510 0137 CA02     		.uleb128 0x14a
 8511 0139 C0730000 		.4byte	.LASF477
 8512 013d 05       		.byte	0x5
 8513 013e CB02     		.uleb128 0x14b
 8514 0140 2D410000 		.4byte	.LASF478
 8515 0144 05       		.byte	0x5
 8516 0145 D902     		.uleb128 0x159
 8517 0147 88270000 		.4byte	.LASF479
 8518 014b 05       		.byte	0x5
 8519 014c DA02     		.uleb128 0x15a
 8520 014e 8E4C0000 		.4byte	.LASF480
 8521 0152 05       		.byte	0x5
 8522 0153 E202     		.uleb128 0x162
 8523 0155 D83B0000 		.4byte	.LASF481
 8524 0159 05       		.byte	0x5
 8525 015a EA02     		.uleb128 0x16a
 8526 015c AB370000 		.4byte	.LASF482
 8527 0160 05       		.byte	0x5
 8528 0161 F002     		.uleb128 0x170
 8529 0163 0C300000 		.4byte	.LASF483
ARM GAS  /var/folders/z0/6xlwn_996xz3mwq1cgzkbq4r0000gp/T//cc0Pdjko.s 			page 170


 8530 0167 05       		.byte	0x5
 8531 0168 F102     		.uleb128 0x171
 8532 016a 79240000 		.4byte	.LASF484
 8533 016e 05       		.byte	0x5
 8534 016f F502     		.uleb128 0x175
 8535 0171 DA0A0000 		.4byte	.LASF485
 8536 0175 05       		.byte	0x5
 8537 0176 F902     		.uleb128 0x179
 8538 0178 F8220000 		.4byte	.LASF486
 8539 017c 05       		.byte	0x5
 8540 017d FE02     		.uleb128 0x17e
 8541 017f 4F1B0000 		.4byte	.LASF487
 8542 0183 05       		.byte	0x5
 8543 0184 8903     		.uleb128 0x189
 8544 0186 810F0000 		.4byte	.LASF488
 8545 018a 05       		.byte	0x5
 8546 018b 9303     		.uleb128 0x193
 8547 018d C2400000 		.4byte	.LASF489
 8548 0191 05       		.byte	0x5
 8549 0192 9803     		.uleb128 0x198
 8550 0194 1A000000 		.4byte	.LASF490
 8551 0198 05       		.byte	0x5
 8552 0199 9F03     		.uleb128 0x19f
 8553 019b 5F380000 		.4byte	.LASF491
 8554 019f 05       		.byte	0x5
 8555 01a0 A003     		.uleb128 0x1a0
 8556 01a2 3D6B0000 		.4byte	.LASF492
 8557 01a6 05       		.byte	0x5
 8558 01a7 AB03     		.uleb128 0x1ab
 8559 01a9 660D0000 		.4byte	.LASF493
 8560 01ad 05       		.byte	0x5
 8561 01ae AC03     		.uleb128 0x1ac
 8562 01b0 D0720000 		.4byte	.LASF494
 8563 01b4 05       		.byte	0x5
 8564 01b5 B703     		.uleb128 0x1b7
 8565 01b7 C7630000 		.4byte	.LASF495
 8566 01bb 05       		.byte	0x5
 8567 01bc B803     		.uleb128 0x1b8
 8568 01be DE480000 		.4byte	.LASF496
 8569 01c2 05       		.byte	0x5
 8570 01c3 C403     		.uleb128 0x1c4
 8571 01c5 86330000 		.4byte	.LASF497
 8572 01c9 05       		.byte	0x5
 8573 01ca C503     		.uleb128 0x1c5
 8574 01cc 7C610000 		.4byte	.LASF498
 8575 01d0 05       		.byte	0x5
 8576 01d1 D403     		.uleb128 0x1d4
 8577 01d3 DE220000 		.4byte	.LASF499
 8578 01d7 05       		.byte	0x5
 8579 01d8 D503     		.uleb128 0x1d5
 8580 01da 14560000 		.4byte	.LASF500
 8581 01de 00       		.byte	0
 8582              		.section	.debug_macro,"G",%progbits,wm4.stdbool.h.29.07dce69c3b78884144b7f7bd19483461,comdat
 8583              	.Ldebug_macro8:
 8584 0000 0400     		.2byte	0x4
 8585 0002 00       		.byte	0
 8586 0003 05       		.byte	0x5
ARM GAS  /var/folders/z0/6xlwn_996xz3mwq1cgzkbq4r0000gp/T//cc0Pdjko.s 			page 171


 8587 0004 1D       		.uleb128 0x1d
 8588 0005 5E720000 		.4byte	.LASF502
 8589 0009 05       		.byte	0x5
 8590 000a 21       		.uleb128 0x21
 8591 000b 207D0000 		.4byte	.LASF503
 8592 000f 05       		.byte	0x5
 8593 0010 22       		.uleb128 0x22
 8594 0011 F04D0000 		.4byte	.LASF504
 8595 0015 05       		.byte	0x5
 8596 0016 23       		.uleb128 0x23
 8597 0017 AB2B0000 		.4byte	.LASF505
 8598 001b 05       		.byte	0x5
 8599 001c 34       		.uleb128 0x34
 8600 001d BC770000 		.4byte	.LASF506
 8601 0021 00       		.byte	0
 8602              		.section	.debug_macro,"G",%progbits,wm4.lpc_types.h.63.860ba57581a002825766a7c2ac00d549,comdat
 8603              	.Ldebug_macro9:
 8604 0000 0400     		.2byte	0x4
 8605 0002 00       		.byte	0
 8606 0003 05       		.byte	0x5
 8607 0004 3F       		.uleb128 0x3f
 8608 0005 6F080000 		.4byte	.LASF507
 8609 0009 05       		.byte	0x5
 8610 000a 45       		.uleb128 0x45
 8611 000b F7080000 		.4byte	.LASF508
 8612 000f 06       		.byte	0x6
 8613 0010 66       		.uleb128 0x66
 8614 0011 C2630000 		.4byte	.LASF509
 8615 0015 05       		.byte	0x5
 8616 0016 68       		.uleb128 0x68
 8617 0017 532B0000 		.4byte	.LASF510
 8618 001b 06       		.byte	0x6
 8619 001c 6E       		.uleb128 0x6e
 8620 001d D9290000 		.4byte	.LASF511
 8621 0021 05       		.byte	0x5
 8622 0022 70       		.uleb128 0x70
 8623 0023 AE1B0000 		.4byte	.LASF512
 8624 0027 06       		.byte	0x6
 8625 0028 7F       		.uleb128 0x7f
 8626 0029 FF310000 		.4byte	.LASF513
 8627 002d 05       		.byte	0x5
 8628 002e 8101     		.uleb128 0x81
 8629 0030 09710000 		.4byte	.LASF514
 8630 0034 05       		.byte	0x5
 8631 0035 8501     		.uleb128 0x85
 8632 0037 2D550000 		.4byte	.LASF515
 8633 003b 05       		.byte	0x5
 8634 003c 8901     		.uleb128 0x89
 8635 003e C06E0000 		.4byte	.LASF516
 8636 0042 05       		.byte	0x5
 8637 0043 8C01     		.uleb128 0x8c
 8638 0045 F2210000 		.4byte	.LASF517
 8639 0049 05       		.byte	0x5
 8640 004a 8E01     		.uleb128 0x8e
 8641 004c D2380000 		.4byte	.LASF518
 8642 0050 05       		.byte	0x5
 8643 0051 9101     		.uleb128 0x91
ARM GAS  /var/folders/z0/6xlwn_996xz3mwq1cgzkbq4r0000gp/T//cc0Pdjko.s 			page 172


 8644 0053 3E0B0000 		.4byte	.LASF519
 8645 0057 05       		.byte	0x5
 8646 0058 9401     		.uleb128 0x94
 8647 005a 4A690000 		.4byte	.LASF520
 8648 005e 05       		.byte	0x5
 8649 005f 9701     		.uleb128 0x97
 8650 0061 2C4C0000 		.4byte	.LASF521
 8651 0065 05       		.byte	0x5
 8652 0066 D001     		.uleb128 0xd0
 8653 0068 C24A0000 		.4byte	.LASF522
 8654 006c 00       		.byte	0
 8655              		.section	.debug_macro,"G",%progbits,wm4.sys_config.h.31.9f234e9c90333d233c7e647ebe63e928,comdat
 8656              	.Ldebug_macro10:
 8657 0000 0400     		.2byte	0x4
 8658 0002 00       		.byte	0
 8659 0003 05       		.byte	0x5
 8660 0004 1F       		.uleb128 0x1f
 8661 0005 253F0000 		.4byte	.LASF523
 8662 0009 05       		.byte	0x5
 8663 000a 26       		.uleb128 0x26
 8664 000b E91A0000 		.4byte	.LASF524
 8665 000f 00       		.byte	0
 8666              		.section	.debug_macro,"G",%progbits,wm4.cmsis_11cxx.h.33.407e9bbb5d170cd1552d3f7dc3fd5c42,comdat
 8667              	.Ldebug_macro11:
 8668 0000 0400     		.2byte	0x4
 8669 0002 00       		.byte	0
 8670 0003 05       		.byte	0x5
 8671 0004 21       		.uleb128 0x21
 8672 0005 6A780000 		.4byte	.LASF526
 8673 0009 05       		.byte	0x5
 8674 000a 8801     		.uleb128 0x88
 8675 000c B6390000 		.4byte	.LASF527
 8676 0010 05       		.byte	0x5
 8677 0011 8901     		.uleb128 0x89
 8678 0013 0F740000 		.4byte	.LASF528
 8679 0017 05       		.byte	0x5
 8680 0018 8A01     		.uleb128 0x8a
 8681 001a 80540000 		.4byte	.LASF529
 8682 001e 00       		.byte	0
 8683              		.section	.debug_macro,"G",%progbits,wm4.core_cm0.h.32.192d13cfa8b31e63c86621de62eb153f,comdat
 8684              	.Ldebug_macro12:
 8685 0000 0400     		.2byte	0x4
 8686 0002 00       		.byte	0
 8687 0003 05       		.byte	0x5
 8688 0004 20       		.uleb128 0x20
 8689 0005 95120000 		.4byte	.LASF530
 8690 0009 05       		.byte	0x5
 8691 000a 38       		.uleb128 0x38
 8692 000b 42530000 		.4byte	.LASF531
 8693 000f 05       		.byte	0x5
 8694 0010 39       		.uleb128 0x39
 8695 0011 3B6F0000 		.4byte	.LASF532
 8696 0015 05       		.byte	0x5
 8697 0016 3A       		.uleb128 0x3a
 8698 0017 CF640000 		.4byte	.LASF533
 8699 001b 05       		.byte	0x5
 8700 001c 3D       		.uleb128 0x3d
ARM GAS  /var/folders/z0/6xlwn_996xz3mwq1cgzkbq4r0000gp/T//cc0Pdjko.s 			page 173


 8701 001d 042C0000 		.4byte	.LASF534
 8702 0021 05       		.byte	0x5
 8703 0022 4B       		.uleb128 0x4b
 8704 0023 EC0F0000 		.4byte	.LASF535
 8705 0027 05       		.byte	0x5
 8706 0028 4C       		.uleb128 0x4c
 8707 0029 D67C0000 		.4byte	.LASF536
 8708 002d 05       		.byte	0x5
 8709 002e 4D       		.uleb128 0x4d
 8710 002f 3C3E0000 		.4byte	.LASF537
 8711 0033 05       		.byte	0x5
 8712 0034 58       		.uleb128 0x58
 8713 0035 B36E0000 		.4byte	.LASF538
 8714 0039 00       		.byte	0
 8715              		.section	.debug_macro,"G",%progbits,wm4.core_cm0.h.120.f4257ea7d0bce0cbabffe223e23b2fd4,comdat
 8716              	.Ldebug_macro13:
 8717 0000 0400     		.2byte	0x4
 8718 0002 00       		.byte	0
 8719 0003 05       		.byte	0x5
 8720 0004 78       		.uleb128 0x78
 8721 0005 24790000 		.4byte	.LASF541
 8722 0009 05       		.byte	0x5
 8723 000a 9701     		.uleb128 0x97
 8724 000c 0C6D0000 		.4byte	.LASF542
 8725 0010 05       		.byte	0x5
 8726 0011 9901     		.uleb128 0x99
 8727 0013 A52F0000 		.4byte	.LASF543
 8728 0017 05       		.byte	0x5
 8729 0018 9A01     		.uleb128 0x9a
 8730 001a F06A0000 		.4byte	.LASF544
 8731 001e 05       		.byte	0x5
 8732 001f B002     		.uleb128 0x130
 8733 0021 CA5C0000 		.4byte	.LASF545
 8734 0025 05       		.byte	0x5
 8735 0026 B102     		.uleb128 0x131
 8736 0028 0A770000 		.4byte	.LASF546
 8737 002c 05       		.byte	0x5
 8738 002d B302     		.uleb128 0x133
 8739 002f 5A5E0000 		.4byte	.LASF547
 8740 0033 05       		.byte	0x5
 8741 0034 B402     		.uleb128 0x134
 8742 0036 F8480000 		.4byte	.LASF548
 8743 003a 05       		.byte	0x5
 8744 003b B602     		.uleb128 0x136
 8745 003d C9200000 		.4byte	.LASF549
 8746 0041 05       		.byte	0x5
 8747 0042 B702     		.uleb128 0x137
 8748 0044 7B030000 		.4byte	.LASF550
 8749 0048 05       		.byte	0x5
 8750 0049 B902     		.uleb128 0x139
 8751 004b 71290000 		.4byte	.LASF551
 8752 004f 05       		.byte	0x5
 8753 0050 BA02     		.uleb128 0x13a
 8754 0052 5C040000 		.4byte	.LASF552
 8755 0056 05       		.byte	0x5
 8756 0057 BC02     		.uleb128 0x13c
 8757 0059 233E0000 		.4byte	.LASF553
ARM GAS  /var/folders/z0/6xlwn_996xz3mwq1cgzkbq4r0000gp/T//cc0Pdjko.s 			page 174


 8758 005d 05       		.byte	0x5
 8759 005e BD02     		.uleb128 0x13d
 8760 0060 BB540000 		.4byte	.LASF554
 8761 0064 05       		.byte	0x5
 8762 0065 C002     		.uleb128 0x140
 8763 0067 E1520000 		.4byte	.LASF555
 8764 006b 05       		.byte	0x5
 8765 006c C102     		.uleb128 0x141
 8766 006e 88290000 		.4byte	.LASF556
 8767 0072 05       		.byte	0x5
 8768 0073 C302     		.uleb128 0x143
 8769 0075 4E2F0000 		.4byte	.LASF557
 8770 0079 05       		.byte	0x5
 8771 007a C402     		.uleb128 0x144
 8772 007c 21650000 		.4byte	.LASF558
 8773 0080 05       		.byte	0x5
 8774 0081 C602     		.uleb128 0x146
 8775 0083 CE6B0000 		.4byte	.LASF559
 8776 0087 05       		.byte	0x5
 8777 0088 C702     		.uleb128 0x147
 8778 008a 3D280000 		.4byte	.LASF560
 8779 008e 05       		.byte	0x5
 8780 008f C902     		.uleb128 0x149
 8781 0091 7A0A0000 		.4byte	.LASF561
 8782 0095 05       		.byte	0x5
 8783 0096 CA02     		.uleb128 0x14a
 8784 0098 D8060000 		.4byte	.LASF562
 8785 009c 05       		.byte	0x5
 8786 009d CC02     		.uleb128 0x14c
 8787 009f 63480000 		.4byte	.LASF563
 8788 00a3 05       		.byte	0x5
 8789 00a4 CD02     		.uleb128 0x14d
 8790 00a6 EA450000 		.4byte	.LASF564
 8791 00aa 05       		.byte	0x5
 8792 00ab CF02     		.uleb128 0x14f
 8793 00ad C6520000 		.4byte	.LASF565
 8794 00b1 05       		.byte	0x5
 8795 00b2 D002     		.uleb128 0x150
 8796 00b4 E0380000 		.4byte	.LASF566
 8797 00b8 05       		.byte	0x5
 8798 00b9 D202     		.uleb128 0x152
 8799 00bb 85250000 		.4byte	.LASF567
 8800 00bf 05       		.byte	0x5
 8801 00c0 D302     		.uleb128 0x153
 8802 00c2 EE350000 		.4byte	.LASF568
 8803 00c6 05       		.byte	0x5
 8804 00c7 D502     		.uleb128 0x155
 8805 00c9 B32B0000 		.4byte	.LASF569
 8806 00cd 05       		.byte	0x5
 8807 00ce D602     		.uleb128 0x156
 8808 00d0 6F2C0000 		.4byte	.LASF570
 8809 00d4 05       		.byte	0x5
 8810 00d5 D802     		.uleb128 0x158
 8811 00d7 4C0C0000 		.4byte	.LASF571
 8812 00db 05       		.byte	0x5
 8813 00dc D902     		.uleb128 0x159
 8814 00de CE1C0000 		.4byte	.LASF572
ARM GAS  /var/folders/z0/6xlwn_996xz3mwq1cgzkbq4r0000gp/T//cc0Pdjko.s 			page 175


 8815 00e2 05       		.byte	0x5
 8816 00e3 DC02     		.uleb128 0x15c
 8817 00e5 F0700000 		.4byte	.LASF573
 8818 00e9 05       		.byte	0x5
 8819 00ea DD02     		.uleb128 0x15d
 8820 00ec E2330000 		.4byte	.LASF574
 8821 00f0 05       		.byte	0x5
 8822 00f1 DF02     		.uleb128 0x15f
 8823 00f3 FD0B0000 		.4byte	.LASF575
 8824 00f7 05       		.byte	0x5
 8825 00f8 E002     		.uleb128 0x160
 8826 00fa 507C0000 		.4byte	.LASF576
 8827 00fe 05       		.byte	0x5
 8828 00ff E202     		.uleb128 0x162
 8829 0101 356C0000 		.4byte	.LASF577
 8830 0105 05       		.byte	0x5
 8831 0106 E302     		.uleb128 0x163
 8832 0108 DB1B0000 		.4byte	.LASF578
 8833 010c 05       		.byte	0x5
 8834 010d E502     		.uleb128 0x165
 8835 010f 892F0000 		.4byte	.LASF579
 8836 0113 05       		.byte	0x5
 8837 0114 E602     		.uleb128 0x166
 8838 0116 DA750000 		.4byte	.LASF580
 8839 011a 05       		.byte	0x5
 8840 011b E802     		.uleb128 0x168
 8841 011d 14780000 		.4byte	.LASF581
 8842 0121 05       		.byte	0x5
 8843 0122 E902     		.uleb128 0x169
 8844 0124 DF020000 		.4byte	.LASF582
 8845 0128 05       		.byte	0x5
 8846 0129 EC02     		.uleb128 0x16c
 8847 012b BA510000 		.4byte	.LASF583
 8848 012f 05       		.byte	0x5
 8849 0130 ED02     		.uleb128 0x16d
 8850 0132 9F7B0000 		.4byte	.LASF584
 8851 0136 05       		.byte	0x5
 8852 0137 EF02     		.uleb128 0x16f
 8853 0139 75260000 		.4byte	.LASF585
 8854 013d 05       		.byte	0x5
 8855 013e F002     		.uleb128 0x170
 8856 0140 3F190000 		.4byte	.LASF586
 8857 0144 05       		.byte	0x5
 8858 0145 F202     		.uleb128 0x172
 8859 0147 5B260000 		.4byte	.LASF587
 8860 014b 05       		.byte	0x5
 8861 014c F302     		.uleb128 0x173
 8862 014e 941E0000 		.4byte	.LASF588
 8863 0152 05       		.byte	0x5
 8864 0153 F602     		.uleb128 0x176
 8865 0155 FB6D0000 		.4byte	.LASF589
 8866 0159 05       		.byte	0x5
 8867 015a F702     		.uleb128 0x177
 8868 015c 72140000 		.4byte	.LASF590
 8869 0160 05       		.byte	0x5
 8870 0161 F902     		.uleb128 0x179
 8871 0163 554F0000 		.4byte	.LASF591
ARM GAS  /var/folders/z0/6xlwn_996xz3mwq1cgzkbq4r0000gp/T//cc0Pdjko.s 			page 176


 8872 0167 05       		.byte	0x5
 8873 0168 FA02     		.uleb128 0x17a
 8874 016a 42060000 		.4byte	.LASF592
 8875 016e 05       		.byte	0x5
 8876 016f FD02     		.uleb128 0x17d
 8877 0171 CF680000 		.4byte	.LASF593
 8878 0175 05       		.byte	0x5
 8879 0176 FE02     		.uleb128 0x17e
 8880 0178 87570000 		.4byte	.LASF594
 8881 017c 05       		.byte	0x5
 8882 017d 9403     		.uleb128 0x194
 8883 017f FE2A0000 		.4byte	.LASF595
 8884 0183 05       		.byte	0x5
 8885 0184 9503     		.uleb128 0x195
 8886 0186 AE180000 		.4byte	.LASF596
 8887 018a 05       		.byte	0x5
 8888 018b 9703     		.uleb128 0x197
 8889 018d 7D0B0000 		.4byte	.LASF597
 8890 0191 05       		.byte	0x5
 8891 0192 9803     		.uleb128 0x198
 8892 0194 3C050000 		.4byte	.LASF598
 8893 0198 05       		.byte	0x5
 8894 0199 9A03     		.uleb128 0x19a
 8895 019b 7A120000 		.4byte	.LASF599
 8896 019f 05       		.byte	0x5
 8897 01a0 9B03     		.uleb128 0x19b
 8898 01a2 865F0000 		.4byte	.LASF600
 8899 01a6 05       		.byte	0x5
 8900 01a7 9D03     		.uleb128 0x19d
 8901 01a9 6E270000 		.4byte	.LASF601
 8902 01ad 05       		.byte	0x5
 8903 01ae 9E03     		.uleb128 0x19e
 8904 01b0 08660000 		.4byte	.LASF602
 8905 01b4 05       		.byte	0x5
 8906 01b5 A103     		.uleb128 0x1a1
 8907 01b7 65730000 		.4byte	.LASF603
 8908 01bb 05       		.byte	0x5
 8909 01bc A203     		.uleb128 0x1a2
 8910 01be 39640000 		.4byte	.LASF604
 8911 01c2 05       		.byte	0x5
 8912 01c3 A503     		.uleb128 0x1a5
 8913 01c5 97560000 		.4byte	.LASF605
 8914 01c9 05       		.byte	0x5
 8915 01ca A603     		.uleb128 0x1a6
 8916 01cc 534B0000 		.4byte	.LASF606
 8917 01d0 05       		.byte	0x5
 8918 01d1 A903     		.uleb128 0x1a9
 8919 01d3 58650000 		.4byte	.LASF607
 8920 01d7 05       		.byte	0x5
 8921 01d8 AA03     		.uleb128 0x1aa
 8922 01da 661F0000 		.4byte	.LASF608
 8923 01de 05       		.byte	0x5
 8924 01df AC03     		.uleb128 0x1ac
 8925 01e1 2F0F0000 		.4byte	.LASF609
 8926 01e5 05       		.byte	0x5
 8927 01e6 AD03     		.uleb128 0x1ad
 8928 01e8 44740000 		.4byte	.LASF610
ARM GAS  /var/folders/z0/6xlwn_996xz3mwq1cgzkbq4r0000gp/T//cc0Pdjko.s 			page 177


 8929 01ec 05       		.byte	0x5
 8930 01ed AF03     		.uleb128 0x1af
 8931 01ef D8370000 		.4byte	.LASF611
 8932 01f3 05       		.byte	0x5
 8933 01f4 B003     		.uleb128 0x1b0
 8934 01f6 8C430000 		.4byte	.LASF612
 8935 01fa 05       		.byte	0x5
 8936 01fb C603     		.uleb128 0x1c6
 8937 01fd 2E540000 		.4byte	.LASF613
 8938 0201 05       		.byte	0x5
 8939 0202 C703     		.uleb128 0x1c7
 8940 0204 344E0000 		.4byte	.LASF614
 8941 0208 05       		.byte	0x5
 8942 0209 C803     		.uleb128 0x1c8
 8943 020b B6500000 		.4byte	.LASF615
 8944 020f 05       		.byte	0x5
 8945 0210 C903     		.uleb128 0x1c9
 8946 0212 69210000 		.4byte	.LASF616
 8947 0216 05       		.byte	0x5
 8948 0217 CB03     		.uleb128 0x1cb
 8949 0219 FF5F0000 		.4byte	.LASF617
 8950 021d 05       		.byte	0x5
 8951 021e CC03     		.uleb128 0x1cc
 8952 0220 6C6B0000 		.4byte	.LASF618
 8953 0224 05       		.byte	0x5
 8954 0225 CD03     		.uleb128 0x1cd
 8955 0227 CE470000 		.4byte	.LASF619
 8956 022b 05       		.byte	0x5
 8957 022c E903     		.uleb128 0x1e9
 8958 022e AD410000 		.4byte	.LASF620
 8959 0232 05       		.byte	0x5
 8960 0233 EA03     		.uleb128 0x1ea
 8961 0235 045F0000 		.4byte	.LASF621
 8962 0239 05       		.byte	0x5
 8963 023a EB03     		.uleb128 0x1eb
 8964 023c 3E470000 		.4byte	.LASF622
 8965 0240 00       		.byte	0
 8966              		.section	.debug_macro,"G",%progbits,wm4.chip.h.116.857da603c399e979152c31968de4baae,comdat
 8967              	.Ldebug_macro14:
 8968 0000 0400     		.2byte	0x4
 8969 0002 00       		.byte	0
 8970 0003 05       		.byte	0x5
 8971 0004 74       		.uleb128 0x74
 8972 0005 A3780000 		.4byte	.LASF623
 8973 0009 05       		.byte	0x5
 8974 000a 75       		.uleb128 0x75
 8975 000b C3010000 		.4byte	.LASF624
 8976 000f 05       		.byte	0x5
 8977 0010 76       		.uleb128 0x76
 8978 0011 656E0000 		.4byte	.LASF625
 8979 0015 05       		.byte	0x5
 8980 0016 77       		.uleb128 0x77
 8981 0017 5E610000 		.4byte	.LASF626
 8982 001b 05       		.byte	0x5
 8983 001c 78       		.uleb128 0x78
 8984 001d A3790000 		.4byte	.LASF627
 8985 0021 05       		.byte	0x5
ARM GAS  /var/folders/z0/6xlwn_996xz3mwq1cgzkbq4r0000gp/T//cc0Pdjko.s 			page 178


 8986 0022 79       		.uleb128 0x79
 8987 0023 D2080000 		.4byte	.LASF628
 8988 0027 05       		.byte	0x5
 8989 0028 7A       		.uleb128 0x7a
 8990 0029 CA050000 		.4byte	.LASF629
 8991 002d 05       		.byte	0x5
 8992 002e 7B       		.uleb128 0x7b
 8993 002f E3240000 		.4byte	.LASF630
 8994 0033 05       		.byte	0x5
 8995 0034 7C       		.uleb128 0x7c
 8996 0035 CC700000 		.4byte	.LASF631
 8997 0039 05       		.byte	0x5
 8998 003a 7D       		.uleb128 0x7d
 8999 003b C4150000 		.4byte	.LASF632
 9000 003f 05       		.byte	0x5
 9001 0040 7E       		.uleb128 0x7e
 9002 0041 5A3E0000 		.4byte	.LASF633
 9003 0045 05       		.byte	0x5
 9004 0046 7F       		.uleb128 0x7f
 9005 0047 08320000 		.4byte	.LASF634
 9006 004b 05       		.byte	0x5
 9007 004c 8001     		.uleb128 0x80
 9008 004e DD4F0000 		.4byte	.LASF635
 9009 0052 05       		.byte	0x5
 9010 0053 8101     		.uleb128 0x81
 9011 0055 E8000000 		.4byte	.LASF636
 9012 0059 05       		.byte	0x5
 9013 005a 8201     		.uleb128 0x82
 9014 005c ED2E0000 		.4byte	.LASF637
 9015 0060 05       		.byte	0x5
 9016 0061 8301     		.uleb128 0x83
 9017 0063 C1790000 		.4byte	.LASF638
 9018 0067 05       		.byte	0x5
 9019 0068 8401     		.uleb128 0x84
 9020 006a 4F2E0000 		.4byte	.LASF639
 9021 006e 05       		.byte	0x5
 9022 006f 8501     		.uleb128 0x85
 9023 0071 376D0000 		.4byte	.LASF640
 9024 0075 05       		.byte	0x5
 9025 0076 9001     		.uleb128 0x90
 9026 0078 32120000 		.4byte	.LASF641
 9027 007c 05       		.byte	0x5
 9028 007d 9101     		.uleb128 0x91
 9029 007f 97500000 		.4byte	.LASF642
 9030 0083 05       		.byte	0x5
 9031 0084 9301     		.uleb128 0x93
 9032 0086 73450000 		.4byte	.LASF643
 9033 008a 05       		.byte	0x5
 9034 008b 9401     		.uleb128 0x94
 9035 008d 00330000 		.4byte	.LASF644
 9036 0091 05       		.byte	0x5
 9037 0092 9701     		.uleb128 0x97
 9038 0094 12700000 		.4byte	.LASF645
 9039 0098 05       		.byte	0x5
 9040 0099 9801     		.uleb128 0x98
 9041 009b 95200000 		.4byte	.LASF646
 9042 009f 05       		.byte	0x5
ARM GAS  /var/folders/z0/6xlwn_996xz3mwq1cgzkbq4r0000gp/T//cc0Pdjko.s 			page 179


 9043 00a0 9B01     		.uleb128 0x9b
 9044 00a2 7B2A0000 		.4byte	.LASF647
 9045 00a6 05       		.byte	0x5
 9046 00a7 9E01     		.uleb128 0x9e
 9047 00a9 5E5F0000 		.4byte	.LASF648
 9048 00ad 05       		.byte	0x5
 9049 00ae 9F01     		.uleb128 0x9f
 9050 00b0 257B0000 		.4byte	.LASF649
 9051 00b4 05       		.byte	0x5
 9052 00b5 A001     		.uleb128 0xa0
 9053 00b7 5A360000 		.4byte	.LASF650
 9054 00bb 05       		.byte	0x5
 9055 00bc A101     		.uleb128 0xa1
 9056 00be 606D0000 		.4byte	.LASF651
 9057 00c2 05       		.byte	0x5
 9058 00c3 A201     		.uleb128 0xa2
 9059 00c5 8B160000 		.4byte	.LASF652
 9060 00c9 05       		.byte	0x5
 9061 00ca A301     		.uleb128 0xa3
 9062 00cc 224F0000 		.4byte	.LASF653
 9063 00d0 05       		.byte	0x5
 9064 00d1 A401     		.uleb128 0xa4
 9065 00d3 411F0000 		.4byte	.LASF654
 9066 00d7 05       		.byte	0x5
 9067 00d8 B101     		.uleb128 0xb1
 9068 00da B17C0000 		.4byte	.LASF655
 9069 00de 05       		.byte	0x5
 9070 00df B201     		.uleb128 0xb2
 9071 00e1 A71C0000 		.4byte	.LASF656
 9072 00e5 05       		.byte	0x5
 9073 00e6 B301     		.uleb128 0xb3
 9074 00e8 22320000 		.4byte	.LASF657
 9075 00ec 05       		.byte	0x5
 9076 00ed B401     		.uleb128 0xb4
 9077 00ef B22F0000 		.4byte	.LASF658
 9078 00f3 05       		.byte	0x5
 9079 00f4 B501     		.uleb128 0xb5
 9080 00f6 0F240000 		.4byte	.LASF659
 9081 00fa 05       		.byte	0x5
 9082 00fb B701     		.uleb128 0xb7
 9083 00fd E23D0000 		.4byte	.LASF660
 9084 0101 05       		.byte	0x5
 9085 0102 B801     		.uleb128 0xb8
 9086 0104 62130000 		.4byte	.LASF661
 9087 0108 05       		.byte	0x5
 9088 0109 BA01     		.uleb128 0xba
 9089 010b A3220000 		.4byte	.LASF662
 9090 010f 05       		.byte	0x5
 9091 0110 C101     		.uleb128 0xc1
 9092 0112 88210000 		.4byte	.LASF663
 9093 0116 05       		.byte	0x5
 9094 0117 C401     		.uleb128 0xc4
 9095 0119 603C0000 		.4byte	.LASF664
 9096 011d 00       		.byte	0
 9097              		.section	.debug_macro,"G",%progbits,wm4.pmu_11xx.h.33.1d6b708881441cb98d19b8bab3caa180,comdat
 9098              	.Ldebug_macro15:
 9099 0000 0400     		.2byte	0x4
ARM GAS  /var/folders/z0/6xlwn_996xz3mwq1cgzkbq4r0000gp/T//cc0Pdjko.s 			page 180


 9100 0002 00       		.byte	0
 9101 0003 05       		.byte	0x5
 9102 0004 21       		.uleb128 0x21
 9103 0005 F64E0000 		.4byte	.LASF665
 9104 0009 05       		.byte	0x5
 9105 000a 4D       		.uleb128 0x4d
 9106 000b 566A0000 		.4byte	.LASF666
 9107 000f 05       		.byte	0x5
 9108 0010 53       		.uleb128 0x53
 9109 0011 4E340000 		.4byte	.LASF667
 9110 0015 05       		.byte	0x5
 9111 0016 55       		.uleb128 0x55
 9112 0017 9B730000 		.4byte	.LASF668
 9113 001b 05       		.byte	0x5
 9114 001c 56       		.uleb128 0x56
 9115 001d 6E6F0000 		.4byte	.LASF669
 9116 0021 00       		.byte	0
 9117              		.section	.debug_macro,"G",%progbits,wm4.sysctl_11xx.h.33.ae61a1181e608f8409883008e291930c,comdat
 9118              	.Ldebug_macro16:
 9119 0000 0400     		.2byte	0x4
 9120 0002 00       		.byte	0
 9121 0003 05       		.byte	0x5
 9122 0004 21       		.uleb128 0x21
 9123 0005 50710000 		.4byte	.LASF671
 9124 0009 05       		.byte	0x5
 9125 000a BC01     		.uleb128 0xbc
 9126 000c E6010000 		.4byte	.LASF672
 9127 0010 05       		.byte	0x5
 9128 0011 BD01     		.uleb128 0xbd
 9129 0013 E5070000 		.4byte	.LASF673
 9130 0017 05       		.byte	0x5
 9131 0018 BE01     		.uleb128 0xbe
 9132 001a D52E0000 		.4byte	.LASF674
 9133 001e 05       		.byte	0x5
 9134 001f BF01     		.uleb128 0xbf
 9135 0021 38710000 		.4byte	.LASF675
 9136 0025 05       		.byte	0x5
 9137 0026 C001     		.uleb128 0xc0
 9138 0028 DF620000 		.4byte	.LASF676
 9139 002c 05       		.byte	0x5
 9140 002d C501     		.uleb128 0xc5
 9141 002f 970E0000 		.4byte	.LASF677
 9142 0033 05       		.byte	0x5
 9143 0034 A904     		.uleb128 0x229
 9144 0036 4F270000 		.4byte	.LASF678
 9145 003a 05       		.byte	0x5
 9146 003b AA04     		.uleb128 0x22a
 9147 003d 735E0000 		.4byte	.LASF679
 9148 0041 05       		.byte	0x5
 9149 0042 C904     		.uleb128 0x249
 9150 0044 6A720000 		.4byte	.LASF680
 9151 0048 05       		.byte	0x5
 9152 0049 CA04     		.uleb128 0x24a
 9153 004b 95760000 		.4byte	.LASF681
 9154 004f 05       		.byte	0x5
 9155 0050 CB04     		.uleb128 0x24b
 9156 0052 15380000 		.4byte	.LASF682
ARM GAS  /var/folders/z0/6xlwn_996xz3mwq1cgzkbq4r0000gp/T//cc0Pdjko.s 			page 181


 9157 0056 05       		.byte	0x5
 9158 0057 CC04     		.uleb128 0x24c
 9159 0059 1A100000 		.4byte	.LASF683
 9160 005d 05       		.byte	0x5
 9161 005e CD04     		.uleb128 0x24d
 9162 0060 B85A0000 		.4byte	.LASF684
 9163 0064 05       		.byte	0x5
 9164 0065 CE04     		.uleb128 0x24e
 9165 0067 A0400000 		.4byte	.LASF685
 9166 006b 05       		.byte	0x5
 9167 006c CF04     		.uleb128 0x24f
 9168 006e 506C0000 		.4byte	.LASF686
 9169 0072 05       		.byte	0x5
 9170 0073 D004     		.uleb128 0x250
 9171 0075 1C5E0000 		.4byte	.LASF687
 9172 0079 05       		.byte	0x5
 9173 007a F104     		.uleb128 0x271
 9174 007c D9710000 		.4byte	.LASF688
 9175 0080 05       		.byte	0x5
 9176 0081 F204     		.uleb128 0x272
 9177 0083 0E0F0000 		.4byte	.LASF689
 9178 0087 05       		.byte	0x5
 9179 0088 F304     		.uleb128 0x273
 9180 008a B91A0000 		.4byte	.LASF690
 9181 008e 05       		.byte	0x5
 9182 008f F504     		.uleb128 0x275
 9183 0091 4F460000 		.4byte	.LASF691
 9184 0095 05       		.byte	0x5
 9185 0096 F704     		.uleb128 0x277
 9186 0098 726C0000 		.4byte	.LASF692
 9187 009c 05       		.byte	0x5
 9188 009d F804     		.uleb128 0x278
 9189 009f AC0A0000 		.4byte	.LASF693
 9190 00a3 05       		.byte	0x5
 9191 00a4 F904     		.uleb128 0x279
 9192 00a6 27480000 		.4byte	.LASF694
 9193 00aa 05       		.byte	0x5
 9194 00ab FA04     		.uleb128 0x27a
 9195 00ad 8E4D0000 		.4byte	.LASF695
 9196 00b1 00       		.byte	0
 9197              		.section	.debug_macro,"G",%progbits,wm4.clock_11xx.h.33.23290a9e2ed919e3a6958d25130bc848,comdat
 9198              	.Ldebug_macro17:
 9199 0000 0400     		.2byte	0x4
 9200 0002 00       		.byte	0
 9201 0003 05       		.byte	0x5
 9202 0004 21       		.uleb128 0x21
 9203 0005 B53E0000 		.4byte	.LASF696
 9204 0009 05       		.byte	0x5
 9205 000a 2D       		.uleb128 0x2d
 9206 000b B4640000 		.4byte	.LASF697
 9207 000f 00       		.byte	0
 9208              		.section	.debug_macro,"G",%progbits,wm4.iocon_11xx.h.33.25e2b3cde122df23fb07b984cb4f3a93,comdat
 9209              	.Ldebug_macro18:
 9210 0000 0400     		.2byte	0x4
 9211 0002 00       		.byte	0
 9212 0003 05       		.byte	0x5
 9213 0004 21       		.uleb128 0x21
ARM GAS  /var/folders/z0/6xlwn_996xz3mwq1cgzkbq4r0000gp/T//cc0Pdjko.s 			page 182


 9214 0005 282D0000 		.4byte	.LASF698
 9215 0009 05       		.byte	0x5
 9216 000a A601     		.uleb128 0xa6
 9217 000c 65350000 		.4byte	.LASF699
 9218 0010 05       		.byte	0x5
 9219 0011 A701     		.uleb128 0xa7
 9220 0013 B8090000 		.4byte	.LASF700
 9221 0017 05       		.byte	0x5
 9222 0018 A801     		.uleb128 0xa8
 9223 001a 7B180000 		.4byte	.LASF701
 9224 001e 05       		.byte	0x5
 9225 001f A901     		.uleb128 0xa9
 9226 0021 FF600000 		.4byte	.LASF702
 9227 0025 05       		.byte	0x5
 9228 0026 AA01     		.uleb128 0xaa
 9229 0028 792F0000 		.4byte	.LASF703
 9230 002c 05       		.byte	0x5
 9231 002d AB01     		.uleb128 0xab
 9232 002f E93A0000 		.4byte	.LASF704
 9233 0033 05       		.byte	0x5
 9234 0034 AC01     		.uleb128 0xac
 9235 0036 4B260000 		.4byte	.LASF705
 9236 003a 05       		.byte	0x5
 9237 003b AD01     		.uleb128 0xad
 9238 003d B4150000 		.4byte	.LASF706
 9239 0041 05       		.byte	0x5
 9240 0042 AE01     		.uleb128 0xae
 9241 0044 ED680000 		.4byte	.LASF707
 9242 0048 05       		.byte	0x5
 9243 0049 AF01     		.uleb128 0xaf
 9244 004b AF4F0000 		.4byte	.LASF708
 9245 004f 05       		.byte	0x5
 9246 0050 B001     		.uleb128 0xb0
 9247 0052 1C630000 		.4byte	.LASF709
 9248 0056 05       		.byte	0x5
 9249 0057 B101     		.uleb128 0xb1
 9250 0059 A1750000 		.4byte	.LASF710
 9251 005d 05       		.byte	0x5
 9252 005e B201     		.uleb128 0xb2
 9253 0060 D2510000 		.4byte	.LASF711
 9254 0064 05       		.byte	0x5
 9255 0065 B301     		.uleb128 0xb3
 9256 0067 0A220000 		.4byte	.LASF712
 9257 006b 05       		.byte	0x5
 9258 006c B401     		.uleb128 0xb4
 9259 006e 51560000 		.4byte	.LASF713
 9260 0072 05       		.byte	0x5
 9261 0073 B501     		.uleb128 0xb5
 9262 0075 3E5E0000 		.4byte	.LASF714
 9263 0079 05       		.byte	0x5
 9264 007a B601     		.uleb128 0xb6
 9265 007c DA400000 		.4byte	.LASF715
 9266 0080 05       		.byte	0x5
 9267 0081 B701     		.uleb128 0xb7
 9268 0083 D5670000 		.4byte	.LASF716
 9269 0087 05       		.byte	0x5
 9270 0088 B801     		.uleb128 0xb8
ARM GAS  /var/folders/z0/6xlwn_996xz3mwq1cgzkbq4r0000gp/T//cc0Pdjko.s 			page 183


 9271 008a B3680000 		.4byte	.LASF717
 9272 008e 05       		.byte	0x5
 9273 008f B901     		.uleb128 0xb9
 9274 0091 C3230000 		.4byte	.LASF718
 9275 0095 05       		.byte	0x5
 9276 0096 BA01     		.uleb128 0xba
 9277 0098 C0140000 		.4byte	.LASF719
 9278 009c 05       		.byte	0x5
 9279 009d C001     		.uleb128 0xc0
 9280 009f B20B0000 		.4byte	.LASF720
 9281 00a3 05       		.byte	0x5
 9282 00a4 C101     		.uleb128 0xc1
 9283 00a6 FE6A0000 		.4byte	.LASF721
 9284 00aa 05       		.byte	0x5
 9285 00ab C201     		.uleb128 0xc2
 9286 00ad 5F630000 		.4byte	.LASF722
 9287 00b1 05       		.byte	0x5
 9288 00b2 C301     		.uleb128 0xc3
 9289 00b4 16180000 		.4byte	.LASF723
 9290 00b8 05       		.byte	0x5
 9291 00b9 C401     		.uleb128 0xc4
 9292 00bb CD1E0000 		.4byte	.LASF724
 9293 00bf 05       		.byte	0x5
 9294 00c0 C501     		.uleb128 0xc5
 9295 00c2 563A0000 		.4byte	.LASF725
 9296 00c6 05       		.byte	0x5
 9297 00c7 C601     		.uleb128 0xc6
 9298 00c9 01180000 		.4byte	.LASF726
 9299 00cd 05       		.byte	0x5
 9300 00ce C701     		.uleb128 0xc7
 9301 00d0 2F490000 		.4byte	.LASF727
 9302 00d4 05       		.byte	0x5
 9303 00d5 C801     		.uleb128 0xc8
 9304 00d7 5E160000 		.4byte	.LASF728
 9305 00db 05       		.byte	0x5
 9306 00dc C901     		.uleb128 0xc9
 9307 00de 73570000 		.4byte	.LASF729
 9308 00e2 05       		.byte	0x5
 9309 00e3 CA01     		.uleb128 0xca
 9310 00e5 8E490000 		.4byte	.LASF730
 9311 00e9 05       		.byte	0x5
 9312 00ea CB01     		.uleb128 0xcb
 9313 00ec 17230000 		.4byte	.LASF731
 9314 00f0 05       		.byte	0x5
 9315 00f1 CC01     		.uleb128 0xcc
 9316 00f3 AE450000 		.4byte	.LASF732
 9317 00f7 05       		.byte	0x5
 9318 00f8 CD01     		.uleb128 0xcd
 9319 00fa 4D700000 		.4byte	.LASF733
 9320 00fe 05       		.byte	0x5
 9321 00ff CE01     		.uleb128 0xce
 9322 0101 FD710000 		.4byte	.LASF734
 9323 0105 05       		.byte	0x5
 9324 0106 CF01     		.uleb128 0xcf
 9325 0108 0A560000 		.4byte	.LASF735
 9326 010c 05       		.byte	0x5
 9327 010d D001     		.uleb128 0xd0
ARM GAS  /var/folders/z0/6xlwn_996xz3mwq1cgzkbq4r0000gp/T//cc0Pdjko.s 			page 184


 9328 010f 66600000 		.4byte	.LASF736
 9329 0113 05       		.byte	0x5
 9330 0114 D101     		.uleb128 0xd1
 9331 0116 844D0000 		.4byte	.LASF737
 9332 011a 05       		.byte	0x5
 9333 011b D201     		.uleb128 0xd2
 9334 011d 24400000 		.4byte	.LASF738
 9335 0121 05       		.byte	0x5
 9336 0122 D301     		.uleb128 0xd3
 9337 0124 E5250000 		.4byte	.LASF739
 9338 0128 05       		.byte	0x5
 9339 0129 D401     		.uleb128 0xd4
 9340 012b A0320000 		.4byte	.LASF740
 9341 012f 05       		.byte	0x5
 9342 0130 D501     		.uleb128 0xd5
 9343 0132 9F7C0000 		.4byte	.LASF741
 9344 0136 00       		.byte	0
 9345              		.section	.debug_macro,"G",%progbits,wm4.timer_11xx.h.33.c92f50a9325789ee6a8ffd6248980d70,comdat
 9346              	.Ldebug_macro19:
 9347 0000 0400     		.2byte	0x4
 9348 0002 00       		.byte	0
 9349 0003 05       		.byte	0x5
 9350 0004 21       		.uleb128 0x21
 9351 0005 B8710000 		.4byte	.LASF742
 9352 0009 05       		.byte	0x5
 9353 000a 40       		.uleb128 0x40
 9354 000b 3E090000 		.4byte	.LASF743
 9355 000f 05       		.byte	0x5
 9356 0010 43       		.uleb128 0x43
 9357 0011 40370000 		.4byte	.LASF744
 9358 0015 05       		.byte	0x5
 9359 0016 45       		.uleb128 0x45
 9360 0017 572D0000 		.4byte	.LASF745
 9361 001b 05       		.byte	0x5
 9362 001c 48       		.uleb128 0x48
 9363 001d 87100000 		.4byte	.LASF746
 9364 0021 05       		.byte	0x5
 9365 0022 4A       		.uleb128 0x4a
 9366 0023 124E0000 		.4byte	.LASF747
 9367 0027 05       		.byte	0x5
 9368 0028 4D       		.uleb128 0x4d
 9369 0029 94000000 		.4byte	.LASF748
 9370 002d 05       		.byte	0x5
 9371 002e 4F       		.uleb128 0x4f
 9372 002f C92C0000 		.4byte	.LASF749
 9373 0033 05       		.byte	0x5
 9374 0034 51       		.uleb128 0x51
 9375 0035 025C0000 		.4byte	.LASF750
 9376 0039 05       		.byte	0x5
 9377 003a 54       		.uleb128 0x54
 9378 003b C4450000 		.4byte	.LASF751
 9379 003f 05       		.byte	0x5
 9380 0040 56       		.uleb128 0x56
 9381 0041 90440000 		.4byte	.LASF752
 9382 0045 05       		.byte	0x5
 9383 0046 58       		.uleb128 0x58
 9384 0047 AA7A0000 		.4byte	.LASF753
ARM GAS  /var/folders/z0/6xlwn_996xz3mwq1cgzkbq4r0000gp/T//cc0Pdjko.s 			page 185


 9385 004b 00       		.byte	0
 9386              		.section	.debug_macro,"G",%progbits,wm4.ring_buffer.h.33.2f271415f1f27d60350fb4738c5cbee6,comdat
 9387              	.Ldebug_macro20:
 9388 0000 0400     		.2byte	0x4
 9389 0002 00       		.byte	0
 9390 0003 05       		.byte	0x5
 9391 0004 21       		.uleb128 0x21
 9392 0005 19530000 		.4byte	.LASF755
 9393 0009 05       		.byte	0x5
 9394 000a 3A       		.uleb128 0x3a
 9395 000b BC6C0000 		.4byte	.LASF756
 9396 000f 05       		.byte	0x5
 9397 0010 41       		.uleb128 0x41
 9398 0011 3C310000 		.4byte	.LASF757
 9399 0015 00       		.byte	0
 9400              		.section	.debug_macro,"G",%progbits,wm4.uart_11xx.h.98.fe68b709973730a4fba3f3ce60c5c312,comdat
 9401              	.Ldebug_macro21:
 9402 0000 0400     		.2byte	0x4
 9403 0002 00       		.byte	0
 9404 0003 05       		.byte	0x5
 9405 0004 62       		.uleb128 0x62
 9406 0005 F80A0000 		.4byte	.LASF758
 9407 0009 05       		.byte	0x5
 9408 000a 67       		.uleb128 0x67
 9409 000b 99540000 		.4byte	.LASF759
 9410 000f 05       		.byte	0x5
 9411 0010 68       		.uleb128 0x68
 9412 0011 EB730000 		.4byte	.LASF760
 9413 0015 05       		.byte	0x5
 9414 0016 6D       		.uleb128 0x6d
 9415 0017 B1560000 		.4byte	.LASF761
 9416 001b 05       		.byte	0x5
 9417 001c 6E       		.uleb128 0x6e
 9418 001d CF2B0000 		.4byte	.LASF762
 9419 0021 05       		.byte	0x5
 9420 0022 73       		.uleb128 0x73
 9421 0023 DA560000 		.4byte	.LASF763
 9422 0027 05       		.byte	0x5
 9423 0028 74       		.uleb128 0x74
 9424 0029 D84B0000 		.4byte	.LASF764
 9425 002d 05       		.byte	0x5
 9426 002e 75       		.uleb128 0x75
 9427 002f 81470000 		.4byte	.LASF765
 9428 0033 05       		.byte	0x5
 9429 0034 76       		.uleb128 0x76
 9430 0035 215A0000 		.4byte	.LASF766
 9431 0039 05       		.byte	0x5
 9432 003a 77       		.uleb128 0x77
 9433 003b 266A0000 		.4byte	.LASF767
 9434 003f 05       		.byte	0x5
 9435 0040 78       		.uleb128 0x78
 9436 0041 022A0000 		.4byte	.LASF768
 9437 0045 05       		.byte	0x5
 9438 0046 79       		.uleb128 0x79
 9439 0047 106B0000 		.4byte	.LASF769
 9440 004b 05       		.byte	0x5
 9441 004c 7A       		.uleb128 0x7a
ARM GAS  /var/folders/z0/6xlwn_996xz3mwq1cgzkbq4r0000gp/T//cc0Pdjko.s 			page 186


 9442 004d 6E100000 		.4byte	.LASF770
 9443 0051 05       		.byte	0x5
 9444 0052 7B       		.uleb128 0x7b
 9445 0053 DF190000 		.4byte	.LASF771
 9446 0057 05       		.byte	0x5
 9447 0058 7C       		.uleb128 0x7c
 9448 0059 150A0000 		.4byte	.LASF772
 9449 005d 05       		.byte	0x5
 9450 005e 8101     		.uleb128 0x81
 9451 0060 DB430000 		.4byte	.LASF773
 9452 0064 05       		.byte	0x5
 9453 0065 8201     		.uleb128 0x82
 9454 0067 86320000 		.4byte	.LASF774
 9455 006b 05       		.byte	0x5
 9456 006c 8301     		.uleb128 0x83
 9457 006e AE2C0000 		.4byte	.LASF775
 9458 0072 05       		.byte	0x5
 9459 0073 8401     		.uleb128 0x84
 9460 0075 177E0000 		.4byte	.LASF776
 9461 0079 05       		.byte	0x5
 9462 007a 8501     		.uleb128 0x85
 9463 007c 8D260000 		.4byte	.LASF777
 9464 0080 05       		.byte	0x5
 9465 0081 8801     		.uleb128 0x88
 9466 0083 4B1A0000 		.4byte	.LASF778
 9467 0087 05       		.byte	0x5
 9468 0088 8901     		.uleb128 0x89
 9469 008a 955E0000 		.4byte	.LASF779
 9470 008e 05       		.byte	0x5
 9471 008f 8A01     		.uleb128 0x8a
 9472 0091 F46E0000 		.4byte	.LASF780
 9473 0095 05       		.byte	0x5
 9474 0096 8B01     		.uleb128 0x8b
 9475 0098 6E340000 		.4byte	.LASF781
 9476 009c 05       		.byte	0x5
 9477 009d 8C01     		.uleb128 0x8c
 9478 009f F3500000 		.4byte	.LASF782
 9479 00a3 05       		.byte	0x5
 9480 00a4 8D01     		.uleb128 0x8d
 9481 00a6 DA0B0000 		.4byte	.LASF783
 9482 00aa 05       		.byte	0x5
 9483 00ab 9201     		.uleb128 0x92
 9484 00ad 61180000 		.4byte	.LASF784
 9485 00b1 05       		.byte	0x5
 9486 00b2 9301     		.uleb128 0x93
 9487 00b4 FF690000 		.4byte	.LASF785
 9488 00b8 05       		.byte	0x5
 9489 00b9 9401     		.uleb128 0x94
 9490 00bb 4D350000 		.4byte	.LASF786
 9491 00bf 05       		.byte	0x5
 9492 00c0 9501     		.uleb128 0x95
 9493 00c2 09690000 		.4byte	.LASF787
 9494 00c6 05       		.byte	0x5
 9495 00c7 9601     		.uleb128 0x96
 9496 00c9 51210000 		.4byte	.LASF788
 9497 00cd 05       		.byte	0x5
 9498 00ce 9801     		.uleb128 0x98
ARM GAS  /var/folders/z0/6xlwn_996xz3mwq1cgzkbq4r0000gp/T//cc0Pdjko.s 			page 187


 9499 00d0 C10E0000 		.4byte	.LASF789
 9500 00d4 05       		.byte	0x5
 9501 00d5 9B01     		.uleb128 0x9b
 9502 00d7 1A0C0000 		.4byte	.LASF790
 9503 00db 05       		.byte	0x5
 9504 00dc 9C01     		.uleb128 0x9c
 9505 00de 4E110000 		.4byte	.LASF791
 9506 00e2 05       		.byte	0x5
 9507 00e3 9D01     		.uleb128 0x9d
 9508 00e5 C12A0000 		.4byte	.LASF792
 9509 00e9 05       		.byte	0x5
 9510 00ea 9E01     		.uleb128 0x9e
 9511 00ec A83D0000 		.4byte	.LASF793
 9512 00f0 05       		.byte	0x5
 9513 00f1 A401     		.uleb128 0xa4
 9514 00f3 BE270000 		.4byte	.LASF794
 9515 00f7 05       		.byte	0x5
 9516 00f8 A501     		.uleb128 0xa5
 9517 00fa 47630000 		.4byte	.LASF795
 9518 00fe 05       		.byte	0x5
 9519 00ff A601     		.uleb128 0xa6
 9520 0101 B6530000 		.4byte	.LASF796
 9521 0105 05       		.byte	0x5
 9522 0106 A701     		.uleb128 0xa7
 9523 0108 C1290000 		.4byte	.LASF797
 9524 010c 05       		.byte	0x5
 9525 010d A801     		.uleb128 0xa8
 9526 010f 3A330000 		.4byte	.LASF798
 9527 0113 05       		.byte	0x5
 9528 0114 AB01     		.uleb128 0xab
 9529 0116 50220000 		.4byte	.LASF799
 9530 011a 05       		.byte	0x5
 9531 011b AC01     		.uleb128 0xac
 9532 011d C27D0000 		.4byte	.LASF800
 9533 0121 05       		.byte	0x5
 9534 0122 AD01     		.uleb128 0xad
 9535 0124 1A4B0000 		.4byte	.LASF801
 9536 0128 05       		.byte	0x5
 9537 0129 B001     		.uleb128 0xb0
 9538 012b DC420000 		.4byte	.LASF802
 9539 012f 05       		.byte	0x5
 9540 0130 B101     		.uleb128 0xb1
 9541 0132 574E0000 		.4byte	.LASF803
 9542 0136 05       		.byte	0x5
 9543 0137 B201     		.uleb128 0xb2
 9544 0139 5B500000 		.4byte	.LASF804
 9545 013d 05       		.byte	0x5
 9546 013e B301     		.uleb128 0xb3
 9547 0140 BE6A0000 		.4byte	.LASF805
 9548 0144 05       		.byte	0x5
 9549 0145 B401     		.uleb128 0xb4
 9550 0147 BF420000 		.4byte	.LASF806
 9551 014b 05       		.byte	0x5
 9552 014c B501     		.uleb128 0xb5
 9553 014e 241F0000 		.4byte	.LASF807
 9554 0152 05       		.byte	0x5
 9555 0153 B601     		.uleb128 0xb6
ARM GAS  /var/folders/z0/6xlwn_996xz3mwq1cgzkbq4r0000gp/T//cc0Pdjko.s 			page 188


 9556 0155 C4020000 		.4byte	.LASF808
 9557 0159 05       		.byte	0x5
 9558 015a B701     		.uleb128 0xb7
 9559 015c 0B1D0000 		.4byte	.LASF809
 9560 0160 05       		.byte	0x5
 9561 0161 B801     		.uleb128 0xb8
 9562 0163 4A400000 		.4byte	.LASF810
 9563 0167 05       		.byte	0x5
 9564 0168 BD01     		.uleb128 0xbd
 9565 016a DA040000 		.4byte	.LASF811
 9566 016e 05       		.byte	0x5
 9567 016f BE01     		.uleb128 0xbe
 9568 0171 1D150000 		.4byte	.LASF812
 9569 0175 05       		.byte	0x5
 9570 0176 BF01     		.uleb128 0xbf
 9571 0178 C5170000 		.4byte	.LASF813
 9572 017c 05       		.byte	0x5
 9573 017d C001     		.uleb128 0xc0
 9574 017f 69110000 		.4byte	.LASF814
 9575 0183 05       		.byte	0x5
 9576 0184 C101     		.uleb128 0xc1
 9577 0186 08040000 		.4byte	.LASF815
 9578 018a 05       		.byte	0x5
 9579 018b C201     		.uleb128 0xc2
 9580 018d 100B0000 		.4byte	.LASF816
 9581 0191 05       		.byte	0x5
 9582 0192 C701     		.uleb128 0xc7
 9583 0194 334A0000 		.4byte	.LASF817
 9584 0198 05       		.byte	0x5
 9585 0199 C801     		.uleb128 0xc8
 9586 019b 39750000 		.4byte	.LASF818
 9587 019f 05       		.byte	0x5
 9588 01a0 C901     		.uleb128 0xc9
 9589 01a2 571C0000 		.4byte	.LASF819
 9590 01a6 05       		.byte	0x5
 9591 01a7 CA01     		.uleb128 0xca
 9592 01a9 A7350000 		.4byte	.LASF820
 9593 01ad 05       		.byte	0x5
 9594 01ae CB01     		.uleb128 0xcb
 9595 01b0 3B220000 		.4byte	.LASF821
 9596 01b4 05       		.byte	0x5
 9597 01b5 CC01     		.uleb128 0xcc
 9598 01b7 E3410000 		.4byte	.LASF822
 9599 01bb 05       		.byte	0x5
 9600 01bc CD01     		.uleb128 0xcd
 9601 01be 38460000 		.4byte	.LASF823
 9602 01c2 05       		.byte	0x5
 9603 01c3 CE01     		.uleb128 0xce
 9604 01c5 216E0000 		.4byte	.LASF824
 9605 01c9 05       		.byte	0x5
 9606 01ca CF01     		.uleb128 0xcf
 9607 01cc 49070000 		.4byte	.LASF825
 9608 01d0 05       		.byte	0x5
 9609 01d1 D001     		.uleb128 0xd0
 9610 01d3 4E0D0000 		.4byte	.LASF826
 9611 01d7 05       		.byte	0x5
 9612 01d8 D101     		.uleb128 0xd1
ARM GAS  /var/folders/z0/6xlwn_996xz3mwq1cgzkbq4r0000gp/T//cc0Pdjko.s 			page 189


 9613 01da 8E3D0000 		.4byte	.LASF827
 9614 01de 05       		.byte	0x5
 9615 01df D601     		.uleb128 0xd6
 9616 01e1 92450000 		.4byte	.LASF828
 9617 01e5 05       		.byte	0x5
 9618 01e6 D701     		.uleb128 0xd7
 9619 01e8 29720000 		.4byte	.LASF829
 9620 01ec 05       		.byte	0x5
 9621 01ed D801     		.uleb128 0xd8
 9622 01ef DD030000 		.4byte	.LASF830
 9623 01f3 05       		.byte	0x5
 9624 01f4 D901     		.uleb128 0xd9
 9625 01f6 FA410000 		.4byte	.LASF831
 9626 01fa 05       		.byte	0x5
 9627 01fb DA01     		.uleb128 0xda
 9628 01fd 8B7E0000 		.4byte	.LASF832
 9629 0201 05       		.byte	0x5
 9630 0202 DB01     		.uleb128 0xdb
 9631 0204 F4550000 		.4byte	.LASF833
 9632 0208 05       		.byte	0x5
 9633 0209 DC01     		.uleb128 0xdc
 9634 020b C15F0000 		.4byte	.LASF834
 9635 020f 05       		.byte	0x5
 9636 0210 DD01     		.uleb128 0xdd
 9637 0212 0A7D0000 		.4byte	.LASF835
 9638 0216 05       		.byte	0x5
 9639 0217 DE01     		.uleb128 0xde
 9640 0219 601D0000 		.4byte	.LASF836
 9641 021d 05       		.byte	0x5
 9642 021e E301     		.uleb128 0xe3
 9643 0220 DA300000 		.4byte	.LASF837
 9644 0224 05       		.byte	0x5
 9645 0225 E401     		.uleb128 0xe4
 9646 0227 92680000 		.4byte	.LASF838
 9647 022b 05       		.byte	0x5
 9648 022c E501     		.uleb128 0xe5
 9649 022e A9600000 		.4byte	.LASF839
 9650 0232 05       		.byte	0x5
 9651 0233 E601     		.uleb128 0xe6
 9652 0235 5C4A0000 		.4byte	.LASF840
 9653 0239 05       		.byte	0x5
 9654 023a E701     		.uleb128 0xe7
 9655 023c EF250000 		.4byte	.LASF841
 9656 0240 05       		.byte	0x5
 9657 0241 E801     		.uleb128 0xe8
 9658 0243 C1040000 		.4byte	.LASF842
 9659 0247 05       		.byte	0x5
 9660 0248 ED01     		.uleb128 0xed
 9661 024a C33D0000 		.4byte	.LASF843
 9662 024e 05       		.byte	0x5
 9663 024f EE01     		.uleb128 0xee
 9664 0251 C0110000 		.4byte	.LASF844
 9665 0255 05       		.byte	0x5
 9666 0256 EF01     		.uleb128 0xef
 9667 0258 59300000 		.4byte	.LASF845
 9668 025c 05       		.byte	0x5
 9669 025d F001     		.uleb128 0xf0
ARM GAS  /var/folders/z0/6xlwn_996xz3mwq1cgzkbq4r0000gp/T//cc0Pdjko.s 			page 190


 9670 025f 91170000 		.4byte	.LASF846
 9671 0263 05       		.byte	0x5
 9672 0264 F201     		.uleb128 0xf2
 9673 0266 D8490000 		.4byte	.LASF847
 9674 026a 05       		.byte	0x5
 9675 026b F301     		.uleb128 0xf3
 9676 026d 994E0000 		.4byte	.LASF848
 9677 0271 05       		.byte	0x5
 9678 0272 F601     		.uleb128 0xf6
 9679 0274 354B0000 		.4byte	.LASF849
 9680 0278 05       		.byte	0x5
 9681 0279 FB01     		.uleb128 0xfb
 9682 027b 811D0000 		.4byte	.LASF850
 9683 027f 05       		.byte	0x5
 9684 0280 FC01     		.uleb128 0xfc
 9685 0282 39360000 		.4byte	.LASF851
 9686 0286 05       		.byte	0x5
 9687 0287 FD01     		.uleb128 0xfd
 9688 0289 BB780000 		.4byte	.LASF852
 9689 028d 05       		.byte	0x5
 9690 028e FE01     		.uleb128 0xfe
 9691 0290 301C0000 		.4byte	.LASF853
 9692 0294 05       		.byte	0x5
 9693 0295 FF01     		.uleb128 0xff
 9694 0297 9A0B0000 		.4byte	.LASF854
 9695 029b 05       		.byte	0x5
 9696 029c 8402     		.uleb128 0x104
 9697 029e 093E0000 		.4byte	.LASF855
 9698 02a2 05       		.byte	0x5
 9699 02a3 8902     		.uleb128 0x109
 9700 02a5 16420000 		.4byte	.LASF856
 9701 02a9 05       		.byte	0x5
 9702 02aa 8A02     		.uleb128 0x10a
 9703 02ac 2D730000 		.4byte	.LASF857
 9704 02b0 05       		.byte	0x5
 9705 02b1 8B02     		.uleb128 0x10b
 9706 02b3 01310000 		.4byte	.LASF858
 9707 02b7 05       		.byte	0x5
 9708 02b8 8C02     		.uleb128 0x10c
 9709 02ba DA5E0000 		.4byte	.LASF859
 9710 02be 05       		.byte	0x5
 9711 02bf 8D02     		.uleb128 0x10d
 9712 02c1 69310000 		.4byte	.LASF860
 9713 02c5 05       		.byte	0x5
 9714 02c6 9202     		.uleb128 0x112
 9715 02c8 A02A0000 		.4byte	.LASF861
 9716 02cc 05       		.byte	0x5
 9717 02cd 9302     		.uleb128 0x113
 9718 02cf E3650000 		.4byte	.LASF862
 9719 02d3 05       		.byte	0x5
 9720 02d4 9402     		.uleb128 0x114
 9721 02d6 1F6D0000 		.4byte	.LASF863
 9722 02da 05       		.byte	0x5
 9723 02db 9902     		.uleb128 0x119
 9724 02dd 02100000 		.4byte	.LASF864
 9725 02e1 05       		.byte	0x5
 9726 02e2 9A02     		.uleb128 0x11a
ARM GAS  /var/folders/z0/6xlwn_996xz3mwq1cgzkbq4r0000gp/T//cc0Pdjko.s 			page 191


 9727 02e4 C0060000 		.4byte	.LASF865
 9728 02e8 05       		.byte	0x5
 9729 02e9 9F02     		.uleb128 0x11f
 9730 02eb 175D0000 		.4byte	.LASF866
 9731 02ef 05       		.byte	0x5
 9732 02f0 A002     		.uleb128 0x120
 9733 02f2 F2370000 		.4byte	.LASF867
 9734 02f6 05       		.byte	0x5
 9735 02f7 A102     		.uleb128 0x121
 9736 02f9 F9510000 		.4byte	.LASF868
 9737 02fd 05       		.byte	0x5
 9738 02fe A202     		.uleb128 0x122
 9739 0300 555D0000 		.4byte	.LASF869
 9740 0304 05       		.byte	0x5
 9741 0305 A302     		.uleb128 0x123
 9742 0307 89530000 		.4byte	.LASF870
 9743 030b 05       		.byte	0x5
 9744 030c A402     		.uleb128 0x124
 9745 030e 247A0000 		.4byte	.LASF871
 9746 0312 05       		.byte	0x5
 9747 0313 A502     		.uleb128 0x125
 9748 0315 9A550000 		.4byte	.LASF872
 9749 0319 00       		.byte	0
 9750              		.section	.debug_macro,"G",%progbits,wm4.wwdt_11xx.h.33.5768344983cb842df69cc91ea86cabb0,comdat
 9751              	.Ldebug_macro22:
 9752 0000 0400     		.2byte	0x4
 9753 0002 00       		.byte	0
 9754 0003 05       		.byte	0x5
 9755 0004 21       		.uleb128 0x21
 9756 0005 EC100000 		.4byte	.LASF873
 9757 0009 05       		.byte	0x5
 9758 000a 4B       		.uleb128 0x4b
 9759 000b 14670000 		.4byte	.LASF874
 9760 000f 05       		.byte	0x5
 9761 0010 4D       		.uleb128 0x4d
 9762 0011 55010000 		.4byte	.LASF875
 9763 0015 05       		.byte	0x5
 9764 0016 4F       		.uleb128 0x4f
 9765 0017 97580000 		.4byte	.LASF876
 9766 001b 05       		.byte	0x5
 9767 001c 51       		.uleb128 0x51
 9768 001d AF3C0000 		.4byte	.LASF877
 9769 0021 05       		.byte	0x5
 9770 0022 53       		.uleb128 0x53
 9771 0023 41790000 		.4byte	.LASF878
 9772 0027 05       		.byte	0x5
 9773 0028 55       		.uleb128 0x55
 9774 0029 71420000 		.4byte	.LASF879
 9775 002d 00       		.byte	0
 9776              		.section	.debug_macro,"G",%progbits,wm4.ssp_11xx.h.33.af054d3d65f4cb0c078be40bb872ec37,comdat
 9777              	.Ldebug_macro23:
 9778 0000 0400     		.2byte	0x4
 9779 0002 00       		.byte	0
 9780 0003 05       		.byte	0x5
 9781 0004 21       		.uleb128 0x21
 9782 0005 E72B0000 		.4byte	.LASF880
 9783 0009 05       		.byte	0x5
ARM GAS  /var/folders/z0/6xlwn_996xz3mwq1cgzkbq4r0000gp/T//cc0Pdjko.s 			page 192


 9784 000a 40       		.uleb128 0x40
 9785 000b DE4C0000 		.4byte	.LASF881
 9786 000f 05       		.byte	0x5
 9787 0010 42       		.uleb128 0x42
 9788 0011 23070000 		.4byte	.LASF882
 9789 0015 05       		.byte	0x5
 9790 0016 44       		.uleb128 0x44
 9791 0017 0E290000 		.4byte	.LASF883
 9792 001b 05       		.byte	0x5
 9793 001c 46       		.uleb128 0x46
 9794 001d 23270000 		.4byte	.LASF884
 9795 0021 05       		.byte	0x5
 9796 0022 49       		.uleb128 0x49
 9797 0023 D33F0000 		.4byte	.LASF885
 9798 0027 05       		.byte	0x5
 9799 0028 4A       		.uleb128 0x4a
 9800 0029 74090000 		.4byte	.LASF886
 9801 002d 05       		.byte	0x5
 9802 002e 4D       		.uleb128 0x4d
 9803 002f E7200000 		.4byte	.LASF887
 9804 0033 05       		.byte	0x5
 9805 0034 4E       		.uleb128 0x4e
 9806 0035 8E710000 		.4byte	.LASF888
 9807 0039 05       		.byte	0x5
 9808 003a 51       		.uleb128 0x51
 9809 003b 741A0000 		.4byte	.LASF889
 9810 003f 05       		.byte	0x5
 9811 0040 53       		.uleb128 0x53
 9812 0041 F8110000 		.4byte	.LASF890
 9813 0045 05       		.byte	0x5
 9814 0046 55       		.uleb128 0x55
 9815 0047 F8110000 		.4byte	.LASF890
 9816 004b 05       		.byte	0x5
 9817 004c 58       		.uleb128 0x58
 9818 004d 741A0000 		.4byte	.LASF889
 9819 0051 05       		.byte	0x5
 9820 0052 5F       		.uleb128 0x5f
 9821 0053 80520000 		.4byte	.LASF891
 9822 0057 05       		.byte	0x5
 9823 0058 61       		.uleb128 0x61
 9824 0059 F81A0000 		.4byte	.LASF892
 9825 005d 05       		.byte	0x5
 9826 005e 63       		.uleb128 0x63
 9827 005f 19390000 		.4byte	.LASF893
 9828 0063 05       		.byte	0x5
 9829 0064 64       		.uleb128 0x64
 9830 0065 5A390000 		.4byte	.LASF894
 9831 0069 05       		.byte	0x5
 9832 006a 67       		.uleb128 0x67
 9833 006b D65F0000 		.4byte	.LASF895
 9834 006f 05       		.byte	0x5
 9835 0070 69       		.uleb128 0x69
 9836 0071 F27A0000 		.4byte	.LASF896
 9837 0075 05       		.byte	0x5
 9838 0076 6C       		.uleb128 0x6c
 9839 0077 E4790000 		.4byte	.LASF897
 9840 007b 05       		.byte	0x5
ARM GAS  /var/folders/z0/6xlwn_996xz3mwq1cgzkbq4r0000gp/T//cc0Pdjko.s 			page 193


 9841 007c 72       		.uleb128 0x72
 9842 007d DF1E0000 		.4byte	.LASF898
 9843 0081 05       		.byte	0x5
 9844 0082 79       		.uleb128 0x79
 9845 0083 E96C0000 		.4byte	.LASF899
 9846 0087 05       		.byte	0x5
 9847 0088 7C       		.uleb128 0x7c
 9848 0089 C1070000 		.4byte	.LASF900
 9849 008d 05       		.byte	0x5
 9850 008e C503     		.uleb128 0x1c5
 9851 0090 CF5B0000 		.4byte	.LASF901
 9852 0094 05       		.byte	0x5
 9853 0095 C603     		.uleb128 0x1c6
 9854 0097 001F0000 		.4byte	.LASF902
 9855 009b 05       		.byte	0x5
 9856 009c CF03     		.uleb128 0x1cf
 9857 009e 95190000 		.4byte	.LASF903
 9858 00a2 05       		.byte	0x5
 9859 00a3 D003     		.uleb128 0x1d0
 9860 00a5 6C1C0000 		.4byte	.LASF904
 9861 00a9 05       		.byte	0x5
 9862 00aa D303     		.uleb128 0x1d3
 9863 00ac 307C0000 		.4byte	.LASF905
 9864 00b0 05       		.byte	0x5
 9865 00b1 D403     		.uleb128 0x1d4
 9866 00b3 02400000 		.4byte	.LASF906
 9867 00b7 00       		.byte	0
 9868              		.section	.debug_macro,"G",%progbits,wm4.error.h.38.ae74fe1dd9d19c80c505f1fda144fce8,comdat
 9869              	.Ldebug_macro24:
 9870 0000 0400     		.2byte	0x4
 9871 0002 00       		.byte	0
 9872 0003 05       		.byte	0x5
 9873 0004 26       		.uleb128 0x26
 9874 0005 682F0000 		.4byte	.LASF908
 9875 0009 05       		.byte	0x5
 9876 000a 8401     		.uleb128 0x84
 9877 000c 37080000 		.4byte	.LASF909
 9878 0010 00       		.byte	0
 9879              		.section	.debug_macro,"G",%progbits,wm4.adc_11xx.h.33.6ce7433ac6b30df70a6993d01dbd513f,comdat
 9880              	.Ldebug_macro25:
 9881 0000 0400     		.2byte	0x4
 9882 0002 00       		.byte	0
 9883 0003 05       		.byte	0x5
 9884 0004 21       		.uleb128 0x21
 9885 0005 A21A0000 		.4byte	.LASF910
 9886 0009 05       		.byte	0x5
 9887 000a 2F       		.uleb128 0x2f
 9888 000b 2B7D0000 		.4byte	.LASF911
 9889 000f 05       		.byte	0x5
 9890 0010 40       		.uleb128 0x40
 9891 0011 39100000 		.4byte	.LASF912
 9892 0015 05       		.byte	0x5
 9893 0016 41       		.uleb128 0x41
 9894 0017 E44A0000 		.4byte	.LASF913
 9895 001b 05       		.byte	0x5
 9896 001c 43       		.uleb128 0x43
 9897 001d 10410000 		.4byte	.LASF914
ARM GAS  /var/folders/z0/6xlwn_996xz3mwq1cgzkbq4r0000gp/T//cc0Pdjko.s 			page 194


 9898 0021 05       		.byte	0x5
 9899 0022 44       		.uleb128 0x44
 9900 0023 D16D0000 		.4byte	.LASF915
 9901 0027 05       		.byte	0x5
 9902 0028 45       		.uleb128 0x45
 9903 0029 F63B0000 		.4byte	.LASF916
 9904 002d 05       		.byte	0x5
 9905 002e 46       		.uleb128 0x46
 9906 002f 327E0000 		.4byte	.LASF917
 9907 0033 05       		.byte	0x5
 9908 0034 47       		.uleb128 0x47
 9909 0035 767A0000 		.4byte	.LASF918
 9910 0039 05       		.byte	0x5
 9911 003a 48       		.uleb128 0x48
 9912 003b 56770000 		.4byte	.LASF919
 9913 003f 05       		.byte	0x5
 9914 0040 49       		.uleb128 0x49
 9915 0041 3E610000 		.4byte	.LASF920
 9916 0045 05       		.byte	0x5
 9917 0046 4A       		.uleb128 0x4a
 9918 0047 F9190000 		.4byte	.LASF921
 9919 004b 05       		.byte	0x5
 9920 004c 4B       		.uleb128 0x4b
 9921 004d 2E200000 		.4byte	.LASF922
 9922 0051 05       		.byte	0x5
 9923 0052 4C       		.uleb128 0x4c
 9924 0053 14440000 		.4byte	.LASF923
 9925 0057 05       		.byte	0x5
 9926 0058 4D       		.uleb128 0x4d
 9927 0059 68790000 		.4byte	.LASF924
 9928 005d 05       		.byte	0x5
 9929 005e 4E       		.uleb128 0x4e
 9930 005f AF2D0000 		.4byte	.LASF925
 9931 0063 05       		.byte	0x5
 9932 0064 4F       		.uleb128 0x4f
 9933 0065 D63C0000 		.4byte	.LASF926
 9934 0069 05       		.byte	0x5
 9935 006a 50       		.uleb128 0x50
 9936 006b 1D610000 		.4byte	.LASF927
 9937 006f 05       		.byte	0x5
 9938 0070 51       		.uleb128 0x51
 9939 0071 66540000 		.4byte	.LASF928
 9940 0075 05       		.byte	0x5
 9941 0076 52       		.uleb128 0x52
 9942 0077 455B0000 		.4byte	.LASF929
 9943 007b 00       		.byte	0
 9944              		.section	.debug_macro,"G",%progbits,wm4.i2c_11xx.h.33.2b506d1350e00a8c26e8bf006a5f9390,comdat
 9945              	.Ldebug_macro26:
 9946 0000 0400     		.2byte	0x4
 9947 0002 00       		.byte	0
 9948 0003 05       		.byte	0x5
 9949 0004 21       		.uleb128 0x21
 9950 0005 126E0000 		.4byte	.LASF931
 9951 0009 05       		.byte	0x5
 9952 000a 46       		.uleb128 0x46
 9953 000b 350E0000 		.4byte	.LASF932
 9954 000f 05       		.byte	0x5
ARM GAS  /var/folders/z0/6xlwn_996xz3mwq1cgzkbq4r0000gp/T//cc0Pdjko.s 			page 195


 9955 0010 47       		.uleb128 0x47
 9956 0011 4F580000 		.4byte	.LASF933
 9957 0015 05       		.byte	0x5
 9958 0016 48       		.uleb128 0x48
 9959 0017 691B0000 		.4byte	.LASF934
 9960 001b 05       		.byte	0x5
 9961 001c 49       		.uleb128 0x49
 9962 001d A20C0000 		.4byte	.LASF935
 9963 0021 05       		.byte	0x5
 9964 0022 4E       		.uleb128 0x4e
 9965 0023 A86A0000 		.4byte	.LASF936
 9966 0027 05       		.byte	0x5
 9967 0028 53       		.uleb128 0x53
 9968 0029 95180000 		.4byte	.LASF937
 9969 002d 05       		.byte	0x5
 9970 002e 54       		.uleb128 0x54
 9971 002f BF3B0000 		.4byte	.LASF938
 9972 0033 05       		.byte	0x5
 9973 0034 55       		.uleb128 0x55
 9974 0035 00000000 		.4byte	.LASF939
 9975 0039 05       		.byte	0x5
 9976 003a 56       		.uleb128 0x56
 9977 003b 9F2E0000 		.4byte	.LASF940
 9978 003f 05       		.byte	0x5
 9979 0040 57       		.uleb128 0x57
 9980 0041 F6530000 		.4byte	.LASF941
 9981 0045 05       		.byte	0x5
 9982 0046 5C       		.uleb128 0x5c
 9983 0047 B2470000 		.4byte	.LASF942
 9984 004b 05       		.byte	0x5
 9985 004c 5D       		.uleb128 0x5d
 9986 004d 300C0000 		.4byte	.LASF943
 9987 0051 05       		.byte	0x5
 9988 0052 5E       		.uleb128 0x5e
 9989 0053 11540000 		.4byte	.LASF944
 9990 0057 05       		.byte	0x5
 9991 0058 5F       		.uleb128 0x5f
 9992 0059 850C0000 		.4byte	.LASF945
 9993 005d 05       		.byte	0x5
 9994 005e 60       		.uleb128 0x60
 9995 005f A0250000 		.4byte	.LASF946
 9996 0063 05       		.byte	0x5
 9997 0064 65       		.uleb128 0x65
 9998 0065 C84C0000 		.4byte	.LASF947
 9999 0069 05       		.byte	0x5
 10000 006a 66       		.uleb128 0x66
 10001 006b CE530000 		.4byte	.LASF948
 10002 006f 05       		.byte	0x5
 10003 0070 67       		.uleb128 0x67
 10004 0071 80410000 		.4byte	.LASF949
 10005 0075 05       		.byte	0x5
 10006 0076 68       		.uleb128 0x68
 10007 0077 07200000 		.4byte	.LASF950
 10008 007b 05       		.byte	0x5
 10009 007c 69       		.uleb128 0x69
 10010 007d 73160000 		.4byte	.LASF951
 10011 0081 05       		.byte	0x5
ARM GAS  /var/folders/z0/6xlwn_996xz3mwq1cgzkbq4r0000gp/T//cc0Pdjko.s 			page 196


 10012 0082 6E       		.uleb128 0x6e
 10013 0083 723E0000 		.4byte	.LASF952
 10014 0087 05       		.byte	0x5
 10015 0088 6F       		.uleb128 0x6f
 10016 0089 D6500000 		.4byte	.LASF953
 10017 008d 05       		.byte	0x5
 10018 008e 74       		.uleb128 0x74
 10019 008f B2690000 		.4byte	.LASF954
 10020 0093 05       		.byte	0x5
 10021 0094 75       		.uleb128 0x75
 10022 0095 56090000 		.4byte	.LASF955
 10023 0099 05       		.byte	0x5
 10024 009a 7A       		.uleb128 0x7a
 10025 009b B94B0000 		.4byte	.LASF956
 10026 009f 05       		.byte	0x5
 10027 00a0 7B       		.uleb128 0x7b
 10028 00a1 74190000 		.4byte	.LASF957
 10029 00a5 05       		.byte	0x5
 10030 00a6 7C       		.uleb128 0x7c
 10031 00a7 FB240000 		.4byte	.LASF958
 10032 00ab 05       		.byte	0x5
 10033 00ac 7D       		.uleb128 0x7d
 10034 00ad 9C420000 		.4byte	.LASF959
 10035 00b1 05       		.byte	0x5
 10036 00b2 7E       		.uleb128 0x7e
 10037 00b3 38300000 		.4byte	.LASF960
 10038 00b7 05       		.byte	0x5
 10039 00b8 7F       		.uleb128 0x7f
 10040 00b9 5E520000 		.4byte	.LASF961
 10041 00bd 05       		.byte	0x5
 10042 00be 8001     		.uleb128 0x80
 10043 00c0 2D1B0000 		.4byte	.LASF962
 10044 00c4 05       		.byte	0x5
 10045 00c5 8501     		.uleb128 0x85
 10046 00c7 19020000 		.4byte	.LASF963
 10047 00cb 05       		.byte	0x5
 10048 00cc 8601     		.uleb128 0x86
 10049 00ce A5520000 		.4byte	.LASF964
 10050 00d2 05       		.byte	0x5
 10051 00d3 8701     		.uleb128 0x87
 10052 00d5 4D2C0000 		.4byte	.LASF965
 10053 00d9 05       		.byte	0x5
 10054 00da 8801     		.uleb128 0x88
 10055 00dc FA620000 		.4byte	.LASF966
 10056 00e0 05       		.byte	0x5
 10057 00e1 8901     		.uleb128 0x89
 10058 00e3 9E070000 		.4byte	.LASF967
 10059 00e7 05       		.byte	0x5
 10060 00e8 8A01     		.uleb128 0x8a
 10061 00ea F10C0000 		.4byte	.LASF968
 10062 00ee 05       		.byte	0x5
 10063 00ef 8B01     		.uleb128 0x8b
 10064 00f1 FC100000 		.4byte	.LASF969
 10065 00f5 05       		.byte	0x5
 10066 00f6 9001     		.uleb128 0x90
 10067 00f8 3C5F0000 		.4byte	.LASF970
 10068 00fc 05       		.byte	0x5
ARM GAS  /var/folders/z0/6xlwn_996xz3mwq1cgzkbq4r0000gp/T//cc0Pdjko.s 			page 197


 10069 00fd 9101     		.uleb128 0x91
 10070 00ff DC770000 		.4byte	.LASF971
 10071 0103 05       		.byte	0x5
 10072 0104 9301     		.uleb128 0x93
 10073 0106 5F4D0000 		.4byte	.LASF972
 10074 010a 05       		.byte	0x5
 10075 010b 9401     		.uleb128 0x94
 10076 010d 23500000 		.4byte	.LASF973
 10077 0111 05       		.byte	0x5
 10078 0112 9601     		.uleb128 0x96
 10079 0114 5C250000 		.4byte	.LASF974
 10080 0118 05       		.byte	0x5
 10081 0119 9701     		.uleb128 0x97
 10082 011b C70C0000 		.4byte	.LASF975
 10083 011f 05       		.byte	0x5
 10084 0120 9801     		.uleb128 0x98
 10085 0122 A6130000 		.4byte	.LASF976
 10086 0126 05       		.byte	0x5
 10087 0127 9901     		.uleb128 0x99
 10088 0129 CE120000 		.4byte	.LASF977
 10089 012d 05       		.byte	0x5
 10090 012e 9A01     		.uleb128 0x9a
 10091 0130 DD2F0000 		.4byte	.LASF978
 10092 0134 05       		.byte	0x5
 10093 0135 A001     		.uleb128 0xa0
 10094 0137 7E0D0000 		.4byte	.LASF979
 10095 013b 05       		.byte	0x5
 10096 013c A101     		.uleb128 0xa1
 10097 013e FB4F0000 		.4byte	.LASF980
 10098 0142 05       		.byte	0x5
 10099 0143 A301     		.uleb128 0xa3
 10100 0145 E0170000 		.4byte	.LASF981
 10101 0149 05       		.byte	0x5
 10102 014a A401     		.uleb128 0xa4
 10103 014c 81510000 		.4byte	.LASF982
 10104 0150 05       		.byte	0x5
 10105 0151 A501     		.uleb128 0xa5
 10106 0153 EA720000 		.4byte	.LASF983
 10107 0157 05       		.byte	0x5
 10108 0158 A601     		.uleb128 0xa6
 10109 015a BA300000 		.4byte	.LASF984
 10110 015e 05       		.byte	0x5
 10111 015f AB01     		.uleb128 0xab
 10112 0161 1F330000 		.4byte	.LASF985
 10113 0165 05       		.byte	0x5
 10114 0166 AC01     		.uleb128 0xac
 10115 0168 B66D0000 		.4byte	.LASF986
 10116 016c 05       		.byte	0x5
 10117 016d B201     		.uleb128 0xb2
 10118 016f 55000000 		.4byte	.LASF987
 10119 0173 05       		.byte	0x5
 10120 0174 B301     		.uleb128 0xb3
 10121 0176 4E750000 		.4byte	.LASF988
 10122 017a 05       		.byte	0x5
 10123 017b B401     		.uleb128 0xb4
 10124 017d 6E440000 		.4byte	.LASF989
 10125 0181 05       		.byte	0x5
ARM GAS  /var/folders/z0/6xlwn_996xz3mwq1cgzkbq4r0000gp/T//cc0Pdjko.s 			page 198


 10126 0182 B501     		.uleb128 0xb5
 10127 0184 392D0000 		.4byte	.LASF990
 10128 0188 05       		.byte	0x5
 10129 0189 BA01     		.uleb128 0xba
 10130 018b 32780000 		.4byte	.LASF991
 10131 018f 05       		.byte	0x5
 10132 0190 BF01     		.uleb128 0xbf
 10133 0192 04680000 		.4byte	.LASF992
 10134 0196 05       		.byte	0x5
 10135 0197 C001     		.uleb128 0xc0
 10136 0199 D3350000 		.4byte	.LASF993
 10137 019d 05       		.byte	0x5
 10138 019e C501     		.uleb128 0xc5
 10139 01a0 0E590000 		.4byte	.LASF994
 10140 01a4 05       		.byte	0x5
 10141 01a5 CA01     		.uleb128 0xca
 10142 01a7 D93E0000 		.4byte	.LASF995
 10143 01ab 05       		.byte	0x5
 10144 01ac CF01     		.uleb128 0xcf
 10145 01ae 32420000 		.4byte	.LASF996
 10146 01b2 05       		.byte	0x5
 10147 01b3 D401     		.uleb128 0xd4
 10148 01b5 435C0000 		.4byte	.LASF997
 10149 01b9 05       		.byte	0x5
 10150 01ba D501     		.uleb128 0xd5
 10151 01bc A17E0000 		.4byte	.LASF998
 10152 01c0 05       		.byte	0x5
 10153 01c1 D601     		.uleb128 0xd6
 10154 01c3 80400000 		.4byte	.LASF999
 10155 01c7 05       		.byte	0x5
 10156 01c8 DB01     		.uleb128 0xdb
 10157 01ca 3F550000 		.4byte	.LASF1000
 10158 01ce 05       		.byte	0x5
 10159 01cf DC01     		.uleb128 0xdc
 10160 01d1 755D0000 		.4byte	.LASF1001
 10161 01d5 05       		.byte	0x5
 10162 01d6 DD01     		.uleb128 0xdd
 10163 01d8 42010000 		.4byte	.LASF1002
 10164 01dc 05       		.byte	0x5
 10165 01dd DE01     		.uleb128 0xde
 10166 01df 7D390000 		.4byte	.LASF1003
 10167 01e3 05       		.byte	0x5
 10168 01e4 DF01     		.uleb128 0xdf
 10169 01e6 315C0000 		.4byte	.LASF1004
 10170 01ea 05       		.byte	0x5
 10171 01eb E001     		.uleb128 0xe0
 10172 01ed 4F620000 		.4byte	.LASF1005
 10173 01f1 05       		.byte	0x5
 10174 01f2 E101     		.uleb128 0xe1
 10175 01f4 A86A0000 		.4byte	.LASF936
 10176 01f8 05       		.byte	0x5
 10177 01f9 E301     		.uleb128 0xe3
 10178 01fb A16D0000 		.4byte	.LASF1006
 10179 01ff 05       		.byte	0x5
 10180 0200 E401     		.uleb128 0xe4
 10181 0202 3D160000 		.4byte	.LASF1007
 10182 0206 05       		.byte	0x5
ARM GAS  /var/folders/z0/6xlwn_996xz3mwq1cgzkbq4r0000gp/T//cc0Pdjko.s 			page 199


 10183 0207 E601     		.uleb128 0xe6
 10184 0209 482A0000 		.4byte	.LASF1008
 10185 020d 05       		.byte	0x5
 10186 020e EB01     		.uleb128 0xeb
 10187 0210 2E520000 		.4byte	.LASF1009
 10188 0214 05       		.byte	0x5
 10189 0215 EC01     		.uleb128 0xec
 10190 0217 C11F0000 		.4byte	.LASF1010
 10191 021b 00       		.byte	0
 10192              		.section	.debug_macro,"G",%progbits,wm4.ccand_11xx.h.33.99627f4b529fecdc77b0877ab6fe5266,comdat
 10193              	.Ldebug_macro27:
 10194 0000 0400     		.2byte	0x4
 10195 0002 00       		.byte	0
 10196 0003 05       		.byte	0x5
 10197 0004 21       		.uleb128 0x21
 10198 0005 467D0000 		.4byte	.LASF1011
 10199 0009 05       		.byte	0x5
 10200 000a 6E       		.uleb128 0x6e
 10201 000b 0C2D0000 		.4byte	.LASF1012
 10202 000f 05       		.byte	0x5
 10203 0010 6F       		.uleb128 0x6f
 10204 0011 A7010000 		.4byte	.LASF1013
 10205 0015 05       		.byte	0x5
 10206 0016 70       		.uleb128 0x70
 10207 0017 F4400000 		.4byte	.LASF1014
 10208 001b 05       		.byte	0x5
 10209 001c 71       		.uleb128 0x71
 10210 001d D67A0000 		.4byte	.LASF1015
 10211 0021 05       		.byte	0x5
 10212 0022 72       		.uleb128 0x72
 10213 0023 45180000 		.4byte	.LASF1016
 10214 0027 05       		.byte	0x5
 10215 0028 73       		.uleb128 0x73
 10216 0029 9B0F0000 		.4byte	.LASF1017
 10217 002d 05       		.byte	0x5
 10218 002e 74       		.uleb128 0x74
 10219 002f 5F7B0000 		.4byte	.LASF1018
 10220 0033 05       		.byte	0x5
 10221 0034 75       		.uleb128 0x75
 10222 0035 B92E0000 		.4byte	.LASF1019
 10223 0039 05       		.byte	0x5
 10224 003a 76       		.uleb128 0x76
 10225 003b 5E680000 		.4byte	.LASF1020
 10226 003f 05       		.byte	0x5
 10227 0040 77       		.uleb128 0x77
 10228 0041 440E0000 		.4byte	.LASF1021
 10229 0045 05       		.byte	0x5
 10230 0046 7C       		.uleb128 0x7c
 10231 0047 AE050000 		.4byte	.LASF1022
 10232 004b 05       		.byte	0x5
 10233 004c 7D       		.uleb128 0x7d
 10234 004d B9260000 		.4byte	.LASF1023
 10235 0051 05       		.byte	0x5
 10236 0052 7E       		.uleb128 0x7e
 10237 0053 9E300000 		.4byte	.LASF1024
 10238 0057 05       		.byte	0x5
 10239 0058 7F       		.uleb128 0x7f
ARM GAS  /var/folders/z0/6xlwn_996xz3mwq1cgzkbq4r0000gp/T//cc0Pdjko.s 			page 200


 10240 0059 837B0000 		.4byte	.LASF1025
 10241 005d 05       		.byte	0x5
 10242 005e 9101     		.uleb128 0x91
 10243 0060 5E200000 		.4byte	.LASF1026
 10244 0064 05       		.byte	0x5
 10245 0065 9201     		.uleb128 0x92
 10246 0067 07720000 		.4byte	.LASF1027
 10247 006b 05       		.byte	0x5
 10248 006c 9301     		.uleb128 0x93
 10249 006e 35040000 		.4byte	.LASF1028
 10250 0072 05       		.byte	0x5
 10251 0073 9401     		.uleb128 0x94
 10252 0075 2B0D0000 		.4byte	.LASF1029
 10253 0079 05       		.byte	0x5
 10254 007a 9501     		.uleb128 0x95
 10255 007c 5E580000 		.4byte	.LASF1030
 10256 0080 05       		.byte	0x5
 10257 0081 9601     		.uleb128 0x96
 10258 0083 89600000 		.4byte	.LASF1031
 10259 0087 05       		.byte	0x5
 10260 0088 9701     		.uleb128 0x97
 10261 008a 7C780000 		.4byte	.LASF1032
 10262 008e 05       		.byte	0x5
 10263 008f 9801     		.uleb128 0x98
 10264 0091 DC2A0000 		.4byte	.LASF1033
 10265 0095 05       		.byte	0x5
 10266 0096 9901     		.uleb128 0x99
 10267 0098 C6570000 		.4byte	.LASF1034
 10268 009c 05       		.byte	0x5
 10269 009d 9A01     		.uleb128 0x9a
 10270 009f 38230000 		.4byte	.LASF1035
 10271 00a3 05       		.byte	0x5
 10272 00a4 9B01     		.uleb128 0x9b
 10273 00a6 09350000 		.4byte	.LASF1036
 10274 00aa 05       		.byte	0x5
 10275 00ab 9C01     		.uleb128 0x9c
 10276 00ad 401E0000 		.4byte	.LASF1037
 10277 00b1 05       		.byte	0x5
 10278 00b2 9D01     		.uleb128 0x9d
 10279 00b4 567A0000 		.4byte	.LASF1038
 10280 00b8 05       		.byte	0x5
 10281 00b9 9E01     		.uleb128 0x9e
 10282 00bb FC520000 		.4byte	.LASF1039
 10283 00bf 05       		.byte	0x5
 10284 00c0 9F01     		.uleb128 0x9f
 10285 00c2 EE470000 		.4byte	.LASF1040
 10286 00c6 05       		.byte	0x5
 10287 00c7 A901     		.uleb128 0xa9
 10288 00c9 B0240000 		.4byte	.LASF1041
 10289 00cd 05       		.byte	0x5
 10290 00ce AA01     		.uleb128 0xaa
 10291 00d0 3E140000 		.4byte	.LASF1042
 10292 00d4 05       		.byte	0x5
 10293 00d5 AB01     		.uleb128 0xab
 10294 00d7 E3210000 		.4byte	.LASF1043
 10295 00db 05       		.byte	0x5
 10296 00dc AC01     		.uleb128 0xac
ARM GAS  /var/folders/z0/6xlwn_996xz3mwq1cgzkbq4r0000gp/T//cc0Pdjko.s 			page 201


 10297 00de CE4F0000 		.4byte	.LASF1044
 10298 00e2 05       		.byte	0x5
 10299 00e3 AD01     		.uleb128 0xad
 10300 00e5 6A240000 		.4byte	.LASF1045
 10301 00e9 05       		.byte	0x5
 10302 00ea AE01     		.uleb128 0xae
 10303 00ec DA3A0000 		.4byte	.LASF1046
 10304 00f0 05       		.byte	0x5
 10305 00f1 AF01     		.uleb128 0xaf
 10306 00f3 58490000 		.4byte	.LASF1047
 10307 00f7 05       		.byte	0x5
 10308 00f8 C401     		.uleb128 0xc4
 10309 00fa D9780000 		.4byte	.LASF1048
 10310 00fe 05       		.byte	0x5
 10311 00ff C501     		.uleb128 0xc5
 10312 0101 C4660000 		.4byte	.LASF1049
 10313 0105 05       		.byte	0x5
 10314 0106 C601     		.uleb128 0xc6
 10315 0108 D75A0000 		.4byte	.LASF1050
 10316 010c 05       		.byte	0x5
 10317 010d C901     		.uleb128 0xc9
 10318 010f F0440000 		.4byte	.LASF1051
 10319 0113 05       		.byte	0x5
 10320 0114 CA01     		.uleb128 0xca
 10321 0116 F5610000 		.4byte	.LASF1052
 10322 011a 05       		.byte	0x5
 10323 011b CB01     		.uleb128 0xcb
 10324 011d B9700000 		.4byte	.LASF1053
 10325 0121 05       		.byte	0x5
 10326 0122 E501     		.uleb128 0xe5
 10327 0124 EA260000 		.4byte	.LASF1054
 10328 0128 00       		.byte	0
 10329              		.section	.debug_line,"",%progbits
 10330              	.Ldebug_line0:
 10331 0000 DF060000 		.section	.debug_str,"MS",%progbits,1
 10331      02008A03 
 10331      00000201 
 10331      FB0E0D00 
 10331      01010101 
 10332              	.LASF939:
 10333 0000 4932435F 		.ascii	"I2C_I2CONSET_STO ((0x10))\000"
 10333      4932434F 
 10333      4E534554 
 10333      5F53544F 
 10333      20282830 
 10334              	.LASF490:
 10335 001a 57494E54 		.ascii	"WINT_MIN (__WINT_MIN__)\000"
 10335      5F4D494E 
 10335      20285F5F 
 10335      57494E54 
 10335      5F4D494E 
 10336              	.LASF362:
 10337 0032 5F504F53 		.ascii	"_POSIX_SOURCE 1\000"
 10337      49585F53 
 10337      4F555243 
 10337      45203100 
 10338              	.LASF158:
ARM GAS  /var/folders/z0/6xlwn_996xz3mwq1cgzkbq4r0000gp/T//cc0Pdjko.s 			page 202


 10339 0042 5F5F4445 		.ascii	"__DECIMAL_DIG__ 17\000"
 10339      43494D41 
 10339      4C5F4449 
 10339      475F5F20 
 10339      313700
 10340              	.LASF987:
 10341 0055 4932435F 		.ascii	"I2C_I2MMCTRL_MM_ENA ((1 << 0))\000"
 10341      49324D4D 
 10341      4354524C 
 10341      5F4D4D5F 
 10341      454E4120 
 10342              	.LASF295:
 10343 0074 5F5F5548 		.ascii	"__UHA_FBIT__ 8\000"
 10343      415F4642 
 10343      49545F5F 
 10343      203800
 10344              	.LASF374:
 10345 0083 5F5F5356 		.ascii	"__SVID_VISIBLE 1\000"
 10345      49445F56 
 10345      49534942 
 10345      4C452031 
 10345      00
 10346              	.LASF748:
 10347 0094 54494D45 		.ascii	"TIMER_INT_ON_MATCH(n) (_BIT(((n) * 3)))\000"
 10347      525F494E 
 10347      545F4F4E 
 10347      5F4D4154 
 10347      4348286E 
 10348              	.LASF1137:
 10349 00bc 53595343 		.ascii	"SYSCTL_CLOCK_SYS\000"
 10349      544C5F43 
 10349      4C4F434B 
 10349      5F535953 
 10349      00
 10350              	.LASF185:
 10351 00cd 5F5F4445 		.ascii	"__DEC128_EPSILON__ 1E-33DL\000"
 10351      43313238 
 10351      5F455053 
 10351      494C4F4E 
 10351      5F5F2031 
 10352              	.LASF636:
 10353 00e8 4C50435F 		.ascii	"LPC_IOCON_BASE 0x40044000\000"
 10353      494F434F 
 10353      4E5F4241 
 10353      53452030 
 10353      78343030 
 10354              	.LASF351:
 10355 0102 5F535953 		.ascii	"_SYS_FEATURES_H \000"
 10355      5F464541 
 10355      54555245 
 10355      535F4820 
 10355      00
 10356              	.LASF311:
 10357 0113 5F5F4743 		.ascii	"__GCC_ATOMIC_WCHAR_T_LOCK_FREE 1\000"
 10357      435F4154 
 10357      4F4D4943 
 10357      5F574348 
ARM GAS  /var/folders/z0/6xlwn_996xz3mwq1cgzkbq4r0000gp/T//cc0Pdjko.s 			page 203


 10357      41525F54 
 10358              	.LASF1226:
 10359 0134 69734D61 		.ascii	"isMasterState\000"
 10359      73746572 
 10359      53746174 
 10359      6500
 10360              	.LASF1002:
 10361 0142 4932435F 		.ascii	"I2C_BYTE_RECV 0x02\000"
 10361      42595445 
 10361      5F524543 
 10361      56203078 
 10361      303200
 10362              	.LASF875:
 10363 0155 57574454 		.ascii	"WWDT_WDMOD_WDEN ((uint32_t) (1 << 0))\000"
 10363      5F57444D 
 10363      4F445F57 
 10363      44454E20 
 10363      28287569 
 10364              	.LASF1139:
 10365 017b 53595343 		.ascii	"SYSCTL_CLOCK_RAM\000"
 10365      544C5F43 
 10365      4C4F434B 
 10365      5F52414D 
 10365      00
 10366              	.LASF187:
 10367 018c 5F5F5346 		.ascii	"__SFRACT_FBIT__ 7\000"
 10367      52414354 
 10367      5F464249 
 10367      545F5F20 
 10367      3700
 10368              	.LASF1072:
 10369 019e 73697A65 		.ascii	"sizetype\000"
 10369      74797065 
 10369      00
 10370              	.LASF1013:
 10371 01a7 43414E5F 		.ascii	"CAN_ERROR_PASS 0x00000001UL\000"
 10371      4552524F 
 10371      525F5041 
 10371      53532030 
 10371      78303030 
 10372              	.LASF624:
 10373 01c3 4C50435F 		.ascii	"LPC_WWDT_BASE 0x40004000\000"
 10373      57574454 
 10373      5F424153 
 10373      45203078 
 10373      34303030 
 10374              	.LASF1160:
 10375 01dc 53434C48 		.ascii	"SCLH\000"
 10375      00
 10376              	.LASF1161:
 10377 01e1 53434C4C 		.ascii	"SCLL\000"
 10377      00
 10378              	.LASF672:
 10379 01e6 53595343 		.ascii	"SYSCTL_RST_POR (1 << 0)\000"
 10379      544C5F52 
 10379      53545F50 
 10379      4F522028 
ARM GAS  /var/folders/z0/6xlwn_996xz3mwq1cgzkbq4r0000gp/T//cc0Pdjko.s 			page 204


 10379      31203C3C 
 10380              	.LASF77:
 10381 01fe 5F5F5054 		.ascii	"__PTRDIFF_MAX__ 0x7fffffff\000"
 10381      52444946 
 10381      465F4D41 
 10381      585F5F20 
 10381      30783766 
 10382              	.LASF963:
 10383 0219 4932435F 		.ascii	"I2C_I2STAT_M_RX_START ((0x08))\000"
 10383      49325354 
 10383      41545F4D 
 10383      5F52585F 
 10383      53544152 
 10384              	.LASF1217:
 10385 0238 67657443 		.ascii	"getCurState\000"
 10385      75725374 
 10385      61746500 
 10386              	.LASF425:
 10387 0244 5F55494E 		.ascii	"_UINT32_T_DECLARED \000"
 10387      5433325F 
 10387      545F4445 
 10387      434C4152 
 10387      45442000 
 10388              	.LASF79:
 10389 0258 5F5F494E 		.ascii	"__INTMAX_MAX__ 0x7fffffffffffffffLL\000"
 10389      544D4158 
 10389      5F4D4158 
 10389      5F5F2030 
 10389      78376666 
 10390              	.LASF172:
 10391 027c 5F5F4445 		.ascii	"__DEC32_SUBNORMAL_MIN__ 0.000001E-95DF\000"
 10391      4333325F 
 10391      5355424E 
 10391      4F524D41 
 10391      4C5F4D49 
 10392              	.LASF276:
 10393 02a3 5F5F5451 		.ascii	"__TQ_IBIT__ 0\000"
 10393      5F494249 
 10393      545F5F20 
 10393      3000
 10394              	.LASF424:
 10395 02b1 5F494E54 		.ascii	"_INT32_T_DECLARED \000"
 10395      33325F54 
 10395      5F444543 
 10395      4C415245 
 10395      442000
 10396              	.LASF808:
 10397 02c4 55415254 		.ascii	"UART_LCR_BREAK_EN (1 << 6)\000"
 10397      5F4C4352 
 10397      5F425245 
 10397      414B5F45 
 10397      4E202831 
 10398              	.LASF582:
 10399 02df 5343425F 		.ascii	"SCB_AIRCR_VECTCLRACTIVE_Msk (1UL << SCB_AIRCR_VECTC"
 10399      41495243 
 10399      525F5645 
 10399      4354434C 
ARM GAS  /var/folders/z0/6xlwn_996xz3mwq1cgzkbq4r0000gp/T//cc0Pdjko.s 			page 205


 10399      52414354 
 10400 0312 4C524143 		.ascii	"LRACTIVE_Pos)\000"
 10400      54495645 
 10400      5F506F73 
 10400      2900
 10401              	.LASF1223:
 10402 0320 73746172 		.ascii	"startMasterXfer\000"
 10402      744D6173 
 10402      74657258 
 10402      66657200 
 10403              	.LASF11:
 10404 0330 5F5F4154 		.ascii	"__ATOMIC_CONSUME 1\000"
 10404      4F4D4943 
 10404      5F434F4E 
 10404      53554D45 
 10404      203100
 10405              	.LASF209:
 10406 0343 5F5F4C46 		.ascii	"__LFRACT_MIN__ (-0.5LR-0.5LR)\000"
 10406      52414354 
 10406      5F4D494E 
 10406      5F5F2028 
 10406      2D302E35 
 10407              	.LASF73:
 10408 0361 5F5F5743 		.ascii	"__WCHAR_MAX__ 0xffffffffU\000"
 10408      4841525F 
 10408      4D41585F 
 10408      5F203078 
 10408      66666666 
 10409              	.LASF550:
 10410 037b 5343425F 		.ascii	"SCB_CPUID_ARCHITECTURE_Msk (0xFUL << SCB_CPUID_ARCH"
 10410      43505549 
 10410      445F4152 
 10410      43484954 
 10410      45435455 
 10411 03ae 49544543 		.ascii	"ITECTURE_Pos)\000"
 10411      54555245 
 10411      5F506F73 
 10411      2900
 10412              	.LASF239:
 10413 03bc 5F5F4143 		.ascii	"__ACCUM_MIN__ (-0X1P15K-0X1P15K)\000"
 10413      43554D5F 
 10413      4D494E5F 
 10413      5F20282D 
 10413      30583150 
 10414              	.LASF830:
 10415 03dd 55415254 		.ascii	"UART_MSR_LO2HI_RI (1 << 2)\000"
 10415      5F4D5352 
 10415      5F4C4F32 
 10415      48495F52 
 10415      49202831 
 10416              	.LASF300:
 10417 03f8 5F5F5544 		.ascii	"__UDA_IBIT__ 32\000"
 10417      415F4942 
 10417      49545F5F 
 10417      20333200 
 10418              	.LASF815:
 10419 0408 55415254 		.ascii	"UART_MCR_AUTO_CTS_EN (1 << 7)\000"
ARM GAS  /var/folders/z0/6xlwn_996xz3mwq1cgzkbq4r0000gp/T//cc0Pdjko.s 			page 206


 10419      5F4D4352 
 10419      5F415554 
 10419      4F5F4354 
 10419      535F454E 
 10420              	.LASF139:
 10421 0426 5F5F4442 		.ascii	"__DBL_DIG__ 15\000"
 10421      4C5F4449 
 10421      475F5F20 
 10421      313500
 10422              	.LASF1028:
 10423 0435 53444F5F 		.ascii	"SDO_ABORT_UNKNOWN_COMMAND 0x05040001UL\000"
 10423      41424F52 
 10423      545F554E 
 10423      4B4E4F57 
 10423      4E5F434F 
 10424              	.LASF552:
 10425 045c 5343425F 		.ascii	"SCB_CPUID_PARTNO_Msk (0xFFFUL << SCB_CPUID_PARTNO_P"
 10425      43505549 
 10425      445F5041 
 10425      52544E4F 
 10425      5F4D736B 
 10426 048f 6F732900 		.ascii	"os)\000"
 10427              	.LASF16:
 10428 0493 5F5F5349 		.ascii	"__SIZEOF_LONG_LONG__ 8\000"
 10428      5A454F46 
 10428      5F4C4F4E 
 10428      475F4C4F 
 10428      4E475F5F 
 10429              	.LASF143:
 10430 04aa 5F5F4442 		.ascii	"__DBL_MAX_10_EXP__ 308\000"
 10430      4C5F4D41 
 10430      585F3130 
 10430      5F455850 
 10430      5F5F2033 
 10431              	.LASF842:
 10432 04c1 55415254 		.ascii	"UART_ACR_BITMASK (0x307)\000"
 10432      5F414352 
 10432      5F424954 
 10432      4D41534B 
 10432      20283078 
 10433              	.LASF811:
 10434 04da 55415254 		.ascii	"UART_MCR_DTR_CTRL (1 << 0)\000"
 10434      5F4D4352 
 10434      5F445452 
 10434      5F435452 
 10434      4C202831 
 10435              	.LASF199:
 10436 04f5 5F5F4652 		.ascii	"__FRACT_MIN__ (-0.5R-0.5R)\000"
 10436      4143545F 
 10436      4D494E5F 
 10436      5F20282D 
 10436      302E3552 
 10437              	.LASF265:
 10438 0510 5F5F554C 		.ascii	"__ULLACCUM_MAX__ 0XFFFFFFFFFFFFFFFFP-32ULLK\000"
 10438      4C414343 
 10438      554D5F4D 
 10438      41585F5F 
ARM GAS  /var/folders/z0/6xlwn_996xz3mwq1cgzkbq4r0000gp/T//cc0Pdjko.s 			page 207


 10438      20305846 
 10439              	.LASF598:
 10440 053c 53797354 		.ascii	"SysTick_CTRL_CLKSOURCE_Msk (1UL << SysTick_CTRL_CLK"
 10440      69636B5F 
 10440      4354524C 
 10440      5F434C4B 
 10440      534F5552 
 10441 056f 534F5552 		.ascii	"SOURCE_Pos)\000"
 10441      43455F50 
 10441      6F732900 
 10442              	.LASF235:
 10443 057b 5F5F5553 		.ascii	"__USACCUM_MAX__ 0XFFFFP-8UHK\000"
 10443      41434355 
 10443      4D5F4D41 
 10443      585F5F20 
 10443      30584646 
 10444              	.LASF169:
 10445 0598 5F5F4445 		.ascii	"__DEC32_MIN__ 1E-95DF\000"
 10445      4333325F 
 10445      4D494E5F 
 10445      5F203145 
 10445      2D393544 
 10446              	.LASF1022:
 10447 05ae 43414E5F 		.ascii	"CAN_MSGOBJ_STD 0x00000000UL\000"
 10447      4D53474F 
 10447      424A5F53 
 10447      54442030 
 10447      78303030 
 10448              	.LASF629:
 10449 05ca 4C50435F 		.ascii	"LPC_TIMER32_1_BASE 0x40018000\000"
 10449      54494D45 
 10449      5233325F 
 10449      315F4241 
 10449      53452030 
 10450              	.LASF272:
 10451 05e8 5F5F5351 		.ascii	"__SQ_IBIT__ 0\000"
 10451      5F494249 
 10451      545F5F20 
 10451      3000
 10452              	.LASF26:
 10453 05f6 5F5F4F52 		.ascii	"__ORDER_PDP_ENDIAN__ 3412\000"
 10453      4445525F 
 10453      5044505F 
 10453      454E4449 
 10453      414E5F5F 
 10454              	.LASF1156:
 10455 0610 43484950 		.ascii	"CHIP_SYSCTL_CLOCK_T\000"
 10455      5F535953 
 10455      43544C5F 
 10455      434C4F43 
 10455      4B5F5400 
 10456              	.LASF175:
 10457 0624 5F5F4445 		.ascii	"__DEC64_MAX_EXP__ 385\000"
 10457      4336345F 
 10457      4D41585F 
 10457      4558505F 
 10457      5F203338 
ARM GAS  /var/folders/z0/6xlwn_996xz3mwq1cgzkbq4r0000gp/T//cc0Pdjko.s 			page 208


 10458              	.LASF1115:
 10459 063a 424F4443 		.ascii	"BODCTRL\000"
 10459      54524C00 
 10460              	.LASF592:
 10461 0642 5343425F 		.ascii	"SCB_CCR_UNALIGN_TRP_Msk (1UL << SCB_CCR_UNALIGN_TRP"
 10461      4343525F 
 10461      554E414C 
 10461      49474E5F 
 10461      5452505F 
 10462 0675 5F506F73 		.ascii	"_Pos)\000"
 10462      2900
 10463              	.LASF135:
 10464 067b 5F5F464C 		.ascii	"__FLT_HAS_DENORM__ 1\000"
 10464      545F4841 
 10464      535F4445 
 10464      4E4F524D 
 10464      5F5F2031 
 10465              	.LASF39:
 10466 0690 5F5F494E 		.ascii	"__INT8_TYPE__ signed char\000"
 10466      54385F54 
 10466      5950455F 
 10466      5F207369 
 10466      676E6564 
 10467              	.LASF325:
 10468 06aa 5F5F4152 		.ascii	"__ARM_ARCH_PROFILE 77\000"
 10468      4D5F4152 
 10468      43485F50 
 10468      524F4649 
 10468      4C452037 
 10469              	.LASF865:
 10470 06c0 55415254 		.ascii	"UART_TER2_TXEN (1 << 0)\000"
 10470      5F544552 
 10470      325F5458 
 10470      454E2028 
 10470      31203C3C 
 10471              	.LASF562:
 10472 06d8 5343425F 		.ascii	"SCB_ICSR_PENDSTSET_Msk (1UL << SCB_ICSR_PENDSTSET_P"
 10472      49435352 
 10472      5F50454E 
 10472      44535453 
 10472      45545F4D 
 10473 070b 6F732900 		.ascii	"os)\000"
 10474              	.LASF1145:
 10475 070f 53595343 		.ascii	"SYSCTL_CLOCK_CT16B1\000"
 10475      544C5F43 
 10475      4C4F434B 
 10475      5F435431 
 10475      36423100 
 10476              	.LASF882:
 10477 0723 5353505F 		.ascii	"SSP_CR0_FRF_SPI ((uint32_t) (0 << 4))\000"
 10477      4352305F 
 10477      4652465F 
 10477      53504920 
 10477      28287569 
 10478              	.LASF825:
 10479 0749 55415254 		.ascii	"UART_LSR_TXFE (1 << 8)\000"
 10479      5F4C5352 
ARM GAS  /var/folders/z0/6xlwn_996xz3mwq1cgzkbq4r0000gp/T//cc0Pdjko.s 			page 209


 10479      5F545846 
 10479      45202831 
 10479      203C3C20 
 10480              	.LASF154:
 10481 0760 5F5F4C44 		.ascii	"__LDBL_MIN_EXP__ (-1021)\000"
 10481      424C5F4D 
 10481      494E5F45 
 10481      58505F5F 
 10481      20282D31 
 10482              	.LASF375:
 10483 0779 5F5F5853 		.ascii	"__XSI_VISIBLE 0\000"
 10483      495F5649 
 10483      5349424C 
 10483      45203000 
 10484              	.LASF152:
 10485 0789 5F5F4C44 		.ascii	"__LDBL_MANT_DIG__ 53\000"
 10485      424C5F4D 
 10485      414E545F 
 10485      4449475F 
 10485      5F203533 
 10486              	.LASF967:
 10487 079e 4932435F 		.ascii	"I2C_I2STAT_M_RX_SLAR_NACK ((0x48))\000"
 10487      49325354 
 10487      41545F4D 
 10487      5F52585F 
 10487      534C4152 
 10488              	.LASF900:
 10489 07c1 5353505F 		.ascii	"SSP_ICR_BITMASK ((uint32_t) (0x03))\000"
 10489      4943525F 
 10489      4249544D 
 10489      41534B20 
 10489      28287569 
 10490              	.LASF673:
 10491 07e5 53595343 		.ascii	"SYSCTL_RST_EXTRST (1 << 1)\000"
 10491      544C5F52 
 10491      53545F45 
 10491      58545253 
 10491      54202831 
 10492              	.LASF102:
 10493 0800 5F5F5549 		.ascii	"__UINT8_C(c) c\000"
 10493      4E54385F 
 10493      43286329 
 10493      206300
 10494              	.LASF40:
 10495 080f 5F5F494E 		.ascii	"__INT16_TYPE__ short int\000"
 10495      5431365F 
 10495      54595045 
 10495      5F5F2073 
 10495      686F7274 
 10496              	.LASF391:
 10497 0828 756E7369 		.ascii	"unsigned\000"
 10497      676E6564 
 10497      00
 10498              	.LASF1205:
 10499 0831 6D586665 		.ascii	"mXfer\000"
 10499      7200
 10500              	.LASF909:
ARM GAS  /var/folders/z0/6xlwn_996xz3mwq1cgzkbq4r0000gp/T//cc0Pdjko.s 			page 210


 10501 0837 434F4D50 		.ascii	"COMPILE_TIME_ASSERT(pred) switch(0){case 0:case pre"
 10501      494C455F 
 10501      54494D45 
 10501      5F415353 
 10501      45525428 
 10502 086a 643A3B7D 		.ascii	"d:;}\000"
 10502      00
 10503              	.LASF507:
 10504 086f 50415241 		.ascii	"PARAM_SETSTATE(State) ((State == RESET) || (State ="
 10504      4D5F5345 
 10504      54535441 
 10504      54452853 
 10504      74617465 
 10505 08a2 3D205345 		.ascii	"= SET))\000"
 10505      54292900 
 10506              	.LASF250:
 10507 08aa 5F5F4C41 		.ascii	"__LACCUM_MAX__ 0X7FFFFFFFFFFFFFFFP-31LK\000"
 10507      4343554D 
 10507      5F4D4158 
 10507      5F5F2030 
 10507      58374646 
 10508              	.LASF628:
 10509 08d2 4C50435F 		.ascii	"LPC_TIMER32_0_BASE 0x40014000\000"
 10509      54494D45 
 10509      5233325F 
 10509      305F4241 
 10509      53452030 
 10510              	.LASF1204:
 10511 08f0 73457665 		.ascii	"sEvent\000"
 10511      6E7400
 10512              	.LASF508:
 10513 08f7 50415241 		.ascii	"PARAM_FUNCTIONALSTATE(State) ((State == DISABLE) ||"
 10513      4D5F4655 
 10513      4E435449 
 10513      4F4E414C 
 10513      53544154 
 10514 092a 20285374 		.ascii	" (State == ENABLE))\000"
 10514      61746520 
 10514      3D3D2045 
 10514      4E41424C 
 10514      45292900 
 10515              	.LASF743:
 10516 093e 54494D45 		.ascii	"TIMER_IR_CLR(n) _BIT(n)\000"
 10516      525F4952 
 10516      5F434C52 
 10516      286E2920 
 10516      5F424954 
 10517              	.LASF955:
 10518 0956 4932435F 		.ascii	"I2C_I2STAT_BUS_ERROR ((0x00))\000"
 10518      49325354 
 10518      41545F42 
 10518      55535F45 
 10518      52524F52 
 10519              	.LASF886:
 10520 0974 5353505F 		.ascii	"SSP_CR0_CPOL_HI ((uint32_t) (1 << 6))\000"
 10520      4352305F 
 10520      43504F4C 
ARM GAS  /var/folders/z0/6xlwn_996xz3mwq1cgzkbq4r0000gp/T//cc0Pdjko.s 			page 211


 10520      5F484920 
 10520      28287569 
 10521              	.LASF405:
 10522 099a 5F5F494E 		.ascii	"__INT8 \"hh\"\000"
 10522      54382022 
 10522      68682200 
 10523              	.LASF1170:
 10524 09a6 4932435F 		.ascii	"I2C_SLAVE_GENERAL\000"
 10524      534C4156 
 10524      455F4745 
 10524      4E455241 
 10524      4C00
 10525              	.LASF700:
 10526 09b8 494F434F 		.ascii	"IOCON_FUNC1 0x1\000"
 10526      4E5F4655 
 10526      4E433120 
 10526      30783100 
 10527              	.LASF453:
 10528 09c8 494E545F 		.ascii	"INT_LEAST16_MAX (__INT_LEAST16_MAX__)\000"
 10528      4C454153 
 10528      5431365F 
 10528      4D415820 
 10528      285F5F49 
 10529              	.LASF1:
 10530 09ee 5F5F5354 		.ascii	"__STDC_HOSTED__ 1\000"
 10530      44435F48 
 10530      4F535445 
 10530      445F5F20 
 10530      3100
 10531              	.LASF222:
 10532 0a00 5F5F554C 		.ascii	"__ULLFRACT_FBIT__ 64\000"
 10532      4C465241 
 10532      43545F46 
 10532      4249545F 
 10532      5F203634 
 10533              	.LASF772:
 10534 0a15 55415254 		.ascii	"UART2_IER_BITMASK (0x38F)\000"
 10534      325F4945 
 10534      525F4249 
 10534      544D4153 
 10534      4B202830 
 10535              	.LASF1103:
 10536 0a2f 55534243 		.ascii	"USBCLKDIV\000"
 10536      4C4B4449 
 10536      5600
 10537              	.LASF58:
 10538 0a39 5F5F494E 		.ascii	"__INT_FAST64_TYPE__ long long int\000"
 10538      545F4641 
 10538      53543634 
 10538      5F545950 
 10538      455F5F20 
 10539              	.LASF1246:
 10540 0a5b 43686970 		.ascii	"Chip_I2C_GetMasterEventHandler\000"
 10540      5F493243 
 10540      5F476574 
 10540      4D617374 
 10540      65724576 
ARM GAS  /var/folders/z0/6xlwn_996xz3mwq1cgzkbq4r0000gp/T//cc0Pdjko.s 			page 212


 10541              	.LASF561:
 10542 0a7a 5343425F 		.ascii	"SCB_ICSR_PENDSTSET_Pos 26\000"
 10542      49435352 
 10542      5F50454E 
 10542      44535453 
 10542      45545F50 
 10543              	.LASF444:
 10544 0a94 494E5438 		.ascii	"INT8_MAX (__INT8_MAX__)\000"
 10544      5F4D4158 
 10544      20285F5F 
 10544      494E5438 
 10544      5F4D4158 
 10545              	.LASF693:
 10546 0aac 53595343 		.ascii	"SYSCTL_POWERDOWN_SYSOSC_PD (1 << 5)\000"
 10546      544C5F50 
 10546      4F574552 
 10546      444F574E 
 10546      5F535953 
 10547              	.LASF396:
 10548 0ad0 7369676E 		.ascii	"signed +0\000"
 10548      6564202B 
 10548      3000
 10549              	.LASF485:
 10550 0ada 50545244 		.ascii	"PTRDIFF_MAX (__PTRDIFF_MAX__)\000"
 10550      4946465F 
 10550      4D415820 
 10550      285F5F50 
 10550      54524449 
 10551              	.LASF758:
 10552 0af8 55415254 		.ascii	"UART_RBR_MASKBIT (0xFF)\000"
 10552      5F524252 
 10552      5F4D4153 
 10552      4B424954 
 10552      20283078 
 10553              	.LASF816:
 10554 0b10 55415254 		.ascii	"UART_MCR_BITMASK (0xD3)\000"
 10554      5F4D4352 
 10554      5F424954 
 10554      4D41534B 
 10554      20283078 
 10555              	.LASF305:
 10556 0b28 5F5F474E 		.ascii	"__GNUC_GNU_INLINE__ 1\000"
 10556      55435F47 
 10556      4E555F49 
 10556      4E4C494E 
 10556      455F5F20 
 10557              	.LASF519:
 10558 0b3e 554E5553 		.ascii	"UNUSED(x) (void)(x)\000"
 10558      45442878 
 10558      29202876 
 10558      6F696429 
 10558      28782900 
 10559              	.LASF1261:
 10560 0b52 53797374 		.ascii	"SystemCoreClock\000"
 10560      656D436F 
 10560      7265436C 
 10560      6F636B00 
ARM GAS  /var/folders/z0/6xlwn_996xz3mwq1cgzkbq4r0000gp/T//cc0Pdjko.s 			page 213


 10561              	.LASF195:
 10562 0b62 5F5F5553 		.ascii	"__USFRACT_MAX__ 0XFFP-8UHR\000"
 10562      46524143 
 10562      545F4D41 
 10562      585F5F20 
 10562      30584646 
 10563              	.LASF597:
 10564 0b7d 53797354 		.ascii	"SysTick_CTRL_CLKSOURCE_Pos 2\000"
 10564      69636B5F 
 10564      4354524C 
 10564      5F434C4B 
 10564      534F5552 
 10565              	.LASF854:
 10566 0b9a 55415254 		.ascii	"UART_ICR_BITMASK (0x3F)\000"
 10566      5F494352 
 10566      5F424954 
 10566      4D41534B 
 10566      20283078 
 10567              	.LASF720:
 10568 0bb2 4D445F50 		.ascii	"MD_PLN (0x0 << 3)\000"
 10568      4C4E2028 
 10568      30783020 
 10568      3C3C2033 
 10568      2900
 10569              	.LASF1227:
 10570 0bc4 43686970 		.ascii	"Chip_I2C_EventHandler\000"
 10570      5F493243 
 10570      5F457665 
 10570      6E744861 
 10570      6E646C65 
 10571              	.LASF783:
 10572 0bda 55415254 		.ascii	"UART_IIR_INTID_MODEM (0 << 1)\000"
 10572      5F494952 
 10572      5F494E54 
 10572      49445F4D 
 10572      4F44454D 
 10573              	.LASF1158:
 10574 0bf8 53544154 		.ascii	"STAT\000"
 10574      00
 10575              	.LASF575:
 10576 0bfd 5343425F 		.ascii	"SCB_AIRCR_VECTKEYSTAT_Pos 16\000"
 10576      41495243 
 10576      525F5645 
 10576      43544B45 
 10576      59535441 
 10577              	.LASF790:
 10578 0c1a 55415254 		.ascii	"UART_FCR_TRG_LEV0 (0)\000"
 10578      5F464352 
 10578      5F545247 
 10578      5F4C4556 
 10578      30202830 
 10579              	.LASF943:
 10580 0c30 4932435F 		.ascii	"I2C_I2CONCLR_SIC ((1 << 3))\000"
 10580      4932434F 
 10580      4E434C52 
 10580      5F534943 
 10580      20282831 
ARM GAS  /var/folders/z0/6xlwn_996xz3mwq1cgzkbq4r0000gp/T//cc0Pdjko.s 			page 214


 10581              	.LASF571:
 10582 0c4c 5343425F 		.ascii	"SCB_ICSR_VECTACTIVE_Pos 0\000"
 10582      49435352 
 10582      5F564543 
 10582      54414354 
 10582      4956455F 
 10583              	.LASF1222:
 10584 0c66 73746174 		.ascii	"stat\000"
 10584      00
 10585              	.LASF450:
 10586 0c6b 494E5431 		.ascii	"INT16_MAX (__INT16_MAX__)\000"
 10586      365F4D41 
 10586      5820285F 
 10586      5F494E54 
 10586      31365F4D 
 10587              	.LASF945:
 10588 0c85 4932435F 		.ascii	"I2C_I2CONCLR_STAC ((1 << 5))\000"
 10588      4932434F 
 10588      4E434C52 
 10588      5F535441 
 10588      43202828 
 10589              	.LASF935:
 10590 0ca2 5245545F 		.ascii	"RET_SLAVE_BUSY 0\000"
 10590      534C4156 
 10590      455F4255 
 10590      53592030 
 10590      00
 10591              	.LASF212:
 10592 0cb3 5F5F554C 		.ascii	"__ULFRACT_FBIT__ 32\000"
 10592      46524143 
 10592      545F4642 
 10592      49545F5F 
 10592      20333200 
 10593              	.LASF975:
 10594 0cc7 4932435F 		.ascii	"I2C_I2STAT_S_RX_PRE_SLA_DAT_NACK ((0x88))\000"
 10594      49325354 
 10594      41545F53 
 10594      5F52585F 
 10594      5052455F 
 10595              	.LASF968:
 10596 0cf1 4932435F 		.ascii	"I2C_I2STAT_M_RX_DAT_ACK ((0x50))\000"
 10596      49325354 
 10596      41545F4D 
 10596      5F52585F 
 10596      4441545F 
 10597              	.LASF438:
 10598 0d12 5F5F696E 		.ascii	"__int_fast32_t_defined 1\000"
 10598      745F6661 
 10598      73743332 
 10598      5F745F64 
 10598      6566696E 
 10599              	.LASF1029:
 10600 0d2b 53444F5F 		.ascii	"SDO_ABORT_UNSUPPORTED 0x06010000UL\000"
 10600      41424F52 
 10600      545F554E 
 10600      53555050 
 10600      4F525445 
ARM GAS  /var/folders/z0/6xlwn_996xz3mwq1cgzkbq4r0000gp/T//cc0Pdjko.s 			page 215


 10601              	.LASF826:
 10602 0d4e 55415254 		.ascii	"UART_LSR_BITMASK (0xFF)\000"
 10602      5F4C5352 
 10602      5F424954 
 10602      4D41534B 
 10602      20283078 
 10603              	.LASF493:
 10604 0d66 494E5431 		.ascii	"INT16_C(x) __INT16_C(x)\000"
 10604      365F4328 
 10604      7829205F 
 10604      5F494E54 
 10604      31365F43 
 10605              	.LASF979:
 10606 0d7e 4932435F 		.ascii	"I2C_I2STAT_S_TX_SLAR_ACK ((0xA8))\000"
 10606      49325354 
 10606      41545F53 
 10606      5F54585F 
 10606      534C4152 
 10607              	.LASF191:
 10608 0da0 5F5F5346 		.ascii	"__SFRACT_EPSILON__ 0x1P-7HR\000"
 10608      52414354 
 10608      5F455053 
 10608      494C4F4E 
 10608      5F5F2030 
 10609              	.LASF1175:
 10610 0dbc 4932435F 		.ascii	"I2C_SLAVE_NUM_INTERFACE\000"
 10610      534C4156 
 10610      455F4E55 
 10610      4D5F494E 
 10610      54455246 
 10611              	.LASF281:
 10612 0dd4 5F5F5553 		.ascii	"__USQ_FBIT__ 32\000"
 10612      515F4642 
 10612      49545F5F 
 10612      20333200 
 10613              	.LASF25:
 10614 0de4 5F5F4F52 		.ascii	"__ORDER_BIG_ENDIAN__ 4321\000"
 10614      4445525F 
 10614      4249475F 
 10614      454E4449 
 10614      414E5F5F 
 10615              	.LASF1146:
 10616 0dfe 53595343 		.ascii	"SYSCTL_CLOCK_CT32B0\000"
 10616      544C5F43 
 10616      4C4F434B 
 10616      5F435433 
 10616      32423000 
 10617              	.LASF1147:
 10618 0e12 53595343 		.ascii	"SYSCTL_CLOCK_CT32B1\000"
 10618      544C5F43 
 10618      4C4F434B 
 10618      5F435433 
 10618      32423100 
 10619              	.LASF271:
 10620 0e26 5F5F5351 		.ascii	"__SQ_FBIT__ 31\000"
 10620      5F464249 
 10620      545F5F20 
ARM GAS  /var/folders/z0/6xlwn_996xz3mwq1cgzkbq4r0000gp/T//cc0Pdjko.s 			page 216


 10620      333100
 10621              	.LASF932:
 10622 0e35 5245545F 		.ascii	"RET_SLAVE_TX 6\000"
 10622      534C4156 
 10622      455F5458 
 10622      203600
 10623              	.LASF1021:
 10624 0e44 43414E5F 		.ascii	"CAN_ERROR_CRC 0x00000100UL\000"
 10624      4552524F 
 10624      525F4352 
 10624      43203078 
 10624      30303030 
 10625              	.LASF301:
 10626 0e5f 5F5F5554 		.ascii	"__UTA_FBIT__ 64\000"
 10626      415F4642 
 10626      49545F5F 
 10626      20363400 
 10627              	.LASF138:
 10628 0e6f 5F5F4442 		.ascii	"__DBL_MANT_DIG__ 53\000"
 10628      4C5F4D41 
 10628      4E545F44 
 10628      49475F5F 
 10628      20353300 
 10629              	.LASF422:
 10630 0e83 5F55494E 		.ascii	"_UINT16_T_DECLARED \000"
 10630      5431365F 
 10630      545F4445 
 10630      434C4152 
 10630      45442000 
 10631              	.LASF677:
 10632 0e97 53595343 		.ascii	"SYSCTL_NMISRC_ENABLE ((uint32_t) 1 << 31)\000"
 10632      544C5F4E 
 10632      4D495352 
 10632      435F454E 
 10632      41424C45 
 10633              	.LASF789:
 10634 0ec1 55415254 		.ascii	"UART_TX_FIFO_SIZE (16)\000"
 10634      5F54585F 
 10634      4649464F 
 10634      5F53495A 
 10634      45202831 
 10635              	.LASF279:
 10636 0ed8 5F5F5548 		.ascii	"__UHQ_FBIT__ 16\000"
 10636      515F4642 
 10636      49545F5F 
 10636      20313600 
 10637              	.LASF465:
 10638 0ee8 494E545F 		.ascii	"INT_LEAST64_MAX (__INT_LEAST64_MAX__)\000"
 10638      4C454153 
 10638      5436345F 
 10638      4D415820 
 10638      285F5F49 
 10639              	.LASF689:
 10640 0f0e 53595343 		.ascii	"SYSCTL_POWERDOWN_IRC_PD (1 << 1)\000"
 10640      544C5F50 
 10640      4F574552 
 10640      444F574E 
ARM GAS  /var/folders/z0/6xlwn_996xz3mwq1cgzkbq4r0000gp/T//cc0Pdjko.s 			page 217


 10640      5F495243 
 10641              	.LASF609:
 10642 0f2f 53797354 		.ascii	"SysTick_CALIB_SKEW_Pos 30\000"
 10642      69636B5F 
 10642      43414C49 
 10642      425F534B 
 10642      45575F50 
 10643              	.LASF113:
 10644 0f49 5F5F5549 		.ascii	"__UINT_FAST8_MAX__ 0xffffffffU\000"
 10644      4E545F46 
 10644      41535438 
 10644      5F4D4158 
 10644      5F5F2030 
 10645              	.LASF171:
 10646 0f68 5F5F4445 		.ascii	"__DEC32_EPSILON__ 1E-6DF\000"
 10646      4333325F 
 10646      45505349 
 10646      4C4F4E5F 
 10646      5F203145 
 10647              	.LASF488:
 10648 0f81 57434841 		.ascii	"WCHAR_MAX (__WCHAR_MAX__)\000"
 10648      525F4D41 
 10648      5820285F 
 10648      5F574348 
 10648      41525F4D 
 10649              	.LASF1017:
 10650 0f9b 43414E5F 		.ascii	"CAN_ERROR_FORM 0x00000010UL\000"
 10650      4552524F 
 10650      525F464F 
 10650      524D2030 
 10650      78303030 
 10651              	.LASF1152:
 10652 0fb7 53595343 		.ascii	"SYSCTL_CLOCK_WDT\000"
 10652      544C5F43 
 10652      4C4F434B 
 10652      5F574454 
 10652      00
 10653              	.LASF447:
 10654 0fc8 494E545F 		.ascii	"INT_LEAST8_MAX (__INT_LEAST8_MAX__)\000"
 10654      4C454153 
 10654      54385F4D 
 10654      41582028 
 10654      5F5F494E 
 10655              	.LASF535:
 10656 0fec 5F5F4153 		.ascii	"__ASM __asm\000"
 10656      4D205F5F 
 10656      61736D00 
 10657              	.LASF1063:
 10658 0ff8 5F5F7569 		.ascii	"__uint8_t\000"
 10658      6E74385F 
 10658      7400
 10659              	.LASF864:
 10660 1002 55415254 		.ascii	"UART_TER1_TXEN (1 << 7)\000"
 10660      5F544552 
 10660      315F5458 
 10660      454E2028 
 10660      31203C3C 
ARM GAS  /var/folders/z0/6xlwn_996xz3mwq1cgzkbq4r0000gp/T//cc0Pdjko.s 			page 218


 10661              	.LASF683:
 10662 101a 53595343 		.ascii	"SYSCTL_SLPWAKE_BOD_PD (1 << 3)\000"
 10662      544C5F53 
 10662      4C505741 
 10662      4B455F42 
 10662      4F445F50 
 10663              	.LASF912:
 10664 1039 4144435F 		.ascii	"ADC_DR_RESULT(n) ((((n) >> 6) & 0x3FF))\000"
 10664      44525F52 
 10664      4553554C 
 10664      54286E29 
 10664      20282828 
 10665              	.LASF1136:
 10666 1061 4C50435F 		.ascii	"LPC_SYSCTL_T\000"
 10666      53595343 
 10666      544C5F54 
 10666      00
 10667              	.LASF770:
 10668 106e 55415254 		.ascii	"UART_IER_BITMASK (0x307)\000"
 10668      5F494552 
 10668      5F424954 
 10668      4D41534B 
 10668      20283078 
 10669              	.LASF746:
 10670 1087 54494D45 		.ascii	"TIMER_ENABLE ((uint32_t) (1 << 0))\000"
 10670      525F454E 
 10670      41424C45 
 10670      20282875 
 10670      696E7433 
 10671              	.LASF334:
 10672 10aa 5F5F5646 		.ascii	"__VFP_FP__ 1\000"
 10672      505F4650 
 10672      5F5F2031 
 10672      00
 10673              	.LASF415:
 10674 10b7 5F5F4C45 		.ascii	"__LEAST32 \"l\"\000"
 10674      41535433 
 10674      3220226C 
 10674      2200
 10675              	.LASF408:
 10676 10c5 5F5F494E 		.ascii	"__INT64 \"ll\"\000"
 10676      54363420 
 10676      226C6C22 
 10676      00
 10677              	.LASF117:
 10678 10d2 5F5F494E 		.ascii	"__INTPTR_MAX__ 0x7fffffff\000"
 10678      54505452 
 10678      5F4D4158 
 10678      5F5F2030 
 10678      78376666 
 10679              	.LASF873:
 10680 10ec 5F5F5757 		.ascii	"__WWDT_11XX_H_ \000"
 10680      44545F31 
 10680      3158585F 
 10680      485F2000 
 10681              	.LASF969:
 10682 10fc 4932435F 		.ascii	"I2C_I2STAT_M_RX_DAT_NACK ((0x58))\000"
ARM GAS  /var/folders/z0/6xlwn_996xz3mwq1cgzkbq4r0000gp/T//cc0Pdjko.s 			page 219


 10682      49325354 
 10682      41545F4D 
 10682      5F52585F 
 10682      4441545F 
 10683              	.LASF1171:
 10684 111e 4932435F 		.ascii	"I2C_SLAVE_0\000"
 10684      534C4156 
 10684      455F3000 
 10685              	.LASF1172:
 10686 112a 4932435F 		.ascii	"I2C_SLAVE_1\000"
 10686      534C4156 
 10686      455F3100 
 10687              	.LASF1173:
 10688 1136 4932435F 		.ascii	"I2C_SLAVE_2\000"
 10688      534C4156 
 10688      455F3200 
 10689              	.LASF1174:
 10690 1142 4932435F 		.ascii	"I2C_SLAVE_3\000"
 10690      534C4156 
 10690      455F3300 
 10691              	.LASF791:
 10692 114e 55415254 		.ascii	"UART_FCR_TRG_LEV1 (1 << 6)\000"
 10692      5F464352 
 10692      5F545247 
 10692      5F4C4556 
 10692      31202831 
 10693              	.LASF814:
 10694 1169 55415254 		.ascii	"UART_MCR_AUTO_RTS_EN (1 << 6)\000"
 10694      5F4D4352 
 10694      5F415554 
 10694      4F5F5254 
 10694      535F454E 
 10695              	.LASF1120:
 10696 1187 50494E54 		.ascii	"PINTSEL\000"
 10696      53454C00 
 10697              	.LASF170:
 10698 118f 5F5F4445 		.ascii	"__DEC32_MAX__ 9.999999E96DF\000"
 10698      4333325F 
 10698      4D41585F 
 10698      5F20392E 
 10698      39393939 
 10699              	.LASF204:
 10700 11ab 5F5F5546 		.ascii	"__UFRACT_MIN__ 0.0UR\000"
 10700      52414354 
 10700      5F4D494E 
 10700      5F5F2030 
 10700      2E305552 
 10701              	.LASF844:
 10702 11c0 55415254 		.ascii	"UART_RS485CTRL_RX_DIS (1 << 1)\000"
 10702      5F525334 
 10702      38354354 
 10702      524C5F52 
 10702      585F4449 
 10703              	.LASF165:
 10704 11df 5F5F4C44 		.ascii	"__LDBL_HAS_QUIET_NAN__ 1\000"
 10704      424C5F48 
 10704      41535F51 
ARM GAS  /var/folders/z0/6xlwn_996xz3mwq1cgzkbq4r0000gp/T//cc0Pdjko.s 			page 220


 10704      55494554 
 10704      5F4E414E 
 10705              	.LASF890:
 10706 11f8 5353505F 		.ascii	"SSP_CR0_BITMASK ((uint32_t) (0xFFFF))\000"
 10706      4352305F 
 10706      4249544D 
 10706      41534B20 
 10706      28287569 
 10707              	.LASF430:
 10708 121e 5F494E54 		.ascii	"_INTPTR_T_DECLARED \000"
 10708      5054525F 
 10708      545F4445 
 10708      434C4152 
 10708      45442000 
 10709              	.LASF641:
 10710 1232 4C50435F 		.ascii	"LPC_GPIO_PORT0_BASE 0x50000000\000"
 10710      4750494F 
 10710      5F504F52 
 10710      54305F42 
 10710      41534520 
 10711              	.LASF473:
 10712 1251 494E545F 		.ascii	"INT_FAST32_MIN (-__INT_FAST32_MAX__ - 1)\000"
 10712      46415354 
 10712      33325F4D 
 10712      494E2028 
 10712      2D5F5F49 
 10713              	.LASF599:
 10714 127a 53797354 		.ascii	"SysTick_CTRL_TICKINT_Pos 1\000"
 10714      69636B5F 
 10714      4354524C 
 10714      5F544943 
 10714      4B494E54 
 10715              	.LASF530:
 10716 1295 5F5F434F 		.ascii	"__CORE_CM0_H_GENERIC \000"
 10716      52455F43 
 10716      4D305F48 
 10716      5F47454E 
 10716      45524943 
 10717              	.LASF51:
 10718 12ab 5F5F5549 		.ascii	"__UINT_LEAST8_TYPE__ unsigned char\000"
 10718      4E545F4C 
 10718      45415354 
 10718      385F5459 
 10718      50455F5F 
 10719              	.LASF977:
 10720 12ce 4932435F 		.ascii	"I2C_I2STAT_S_RX_PRE_GENCALL_DAT_NACK ((0x98))\000"
 10720      49325354 
 10720      41545F53 
 10720      5F52585F 
 10720      5052455F 
 10721              	.LASF237:
 10722 12fc 5F5F4143 		.ascii	"__ACCUM_FBIT__ 15\000"
 10722      43554D5F 
 10722      46424954 
 10722      5F5F2031 
 10722      3500
 10723              	.LASF357:
ARM GAS  /var/folders/z0/6xlwn_996xz3mwq1cgzkbq4r0000gp/T//cc0Pdjko.s 			page 221


 10724 130e 5F5F474E 		.ascii	"__GNUC_PREREQ(maj,min) ((__GNUC__ << 16) + __GNUC_M"
 10724      55435F50 
 10724      52455245 
 10724      51286D61 
 10724      6A2C6D69 
 10725 1341 494E4F52 		.ascii	"INOR__ >= ((maj) << 16) + (min))\000"
 10725      5F5F203E 
 10725      3D202828 
 10725      6D616A29 
 10725      203C3C20 
 10726              	.LASF661:
 10727 1362 4C50435F 		.ascii	"LPC_CCAN ((LPC_CCAN_T *) LPC_CAN0_BASE)\000"
 10727      4343414E 
 10727      2028284C 
 10727      50435F43 
 10727      43414E5F 
 10728              	.LASF243:
 10729 138a 5F5F5541 		.ascii	"__UACCUM_IBIT__ 16\000"
 10729      4343554D 
 10729      5F494249 
 10729      545F5F20 
 10729      313600
 10730              	.LASF1062:
 10731 139d 6C6F6E67 		.ascii	"long int\000"
 10731      20696E74 
 10731      00
 10732              	.LASF976:
 10733 13a6 4932435F 		.ascii	"I2C_I2STAT_S_RX_PRE_GENCALL_DAT_ACK ((0x90))\000"
 10733      49325354 
 10733      41545F53 
 10733      5F52585F 
 10733      5052455F 
 10734              	.LASF426:
 10735 13d3 5F5F696E 		.ascii	"__int32_t_defined 1\000"
 10735      7433325F 
 10735      745F6465 
 10735      66696E65 
 10735      64203100 
 10736              	.LASF112:
 10737 13e7 5F5F494E 		.ascii	"__INT_FAST64_MAX__ 0x7fffffffffffffffLL\000"
 10737      545F4641 
 10737      53543634 
 10737      5F4D4158 
 10737      5F5F2030 
 10738              	.LASF146:
 10739 140f 5F5F4442 		.ascii	"__DBL_MIN__ ((double)2.2250738585072014e-308L)\000"
 10739      4C5F4D49 
 10739      4E5F5F20 
 10739      2828646F 
 10739      75626C65 
 10740              	.LASF1042:
 10741 143e 4F445F45 		.ascii	"OD_EXP_RO 0x10\000"
 10741      58505F52 
 10741      4F203078 
 10741      313000
 10742              	.LASF1113:
 10743 144d 50494F50 		.ascii	"PIOPORCAP\000"
ARM GAS  /var/folders/z0/6xlwn_996xz3mwq1cgzkbq4r0000gp/T//cc0Pdjko.s 			page 222


 10743      4F524341 
 10743      5000
 10744              	.LASF382:
 10745 1457 5F5F5F69 		.ascii	"___int_least16_t_defined 1\000"
 10745      6E745F6C 
 10745      65617374 
 10745      31365F74 
 10745      5F646566 
 10746              	.LASF590:
 10747 1472 5343425F 		.ascii	"SCB_CCR_STKALIGN_Msk (1UL << SCB_CCR_STKALIGN_Pos)\000"
 10747      4343525F 
 10747      53544B41 
 10747      4C49474E 
 10747      5F4D736B 
 10748              	.LASF181:
 10749 14a5 5F5F4445 		.ascii	"__DEC128_MIN_EXP__ (-6142)\000"
 10749      43313238 
 10749      5F4D494E 
 10749      5F455850 
 10749      5F5F2028 
 10750              	.LASF719:
 10751 14c0 494F434F 		.ascii	"IOCON_OPENDRAIN_EN (0x1 << 10)\000"
 10751      4E5F4F50 
 10751      454E4452 
 10751      41494E5F 
 10751      454E2028 
 10752              	.LASF55:
 10753 14df 5F5F494E 		.ascii	"__INT_FAST8_TYPE__ int\000"
 10753      545F4641 
 10753      5354385F 
 10753      54595045 
 10753      5F5F2069 
 10754              	.LASF1086:
 10755 14f6 53595350 		.ascii	"SYSPLLCLKSEL\000"
 10755      4C4C434C 
 10755      4B53454C 
 10755      00
 10756              	.LASF299:
 10757 1503 5F5F5544 		.ascii	"__UDA_FBIT__ 32\000"
 10757      415F4642 
 10757      49545F5F 
 10757      20333200 
 10758              	.LASF1106:
 10759 1513 57445443 		.ascii	"WDTCLKUEN\000"
 10759      4C4B5545 
 10759      4E00
 10760              	.LASF812:
 10761 151d 55415254 		.ascii	"UART_MCR_RTS_CTRL (1 << 1)\000"
 10761      5F4D4352 
 10761      5F525453 
 10761      5F435452 
 10761      4C202831 
 10762              	.LASF1198:
 10763 1538 4932435F 		.ascii	"I2C_EVENT_UNLOCK\000"
 10763      4556454E 
 10763      545F554E 
 10763      4C4F434B 
ARM GAS  /var/folders/z0/6xlwn_996xz3mwq1cgzkbq4r0000gp/T//cc0Pdjko.s 			page 223


 10763      00
 10764              	.LASF82:
 10765 1549 5F5F5549 		.ascii	"__UINTMAX_C(c) c ## ULL\000"
 10765      4E544D41 
 10765      585F4328 
 10765      63292063 
 10765      20232320 
 10766              	.LASF29:
 10767 1561 5F5F5349 		.ascii	"__SIZEOF_POINTER__ 4\000"
 10767      5A454F46 
 10767      5F504F49 
 10767      4E544552 
 10767      5F5F2034 
 10768              	.LASF47:
 10769 1576 5F5F494E 		.ascii	"__INT_LEAST8_TYPE__ signed char\000"
 10769      545F4C45 
 10769      41535438 
 10769      5F545950 
 10769      455F5F20 
 10770              	.LASF307:
 10771 1596 5F5F4743 		.ascii	"__GCC_ATOMIC_BOOL_LOCK_FREE 1\000"
 10771      435F4154 
 10771      4F4D4943 
 10771      5F424F4F 
 10771      4C5F4C4F 
 10772              	.LASF706:
 10773 15b4 494F434F 		.ascii	"IOCON_FUNC7 0x7\000"
 10773      4E5F4655 
 10773      4E433720 
 10773      30783700 
 10774              	.LASF632:
 10775 15c4 4C50435F 		.ascii	"LPC_ACMP_BASE 0x40028000\000"
 10775      41434D50 
 10775      5F424153 
 10775      45203078 
 10775      34303032 
 10776              	.LASF442:
 10777 15dd 55494E54 		.ascii	"UINTPTR_MAX (__UINTPTR_MAX__)\000"
 10777      5054525F 
 10777      4D415820 
 10777      285F5F55 
 10777      494E5450 
 10778              	.LASF335:
 10779 15fb 5F5F5448 		.ascii	"__THUMB_INTERWORK__ 1\000"
 10779      554D425F 
 10779      494E5445 
 10779      52574F52 
 10779      4B5F5F20 
 10780              	.LASF225:
 10781 1611 5F5F554C 		.ascii	"__ULLFRACT_MAX__ 0XFFFFFFFFFFFFFFFFP-64ULLR\000"
 10781      4C465241 
 10781      43545F4D 
 10781      41585F5F 
 10781      20305846 
 10782              	.LASF1007:
 10783 163d 4932435F 		.ascii	"I2C_NAK_RECV (0x10000000 | 0x01)\000"
 10783      4E414B5F 
ARM GAS  /var/folders/z0/6xlwn_996xz3mwq1cgzkbq4r0000gp/T//cc0Pdjko.s 			page 224


 10783      52454356 
 10783      20283078 
 10783      31303030 
 10784              	.LASF728:
 10785 165e 4D445F44 		.ascii	"MD_DISFIL (0x0 << 8)\000"
 10785      49534649 
 10785      4C202830 
 10785      7830203C 
 10785      3C203829 
 10786              	.LASF951:
 10787 1673 4932435F 		.ascii	"I2C_CON_I2EN (1UL << 6)\000"
 10787      434F4E5F 
 10787      4932454E 
 10787      20283155 
 10787      4C203C3C 
 10788              	.LASF652:
 10789 168b 4C50435F 		.ascii	"LPC_TIMER32_0 ((LPC_TIMER_T *) LPC_TIMER32_0_BASE)\000"
 10789      54494D45 
 10789      5233325F 
 10789      30202828 
 10789      4C50435F 
 10790              	.LASF428:
 10791 16be 5F55494E 		.ascii	"_UINT64_T_DECLARED \000"
 10791      5436345F 
 10791      545F4445 
 10791      434C4152 
 10791      45442000 
 10792              	.LASF37:
 10793 16d2 5F5F4348 		.ascii	"__CHAR32_TYPE__ long unsigned int\000"
 10793      41523332 
 10793      5F545950 
 10793      455F5F20 
 10793      6C6F6E67 
 10794              	.LASF464:
 10795 16f4 494E545F 		.ascii	"INT_LEAST64_MIN (-__INT_LEAST64_MAX__ - 1)\000"
 10795      4C454153 
 10795      5436345F 
 10795      4D494E20 
 10795      282D5F5F 
 10796              	.LASF364:
 10797 171f 5F504F53 		.ascii	"_POSIX_C_SOURCE 200809L\000"
 10797      49585F43 
 10797      5F534F55 
 10797      52434520 
 10797      32303038 
 10798              	.LASF115:
 10799 1737 5F5F5549 		.ascii	"__UINT_FAST32_MAX__ 0xffffffffU\000"
 10799      4E545F46 
 10799      41535433 
 10799      325F4D41 
 10799      585F5F20 
 10800              	.LASF128:
 10801 1757 5F5F464C 		.ascii	"__FLT_MAX_EXP__ 128\000"
 10801      545F4D41 
 10801      585F4558 
 10801      505F5F20 
 10801      31323800 
ARM GAS  /var/folders/z0/6xlwn_996xz3mwq1cgzkbq4r0000gp/T//cc0Pdjko.s 			page 225


 10802              	.LASF15:
 10803 176b 5F5F5349 		.ascii	"__SIZEOF_LONG__ 4\000"
 10803      5A454F46 
 10803      5F4C4F4E 
 10803      475F5F20 
 10803      3400
 10804              	.LASF377:
 10805 177d 5F5F5F69 		.ascii	"___int8_t_defined 1\000"
 10805      6E74385F 
 10805      745F6465 
 10805      66696E65 
 10805      64203100 
 10806              	.LASF846:
 10807 1791 55415254 		.ascii	"UART_RS485CTRL_SEL_DTR (1 << 3)\000"
 10807      5F525334 
 10807      38354354 
 10807      524C5F53 
 10807      454C5F44 
 10808              	.LASF19:
 10809 17b1 5F5F5349 		.ascii	"__SIZEOF_DOUBLE__ 8\000"
 10809      5A454F46 
 10809      5F444F55 
 10809      424C455F 
 10809      5F203800 
 10810              	.LASF813:
 10811 17c5 55415254 		.ascii	"UART_MCR_LOOPB_EN (1 << 4)\000"
 10811      5F4D4352 
 10811      5F4C4F4F 
 10811      50425F45 
 10811      4E202831 
 10812              	.LASF981:
 10813 17e0 4932435F 		.ascii	"I2C_I2STAT_S_TX_DAT_ACK ((0xB8))\000"
 10813      49325354 
 10813      41545F53 
 10813      5F54585F 
 10813      4441545F 
 10814              	.LASF726:
 10815 1801 4D445F41 		.ascii	"MD_ADMODE (0x0 << 7)\000"
 10815      444D4F44 
 10815      45202830 
 10815      7830203C 
 10815      3C203729 
 10816              	.LASF723:
 10817 1816 4D445F42 		.ascii	"MD_BUK (0x3 << 3)\000"
 10817      554B2028 
 10817      30783320 
 10817      3C3C2033 
 10817      2900
 10818              	.LASF1253:
 10819 1828 43686970 		.ascii	"Chip_I2C_EventHandlerPolling\000"
 10819      5F493243 
 10819      5F457665 
 10819      6E744861 
 10819      6E646C65 
 10820              	.LASF1016:
 10821 1845 43414E5F 		.ascii	"CAN_ERROR_STUF 0x00000008UL\000"
 10821      4552524F 
ARM GAS  /var/folders/z0/6xlwn_996xz3mwq1cgzkbq4r0000gp/T//cc0Pdjko.s 			page 226


 10821      525F5354 
 10821      55462030 
 10821      78303030 
 10822              	.LASF784:
 10823 1861 55415254 		.ascii	"UART_FCR_FIFO_EN (1 << 0)\000"
 10823      5F464352 
 10823      5F464946 
 10823      4F5F454E 
 10823      20283120 
 10824              	.LASF701:
 10825 187b 494F434F 		.ascii	"IOCON_FUNC2 0x2\000"
 10825      4E5F4655 
 10825      4E433220 
 10825      30783200 
 10826              	.LASF410:
 10827 188b 5F5F4641 		.ascii	"__FAST16 \000"
 10827      53543136 
 10827      2000
 10828              	.LASF937:
 10829 1895 4932435F 		.ascii	"I2C_I2CONSET_AA ((0x04))\000"
 10829      4932434F 
 10829      4E534554 
 10829      5F414120 
 10829      28283078 
 10830              	.LASF596:
 10831 18ae 53797354 		.ascii	"SysTick_CTRL_COUNTFLAG_Msk (1UL << SysTick_CTRL_COU"
 10831      69636B5F 
 10831      4354524C 
 10831      5F434F55 
 10831      4E54464C 
 10832 18e1 4E54464C 		.ascii	"NTFLAG_Pos)\000"
 10832      41475F50 
 10832      6F732900 
 10833              	.LASF371:
 10834 18ed 5F5F4C41 		.ascii	"__LARGEFILE_VISIBLE 0\000"
 10834      52474546 
 10834      494C455F 
 10834      56495349 
 10834      424C4520 
 10835              	.LASF177:
 10836 1903 5F5F4445 		.ascii	"__DEC64_MAX__ 9.999999999999999E384DD\000"
 10836      4336345F 
 10836      4D41585F 
 10836      5F20392E 
 10836      39393939 
 10837              	.LASF354:
 10838 1929 5F5F4E45 		.ascii	"__NEWLIB__ 2\000"
 10838      574C4942 
 10838      5F5F2032 
 10838      00
 10839              	.LASF1133:
 10840 1936 50445255 		.ascii	"PDRUNCFG\000"
 10840      4E434647 
 10840      00
 10841              	.LASF586:
 10842 193f 5343425F 		.ascii	"SCB_SCR_SLEEPDEEP_Msk (1UL << SCB_SCR_SLEEPDEEP_Pos"
 10842      5343525F 
ARM GAS  /var/folders/z0/6xlwn_996xz3mwq1cgzkbq4r0000gp/T//cc0Pdjko.s 			page 227


 10842      534C4545 
 10842      50444545 
 10842      505F4D73 
 10843 1972 2900     		.ascii	")\000"
 10844              	.LASF957:
 10845 1974 4932435F 		.ascii	"I2C_I2STAT_M_TX_RESTART ((0x10))\000"
 10845      49325354 
 10845      41545F4D 
 10845      5F54585F 
 10845      52455354 
 10846              	.LASF903:
 10847 1995 5353505F 		.ascii	"SSP_CPOL_HI SSP_CR0_CPOL_LO\000"
 10847      43504F4C 
 10847      5F484920 
 10847      5353505F 
 10847      4352305F 
 10848              	.LASF127:
 10849 19b1 5F5F464C 		.ascii	"__FLT_MIN_10_EXP__ (-37)\000"
 10849      545F4D49 
 10849      4E5F3130 
 10849      5F455850 
 10849      5F5F2028 
 10850              	.LASF370:
 10851 19ca 5F5F4953 		.ascii	"__ISO_C_VISIBLE 1999\000"
 10851      4F5F435F 
 10851      56495349 
 10851      424C4520 
 10851      31393939 
 10852              	.LASF771:
 10853 19df 55415254 		.ascii	"UART1_IER_BITMASK (0x30F)\000"
 10853      315F4945 
 10853      525F4249 
 10853      544D4153 
 10853      4B202830 
 10854              	.LASF921:
 10855 19f9 4144435F 		.ascii	"ADC_CR_START_MODE_SEL(SEL) ((SEL << 24))\000"
 10855      43525F53 
 10855      54415254 
 10855      5F4D4F44 
 10855      455F5345 
 10856              	.LASF130:
 10857 1a22 5F5F464C 		.ascii	"__FLT_DECIMAL_DIG__ 9\000"
 10857      545F4445 
 10857      43494D41 
 10857      4C5F4449 
 10857      475F5F20 
 10858              	.LASF419:
 10859 1a38 5F55494E 		.ascii	"_UINT8_T_DECLARED \000"
 10859      54385F54 
 10859      5F444543 
 10859      4C415245 
 10859      442000
 10860              	.LASF778:
 10861 1a4b 55415254 		.ascii	"UART_IIR_INTID_MASK (7 << 1)\000"
 10861      5F494952 
 10861      5F494E54 
 10861      49445F4D 
ARM GAS  /var/folders/z0/6xlwn_996xz3mwq1cgzkbq4r0000gp/T//cc0Pdjko.s 			page 228


 10861      41534B20 
 10862              	.LASF1058:
 10863 1a68 7369676E 		.ascii	"signed char\000"
 10863      65642063 
 10863      68617200 
 10864              	.LASF889:
 10865 1a74 5353505F 		.ascii	"SSP_CR0_SCR(n) ((uint32_t) ((n & 0xFF) << 8))\000"
 10865      4352305F 
 10865      53435228 
 10865      6E292028 
 10865      2875696E 
 10866              	.LASF910:
 10867 1aa2 5F5F4144 		.ascii	"__ADC_11XX_H_ \000"
 10867      435F3131 
 10867      58585F48 
 10867      5F2000
 10868              	.LASF1069:
 10869 1ab1 75696E74 		.ascii	"uint8_t\000"
 10869      385F7400 
 10870              	.LASF690:
 10871 1ab9 53595343 		.ascii	"SYSCTL_POWERDOWN_FLASH_PD (1 << 2)\000"
 10871      544C5F50 
 10871      4F574552 
 10871      444F574E 
 10871      5F464C41 
 10872              	.LASF1088:
 10873 1adc 55534250 		.ascii	"USBPLLCLKSEL\000"
 10873      4C4C434C 
 10873      4B53454C 
 10873      00
 10874              	.LASF524:
 10875 1ae9 43484950 		.ascii	"CHIP_LPC11CXX \000"
 10875      5F4C5043 
 10875      31314358 
 10875      582000
 10876              	.LASF892:
 10877 1af8 5353505F 		.ascii	"SSP_CR1_SSP_EN ((uint32_t) (1 << 1))\000"
 10877      4352315F 
 10877      5353505F 
 10877      454E2028 
 10877      2875696E 
 10878              	.LASF1240:
 10879 1b1d 43686970 		.ascii	"Chip_I2C_DeInit\000"
 10879      5F493243 
 10879      5F446549 
 10879      6E697400 
 10880              	.LASF962:
 10881 1b2d 4932435F 		.ascii	"I2C_I2STAT_M_TX_ARB_LOST ((0x38))\000"
 10881      49325354 
 10881      41545F4D 
 10881      5F54585F 
 10881      4152425F 
 10882              	.LASF487:
 10883 1b4f 57434841 		.ascii	"WCHAR_MIN (__WCHAR_MIN__)\000"
 10883      525F4D49 
 10883      4E20285F 
 10883      5F574348 
ARM GAS  /var/folders/z0/6xlwn_996xz3mwq1cgzkbq4r0000gp/T//cc0Pdjko.s 			page 229


 10883      41525F4D 
 10884              	.LASF934:
 10885 1b69 5245545F 		.ascii	"RET_SLAVE_IDLE 2\000"
 10885      534C4156 
 10885      455F4944 
 10885      4C452032 
 10885      00
 10886              	.LASF197:
 10887 1b7a 5F5F4652 		.ascii	"__FRACT_FBIT__ 15\000"
 10887      4143545F 
 10887      46424954 
 10887      5F5F2031 
 10887      3500
 10888              	.LASF1110:
 10889 1b8c 434C4B4F 		.ascii	"CLKOUTUEN\000"
 10889      55545545 
 10889      4E00
 10890              	.LASF137:
 10891 1b96 5F5F464C 		.ascii	"__FLT_HAS_QUIET_NAN__ 1\000"
 10891      545F4841 
 10891      535F5155 
 10891      4945545F 
 10891      4E414E5F 
 10892              	.LASF512:
 10893 1bae 5F534246 		.ascii	"_SBF(f,v) ((v) << (f))\000"
 10893      28662C76 
 10893      29202828 
 10893      7629203C 
 10893      3C202866 
 10894              	.LASF4:
 10895 1bc5 5F5F474E 		.ascii	"__GNUC_PATCHLEVEL__ 1\000"
 10895      55435F50 
 10895      41544348 
 10895      4C455645 
 10895      4C5F5F20 
 10896              	.LASF578:
 10897 1bdb 5343425F 		.ascii	"SCB_AIRCR_ENDIANESS_Msk (1UL << SCB_AIRCR_ENDIANESS"
 10897      41495243 
 10897      525F454E 
 10897      4449414E 
 10897      4553535F 
 10898 1c0e 5F506F73 		.ascii	"_Pos)\000"
 10898      2900
 10899              	.LASF103:
 10900 1c14 5F5F5549 		.ascii	"__UINT_LEAST16_MAX__ 0xffff\000"
 10900      4E545F4C 
 10900      45415354 
 10900      31365F4D 
 10900      41585F5F 
 10901              	.LASF853:
 10902 1c30 55415254 		.ascii	"UART_ICR_PULSEDIV(n) ((n & 0x07) << 3)\000"
 10902      5F494352 
 10902      5F50554C 
 10902      53454449 
 10902      56286E29 
 10903              	.LASF819:
 10904 1c57 55415254 		.ascii	"UART_LSR_PE (1 << 2)\000"
ARM GAS  /var/folders/z0/6xlwn_996xz3mwq1cgzkbq4r0000gp/T//cc0Pdjko.s 			page 230


 10904      5F4C5352 
 10904      5F504520 
 10904      2831203C 
 10904      3C203229 
 10905              	.LASF904:
 10906 1c6c 5353505F 		.ascii	"SSP_CPOL_LO SSP_CR0_CPOL_HI\000"
 10906      43504F4C 
 10906      5F4C4F20 
 10906      5353505F 
 10906      4352305F 
 10907              	.LASF1218:
 10908 1c88 6973536C 		.ascii	"isSlaveAddrMatching\000"
 10908      61766541 
 10908      6464724D 
 10908      61746368 
 10908      696E6700 
 10909              	.LASF349:
 10910 1c9c 5F535444 		.ascii	"_STDINT_H \000"
 10910      494E545F 
 10910      482000
 10911              	.LASF656:
 10912 1ca7 4C50435F 		.ascii	"LPC_FMC ((LPC_FMC_T *) LPC_FLASH_BASE)\000"
 10912      464D4320 
 10912      28284C50 
 10912      435F464D 
 10912      435F5420 
 10913              	.LASF572:
 10914 1cce 5343425F 		.ascii	"SCB_ICSR_VECTACTIVE_Msk (0x1FFUL << SCB_ICSR_VECTAC"
 10914      49435352 
 10914      5F564543 
 10914      54414354 
 10914      4956455F 
 10915 1d01 54495645 		.ascii	"TIVE_Pos)\000"
 10915      5F506F73 
 10915      2900
 10916              	.LASF809:
 10917 1d0b 55415254 		.ascii	"UART_LCR_DLAB_EN (1 << 7)\000"
 10917      5F4C4352 
 10917      5F444C41 
 10917      425F454E 
 10917      20283120 
 10918              	.LASF539:
 10919 1d25 5F5F434F 		.ascii	"__CORE_CMINSTR_H \000"
 10919      52455F43 
 10919      4D494E53 
 10919      54525F48 
 10919      2000
 10920              	.LASF470:
 10921 1d37 494E545F 		.ascii	"INT_FAST16_MIN (-__INT_FAST16_MAX__ - 1)\000"
 10921      46415354 
 10921      31365F4D 
 10921      494E2028 
 10921      2D5F5F49 
 10922              	.LASF836:
 10923 1d60 55415254 		.ascii	"UART_MSR_BITMASK (0xFF)\000"
 10923      5F4D5352 
 10923      5F424954 
ARM GAS  /var/folders/z0/6xlwn_996xz3mwq1cgzkbq4r0000gp/T//cc0Pdjko.s 			page 231


 10923      4D41534B 
 10923      20283078 
 10924              	.LASF1194:
 10925 1d78 4932435F 		.ascii	"I2C_ID_T\000"
 10925      49445F54 
 10925      00
 10926              	.LASF850:
 10927 1d81 55415254 		.ascii	"UART_ICR_IRDAEN (1 << 0)\000"
 10927      5F494352 
 10927      5F495244 
 10927      41454E20 
 10927      2831203C 
 10928              	.LASF379:
 10929 1d9a 5F5F5F69 		.ascii	"___int32_t_defined 1\000"
 10929      6E743332 
 10929      5F745F64 
 10929      6566696E 
 10929      65642031 
 10930              	.LASF1079:
 10931 1daf 52455345 		.ascii	"RESERVED1\000"
 10931      52564544 
 10931      3100
 10932              	.LASF1059:
 10933 1db9 756E7369 		.ascii	"unsigned char\000"
 10933      676E6564 
 10933      20636861 
 10933      7200
 10934              	.LASF1090:
 10935 1dc7 52455345 		.ascii	"RESERVED3\000"
 10935      52564544 
 10935      3300
 10936              	.LASF1094:
 10937 1dd1 52455345 		.ascii	"RESERVED4\000"
 10937      52564544 
 10937      3400
 10938              	.LASF1096:
 10939 1ddb 52455345 		.ascii	"RESERVED5\000"
 10939      52564544 
 10939      3500
 10940              	.LASF1100:
 10941 1de5 52455345 		.ascii	"RESERVED6\000"
 10941      52564544 
 10941      3600
 10942              	.LASF1104:
 10943 1def 52455345 		.ascii	"RESERVED7\000"
 10943      52564544 
 10943      3700
 10944              	.LASF1108:
 10945 1df9 52455345 		.ascii	"RESERVED8\000"
 10945      52564544 
 10945      3800
 10946              	.LASF1112:
 10947 1e03 52455345 		.ascii	"RESERVED9\000"
 10947      52564544 
 10947      3900
 10948              	.LASF182:
 10949 1e0d 5F5F4445 		.ascii	"__DEC128_MAX_EXP__ 6145\000"
ARM GAS  /var/folders/z0/6xlwn_996xz3mwq1cgzkbq4r0000gp/T//cc0Pdjko.s 			page 232


 10949      43313238 
 10949      5F4D4158 
 10949      5F455850 
 10949      5F5F2036 
 10950              	.LASF119:
 10951 1e25 5F5F4743 		.ascii	"__GCC_IEC_559 0\000"
 10951      435F4945 
 10951      435F3535 
 10951      39203000 
 10952              	.LASF1091:
 10953 1e35 4D41494E 		.ascii	"MAINCLKSEL\000"
 10953      434C4B53 
 10953      454C00
 10954              	.LASF1037:
 10955 1e40 53444F5F 		.ascii	"SDO_ABORT_VALUE_RANGE 0x06090030UL\000"
 10955      41424F52 
 10955      545F5641 
 10955      4C55455F 
 10955      52414E47 
 10956              	.LASF111:
 10957 1e63 5F5F494E 		.ascii	"__INT_FAST32_MAX__ 0x7fffffff\000"
 10957      545F4641 
 10957      53543332 
 10957      5F4D4158 
 10957      5F5F2030 
 10958              	.LASF7:
 10959 1e81 5F5F4154 		.ascii	"__ATOMIC_SEQ_CST 5\000"
 10959      4F4D4943 
 10959      5F534551 
 10959      5F435354 
 10959      203500
 10960              	.LASF588:
 10961 1e94 5343425F 		.ascii	"SCB_SCR_SLEEPONEXIT_Msk (1UL << SCB_SCR_SLEEPONEXIT"
 10961      5343525F 
 10961      534C4545 
 10961      504F4E45 
 10961      5849545F 
 10962 1ec7 5F506F73 		.ascii	"_Pos)\000"
 10962      2900
 10963              	.LASF724:
 10964 1ecd 4D445F48 		.ascii	"MD_HYS (0x1 << 5)\000"
 10964      59532028 
 10964      30783120 
 10964      3C3C2035 
 10964      2900
 10965              	.LASF898:
 10966 1edf 5353505F 		.ascii	"SSP_DR_BITMASK(n) ((n) & 0xFFFF)\000"
 10966      44525F42 
 10966      49544D41 
 10966      534B286E 
 10966      29202828 
 10967              	.LASF902:
 10968 1f00 5353505F 		.ascii	"SSP_CPHA_SECOND SSP_CR0_CPHA_SECOND\000"
 10968      43504841 
 10968      5F534543 
 10968      4F4E4420 
 10968      5353505F 
ARM GAS  /var/folders/z0/6xlwn_996xz3mwq1cgzkbq4r0000gp/T//cc0Pdjko.s 			page 233


 10969              	.LASF807:
 10970 1f24 55415254 		.ascii	"UART_LCR_PARITY_F_0 (3 << 4)\000"
 10970      5F4C4352 
 10970      5F504152 
 10970      4954595F 
 10970      465F3020 
 10971              	.LASF654:
 10972 1f41 4C50435F 		.ascii	"LPC_ADC ((LPC_ADC_T *) LPC_ADC_BASE)\000"
 10972      41444320 
 10972      28284C50 
 10972      435F4144 
 10972      435F5420 
 10973              	.LASF608:
 10974 1f66 53797354 		.ascii	"SysTick_CALIB_NOREF_Msk (1UL << SysTick_CALIB_NOREF"
 10974      69636B5F 
 10974      43414C49 
 10974      425F4E4F 
 10974      5245465F 
 10975 1f99 5F506F73 		.ascii	"_Pos)\000"
 10975      2900
 10976              	.LASF468:
 10977 1f9f 494E545F 		.ascii	"INT_FAST8_MAX (__INT_FAST8_MAX__)\000"
 10977      46415354 
 10977      385F4D41 
 10977      5820285F 
 10977      5F494E54 
 10978              	.LASF1010:
 10979 1fc1 4932435F 		.ascii	"I2C_MONITOR_CFG_MATCHALL I2C_I2MMCTRL_MATCH_ALL\000"
 10979      4D4F4E49 
 10979      544F525F 
 10979      4346475F 
 10979      4D415443 
 10980              	.LASF90:
 10981 1ff1 5F5F5549 		.ascii	"__UINT16_MAX__ 0xffff\000"
 10981      4E543136 
 10981      5F4D4158 
 10981      5F5F2030 
 10981      78666666 
 10982              	.LASF950:
 10983 2007 4932435F 		.ascii	"I2C_CON_STA (1UL << 5)\000"
 10983      434F4E5F 
 10983      53544120 
 10983      2831554C 
 10983      203C3C20 
 10984              	.LASF275:
 10985 201e 5F5F5451 		.ascii	"__TQ_FBIT__ 127\000"
 10985      5F464249 
 10985      545F5F20 
 10985      31323700 
 10986              	.LASF922:
 10987 202e 4144435F 		.ascii	"ADC_CR_START_NOW ((1UL << 24))\000"
 10987      43525F53 
 10987      54415254 
 10987      5F4E4F57 
 10987      20282831 
 10988              	.LASF198:
 10989 204d 5F5F4652 		.ascii	"__FRACT_IBIT__ 0\000"
ARM GAS  /var/folders/z0/6xlwn_996xz3mwq1cgzkbq4r0000gp/T//cc0Pdjko.s 			page 234


 10989      4143545F 
 10989      49424954 
 10989      5F5F2030 
 10989      00
 10990              	.LASF1026:
 10991 205e 53444F5F 		.ascii	"SDO_ABORT_TOGGLE 0x05030000UL\000"
 10991      41424F52 
 10991      545F544F 
 10991      47474C45 
 10991      20307830 
 10992              	.LASF439:
 10993 207c 5F5F696E 		.ascii	"__int_fast64_t_defined 1\000"
 10993      745F6661 
 10993      73743634 
 10993      5F745F64 
 10993      6566696E 
 10994              	.LASF646:
 10995 2095 4C50435F 		.ascii	"LPC_ROM_API_BASE_LOC 0x1FFF1FF8\000"
 10995      524F4D5F 
 10995      4150495F 
 10995      42415345 
 10995      5F4C4F43 
 10996              	.LASF341:
 10997 20b5 5F5F5553 		.ascii	"__USES_INITFINI__ 1\000"
 10997      45535F49 
 10997      4E495446 
 10997      494E495F 
 10997      5F203100 
 10998              	.LASF549:
 10999 20c9 5343425F 		.ascii	"SCB_CPUID_ARCHITECTURE_Pos 16\000"
 10999      43505549 
 10999      445F4152 
 10999      43484954 
 10999      45435455 
 11000              	.LASF887:
 11001 20e7 5353505F 		.ascii	"SSP_CR0_CPHA_FIRST ((uint32_t) (0))\000"
 11001      4352305F 
 11001      43504841 
 11001      5F464952 
 11001      53542028 
 11002              	.LASF1179:
 11003 210b 4932435F 		.ascii	"I2C_STATUS_ARBLOST\000"
 11003      53544154 
 11003      55535F41 
 11003      52424C4F 
 11003      535400
 11004              	.LASF262:
 11005 211e 5F5F554C 		.ascii	"__ULLACCUM_FBIT__ 32\000"
 11005      4C414343 
 11005      554D5F46 
 11005      4249545F 
 11005      5F203332 
 11006              	.LASF1056:
 11007 2133 4C50435F 		.ascii	"LPC_I2Cx(id) ((i2c.ip))\000"
 11007      49324378 
 11007      28696429 
 11007      20282869 
ARM GAS  /var/folders/z0/6xlwn_996xz3mwq1cgzkbq4r0000gp/T//cc0Pdjko.s 			page 235


 11007      32632E69 
 11008              	.LASF1071:
 11009 214b 5F426F6F 		.ascii	"_Bool\000"
 11009      6C00
 11010              	.LASF788:
 11011 2151 55415254 		.ascii	"UART_FCR_BITMASK (0xCF)\000"
 11011      5F464352 
 11011      5F424954 
 11011      4D41534B 
 11011      20283078 
 11012              	.LASF616:
 11013 2169 5343425F 		.ascii	"SCB_BASE (SCS_BASE + 0x0D00UL)\000"
 11013      42415345 
 11013      20285343 
 11013      535F4241 
 11013      5345202B 
 11014              	.LASF663:
 11015 2188 4C50435F 		.ascii	"LPC_GPIO ((LPC_GPIO_T *) LPC_GPIO_PORT0_BASE)\000"
 11015      4750494F 
 11015      2028284C 
 11015      50435F47 
 11015      50494F5F 
 11016              	.LASF348:
 11017 21b6 5F5F4C50 		.ascii	"__LPC_TYPES_H_ \000"
 11017      435F5459 
 11017      5045535F 
 11017      485F2000 
 11018              	.LASF251:
 11019 21c6 5F5F4C41 		.ascii	"__LACCUM_EPSILON__ 0x1P-31LK\000"
 11019      4343554D 
 11019      5F455053 
 11019      494C4F4E 
 11019      5F5F2030 
 11020              	.LASF1043:
 11021 21e3 4F445F45 		.ascii	"OD_EXP_WO 0x20\000"
 11021      58505F57 
 11021      4F203078 
 11021      323000
 11022              	.LASF517:
 11023 21f2 53544154 		.ascii	"STATIC static\000"
 11023      49432073 
 11023      74617469 
 11023      6300
 11024              	.LASF1085:
 11025 2200 52455345 		.ascii	"RESERVED2\000"
 11025      52564544 
 11025      3200
 11026              	.LASF712:
 11027 220a 494F434F 		.ascii	"IOCON_INV_EN (0x1 << 6)\000"
 11027      4E5F494E 
 11027      565F454E 
 11027      20283078 
 11027      31203C3C 
 11028              	.LASF20:
 11029 2222 5F5F5349 		.ascii	"__SIZEOF_LONG_DOUBLE__ 8\000"
 11029      5A454F46 
 11029      5F4C4F4E 
ARM GAS  /var/folders/z0/6xlwn_996xz3mwq1cgzkbq4r0000gp/T//cc0Pdjko.s 			page 236


 11029      475F444F 
 11029      55424C45 
 11030              	.LASF821:
 11031 223b 55415254 		.ascii	"UART_LSR_BI (1 << 4)\000"
 11031      5F4C5352 
 11031      5F424920 
 11031      2831203C 
 11031      3C203429 
 11032              	.LASF799:
 11033 2250 55415254 		.ascii	"UART_LCR_SBS_MASK (1 << 2)\000"
 11033      5F4C4352 
 11033      5F534253 
 11033      5F4D4153 
 11033      4B202831 
 11034              	.LASF319:
 11035 226b 5F5F5052 		.ascii	"__PRAGMA_REDEFINE_EXTNAME 1\000"
 11035      41474D41 
 11035      5F524544 
 11035      4546494E 
 11035      455F4558 
 11036              	.LASF32:
 11037 2287 5F5F5743 		.ascii	"__WCHAR_TYPE__ unsigned int\000"
 11037      4841525F 
 11037      54595045 
 11037      5F5F2075 
 11037      6E736967 
 11038              	.LASF662:
 11039 22a3 4C50435F 		.ascii	"LPC_USB ((LPC_USB_T *) LPC_USB0_BASE)\000"
 11039      55534220 
 11039      28284C50 
 11039      435F5553 
 11039      425F5420 
 11040              	.LASF392:
 11041 22c9 63686172 		.ascii	"char\000"
 11041      00
 11042              	.LASF298:
 11043 22ce 5F5F5553 		.ascii	"__USA_IBIT__ 16\000"
 11043      415F4942 
 11043      49545F5F 
 11043      20313600 
 11044              	.LASF499:
 11045 22de 494E544D 		.ascii	"INTMAX_C(x) __INTMAX_C(x)\000"
 11045      41585F43 
 11045      28782920 
 11045      5F5F494E 
 11045      544D4158 
 11046              	.LASF486:
 11047 22f8 50545244 		.ascii	"PTRDIFF_MIN (-PTRDIFF_MAX - 1)\000"
 11047      4946465F 
 11047      4D494E20 
 11047      282D5054 
 11047      52444946 
 11048              	.LASF731:
 11049 2317 4D445F53 		.ascii	"MD_STDI2C (0x1 << 8)\000"
 11049      54444932 
 11049      43202830 
 11049      7831203C 
ARM GAS  /var/folders/z0/6xlwn_996xz3mwq1cgzkbq4r0000gp/T//cc0Pdjko.s 			page 237


 11049      3C203829 
 11050              	.LASF1098:
 11051 232c 55534152 		.ascii	"USARTCLKDIV\000"
 11051      54434C4B 
 11051      44495600 
 11052              	.LASF1035:
 11053 2338 53444F5F 		.ascii	"SDO_ABORT_TYPEMISMATCH 0x06070010UL\000"
 11053      41424F52 
 11053      545F5459 
 11053      50454D49 
 11053      534D4154 
 11054              	.LASF62:
 11055 235c 5F5F5549 		.ascii	"__UINT_FAST64_TYPE__ long long unsigned int\000"
 11055      4E545F46 
 11055      41535436 
 11055      345F5459 
 11055      50455F5F 
 11056              	.LASF1148:
 11057 2388 53595343 		.ascii	"SYSCTL_CLOCK_SSP0\000"
 11057      544C5F43 
 11057      4C4F434B 
 11057      5F535350 
 11057      3000
 11058              	.LASF1155:
 11059 239a 53595343 		.ascii	"SYSCTL_CLOCK_SSP1\000"
 11059      544C5F43 
 11059      4C4F434B 
 11059      5F535350 
 11059      3100
 11060              	.LASF67:
 11061 23ac 5F5F4758 		.ascii	"__GXX_ABI_VERSION 1009\000"
 11061      585F4142 
 11061      495F5645 
 11061      5253494F 
 11061      4E203130 
 11062              	.LASF718:
 11063 23c3 494F434F 		.ascii	"IOCON_FILT_DIS (0x1 << 8)\000"
 11063      4E5F4649 
 11063      4C545F44 
 11063      49532028 
 11063      30783120 
 11064              	.LASF132:
 11065 23dd 5F5F464C 		.ascii	"__FLT_MIN__ 1.1754943508222875e-38F\000"
 11065      545F4D49 
 11065      4E5F5F20 
 11065      312E3137 
 11065      35343934 
 11066              	.LASF287:
 11067 2401 5F5F4841 		.ascii	"__HA_FBIT__ 7\000"
 11067      5F464249 
 11067      545F5F20 
 11067      3700
 11068              	.LASF659:
 11069 240f 4C50435F 		.ascii	"LPC_SYSCTL ((LPC_SYSCTL_T *) LPC_SYSCTL_BASE)\000"
 11069      53595343 
 11069      544C2028 
 11069      284C5043 
ARM GAS  /var/folders/z0/6xlwn_996xz3mwq1cgzkbq4r0000gp/T//cc0Pdjko.s 			page 238


 11069      5F535953 
 11070              	.LASF28:
 11071 243d 5F5F464C 		.ascii	"__FLOAT_WORD_ORDER__ __ORDER_LITTLE_ENDIAN__\000"
 11071      4F41545F 
 11071      574F5244 
 11071      5F4F5244 
 11071      45525F5F 
 11072              	.LASF1045:
 11073 246a 4F445F53 		.ascii	"OD_SEG_RO 0x40\000"
 11073      45475F52 
 11073      4F203078 
 11073      343000
 11074              	.LASF484:
 11075 2479 5349475F 		.ascii	"SIG_ATOMIC_MAX (__STDINT_EXP(INT_MAX))\000"
 11075      41544F4D 
 11075      49435F4D 
 11075      41582028 
 11075      5F5F5354 
 11076              	.LASF754:
 11077 24a0 5F5F5541 		.ascii	"__UART_11XX_H_ \000"
 11077      52545F31 
 11077      3158585F 
 11077      485F2000 
 11078              	.LASF1041:
 11079 24b0 4F445F4E 		.ascii	"OD_NONE 0x00\000"
 11079      4F4E4520 
 11079      30783030 
 11079      00
 11080              	.LASF475:
 11081 24bd 55494E54 		.ascii	"UINT_FAST32_MAX (__UINT_FAST32_MAX__)\000"
 11081      5F464153 
 11081      5433325F 
 11081      4D415820 
 11081      285F5F55 
 11082              	.LASF630:
 11083 24e3 4C50435F 		.ascii	"LPC_ADC_BASE 0x4001C000\000"
 11083      4144435F 
 11083      42415345 
 11083      20307834 
 11083      30303143 
 11084              	.LASF958:
 11085 24fb 4932435F 		.ascii	"I2C_I2STAT_M_TX_SLAW_ACK ((0x18))\000"
 11085      49325354 
 11085      41545F4D 
 11085      5F54585F 
 11085      534C4157 
 11086              	.LASF167:
 11087 251d 5F5F4445 		.ascii	"__DEC32_MIN_EXP__ (-94)\000"
 11087      4333325F 
 11087      4D494E5F 
 11087      4558505F 
 11087      5F20282D 
 11088              	.LASF193:
 11089 2535 5F5F5553 		.ascii	"__USFRACT_IBIT__ 0\000"
 11089      46524143 
 11089      545F4942 
 11089      49545F5F 
ARM GAS  /var/folders/z0/6xlwn_996xz3mwq1cgzkbq4r0000gp/T//cc0Pdjko.s 			page 239


 11089      203000
 11090              	.LASF98:
 11091 2548 5F5F494E 		.ascii	"__INT32_C(c) c ## L\000"
 11091      5433325F 
 11091      43286329 
 11091      20632023 
 11091      23204C00 
 11092              	.LASF974:
 11093 255c 4932435F 		.ascii	"I2C_I2STAT_S_RX_PRE_SLA_DAT_ACK ((0x80))\000"
 11093      49325354 
 11093      41545F53 
 11093      5F52585F 
 11093      5052455F 
 11094              	.LASF567:
 11095 2585 5343425F 		.ascii	"SCB_ICSR_ISRPENDING_Pos 22\000"
 11095      49435352 
 11095      5F495352 
 11095      50454E44 
 11095      494E475F 
 11096              	.LASF946:
 11097 25a0 4932435F 		.ascii	"I2C_I2CONCLR_I2ENC ((1 << 6))\000"
 11097      4932434F 
 11097      4E434C52 
 11097      5F493245 
 11097      4E432028 
 11098              	.LASF342:
 11099 25be 55415254 		.ascii	"UART_BAUD 57600\000"
 11099      5F424155 
 11099      44203537 
 11099      36303000 
 11100              	.LASF194:
 11101 25ce 5F5F5553 		.ascii	"__USFRACT_MIN__ 0.0UHR\000"
 11101      46524143 
 11101      545F4D49 
 11101      4E5F5F20 
 11101      302E3055 
 11102              	.LASF739:
 11103 25e5 46554E43 		.ascii	"FUNC5 0x5\000"
 11103      35203078 
 11103      3500
 11104              	.LASF841:
 11105 25ef 55415254 		.ascii	"UART_ACR_ABTOINT_CLR (1 << 9)\000"
 11105      5F414352 
 11105      5F414254 
 11105      4F494E54 
 11105      5F434C52 
 11106              	.LASF89:
 11107 260d 5F5F5549 		.ascii	"__UINT8_MAX__ 0xff\000"
 11107      4E54385F 
 11107      4D41585F 
 11107      5F203078 
 11107      666600
 11108              	.LASF378:
 11109 2620 5F5F5F69 		.ascii	"___int16_t_defined 1\000"
 11109      6E743136 
 11109      5F745F64 
 11109      6566696E 
ARM GAS  /var/folders/z0/6xlwn_996xz3mwq1cgzkbq4r0000gp/T//cc0Pdjko.s 			page 240


 11109      65642031 
 11110              	.LASF156:
 11111 2635 5F5F4C44 		.ascii	"__LDBL_MAX_EXP__ 1024\000"
 11111      424C5F4D 
 11111      41585F45 
 11111      58505F5F 
 11111      20313032 
 11112              	.LASF705:
 11113 264b 494F434F 		.ascii	"IOCON_FUNC6 0x6\000"
 11113      4E5F4655 
 11113      4E433620 
 11113      30783600 
 11114              	.LASF587:
 11115 265b 5343425F 		.ascii	"SCB_SCR_SLEEPONEXIT_Pos 1\000"
 11115      5343525F 
 11115      534C4545 
 11115      504F4E45 
 11115      5849545F 
 11116              	.LASF585:
 11117 2675 5343425F 		.ascii	"SCB_SCR_SLEEPDEEP_Pos 2\000"
 11117      5343525F 
 11117      534C4545 
 11117      50444545 
 11117      505F506F 
 11118              	.LASF777:
 11119 268d 55415254 		.ascii	"UART_IIR_BITMASK (0x3CF)\000"
 11119      5F494952 
 11119      5F424954 
 11119      4D41534B 
 11119      20283078 
 11120              	.LASF420:
 11121 26a6 5F5F696E 		.ascii	"__int8_t_defined 1\000"
 11121      74385F74 
 11121      5F646566 
 11121      696E6564 
 11121      203100
 11122              	.LASF1023:
 11123 26b9 43414E5F 		.ascii	"CAN_MSGOBJ_EXT 0x20000000UL\000"
 11123      4D53474F 
 11123      424A5F45 
 11123      58542030 
 11123      78323030 
 11124              	.LASF149:
 11125 26d5 5F5F4442 		.ascii	"__DBL_HAS_DENORM__ 1\000"
 11125      4C5F4841 
 11125      535F4445 
 11125      4E4F524D 
 11125      5F5F2031 
 11126              	.LASF1054:
 11127 26ea 4C50435F 		.ascii	"LPC_CCAN_API ((CCAN_API_T *) (LPC_ROM_API->candApiB"
 11127      4343414E 
 11127      5F415049 
 11127      20282843 
 11127      43414E5F 
 11128 271d 61736529 		.ascii	"ase))\000"
 11128      2900
 11129              	.LASF884:
ARM GAS  /var/folders/z0/6xlwn_996xz3mwq1cgzkbq4r0000gp/T//cc0Pdjko.s 			page 241


 11130 2723 5353505F 		.ascii	"SSP_CR0_FRF_MICROWIRE ((uint32_t) (2 << 4))\000"
 11130      4352305F 
 11130      4652465F 
 11130      4D494352 
 11130      4F574952 
 11131              	.LASF678:
 11132 274f 53595343 		.ascii	"SYSCTL_DEEPSLP_BOD_PD (1 << 3)\000"
 11132      544C5F44 
 11132      45455053 
 11132      4C505F42 
 11132      4F445F50 
 11133              	.LASF601:
 11134 276e 53797354 		.ascii	"SysTick_CTRL_ENABLE_Pos 0\000"
 11134      69636B5F 
 11134      4354524C 
 11134      5F454E41 
 11134      424C455F 
 11135              	.LASF479:
 11136 2788 494E544D 		.ascii	"INTMAX_MAX (__INTMAX_MAX__)\000"
 11136      41585F4D 
 11136      41582028 
 11136      5F5F494E 
 11136      544D4158 
 11137              	.LASF456:
 11138 27a4 494E5433 		.ascii	"INT32_MAX (__INT32_MAX__)\000"
 11138      325F4D41 
 11138      5820285F 
 11138      5F494E54 
 11138      33325F4D 
 11139              	.LASF794:
 11140 27be 55415254 		.ascii	"UART_LCR_WLEN_MASK (3 << 0)\000"
 11140      5F4C4352 
 11140      5F574C45 
 11140      4E5F4D41 
 11140      534B2028 
 11141              	.LASF1252:
 11142 27da 43686970 		.ascii	"Chip_I2C_IsMasterActive\000"
 11142      5F493243 
 11142      5F49734D 
 11142      61737465 
 11142      72416374 
 11143              	.LASF291:
 11144 27f2 5F5F4441 		.ascii	"__DA_FBIT__ 31\000"
 11144      5F464249 
 11144      545F5F20 
 11144      333100
 11145              	.LASF1207:
 11146 2801 666C6167 		.ascii	"flags\000"
 11146      7300
 11147              	.LASF306:
 11148 2807 5F5F4348 		.ascii	"__CHAR_UNSIGNED__ 1\000"
 11148      41525F55 
 11148      4E534947 
 11148      4E45445F 
 11148      5F203100 
 11149              	.LASF95:
 11150 281b 5F5F494E 		.ascii	"__INT_LEAST16_MAX__ 0x7fff\000"
ARM GAS  /var/folders/z0/6xlwn_996xz3mwq1cgzkbq4r0000gp/T//cc0Pdjko.s 			page 242


 11150      545F4C45 
 11150      41535431 
 11150      365F4D41 
 11150      585F5F20 
 11151              	.LASF1157:
 11152 2836 434F4E53 		.ascii	"CONSET\000"
 11152      455400
 11153              	.LASF560:
 11154 283d 5343425F 		.ascii	"SCB_ICSR_PENDSVCLR_Msk (1UL << SCB_ICSR_PENDSVCLR_P"
 11154      49435352 
 11154      5F50454E 
 11154      44535643 
 11154      4C525F4D 
 11155 2870 6F732900 		.ascii	"os)\000"
 11156              	.LASF134:
 11157 2874 5F5F464C 		.ascii	"__FLT_DENORM_MIN__ 1.4012984643248171e-45F\000"
 11157      545F4445 
 11157      4E4F524D 
 11157      5F4D494E 
 11157      5F5F2031 
 11158              	.LASF413:
 11159 289f 5F5F4C45 		.ascii	"__LEAST8 \"hh\"\000"
 11159      41535438 
 11159      20226868 
 11159      2200
 11160              	.LASF1159:
 11161 28ad 41445230 		.ascii	"ADR0\000"
 11161      00
 11162              	.LASF1164:
 11163 28b2 41445231 		.ascii	"ADR1\000"
 11163      00
 11164              	.LASF1165:
 11165 28b7 41445232 		.ascii	"ADR2\000"
 11165      00
 11166              	.LASF1166:
 11167 28bc 41445233 		.ascii	"ADR3\000"
 11167      00
 11168              	.LASF1257:
 11169 28c1 43686970 		.ascii	"Chip_I2C_SlaveStateHandler\000"
 11169      5F493243 
 11169      5F536C61 
 11169      76655374 
 11169      61746548 
 11170              	.LASF66:
 11171 28dc 5F5F6861 		.ascii	"__has_include_next(STR) __has_include_next__(STR)\000"
 11171      735F696E 
 11171      636C7564 
 11171      655F6E65 
 11171      78742853 
 11172              	.LASF883:
 11173 290e 5353505F 		.ascii	"SSP_CR0_FRF_TI ((uint32_t) (1 << 4))\000"
 11173      4352305F 
 11173      4652465F 
 11173      54492028 
 11173      2875696E 
 11174              	.LASF454:
 11175 2933 55494E54 		.ascii	"UINT_LEAST16_MAX (__UINT_LEAST16_MAX__)\000"
ARM GAS  /var/folders/z0/6xlwn_996xz3mwq1cgzkbq4r0000gp/T//cc0Pdjko.s 			page 243


 11175      5F4C4541 
 11175      53543136 
 11175      5F4D4158 
 11175      20285F5F 
 11176              	.LASF106:
 11177 295b 5F5F5549 		.ascii	"__UINT32_C(c) c ## UL\000"
 11177      4E543332 
 11177      5F432863 
 11177      29206320 
 11177      23232055 
 11178              	.LASF551:
 11179 2971 5343425F 		.ascii	"SCB_CPUID_PARTNO_Pos 4\000"
 11179      43505549 
 11179      445F5041 
 11179      52544E4F 
 11179      5F506F73 
 11180              	.LASF556:
 11181 2988 5343425F 		.ascii	"SCB_ICSR_NMIPENDSET_Msk (1UL << SCB_ICSR_NMIPENDSET"
 11181      49435352 
 11181      5F4E4D49 
 11181      50454E44 
 11181      5345545F 
 11182 29bb 5F506F73 		.ascii	"_Pos)\000"
 11182      2900
 11183              	.LASF797:
 11184 29c1 55415254 		.ascii	"UART_LCR_WLEN7 (2 << 0)\000"
 11184      5F4C4352 
 11184      5F574C45 
 11184      4E372028 
 11184      32203C3C 
 11185              	.LASF511:
 11186 29d9 5F534246 		.ascii	"_SBF\000"
 11186      00
 11187              	.LASF244:
 11188 29de 5F5F5541 		.ascii	"__UACCUM_MIN__ 0.0UK\000"
 11188      4343554D 
 11188      5F4D494E 
 11188      5F5F2030 
 11188      2E30554B 
 11189              	.LASF345:
 11190 29f3 46534145 		.ascii	"FSAE_DRIVERS 1\000"
 11190      5F445249 
 11190      56455253 
 11190      203100
 11191              	.LASF768:
 11192 2a02 55415254 		.ascii	"UART_IER_ABEOINT (1 << 8)\000"
 11192      5F494552 
 11192      5F414245 
 11192      4F494E54 
 11192      20283120 
 11193              	.LASF133:
 11194 2a1c 5F5F464C 		.ascii	"__FLT_EPSILON__ 1.1920928955078125e-7F\000"
 11194      545F4550 
 11194      53494C4F 
 11194      4E5F5F20 
 11194      312E3139 
 11195              	.LASF1256:
ARM GAS  /var/folders/z0/6xlwn_996xz3mwq1cgzkbq4r0000gp/T//cc0Pdjko.s 			page 244


 11196 2a43 73693263 		.ascii	"si2c\000"
 11196      00
 11197              	.LASF1008:
 11198 2a48 4932435F 		.ascii	"I2C_CheckError(ErrorCode) (ErrorCode & 0x10000000)\000"
 11198      43686563 
 11198      6B457272 
 11198      6F722845 
 11198      72726F72 
 11199              	.LASF647:
 11200 2a7b 4C50435F 		.ascii	"LPC_I2C ((LPC_I2C_T *) LPC_I2C_BASE)\000"
 11200      49324320 
 11200      28284C50 
 11200      435F4932 
 11200      435F5420 
 11201              	.LASF861:
 11202 2aa0 55415254 		.ascii	"UART_FDR_DIVADDVAL(n) (n & 0x0F)\000"
 11202      5F464452 
 11202      5F444956 
 11202      41444456 
 11202      414C286E 
 11203              	.LASF792:
 11204 2ac1 55415254 		.ascii	"UART_FCR_TRG_LEV2 (2 << 6)\000"
 11204      5F464352 
 11204      5F545247 
 11204      5F4C4556 
 11204      32202832 
 11205              	.LASF1033:
 11206 2adc 53444F5F 		.ascii	"SDO_ABORT_PARAINCOMP 0x06040043UL\000"
 11206      41424F52 
 11206      545F5041 
 11206      5241494E 
 11206      434F4D50 
 11207              	.LASF595:
 11208 2afe 53797354 		.ascii	"SysTick_CTRL_COUNTFLAG_Pos 16\000"
 11208      69636B5F 
 11208      4354524C 
 11208      5F434F55 
 11208      4E54464C 
 11209              	.LASF433:
 11210 2b1c 5F5F696E 		.ascii	"__int_least16_t_defined 1\000"
 11210      745F6C65 
 11210      61737431 
 11210      365F745F 
 11210      64656669 
 11211              	.LASF246:
 11212 2b36 5F5F5541 		.ascii	"__UACCUM_EPSILON__ 0x1P-16UK\000"
 11212      4343554D 
 11212      5F455053 
 11212      494C4F4E 
 11212      5F5F2030 
 11213              	.LASF510:
 11214 2b53 5F424954 		.ascii	"_BIT(n) (1 << (n))\000"
 11214      286E2920 
 11214      2831203C 
 11214      3C20286E 
 11214      292900
 11215              	.LASF459:
ARM GAS  /var/folders/z0/6xlwn_996xz3mwq1cgzkbq4r0000gp/T//cc0Pdjko.s 			page 245


 11216 2b66 494E545F 		.ascii	"INT_LEAST32_MAX (__INT_LEAST32_MAX__)\000"
 11216      4C454153 
 11216      5433325F 
 11216      4D415820 
 11216      285F5F49 
 11217              	.LASF312:
 11218 2b8c 5F5F4743 		.ascii	"__GCC_ATOMIC_SHORT_LOCK_FREE 1\000"
 11218      435F4154 
 11218      4F4D4943 
 11218      5F53484F 
 11218      52545F4C 
 11219              	.LASF505:
 11220 2bab 66616C73 		.ascii	"false 0\000"
 11220      65203000 
 11221              	.LASF569:
 11222 2bb3 5343425F 		.ascii	"SCB_ICSR_VECTPENDING_Pos 12\000"
 11222      49435352 
 11222      5F564543 
 11222      5450454E 
 11222      44494E47 
 11223              	.LASF762:
 11224 2bcf 55415254 		.ascii	"UART_DLM_MASKBIT (0xFF)\000"
 11224      5F444C4D 
 11224      5F4D4153 
 11224      4B424954 
 11224      20283078 
 11225              	.LASF880:
 11226 2be7 5F5F5353 		.ascii	"__SSP_11XX_H_ \000"
 11226      505F3131 
 11226      58585F48 
 11226      5F2000
 11227              	.LASF270:
 11228 2bf6 5F5F4851 		.ascii	"__HQ_IBIT__ 0\000"
 11228      5F494249 
 11228      545F5F20 
 11228      3000
 11229              	.LASF534:
 11230 2c04 5F5F434F 		.ascii	"__CORTEX_M (0x00)\000"
 11230      52544558 
 11230      5F4D2028 
 11230      30783030 
 11230      2900
 11231              	.LASF232:
 11232 2c16 5F5F5553 		.ascii	"__USACCUM_FBIT__ 8\000"
 11232      41434355 
 11232      4D5F4642 
 11232      49545F5F 
 11232      203800
 11233              	.LASF316:
 11234 2c29 5F5F4743 		.ascii	"__GCC_ATOMIC_TEST_AND_SET_TRUEVAL 1\000"
 11234      435F4154 
 11234      4F4D4943 
 11234      5F544553 
 11234      545F414E 
 11235              	.LASF965:
 11236 2c4d 4932435F 		.ascii	"I2C_I2STAT_M_RX_ARB_LOST ((0x38))\000"
 11236      49325354 
ARM GAS  /var/folders/z0/6xlwn_996xz3mwq1cgzkbq4r0000gp/T//cc0Pdjko.s 			page 246


 11236      41545F4D 
 11236      5F52585F 
 11236      4152425F 
 11237              	.LASF570:
 11238 2c6f 5343425F 		.ascii	"SCB_ICSR_VECTPENDING_Msk (0x1FFUL << SCB_ICSR_VECTP"
 11238      49435352 
 11238      5F564543 
 11238      5450454E 
 11238      44494E47 
 11239 2ca2 454E4449 		.ascii	"ENDING_Pos)\000"
 11239      4E475F50 
 11239      6F732900 
 11240              	.LASF775:
 11241 2cae 55415254 		.ascii	"UART_IIR_ABEO_INT (1 << 8)\000"
 11241      5F494952 
 11241      5F414245 
 11241      4F5F494E 
 11241      54202831 
 11242              	.LASF749:
 11243 2cc9 54494D45 		.ascii	"TIMER_RESET_ON_MATCH(n) (_BIT((((n) * 3) + 1)))\000"
 11243      525F5245 
 11243      5345545F 
 11243      4F4E5F4D 
 11243      41544348 
 11244              	.LASF247:
 11245 2cf9 5F5F4C41 		.ascii	"__LACCUM_FBIT__ 31\000"
 11245      4343554D 
 11245      5F464249 
 11245      545F5F20 
 11245      333100
 11246              	.LASF1012:
 11247 2d0c 43414E5F 		.ascii	"CAN_ERROR_NONE 0x00000000UL\000"
 11247      4552524F 
 11247      525F4E4F 
 11247      4E452030 
 11247      78303030 
 11248              	.LASF698:
 11249 2d28 5F5F494F 		.ascii	"__IOCON_11XX_H_ \000"
 11249      434F4E5F 
 11249      31315858 
 11249      5F485F20 
 11249      00
 11250              	.LASF990:
 11251 2d39 4932435F 		.ascii	"I2C_I2MMCTRL_BITMASK ((0x07))\000"
 11251      49324D4D 
 11251      4354524C 
 11251      5F424954 
 11251      4D41534B 
 11252              	.LASF745:
 11253 2d57 54494D45 		.ascii	"TIMER_CAP_INT(n) (_BIT((((n) & 0x0F) + 4)))\000"
 11253      525F4341 
 11253      505F494E 
 11253      54286E29 
 11253      20285F42 
 11254              	.LASF907:
 11255 2d83 5F5F524F 		.ascii	"__ROMAPI_11XX_H_ \000"
 11255      4D415049 
ARM GAS  /var/folders/z0/6xlwn_996xz3mwq1cgzkbq4r0000gp/T//cc0Pdjko.s 			page 247


 11255      5F313158 
 11255      585F485F 
 11255      2000
 11256              	.LASF1075:
 11257 2d95 53595350 		.ascii	"SYSPLLCTRL\000"
 11257      4C4C4354 
 11257      524C00
 11258              	.LASF293:
 11259 2da0 5F5F5441 		.ascii	"__TA_FBIT__ 63\000"
 11259      5F464249 
 11259      545F5F20 
 11259      363300
 11260              	.LASF925:
 11261 2daf 4144435F 		.ascii	"ADC_CR_START_ADCTRIG0 ((4UL << 24))\000"
 11261      43525F53 
 11261      54415254 
 11261      5F414443 
 11261      54524947 
 11262              	.LASF5:
 11263 2dd3 5F5F5645 		.ascii	"__VERSION__ \"5.4.1 20160919 (release) [ARM/embedde"
 11263      5253494F 
 11263      4E5F5F20 
 11263      22352E34 
 11263      2E312032 
 11264 2e05 642D352D 		.ascii	"d-5-branch revision 240496]\"\000"
 11264      6272616E 
 11264      63682072 
 11264      65766973 
 11264      696F6E20 
 11265              	.LASF440:
 11266 2e22 494E5450 		.ascii	"INTPTR_MIN (-__INTPTR_MAX__ - 1)\000"
 11266      54525F4D 
 11266      494E2028 
 11266      2D5F5F49 
 11266      4E545054 
 11267              	.LASF1073:
 11268 2e43 5359534D 		.ascii	"SYSMEMREMAP\000"
 11268      454D5245 
 11268      4D415000 
 11269              	.LASF639:
 11270 2e4f 4C50435F 		.ascii	"LPC_CAN0_BASE 0x40050000\000"
 11270      43414E30 
 11270      5F424153 
 11270      45203078 
 11270      34303035 
 11271              	.LASF93:
 11272 2e68 5F5F494E 		.ascii	"__INT_LEAST8_MAX__ 0x7f\000"
 11272      545F4C45 
 11272      41535438 
 11272      5F4D4158 
 11272      5F5F2030 
 11273              	.LASF337:
 11274 2e80 5F5F4152 		.ascii	"__ARM_PCS 1\000"
 11274      4D5F5043 
 11274      53203100 
 11275              	.LASF1199:
 11276 2e8c 4932435F 		.ascii	"I2C_EVENT_SLAVE_RX\000"
ARM GAS  /var/folders/z0/6xlwn_996xz3mwq1cgzkbq4r0000gp/T//cc0Pdjko.s 			page 248


 11276      4556454E 
 11276      545F534C 
 11276      4156455F 
 11276      525800
 11277              	.LASF940:
 11278 2e9f 4932435F 		.ascii	"I2C_I2CONSET_STA ((0x20))\000"
 11278      4932434F 
 11278      4E534554 
 11278      5F535441 
 11278      20282830 
 11279              	.LASF1019:
 11280 2eb9 43414E5F 		.ascii	"CAN_ERROR_BIT1 0x00000040UL\000"
 11280      4552524F 
 11280      525F4249 
 11280      54312030 
 11280      78303030 
 11281              	.LASF674:
 11282 2ed5 53595343 		.ascii	"SYSCTL_RST_WDT (1 << 2)\000"
 11282      544C5F52 
 11282      53545F57 
 11282      44542028 
 11282      31203C3C 
 11283              	.LASF637:
 11284 2eed 4C50435F 		.ascii	"LPC_SYSCTL_BASE 0x40048000\000"
 11284      53595343 
 11284      544C5F42 
 11284      41534520 
 11284      30783430 
 11285              	.LASF84:
 11286 2f08 5F5F5349 		.ascii	"__SIG_ATOMIC_MIN__ (-__SIG_ATOMIC_MAX__ - 1)\000"
 11286      475F4154 
 11286      4F4D4943 
 11286      5F4D494E 
 11286      5F5F2028 
 11287              	.LASF101:
 11288 2f35 5F5F5549 		.ascii	"__UINT_LEAST8_MAX__ 0xff\000"
 11288      4E545F4C 
 11288      45415354 
 11288      385F4D41 
 11288      585F5F20 
 11289              	.LASF557:
 11290 2f4e 5343425F 		.ascii	"SCB_ICSR_PENDSVSET_Pos 28\000"
 11290      49435352 
 11290      5F50454E 
 11290      44535653 
 11290      45545F50 
 11291              	.LASF908:
 11292 2f68 5F5F4C50 		.ascii	"__LPC_ERROR_H__ \000"
 11292      435F4552 
 11292      524F525F 
 11292      485F5F20 
 11292      00
 11293              	.LASF703:
 11294 2f79 494F434F 		.ascii	"IOCON_FUNC4 0x4\000"
 11294      4E5F4655 
 11294      4E433420 
 11294      30783400 
ARM GAS  /var/folders/z0/6xlwn_996xz3mwq1cgzkbq4r0000gp/T//cc0Pdjko.s 			page 249


 11295              	.LASF579:
 11296 2f89 5343425F 		.ascii	"SCB_AIRCR_SYSRESETREQ_Pos 2\000"
 11296      41495243 
 11296      525F5359 
 11296      53524553 
 11296      45545245 
 11297              	.LASF543:
 11298 2fa5 5F5F4F20 		.ascii	"__O volatile\000"
 11298      766F6C61 
 11298      74696C65 
 11298      00
 11299              	.LASF658:
 11300 2fb2 4C50435F 		.ascii	"LPC_IOCON ((LPC_IOCON_T *) LPC_IOCON_BASE)\000"
 11300      494F434F 
 11300      4E202828 
 11300      4C50435F 
 11300      494F434F 
 11301              	.LASF978:
 11302 2fdd 4932435F 		.ascii	"I2C_I2STAT_S_RX_STA_STO_SLVREC_SLVTRX ((0xA0))\000"
 11302      49325354 
 11302      41545F53 
 11302      5F52585F 
 11302      5354415F 
 11303              	.LASF483:
 11304 300c 5349475F 		.ascii	"SIG_ATOMIC_MIN (-__STDINT_EXP(INT_MAX) - 1)\000"
 11304      41544F4D 
 11304      49435F4D 
 11304      494E2028 
 11304      2D5F5F53 
 11305              	.LASF960:
 11306 3038 4932435F 		.ascii	"I2C_I2STAT_M_TX_DAT_ACK ((0x28))\000"
 11306      49325354 
 11306      41545F4D 
 11306      5F54585F 
 11306      4441545F 
 11307              	.LASF845:
 11308 3059 55415254 		.ascii	"UART_RS485CTRL_AADEN (1 << 2)\000"
 11308      5F525334 
 11308      38354354 
 11308      524C5F41 
 11308      4144454E 
 11309              	.LASF421:
 11310 3077 5F494E54 		.ascii	"_INT16_T_DECLARED \000"
 11310      31365F54 
 11310      5F444543 
 11310      4C415245 
 11310      442000
 11311              	.LASF1102:
 11312 308a 55534243 		.ascii	"USBCLKUEN\000"
 11312      4C4B5545 
 11312      4E00
 11313              	.LASF1242:
 11314 3094 636C6F63 		.ascii	"clockrate\000"
 11314      6B726174 
 11314      6500
 11315              	.LASF1024:
 11316 309e 43414E5F 		.ascii	"CAN_MSGOBJ_DAT 0x00000000UL\000"
ARM GAS  /var/folders/z0/6xlwn_996xz3mwq1cgzkbq4r0000gp/T//cc0Pdjko.s 			page 250


 11316      4D53474F 
 11316      424A5F44 
 11316      41542030 
 11316      78303030 
 11317              	.LASF984:
 11318 30ba 4932435F 		.ascii	"I2C_SLAVE_TIME_OUT 0x10000000UL\000"
 11318      534C4156 
 11318      455F5449 
 11318      4D455F4F 
 11318      55542030 
 11319              	.LASF837:
 11320 30da 55415254 		.ascii	"UART_ACR_START (1 << 0)\000"
 11320      5F414352 
 11320      5F535441 
 11320      52542028 
 11320      31203C3C 
 11321              	.LASF344:
 11322 30f2 44454255 		.ascii	"DEBUG_ENABLE 1\000"
 11322      475F454E 
 11322      41424C45 
 11322      203100
 11323              	.LASF858:
 11324 3101 55415254 		.ascii	"UART_SCICTRL_PROTSEL_T1 (1 << 2)\000"
 11324      5F534349 
 11324      4354524C 
 11324      5F50524F 
 11324      5453454C 
 11325              	.LASF435:
 11326 3122 5F5F696E 		.ascii	"__int_least64_t_defined 1\000"
 11326      745F6C65 
 11326      61737436 
 11326      345F745F 
 11326      64656669 
 11327              	.LASF757:
 11328 313c 52425F56 		.ascii	"RB_VTAIL(rb) ((volatile uint32_t)(rb->tail))\000"
 11328      5441494C 
 11328      28726229 
 11328      20282876 
 11328      6F6C6174 
 11329              	.LASF860:
 11330 3169 55415254 		.ascii	"UART_SCICTRL_GUARDTIME(n) ((n & 0xFF) << 8)\000"
 11330      5F534349 
 11330      4354524C 
 11330      5F475541 
 11330      52445449 
 11331              	.LASF1121:
 11332 3195 55534243 		.ascii	"USBCLKCTRL\000"
 11332      4C4B4354 
 11332      524C00
 11333              	.LASF179:
 11334 31a0 5F5F4445 		.ascii	"__DEC64_SUBNORMAL_MIN__ 0.000000000000001E-383DD\000"
 11334      4336345F 
 11334      5355424E 
 11334      4F524D41 
 11334      4C5F4D49 
 11335              	.LASF196:
 11336 31d1 5F5F5553 		.ascii	"__USFRACT_EPSILON__ 0x1P-8UHR\000"
ARM GAS  /var/folders/z0/6xlwn_996xz3mwq1cgzkbq4r0000gp/T//cc0Pdjko.s 			page 251


 11336      46524143 
 11336      545F4550 
 11336      53494C4F 
 11336      4E5F5F20 
 11337              	.LASF1225:
 11338 31ef 73746172 		.ascii	"startSlaverXfer\000"
 11338      74536C61 
 11338      76657258 
 11338      66657200 
 11339              	.LASF513:
 11340 31ff 5F424954 		.ascii	"_BITMASK\000"
 11340      4D41534B 
 11340      00
 11341              	.LASF634:
 11342 3208 4C50435F 		.ascii	"LPC_FLASH_BASE 0x4003C000\000"
 11342      464C4153 
 11342      485F4241 
 11342      53452030 
 11342      78343030 
 11343              	.LASF657:
 11344 3222 4C50435F 		.ascii	"LPC_SSP0 ((LPC_SSP_T *) LPC_SSP0_BASE)\000"
 11344      53535030 
 11344      2028284C 
 11344      50435F53 
 11344      53505F54 
 11345              	.LASF192:
 11346 3249 5F5F5553 		.ascii	"__USFRACT_FBIT__ 8\000"
 11346      46524143 
 11346      545F4642 
 11346      49545F5F 
 11346      203800
 11347              	.LASF260:
 11348 325c 5F5F4C4C 		.ascii	"__LLACCUM_MAX__ 0X7FFFFFFFFFFFFFFFP-31LLK\000"
 11348      41434355 
 11348      4D5F4D41 
 11348      585F5F20 
 11348      30583746 
 11349              	.LASF774:
 11350 3286 55415254 		.ascii	"UART_IIR_FIFO_EN (3 << 6)\000"
 11350      5F494952 
 11350      5F464946 
 11350      4F5F454E 
 11350      20283320 
 11351              	.LASF740:
 11352 32a0 46554E43 		.ascii	"FUNC6 0x6\000"
 11352      36203078 
 11352      3600
 11353              	.LASF434:
 11354 32aa 5F5F696E 		.ascii	"__int_least32_t_defined 1\000"
 11354      745F6C65 
 11354      61737433 
 11354      325F745F 
 11354      64656669 
 11355              	.LASF304:
 11356 32c4 5F5F5553 		.ascii	"__USER_LABEL_PREFIX__ \000"
 11356      45525F4C 
 11356      4142454C 
ARM GAS  /var/folders/z0/6xlwn_996xz3mwq1cgzkbq4r0000gp/T//cc0Pdjko.s 			page 252


 11356      5F505245 
 11356      4649585F 
 11357              	.LASF92:
 11358 32db 5F5F5549 		.ascii	"__UINT64_MAX__ 0xffffffffffffffffULL\000"
 11358      4E543634 
 11358      5F4D4158 
 11358      5F5F2030 
 11358      78666666 
 11359              	.LASF644:
 11360 3300 4C50435F 		.ascii	"LPC_GPIO_PORT3_BASE 0x50030000\000"
 11360      4750494F 
 11360      5F504F52 
 11360      54335F42 
 11360      41534520 
 11361              	.LASF985:
 11362 331f 4932435F 		.ascii	"I2C_I2DAT_BITMASK ((0xFF))\000"
 11362      49324441 
 11362      545F4249 
 11362      544D4153 
 11362      4B202828 
 11363              	.LASF798:
 11364 333a 55415254 		.ascii	"UART_LCR_WLEN8 (3 << 0)\000"
 11364      5F4C4352 
 11364      5F574C45 
 11364      4E382028 
 11364      33203C3C 
 11365              	.LASF1141:
 11366 3352 53595343 		.ascii	"SYSCTL_CLOCK_FLASHARRAY\000"
 11366      544C5F43 
 11366      4C4F434B 
 11366      5F464C41 
 11366      53484152 
 11367              	.LASF91:
 11368 336a 5F5F5549 		.ascii	"__UINT32_MAX__ 0xffffffffUL\000"
 11368      4E543332 
 11368      5F4D4158 
 11368      5F5F2030 
 11368      78666666 
 11369              	.LASF497:
 11370 3386 494E5436 		.ascii	"INT64_C(x) __INT64_C(x)\000"
 11370      345F4328 
 11370      7829205F 
 11370      5F494E54 
 11370      36345F43 
 11371              	.LASF365:
 11372 339e 5F415446 		.ascii	"_ATFILE_SOURCE\000"
 11372      494C455F 
 11372      534F5552 
 11372      434500
 11373              	.LASF443:
 11374 33ad 494E5438 		.ascii	"INT8_MIN (-__INT8_MAX__ - 1)\000"
 11374      5F4D494E 
 11374      20282D5F 
 11374      5F494E54 
 11374      385F4D41 
 11375              	.LASF1231:
 11376 33ca 696E6465 		.ascii	"index\000"
ARM GAS  /var/folders/z0/6xlwn_996xz3mwq1cgzkbq4r0000gp/T//cc0Pdjko.s 			page 253


 11376      7800
 11377              	.LASF1143:
 11378 33d0 53595343 		.ascii	"SYSCTL_CLOCK_GPIO\000"
 11378      544C5F43 
 11378      4C4F434B 
 11378      5F475049 
 11378      4F00
 11379              	.LASF574:
 11380 33e2 5343425F 		.ascii	"SCB_AIRCR_VECTKEY_Msk (0xFFFFUL << SCB_AIRCR_VECTKE"
 11380      41495243 
 11380      525F5645 
 11380      43544B45 
 11380      595F4D73 
 11381 3415 595F506F 		.ascii	"Y_Pos)\000"
 11381      732900
 11382              	.LASF1248:
 11383 341c 43686970 		.ascii	"Chip_I2C_MasterSend\000"
 11383      5F493243 
 11383      5F4D6173 
 11383      74657253 
 11383      656E6400 
 11384              	.LASF1214:
 11385 3430 43686970 		.ascii	"Chip_Clock_DisablePeriphClock\000"
 11385      5F436C6F 
 11385      636B5F44 
 11385      69736162 
 11385      6C655065 
 11386              	.LASF667:
 11387 344e 504D555F 		.ascii	"PMU_PCON_PM_DEEPPOWERDOWN (0x2)\000"
 11387      50434F4E 
 11387      5F504D5F 
 11387      44454550 
 11387      504F5745 
 11388              	.LASF781:
 11389 346e 55415254 		.ascii	"UART_IIR_INTID_CTI (6 << 1)\000"
 11389      5F494952 
 11389      5F494E54 
 11389      49445F43 
 11389      54492028 
 11390              	.LASF1078:
 11391 348a 55534250 		.ascii	"USBPLLSTAT\000"
 11391      4C4C5354 
 11391      415400
 11392              	.LASF1255:
 11393 3495 61646472 		.ascii	"addrMask\000"
 11393      4D61736B 
 11393      00
 11394              	.LASF403:
 11395 349e 5F494E54 		.ascii	"_INTPTR_EQ_INT \000"
 11395      5054525F 
 11395      45515F49 
 11395      4E542000 
 11396              	.LASF324:
 11397 34ae 5F5F4152 		.ascii	"__ARM_SIZEOF_WCHAR_T 4\000"
 11397      4D5F5349 
 11397      5A454F46 
 11397      5F574348 
ARM GAS  /var/folders/z0/6xlwn_996xz3mwq1cgzkbq4r0000gp/T//cc0Pdjko.s 			page 254


 11397      41525F54 
 11398              	.LASF451:
 11399 34c5 55494E54 		.ascii	"UINT16_MAX (__UINT16_MAX__)\000"
 11399      31365F4D 
 11399      41582028 
 11399      5F5F5549 
 11399      4E543136 
 11400              	.LASF65:
 11401 34e1 5F5F6861 		.ascii	"__has_include(STR) __has_include__(STR)\000"
 11401      735F696E 
 11401      636C7564 
 11401      65285354 
 11401      5229205F 
 11402              	.LASF1036:
 11403 3509 53444F5F 		.ascii	"SDO_ABORT_UNKNOWNSUB 0x06090011UL\000"
 11403      41424F52 
 11403      545F554E 
 11403      4B4E4F57 
 11403      4E535542 
 11404              	.LASF105:
 11405 352b 5F5F5549 		.ascii	"__UINT_LEAST32_MAX__ 0xffffffffUL\000"
 11405      4E545F4C 
 11405      45415354 
 11405      33325F4D 
 11405      41585F5F 
 11406              	.LASF786:
 11407 354d 55415254 		.ascii	"UART_FCR_TX_RS (1 << 2)\000"
 11407      5F464352 
 11407      5F54585F 
 11407      52532028 
 11407      31203C3C 
 11408              	.LASF699:
 11409 3565 494F434F 		.ascii	"IOCON_FUNC0 0x0\000"
 11409      4E5F4655 
 11409      4E433020 
 11409      30783000 
 11410              	.LASF147:
 11411 3575 5F5F4442 		.ascii	"__DBL_EPSILON__ ((double)2.2204460492503131e-16L)\000"
 11411      4C5F4550 
 11411      53494C4F 
 11411      4E5F5F20 
 11411      2828646F 
 11412              	.LASF820:
 11413 35a7 55415254 		.ascii	"UART_LSR_FE (1 << 3)\000"
 11413      5F4C5352 
 11413      5F464520 
 11413      2831203C 
 11413      3C203329 
 11414              	.LASF136:
 11415 35bc 5F5F464C 		.ascii	"__FLT_HAS_INFINITY__ 1\000"
 11415      545F4841 
 11415      535F494E 
 11415      46494E49 
 11415      54595F5F 
 11416              	.LASF993:
 11417 35d3 4932435F 		.ascii	"I2C_I2ADR_BITMASK ((0xFF))\000"
 11417      49324144 
ARM GAS  /var/folders/z0/6xlwn_996xz3mwq1cgzkbq4r0000gp/T//cc0Pdjko.s 			page 255


 11417      525F4249 
 11417      544D4153 
 11417      4B202828 
 11418              	.LASF568:
 11419 35ee 5343425F 		.ascii	"SCB_ICSR_ISRPENDING_Msk (1UL << SCB_ICSR_ISRPENDING"
 11419      49435352 
 11419      5F495352 
 11419      50454E44 
 11419      494E475F 
 11420 3621 5F506F73 		.ascii	"_Pos)\000"
 11420      2900
 11421              	.LASF85:
 11422 3627 5F5F494E 		.ascii	"__INT8_MAX__ 0x7f\000"
 11422      54385F4D 
 11422      41585F5F 
 11422      20307837 
 11422      6600
 11423              	.LASF851:
 11424 3639 55415254 		.ascii	"UART_ICR_IRDAINV (1 << 1)\000"
 11424      5F494352 
 11424      5F495244 
 11424      41494E56 
 11424      20283120 
 11425              	.LASF1163:
 11426 3653 4D4D4354 		.ascii	"MMCTRL\000"
 11426      524C00
 11427              	.LASF650:
 11428 365a 4C50435F 		.ascii	"LPC_TIMER16_0 ((LPC_TIMER_T *) LPC_TIMER16_0_BASE)\000"
 11428      54494D45 
 11428      5231365F 
 11428      30202828 
 11428      4C50435F 
 11429              	.LASF318:
 11430 368d 5F5F4743 		.ascii	"__GCC_HAVE_DWARF2_CFI_ASM 1\000"
 11430      435F4841 
 11430      56455F44 
 11430      57415246 
 11430      325F4346 
 11431              	.LASF1213:
 11432 36a9 656E6162 		.ascii	"enableClk\000"
 11432      6C65436C 
 11432      6B00
 11433              	.LASF189:
 11434 36b3 5F5F5346 		.ascii	"__SFRACT_MIN__ (-0.5HR-0.5HR)\000"
 11434      52414354 
 11434      5F4D494E 
 11434      5F5F2028 
 11434      2D302E35 
 11435              	.LASF1065:
 11436 36d1 6C6F6E67 		.ascii	"long unsigned int\000"
 11436      20756E73 
 11436      69676E65 
 11436      6420696E 
 11436      7400
 11437              	.LASF290:
 11438 36e3 5F5F5341 		.ascii	"__SA_IBIT__ 16\000"
 11438      5F494249 
ARM GAS  /var/folders/z0/6xlwn_996xz3mwq1cgzkbq4r0000gp/T//cc0Pdjko.s 			page 256


 11438      545F5F20 
 11438      313600
 11439              	.LASF1232:
 11440 36f2 61626173 		.ascii	"abase\000"
 11440      6500
 11441              	.LASF120:
 11442 36f8 5F5F4743 		.ascii	"__GCC_IEC_559_COMPLEX 0\000"
 11442      435F4945 
 11442      435F3535 
 11442      395F434F 
 11442      4D504C45 
 11443              	.LASF1180:
 11444 3710 4932435F 		.ascii	"I2C_STATUS_BUSERR\000"
 11444      53544154 
 11444      55535F42 
 11444      55534552 
 11444      5200
 11445              	.LASF1189:
 11446 3722 4932435F 		.ascii	"I2C_XFER_T\000"
 11446      58464552 
 11446      5F5400
 11447              	.LASF1200:
 11448 372d 4932435F 		.ascii	"I2C_EVENT_SLAVE_TX\000"
 11448      4556454E 
 11448      545F534C 
 11448      4156455F 
 11448      545800
 11449              	.LASF744:
 11450 3740 54494D45 		.ascii	"TIMER_MATCH_INT(n) (_BIT((n) & 0x0F))\000"
 11450      525F4D41 
 11450      5443485F 
 11450      494E5428 
 11450      6E292028 
 11451              	.LASF44:
 11452 3766 5F5F5549 		.ascii	"__UINT16_TYPE__ short unsigned int\000"
 11452      4E543136 
 11452      5F545950 
 11452      455F5F20 
 11452      73686F72 
 11453              	.LASF361:
 11454 3789 5F504F53 		.ascii	"_POSIX_SOURCE\000"
 11454      49585F53 
 11454      4F555243 
 11454      4500
 11455              	.LASF333:
 11456 3797 5F5F534F 		.ascii	"__SOFTFP__ 1\000"
 11456      46544650 
 11456      5F5F2031 
 11456      00
 11457              	.LASF1188:
 11458 37a4 73746174 		.ascii	"status\000"
 11458      757300
 11459              	.LASF482:
 11460 37ab 53495A45 		.ascii	"SIZE_MAX (__SIZE_MAX__)\000"
 11460      5F4D4158 
 11460      20285F5F 
 11460      53495A45 
ARM GAS  /var/folders/z0/6xlwn_996xz3mwq1cgzkbq4r0000gp/T//cc0Pdjko.s 			page 257


 11460      5F4D4158 
 11461              	.LASF168:
 11462 37c3 5F5F4445 		.ascii	"__DEC32_MAX_EXP__ 97\000"
 11462      4333325F 
 11462      4D41585F 
 11462      4558505F 
 11462      5F203937 
 11463              	.LASF611:
 11464 37d8 53797354 		.ascii	"SysTick_CALIB_TENMS_Pos 0\000"
 11464      69636B5F 
 11464      43414C49 
 11464      425F5445 
 11464      4E4D535F 
 11465              	.LASF867:
 11466 37f2 55415254 		.ascii	"UART_SYNCCTRL_CSRC_MASTER (1 << 1)\000"
 11466      5F53594E 
 11466      43435452 
 11466      4C5F4353 
 11466      52435F4D 
 11467              	.LASF682:
 11468 3815 53595343 		.ascii	"SYSCTL_SLPWAKE_FLASH_PD (1 << 2)\000"
 11468      544C5F53 
 11468      4C505741 
 11468      4B455F46 
 11468      4C415348 
 11469              	.LASF401:
 11470 3836 696E7420 		.ascii	"int +2\000"
 11470      2B3200
 11471              	.LASF1177:
 11472 383d 4932435F 		.ascii	"I2C_STATUS_DONE\000"
 11472      53544154 
 11472      55535F44 
 11472      4F4E4500 
 11473              	.LASF930:
 11474 384d 5F5F4750 		.ascii	"__GPIO_11XX_2_H_ \000"
 11474      494F5F31 
 11474      3158585F 
 11474      325F485F 
 11474      2000
 11475              	.LASF491:
 11476 385f 494E5438 		.ascii	"INT8_C(x) __INT8_C(x)\000"
 11476      5F432878 
 11476      29205F5F 
 11476      494E5438 
 11476      5F432878 
 11477              	.LASF59:
 11478 3875 5F5F5549 		.ascii	"__UINT_FAST8_TYPE__ unsigned int\000"
 11478      4E545F46 
 11478      41535438 
 11478      5F545950 
 11478      455F5F20 
 11479              	.LASF258:
 11480 3896 5F5F4C4C 		.ascii	"__LLACCUM_IBIT__ 32\000"
 11480      41434355 
 11480      4D5F4942 
 11480      49545F5F 
 11480      20333200 
ARM GAS  /var/folders/z0/6xlwn_996xz3mwq1cgzkbq4r0000gp/T//cc0Pdjko.s 			page 258


 11481              	.LASF1176:
 11482 38aa 4932435F 		.ascii	"I2C_SLAVE_ID\000"
 11482      534C4156 
 11482      455F4944 
 11482      00
 11483              	.LASF201:
 11484 38b7 5F5F4652 		.ascii	"__FRACT_EPSILON__ 0x1P-15R\000"
 11484      4143545F 
 11484      45505349 
 11484      4C4F4E5F 
 11484      5F203078 
 11485              	.LASF518:
 11486 38d2 45585445 		.ascii	"EXTERN extern\000"
 11486      524E2065 
 11486      78746572 
 11486      6E00
 11487              	.LASF566:
 11488 38e0 5343425F 		.ascii	"SCB_ICSR_ISRPREEMPT_Msk (1UL << SCB_ICSR_ISRPREEMPT"
 11488      49435352 
 11488      5F495352 
 11488      50524545 
 11488      4D50545F 
 11489 3913 5F506F73 		.ascii	"_Pos)\000"
 11489      2900
 11490              	.LASF893:
 11491 3919 5353505F 		.ascii	"SSP_CR1_SLAVE_EN ((uint32_t) (1 << 2))\000"
 11491      4352315F 
 11491      534C4156 
 11491      455F454E 
 11491      20282875 
 11492              	.LASF87:
 11493 3940 5F5F494E 		.ascii	"__INT32_MAX__ 0x7fffffffL\000"
 11493      5433325F 
 11493      4D41585F 
 11493      5F203078 
 11493      37666666 
 11494              	.LASF894:
 11495 395a 5353505F 		.ascii	"SSP_CR1_MASTER_EN ((uint32_t) (0))\000"
 11495      4352315F 
 11495      4D415354 
 11495      45525F45 
 11495      4E202828 
 11496              	.LASF1003:
 11497 397d 4932435F 		.ascii	"I2C_LAST_BYTE_RECV 0x04\000"
 11497      4C415354 
 11497      5F425954 
 11497      455F5245 
 11497      43562030 
 11498              	.LASF339:
 11499 3995 5F5F4758 		.ascii	"__GXX_TYPEINFO_EQUALITY_INLINE 0\000"
 11499      585F5459 
 11499      5045494E 
 11499      464F5F45 
 11499      5155414C 
 11500              	.LASF527:
 11501 39b6 5F5F4D50 		.ascii	"__MPU_PRESENT 0\000"
 11501      555F5052 
ARM GAS  /var/folders/z0/6xlwn_996xz3mwq1cgzkbq4r0000gp/T//cc0Pdjko.s 			page 259


 11501      4553454E 
 11501      54203000 
 11502              	.LASF38:
 11503 39c6 5F5F5349 		.ascii	"__SIG_ATOMIC_TYPE__ int\000"
 11503      475F4154 
 11503      4F4D4943 
 11503      5F545950 
 11503      455F5F20 
 11504              	.LASF417:
 11505 39de 5F535953 		.ascii	"_SYS__STDINT_H \000"
 11505      5F5F5354 
 11505      44494E54 
 11505      5F482000 
 11506              	.LASF360:
 11507 39ee 5F444546 		.ascii	"_DEFAULT_SOURCE 1\000"
 11507      41554C54 
 11507      5F534F55 
 11507      52434520 
 11507      3100
 11508              	.LASF184:
 11509 3a00 5F5F4445 		.ascii	"__DEC128_MAX__ 9.999999999999999999999999999999999E"
 11509      43313238 
 11509      5F4D4158 
 11509      5F5F2039 
 11509      2E393939 
 11510 3a33 36313434 		.ascii	"6144DL\000"
 11510      444C00
 11511              	.LASF118:
 11512 3a3a 5F5F5549 		.ascii	"__UINTPTR_MAX__ 0xffffffffU\000"
 11512      4E545054 
 11512      525F4D41 
 11512      585F5F20 
 11512      30786666 
 11513              	.LASF725:
 11514 3a56 4D445F49 		.ascii	"MD_INV (0x1 << 6)\000"
 11514      4E562028 
 11514      30783120 
 11514      3C3C2036 
 11514      2900
 11515              	.LASF54:
 11516 3a68 5F5F5549 		.ascii	"__UINT_LEAST64_TYPE__ long long unsigned int\000"
 11516      4E545F4C 
 11516      45415354 
 11516      36345F54 
 11516      5950455F 
 11517              	.LASF1228:
 11518 3a95 43686970 		.ascii	"Chip_I2C_MasterStateHandler\000"
 11518      5F493243 
 11518      5F4D6173 
 11518      74657253 
 11518      74617465 
 11519              	.LASF161:
 11520 3ab1 5F5F4C44 		.ascii	"__LDBL_EPSILON__ 2.2204460492503131e-16L\000"
 11520      424C5F45 
 11520      5053494C 
 11520      4F4E5F5F 
 11520      20322E32 
ARM GAS  /var/folders/z0/6xlwn_996xz3mwq1cgzkbq4r0000gp/T//cc0Pdjko.s 			page 260


 11521              	.LASF1046:
 11522 3ada 4F445F53 		.ascii	"OD_SEG_WO 0x50\000"
 11522      45475F57 
 11522      4F203078 
 11522      353000
 11523              	.LASF704:
 11524 3ae9 494F434F 		.ascii	"IOCON_FUNC5 0x5\000"
 11524      4E5F4655 
 11524      4E433520 
 11524      30783500 
 11525              	.LASF309:
 11526 3af9 5F5F4743 		.ascii	"__GCC_ATOMIC_CHAR16_T_LOCK_FREE 1\000"
 11526      435F4154 
 11526      4F4D4943 
 11526      5F434841 
 11526      5231365F 
 11527              	.LASF1206:
 11528 3b1b 73586665 		.ascii	"sXfer\000"
 11528      7200
 11529              	.LASF142:
 11530 3b21 5F5F4442 		.ascii	"__DBL_MAX_EXP__ 1024\000"
 11530      4C5F4D41 
 11530      585F4558 
 11530      505F5F20 
 11530      31303234 
 11531              	.LASF412:
 11532 3b36 5F5F4641 		.ascii	"__FAST64 \"ll\"\000"
 11532      53543634 
 11532      20226C6C 
 11532      2200
 11533              	.LASF9:
 11534 3b44 5F5F4154 		.ascii	"__ATOMIC_RELEASE 3\000"
 11534      4F4D4943 
 11534      5F52454C 
 11534      45415345 
 11534      203300
 11535              	.LASF397:
 11536 3b57 756E7369 		.ascii	"unsigned +0\000"
 11536      676E6564 
 11536      202B3000 
 11537              	.LASF124:
 11538 3b63 5F5F464C 		.ascii	"__FLT_MANT_DIG__ 24\000"
 11538      545F4D41 
 11538      4E545F44 
 11538      49475F5F 
 11538      20323400 
 11539              	.LASF1190:
 11540 3b77 43484950 		.ascii	"CHIP_SYSCTL_CLOCK\000"
 11540      5F535953 
 11540      43544C5F 
 11540      434C4F43 
 11540      4B00
 11541              	.LASF1118:
 11542 3b89 4952514C 		.ascii	"IRQLATENCY\000"
 11542      4154454E 
 11542      435900
 11543              	.LASF57:
ARM GAS  /var/folders/z0/6xlwn_996xz3mwq1cgzkbq4r0000gp/T//cc0Pdjko.s 			page 261


 11544 3b94 5F5F494E 		.ascii	"__INT_FAST32_TYPE__ int\000"
 11544      545F4641 
 11544      53543332 
 11544      5F545950 
 11544      455F5F20 
 11545              	.LASF1153:
 11546 3bac 53595343 		.ascii	"SYSCTL_CLOCK_IOCON\000"
 11546      544C5F43 
 11546      4C4F434B 
 11546      5F494F43 
 11546      4F4E00
 11547              	.LASF938:
 11548 3bbf 4932435F 		.ascii	"I2C_I2CONSET_SI ((0x08))\000"
 11548      4932434F 
 11548      4E534554 
 11548      5F534920 
 11548      28283078 
 11549              	.LASF481:
 11550 3bd8 55494E54 		.ascii	"UINTMAX_MAX (__UINTMAX_MAX__)\000"
 11550      4D41585F 
 11550      4D415820 
 11550      285F5F55 
 11550      494E544D 
 11551              	.LASF916:
 11552 3bf6 4144435F 		.ascii	"ADC_CR_CH_SEL(n) ((1UL << (n)))\000"
 11552      43525F43 
 11552      485F5345 
 11552      4C286E29 
 11552      20282831 
 11553              	.LASF12:
 11554 3c16 5F5F4F50 		.ascii	"__OPTIMIZE__ 1\000"
 11554      54494D49 
 11554      5A455F5F 
 11554      203100
 11555              	.LASF245:
 11556 3c25 5F5F5541 		.ascii	"__UACCUM_MAX__ 0XFFFFFFFFP-16UK\000"
 11556      4343554D 
 11556      5F4D4158 
 11556      5F5F2030 
 11556      58464646 
 11557              	.LASF1184:
 11558 3c45 74784275 		.ascii	"txBuff\000"
 11558      666600
 11559              	.LASF1251:
 11560 3c4c 43686970 		.ascii	"Chip_I2C_MasterRead\000"
 11560      5F493243 
 11560      5F4D6173 
 11560      74657252 
 11560      65616400 
 11561              	.LASF664:
 11562 3c60 4C50435F 		.ascii	"LPC_ROM_API (*((LPC_ROM_API_T * *) LPC_ROM_API_BASE"
 11562      524F4D5F 
 11562      41504920 
 11562      282A2828 
 11562      4C50435F 
 11563 3c93 5F4C4F43 		.ascii	"_LOC))\000"
 11563      292900
ARM GAS  /var/folders/z0/6xlwn_996xz3mwq1cgzkbq4r0000gp/T//cc0Pdjko.s 			page 262


 11564              	.LASF411:
 11565 3c9a 5F5F4641 		.ascii	"__FAST32 \000"
 11565      53543332 
 11565      2000
 11566              	.LASF400:
 11567 3ca4 5F5F696E 		.ascii	"__int20 +2\000"
 11567      74323020 
 11567      2B3200
 11568              	.LASF877:
 11569 3caf 57574454 		.ascii	"WWDT_WDMOD_WDTOF ((uint32_t) (1 << 2))\000"
 11569      5F57444D 
 11569      4F445F57 
 11569      44544F46 
 11569      20282875 
 11570              	.LASF926:
 11571 3cd6 4144435F 		.ascii	"ADC_CR_START_ADCTRIG1 ((5UL << 24))\000"
 11571      43525F53 
 11571      54415254 
 11571      5F414443 
 11571      54524947 
 11572              	.LASF162:
 11573 3cfa 5F5F4C44 		.ascii	"__LDBL_DENORM_MIN__ 4.9406564584124654e-324L\000"
 11573      424C5F44 
 11573      454E4F52 
 11573      4D5F4D49 
 11573      4E5F5F20 
 11574              	.LASF88:
 11575 3d27 5F5F494E 		.ascii	"__INT64_MAX__ 0x7fffffffffffffffLL\000"
 11575      5436345F 
 11575      4D41585F 
 11575      5F203078 
 11575      37666666 
 11576              	.LASF1215:
 11577 3d4a 64697361 		.ascii	"disableClk\000"
 11577      626C6543 
 11577      6C6B00
 11578              	.LASF423:
 11579 3d55 5F5F696E 		.ascii	"__int16_t_defined 1\000"
 11579      7431365F 
 11579      745F6465 
 11579      66696E65 
 11579      64203100 
 11580              	.LASF223:
 11581 3d69 5F5F554C 		.ascii	"__ULLFRACT_IBIT__ 0\000"
 11581      4C465241 
 11581      43545F49 
 11581      4249545F 
 11581      5F203000 
 11582              	.LASF1138:
 11583 3d7d 53595343 		.ascii	"SYSCTL_CLOCK_ROM\000"
 11583      544C5F43 
 11583      4C4F434B 
 11583      5F524F4D 
 11583      00
 11584              	.LASF827:
 11585 3d8e 55415254 		.ascii	"UART1_LSR_BITMASK (0x1FF)\000"
 11585      315F4C53 
ARM GAS  /var/folders/z0/6xlwn_996xz3mwq1cgzkbq4r0000gp/T//cc0Pdjko.s 			page 263


 11585      525F4249 
 11585      544D4153 
 11585      4B202830 
 11586              	.LASF793:
 11587 3da8 55415254 		.ascii	"UART_FCR_TRG_LEV3 (3 << 6)\000"
 11587      5F464352 
 11587      5F545247 
 11587      5F4C4556 
 11587      33202833 
 11588              	.LASF843:
 11589 3dc3 55415254 		.ascii	"UART_RS485CTRL_NMM_EN (1 << 0)\000"
 11589      5F525334 
 11589      38354354 
 11589      524C5F4E 
 11589      4D4D5F45 
 11590              	.LASF660:
 11591 3de2 4C50435F 		.ascii	"LPC_SSP1 ((LPC_SSP_T *) LPC_SSP1_BASE)\000"
 11591      53535031 
 11591      2028284C 
 11591      50435F53 
 11591      53505F54 
 11592              	.LASF855:
 11593 3e09 55415254 		.ascii	"UART_HDEN_HDEN ((1 << 0))\000"
 11593      5F484445 
 11593      4E5F4844 
 11593      454E2028 
 11593      2831203C 
 11594              	.LASF553:
 11595 3e23 5343425F 		.ascii	"SCB_CPUID_REVISION_Pos 0\000"
 11595      43505549 
 11595      445F5245 
 11595      56495349 
 11595      4F4E5F50 
 11596              	.LASF537:
 11597 3e3c 5F5F5354 		.ascii	"__STATIC_INLINE static inline\000"
 11597      41544943 
 11597      5F494E4C 
 11597      494E4520 
 11597      73746174 
 11598              	.LASF633:
 11599 3e5a 4C50435F 		.ascii	"LPC_PMU_BASE 0x40038000\000"
 11599      504D555F 
 11599      42415345 
 11599      20307834 
 11599      30303338 
 11600              	.LASF952:
 11601 3e72 4932435F 		.ascii	"I2C_STAT_CODE_BITMASK ((0xF8))\000"
 11601      53544154 
 11601      5F434F44 
 11601      455F4249 
 11601      544D4153 
 11602              	.LASF131:
 11603 3e91 5F5F464C 		.ascii	"__FLT_MAX__ 3.4028234663852886e+38F\000"
 11603      545F4D41 
 11603      585F5F20 
 11603      332E3430 
 11603      32383233 
ARM GAS  /var/folders/z0/6xlwn_996xz3mwq1cgzkbq4r0000gp/T//cc0Pdjko.s 			page 264


 11604              	.LASF696:
 11605 3eb5 5F5F434C 		.ascii	"__CLOCK_11XX_H_ \000"
 11605      4F434B5F 
 11605      31315858 
 11605      5F485F20 
 11605      00
 11606              	.LASF242:
 11607 3ec6 5F5F5541 		.ascii	"__UACCUM_FBIT__ 16\000"
 11607      4343554D 
 11607      5F464249 
 11607      545F5F20 
 11607      313600
 11608              	.LASF995:
 11609 3ed9 4932435F 		.ascii	"I2C_I2SCLH_BITMASK ((0xFFFF))\000"
 11609      49325343 
 11609      4C485F42 
 11609      49544D41 
 11609      534B2028 
 11610              	.LASF206:
 11611 3ef7 5F5F5546 		.ascii	"__UFRACT_EPSILON__ 0x1P-16UR\000"
 11611      52414354 
 11611      5F455053 
 11611      494C4F4E 
 11611      5F5F2030 
 11612              	.LASF74:
 11613 3f14 5F5F5743 		.ascii	"__WCHAR_MIN__ 0U\000"
 11613      4841525F 
 11613      4D494E5F 
 11613      5F203055 
 11613      00
 11614              	.LASF523:
 11615 3f25 5F5F5359 		.ascii	"__SYS_CONFIG_H_ \000"
 11615      535F434F 
 11615      4E464947 
 11615      5F485F20 
 11615      00
 11616              	.LASF278:
 11617 3f36 5F5F5551 		.ascii	"__UQQ_IBIT__ 0\000"
 11617      515F4942 
 11617      49545F5F 
 11617      203000
 11618              	.LASF353:
 11619 3f45 5F4E4557 		.ascii	"_NEWLIB_VERSION \"2.4.0\"\000"
 11619      4C49425F 
 11619      56455253 
 11619      494F4E20 
 11619      22322E34 
 11620              	.LASF314:
 11621 3f5d 5F5F4743 		.ascii	"__GCC_ATOMIC_LONG_LOCK_FREE 1\000"
 11621      435F4154 
 11621      4F4D4943 
 11621      5F4C4F4E 
 11621      475F4C4F 
 11622              	.LASF254:
 11623 3f7b 5F5F554C 		.ascii	"__ULACCUM_MIN__ 0.0ULK\000"
 11623      41434355 
 11623      4D5F4D49 
ARM GAS  /var/folders/z0/6xlwn_996xz3mwq1cgzkbq4r0000gp/T//cc0Pdjko.s 			page 265


 11623      4E5F5F20 
 11623      302E3055 
 11624              	.LASF1064:
 11625 3f92 5F5F7569 		.ascii	"__uint32_t\000"
 11625      6E743332 
 11625      5F7400
 11626              	.LASF159:
 11627 3f9d 5F5F4C44 		.ascii	"__LDBL_MAX__ 1.7976931348623157e+308L\000"
 11627      424C5F4D 
 11627      41585F5F 
 11627      20312E37 
 11627      39373639 
 11628              	.LASF123:
 11629 3fc3 5F5F464C 		.ascii	"__FLT_RADIX__ 2\000"
 11629      545F5241 
 11629      4449585F 
 11629      5F203200 
 11630              	.LASF885:
 11631 3fd3 5353505F 		.ascii	"SSP_CR0_CPOL_LO ((uint32_t) (0))\000"
 11631      4352305F 
 11631      43504F4C 
 11631      5F4C4F20 
 11631      28287569 
 11632              	.LASF1066:
 11633 3ff4 6C6F6E67 		.ascii	"long long int\000"
 11633      206C6F6E 
 11633      6720696E 
 11633      7400
 11634              	.LASF906:
 11635 4002 5353505F 		.ascii	"SSP_MASTER_MODE SSP_CR1_MASTER_EN\000"
 11635      4D415354 
 11635      45525F4D 
 11635      4F444520 
 11635      5353505F 
 11636              	.LASF738:
 11637 4024 46554E43 		.ascii	"FUNC4 0x4\000"
 11637      34203078 
 11637      3400
 11638              	.LASF457:
 11639 402e 55494E54 		.ascii	"UINT32_MAX (__UINT32_MAX__)\000"
 11639      33325F4D 
 11639      41582028 
 11639      5F5F5549 
 11639      4E543332 
 11640              	.LASF810:
 11641 404a 55415254 		.ascii	"UART_LCR_BITMASK (0xFF)\000"
 11641      5F4C4352 
 11641      5F424954 
 11641      4D41534B 
 11641      20283078 
 11642              	.LASF1247:
 11643 4062 43686970 		.ascii	"Chip_I2C_MasterTransfer\000"
 11643      5F493243 
 11643      5F4D6173 
 11643      74657254 
 11643      72616E73 
 11644              	.LASF1211:
ARM GAS  /var/folders/z0/6xlwn_996xz3mwq1cgzkbq4r0000gp/T//cc0Pdjko.s 			page 266


 11645 407a 6576656E 		.ascii	"event\000"
 11645      7400
 11646              	.LASF999:
 11647 4080 4932435F 		.ascii	"I2C_SETUP_STATUS_DONE (1 << 10)\000"
 11647      53455455 
 11647      505F5354 
 11647      41545553 
 11647      5F444F4E 
 11648              	.LASF685:
 11649 40a0 53595343 		.ascii	"SYSCTL_SLPWAKE_SYSOSC_PD (1 << 5)\000"
 11649      544C5F53 
 11649      4C505741 
 11649      4B455F53 
 11649      59534F53 
 11650              	.LASF489:
 11651 40c2 57494E54 		.ascii	"WINT_MAX (__WINT_MAX__)\000"
 11651      5F4D4158 
 11651      20285F5F 
 11651      57494E54 
 11651      5F4D4158 
 11652              	.LASF715:
 11653 40da 494F434F 		.ascii	"IOCON_SFI2C_EN (0x0 << 8)\000"
 11653      4E5F5346 
 11653      4932435F 
 11653      454E2028 
 11653      30783020 
 11654              	.LASF1014:
 11655 40f4 43414E5F 		.ascii	"CAN_ERROR_WARN 0x00000002UL\000"
 11655      4552524F 
 11655      525F5741 
 11655      524E2030 
 11655      78303030 
 11656              	.LASF914:
 11657 4110 4144435F 		.ascii	"ADC_DR_DONE(n) (((n) >> 31))\000"
 11657      44525F44 
 11657      4F4E4528 
 11657      6E292028 
 11657      28286E29 
 11658              	.LASF478:
 11659 412d 55494E54 		.ascii	"UINT_FAST64_MAX (__UINT_FAST64_MAX__)\000"
 11659      5F464153 
 11659      5436345F 
 11659      4D415820 
 11659      285F5F55 
 11660              	.LASF288:
 11661 4153 5F5F4841 		.ascii	"__HA_IBIT__ 8\000"
 11661      5F494249 
 11661      545F5F20 
 11661      3800
 11662              	.LASF315:
 11663 4161 5F5F4743 		.ascii	"__GCC_ATOMIC_LLONG_LOCK_FREE 1\000"
 11663      435F4154 
 11663      4F4D4943 
 11663      5F4C4C4F 
 11663      4E475F4C 
 11664              	.LASF949:
 11665 4180 4932435F 		.ascii	"I2C_CON_STO (1UL << 4)\000"
ARM GAS  /var/folders/z0/6xlwn_996xz3mwq1cgzkbq4r0000gp/T//cc0Pdjko.s 			page 267


 11665      434F4E5F 
 11665      53544F20 
 11665      2831554C 
 11665      203C3C20 
 11666              	.LASF1244:
 11667 4197 43686970 		.ascii	"Chip_I2C_GetClockRate\000"
 11667      5F493243 
 11667      5F476574 
 11667      436C6F63 
 11667      6B526174 
 11668              	.LASF620:
 11669 41ad 5F424954 		.ascii	"_BIT_SHIFT(IRQn) ( (((uint32_t)(IRQn) ) & 0x03) * 8"
 11669      5F534849 
 11669      46542849 
 11669      52516E29 
 11669      20282028 
 11670 41e0 202900   		.ascii	" )\000"
 11671              	.LASF822:
 11672 41e3 55415254 		.ascii	"UART_LSR_THRE (1 << 5)\000"
 11672      5F4C5352 
 11672      5F544852 
 11672      45202831 
 11672      203C3C20 
 11673              	.LASF831:
 11674 41fa 55415254 		.ascii	"UART_MSR_DELTA_DCD (1 << 3)\000"
 11674      5F4D5352 
 11674      5F44454C 
 11674      54415F44 
 11674      43442028 
 11675              	.LASF856:
 11676 4216 55415254 		.ascii	"UART_SCICTRL_SCIEN (1 << 0)\000"
 11676      5F534349 
 11676      4354524C 
 11676      5F534349 
 11676      454E2028 
 11677              	.LASF996:
 11678 4232 4932435F 		.ascii	"I2C_I2SCLL_BITMASK ((0xFFFF))\000"
 11678      49325343 
 11678      4C4C5F42 
 11678      49544D41 
 11678      534B2028 
 11679              	.LASF1084:
 11680 4250 53595352 		.ascii	"SYSRSTSTAT\000"
 11680      53545354 
 11680      415400
 11681              	.LASF80:
 11682 425b 5F5F494E 		.ascii	"__INTMAX_C(c) c ## LL\000"
 11682      544D4158 
 11682      5F432863 
 11682      29206320 
 11682      2323204C 
 11683              	.LASF879:
 11684 4271 57574454 		.ascii	"WWDT_WDMOD_WDPROTECT ((uint32_t) (1 << 4))\000"
 11684      5F57444D 
 11684      4F445F57 
 11684      4450524F 
 11684      54454354 
ARM GAS  /var/folders/z0/6xlwn_996xz3mwq1cgzkbq4r0000gp/T//cc0Pdjko.s 			page 268


 11685              	.LASF959:
 11686 429c 4932435F 		.ascii	"I2C_I2STAT_M_TX_SLAW_NACK ((0x20))\000"
 11686      49325354 
 11686      41545F4D 
 11686      5F54585F 
 11686      534C4157 
 11687              	.LASF806:
 11688 42bf 55415254 		.ascii	"UART_LCR_PARITY_F_1 (2 << 4)\000"
 11688      5F4C4352 
 11688      5F504152 
 11688      4954595F 
 11688      465F3120 
 11689              	.LASF802:
 11690 42dc 55415254 		.ascii	"UART_LCR_PARITY_EN (1 << 3)\000"
 11690      5F4C4352 
 11690      5F504152 
 11690      4954595F 
 11690      454E2028 
 11691              	.LASF42:
 11692 42f8 5F5F494E 		.ascii	"__INT64_TYPE__ long long int\000"
 11692      5436345F 
 11692      54595045 
 11692      5F5F206C 
 11692      6F6E6720 
 11693              	.LASF207:
 11694 4315 5F5F4C46 		.ascii	"__LFRACT_FBIT__ 31\000"
 11694      52414354 
 11694      5F464249 
 11694      545F5F20 
 11694      333100
 11695              	.LASF22:
 11696 4328 5F5F4348 		.ascii	"__CHAR_BIT__ 8\000"
 11696      41525F42 
 11696      49545F5F 
 11696      203800
 11697              	.LASF320:
 11698 4337 5F5F5349 		.ascii	"__SIZEOF_WCHAR_T__ 4\000"
 11698      5A454F46 
 11698      5F574348 
 11698      41525F54 
 11698      5F5F2034 
 11699              	.LASF368:
 11700 434c 5F5F4253 		.ascii	"__BSD_VISIBLE 1\000"
 11700      445F5649 
 11700      5349424C 
 11700      45203100 
 11701              	.LASF452:
 11702 435c 494E545F 		.ascii	"INT_LEAST16_MIN (-__INT_LEAST16_MAX__ - 1)\000"
 11702      4C454153 
 11702      5431365F 
 11702      4D494E20 
 11702      282D5F5F 
 11703              	.LASF1221:
 11704 4387 6D61736B 		.ascii	"mask\000"
 11704      00
 11705              	.LASF612:
 11706 438c 53797354 		.ascii	"SysTick_CALIB_TENMS_Msk (0xFFFFFFUL << SysTick_VAL_"
ARM GAS  /var/folders/z0/6xlwn_996xz3mwq1cgzkbq4r0000gp/T//cc0Pdjko.s 			page 269


 11706      69636B5F 
 11706      43414C49 
 11706      425F5445 
 11706      4E4D535F 
 11707 43bf 43555252 		.ascii	"CURRENT_Pos)\000"
 11707      454E545F 
 11707      506F7329 
 11707      00
 11708              	.LASF1195:
 11709 43cc 4932435F 		.ascii	"I2C_EVENT_WAIT\000"
 11709      4556454E 
 11709      545F5741 
 11709      495400
 11710              	.LASF773:
 11711 43db 55415254 		.ascii	"UART_IIR_INTSTAT_PEND (1 << 0)\000"
 11711      5F494952 
 11711      5F494E54 
 11711      53544154 
 11711      5F50454E 
 11712              	.LASF1196:
 11713 43fa 4932435F 		.ascii	"I2C_EVENT_DONE\000"
 11713      4556454E 
 11713      545F444F 
 11713      4E4500
 11714              	.LASF1265:
 11715 4409 67657443 		.ascii	"getClkRate\000"
 11715      6C6B5261 
 11715      746500
 11716              	.LASF923:
 11717 4414 4144435F 		.ascii	"ADC_CR_START_CTOUT15 ((2UL << 24))\000"
 11717      43525F53 
 11717      54415254 
 11717      5F43544F 
 11717      55543135 
 11718              	.LASF205:
 11719 4437 5F5F5546 		.ascii	"__UFRACT_MAX__ 0XFFFFP-16UR\000"
 11719      52414354 
 11719      5F4D4158 
 11719      5F5F2030 
 11719      58464646 
 11720              	.LASF384:
 11721 4453 5F5F5F69 		.ascii	"___int_least64_t_defined 1\000"
 11721      6E745F6C 
 11721      65617374 
 11721      36345F74 
 11721      5F646566 
 11722              	.LASF989:
 11723 446e 4932435F 		.ascii	"I2C_I2MMCTRL_MATCH_ALL ((1 << 2))\000"
 11723      49324D4D 
 11723      4354524C 
 11723      5F4D4154 
 11723      43485F41 
 11724              	.LASF752:
 11725 4490 54494D45 		.ascii	"TIMER_CAP_FALLING(n) (_BIT((((n) * 3) + 1)))\000"
 11725      525F4341 
 11725      505F4641 
 11725      4C4C494E 
ARM GAS  /var/folders/z0/6xlwn_996xz3mwq1cgzkbq4r0000gp/T//cc0Pdjko.s 			page 270


 11725      47286E29 
 11726              	.LASF1182:
 11727 44bd 4932435F 		.ascii	"I2C_STATUS_T\000"
 11727      53544154 
 11727      55535F54 
 11727      00
 11728              	.LASF1209:
 11729 44ca 6932635F 		.ascii	"i2c_slave_interface\000"
 11729      736C6176 
 11729      655F696E 
 11729      74657266 
 11729      61636500 
 11730              	.LASF188:
 11731 44de 5F5F5346 		.ascii	"__SFRACT_IBIT__ 0\000"
 11731      52414354 
 11731      5F494249 
 11731      545F5F20 
 11731      3000
 11732              	.LASF1051:
 11733 44f0 43414E5F 		.ascii	"CAN_SDOSEG_SEGMENT 0\000"
 11733      53444F53 
 11733      45475F53 
 11733      45474D45 
 11733      4E542030 
 11734              	.LASF366:
 11735 4505 5F415446 		.ascii	"_ATFILE_SOURCE 1\000"
 11735      494C455F 
 11735      534F5552 
 11735      43452031 
 11735      00
 11736              	.LASF387:
 11737 4516 5F5F5354 		.ascii	"__STDINT_EXP(x) __ ##x ##__\000"
 11737      44494E54 
 11737      5F455850 
 11737      28782920 
 11737      5F5F2023 
 11738              	.LASF376:
 11739 4532 5F5F4558 		.ascii	"__EXP(x) __ ##x ##__\000"
 11739      50287829 
 11739      205F5F20 
 11739      23237820 
 11739      23235F5F 
 11740              	.LASF27:
 11741 4547 5F5F4259 		.ascii	"__BYTE_ORDER__ __ORDER_LITTLE_ENDIAN__\000"
 11741      54455F4F 
 11741      52444552 
 11741      5F5F205F 
 11741      5F4F5244 
 11742              	.LASF1249:
 11743 456e 62756666 		.ascii	"buff\000"
 11743      00
 11744              	.LASF643:
 11745 4573 4C50435F 		.ascii	"LPC_GPIO_PORT2_BASE 0x50020000\000"
 11745      4750494F 
 11745      5F504F52 
 11745      54325F42 
 11745      41534520 
ARM GAS  /var/folders/z0/6xlwn_996xz3mwq1cgzkbq4r0000gp/T//cc0Pdjko.s 			page 271


 11746              	.LASF828:
 11747 4592 55415254 		.ascii	"UART_MSR_DELTA_CTS (1 << 0)\000"
 11747      5F4D5352 
 11747      5F44454C 
 11747      54415F43 
 11747      54532028 
 11748              	.LASF732:
 11749 45ae 4D445F46 		.ascii	"MD_FASTI2C (0x2 << 8)\000"
 11749      41535449 
 11749      32432028 
 11749      30783220 
 11749      3C3C2038 
 11750              	.LASF751:
 11751 45c4 54494D45 		.ascii	"TIMER_CAP_RISING(n) (_BIT(((n) * 3)))\000"
 11751      525F4341 
 11751      505F5249 
 11751      53494E47 
 11751      286E2920 
 11752              	.LASF564:
 11753 45ea 5343425F 		.ascii	"SCB_ICSR_PENDSTCLR_Msk (1UL << SCB_ICSR_PENDSTCLR_P"
 11753      49435352 
 11753      5F50454E 
 11753      44535443 
 11753      4C525F4D 
 11754 461d 6F732900 		.ascii	"os)\000"
 11755              	.LASF373:
 11756 4621 5F5F504F 		.ascii	"__POSIX_VISIBLE 200809\000"
 11756      5349585F 
 11756      56495349 
 11756      424C4520 
 11756      32303038 
 11757              	.LASF823:
 11758 4638 55415254 		.ascii	"UART_LSR_TEMT (1 << 6)\000"
 11758      5F4C5352 
 11758      5F54454D 
 11758      54202831 
 11758      203C3C20 
 11759              	.LASF691:
 11760 464f 53595343 		.ascii	"SYSCTL_POWERDOWN_BOD_PD (1 << 3)\000"
 11760      544C5F50 
 11760      4F574552 
 11760      444F574E 
 11760      5F424F44 
 11761              	.LASF1262:
 11762 4670 474E5520 		.ascii	"GNU C89 5.4.1 20160919 (release) [ARM/embedded-5-br"
 11762      43383920 
 11762      352E342E 
 11762      31203230 
 11762      31363039 
 11763 46a3 616E6368 		.ascii	"anch revision 240496] -mcpu=cortex-m0 -mthumb -g -g"
 11763      20726576 
 11763      6973696F 
 11763      6E203234 
 11763      30343936 
 11764 46d6 67646233 		.ascii	"gdb3 -O2 -std=gnu90 -ffunction-sections -fdata-sect"
 11764      202D4F32 
 11764      202D7374 
ARM GAS  /var/folders/z0/6xlwn_996xz3mwq1cgzkbq4r0000gp/T//cc0Pdjko.s 			page 272


 11764      643D676E 
 11764      75393020 
 11765 4709 696F6E73 		.ascii	"ions\000"
 11765      00
 11766              	.LASF33:
 11767 470e 5F5F5749 		.ascii	"__WINT_TYPE__ unsigned int\000"
 11767      4E545F54 
 11767      5950455F 
 11767      5F20756E 
 11767      7369676E 
 11768              	.LASF1230:
 11769 4729 61646472 		.ascii	"addr\000"
 11769      00
 11770              	.LASF283:
 11771 472e 5F5F5544 		.ascii	"__UDQ_FBIT__ 64\000"
 11771      515F4642 
 11771      49545F5F 
 11771      20363400 
 11772              	.LASF622:
 11773 473e 5F49505F 		.ascii	"_IP_IDX(IRQn) ( ((uint32_t)(IRQn) >> 2) )\000"
 11773      49445828 
 11773      4952516E 
 11773      29202820 
 11773      28287569 
 11774              	.LASF437:
 11775 4768 5F5F696E 		.ascii	"__int_fast16_t_defined 1\000"
 11775      745F6661 
 11775      73743136 
 11775      5F745F64 
 11775      6566696E 
 11776              	.LASF765:
 11777 4781 55415254 		.ascii	"UART_IER_RLSINT (1 << 2)\000"
 11777      5F494552 
 11777      5F524C53 
 11777      494E5420 
 11777      2831203C 
 11778              	.LASF157:
 11779 479a 5F5F4C44 		.ascii	"__LDBL_MAX_10_EXP__ 308\000"
 11779      424C5F4D 
 11779      41585F31 
 11779      305F4558 
 11779      505F5F20 
 11780              	.LASF942:
 11781 47b2 4932435F 		.ascii	"I2C_I2CONCLR_AAC ((1 << 2))\000"
 11781      4932434F 
 11781      4E434C52 
 11781      5F414143 
 11781      20282831 
 11782              	.LASF619:
 11783 47ce 4E564943 		.ascii	"NVIC ((NVIC_Type *) NVIC_BASE )\000"
 11783      2028284E 
 11783      5649435F 
 11783      54797065 
 11783      202A2920 
 11784              	.LASF1040:
 11785 47ee 53444F5F 		.ascii	"SDO_ABORT_DEVSTAT 0x08000022UL\000"
 11785      41424F52 
ARM GAS  /var/folders/z0/6xlwn_996xz3mwq1cgzkbq4r0000gp/T//cc0Pdjko.s 			page 273


 11785      545F4445 
 11785      56535441 
 11785      54203078 
 11786              	.LASF462:
 11787 480d 494E5436 		.ascii	"INT64_MAX (__INT64_MAX__)\000"
 11787      345F4D41 
 11787      5820285F 
 11787      5F494E54 
 11787      36345F4D 
 11788              	.LASF694:
 11789 4827 53595343 		.ascii	"SYSCTL_POWERDOWN_WDTOSC_PD (1 << 6)\000"
 11789      544C5F50 
 11789      4F574552 
 11789      444F574E 
 11789      5F574454 
 11790              	.LASF164:
 11791 484b 5F5F4C44 		.ascii	"__LDBL_HAS_INFINITY__ 1\000"
 11791      424C5F48 
 11791      41535F49 
 11791      4E46494E 
 11791      4954595F 
 11792              	.LASF563:
 11793 4863 5343425F 		.ascii	"SCB_ICSR_PENDSTCLR_Pos 25\000"
 11793      49435352 
 11793      5F50454E 
 11793      44535443 
 11793      4C525F50 
 11794              	.LASF1068:
 11795 487d 756E7369 		.ascii	"unsigned int\000"
 11795      676E6564 
 11795      20696E74 
 11795      00
 11796              	.LASF200:
 11797 488a 5F5F4652 		.ascii	"__FRACT_MAX__ 0X7FFFP-15R\000"
 11797      4143545F 
 11797      4D41585F 
 11797      5F203058 
 11797      37464646 
 11798              	.LASF1087:
 11799 48a4 53595350 		.ascii	"SYSPLLCLKUEN\000"
 11799      4C4C434C 
 11799      4B55454E 
 11799      00
 11800              	.LASF126:
 11801 48b1 5F5F464C 		.ascii	"__FLT_MIN_EXP__ (-125)\000"
 11801      545F4D49 
 11801      4E5F4558 
 11801      505F5F20 
 11801      282D3132 
 11802              	.LASF122:
 11803 48c8 5F5F4445 		.ascii	"__DEC_EVAL_METHOD__ 2\000"
 11803      435F4556 
 11803      414C5F4D 
 11803      4554484F 
 11803      445F5F20 
 11804              	.LASF496:
 11805 48de 55494E54 		.ascii	"UINT32_C(x) __UINT32_C(x)\000"
ARM GAS  /var/folders/z0/6xlwn_996xz3mwq1cgzkbq4r0000gp/T//cc0Pdjko.s 			page 274


 11805      33325F43 
 11805      28782920 
 11805      5F5F5549 
 11805      4E543332 
 11806              	.LASF548:
 11807 48f8 5343425F 		.ascii	"SCB_CPUID_VARIANT_Msk (0xFUL << SCB_CPUID_VARIANT_P"
 11807      43505549 
 11807      445F5641 
 11807      5249414E 
 11807      545F4D73 
 11808 492b 6F732900 		.ascii	"os)\000"
 11809              	.LASF727:
 11810 492f 4D445F44 		.ascii	"MD_DIGMODE (0x1 << 7)\000"
 11810      49474D4F 
 11810      44452028 
 11810      30783120 
 11810      3C3C2037 
 11811              	.LASF233:
 11812 4945 5F5F5553 		.ascii	"__USACCUM_IBIT__ 8\000"
 11812      41434355 
 11812      4D5F4942 
 11812      49545F5F 
 11812      203800
 11813              	.LASF1047:
 11814 4958 4F445F53 		.ascii	"OD_SEG_RW 0x60\000"
 11814      45475F52 
 11814      57203078 
 11814      363000
 11815              	.LASF467:
 11816 4967 494E545F 		.ascii	"INT_FAST8_MIN (-__INT_FAST8_MAX__ - 1)\000"
 11816      46415354 
 11816      385F4D49 
 11816      4E20282D 
 11816      5F5F494E 
 11817              	.LASF730:
 11818 498e 4D445F53 		.ascii	"MD_SFI2C (0x0 << 8)\000"
 11818      46493243 
 11818      20283078 
 11818      30203C3C 
 11818      20382900 
 11819              	.LASF125:
 11820 49a2 5F5F464C 		.ascii	"__FLT_DIG__ 6\000"
 11820      545F4449 
 11820      475F5F20 
 11820      3600
 11821              	.LASF35:
 11822 49b0 5F5F5549 		.ascii	"__UINTMAX_TYPE__ long long unsigned int\000"
 11822      4E544D41 
 11822      585F5459 
 11822      50455F5F 
 11822      206C6F6E 
 11823              	.LASF847:
 11824 49d8 55415254 		.ascii	"UART_RS485CTRL_DCTRL_EN (1 << 4)\000"
 11824      5F525334 
 11824      38354354 
 11824      524C5F44 
 11824      4354524C 
ARM GAS  /var/folders/z0/6xlwn_996xz3mwq1cgzkbq4r0000gp/T//cc0Pdjko.s 			page 275


 11825              	.LASF471:
 11826 49f9 494E545F 		.ascii	"INT_FAST16_MAX (__INT_FAST16_MAX__)\000"
 11826      46415354 
 11826      31365F4D 
 11826      41582028 
 11826      5F5F494E 
 11827              	.LASF121:
 11828 4a1d 5F5F464C 		.ascii	"__FLT_EVAL_METHOD__ 0\000"
 11828      545F4556 
 11828      414C5F4D 
 11828      4554484F 
 11828      445F5F20 
 11829              	.LASF817:
 11830 4a33 55415254 		.ascii	"UART_LSR_RDR (1 << 0)\000"
 11830      5F4C5352 
 11830      5F524452 
 11830      20283120 
 11830      3C3C2030 
 11831              	.LASF68:
 11832 4a49 5F5F5343 		.ascii	"__SCHAR_MAX__ 0x7f\000"
 11832      4841525F 
 11832      4D41585F 
 11832      5F203078 
 11832      376600
 11833              	.LASF840:
 11834 4a5c 55415254 		.ascii	"UART_ACR_ABEOINT_CLR (1 << 8)\000"
 11834      5F414352 
 11834      5F414245 
 11834      4F494E54 
 11834      5F434C52 
 11835              	.LASF1264:
 11836 4a7a 2F557365 		.ascii	"/Users/tukyab/Documents/MIT/FSAE/csb/charger_shutdo"
 11836      72732F74 
 11836      756B7961 
 11836      622F446F 
 11836      63756D65 
 11837 4aad 776E5F62 		.ascii	"wn_board\000"
 11837      6F617264 
 11837      00
 11838              	.LASF406:
 11839 4ab6 5F5F494E 		.ascii	"__INT16 \"h\"\000"
 11839      54313620 
 11839      22682200 
 11840              	.LASF522:
 11841 4ac2 494E4C49 		.ascii	"INLINE inline\000"
 11841      4E452069 
 11841      6E6C696E 
 11841      6500
 11842              	.LASF1254:
 11843 4ad0 43686970 		.ascii	"Chip_I2C_SlaveSetup\000"
 11843      5F493243 
 11843      5F536C61 
 11843      76655365 
 11843      74757000 
 11844              	.LASF913:
 11845 4ae4 4144435F 		.ascii	"ADC_CR_BITACC(n) ((((n) & 0x7) << 17))\000"
 11845      43525F42 
ARM GAS  /var/folders/z0/6xlwn_996xz3mwq1cgzkbq4r0000gp/T//cc0Pdjko.s 			page 276


 11845      49544143 
 11845      43286E29 
 11845      20282828 
 11846              	.LASF277:
 11847 4b0b 5F5F5551 		.ascii	"__UQQ_FBIT__ 8\000"
 11847      515F4642 
 11847      49545F5F 
 11847      203800
 11848              	.LASF801:
 11849 4b1a 55415254 		.ascii	"UART_LCR_SBS_2BIT (1 << 2)\000"
 11849      5F4C4352 
 11849      5F534253 
 11849      5F324249 
 11849      54202831 
 11850              	.LASF849:
 11851 4b35 55415254 		.ascii	"UART_RS485CTRL_BITMASK (0x3F)\000"
 11851      5F525334 
 11851      38354354 
 11851      524C5F42 
 11851      49544D41 
 11852              	.LASF606:
 11853 4b53 53797354 		.ascii	"SysTick_VAL_CURRENT_Msk (0xFFFFFFUL << SysTick_VAL_"
 11853      69636B5F 
 11853      56414C5F 
 11853      43555252 
 11853      454E545F 
 11854 4b86 43555252 		.ascii	"CURRENT_Pos)\000"
 11854      454E545F 
 11854      506F7329 
 11854      00
 11855              	.LASF174:
 11856 4b93 5F5F4445 		.ascii	"__DEC64_MIN_EXP__ (-382)\000"
 11856      4336345F 
 11856      4D494E5F 
 11856      4558505F 
 11856      5F20282D 
 11857              	.LASF1093:
 11858 4bac 53595341 		.ascii	"SYSAHBCLKDIV\000"
 11858      4842434C 
 11858      4B444956 
 11858      00
 11859              	.LASF956:
 11860 4bb9 4932435F 		.ascii	"I2C_I2STAT_M_TX_START ((0x08))\000"
 11860      49325354 
 11860      41545F4D 
 11860      5F54585F 
 11860      53544152 
 11861              	.LASF764:
 11862 4bd8 55415254 		.ascii	"UART_IER_THREINT (1 << 1)\000"
 11862      5F494552 
 11862      5F544852 
 11862      45494E54 
 11862      20283120 
 11863              	.LASF398:
 11864 4bf2 63686172 		.ascii	"char +0\000"
 11864      202B3000 
 11865              	.LASF210:
ARM GAS  /var/folders/z0/6xlwn_996xz3mwq1cgzkbq4r0000gp/T//cc0Pdjko.s 			page 277


 11866 4bfa 5F5F4C46 		.ascii	"__LFRACT_MAX__ 0X7FFFFFFFP-31LR\000"
 11866      52414354 
 11866      5F4D4158 
 11866      5F5F2030 
 11866      58374646 
 11867              	.LASF1193:
 11868 4c1a 4932435F 		.ascii	"I2C_NUM_INTERFACE\000"
 11868      4E554D5F 
 11868      494E5445 
 11868      52464143 
 11868      4500
 11869              	.LASF521:
 11870 4c2c 4D494E28 		.ascii	"MIN(a,b) (((a) < (b)) ? (a) : (b))\000"
 11870      612C6229 
 11870      20282828 
 11870      6129203C 
 11870      20286229 
 11871              	.LASF0:
 11872 4c4f 5F5F5354 		.ascii	"__STDC__ 1\000"
 11872      44435F5F 
 11872      203100
 11873              	.LASF1131:
 11874 4c5a 5044534C 		.ascii	"PDSLEEPCFG\000"
 11874      45455043 
 11874      464700
 11875              	.LASF381:
 11876 4c65 5F5F5F69 		.ascii	"___int_least8_t_defined 1\000"
 11876      6E745F6C 
 11876      65617374 
 11876      385F745F 
 11876      64656669 
 11877              	.LASF1197:
 11878 4c7f 4932435F 		.ascii	"I2C_EVENT_LOCK\000"
 11878      4556454E 
 11878      545F4C4F 
 11878      434B00
 11879              	.LASF480:
 11880 4c8e 494E544D 		.ascii	"INTMAX_MIN (-INTMAX_MAX - 1)\000"
 11880      41585F4D 
 11880      494E2028 
 11880      2D494E54 
 11880      4D41585F 
 11881              	.LASF43:
 11882 4cab 5F5F5549 		.ascii	"__UINT8_TYPE__ unsigned char\000"
 11882      4E54385F 
 11882      54595045 
 11882      5F5F2075 
 11882      6E736967 
 11883              	.LASF947:
 11884 4cc8 4932435F 		.ascii	"I2C_CON_AA (1UL << 2)\000"
 11884      434F4E5F 
 11884      41412028 
 11884      31554C20 
 11884      3C3C2032 
 11885              	.LASF881:
 11886 4cde 5353505F 		.ascii	"SSP_CR0_DSS(n) ((uint32_t) ((n) & 0xF))\000"
 11886      4352305F 
ARM GAS  /var/folders/z0/6xlwn_996xz3mwq1cgzkbq4r0000gp/T//cc0Pdjko.s 			page 278


 11886      44535328 
 11886      6E292028 
 11886      2875696E 
 11887              	.LASF436:
 11888 4d06 5F5F696E 		.ascii	"__int_fast8_t_defined 1\000"
 11888      745F6661 
 11888      7374385F 
 11888      745F6465 
 11888      66696E65 
 11889              	.LASF1234:
 11890 4d1e 43686970 		.ascii	"Chip_I2C_IsStateChanged\000"
 11890      5F493243 
 11890      5F497353 
 11890      74617465 
 11890      4368616E 
 11891              	.LASF99:
 11892 4d36 5F5F494E 		.ascii	"__INT_LEAST64_MAX__ 0x7fffffffffffffffLL\000"
 11892      545F4C45 
 11892      41535436 
 11892      345F4D41 
 11892      585F5F20 
 11893              	.LASF972:
 11894 4d5f 4932435F 		.ascii	"I2C_I2STAT_S_RX_GENCALL_ACK ((0x70))\000"
 11894      49325354 
 11894      41545F53 
 11894      5F52585F 
 11894      47454E43 
 11895              	.LASF737:
 11896 4d84 46554E43 		.ascii	"FUNC3 0x3\000"
 11896      33203078 
 11896      3300
 11897              	.LASF695:
 11898 4d8e 53595343 		.ascii	"SYSCTL_POWERDOWN_SYSPLL_PD (1 << 7)\000"
 11898      544C5F50 
 11898      4F574552 
 11898      444F574E 
 11898      5F535953 
 11899              	.LASF1124:
 11900 4db2 53544152 		.ascii	"STARTAPRP0\000"
 11900      54415052 
 11900      503000
 11901              	.LASF180:
 11902 4dbd 5F5F4445 		.ascii	"__DEC128_MANT_DIG__ 34\000"
 11902      43313238 
 11902      5F4D414E 
 11902      545F4449 
 11902      475F5F20 
 11903              	.LASF441:
 11904 4dd4 494E5450 		.ascii	"INTPTR_MAX (__INTPTR_MAX__)\000"
 11904      54525F4D 
 11904      41582028 
 11904      5F5F494E 
 11904      54505452 
 11905              	.LASF504:
 11906 4df0 74727565 		.ascii	"true 1\000"
 11906      203100
 11907              	.LASF2:
ARM GAS  /var/folders/z0/6xlwn_996xz3mwq1cgzkbq4r0000gp/T//cc0Pdjko.s 			page 279


 11908 4df7 5F5F474E 		.ascii	"__GNUC__ 5\000"
 11908      55435F5F 
 11908      203500
 11909              	.LASF297:
 11910 4e02 5F5F5553 		.ascii	"__USA_FBIT__ 16\000"
 11910      415F4642 
 11910      49545F5F 
 11910      20313600 
 11911              	.LASF747:
 11912 4e12 54494D45 		.ascii	"TIMER_RESET ((uint32_t) (1 << 1))\000"
 11912      525F5245 
 11912      53455420 
 11912      28287569 
 11912      6E743332 
 11913              	.LASF614:
 11914 4e34 53797354 		.ascii	"SysTick_BASE (SCS_BASE + 0x0010UL)\000"
 11914      69636B5F 
 11914      42415345 
 11914      20285343 
 11914      535F4241 
 11915              	.LASF803:
 11916 4e57 55415254 		.ascii	"UART_LCR_PARITY_DIS (0 << 3)\000"
 11916      5F4C4352 
 11916      5F504152 
 11916      4954595F 
 11916      44495320 
 11917              	.LASF155:
 11918 4e74 5F5F4C44 		.ascii	"__LDBL_MIN_10_EXP__ (-307)\000"
 11918      424C5F4D 
 11918      494E5F31 
 11918      305F4558 
 11918      505F5F20 
 11919              	.LASF1259:
 11920 4e8f 6932635F 		.ascii	"i2c_slave\000"
 11920      736C6176 
 11920      6500
 11921              	.LASF848:
 11922 4e99 55415254 		.ascii	"UART_RS485CTRL_OINV_1 (1 << 5)\000"
 11922      5F525334 
 11922      38354354 
 11922      524C5F4F 
 11922      494E565F 
 11923              	.LASF308:
 11924 4eb8 5F5F4743 		.ascii	"__GCC_ATOMIC_CHAR_LOCK_FREE 1\000"
 11924      435F4154 
 11924      4F4D4943 
 11924      5F434841 
 11924      525F4C4F 
 11925              	.LASF367:
 11926 4ed6 5F5F4154 		.ascii	"__ATFILE_VISIBLE 1\000"
 11926      46494C45 
 11926      5F564953 
 11926      49424C45 
 11926      203100
 11927              	.LASF1089:
 11928 4ee9 55534250 		.ascii	"USBPLLCLKUEN\000"
 11928      4C4C434C 
ARM GAS  /var/folders/z0/6xlwn_996xz3mwq1cgzkbq4r0000gp/T//cc0Pdjko.s 			page 280


 11928      4B55454E 
 11928      00
 11929              	.LASF665:
 11930 4ef6 5F5F504D 		.ascii	"__PMU_11XX_H_ \000"
 11930      555F3131 
 11930      58585F48 
 11930      5F2000
 11931              	.LASF211:
 11932 4f05 5F5F4C46 		.ascii	"__LFRACT_EPSILON__ 0x1P-31LR\000"
 11932      52414354 
 11932      5F455053 
 11932      494C4F4E 
 11932      5F5F2030 
 11933              	.LASF653:
 11934 4f22 4C50435F 		.ascii	"LPC_TIMER32_1 ((LPC_TIMER_T *) LPC_TIMER32_1_BASE)\000"
 11934      54494D45 
 11934      5233325F 
 11934      31202828 
 11934      4C50435F 
 11935              	.LASF591:
 11936 4f55 5343425F 		.ascii	"SCB_CCR_UNALIGN_TRP_Pos 3\000"
 11936      4343525F 
 11936      554E414C 
 11936      49474E5F 
 11936      5452505F 
 11937              	.LASF323:
 11938 4f6f 5F5F4152 		.ascii	"__ARM_SIZEOF_MINIMAL_ENUM 1\000"
 11938      4D5F5349 
 11938      5A454F46 
 11938      5F4D494E 
 11938      494D414C 
 11939              	.LASF1208:
 11940 4f8b 6932635F 		.ascii	"i2c_interface\000"
 11940      696E7465 
 11940      72666163 
 11940      6500
 11941              	.LASF1201:
 11942 4f99 4932435F 		.ascii	"I2C_EVENT_T\000"
 11942      4556454E 
 11942      545F5400 
 11943              	.LASF326:
 11944 4fa5 5F5F6172 		.ascii	"__arm__ 1\000"
 11944      6D5F5F20 
 11944      3100
 11945              	.LASF708:
 11946 4faf 494F434F 		.ascii	"IOCON_MODE_PULLDOWN (0x1 << 3)\000"
 11946      4E5F4D4F 
 11946      44455F50 
 11946      554C4C44 
 11946      4F574E20 
 11947              	.LASF1044:
 11948 4fce 4F445F45 		.ascii	"OD_EXP_RW 0x30\000"
 11948      58505F52 
 11948      57203078 
 11948      333000
 11949              	.LASF635:
 11950 4fdd 4C50435F 		.ascii	"LPC_SSP0_BASE 0x40040000\000"
ARM GAS  /var/folders/z0/6xlwn_996xz3mwq1cgzkbq4r0000gp/T//cc0Pdjko.s 			page 281


 11950      53535030 
 11950      5F424153 
 11950      45203078 
 11950      34303034 
 11951              	.LASF1238:
 11952 4ff6 63636C72 		.ascii	"cclr\000"
 11952      00
 11953              	.LASF980:
 11954 4ffb 4932435F 		.ascii	"I2C_I2STAT_S_TX_ARB_LOST_M_SLA ((0xB0))\000"
 11954      49325354 
 11954      41545F53 
 11954      5F54585F 
 11954      4152425F 
 11955              	.LASF973:
 11956 5023 4932435F 		.ascii	"I2C_I2STAT_S_RX_ARB_LOST_M_GENCALL ((0x78))\000"
 11956      49325354 
 11956      41545F53 
 11956      5F52585F 
 11956      4152425F 
 11957              	.LASF525:
 11958 504f 5F5F434D 		.ascii	"__CMSIS_H_ \000"
 11958      5349535F 
 11958      485F2000 
 11959              	.LASF804:
 11960 505b 55415254 		.ascii	"UART_LCR_PARITY_ODD (0 << 4)\000"
 11960      5F4C4352 
 11960      5F504152 
 11960      4954595F 
 11960      4F444420 
 11961              	.LASF449:
 11962 5078 494E5431 		.ascii	"INT16_MIN (-__INT16_MAX__ - 1)\000"
 11962      365F4D49 
 11962      4E20282D 
 11962      5F5F494E 
 11962      5431365F 
 11963              	.LASF642:
 11964 5097 4C50435F 		.ascii	"LPC_GPIO_PORT1_BASE 0x50010000\000"
 11964      4750494F 
 11964      5F504F52 
 11964      54315F42 
 11964      41534520 
 11965              	.LASF615:
 11966 50b6 4E564943 		.ascii	"NVIC_BASE (SCS_BASE + 0x0100UL)\000"
 11966      5F424153 
 11966      45202853 
 11966      43535F42 
 11966      41534520 
 11967              	.LASF953:
 11968 50d6 4932435F 		.ascii	"I2C_STAT_CODE_ERROR ((0xFF))\000"
 11968      53544154 
 11968      5F434F44 
 11968      455F4552 
 11968      524F5220 
 11969              	.LASF782:
 11970 50f3 55415254 		.ascii	"UART_IIR_INTID_THRE (1 << 1)\000"
 11970      5F494952 
 11970      5F494E54 
ARM GAS  /var/folders/z0/6xlwn_996xz3mwq1cgzkbq4r0000gp/T//cc0Pdjko.s 			page 282


 11970      49445F54 
 11970      48524520 
 11971              	.LASF166:
 11972 5110 5F5F4445 		.ascii	"__DEC32_MANT_DIG__ 7\000"
 11972      4333325F 
 11972      4D414E54 
 11972      5F444947 
 11972      5F5F2037 
 11973              	.LASF476:
 11974 5125 494E545F 		.ascii	"INT_FAST64_MIN (-__INT_FAST64_MAX__ - 1)\000"
 11974      46415354 
 11974      36345F4D 
 11974      494E2028 
 11974      2D5F5F49 
 11975              	.LASF350:
 11976 514e 5F4D4143 		.ascii	"_MACHINE__DEFAULT_TYPES_H \000"
 11976      48494E45 
 11976      5F5F4445 
 11976      4641554C 
 11976      545F5459 
 11977              	.LASF23:
 11978 5169 5F5F4249 		.ascii	"__BIGGEST_ALIGNMENT__ 8\000"
 11978      47474553 
 11978      545F414C 
 11978      49474E4D 
 11978      454E545F 
 11979              	.LASF982:
 11980 5181 4932435F 		.ascii	"I2C_I2STAT_S_TX_DAT_NACK ((0xC0))\000"
 11980      49325354 
 11980      41545F53 
 11980      5F54585F 
 11980      4441545F 
 11981              	.LASF234:
 11982 51a3 5F5F5553 		.ascii	"__USACCUM_MIN__ 0.0UHK\000"
 11982      41434355 
 11982      4D5F4D49 
 11982      4E5F5F20 
 11982      302E3055 
 11983              	.LASF583:
 11984 51ba 5343425F 		.ascii	"SCB_SCR_SEVONPEND_Pos 4\000"
 11984      5343525F 
 11984      5345564F 
 11984      4E50454E 
 11984      445F506F 
 11985              	.LASF711:
 11986 51d2 494F434F 		.ascii	"IOCON_HYS_EN (0x1 << 5)\000"
 11986      4E5F4859 
 11986      535F454E 
 11986      20283078 
 11986      31203C3C 
 11987              	.LASF294:
 11988 51ea 5F5F5441 		.ascii	"__TA_IBIT__ 64\000"
 11988      5F494249 
 11988      545F5F20 
 11988      363400
 11989              	.LASF868:
 11990 51f9 55415254 		.ascii	"UART_SYNCCTRL_FES (1 << 2)\000"
ARM GAS  /var/folders/z0/6xlwn_996xz3mwq1cgzkbq4r0000gp/T//cc0Pdjko.s 			page 283


 11990      5F53594E 
 11990      43435452 
 11990      4C5F4645 
 11990      53202831 
 11991              	.LASF416:
 11992 5214 5F5F4C45 		.ascii	"__LEAST64 \"ll\"\000"
 11992      41535436 
 11992      3420226C 
 11992      6C2200
 11993              	.LASF1092:
 11994 5223 4D41494E 		.ascii	"MAINCLKUEN\000"
 11994      434C4B55 
 11994      454E00
 11995              	.LASF1009:
 11996 522e 4932435F 		.ascii	"I2C_MONITOR_CFG_SCL_OUTPUT I2C_I2MMCTRL_ENA_SCL\000"
 11996      4D4F4E49 
 11996      544F525F 
 11996      4346475F 
 11996      53434C5F 
 11997              	.LASF961:
 11998 525e 4932435F 		.ascii	"I2C_I2STAT_M_TX_DAT_NACK ((0x30))\000"
 11998      49325354 
 11998      41545F4D 
 11998      5F54585F 
 11998      4441545F 
 11999              	.LASF891:
 12000 5280 5353505F 		.ascii	"SSP_CR1_LBM_EN ((uint32_t) (1 << 0))\000"
 12000      4352315F 
 12000      4C424D5F 
 12000      454E2028 
 12000      2875696E 
 12001              	.LASF964:
 12002 52a5 4932435F 		.ascii	"I2C_I2STAT_M_RX_RESTART ((0x10))\000"
 12002      49325354 
 12002      41545F4D 
 12002      5F52585F 
 12002      52455354 
 12003              	.LASF565:
 12004 52c6 5343425F 		.ascii	"SCB_ICSR_ISRPREEMPT_Pos 23\000"
 12004      49435352 
 12004      5F495352 
 12004      50524545 
 12004      4D50545F 
 12005              	.LASF555:
 12006 52e1 5343425F 		.ascii	"SCB_ICSR_NMIPENDSET_Pos 31\000"
 12006      49435352 
 12006      5F4E4D49 
 12006      50454E44 
 12006      5345545F 
 12007              	.LASF1039:
 12008 52fc 53444F5F 		.ascii	"SDO_ABORT_LOCAL 0x08000021UL\000"
 12008      41424F52 
 12008      545F4C4F 
 12008      43414C20 
 12008      30783038 
 12009              	.LASF755:
 12010 5319 5F5F5249 		.ascii	"__RING_BUFFER_H_ \000"
ARM GAS  /var/folders/z0/6xlwn_996xz3mwq1cgzkbq4r0000gp/T//cc0Pdjko.s 			page 284


 12010      4E475F42 
 12010      55464645 
 12010      525F485F 
 12010      2000
 12011              	.LASF330:
 12012 532b 5F5F4152 		.ascii	"__ARM_ARCH_ISA_THUMB 1\000"
 12012      4D5F4152 
 12012      43485F49 
 12012      53415F54 
 12012      48554D42 
 12013              	.LASF531:
 12014 5342 5F5F434D 		.ascii	"__CM0_CMSIS_VERSION_MAIN (0x03)\000"
 12014      305F434D 
 12014      5349535F 
 12014      56455253 
 12014      494F4E5F 
 12015              	.LASF72:
 12016 5362 5F5F4C4F 		.ascii	"__LONG_LONG_MAX__ 0x7fffffffffffffffLL\000"
 12016      4E475F4C 
 12016      4F4E475F 
 12016      4D41585F 
 12016      5F203078 
 12017              	.LASF870:
 12018 5389 55415254 		.ascii	"UART_SYNCCTRL_CSCEN (1 << 4)\000"
 12018      5F53594E 
 12018      43435452 
 12018      4C5F4353 
 12018      43454E20 
 12019              	.LASF395:
 12020 53a6 6C6F6E67 		.ascii	"long\000"
 12020      00
 12021              	.LASF1080:
 12022 53ab 5359534F 		.ascii	"SYSOSCCTRL\000"
 12022      53434354 
 12022      524C00
 12023              	.LASF796:
 12024 53b6 55415254 		.ascii	"UART_LCR_WLEN6 (1 << 0)\000"
 12024      5F4C4352 
 12024      5F574C45 
 12024      4E362028 
 12024      31203C3C 
 12025              	.LASF948:
 12026 53ce 4932435F 		.ascii	"I2C_CON_SI (1UL << 3)\000"
 12026      434F4E5F 
 12026      53492028 
 12026      31554C20 
 12026      3C3C2033 
 12027              	.LASF203:
 12028 53e4 5F5F5546 		.ascii	"__UFRACT_IBIT__ 0\000"
 12028      52414354 
 12028      5F494249 
 12028      545F5F20 
 12028      3000
 12029              	.LASF941:
 12030 53f6 4932435F 		.ascii	"I2C_I2CONSET_I2EN ((0x40))\000"
 12030      4932434F 
 12030      4E534554 
ARM GAS  /var/folders/z0/6xlwn_996xz3mwq1cgzkbq4r0000gp/T//cc0Pdjko.s 			page 285


 12030      5F493245 
 12030      4E202828 
 12031              	.LASF944:
 12032 5411 4932435F 		.ascii	"I2C_I2CONCLR_STOC ((1 << 4))\000"
 12032      4932434F 
 12032      4E434C52 
 12032      5F53544F 
 12032      43202828 
 12033              	.LASF613:
 12034 542e 5343535F 		.ascii	"SCS_BASE (0xE000E000UL)\000"
 12034      42415345 
 12034      20283078 
 12034      45303030 
 12034      45303030 
 12035              	.LASF94:
 12036 5446 5F5F494E 		.ascii	"__INT8_C(c) c\000"
 12036      54385F43 
 12036      28632920 
 12036      6300
 12037              	.LASF208:
 12038 5454 5F5F4C46 		.ascii	"__LFRACT_IBIT__ 0\000"
 12038      52414354 
 12038      5F494249 
 12038      545F5F20 
 12038      3000
 12039              	.LASF928:
 12040 5466 4144435F 		.ascii	"ADC_CR_EDGE ((1UL << 27))\000"
 12040      43525F45 
 12040      44474520 
 12040      28283155 
 12040      4C203C3C 
 12041              	.LASF529:
 12042 5480 5F5F5665 		.ascii	"__Vendor_SysTickConfig 0\000"
 12042      6E646F72 
 12042      5F537973 
 12042      5469636B 
 12042      436F6E66 
 12043              	.LASF759:
 12044 5499 55415254 		.ascii	"UART_LOAD_DLL(div) ((div) & 0xFF)\000"
 12044      5F4C4F41 
 12044      445F444C 
 12044      4C286469 
 12044      76292028 
 12045              	.LASF554:
 12046 54bb 5343425F 		.ascii	"SCB_CPUID_REVISION_Msk (0xFUL << SCB_CPUID_REVISION"
 12046      43505549 
 12046      445F5245 
 12046      56495349 
 12046      4F4E5F4D 
 12047 54ee 5F506F73 		.ascii	"_Pos)\000"
 12047      2900
 12048              	.LASF317:
 12049 54f4 5F5F4743 		.ascii	"__GCC_ATOMIC_POINTER_LOCK_FREE 1\000"
 12049      435F4154 
 12049      4F4D4943 
 12049      5F504F49 
 12049      4E544552 
ARM GAS  /var/folders/z0/6xlwn_996xz3mwq1cgzkbq4r0000gp/T//cc0Pdjko.s 			page 286


 12050              	.LASF140:
 12051 5515 5F5F4442 		.ascii	"__DBL_MIN_EXP__ (-1021)\000"
 12051      4C5F4D49 
 12051      4E5F4558 
 12051      505F5F20 
 12051      282D3130 
 12052              	.LASF515:
 12053 552d 4E554C4C 		.ascii	"NULL ((void *) 0)\000"
 12053      20282876 
 12053      6F696420 
 12053      2A292030 
 12053      2900
 12054              	.LASF1000:
 12055 553f 4932435F 		.ascii	"I2C_OK 0x00\000"
 12055      4F4B2030 
 12055      78303000 
 12056              	.LASF310:
 12057 554b 5F5F4743 		.ascii	"__GCC_ATOMIC_CHAR32_T_LOCK_FREE 1\000"
 12057      435F4154 
 12057      4F4D4943 
 12057      5F434841 
 12057      5233325F 
 12058              	.LASF173:
 12059 556d 5F5F4445 		.ascii	"__DEC64_MANT_DIG__ 16\000"
 12059      4336345F 
 12059      4D414E54 
 12059      5F444947 
 12059      5F5F2031 
 12060              	.LASF1250:
 12061 5583 43686970 		.ascii	"Chip_I2C_MasterCmdRead\000"
 12061      5F493243 
 12061      5F4D6173 
 12061      74657243 
 12061      6D645265 
 12062              	.LASF872:
 12063 559a 55415254 		.ascii	"UART_SYNCCTRL_CCCLR (1 << 6)\000"
 12063      5F53594E 
 12063      43435452 
 12063      4C5F4343 
 12063      434C5220 
 12064              	.LASF1140:
 12065 55b7 53595343 		.ascii	"SYSCTL_CLOCK_FLASHREG\000"
 12065      544C5F43 
 12065      4C4F434B 
 12065      5F464C41 
 12065      53485245 
 12066              	.LASF259:
 12067 55cd 5F5F4C4C 		.ascii	"__LLACCUM_MIN__ (-0X1P31LLK-0X1P31LLK)\000"
 12067      41434355 
 12067      4D5F4D49 
 12067      4E5F5F20 
 12067      282D3058 
 12068              	.LASF833:
 12069 55f4 55415254 		.ascii	"UART_MSR_DSR (1 << 5)\000"
 12069      5F4D5352 
 12069      5F445352 
 12069      20283120 
ARM GAS  /var/folders/z0/6xlwn_996xz3mwq1cgzkbq4r0000gp/T//cc0Pdjko.s 			page 287


 12069      3C3C2035 
 12070              	.LASF735:
 12071 560a 46554E43 		.ascii	"FUNC1 0x1\000"
 12071      31203078 
 12071      3100
 12072              	.LASF500:
 12073 5614 55494E54 		.ascii	"UINTMAX_C(x) __UINTMAX_C(x)\000"
 12073      4D41585F 
 12073      43287829 
 12073      205F5F55 
 12073      494E544D 
 12074              	.LASF372:
 12075 5630 5F5F4D49 		.ascii	"__MISC_VISIBLE 1\000"
 12075      53435F56 
 12075      49534942 
 12075      4C452031 
 12075      00
 12076              	.LASF1260:
 12077 5641 4F736352 		.ascii	"OscRateIn\000"
 12077      61746549 
 12077      6E00
 12078              	.LASF385:
 12079 564b 5F5F4558 		.ascii	"__EXP\000"
 12079      5000
 12080              	.LASF713:
 12081 5651 494F434F 		.ascii	"IOCON_ADMODE_EN (0x0 << 7)\000"
 12081      4E5F4144 
 12081      4D4F4445 
 12081      5F454E20 
 12081      28307830 
 12082              	.LASF380:
 12083 566c 5F5F5F69 		.ascii	"___int64_t_defined 1\000"
 12083      6E743634 
 12083      5F745F64 
 12083      6566696E 
 12083      65642031 
 12084              	.LASF163:
 12085 5681 5F5F4C44 		.ascii	"__LDBL_HAS_DENORM__ 1\000"
 12085      424C5F48 
 12085      41535F44 
 12085      454E4F52 
 12085      4D5F5F20 
 12086              	.LASF605:
 12087 5697 53797354 		.ascii	"SysTick_VAL_CURRENT_Pos 0\000"
 12087      69636B5F 
 12087      56414C5F 
 12087      43555252 
 12087      454E545F 
 12088              	.LASF761:
 12089 56b1 55415254 		.ascii	"UART_LOAD_DLM(div) (((div) >> 8) & 0xFF)\000"
 12089      5F4C4F41 
 12089      445F444C 
 12089      4D286469 
 12089      76292028 
 12090              	.LASF763:
 12091 56da 55415254 		.ascii	"UART_IER_RBRINT (1 << 0)\000"
 12091      5F494552 
ARM GAS  /var/folders/z0/6xlwn_996xz3mwq1cgzkbq4r0000gp/T//cc0Pdjko.s 			page 288


 12091      5F524252 
 12091      494E5420 
 12091      2831203C 
 12092              	.LASF108:
 12093 56f3 5F5F5549 		.ascii	"__UINT64_C(c) c ## ULL\000"
 12093      4E543634 
 12093      5F432863 
 12093      29206320 
 12093      23232055 
 12094              	.LASF240:
 12095 570a 5F5F4143 		.ascii	"__ACCUM_MAX__ 0X7FFFFFFFP-15K\000"
 12095      43554D5F 
 12095      4D41585F 
 12095      5F203058 
 12095      37464646 
 12096              	.LASF346:
 12097 5728 43414E5F 		.ascii	"CAN_ARCHITECTURE_ARM 1\000"
 12097      41524348 
 12097      49544543 
 12097      54555245 
 12097      5F41524D 
 12098              	.LASF49:
 12099 573f 5F5F494E 		.ascii	"__INT_LEAST32_TYPE__ long int\000"
 12099      545F4C45 
 12099      41535433 
 12099      325F5459 
 12099      50455F5F 
 12100              	.LASF1192:
 12101 575d 49324330 		.ascii	"I2C0\000"
 12101      00
 12102              	.LASF1150:
 12103 5762 53595343 		.ascii	"SYSCTL_CLOCK_ADC\000"
 12103      544C5F43 
 12103      4C4F434B 
 12103      5F414443 
 12103      00
 12104              	.LASF729:
 12105 5773 4D445F45 		.ascii	"MD_ENFIL (0x1 << 8)\000"
 12105      4E46494C 
 12105      20283078 
 12105      31203C3C 
 12105      20382900 
 12106              	.LASF594:
 12107 5787 5343425F 		.ascii	"SCB_SHCSR_SVCALLPENDED_Msk (1UL << SCB_SHCSR_SVCALL"
 12107      53484353 
 12107      525F5356 
 12107      43414C4C 
 12107      50454E44 
 12108 57ba 50454E44 		.ascii	"PENDED_Pos)\000"
 12108      45445F50 
 12108      6F732900 
 12109              	.LASF1034:
 12110 57c6 53444F5F 		.ascii	"SDO_ABORT_ACCINCOMP 0x06040047UL\000"
 12110      41424F52 
 12110      545F4143 
 12110      43494E43 
 12110      4F4D5020 
ARM GAS  /var/folders/z0/6xlwn_996xz3mwq1cgzkbq4r0000gp/T//cc0Pdjko.s 			page 289


 12111              	.LASF107:
 12112 57e7 5F5F5549 		.ascii	"__UINT_LEAST64_MAX__ 0xffffffffffffffffULL\000"
 12112      4E545F4C 
 12112      45415354 
 12112      36345F4D 
 12112      41585F5F 
 12113              	.LASF116:
 12114 5812 5F5F5549 		.ascii	"__UINT_FAST64_MAX__ 0xffffffffffffffffULL\000"
 12114      4E545F46 
 12114      41535436 
 12114      345F4D41 
 12114      585F5F20 
 12115              	.LASF8:
 12116 583c 5F5F4154 		.ascii	"__ATOMIC_ACQUIRE 2\000"
 12116      4F4D4943 
 12116      5F414351 
 12116      55495245 
 12116      203200
 12117              	.LASF933:
 12118 584f 5245545F 		.ascii	"RET_SLAVE_RX 5\000"
 12118      534C4156 
 12118      455F5258 
 12118      203500
 12119              	.LASF1030:
 12120 585e 53444F5F 		.ascii	"SDO_ABORT_WRITEONLY 0x06010001UL\000"
 12120      41424F52 
 12120      545F5752 
 12120      4954454F 
 12120      4E4C5920 
 12121              	.LASF356:
 12122 587f 5F5F4E45 		.ascii	"__NEWLIB_PATCHLEVEL__ 0\000"
 12122      574C4942 
 12122      5F504154 
 12122      43484C45 
 12122      56454C5F 
 12123              	.LASF876:
 12124 5897 57574454 		.ascii	"WWDT_WDMOD_WDRESET ((uint32_t) (1 << 1))\000"
 12124      5F57444D 
 12124      4F445F57 
 12124      44524553 
 12124      45542028 
 12125              	.LASF1057:
 12126 58c0 534C4156 		.ascii	"SLAVE_ACTIVE(iic) (((iic)->flags & 0xFF00) != 0)\000"
 12126      455F4143 
 12126      54495645 
 12126      28696963 
 12126      29202828 
 12127              	.LASF24:
 12128 58f1 5F5F4F52 		.ascii	"__ORDER_LITTLE_ENDIAN__ 1234\000"
 12128      4445525F 
 12128      4C495454 
 12128      4C455F45 
 12128      4E444941 
 12129              	.LASF994:
 12130 590e 4932435F 		.ascii	"I2C_I2MASK_MASK(n) ((n & 0xFE))\000"
 12130      49324D41 
 12130      534B5F4D 
ARM GAS  /var/folders/z0/6xlwn_996xz3mwq1cgzkbq4r0000gp/T//cc0Pdjko.s 			page 290


 12130      41534B28 
 12130      6E292028 
 12131              	.LASF1067:
 12132 592e 6C6F6E67 		.ascii	"long long unsigned int\000"
 12132      206C6F6E 
 12132      6720756E 
 12132      7369676E 
 12132      65642069 
 12133              	.LASF466:
 12134 5945 55494E54 		.ascii	"UINT_LEAST64_MAX (__UINT_LEAST64_MAX__)\000"
 12134      5F4C4541 
 12134      53543634 
 12134      5F4D4158 
 12134      20285F5F 
 12135              	.LASF253:
 12136 596d 5F5F554C 		.ascii	"__ULACCUM_IBIT__ 32\000"
 12136      41434355 
 12136      4D5F4942 
 12136      49545F5F 
 12136      20333200 
 12137              	.LASF69:
 12138 5981 5F5F5348 		.ascii	"__SHRT_MAX__ 0x7fff\000"
 12138      52545F4D 
 12138      41585F5F 
 12138      20307837 
 12138      66666600 
 12139              	.LASF469:
 12140 5995 55494E54 		.ascii	"UINT_FAST8_MAX (__UINT_FAST8_MAX__)\000"
 12140      5F464153 
 12140      54385F4D 
 12140      41582028 
 12140      5F5F5549 
 12141              	.LASF1151:
 12142 59b9 53595343 		.ascii	"SYSCTL_CLOCK_RESERVED14\000"
 12142      544C5F43 
 12142      4C4F434B 
 12142      5F524553 
 12142      45525645 
 12143              	.LASF31:
 12144 59d1 5F5F5054 		.ascii	"__PTRDIFF_TYPE__ int\000"
 12144      52444946 
 12144      465F5459 
 12144      50455F5F 
 12144      20696E74 
 12145              	.LASF328:
 12146 59e6 5F5F4150 		.ascii	"__APCS_32__ 1\000"
 12146      43535F33 
 12146      325F5F20 
 12146      3100
 12147              	.LASF1212:
 12148 59f4 43686970 		.ascii	"Chip_Clock_EnablePeriphClock\000"
 12148      5F436C6F 
 12148      636B5F45 
 12148      6E61626C 
 12148      65506572 
 12149              	.LASF369:
 12150 5a11 5F5F474E 		.ascii	"__GNU_VISIBLE 0\000"
ARM GAS  /var/folders/z0/6xlwn_996xz3mwq1cgzkbq4r0000gp/T//cc0Pdjko.s 			page 291


 12150      555F5649 
 12150      5349424C 
 12150      45203000 
 12151              	.LASF766:
 12152 5a21 55415254 		.ascii	"UART_IER_MSINT (1 << 3)\000"
 12152      5F494552 
 12152      5F4D5349 
 12152      4E542028 
 12152      31203C3C 
 12153              	.LASF228:
 12154 5a39 5F5F5341 		.ascii	"__SACCUM_IBIT__ 8\000"
 12154      4343554D 
 12154      5F494249 
 12154      545F5F20 
 12154      3800
 12155              	.LASF273:
 12156 5a4b 5F5F4451 		.ascii	"__DQ_FBIT__ 63\000"
 12156      5F464249 
 12156      545F5F20 
 12156      363300
 12157              	.LASF1149:
 12158 5a5a 53595343 		.ascii	"SYSCTL_CLOCK_UART0\000"
 12158      544C5F43 
 12158      4C4F434B 
 12158      5F554152 
 12158      543000
 12159              	.LASF1142:
 12160 5a6d 53595343 		.ascii	"SYSCTL_CLOCK_I2C\000"
 12160      544C5F43 
 12160      4C4F434B 
 12160      5F493243 
 12160      00
 12161              	.LASF61:
 12162 5a7e 5F5F5549 		.ascii	"__UINT_FAST32_TYPE__ unsigned int\000"
 12162      4E545F46 
 12162      41535433 
 12162      325F5459 
 12162      50455F5F 
 12163              	.LASF56:
 12164 5aa0 5F5F494E 		.ascii	"__INT_FAST16_TYPE__ int\000"
 12164      545F4641 
 12164      53543136 
 12164      5F545950 
 12164      455F5F20 
 12165              	.LASF684:
 12166 5ab8 53595343 		.ascii	"SYSCTL_SLPWAKE_ADC_PD (1 << 4)\000"
 12166      544C5F53 
 12166      4C505741 
 12166      4B455F41 
 12166      44435F50 
 12167              	.LASF1050:
 12168 5ad7 43414E5F 		.ascii	"CAN_SDOREQ_HANDLED_NOSEND 2\000"
 12168      53444F52 
 12168      45515F48 
 12168      414E444C 
 12168      45445F4E 
 12169              	.LASF229:
ARM GAS  /var/folders/z0/6xlwn_996xz3mwq1cgzkbq4r0000gp/T//cc0Pdjko.s 			page 292


 12170 5af3 5F5F5341 		.ascii	"__SACCUM_MIN__ (-0X1P7HK-0X1P7HK)\000"
 12170      4343554D 
 12170      5F4D494E 
 12170      5F5F2028 
 12170      2D305831 
 12171              	.LASF1186:
 12172 5b15 72784275 		.ascii	"rxBuff\000"
 12172      666600
 12173              	.LASF52:
 12174 5b1c 5F5F5549 		.ascii	"__UINT_LEAST16_TYPE__ short unsigned int\000"
 12174      4E545F4C 
 12174      45415354 
 12174      31365F54 
 12174      5950455F 
 12175              	.LASF929:
 12176 5b45 4144435F 		.ascii	"ADC_SAMPLE_RATE_CONFIG_MASK (ADC_CR_CLKDIV(0xFF) | "
 12176      53414D50 
 12176      4C455F52 
 12176      4154455F 
 12176      434F4E46 
 12177 5b78 4144435F 		.ascii	"ADC_CR_BITACC(0x07))\000"
 12177      43525F42 
 12177      49544143 
 12177      43283078 
 12177      30372929 
 12178              	.LASF1114:
 12179 5b8d 52455345 		.ascii	"RESERVED10\000"
 12179      52564544 
 12179      313000
 12180              	.LASF1117:
 12181 5b98 52455345 		.ascii	"RESERVED11\000"
 12181      52564544 
 12181      313100
 12182              	.LASF1123:
 12183 5ba3 52455345 		.ascii	"RESERVED12\000"
 12183      52564544 
 12183      313200
 12184              	.LASF1128:
 12185 5bae 52455345 		.ascii	"RESERVED13\000"
 12185      52564544 
 12185      313300
 12186              	.LASF1130:
 12187 5bb9 52455345 		.ascii	"RESERVED14\000"
 12187      52564544 
 12187      313400
 12188              	.LASF1134:
 12189 5bc4 52455345 		.ascii	"RESERVED15\000"
 12189      52564544 
 12189      313500
 12190              	.LASF901:
 12191 5bcf 5353505F 		.ascii	"SSP_CPHA_FIRST SSP_CR0_CPHA_FIRST\000"
 12191      43504841 
 12191      5F464952 
 12191      53542053 
 12191      53505F43 
 12192              	.LASF285:
 12193 5bf1 5F5F5554 		.ascii	"__UTQ_FBIT__ 128\000"
ARM GAS  /var/folders/z0/6xlwn_996xz3mwq1cgzkbq4r0000gp/T//cc0Pdjko.s 			page 293


 12193      515F4642 
 12193      49545F5F 
 12193      20313238 
 12193      00
 12194              	.LASF750:
 12195 5c02 54494D45 		.ascii	"TIMER_STOP_ON_MATCH(n) (_BIT((((n) * 3) + 2)))\000"
 12195      525F5354 
 12195      4F505F4F 
 12195      4E5F4D41 
 12195      54434828 
 12196              	.LASF1004:
 12197 5c31 4932435F 		.ascii	"I2C_SEND_END 0x08\000"
 12197      53454E44 
 12197      5F454E44 
 12197      20307830 
 12197      3800
 12198              	.LASF997:
 12199 5c43 4932435F 		.ascii	"I2C_SETUP_STATUS_ARBF (1 << 8)\000"
 12199      53455455 
 12199      505F5354 
 12199      41545553 
 12199      5F415242 
 12200              	.LASF261:
 12201 5c62 5F5F4C4C 		.ascii	"__LLACCUM_EPSILON__ 0x1P-31LLK\000"
 12201      41434355 
 12201      4D5F4550 
 12201      53494C4F 
 12201      4E5F5F20 
 12202              	.LASF13:
 12203 5c81 5F5F4649 		.ascii	"__FINITE_MATH_ONLY__ 0\000"
 12203      4E495445 
 12203      5F4D4154 
 12203      485F4F4E 
 12203      4C595F5F 
 12204              	.LASF110:
 12205 5c98 5F5F494E 		.ascii	"__INT_FAST16_MAX__ 0x7fffffff\000"
 12205      545F4641 
 12205      53543136 
 12205      5F4D4158 
 12205      5F5F2030 
 12206              	.LASF388:
 12207 5cb6 5F5F6861 		.ascii	"__have_longlong64 1\000"
 12207      76655F6C 
 12207      6F6E676C 
 12207      6F6E6736 
 12207      34203100 
 12208              	.LASF545:
 12209 5cca 5343425F 		.ascii	"SCB_CPUID_IMPLEMENTER_Pos 24\000"
 12209      43505549 
 12209      445F494D 
 12209      504C454D 
 12209      454E5445 
 12210              	.LASF1095:
 12211 5ce7 53595341 		.ascii	"SYSAHBCLKCTRL\000"
 12211      4842434C 
 12211      4B435452 
 12211      4C00
ARM GAS  /var/folders/z0/6xlwn_996xz3mwq1cgzkbq4r0000gp/T//cc0Pdjko.s 			page 294


 12212              	.LASF1203:
 12213 5cf5 6D457665 		.ascii	"mEvent\000"
 12213      6E7400
 12214              	.LASF17:
 12215 5cfc 5F5F5349 		.ascii	"__SIZEOF_SHORT__ 2\000"
 12215      5A454F46 
 12215      5F53484F 
 12215      52545F5F 
 12215      203200
 12216              	.LASF1082:
 12217 5d0f 49524343 		.ascii	"IRCCTRL\000"
 12217      54524C00 
 12218              	.LASF866:
 12219 5d17 55415254 		.ascii	"UART_SYNCCTRL_SYNC (1 << 0)\000"
 12219      5F53594E 
 12219      43435452 
 12219      4C5F5359 
 12219      4E432028 
 12220              	.LASF431:
 12221 5d33 5F55494E 		.ascii	"_UINTPTR_T_DECLARED \000"
 12221      54505452 
 12221      5F545F44 
 12221      45434C41 
 12221      52454420 
 12222              	.LASF327:
 12223 5d48 5F5F4152 		.ascii	"__ARM_ARCH 6\000"
 12223      4D5F4152 
 12223      43482036 
 12223      00
 12224              	.LASF869:
 12225 5d55 55415254 		.ascii	"UART_SYNCCTRL_TSBYPASS (1 << 3)\000"
 12225      5F53594E 
 12225      43435452 
 12225      4C5F5453 
 12225      42595041 
 12226              	.LASF1001:
 12227 5d75 4932435F 		.ascii	"I2C_BYTE_SENT 0x01\000"
 12227      42595445 
 12227      5F53454E 
 12227      54203078 
 12227      303100
 12228              	.LASF255:
 12229 5d88 5F5F554C 		.ascii	"__ULACCUM_MAX__ 0XFFFFFFFFFFFFFFFFP-32ULK\000"
 12229      41434355 
 12229      4D5F4D41 
 12229      585F5F20 
 12229      30584646 
 12230              	.LASF1191:
 12231 5db2 4932435F 		.ascii	"I2C_ID\000"
 12231      494400
 12232              	.LASF1241:
 12233 5db9 43686970 		.ascii	"Chip_I2C_SetClockRate\000"
 12233      5F493243 
 12233      5F536574 
 12233      436C6F63 
 12233      6B526174 
 12234              	.LASF214:
ARM GAS  /var/folders/z0/6xlwn_996xz3mwq1cgzkbq4r0000gp/T//cc0Pdjko.s 			page 295


 12235 5dcf 5F5F554C 		.ascii	"__ULFRACT_MIN__ 0.0ULR\000"
 12235      46524143 
 12235      545F4D49 
 12235      4E5F5F20 
 12235      302E3055 
 12236              	.LASF1132:
 12237 5de6 50445741 		.ascii	"PDWAKECFG\000"
 12237      4B454346 
 12237      4700
 12238              	.LASF1169:
 12239 5df0 4C50435F 		.ascii	"LPC_I2C_T\000"
 12239      4932435F 
 12239      5400
 12240              	.LASF274:
 12241 5dfa 5F5F4451 		.ascii	"__DQ_IBIT__ 0\000"
 12241      5F494249 
 12241      545F5F20 
 12241      3000
 12242              	.LASF1122:
 12243 5e08 55534243 		.ascii	"USBCLKST\000"
 12243      4C4B5354 
 12243      00
 12244              	.LASF1074:
 12245 5e11 50524553 		.ascii	"PRESETCTRL\000"
 12245      45544354 
 12245      524C00
 12246              	.LASF687:
 12247 5e1c 53595343 		.ascii	"SYSCTL_SLPWAKE_SYSPLL_PD (1 << 7)\000"
 12247      544C5F53 
 12247      4C505741 
 12247      4B455F53 
 12247      5953504C 
 12248              	.LASF714:
 12249 5e3e 494F434F 		.ascii	"IOCON_DIGMODE_EN (0x1 << 7)\000"
 12249      4E5F4449 
 12249      474D4F44 
 12249      455F454E 
 12249      20283078 
 12250              	.LASF547:
 12251 5e5a 5343425F 		.ascii	"SCB_CPUID_VARIANT_Pos 20\000"
 12251      43505549 
 12251      445F5641 
 12251      5249414E 
 12251      545F506F 
 12252              	.LASF679:
 12253 5e73 53595343 		.ascii	"SYSCTL_DEEPSLP_WDTOSC_PD (1 << 6)\000"
 12253      544C5F44 
 12253      45455053 
 12253      4C505F57 
 12253      44544F53 
 12254              	.LASF779:
 12255 5e95 55415254 		.ascii	"UART_IIR_INTID_RLS (3 << 1)\000"
 12255      5F494952 
 12255      5F494E54 
 12255      49445F52 
 12255      4C532028 
 12256              	.LASF1236:
ARM GAS  /var/folders/z0/6xlwn_996xz3mwq1cgzkbq4r0000gp/T//cc0Pdjko.s 			page 296


 12257 5eb1 68616E64 		.ascii	"handleMasterXferState\000"
 12257      6C654D61 
 12257      73746572 
 12257      58666572 
 12257      53746174 
 12258              	.LASF427:
 12259 5ec7 5F494E54 		.ascii	"_INT64_T_DECLARED \000"
 12259      36345F54 
 12259      5F444543 
 12259      4C415245 
 12259      442000
 12260              	.LASF859:
 12261 5eda 55415254 		.ascii	"UART_SCICTRL_TXRETRY(n) ((n & 0x07) << 5)\000"
 12261      5F534349 
 12261      4354524C 
 12261      5F545852 
 12261      45545259 
 12262              	.LASF621:
 12263 5f04 5F534850 		.ascii	"_SHP_IDX(IRQn) ( ((((uint32_t)(IRQn) & 0x0F)-8) >> "
 12263      5F494458 
 12263      28495251 
 12263      6E292028 
 12263      20282828 
 12264 5f37 32292029 		.ascii	"2) )\000"
 12264      00
 12265              	.LASF970:
 12266 5f3c 4932435F 		.ascii	"I2C_I2STAT_S_RX_SLAW_ACK ((0x60))\000"
 12266      49325354 
 12266      41545F53 
 12266      5F52585F 
 12266      534C4157 
 12267              	.LASF648:
 12268 5f5e 4C50435F 		.ascii	"LPC_WWDT ((LPC_WWDT_T *) LPC_WWDT_BASE)\000"
 12268      57574454 
 12268      2028284C 
 12268      50435F57 
 12268      5744545F 
 12269              	.LASF600:
 12270 5f86 53797354 		.ascii	"SysTick_CTRL_TICKINT_Msk (1UL << SysTick_CTRL_TICKI"
 12270      69636B5F 
 12270      4354524C 
 12270      5F544943 
 12270      4B494E54 
 12271 5fb9 4E545F50 		.ascii	"NT_Pos)\000"
 12271      6F732900 
 12272              	.LASF834:
 12273 5fc1 55415254 		.ascii	"UART_MSR_RI (1 << 6)\000"
 12273      5F4D5352 
 12273      5F524920 
 12273      2831203C 
 12273      3C203629 
 12274              	.LASF895:
 12275 5fd6 5353505F 		.ascii	"SSP_CR1_SO_DISABLE ((uint32_t) (1 << 3))\000"
 12275      4352315F 
 12275      534F5F44 
 12275      49534142 
 12275      4C452028 
ARM GAS  /var/folders/z0/6xlwn_996xz3mwq1cgzkbq4r0000gp/T//cc0Pdjko.s 			page 297


 12276              	.LASF617:
 12277 5fff 53434220 		.ascii	"SCB ((SCB_Type *) SCB_BASE )\000"
 12277      28285343 
 12277      425F5479 
 12277      7065202A 
 12277      29205343 
 12278              	.LASF286:
 12279 601c 5F5F5554 		.ascii	"__UTQ_IBIT__ 0\000"
 12279      515F4942 
 12279      49545F5F 
 12279      203000
 12280              	.LASF289:
 12281 602b 5F5F5341 		.ascii	"__SA_FBIT__ 15\000"
 12281      5F464249 
 12281      545F5F20 
 12281      313500
 12282              	.LASF221:
 12283 603a 5F5F4C4C 		.ascii	"__LLFRACT_EPSILON__ 0x1P-63LLR\000"
 12283      46524143 
 12283      545F4550 
 12283      53494C4F 
 12283      4E5F5F20 
 12284              	.LASF1224:
 12285 6059 69734932 		.ascii	"isI2CBusFree\000"
 12285      43427573 
 12285      46726565 
 12285      00
 12286              	.LASF736:
 12287 6066 46554E43 		.ascii	"FUNC2 0x2\000"
 12287      32203078 
 12287      3200
 12288              	.LASF1105:
 12289 6070 57445443 		.ascii	"WDTCLKSEL\000"
 12289      4C4B5345 
 12289      4C00
 12290              	.LASF338:
 12291 607a 5F5F4152 		.ascii	"__ARM_EABI__ 1\000"
 12291      4D5F4541 
 12291      42495F5F 
 12291      203100
 12292              	.LASF1031:
 12293 6089 53444F5F 		.ascii	"SDO_ABORT_READONLY 0x06010002UL\000"
 12293      41424F52 
 12293      545F5245 
 12293      41444F4E 
 12293      4C592030 
 12294              	.LASF839:
 12295 60a9 55415254 		.ascii	"UART_ACR_AUTO_RESTART (1 << 2)\000"
 12295      5F414352 
 12295      5F415554 
 12295      4F5F5245 
 12295      53544152 
 12296              	.LASF340:
 12297 60c8 5F5F454C 		.ascii	"__ELF__ 1\000"
 12297      465F5F20 
 12297      3100
 12298              	.LASF455:
ARM GAS  /var/folders/z0/6xlwn_996xz3mwq1cgzkbq4r0000gp/T//cc0Pdjko.s 			page 298


 12299 60d2 494E5433 		.ascii	"INT32_MIN (-__INT32_MAX__ - 1)\000"
 12299      325F4D49 
 12299      4E20282D 
 12299      5F5F494E 
 12299      5433325F 
 12300              	.LASF332:
 12301 60f1 5F5F5448 		.ascii	"__THUMBEL__ 1\000"
 12301      554D4245 
 12301      4C5F5F20 
 12301      3100
 12302              	.LASF702:
 12303 60ff 494F434F 		.ascii	"IOCON_FUNC3 0x3\000"
 12303      4E5F4655 
 12303      4E433320 
 12303      30783300 
 12304              	.LASF268:
 12305 610f 5F5F5151 		.ascii	"__QQ_IBIT__ 0\000"
 12305      5F494249 
 12305      545F5F20 
 12305      3000
 12306              	.LASF927:
 12307 611d 4144435F 		.ascii	"ADC_CR_START_MCOA2 ((6UL << 24))\000"
 12307      43525F53 
 12307      54415254 
 12307      5F4D434F 
 12307      41322028 
 12308              	.LASF920:
 12309 613e 4144435F 		.ascii	"ADC_CR_START_MASK ((7UL << 24))\000"
 12309      43525F53 
 12309      54415254 
 12309      5F4D4153 
 12309      4B202828 
 12310              	.LASF626:
 12311 615e 4C50435F 		.ascii	"LPC_TIMER16_0_BASE 0x4000C000\000"
 12311      54494D45 
 12311      5231365F 
 12311      305F4241 
 12311      53452030 
 12312              	.LASF498:
 12313 617c 55494E54 		.ascii	"UINT64_C(x) __UINT64_C(x)\000"
 12313      36345F43 
 12313      28782920 
 12313      5F5F5549 
 12313      4E543634 
 12314              	.LASF257:
 12315 6196 5F5F4C4C 		.ascii	"__LLACCUM_FBIT__ 31\000"
 12315      41434355 
 12315      4D5F4642 
 12315      49545F5F 
 12315      20333100 
 12316              	.LASF129:
 12317 61aa 5F5F464C 		.ascii	"__FLT_MAX_10_EXP__ 38\000"
 12317      545F4D41 
 12317      585F3130 
 12317      5F455850 
 12317      5F5F2033 
 12318              	.LASF448:
ARM GAS  /var/folders/z0/6xlwn_996xz3mwq1cgzkbq4r0000gp/T//cc0Pdjko.s 			page 299


 12319 61c0 55494E54 		.ascii	"UINT_LEAST8_MAX (__UINT_LEAST8_MAX__)\000"
 12319      5F4C4541 
 12319      5354385F 
 12319      4D415820 
 12319      285F5F55 
 12320              	.LASF282:
 12321 61e6 5F5F5553 		.ascii	"__USQ_IBIT__ 0\000"
 12321      515F4942 
 12321      49545F5F 
 12321      203000
 12322              	.LASF1052:
 12323 61f5 43414E5F 		.ascii	"CAN_SDOSEG_OPEN 1\000"
 12323      53444F53 
 12323      45475F4F 
 12323      50454E20 
 12323      3100
 12324              	.LASF3:
 12325 6207 5F5F474E 		.ascii	"__GNUC_MINOR__ 4\000"
 12325      55435F4D 
 12325      494E4F52 
 12325      5F5F2034 
 12325      00
 12326              	.LASF53:
 12327 6218 5F5F5549 		.ascii	"__UINT_LEAST32_TYPE__ long unsigned int\000"
 12327      4E545F4C 
 12327      45415354 
 12327      33325F54 
 12327      5950455F 
 12328              	.LASF280:
 12329 6240 5F5F5548 		.ascii	"__UHQ_IBIT__ 0\000"
 12329      515F4942 
 12329      49545F5F 
 12329      203000
 12330              	.LASF1005:
 12331 624f 4932435F 		.ascii	"I2C_RECV_END 0x10\000"
 12331      52454356 
 12331      5F454E44 
 12331      20307831 
 12331      3000
 12332              	.LASF34:
 12333 6261 5F5F494E 		.ascii	"__INTMAX_TYPE__ long long int\000"
 12333      544D4158 
 12333      5F545950 
 12333      455F5F20 
 12333      6C6F6E67 
 12334              	.LASF313:
 12335 627f 5F5F4743 		.ascii	"__GCC_ATOMIC_INT_LOCK_FREE 1\000"
 12335      435F4154 
 12335      4F4D4943 
 12335      5F494E54 
 12335      5F4C4F43 
 12336              	.LASF393:
 12337 629c 73686F72 		.ascii	"short\000"
 12337      7400
 12338              	.LASF1263:
 12339 62a2 2E2E2F2E 		.ascii	"../../lib/lpc11cx4-library/lpc_chip_11cxx_lib/src/i"
 12339      2E2F6C69 
ARM GAS  /var/folders/z0/6xlwn_996xz3mwq1cgzkbq4r0000gp/T//cc0Pdjko.s 			page 300


 12339      622F6C70 
 12339      63313163 
 12339      78342D6C 
 12340 62d5 32635F31 		.ascii	"2c_11xx.c\000"
 12340      3178782E 
 12340      6300
 12341              	.LASF676:
 12342 62df 53595343 		.ascii	"SYSCTL_RST_SYSRST (1 << 4)\000"
 12342      544C5F52 
 12342      53545F53 
 12342      59535253 
 12342      54202831 
 12343              	.LASF966:
 12344 62fa 4932435F 		.ascii	"I2C_I2STAT_M_RX_SLAR_ACK ((0x40))\000"
 12344      49325354 
 12344      41545F4D 
 12344      5F52585F 
 12344      534C4152 
 12345              	.LASF709:
 12346 631c 494F434F 		.ascii	"IOCON_MODE_PULLUP (0x2 << 3)\000"
 12346      4E5F4D4F 
 12346      44455F50 
 12346      554C4C55 
 12346      50202830 
 12347              	.LASF1239:
 12348 6339 43686970 		.ascii	"Chip_I2C_Init\000"
 12348      5F493243 
 12348      5F496E69 
 12348      7400
 12349              	.LASF795:
 12350 6347 55415254 		.ascii	"UART_LCR_WLEN5 (0 << 0)\000"
 12350      5F4C4352 
 12350      5F574C45 
 12350      4E352028 
 12350      30203C3C 
 12351              	.LASF722:
 12352 635f 4D445F50 		.ascii	"MD_PUP (0x2 << 3)\000"
 12352      55502028 
 12352      30783220 
 12352      3C3C2033 
 12352      2900
 12353              	.LASF383:
 12354 6371 5F5F5F69 		.ascii	"___int_least32_t_defined 1\000"
 12354      6E745F6C 
 12354      65617374 
 12354      33325F74 
 12354      5F646566 
 12355              	.LASF236:
 12356 638c 5F5F5553 		.ascii	"__USACCUM_EPSILON__ 0x1P-8UHK\000"
 12356      41434355 
 12356      4D5F4550 
 12356      53494C4F 
 12356      4E5F5F20 
 12357              	.LASF151:
 12358 63aa 5F5F4442 		.ascii	"__DBL_HAS_QUIET_NAN__ 1\000"
 12358      4C5F4841 
 12358      535F5155 
ARM GAS  /var/folders/z0/6xlwn_996xz3mwq1cgzkbq4r0000gp/T//cc0Pdjko.s 			page 301


 12358      4945545F 
 12358      4E414E5F 
 12359              	.LASF509:
 12360 63c2 5F424954 		.ascii	"_BIT\000"
 12360      00
 12361              	.LASF495:
 12362 63c7 494E5433 		.ascii	"INT32_C(x) __INT32_C(x)\000"
 12362      325F4328 
 12362      7829205F 
 12362      5F494E54 
 12362      33325F43 
 12363              	.LASF472:
 12364 63df 55494E54 		.ascii	"UINT_FAST16_MAX (__UINT_FAST16_MAX__)\000"
 12364      5F464153 
 12364      5431365F 
 12364      4D415820 
 12364      285F5F55 
 12365              	.LASF1183:
 12366 6405 736C6176 		.ascii	"slaveAddr\000"
 12366      65416464 
 12366      7200
 12367              	.LASF220:
 12368 640f 5F5F4C4C 		.ascii	"__LLFRACT_MAX__ 0X7FFFFFFFFFFFFFFFP-63LLR\000"
 12368      46524143 
 12368      545F4D41 
 12368      585F5F20 
 12368      30583746 
 12369              	.LASF604:
 12370 6439 53797354 		.ascii	"SysTick_LOAD_RELOAD_Msk (0xFFFFFFUL << SysTick_LOAD"
 12370      69636B5F 
 12370      4C4F4144 
 12370      5F52454C 
 12370      4F41445F 
 12371 646c 5F52454C 		.ascii	"_RELOAD_Pos)\000"
 12371      4F41445F 
 12371      506F7329 
 12371      00
 12372              	.LASF460:
 12373 6479 55494E54 		.ascii	"UINT_LEAST32_MAX (__UINT_LEAST32_MAX__)\000"
 12373      5F4C4541 
 12373      53543332 
 12373      5F4D4158 
 12373      20285F5F 
 12374              	.LASF1202:
 12375 64a1 4932435F 		.ascii	"I2C_EVENTHANDLER_T\000"
 12375      4556454E 
 12375      5448414E 
 12375      444C4552 
 12375      5F5400
 12376              	.LASF697:
 12377 64b4 53595343 		.ascii	"SYSCTL_IRC_FREQ (12000000)\000"
 12377      544C5F49 
 12377      52435F46 
 12377      52455120 
 12377      28313230 
 12378              	.LASF533:
 12379 64cf 5F5F434D 		.ascii	"__CM0_CMSIS_VERSION ((__CM0_CMSIS_VERSION_MAIN << 1"
ARM GAS  /var/folders/z0/6xlwn_996xz3mwq1cgzkbq4r0000gp/T//cc0Pdjko.s 			page 302


 12379      305F434D 
 12379      5349535F 
 12379      56455253 
 12379      494F4E20 
 12380 6502 3629207C 		.ascii	"6) | __CM0_CMSIS_VERSION_SUB )\000"
 12380      205F5F43 
 12380      4D305F43 
 12380      4D534953 
 12380      5F564552 
 12381              	.LASF558:
 12382 6521 5343425F 		.ascii	"SCB_ICSR_PENDSVSET_Msk (1UL << SCB_ICSR_PENDSVSET_P"
 12382      49435352 
 12382      5F50454E 
 12382      44535653 
 12382      45545F4D 
 12383 6554 6F732900 		.ascii	"os)\000"
 12384              	.LASF607:
 12385 6558 53797354 		.ascii	"SysTick_CALIB_NOREF_Pos 31\000"
 12385      69636B5F 
 12385      43414C49 
 12385      425F4E4F 
 12385      5245465F 
 12386              	.LASF230:
 12387 6573 5F5F5341 		.ascii	"__SACCUM_MAX__ 0X7FFFP-7HK\000"
 12387      4343554D 
 12387      5F4D4158 
 12387      5F5F2030 
 12387      58374646 
 12388              	.LASF63:
 12389 658e 5F5F494E 		.ascii	"__INTPTR_TYPE__ int\000"
 12389      54505452 
 12389      5F545950 
 12389      455F5F20 
 12389      696E7400 
 12390              	.LASF36:
 12391 65a2 5F5F4348 		.ascii	"__CHAR16_TYPE__ short unsigned int\000"
 12391      41523136 
 12391      5F545950 
 12391      455F5F20 
 12391      73686F72 
 12392              	.LASF64:
 12393 65c5 5F5F5549 		.ascii	"__UINTPTR_TYPE__ unsigned int\000"
 12393      4E545054 
 12393      525F5459 
 12393      50455F5F 
 12393      20756E73 
 12394              	.LASF862:
 12395 65e3 55415254 		.ascii	"UART_FDR_MULVAL(n) ((n << 4) & 0xF0)\000"
 12395      5F464452 
 12395      5F4D554C 
 12395      56414C28 
 12395      6E292028 
 12396              	.LASF602:
 12397 6608 53797354 		.ascii	"SysTick_CTRL_ENABLE_Msk (1UL << SysTick_CTRL_ENABLE"
 12397      69636B5F 
 12397      4354524C 
 12397      5F454E41 
ARM GAS  /var/folders/z0/6xlwn_996xz3mwq1cgzkbq4r0000gp/T//cc0Pdjko.s 			page 303


 12397      424C455F 
 12398 663b 5F506F73 		.ascii	"_Pos)\000"
 12398      2900
 12399              	.LASF303:
 12400 6641 5F5F5245 		.ascii	"__REGISTER_PREFIX__ \000"
 12400      47495354 
 12400      45525F50 
 12400      52454649 
 12400      585F5F20 
 12401              	.LASF186:
 12402 6656 5F5F4445 		.ascii	"__DEC128_SUBNORMAL_MIN__ 0.000000000000000000000000"
 12402      43313238 
 12402      5F535542 
 12402      4E4F524D 
 12402      414C5F4D 
 12403 6689 30303030 		.ascii	"000000001E-6143DL\000"
 12403      30303030 
 12403      31452D36 
 12403      31343344 
 12403      4C00
 12404              	.LASF1083:
 12405 669b 4C464F53 		.ascii	"LFOSCCTRL\000"
 12405      43435452 
 12405      4C00
 12406              	.LASF216:
 12407 66a5 5F5F554C 		.ascii	"__ULFRACT_EPSILON__ 0x1P-32ULR\000"
 12407      46524143 
 12407      545F4550 
 12407      53494C4F 
 12407      4E5F5F20 
 12408              	.LASF1049:
 12409 66c4 43414E5F 		.ascii	"CAN_SDOREQ_HANDLED_SEND 1\000"
 12409      53444F52 
 12409      45515F48 
 12409      414E444C 
 12409      45445F53 
 12410              	.LASF336:
 12411 66de 5F5F4152 		.ascii	"__ARM_ARCH_6M__ 1\000"
 12411      4D5F4152 
 12411      43485F36 
 12411      4D5F5F20 
 12411      3100
 12412              	.LASF21:
 12413 66f0 5F5F5349 		.ascii	"__SIZEOF_SIZE_T__ 4\000"
 12413      5A454F46 
 12413      5F53495A 
 12413      455F545F 
 12413      5F203400 
 12414              	.LASF1181:
 12415 6704 4932435F 		.ascii	"I2C_STATUS_BUSY\000"
 12415      53544154 
 12415      55535F42 
 12415      55535900 
 12416              	.LASF874:
 12417 6714 57574454 		.ascii	"WWDT_WDMOD_BITMASK ((uint32_t) 0x1F)\000"
 12417      5F57444D 
 12417      4F445F42 
ARM GAS  /var/folders/z0/6xlwn_996xz3mwq1cgzkbq4r0000gp/T//cc0Pdjko.s 			page 304


 12417      49544D41 
 12417      534B2028 
 12418              	.LASF46:
 12419 6739 5F5F5549 		.ascii	"__UINT64_TYPE__ long long unsigned int\000"
 12419      4E543634 
 12419      5F545950 
 12419      455F5F20 
 12419      6C6F6E67 
 12420              	.LASF183:
 12421 6760 5F5F4445 		.ascii	"__DEC128_MIN__ 1E-6143DL\000"
 12421      43313238 
 12421      5F4D494E 
 12421      5F5F2031 
 12421      452D3631 
 12422              	.LASF100:
 12423 6779 5F5F494E 		.ascii	"__INT64_C(c) c ## LL\000"
 12423      5436345F 
 12423      43286329 
 12423      20632023 
 12423      23204C4C 
 12424              	.LASF248:
 12425 678e 5F5F4C41 		.ascii	"__LACCUM_IBIT__ 32\000"
 12425      4343554D 
 12425      5F494249 
 12425      545F5F20 
 12425      333200
 12426              	.LASF1135:
 12427 67a1 44455649 		.ascii	"DEVICEID\000"
 12427      43454944 
 12427      00
 12428              	.LASF458:
 12429 67aa 494E545F 		.ascii	"INT_LEAST32_MIN (-__INT_LEAST32_MAX__ - 1)\000"
 12429      4C454153 
 12429      5433325F 
 12429      4D494E20 
 12429      282D5F5F 
 12430              	.LASF716:
 12431 67d5 494F434F 		.ascii	"IOCON_STDI2C_EN (0x1 << 8)\000"
 12431      4E5F5354 
 12431      44493243 
 12431      5F454E20 
 12431      28307831 
 12432              	.LASF501:
 12433 67f0 5F474343 		.ascii	"_GCC_WRAP_STDINT_H \000"
 12433      5F575241 
 12433      505F5354 
 12433      44494E54 
 12433      5F482000 
 12434              	.LASF992:
 12435 6804 4932435F 		.ascii	"I2C_I2ADR_GC ((1 << 0))\000"
 12435      49324144 
 12435      525F4743 
 12435      20282831 
 12435      203C3C20 
 12436              	.LASF1109:
 12437 681c 434C4B4F 		.ascii	"CLKOUTSEL\000"
 12437      55545345 
ARM GAS  /var/folders/z0/6xlwn_996xz3mwq1cgzkbq4r0000gp/T//cc0Pdjko.s 			page 305


 12437      4C00
 12438              	.LASF160:
 12439 6826 5F5F4C44 		.ascii	"__LDBL_MIN__ 2.2250738585072014e-308L\000"
 12439      424C5F4D 
 12439      494E5F5F 
 12439      20322E32 
 12439      32353037 
 12440              	.LASF238:
 12441 684c 5F5F4143 		.ascii	"__ACCUM_IBIT__ 16\000"
 12441      43554D5F 
 12441      49424954 
 12441      5F5F2031 
 12441      3600
 12442              	.LASF1020:
 12443 685e 43414E5F 		.ascii	"CAN_ERROR_BIT0 0x00000080UL\000"
 12443      4552524F 
 12443      525F4249 
 12443      54302030 
 12443      78303030 
 12444              	.LASF355:
 12445 687a 5F5F4E45 		.ascii	"__NEWLIB_MINOR__ 4\000"
 12445      574C4942 
 12445      5F4D494E 
 12445      4F525F5F 
 12445      203400
 12446              	.LASF1168:
 12447 688d 4D41534B 		.ascii	"MASK\000"
 12447      00
 12448              	.LASF838:
 12449 6892 55415254 		.ascii	"UART_ACR_MODE (1 << 1)\000"
 12449      5F414352 
 12449      5F4D4F44 
 12449      45202831 
 12449      203C3C20 
 12450              	.LASF1060:
 12451 68a9 73686F72 		.ascii	"short int\000"
 12451      7420696E 
 12451      7400
 12452              	.LASF717:
 12453 68b3 494F434F 		.ascii	"IOCON_FASTI2C_EN (0x2 << 8)\000"
 12453      4E5F4641 
 12453      53544932 
 12453      435F454E 
 12453      20283078 
 12454              	.LASF593:
 12455 68cf 5343425F 		.ascii	"SCB_SHCSR_SVCALLPENDED_Pos 15\000"
 12455      53484353 
 12455      525F5356 
 12455      43414C4C 
 12455      50454E44 
 12456              	.LASF707:
 12457 68ed 494F434F 		.ascii	"IOCON_MODE_INACT (0x0 << 3)\000"
 12457      4E5F4D4F 
 12457      44455F49 
 12457      4E414354 
 12457      20283078 
 12458              	.LASF787:
ARM GAS  /var/folders/z0/6xlwn_996xz3mwq1cgzkbq4r0000gp/T//cc0Pdjko.s 			page 306


 12459 6909 55415254 		.ascii	"UART_FCR_DMAMODE_SEL (1 << 3)\000"
 12459      5F464352 
 12459      5F444D41 
 12459      4D4F4445 
 12459      5F53454C 
 12460              	.LASF202:
 12461 6927 5F5F5546 		.ascii	"__UFRACT_FBIT__ 16\000"
 12461      52414354 
 12461      5F464249 
 12461      545F5F20 
 12461      313600
 12462              	.LASF104:
 12463 693a 5F5F5549 		.ascii	"__UINT16_C(c) c\000"
 12463      4E543136 
 12463      5F432863 
 12463      29206300 
 12464              	.LASF520:
 12465 694a 4D415828 		.ascii	"MAX(a,b) (((a) > (b)) ? (a) : (b))\000"
 12465      612C6229 
 12465      20282828 
 12465      6129203E 
 12465      20286229 
 12466              	.LASF322:
 12467 696d 5F5F5349 		.ascii	"__SIZEOF_PTRDIFF_T__ 4\000"
 12467      5A454F46 
 12467      5F505452 
 12467      44494646 
 12467      5F545F5F 
 12468              	.LASF114:
 12469 6984 5F5F5549 		.ascii	"__UINT_FAST16_MAX__ 0xffffffffU\000"
 12469      4E545F46 
 12469      41535431 
 12469      365F4D41 
 12469      585F5F20 
 12470              	.LASF414:
 12471 69a4 5F5F4C45 		.ascii	"__LEAST16 \"h\"\000"
 12471      41535431 
 12471      36202268 
 12471      2200
 12472              	.LASF954:
 12473 69b2 4932435F 		.ascii	"I2C_I2STAT_NO_INF ((0xF8))\000"
 12473      49325354 
 12473      41545F4E 
 12473      4F5F494E 
 12473      46202828 
 12474              	.LASF461:
 12475 69cd 494E5436 		.ascii	"INT64_MIN (-__INT64_MAX__ - 1)\000"
 12475      345F4D49 
 12475      4E20282D 
 12475      5F5F494E 
 12475      5436345F 
 12476              	.LASF6:
 12477 69ec 5F5F4154 		.ascii	"__ATOMIC_RELAXED 0\000"
 12477      4F4D4943 
 12477      5F52454C 
 12477      41584544 
 12477      203000
ARM GAS  /var/folders/z0/6xlwn_996xz3mwq1cgzkbq4r0000gp/T//cc0Pdjko.s 			page 307


 12478              	.LASF785:
 12479 69ff 55415254 		.ascii	"UART_FCR_RX_RS (1 << 1)\000"
 12479      5F464352 
 12479      5F52585F 
 12479      52532028 
 12479      31203C3C 
 12480              	.LASF670:
 12481 6a17 5F5F464D 		.ascii	"__FMC_11XX_H_ \000"
 12481      435F3131 
 12481      58585F48 
 12481      5F2000
 12482              	.LASF767:
 12483 6a26 55415254 		.ascii	"UART_IER_CTSINT (1 << 7)\000"
 12483      5F494552 
 12483      5F435453 
 12483      494E5420 
 12483      2831203C 
 12484              	.LASF150:
 12485 6a3f 5F5F4442 		.ascii	"__DBL_HAS_INFINITY__ 1\000"
 12485      4C5F4841 
 12485      535F494E 
 12485      46494E49 
 12485      54595F5F 
 12486              	.LASF666:
 12487 6a56 504D555F 		.ascii	"PMU_PCON_PM_SLEEP (0x0)\000"
 12487      50434F4E 
 12487      5F504D5F 
 12487      534C4545 
 12487      50202830 
 12488              	.LASF83:
 12489 6a6e 5F5F5349 		.ascii	"__SIG_ATOMIC_MAX__ 0x7fffffff\000"
 12489      475F4154 
 12489      4F4D4943 
 12489      5F4D4158 
 12489      5F5F2030 
 12490              	.LASF463:
 12491 6a8c 55494E54 		.ascii	"UINT64_MAX (__UINT64_MAX__)\000"
 12491      36345F4D 
 12491      41582028 
 12491      5F5F5549 
 12491      4E543634 
 12492              	.LASF936:
 12493 6aa8 4932435F 		.ascii	"I2C_STA_STO_RECV 0x20\000"
 12493      5354415F 
 12493      53544F5F 
 12493      52454356 
 12493      20307832 
 12494              	.LASF805:
 12495 6abe 55415254 		.ascii	"UART_LCR_PARITY_EVEN (1 << 4)\000"
 12495      5F4C4352 
 12495      5F504152 
 12495      4954595F 
 12495      4556454E 
 12496              	.LASF1125:
 12497 6adc 53544152 		.ascii	"STARTERP0\000"
 12497      54455250 
 12497      3000
ARM GAS  /var/folders/z0/6xlwn_996xz3mwq1cgzkbq4r0000gp/T//cc0Pdjko.s 			page 308


 12498              	.LASF1129:
 12499 6ae6 53544152 		.ascii	"STARTERP1\000"
 12499      54455250 
 12499      3100
 12500              	.LASF544:
 12501 6af0 5F5F494F 		.ascii	"__IO volatile\000"
 12501      20766F6C 
 12501      6174696C 
 12501      6500
 12502              	.LASF721:
 12503 6afe 4D445F50 		.ascii	"MD_PDN (0x1 << 3)\000"
 12503      444E2028 
 12503      30783120 
 12503      3C3C2033 
 12503      2900
 12504              	.LASF769:
 12505 6b10 55415254 		.ascii	"UART_IER_ABTOINT (1 << 9)\000"
 12505      5F494552 
 12505      5F414254 
 12505      4F494E54 
 12505      20283120 
 12506              	.LASF18:
 12507 6b2a 5F5F5349 		.ascii	"__SIZEOF_FLOAT__ 4\000"
 12507      5A454F46 
 12507      5F464C4F 
 12507      41545F5F 
 12507      203400
 12508              	.LASF492:
 12509 6b3d 55494E54 		.ascii	"UINT8_C(x) __UINT8_C(x)\000"
 12509      385F4328 
 12509      7829205F 
 12509      5F55494E 
 12509      54385F43 
 12510              	.LASF176:
 12511 6b55 5F5F4445 		.ascii	"__DEC64_MIN__ 1E-383DD\000"
 12511      4336345F 
 12511      4D494E5F 
 12511      5F203145 
 12511      2D333833 
 12512              	.LASF618:
 12513 6b6c 53797354 		.ascii	"SysTick ((SysTick_Type *) SysTick_BASE )\000"
 12513      69636B20 
 12513      28285379 
 12513      73546963 
 12513      6B5F5479 
 12514              	.LASF215:
 12515 6b95 5F5F554C 		.ascii	"__ULFRACT_MAX__ 0XFFFFFFFFP-32ULR\000"
 12515      46524143 
 12515      545F4D41 
 12515      585F5F20 
 12515      30584646 
 12516              	.LASF144:
 12517 6bb7 5F5F4442 		.ascii	"__DBL_DECIMAL_DIG__ 17\000"
 12517      4C5F4445 
 12517      43494D41 
 12517      4C5F4449 
 12517      475F5F20 
ARM GAS  /var/folders/z0/6xlwn_996xz3mwq1cgzkbq4r0000gp/T//cc0Pdjko.s 			page 309


 12518              	.LASF559:
 12519 6bce 5343425F 		.ascii	"SCB_ICSR_PENDSVCLR_Pos 27\000"
 12519      49435352 
 12519      5F50454E 
 12519      44535643 
 12519      4C525F50 
 12520              	.LASF389:
 12521 6be8 5F5F6861 		.ascii	"__have_long32 1\000"
 12521      76655F6C 
 12521      6F6E6733 
 12521      32203100 
 12522              	.LASF446:
 12523 6bf8 494E545F 		.ascii	"INT_LEAST8_MIN (-__INT_LEAST8_MAX__ - 1)\000"
 12523      4C454153 
 12523      54385F4D 
 12523      494E2028 
 12523      2D5F5F49 
 12524              	.LASF252:
 12525 6c21 5F5F554C 		.ascii	"__ULACCUM_FBIT__ 32\000"
 12525      41434355 
 12525      4D5F4642 
 12525      49545F5F 
 12525      20333200 
 12526              	.LASF577:
 12527 6c35 5343425F 		.ascii	"SCB_AIRCR_ENDIANESS_Pos 15\000"
 12527      41495243 
 12527      525F454E 
 12527      4449414E 
 12527      4553535F 
 12528              	.LASF686:
 12529 6c50 53595343 		.ascii	"SYSCTL_SLPWAKE_WDTOSC_PD (1 << 6)\000"
 12529      544C5F53 
 12529      4C505741 
 12529      4B455F57 
 12529      44544F53 
 12530              	.LASF692:
 12531 6c72 53595343 		.ascii	"SYSCTL_POWERDOWN_ADC_PD (1 << 4)\000"
 12531      544C5F50 
 12531      4F574552 
 12531      444F574E 
 12531      5F414443 
 12532              	.LASF429:
 12533 6c93 5F5F696E 		.ascii	"__int64_t_defined 1\000"
 12533      7436345F 
 12533      745F6465 
 12533      66696E65 
 12533      64203100 
 12534              	.LASF86:
 12535 6ca7 5F5F494E 		.ascii	"__INT16_MAX__ 0x7fff\000"
 12535      5431365F 
 12535      4D41585F 
 12535      5F203078 
 12535      37666666 
 12536              	.LASF756:
 12537 6cbc 52425F56 		.ascii	"RB_VHEAD(rb) ((volatile uint32_t)(rb->head))\000"
 12537      48454144 
 12537      28726229 
ARM GAS  /var/folders/z0/6xlwn_996xz3mwq1cgzkbq4r0000gp/T//cc0Pdjko.s 			page 310


 12537      20282876 
 12537      6F6C6174 
 12538              	.LASF899:
 12539 6ce9 5353505F 		.ascii	"SSP_SR_BITMASK ((uint32_t) (0x1F))\000"
 12539      53525F42 
 12539      49544D41 
 12539      534B2028 
 12539      2875696E 
 12540              	.LASF542:
 12541 6d0c 5F5F4920 		.ascii	"__I volatile const\000"
 12541      766F6C61 
 12541      74696C65 
 12541      20636F6E 
 12541      737400
 12542              	.LASF863:
 12543 6d1f 55415254 		.ascii	"UART_FDR_BITMASK (0xFF)\000"
 12543      5F464452 
 12543      5F424954 
 12543      4D41534B 
 12543      20283078 
 12544              	.LASF640:
 12545 6d37 4C50435F 		.ascii	"LPC_SSP1_BASE 0x40058000\000"
 12545      53535031 
 12545      5F424153 
 12545      45203078 
 12545      34303035 
 12546              	.LASF409:
 12547 6d50 5F5F4641 		.ascii	"__FAST8 \000"
 12547      53543820 
 12547      00
 12548              	.LASF1119:
 12549 6d59 4E4D4953 		.ascii	"NMISRC\000"
 12549      524300
 12550              	.LASF651:
 12551 6d60 4C50435F 		.ascii	"LPC_TIMER16_1 ((LPC_TIMER_T *) LPC_TIMER16_1_BASE)\000"
 12551      54494D45 
 12551      5231365F 
 12551      31202828 
 12551      4C50435F 
 12552              	.LASF267:
 12553 6d93 5F5F5151 		.ascii	"__QQ_FBIT__ 7\000"
 12553      5F464249 
 12553      545F5F20 
 12553      3700
 12554              	.LASF1006:
 12555 6da1 4932435F 		.ascii	"I2C_ERR (0x10000000)\000"
 12555      45525220 
 12555      28307831 
 12555      30303030 
 12555      30303029 
 12556              	.LASF986:
 12557 6db6 4932435F 		.ascii	"I2C_I2DAT_IDLE_CHAR (0xFF)\000"
 12557      49324441 
 12557      545F4944 
 12557      4C455F43 
 12557      48415220 
 12558              	.LASF915:
ARM GAS  /var/folders/z0/6xlwn_996xz3mwq1cgzkbq4r0000gp/T//cc0Pdjko.s 			page 311


 12559 6dd1 4144435F 		.ascii	"ADC_DR_OVERRUN(n) ((((n) >> 30) & (1UL)))\000"
 12559      44525F4F 
 12559      56455252 
 12559      554E286E 
 12559      29202828 
 12560              	.LASF589:
 12561 6dfb 5343425F 		.ascii	"SCB_CCR_STKALIGN_Pos 9\000"
 12561      4343525F 
 12561      53544B41 
 12561      4C49474E 
 12561      5F506F73 
 12562              	.LASF931:
 12563 6e12 5F5F4932 		.ascii	"__I2C_11XX_H_ \000"
 12563      435F3131 
 12563      58585F48 
 12563      5F2000
 12564              	.LASF824:
 12565 6e21 55415254 		.ascii	"UART_LSR_RXFE (1 << 7)\000"
 12565      5F4C5352 
 12565      5F525846 
 12565      45202831 
 12565      203C3C20 
 12566              	.LASF358:
 12567 6e38 5F5F474E 		.ascii	"__GNUC_PREREQ__(ma,mi) __GNUC_PREREQ(ma, mi)\000"
 12567      55435F50 
 12567      52455245 
 12567      515F5F28 
 12567      6D612C6D 
 12568              	.LASF625:
 12569 6e65 4C50435F 		.ascii	"LPC_USART_BASE 0x40008000\000"
 12569      55534152 
 12569      545F4241 
 12569      53452030 
 12569      78343030 
 12570              	.LASF1178:
 12571 6e7f 4932435F 		.ascii	"I2C_STATUS_NAK\000"
 12571      53544154 
 12571      55535F4E 
 12571      414B00
 12572              	.LASF302:
 12573 6e8e 5F5F5554 		.ascii	"__UTA_IBIT__ 64\000"
 12573      415F4942 
 12573      49545F5F 
 12573      20363400 
 12574              	.LASF263:
 12575 6e9e 5F5F554C 		.ascii	"__ULLACCUM_IBIT__ 32\000"
 12575      4C414343 
 12575      554D5F49 
 12575      4249545F 
 12575      5F203332 
 12576              	.LASF538:
 12577 6eb3 5F5F4650 		.ascii	"__FPU_USED 0\000"
 12577      555F5553 
 12577      45442030 
 12577      00
 12578              	.LASF516:
 12579 6ec0 4E454C45 		.ascii	"NELEMENTS(array) (sizeof(array) / sizeof(array[0]))"
ARM GAS  /var/folders/z0/6xlwn_996xz3mwq1cgzkbq4r0000gp/T//cc0Pdjko.s 			page 312


 12579      4D454E54 
 12579      53286172 
 12579      72617929 
 12579      20287369 
 12580 6ef3 00       		.ascii	"\000"
 12581              	.LASF780:
 12582 6ef4 55415254 		.ascii	"UART_IIR_INTID_RDA (2 << 1)\000"
 12582      5F494952 
 12582      5F494E54 
 12582      49445F52 
 12582      44412028 
 12583              	.LASF226:
 12584 6f10 5F5F554C 		.ascii	"__ULLFRACT_EPSILON__ 0x1P-64ULLR\000"
 12584      4C465241 
 12584      43545F45 
 12584      5053494C 
 12584      4F4E5F5F 
 12585              	.LASF1107:
 12586 6f31 57445443 		.ascii	"WDTCLKDIV\000"
 12586      4C4B4449 
 12586      5600
 12587              	.LASF532:
 12588 6f3b 5F5F434D 		.ascii	"__CM0_CMSIS_VERSION_SUB (0x01)\000"
 12588      305F434D 
 12588      5349535F 
 12588      56455253 
 12588      494F4E5F 
 12589              	.LASF321:
 12590 6f5a 5F5F5349 		.ascii	"__SIZEOF_WINT_T__ 4\000"
 12590      5A454F46 
 12590      5F57494E 
 12590      545F545F 
 12590      5F203400 
 12591              	.LASF669:
 12592 6f6e 504D555F 		.ascii	"PMU_PCON_DPDFLAG (1 << 11)\000"
 12592      50434F4E 
 12592      5F445044 
 12592      464C4147 
 12592      20283120 
 12593              	.LASF97:
 12594 6f89 5F5F494E 		.ascii	"__INT_LEAST32_MAX__ 0x7fffffffL\000"
 12594      545F4C45 
 12594      41535433 
 12594      325F4D41 
 12594      585F5F20 
 12595              	.LASF219:
 12596 6fa9 5F5F4C4C 		.ascii	"__LLFRACT_MIN__ (-0.5LLR-0.5LLR)\000"
 12596      46524143 
 12596      545F4D49 
 12596      4E5F5F20 
 12596      282D302E 
 12597              	.LASF1077:
 12598 6fca 55534250 		.ascii	"USBPLLCTRL\000"
 12598      4C4C4354 
 12598      524C00
 12599              	.LASF1126:
 12600 6fd5 53544152 		.ascii	"STARTRSRP0CLR\000"
ARM GAS  /var/folders/z0/6xlwn_996xz3mwq1cgzkbq4r0000gp/T//cc0Pdjko.s 			page 313


 12600      54525352 
 12600      5030434C 
 12600      5200
 12601              	.LASF1076:
 12602 6fe3 53595350 		.ascii	"SYSPLLSTAT\000"
 12602      4C4C5354 
 12602      415400
 12603              	.LASF249:
 12604 6fee 5F5F4C41 		.ascii	"__LACCUM_MIN__ (-0X1P31LK-0X1P31LK)\000"
 12604      4343554D 
 12604      5F4D494E 
 12604      5F5F2028 
 12604      2D305831 
 12605              	.LASF645:
 12606 7012 4941505F 		.ascii	"IAP_ENTRY_LOCATION 0X1FFF1FF1\000"
 12606      454E5452 
 12606      595F4C4F 
 12606      43415449 
 12606      4F4E2030 
 12607              	.LASF109:
 12608 7030 5F5F494E 		.ascii	"__INT_FAST8_MAX__ 0x7fffffff\000"
 12608      545F4641 
 12608      5354385F 
 12608      4D41585F 
 12608      5F203078 
 12609              	.LASF733:
 12610 704d 4D445F4F 		.ascii	"MD_OPENDRAIN (0x1 << 10)\000"
 12610      50454E44 
 12610      5241494E 
 12610      20283078 
 12610      31203C3C 
 12611              	.LASF148:
 12612 7066 5F5F4442 		.ascii	"__DBL_DENORM_MIN__ ((double)4.9406564584124654e-324"
 12612      4C5F4445 
 12612      4E4F524D 
 12612      5F4D494E 
 12612      5F5F2028 
 12613 7099 4C2900   		.ascii	"L)\000"
 12614              	.LASF1097:
 12615 709c 53535030 		.ascii	"SSP0CLKDIV\000"
 12615      434C4B44 
 12615      495600
 12616              	.LASF418:
 12617 70a7 5F494E54 		.ascii	"_INT8_T_DECLARED \000"
 12617      385F545F 
 12617      4445434C 
 12617      41524544 
 12617      2000
 12618              	.LASF1053:
 12619 70b9 43414E5F 		.ascii	"CAN_SDOSEG_CLOSE 2\000"
 12619      53444F53 
 12619      45475F43 
 12619      4C4F5345 
 12619      203200
 12620              	.LASF631:
 12621 70cc 4C50435F 		.ascii	"LPC_DAC_BASE 0x40024000\000"
 12621      4441435F 
ARM GAS  /var/folders/z0/6xlwn_996xz3mwq1cgzkbq4r0000gp/T//cc0Pdjko.s 			page 314


 12621      42415345 
 12621      20307834 
 12621      30303234 
 12622              	.LASF407:
 12623 70e4 5F5F494E 		.ascii	"__INT32 \"l\"\000"
 12623      54333220 
 12623      226C2200 
 12624              	.LASF573:
 12625 70f0 5343425F 		.ascii	"SCB_AIRCR_VECTKEY_Pos 16\000"
 12625      41495243 
 12625      525F5645 
 12625      43544B45 
 12625      595F506F 
 12626              	.LASF514:
 12627 7109 5F424954 		.ascii	"_BITMASK(field_width) ( _BIT(field_width) - 1)\000"
 12627      4D41534B 
 12627      28666965 
 12627      6C645F77 
 12627      69647468 
 12628              	.LASF675:
 12629 7138 53595343 		.ascii	"SYSCTL_RST_BOD (1 << 3)\000"
 12629      544C5F52 
 12629      53545F42 
 12629      4F442028 
 12629      31203C3C 
 12630              	.LASF671:
 12631 7150 5F5F5359 		.ascii	"__SYSCTL_11XX_H_ \000"
 12631      5343544C 
 12631      5F313158 
 12631      585F485F 
 12631      2000
 12632              	.LASF45:
 12633 7162 5F5F5549 		.ascii	"__UINT32_TYPE__ long unsigned int\000"
 12633      4E543332 
 12633      5F545950 
 12633      455F5F20 
 12633      6C6F6E67 
 12634              	.LASF343:
 12635 7184 434F5245 		.ascii	"CORE_M0 1\000"
 12635      5F4D3020 
 12635      3100
 12636              	.LASF888:
 12637 718e 5353505F 		.ascii	"SSP_CR0_CPHA_SECOND ((uint32_t) (1 << 7))\000"
 12637      4352305F 
 12637      43504841 
 12637      5F534543 
 12637      4F4E4420 
 12638              	.LASF742:
 12639 71b8 5F5F5449 		.ascii	"__TIMER_11XX_H_ \000"
 12639      4D45525F 
 12639      31315858 
 12639      5F485F20 
 12639      00
 12640              	.LASF359:
 12641 71c9 5F444546 		.ascii	"_DEFAULT_SOURCE\000"
 12641      41554C54 
 12641      5F534F55 
ARM GAS  /var/folders/z0/6xlwn_996xz3mwq1cgzkbq4r0000gp/T//cc0Pdjko.s 			page 315


 12641      52434500 
 12642              	.LASF688:
 12643 71d9 53595343 		.ascii	"SYSCTL_POWERDOWN_IRCOUT_PD (1 << 0)\000"
 12643      544C5F50 
 12643      4F574552 
 12643      444F574E 
 12643      5F495243 
 12644              	.LASF734:
 12645 71fd 46554E43 		.ascii	"FUNC0 0x0\000"
 12645      30203078 
 12645      3000
 12646              	.LASF1027:
 12647 7207 53444F5F 		.ascii	"SDO_ABORT_SDOTIMEOUT 0x05040000UL\000"
 12647      41424F52 
 12647      545F5344 
 12647      4F54494D 
 12647      454F5554 
 12648              	.LASF829:
 12649 7229 55415254 		.ascii	"UART_MSR_DELTA_DSR (1 << 1)\000"
 12649      5F4D5352 
 12649      5F44454C 
 12649      54415F44 
 12649      53522028 
 12650              	.LASF224:
 12651 7245 5F5F554C 		.ascii	"__ULLFRACT_MIN__ 0.0ULLR\000"
 12651      4C465241 
 12651      43545F4D 
 12651      494E5F5F 
 12651      20302E30 
 12652              	.LASF502:
 12653 725e 5F535444 		.ascii	"_STDBOOL_H \000"
 12653      424F4F4C 
 12653      5F482000 
 12654              	.LASF680:
 12655 726a 53595343 		.ascii	"SYSCTL_SLPWAKE_IRCOUT_PD (1 << 0)\000"
 12655      544C5F53 
 12655      4C505741 
 12655      4B455F49 
 12655      52434F55 
 12656              	.LASF540:
 12657 728c 5F5F434F 		.ascii	"__CORE_CMFUNC_H \000"
 12657      52455F43 
 12657      4D46554E 
 12657      435F4820 
 12657      00
 12658              	.LASF284:
 12659 729d 5F5F5544 		.ascii	"__UDQ_IBIT__ 0\000"
 12659      515F4942 
 12659      49545F5F 
 12659      203000
 12660              	.LASF14:
 12661 72ac 5F5F5349 		.ascii	"__SIZEOF_INT__ 4\000"
 12661      5A454F46 
 12661      5F494E54 
 12661      5F5F2034 
 12661      00
 12662              	.LASF218:
ARM GAS  /var/folders/z0/6xlwn_996xz3mwq1cgzkbq4r0000gp/T//cc0Pdjko.s 			page 316


 12663 72bd 5F5F4C4C 		.ascii	"__LLFRACT_IBIT__ 0\000"
 12663      46524143 
 12663      545F4942 
 12663      49545F5F 
 12663      203000
 12664              	.LASF494:
 12665 72d0 55494E54 		.ascii	"UINT16_C(x) __UINT16_C(x)\000"
 12665      31365F43 
 12665      28782920 
 12665      5F5F5549 
 12665      4E543136 
 12666              	.LASF983:
 12667 72ea 4932435F 		.ascii	"I2C_I2STAT_S_TX_LAST_DAT_ACK ((0xC8))\000"
 12667      49325354 
 12667      41545F53 
 12667      5F54585F 
 12667      4C415354 
 12668              	.LASF1144:
 12669 7310 53595343 		.ascii	"SYSCTL_CLOCK_CT16B0\000"
 12669      544C5F43 
 12669      4C4F434B 
 12669      5F435431 
 12669      36423000 
 12670              	.LASF1070:
 12671 7324 75696E74 		.ascii	"uint32_t\000"
 12671      33325F74 
 12671      00
 12672              	.LASF857:
 12673 732d 55415254 		.ascii	"UART_SCICTRL_NACKDIS (1 << 1)\000"
 12673      5F534349 
 12673      4354524C 
 12673      5F4E4143 
 12673      4B444953 
 12674              	.LASF386:
 12675 734b 5F535953 		.ascii	"_SYS__INTSUP_H \000"
 12675      5F5F494E 
 12675      54535550 
 12675      5F482000 
 12676              	.LASF1127:
 12677 735b 53544152 		.ascii	"STARTSRP0\000"
 12677      54535250 
 12677      3000
 12678              	.LASF603:
 12679 7365 53797354 		.ascii	"SysTick_LOAD_RELOAD_Pos 0\000"
 12679      69636B5F 
 12679      4C4F4144 
 12679      5F52454C 
 12679      4F41445F 
 12680              	.LASF231:
 12681 737f 5F5F5341 		.ascii	"__SACCUM_EPSILON__ 0x1P-7HK\000"
 12681      4343554D 
 12681      5F455053 
 12681      494C4F4E 
 12681      5F5F2030 
 12682              	.LASF668:
 12683 739b 504D555F 		.ascii	"PMU_PCON_SLEEPFLAG (1 << 8)\000"
 12683      50434F4E 
ARM GAS  /var/folders/z0/6xlwn_996xz3mwq1cgzkbq4r0000gp/T//cc0Pdjko.s 			page 317


 12683      5F534C45 
 12683      4550464C 
 12683      41472028 
 12684              	.LASF1243:
 12685 73b7 53434C56 		.ascii	"SCLValue\000"
 12685      616C7565 
 12685      00
 12686              	.LASF477:
 12687 73c0 494E545F 		.ascii	"INT_FAST64_MAX (__INT_FAST64_MAX__)\000"
 12687      46415354 
 12687      36345F4D 
 12687      41582028 
 12687      5F5F494E 
 12688              	.LASF1162:
 12689 73e4 434F4E43 		.ascii	"CONCLR\000"
 12689      4C5200
 12690              	.LASF760:
 12691 73eb 55415254 		.ascii	"UART_DLL_MASKBIT (0xFF)\000"
 12691      5F444C4C 
 12691      5F4D4153 
 12691      4B424954 
 12691      20283078 
 12692              	.LASF1167:
 12693 7403 44415441 		.ascii	"DATA_BUFFER\000"
 12693      5F425546 
 12693      46455200 
 12694              	.LASF528:
 12695 740f 5F5F4E56 		.ascii	"__NVIC_PRIO_BITS 2\000"
 12695      49435F50 
 12695      52494F5F 
 12695      42495453 
 12695      203200
 12696              	.LASF60:
 12697 7422 5F5F5549 		.ascii	"__UINT_FAST16_TYPE__ unsigned int\000"
 12697      4E545F46 
 12697      41535431 
 12697      365F5459 
 12697      50455F5F 
 12698              	.LASF610:
 12699 7444 53797354 		.ascii	"SysTick_CALIB_SKEW_Msk (1UL << SysTick_CALIB_SKEW_P"
 12699      69636B5F 
 12699      43414C49 
 12699      425F534B 
 12699      45575F4D 
 12700 7477 6F732900 		.ascii	"os)\000"
 12701              	.LASF296:
 12702 747b 5F5F5548 		.ascii	"__UHA_IBIT__ 8\000"
 12702      415F4942 
 12702      49545F5F 
 12702      203800
 12703              	.LASF352:
 12704 748a 5F4E4557 		.ascii	"_NEWLIB_VERSION_H__ 1\000"
 12704      4C49425F 
 12704      56455253 
 12704      494F4E5F 
 12704      485F5F20 
 12705              	.LASF241:
ARM GAS  /var/folders/z0/6xlwn_996xz3mwq1cgzkbq4r0000gp/T//cc0Pdjko.s 			page 318


 12706 74a0 5F5F4143 		.ascii	"__ACCUM_EPSILON__ 0x1P-15K\000"
 12706      43554D5F 
 12706      45505349 
 12706      4C4F4E5F 
 12706      5F203078 
 12707              	.LASF256:
 12708 74bb 5F5F554C 		.ascii	"__ULACCUM_EPSILON__ 0x1P-32ULK\000"
 12708      41434355 
 12708      4D5F4550 
 12708      53494C4F 
 12708      4E5F5F20 
 12709              	.LASF1055:
 12710 74da 4932435F 		.ascii	"I2C_CON_FLAGS (I2C_CON_AA | I2C_CON_SI | I2C_CON_ST"
 12710      434F4E5F 
 12710      464C4147 
 12710      53202849 
 12710      32435F43 
 12711 750d 4F207C20 		.ascii	"O | I2C_CON_STA)\000"
 12711      4932435F 
 12711      434F4E5F 
 12711      53544129 
 12711      00
 12712              	.LASF153:
 12713 751e 5F5F4C44 		.ascii	"__LDBL_DIG__ 15\000"
 12713      424C5F44 
 12713      49475F5F 
 12713      20313500 
 12714              	.LASF1081:
 12715 752e 5744544F 		.ascii	"WDTOSCCTRL\000"
 12715      53434354 
 12715      524C00
 12716              	.LASF818:
 12717 7539 55415254 		.ascii	"UART_LSR_OE (1 << 1)\000"
 12717      5F4C5352 
 12717      5F4F4520 
 12717      2831203C 
 12717      3C203129 
 12718              	.LASF988:
 12719 754e 4932435F 		.ascii	"I2C_I2MMCTRL_ENA_SCL ((1 << 1))\000"
 12719      49324D4D 
 12719      4354524C 
 12719      5F454E41 
 12719      5F53434C 
 12720              	.LASF432:
 12721 756e 5F5F696E 		.ascii	"__int_least8_t_defined 1\000"
 12721      745F6C65 
 12721      61737438 
 12721      5F745F64 
 12721      6566696E 
 12722              	.LASF1111:
 12723 7587 434C4B4F 		.ascii	"CLKOUTDIV\000"
 12723      55544449 
 12723      5600
 12724              	.LASF76:
 12725 7591 5F5F5749 		.ascii	"__WINT_MIN__ 0U\000"
 12725      4E545F4D 
 12725      494E5F5F 
ARM GAS  /var/folders/z0/6xlwn_996xz3mwq1cgzkbq4r0000gp/T//cc0Pdjko.s 			page 319


 12725      20305500 
 12726              	.LASF710:
 12727 75a1 494F434F 		.ascii	"IOCON_MODE_REPEATER (0x3 << 3)\000"
 12727      4E5F4D4F 
 12727      44455F52 
 12727      45504541 
 12727      54455220 
 12728              	.LASF178:
 12729 75c0 5F5F4445 		.ascii	"__DEC64_EPSILON__ 1E-15DD\000"
 12729      4336345F 
 12729      45505349 
 12729      4C4F4E5F 
 12729      5F203145 
 12730              	.LASF580:
 12731 75da 5343425F 		.ascii	"SCB_AIRCR_SYSRESETREQ_Msk (1UL << SCB_AIRCR_SYSRESE"
 12731      41495243 
 12731      525F5359 
 12731      53524553 
 12731      45545245 
 12732 760d 54524551 		.ascii	"TREQ_Pos)\000"
 12732      5F506F73 
 12732      2900
 12733              	.LASF75:
 12734 7617 5F5F5749 		.ascii	"__WINT_MAX__ 0xffffffffU\000"
 12734      4E545F4D 
 12734      41585F5F 
 12734      20307866 
 12734      66666666 
 12735              	.LASF1210:
 12736 7630 78666572 		.ascii	"xfer\000"
 12736      00
 12737              	.LASF1237:
 12738 7635 68616E64 		.ascii	"handleSlaveXferState\000"
 12738      6C65536C 
 12738      61766558 
 12738      66657253 
 12738      74617465 
 12739              	.LASF48:
 12740 764a 5F5F494E 		.ascii	"__INT_LEAST16_TYPE__ short int\000"
 12740      545F4C45 
 12740      41535431 
 12740      365F5459 
 12740      50455F5F 
 12741              	.LASF1099:
 12742 7669 53535031 		.ascii	"SSP1CLKDIV\000"
 12742      434C4B44 
 12742      495600
 12743              	.LASF266:
 12744 7674 5F5F554C 		.ascii	"__ULLACCUM_EPSILON__ 0x1P-32ULLK\000"
 12744      4C414343 
 12744      554D5F45 
 12744      5053494C 
 12744      4F4E5F5F 
 12745              	.LASF681:
 12746 7695 53595343 		.ascii	"SYSCTL_SLPWAKE_IRC_PD (1 << 1)\000"
 12746      544C5F53 
 12746      4C505741 
ARM GAS  /var/folders/z0/6xlwn_996xz3mwq1cgzkbq4r0000gp/T//cc0Pdjko.s 			page 320


 12746      4B455F49 
 12746      52435F50 
 12747              	.LASF145:
 12748 76b4 5F5F4442 		.ascii	"__DBL_MAX__ ((double)1.7976931348623157e+308L)\000"
 12748      4C5F4D41 
 12748      585F5F20 
 12748      2828646F 
 12748      75626C65 
 12749              	.LASF1061:
 12750 76e3 73686F72 		.ascii	"short unsigned int\000"
 12750      7420756E 
 12750      7369676E 
 12750      65642069 
 12750      6E7400
 12751              	.LASF217:
 12752 76f6 5F5F4C4C 		.ascii	"__LLFRACT_FBIT__ 63\000"
 12752      46524143 
 12752      545F4642 
 12752      49545F5F 
 12752      20363300 
 12753              	.LASF546:
 12754 770a 5343425F 		.ascii	"SCB_CPUID_IMPLEMENTER_Msk (0xFFUL << SCB_CPUID_IMPL"
 12754      43505549 
 12754      445F494D 
 12754      504C454D 
 12754      454E5445 
 12755 773d 454D454E 		.ascii	"EMENTER_Pos)\000"
 12755      5445525F 
 12755      506F7329 
 12755      00
 12756              	.LASF329:
 12757 774a 5F5F7468 		.ascii	"__thumb__ 1\000"
 12757      756D625F 
 12757      5F203100 
 12758              	.LASF919:
 12759 7756 4144435F 		.ascii	"ADC_CR_PDN ((1UL << 21))\000"
 12759      43525F50 
 12759      444E2028 
 12759      2831554C 
 12759      203C3C20 
 12760              	.LASF1245:
 12761 776f 43686970 		.ascii	"Chip_I2C_SetMasterEventHandler\000"
 12761      5F493243 
 12761      5F536574 
 12761      4D617374 
 12761      65724576 
 12762              	.LASF1187:
 12763 778e 7278537A 		.ascii	"rxSz\000"
 12763      00
 12764              	.LASF331:
 12765 7793 5F5F4152 		.ascii	"__ARMEL__ 1\000"
 12765      4D454C5F 
 12765      5F203100 
 12766              	.LASF1233:
 12767 779f 67657453 		.ascii	"getSlaveIndex\000"
 12767      6C617665 
 12767      496E6465 
ARM GAS  /var/folders/z0/6xlwn_996xz3mwq1cgzkbq4r0000gp/T//cc0Pdjko.s 			page 321


 12767      7800
 12768              	.LASF269:
 12769 77ad 5F5F4851 		.ascii	"__HQ_FBIT__ 15\000"
 12769      5F464249 
 12769      545F5F20 
 12769      313500
 12770              	.LASF506:
 12771 77bc 5F5F626F 		.ascii	"__bool_true_false_are_defined 1\000"
 12771      6F6C5F74 
 12771      7275655F 
 12771      66616C73 
 12771      655F6172 
 12772              	.LASF971:
 12773 77dc 4932435F 		.ascii	"I2C_I2STAT_S_RX_ARB_LOST_M_SLA ((0x68))\000"
 12773      49325354 
 12773      41545F53 
 12773      5F52585F 
 12773      4152425F 
 12774              	.LASF404:
 12775 7804 5F494E54 		.ascii	"_INT32_EQ_LONG \000"
 12775      33325F45 
 12775      515F4C4F 
 12775      4E472000 
 12776              	.LASF581:
 12777 7814 5343425F 		.ascii	"SCB_AIRCR_VECTCLRACTIVE_Pos 1\000"
 12777      41495243 
 12777      525F5645 
 12777      4354434C 
 12777      52414354 
 12778              	.LASF991:
 12779 7832 49324441 		.ascii	"I2DATA_BUFFER_BITMASK ((0xFF))\000"
 12779      54415F42 
 12779      55464645 
 12779      525F4249 
 12779      544D4153 
 12780              	.LASF78:
 12781 7851 5F5F5349 		.ascii	"__SIZE_MAX__ 0xffffffffU\000"
 12781      5A455F4D 
 12781      41585F5F 
 12781      20307866 
 12781      66666666 
 12782              	.LASF526:
 12783 786a 5F5F434D 		.ascii	"__CMSIS_11CXX_H_ \000"
 12783      5349535F 
 12783      31314358 
 12783      585F485F 
 12783      2000
 12784              	.LASF1032:
 12785 787c 53444F5F 		.ascii	"SDO_ABORT_NOT_EXISTS 0x06020000UL\000"
 12785      41424F52 
 12785      545F4E4F 
 12785      545F4558 
 12785      49535453 
 12786              	.LASF1185:
 12787 789e 7478537A 		.ascii	"txSz\000"
 12787      00
 12788              	.LASF623:
ARM GAS  /var/folders/z0/6xlwn_996xz3mwq1cgzkbq4r0000gp/T//cc0Pdjko.s 			page 322


 12789 78a3 4C50435F 		.ascii	"LPC_I2C_BASE 0x40000000\000"
 12789      4932435F 
 12789      42415345 
 12789      20307834 
 12789      30303030 
 12790              	.LASF852:
 12791 78bb 55415254 		.ascii	"UART_ICR_FIXPULSE_EN (1 << 2)\000"
 12791      5F494352 
 12791      5F464958 
 12791      50554C53 
 12791      455F454E 
 12792              	.LASF1048:
 12793 78d9 43414E5F 		.ascii	"CAN_SDOREQ_NOTHANDLED 0\000"
 12793      53444F52 
 12793      45515F4E 
 12793      4F544841 
 12793      4E444C45 
 12794              	.LASF445:
 12795 78f1 55494E54 		.ascii	"UINT8_MAX (__UINT8_MAX__)\000"
 12795      385F4D41 
 12795      5820285F 
 12795      5F55494E 
 12795      54385F4D 
 12796              	.LASF71:
 12797 790b 5F5F4C4F 		.ascii	"__LONG_MAX__ 0x7fffffffL\000"
 12797      4E475F4D 
 12797      41585F5F 
 12797      20307837 
 12797      66666666 
 12798              	.LASF541:
 12799 7924 5F5F434F 		.ascii	"__CORE_CM0_H_DEPENDANT \000"
 12799      52455F43 
 12799      4D305F48 
 12799      5F444550 
 12799      454E4441 
 12800              	.LASF1216:
 12801 793c 70493243 		.ascii	"pI2C\000"
 12801      00
 12802              	.LASF878:
 12803 7941 57574454 		.ascii	"WWDT_WDMOD_WDINT ((uint32_t) (1 << 3))\000"
 12803      5F57444D 
 12803      4F445F57 
 12803      44494E54 
 12803      20282875 
 12804              	.LASF924:
 12805 7968 4144435F 		.ascii	"ADC_CR_START_CTOUT8 ((3UL << 24))\000"
 12805      43525F53 
 12805      54415254 
 12805      5F43544F 
 12805      55543820 
 12806              	.LASF402:
 12807 798a 6C6F6E67 		.ascii	"long +4\000"
 12807      202B3400 
 12808              	.LASF1235:
 12809 7992 6C6F6F6B 		.ascii	"lookupSlaveIndex\000"
 12809      7570536C 
 12809      61766549 
ARM GAS  /var/folders/z0/6xlwn_996xz3mwq1cgzkbq4r0000gp/T//cc0Pdjko.s 			page 323


 12809      6E646578 
 12809      00
 12810              	.LASF627:
 12811 79a3 4C50435F 		.ascii	"LPC_TIMER16_1_BASE 0x40010000\000"
 12811      54494D45 
 12811      5231365F 
 12811      315F4241 
 12811      53452030 
 12812              	.LASF638:
 12813 79c1 4C50435F 		.ascii	"LPC_USB0_BASE 0x40080000\000"
 12813      55534230 
 12813      5F424153 
 12813      45203078 
 12813      34303038 
 12814              	.LASF1116:
 12815 79da 53595354 		.ascii	"SYSTCKCAL\000"
 12815      434B4341 
 12815      4C00
 12816              	.LASF897:
 12817 79e4 5353505F 		.ascii	"SSP_CPSR_BITMASK ((uint32_t) (0xFF))\000"
 12817      43505352 
 12817      5F424954 
 12817      4D41534B 
 12817      20282875 
 12818              	.LASF30:
 12819 7a09 5F5F5349 		.ascii	"__SIZE_TYPE__ unsigned int\000"
 12819      5A455F54 
 12819      5950455F 
 12819      5F20756E 
 12819      7369676E 
 12820              	.LASF871:
 12821 7a24 55415254 		.ascii	"UART_SYNCCTRL_STARTSTOPDISABLE (1 << 5)\000"
 12821      5F53594E 
 12821      43435452 
 12821      4C5F5354 
 12821      41525453 
 12822              	.LASF1101:
 12823 7a4c 55534243 		.ascii	"USBCLKSEL\000"
 12823      4C4B5345 
 12823      4C00
 12824              	.LASF1038:
 12825 7a56 53444F5F 		.ascii	"SDO_ABORT_TRANSFER 0x08000020UL\000"
 12825      41424F52 
 12825      545F5452 
 12825      414E5346 
 12825      45522030 
 12826              	.LASF918:
 12827 7a76 4144435F 		.ascii	"ADC_CR_BURST ((1UL << 16))\000"
 12827      43525F42 
 12827      55525354 
 12827      20282831 
 12827      554C203C 
 12828              	.LASF190:
 12829 7a91 5F5F5346 		.ascii	"__SFRACT_MAX__ 0X7FP-7HR\000"
 12829      52414354 
 12829      5F4D4158 
 12829      5F5F2030 
ARM GAS  /var/folders/z0/6xlwn_996xz3mwq1cgzkbq4r0000gp/T//cc0Pdjko.s 			page 324


 12829      58374650 
 12830              	.LASF753:
 12831 7aaa 54494D45 		.ascii	"TIMER_INT_ON_CAP(n) (_BIT((((n) * 3) + 2)))\000"
 12831      525F494E 
 12831      545F4F4E 
 12831      5F434150 
 12831      286E2920 
 12832              	.LASF1015:
 12833 7ad6 43414E5F 		.ascii	"CAN_ERROR_BOFF 0x00000004UL\000"
 12833      4552524F 
 12833      525F424F 
 12833      46462030 
 12833      78303030 
 12834              	.LASF896:
 12835 7af2 5353505F 		.ascii	"SSP_CR1_BITMASK ((uint32_t) (0x0F))\000"
 12835      4352315F 
 12835      4249544D 
 12835      41534B20 
 12835      28287569 
 12836              	.LASF96:
 12837 7b16 5F5F494E 		.ascii	"__INT16_C(c) c\000"
 12837      5431365F 
 12837      43286329 
 12837      206300
 12838              	.LASF649:
 12839 7b25 4C50435F 		.ascii	"LPC_USART ((LPC_USART_T *) LPC_USART_BASE)\000"
 12839      55534152 
 12839      54202828 
 12839      4C50435F 
 12839      55534152 
 12840              	.LASF292:
 12841 7b50 5F5F4441 		.ascii	"__DA_IBIT__ 32\000"
 12841      5F494249 
 12841      545F5F20 
 12841      333200
 12842              	.LASF1018:
 12843 7b5f 43414E5F 		.ascii	"CAN_ERROR_ACK 0x00000020UL\000"
 12843      4552524F 
 12843      525F4143 
 12843      4B203078 
 12843      30303030 
 12844              	.LASF399:
 12845 7b7a 73686F72 		.ascii	"short +1\000"
 12845      74202B31 
 12845      00
 12846              	.LASF1025:
 12847 7b83 43414E5F 		.ascii	"CAN_MSGOBJ_RTR 0x40000000UL\000"
 12847      4D53474F 
 12847      424A5F52 
 12847      54522030 
 12847      78343030 
 12848              	.LASF584:
 12849 7b9f 5343425F 		.ascii	"SCB_SCR_SEVONPEND_Msk (1UL << SCB_SCR_SEVONPEND_Pos"
 12849      5343525F 
 12849      5345564F 
 12849      4E50454E 
 12849      445F4D73 
ARM GAS  /var/folders/z0/6xlwn_996xz3mwq1cgzkbq4r0000gp/T//cc0Pdjko.s 			page 325


 12850 7bd2 2900     		.ascii	")\000"
 12851              	.LASF1219:
 12852 7bd4 61646472 		.ascii	"addr1\000"
 12852      3100
 12853              	.LASF1220:
 12854 7bda 61646472 		.ascii	"addr2\000"
 12854      3200
 12855              	.LASF10:
 12856 7be0 5F5F4154 		.ascii	"__ATOMIC_ACQ_REL 4\000"
 12856      4F4D4943 
 12856      5F414351 
 12856      5F52454C 
 12856      203400
 12857              	.LASF41:
 12858 7bf3 5F5F494E 		.ascii	"__INT32_TYPE__ long int\000"
 12858      5433325F 
 12858      54595045 
 12858      5F5F206C 
 12858      6F6E6720 
 12859              	.LASF347:
 12860 7c0b 5F5F4348 		.ascii	"__CHIP_H_ \000"
 12860      49505F48 
 12860      5F2000
 12861              	.LASF141:
 12862 7c16 5F5F4442 		.ascii	"__DBL_MIN_10_EXP__ (-307)\000"
 12862      4C5F4D49 
 12862      4E5F3130 
 12862      5F455850 
 12862      5F5F2028 
 12863              	.LASF905:
 12864 7c30 5353505F 		.ascii	"SSP_SLAVE_MODE SSP_CR1_SLAVE_EN\000"
 12864      534C4156 
 12864      455F4D4F 
 12864      44452053 
 12864      53505F43 
 12865              	.LASF576:
 12866 7c50 5343425F 		.ascii	"SCB_AIRCR_VECTKEYSTAT_Msk (0xFFFFUL << SCB_AIRCR_VE"
 12866      41495243 
 12866      525F5645 
 12866      43544B45 
 12866      59535441 
 12867 7c83 43544B45 		.ascii	"CTKEYSTAT_Pos)\000"
 12867      59535441 
 12867      545F506F 
 12867      732900
 12868              	.LASF1229:
 12869 7c92 73657453 		.ascii	"setSlaveAddr\000"
 12869      6C617665 
 12869      41646472 
 12869      00
 12870              	.LASF741:
 12871 7c9f 46554E43 		.ascii	"FUNC7 0x7\000"
 12871      37203078 
 12871      3700
 12872              	.LASF394:
 12873 7ca9 5F5F696E 		.ascii	"__int20\000"
 12873      74323000 
ARM GAS  /var/folders/z0/6xlwn_996xz3mwq1cgzkbq4r0000gp/T//cc0Pdjko.s 			page 326


 12874              	.LASF655:
 12875 7cb1 4C50435F 		.ascii	"LPC_PMU ((LPC_PMU_T *) LPC_PMU_BASE)\000"
 12875      504D5520 
 12875      28284C50 
 12875      435F504D 
 12875      555F5420 
 12876              	.LASF536:
 12877 7cd6 5F5F494E 		.ascii	"__INLINE inline\000"
 12877      4C494E45 
 12877      20696E6C 
 12877      696E6500 
 12878              	.LASF474:
 12879 7ce6 494E545F 		.ascii	"INT_FAST32_MAX (__INT_FAST32_MAX__)\000"
 12879      46415354 
 12879      33325F4D 
 12879      41582028 
 12879      5F5F494E 
 12880              	.LASF835:
 12881 7d0a 55415254 		.ascii	"UART_MSR_DCD (1 << 7)\000"
 12881      5F4D5352 
 12881      5F444344 
 12881      20283120 
 12881      3C3C2037 
 12882              	.LASF503:
 12883 7d20 626F6F6C 		.ascii	"bool _Bool\000"
 12883      205F426F 
 12883      6F6C00
 12884              	.LASF911:
 12885 7d2b 4144435F 		.ascii	"ADC_MAX_SAMPLE_RATE 400000\000"
 12885      4D41585F 
 12885      53414D50 
 12885      4C455F52 
 12885      41544520 
 12886              	.LASF1011:
 12887 7d46 5F5F4343 		.ascii	"__CCAND_11XX_H_ \000"
 12887      414E445F 
 12887      31315858 
 12887      5F485F20 
 12887      00
 12888              	.LASF363:
 12889 7d57 5F504F53 		.ascii	"_POSIX_C_SOURCE\000"
 12889      49585F43 
 12889      5F534F55 
 12889      52434500 
 12890              	.LASF81:
 12891 7d67 5F5F5549 		.ascii	"__UINTMAX_MAX__ 0xffffffffffffffffULL\000"
 12891      4E544D41 
 12891      585F4D41 
 12891      585F5F20 
 12891      30786666 
 12892              	.LASF1154:
 12893 7d8d 53595343 		.ascii	"SYSCTL_CLOCK_CAN\000"
 12893      544C5F43 
 12893      4C4F434B 
 12893      5F43414E 
 12893      00
 12894              	.LASF213:
ARM GAS  /var/folders/z0/6xlwn_996xz3mwq1cgzkbq4r0000gp/T//cc0Pdjko.s 			page 327


 12895 7d9e 5F5F554C 		.ascii	"__ULFRACT_IBIT__ 0\000"
 12895      46524143 
 12895      545F4942 
 12895      49545F5F 
 12895      203000
 12896              	.LASF1258:
 12897 7db1 43686970 		.ascii	"Chip_I2C_Disable\000"
 12897      5F493243 
 12897      5F446973 
 12897      61626C65 
 12897      00
 12898              	.LASF800:
 12899 7dc2 55415254 		.ascii	"UART_LCR_SBS_1BIT (0 << 2)\000"
 12899      5F4C4352 
 12899      5F534253 
 12899      5F314249 
 12899      54202830 
 12900              	.LASF70:
 12901 7ddd 5F5F494E 		.ascii	"__INT_MAX__ 0x7fffffff\000"
 12901      545F4D41 
 12901      585F5F20 
 12901      30783766 
 12901      66666666 
 12902              	.LASF50:
 12903 7df4 5F5F494E 		.ascii	"__INT_LEAST64_TYPE__ long long int\000"
 12903      545F4C45 
 12903      41535436 
 12903      345F5459 
 12903      50455F5F 
 12904              	.LASF776:
 12905 7e17 55415254 		.ascii	"UART_IIR_ABTO_INT (1 << 9)\000"
 12905      5F494952 
 12905      5F414254 
 12905      4F5F494E 
 12905      54202831 
 12906              	.LASF917:
 12907 7e32 4144435F 		.ascii	"ADC_CR_CLKDIV(n) ((((n) & 0xFF) << 8))\000"
 12907      43525F43 
 12907      4C4B4449 
 12907      56286E29 
 12907      20282828 
 12908              	.LASF390:
 12909 7e59 7369676E 		.ascii	"signed\000"
 12909      656400
 12910              	.LASF227:
 12911 7e60 5F5F5341 		.ascii	"__SACCUM_FBIT__ 7\000"
 12911      4343554D 
 12911      5F464249 
 12911      545F5F20 
 12911      3700
 12912              	.LASF264:
 12913 7e72 5F5F554C 		.ascii	"__ULLACCUM_MIN__ 0.0ULLK\000"
 12913      4C414343 
 12913      554D5F4D 
 12913      494E5F5F 
 12913      20302E30 
 12914              	.LASF832:
ARM GAS  /var/folders/z0/6xlwn_996xz3mwq1cgzkbq4r0000gp/T//cc0Pdjko.s 			page 328


 12915 7e8b 55415254 		.ascii	"UART_MSR_CTS (1 << 4)\000"
 12915      5F4D5352 
 12915      5F435453 
 12915      20283120 
 12915      3C3C2034 
 12916              	.LASF998:
 12917 7ea1 4932435F 		.ascii	"I2C_SETUP_STATUS_NOACKF (1 << 9)\000"
 12917      53455455 
 12917      505F5354 
 12917      41545553 
 12917      5F4E4F41 
 12918              		.ident	"GCC: (GNU Tools for ARM Embedded Processors) 5.4.1 20160919 (release) [ARM/embedded-5-bran
ARM GAS  /var/folders/z0/6xlwn_996xz3mwq1cgzkbq4r0000gp/T//cc0Pdjko.s 			page 329


DEFINED SYMBOLS
                            *ABS*:0000000000000000 i2c_11xx.c
/var/folders/z0/6xlwn_996xz3mwq1cgzkbq4r0000gp/T//cc0Pdjko.s:80     .text.Chip_I2C_EventHandler:0000000000000000 $t
/var/folders/z0/6xlwn_996xz3mwq1cgzkbq4r0000gp/T//cc0Pdjko.s:85     .text.Chip_I2C_EventHandler:0000000000000000 Chip_I2C_EventHandler
/var/folders/z0/6xlwn_996xz3mwq1cgzkbq4r0000gp/T//cc0Pdjko.s:118    .text.Chip_I2C_EventHandler:0000000000000014 $d
/var/folders/z0/6xlwn_996xz3mwq1cgzkbq4r0000gp/T//cc0Pdjko.s:125    .text.handleMasterXferState:0000000000000000 $t
/var/folders/z0/6xlwn_996xz3mwq1cgzkbq4r0000gp/T//cc0Pdjko.s:130    .text.handleMasterXferState:0000000000000000 handleMasterXferState
/var/folders/z0/6xlwn_996xz3mwq1cgzkbq4r0000gp/T//cc0Pdjko.s:164    .rodata.handleMasterXferState:0000000000000000 $d
/var/folders/z0/6xlwn_996xz3mwq1cgzkbq4r0000gp/T//cc0Pdjko.s:459    .text.handleMasterXferState:0000000000000104 $d
/var/folders/z0/6xlwn_996xz3mwq1cgzkbq4r0000gp/T//cc0Pdjko.s:464    .text.getSlaveIndex:0000000000000000 $t
/var/folders/z0/6xlwn_996xz3mwq1cgzkbq4r0000gp/T//cc0Pdjko.s:469    .text.getSlaveIndex:0000000000000000 getSlaveIndex
/var/folders/z0/6xlwn_996xz3mwq1cgzkbq4r0000gp/T//cc0Pdjko.s:599    .text.handleSlaveXferState:0000000000000000 $t
/var/folders/z0/6xlwn_996xz3mwq1cgzkbq4r0000gp/T//cc0Pdjko.s:604    .text.handleSlaveXferState:0000000000000000 handleSlaveXferState
/var/folders/z0/6xlwn_996xz3mwq1cgzkbq4r0000gp/T//cc0Pdjko.s:638    .rodata.handleSlaveXferState:0000000000000000 $d
/var/folders/z0/6xlwn_996xz3mwq1cgzkbq4r0000gp/T//cc0Pdjko.s:881    .text.handleSlaveXferState:00000000000000a8 $d
/var/folders/z0/6xlwn_996xz3mwq1cgzkbq4r0000gp/T//cc0Pdjko.s:886    .text.Chip_I2C_Init:0000000000000000 $t
/var/folders/z0/6xlwn_996xz3mwq1cgzkbq4r0000gp/T//cc0Pdjko.s:891    .text.Chip_I2C_Init:0000000000000000 Chip_I2C_Init
/var/folders/z0/6xlwn_996xz3mwq1cgzkbq4r0000gp/T//cc0Pdjko.s:963    .text.Chip_I2C_Init:0000000000000030 $d
/var/folders/z0/6xlwn_996xz3mwq1cgzkbq4r0000gp/T//cc0Pdjko.s:970    .text.Chip_I2C_DeInit:0000000000000000 $t
/var/folders/z0/6xlwn_996xz3mwq1cgzkbq4r0000gp/T//cc0Pdjko.s:975    .text.Chip_I2C_DeInit:0000000000000000 Chip_I2C_DeInit
/var/folders/z0/6xlwn_996xz3mwq1cgzkbq4r0000gp/T//cc0Pdjko.s:1031   .text.Chip_I2C_DeInit:000000000000001c $d
/var/folders/z0/6xlwn_996xz3mwq1cgzkbq4r0000gp/T//cc0Pdjko.s:1038   .text.Chip_I2C_SetClockRate:0000000000000000 $t
/var/folders/z0/6xlwn_996xz3mwq1cgzkbq4r0000gp/T//cc0Pdjko.s:1043   .text.Chip_I2C_SetClockRate:0000000000000000 Chip_I2C_SetClockRate
/var/folders/z0/6xlwn_996xz3mwq1cgzkbq4r0000gp/T//cc0Pdjko.s:1080   .text.Chip_I2C_SetClockRate:000000000000001c $d
/var/folders/z0/6xlwn_996xz3mwq1cgzkbq4r0000gp/T//cc0Pdjko.s:1086   .text.Chip_I2C_GetClockRate:0000000000000000 $t
/var/folders/z0/6xlwn_996xz3mwq1cgzkbq4r0000gp/T//cc0Pdjko.s:1091   .text.Chip_I2C_GetClockRate:0000000000000000 Chip_I2C_GetClockRate
/var/folders/z0/6xlwn_996xz3mwq1cgzkbq4r0000gp/T//cc0Pdjko.s:1123   .text.Chip_I2C_GetClockRate:0000000000000018 $d
/var/folders/z0/6xlwn_996xz3mwq1cgzkbq4r0000gp/T//cc0Pdjko.s:1129   .text.Chip_I2C_SetMasterEventHandler:0000000000000000 $t
/var/folders/z0/6xlwn_996xz3mwq1cgzkbq4r0000gp/T//cc0Pdjko.s:1134   .text.Chip_I2C_SetMasterEventHandler:0000000000000000 Chip_I2C_SetMasterEventHandler
/var/folders/z0/6xlwn_996xz3mwq1cgzkbq4r0000gp/T//cc0Pdjko.s:1167   .text.Chip_I2C_SetMasterEventHandler:000000000000001c $d
/var/folders/z0/6xlwn_996xz3mwq1cgzkbq4r0000gp/T//cc0Pdjko.s:1172   .text.Chip_I2C_GetMasterEventHandler:0000000000000000 $t
/var/folders/z0/6xlwn_996xz3mwq1cgzkbq4r0000gp/T//cc0Pdjko.s:1177   .text.Chip_I2C_GetMasterEventHandler:0000000000000000 Chip_I2C_GetMasterEventHandler
/var/folders/z0/6xlwn_996xz3mwq1cgzkbq4r0000gp/T//cc0Pdjko.s:1197   .text.Chip_I2C_GetMasterEventHandler:0000000000000008 $d
/var/folders/z0/6xlwn_996xz3mwq1cgzkbq4r0000gp/T//cc0Pdjko.s:1202   .text.Chip_I2C_MasterTransfer:0000000000000000 $t
/var/folders/z0/6xlwn_996xz3mwq1cgzkbq4r0000gp/T//cc0Pdjko.s:1207   .text.Chip_I2C_MasterTransfer:0000000000000000 Chip_I2C_MasterTransfer
/var/folders/z0/6xlwn_996xz3mwq1cgzkbq4r0000gp/T//cc0Pdjko.s:1323   .text.Chip_I2C_MasterTransfer:000000000000005c $d
/var/folders/z0/6xlwn_996xz3mwq1cgzkbq4r0000gp/T//cc0Pdjko.s:1330   .text.Chip_I2C_MasterSend:0000000000000000 $t
/var/folders/z0/6xlwn_996xz3mwq1cgzkbq4r0000gp/T//cc0Pdjko.s:1335   .text.Chip_I2C_MasterSend:0000000000000000 Chip_I2C_MasterSend
/var/folders/z0/6xlwn_996xz3mwq1cgzkbq4r0000gp/T//cc0Pdjko.s:1385   .text.Chip_I2C_MasterCmdRead:0000000000000000 $t
/var/folders/z0/6xlwn_996xz3mwq1cgzkbq4r0000gp/T//cc0Pdjko.s:1390   .text.Chip_I2C_MasterCmdRead:0000000000000000 Chip_I2C_MasterCmdRead
/var/folders/z0/6xlwn_996xz3mwq1cgzkbq4r0000gp/T//cc0Pdjko.s:1451   .text.Chip_I2C_MasterRead:0000000000000000 $t
/var/folders/z0/6xlwn_996xz3mwq1cgzkbq4r0000gp/T//cc0Pdjko.s:1456   .text.Chip_I2C_MasterRead:0000000000000000 Chip_I2C_MasterRead
/var/folders/z0/6xlwn_996xz3mwq1cgzkbq4r0000gp/T//cc0Pdjko.s:1507   .text.Chip_I2C_IsMasterActive:0000000000000000 $t
/var/folders/z0/6xlwn_996xz3mwq1cgzkbq4r0000gp/T//cc0Pdjko.s:1512   .text.Chip_I2C_IsMasterActive:0000000000000000 Chip_I2C_IsMasterActive
/var/folders/z0/6xlwn_996xz3mwq1cgzkbq4r0000gp/T//cc0Pdjko.s:1551   .text.Chip_I2C_IsMasterActive:0000000000000018 $d
/var/folders/z0/6xlwn_996xz3mwq1cgzkbq4r0000gp/T//cc0Pdjko.s:1556   .text.Chip_I2C_MasterStateHandler:0000000000000000 $t
/var/folders/z0/6xlwn_996xz3mwq1cgzkbq4r0000gp/T//cc0Pdjko.s:1561   .text.Chip_I2C_MasterStateHandler:0000000000000000 Chip_I2C_MasterStateHandler
/var/folders/z0/6xlwn_996xz3mwq1cgzkbq4r0000gp/T//cc0Pdjko.s:1604   .text.Chip_I2C_MasterStateHandler:000000000000001c $d
/var/folders/z0/6xlwn_996xz3mwq1cgzkbq4r0000gp/T//cc0Pdjko.s:1609   .text.Chip_I2C_EventHandlerPolling:0000000000000000 $t
/var/folders/z0/6xlwn_996xz3mwq1cgzkbq4r0000gp/T//cc0Pdjko.s:1614   .text.Chip_I2C_EventHandlerPolling:0000000000000000 Chip_I2C_EventHandlerPolling
/var/folders/z0/6xlwn_996xz3mwq1cgzkbq4r0000gp/T//cc0Pdjko.s:1678   .text.Chip_I2C_EventHandlerPolling:0000000000000028 $d
/var/folders/z0/6xlwn_996xz3mwq1cgzkbq4r0000gp/T//cc0Pdjko.s:1683   .text.Chip_I2C_SlaveSetup:0000000000000000 $t
/var/folders/z0/6xlwn_996xz3mwq1cgzkbq4r0000gp/T//cc0Pdjko.s:1688   .text.Chip_I2C_SlaveSetup:0000000000000000 Chip_I2C_SlaveSetup
/var/folders/z0/6xlwn_996xz3mwq1cgzkbq4r0000gp/T//cc0Pdjko.s:1813   .text.Chip_I2C_SlaveSetup:0000000000000064 $d
/var/folders/z0/6xlwn_996xz3mwq1cgzkbq4r0000gp/T//cc0Pdjko.s:1822   .text.Chip_I2C_SlaveStateHandler:0000000000000000 $t
/var/folders/z0/6xlwn_996xz3mwq1cgzkbq4r0000gp/T//cc0Pdjko.s:1827   .text.Chip_I2C_SlaveStateHandler:0000000000000000 Chip_I2C_SlaveStateHandler
/var/folders/z0/6xlwn_996xz3mwq1cgzkbq4r0000gp/T//cc0Pdjko.s:1924   .text.Chip_I2C_SlaveStateHandler:0000000000000058 $d
ARM GAS  /var/folders/z0/6xlwn_996xz3mwq1cgzkbq4r0000gp/T//cc0Pdjko.s 			page 330


/var/folders/z0/6xlwn_996xz3mwq1cgzkbq4r0000gp/T//cc0Pdjko.s:1931   .text.Chip_I2C_Disable:0000000000000000 $t
/var/folders/z0/6xlwn_996xz3mwq1cgzkbq4r0000gp/T//cc0Pdjko.s:1936   .text.Chip_I2C_Disable:0000000000000000 Chip_I2C_Disable
/var/folders/z0/6xlwn_996xz3mwq1cgzkbq4r0000gp/T//cc0Pdjko.s:1957   .text.Chip_I2C_Disable:000000000000000c $d
/var/folders/z0/6xlwn_996xz3mwq1cgzkbq4r0000gp/T//cc0Pdjko.s:1962   .text.Chip_I2C_IsStateChanged:0000000000000000 $t
/var/folders/z0/6xlwn_996xz3mwq1cgzkbq4r0000gp/T//cc0Pdjko.s:1967   .text.Chip_I2C_IsStateChanged:0000000000000000 Chip_I2C_IsStateChanged
/var/folders/z0/6xlwn_996xz3mwq1cgzkbq4r0000gp/T//cc0Pdjko.s:1990   .text.Chip_I2C_IsStateChanged:000000000000000c $d
/var/folders/z0/6xlwn_996xz3mwq1cgzkbq4r0000gp/T//cc0Pdjko.s:1995   .data.i2c:0000000000000000 $d
/var/folders/z0/6xlwn_996xz3mwq1cgzkbq4r0000gp/T//cc0Pdjko.s:1999   .data.i2c:0000000000000000 i2c
/var/folders/z0/6xlwn_996xz3mwq1cgzkbq4r0000gp/T//cc0Pdjko.s:2016   .bss.i2c_slave:0000000000000000 $d
/var/folders/z0/6xlwn_996xz3mwq1cgzkbq4r0000gp/T//cc0Pdjko.s:2020   .bss.i2c_slave:0000000000000000 i2c_slave
                     .debug_frame:0000000000000010 $d
                           .group:0000000000000000 wm4.0.875846967d3f9b39cda0d496d1540481
                           .group:0000000000000000 wm4._newlib_version.h.4.ad342815780c8db09778091a421b5b5b
                           .group:0000000000000000 wm4.features.h.33.863f3be0b2e521e624fcc7d6fa31d2ca
                           .group:0000000000000000 wm4._default_types.h.15.933e8edd27a65e0b69af4a865eb623d2
                           .group:0000000000000000 wm4._intsup.h.10.b82bf99f69d6a5c085fc866de0d3eb9b
                           .group:0000000000000000 wm4._stdint.h.10.7a5f60e6741af4a5594a3867d347e1f9
                           .group:0000000000000000 wm4.stdint.h.23.373a9d32a9e4c2e88fd347156532d281
                           .group:0000000000000000 wm4.stdbool.h.29.07dce69c3b78884144b7f7bd19483461
                           .group:0000000000000000 wm4.lpc_types.h.63.860ba57581a002825766a7c2ac00d549
                           .group:0000000000000000 wm4.sys_config.h.31.9f234e9c90333d233c7e647ebe63e928
                           .group:0000000000000000 wm4.cmsis_11cxx.h.33.407e9bbb5d170cd1552d3f7dc3fd5c42
                           .group:0000000000000000 wm4.core_cm0.h.32.192d13cfa8b31e63c86621de62eb153f
                           .group:0000000000000000 wm4.core_cm0.h.120.f4257ea7d0bce0cbabffe223e23b2fd4
                           .group:0000000000000000 wm4.chip.h.116.857da603c399e979152c31968de4baae
                           .group:0000000000000000 wm4.pmu_11xx.h.33.1d6b708881441cb98d19b8bab3caa180
                           .group:0000000000000000 wm4.sysctl_11xx.h.33.ae61a1181e608f8409883008e291930c
                           .group:0000000000000000 wm4.clock_11xx.h.33.23290a9e2ed919e3a6958d25130bc848
                           .group:0000000000000000 wm4.iocon_11xx.h.33.25e2b3cde122df23fb07b984cb4f3a93
                           .group:0000000000000000 wm4.timer_11xx.h.33.c92f50a9325789ee6a8ffd6248980d70
                           .group:0000000000000000 wm4.ring_buffer.h.33.2f271415f1f27d60350fb4738c5cbee6
                           .group:0000000000000000 wm4.uart_11xx.h.98.fe68b709973730a4fba3f3ce60c5c312
                           .group:0000000000000000 wm4.wwdt_11xx.h.33.5768344983cb842df69cc91ea86cabb0
                           .group:0000000000000000 wm4.ssp_11xx.h.33.af054d3d65f4cb0c078be40bb872ec37
                           .group:0000000000000000 wm4.error.h.38.ae74fe1dd9d19c80c505f1fda144fce8
                           .group:0000000000000000 wm4.adc_11xx.h.33.6ce7433ac6b30df70a6993d01dbd513f
                           .group:0000000000000000 wm4.i2c_11xx.h.33.2b506d1350e00a8c26e8bf006a5f9390
                           .group:0000000000000000 wm4.ccand_11xx.h.33.99627f4b529fecdc77b0877ab6fe5266

UNDEFINED SYMBOLS
__aeabi_uidiv
SystemCoreClock
