ARM GAS  /var/folders/z0/6xlwn_996xz3mwq1cgzkbq4r0000gp/T//ccvmbCXw.s 			page 1


   1              		.syntax unified
   2              		.cpu cortex-m0
   3              		.fpu softvfp
   4              		.eabi_attribute 20, 1	@ Tag_ABI_FP_denormal
   5              		.eabi_attribute 21, 1	@ Tag_ABI_FP_exceptions
   6              		.eabi_attribute 23, 3	@ Tag_ABI_FP_number_model
   7              		.eabi_attribute 24, 1	@ Tag_ABI_align8_needed
   8              		.eabi_attribute 25, 1	@ Tag_ABI_align8_preserved
   9              		.eabi_attribute 26, 1	@ Tag_ABI_enum_size
  10              		.eabi_attribute 30, 2	@ Tag_ABI_optimization_goals
  11              		.eabi_attribute 34, 0	@ Tag_CPU_unaligned_access
  12              		.eabi_attribute 18, 4	@ Tag_ABI_PCS_wchar_t
  13              		.file	"ltc6804.c"
  14              	@ GNU C89 (GNU Tools for ARM Embedded Processors) version 5.4.1 20160919 (release) [ARM/embedded-5-
  15              	@	compiled by GNU C version 4.2.1 (Based on Apple Inc. build 5658) (LLVM build 2336.9.00), GMP vers
  16              	@ GGC heuristics: --param ggc-min-expand=100 --param ggc-min-heapsize=131072
  17              	@ options passed:  -I . -I inc/
  18              	@ -I ../../lib/lpc11cx4-library/lpc_chip_11cxx_lib/inc
  19              	@ -I ../../lib/lpc11cx4-library/evt_lib/inc/ -I ../../lib/CANlib
  20              	@ -imultilib armv6-m
  21              	@ -iprefix /usr/local/Cellar/gcc-arm-none-eabi/20160928/bin/../lib/gcc/arm-none-eabi/5.4.1/
  22              	@ -isysroot /usr/local/Cellar/gcc-arm-none-eabi/20160928/bin/../arm-none-eabi
  23              	@ -MD bin/ltc6804.d -MF bin/ltc6804.d -MP -MQ bin/ltc6804.o
  24              	@ -D__USES_INITFINI__ -D UART_BAUD=57600 -D CORE_M0 -D DEBUG_ENABLE
  25              	@ -D FSAE_DRIVERS -D CAN_ARCHITECTURE_ARM
  26              	@ ../../lib/lpc11cx4-library/evt_lib/src/ltc6804.c -mcpu=cortex-m0 -mthumb
  27              	@ -auxbase-strip bin/ltc6804.o -g -ggdb3 -O2 -Wall -Wstrict-prototypes
  28              	@ -Wextra -std=gnu90 -ffunction-sections -fdata-sections
  29              	@ -fdiagnostics-color=always -fverbose-asm
  30              	@ options enabled:  -faggressive-loop-optimizations -falign-functions
  31              	@ -falign-jumps -falign-labels -falign-loops -fauto-inc-dec
  32              	@ -fbranch-count-reg -fcaller-saves -fchkp-check-incomplete-type
  33              	@ -fchkp-check-read -fchkp-check-write -fchkp-instrument-calls
  34              	@ -fchkp-narrow-bounds -fchkp-optimize -fchkp-store-bounds
  35              	@ -fchkp-use-static-bounds -fchkp-use-static-const-bounds
  36              	@ -fchkp-use-wrappers -fcombine-stack-adjustments -fcommon -fcompare-elim
  37              	@ -fcprop-registers -fcrossjumping -fcse-follow-jumps -fdata-sections
  38              	@ -fdefer-pop -fdelete-null-pointer-checks -fdevirtualize
  39              	@ -fdevirtualize-speculatively -fdwarf2-cfi-asm -fearly-inlining
  40              	@ -feliminate-unused-debug-types -fexpensive-optimizations
  41              	@ -fforward-propagate -ffunction-cse -ffunction-sections -fgcse -fgcse-lm
  42              	@ -fgnu-runtime -fgnu-unique -fguess-branch-probability
  43              	@ -fhoist-adjacent-loads -fident -fif-conversion -fif-conversion2
  44              	@ -findirect-inlining -finline -finline-atomics
  45              	@ -finline-functions-called-once -finline-small-functions -fipa-cp
  46              	@ -fipa-cp-alignment -fipa-icf -fipa-icf-functions -fipa-icf-variables
  47              	@ -fipa-profile -fipa-pure-const -fipa-reference -fipa-sra
  48              	@ -fira-hoist-pressure -fira-share-save-slots -fira-share-spill-slots
  49              	@ -fisolate-erroneous-paths-dereference -fivopts -fkeep-static-consts
  50              	@ -fleading-underscore -flifetime-dse -flra-remat -flto-odr-type-merging
  51              	@ -fmath-errno -fmerge-constants -fmerge-debug-strings
  52              	@ -fmove-loop-invariants -fomit-frame-pointer -foptimize-sibling-calls
  53              	@ -foptimize-strlen -fpartial-inlining -fpeephole -fpeephole2
  54              	@ -fprefetch-loop-arrays -freg-struct-return -freorder-blocks
  55              	@ -freorder-functions -frerun-cse-after-loop
  56              	@ -fsched-critical-path-heuristic -fsched-dep-count-heuristic
  57              	@ -fsched-group-heuristic -fsched-interblock -fsched-last-insn-heuristic
ARM GAS  /var/folders/z0/6xlwn_996xz3mwq1cgzkbq4r0000gp/T//ccvmbCXw.s 			page 2


  58              	@ -fsched-pressure -fsched-rank-heuristic -fsched-spec
  59              	@ -fsched-spec-insn-heuristic -fsched-stalled-insns-dep -fschedule-insns2
  60              	@ -fsection-anchors -fsemantic-interposition -fshow-column -fshrink-wrap
  61              	@ -fsigned-zeros -fsplit-ivs-in-unroller -fsplit-wide-types -fssa-phiopt
  62              	@ -fstdarg-opt -fstrict-aliasing -fstrict-overflow
  63              	@ -fstrict-volatile-bitfields -fsync-libcalls -fthread-jumps
  64              	@ -ftoplevel-reorder -ftrapping-math -ftree-bit-ccp -ftree-builtin-call-dce
  65              	@ -ftree-ccp -ftree-ch -ftree-coalesce-vars -ftree-copy-prop
  66              	@ -ftree-copyrename -ftree-cselim -ftree-dce -ftree-dominator-opts
  67              	@ -ftree-dse -ftree-forwprop -ftree-fre -ftree-loop-if-convert
  68              	@ -ftree-loop-im -ftree-loop-ivcanon -ftree-loop-optimize
  69              	@ -ftree-parallelize-loops= -ftree-phiprop -ftree-pre -ftree-pta
  70              	@ -ftree-reassoc -ftree-scev-cprop -ftree-sink -ftree-slsr -ftree-sra
  71              	@ -ftree-switch-conversion -ftree-tail-merge -ftree-ter -ftree-vrp
  72              	@ -funit-at-a-time -fvar-tracking -fvar-tracking-assignments -fverbose-asm
  73              	@ -fzero-initialized-in-bss -mlittle-endian -mpic-data-is-text-relative
  74              	@ -msched-prolog -mthumb -mvectorize-with-neon-quad
  75              	
  76              		.text
  77              	.Ltext0:
  78              		.cfi_sections	.debug_frame
  79              		.section	.text.divu10,"ax",%progbits
  80              		.align	2
  81              		.global	divu10
  82              		.code	16
  83              		.thumb_func
  84              		.type	divu10, %function
  85              	divu10:
  86              	.LFB198:
  87              		.file 1 "../../lib/lpc11cx4-library/evt_lib/src/ltc6804.c"
   1:../../lib/lpc11cx4-library/evt_lib/src/ltc6804.c **** #include "ltc6804.h"
   2:../../lib/lpc11cx4-library/evt_lib/src/ltc6804.c **** #include "config.h"
   3:../../lib/lpc11cx4-library/evt_lib/src/ltc6804.c **** 
   4:../../lib/lpc11cx4-library/evt_lib/src/ltc6804.c **** /***************************************
   5:../../lib/lpc11cx4-library/evt_lib/src/ltc6804.c **** 		Private Variables
   6:../../lib/lpc11cx4-library/evt_lib/src/ltc6804.c **** ****************************************/
   7:../../lib/lpc11cx4-library/evt_lib/src/ltc6804.c **** 
   8:../../lib/lpc11cx4-library/evt_lib/src/ltc6804.c **** #define WAKE_BUF_LEN 40
   9:../../lib/lpc11cx4-library/evt_lib/src/ltc6804.c **** static uint8_t wake_buf[WAKE_BUF_LEN];
  10:../../lib/lpc11cx4-library/evt_lib/src/ltc6804.c **** static uint16_t owt_state;
  11:../../lib/lpc11cx4-library/evt_lib/src/ltc6804.c **** static uint32_t owt_time;
  12:../../lib/lpc11cx4-library/evt_lib/src/ltc6804.c **** static uint8_t owt_up_rx_buf[4][LTC6804_CALC_BUFFER_LEN(15)]; // [TODO] Move into ltc6804_state
  13:../../lib/lpc11cx4-library/evt_lib/src/ltc6804.c **** // static bool zero_vector[MAX_NUM_MODULES * MAX_CELLS_PER_MODULE];
  14:../../lib/lpc11cx4-library/evt_lib/src/ltc6804.c **** static bool should_zero_balance;
  15:../../lib/lpc11cx4-library/evt_lib/src/ltc6804.c **** 
  16:../../lib/lpc11cx4-library/evt_lib/src/ltc6804.c **** #define _IS_ASLEEP(state, msTicks) (msTicks - state->last_message > T_SLEEP)
  17:../../lib/lpc11cx4-library/evt_lib/src/ltc6804.c **** #define _IS_IDLE(state, msTicks) (msTicks - state->last_message > T_IDLE)
  18:../../lib/lpc11cx4-library/evt_lib/src/ltc6804.c **** #define _IS_REFUP(state, msTicks) (msTicks - state->last_sleep_wake > T_REFUP)
  19:../../lib/lpc11cx4-library/evt_lib/src/ltc6804.c **** 
  20:../../lib/lpc11cx4-library/evt_lib/src/ltc6804.c **** /***************************************
  21:../../lib/lpc11cx4-library/evt_lib/src/ltc6804.c **** 		Private Function Prototypes
  22:../../lib/lpc11cx4-library/evt_lib/src/ltc6804.c **** ****************************************/
  23:../../lib/lpc11cx4-library/evt_lib/src/ltc6804.c **** 
  24:../../lib/lpc11cx4-library/evt_lib/src/ltc6804.c **** LTC6804_STATUS_T _command(LTC6804_CONFIG_T *config, LTC6804_STATE_T *state, uint16_t cmd, uint32_t 
  25:../../lib/lpc11cx4-library/evt_lib/src/ltc6804.c **** LTC6804_STATUS_T _write(LTC6804_CONFIG_T *config, LTC6804_STATE_T *state, uint16_t cmd, uint32_t ms
  26:../../lib/lpc11cx4-library/evt_lib/src/ltc6804.c **** LTC6804_STATUS_T _read(LTC6804_CONFIG_T *config, LTC6804_STATE_T *state, uint16_t cmd, uint32_t msT
  27:../../lib/lpc11cx4-library/evt_lib/src/ltc6804.c **** LTC6804_STATUS_T _wake(LTC6804_CONFIG_T *config, LTC6804_STATE_T *state, uint32_t msTicks, bool for
ARM GAS  /var/folders/z0/6xlwn_996xz3mwq1cgzkbq4r0000gp/T//ccvmbCXw.s 			page 3


  28:../../lib/lpc11cx4-library/evt_lib/src/ltc6804.c **** LTC6804_STATUS_T _set_balance_states(LTC6804_CONFIG_T *config, LTC6804_STATE_T *state, uint32_t msT
  29:../../lib/lpc11cx4-library/evt_lib/src/ltc6804.c **** uint16_t _calculate_pec(uint8_t *data, uint8_t len);
  30:../../lib/lpc11cx4-library/evt_lib/src/ltc6804.c **** bool _check_st_results(LTC6804_CONFIG_T *config, LTC6804_STATE_T *state);
  31:../../lib/lpc11cx4-library/evt_lib/src/ltc6804.c **** bool _check_owt(LTC6804_CONFIG_T *config, LTC6804_OWT_RES_T *res, uint8_t *c_up, uint8_t *c_down);
  32:../../lib/lpc11cx4-library/evt_lib/src/ltc6804.c **** 
  33:../../lib/lpc11cx4-library/evt_lib/src/ltc6804.c **** uint32_t divu10(uint32_t n) {
  88              		.loc 1 33 0
  89              		.cfi_startproc
  90              		@ args = 0, pretend = 0, frame = 0
  91              		@ frame_needed = 0, uses_anonymous_args = 0
  92              		@ link register save eliminated.
  93              	.LVL0:
  34:../../lib/lpc11cx4-library/evt_lib/src/ltc6804.c ****  uint32_t q, r;
  35:../../lib/lpc11cx4-library/evt_lib/src/ltc6804.c ****  q = (n >> 1) + (n >> 2);
  94              		.loc 1 35 0
  95 0000 4208     		lsrs	r2, r0, #1	@ D.7829, n,
  96 0002 8308     		lsrs	r3, r0, #2	@ D.7829, n,
  97 0004 D318     		adds	r3, r2, r3	@ q, D.7829, D.7829
  98              	.LVL1:
  36:../../lib/lpc11cx4-library/evt_lib/src/ltc6804.c ****  q = q + (q >> 4);
  99              		.loc 1 36 0
 100 0006 1A09     		lsrs	r2, r3, #4	@ D.7829, q,
 101 0008 9B18     		adds	r3, r3, r2	@ q, q, D.7829
 102              	.LVL2:
  37:../../lib/lpc11cx4-library/evt_lib/src/ltc6804.c ****  q = q + (q >> 8);
 103              		.loc 1 37 0
 104 000a 1A0A     		lsrs	r2, r3, #8	@ D.7829, q,
 105 000c 9B18     		adds	r3, r3, r2	@ q, q, D.7829
 106              	.LVL3:
  38:../../lib/lpc11cx4-library/evt_lib/src/ltc6804.c ****  q = q + (q >> 16);
 107              		.loc 1 38 0
 108 000e 1A0C     		lsrs	r2, r3, #16	@ D.7829, q,
 109 0010 9B18     		adds	r3, r3, r2	@ q, q, D.7829
 110              	.LVL4:
  39:../../lib/lpc11cx4-library/evt_lib/src/ltc6804.c ****  q = q >> 3;
 111              		.loc 1 39 0
 112 0012 DB08     		lsrs	r3, r3, #3	@ q, q,
 113              	.LVL5:
  40:../../lib/lpc11cx4-library/evt_lib/src/ltc6804.c ****  r = n - q*10;
  41:../../lib/lpc11cx4-library/evt_lib/src/ltc6804.c ****  return q + ((r + 6) >> 4);
 114              		.loc 1 41 0
 115 0014 9A00     		lsls	r2, r3, #2	@ tmp132, q,
 116 0016 D218     		adds	r2, r2, r3	@ D.7829, tmp132, q
 117 0018 5200     		lsls	r2, r2, #1	@ tmp134, D.7829,
 118 001a 0630     		adds	r0, r0, #6	@ D.7830,
 119              	.LVL6:
 120 001c 801A     		subs	r0, r0, r2	@ D.7829, D.7830, tmp134
 121              	.LVL7:
 122 001e 0009     		lsrs	r0, r0, #4	@ D.7829, D.7829,
 123 0020 C018     		adds	r0, r0, r3	@ D.7830, D.7829, q
  42:../../lib/lpc11cx4-library/evt_lib/src/ltc6804.c **** }
 124              		.loc 1 42 0
 125              		@ sp needed	@
 126 0022 7047     		bx	lr
 127              		.cfi_endproc
 128              	.LFE198:
 129              		.size	divu10, .-divu10
ARM GAS  /var/folders/z0/6xlwn_996xz3mwq1cgzkbq4r0000gp/T//ccvmbCXw.s 			page 4


 130              		.section	.text._set_balance_states,"ax",%progbits
 131              		.align	2
 132              		.global	_set_balance_states
 133              		.code	16
 134              		.thumb_func
 135              		.type	_set_balance_states, %function
 136              	_set_balance_states:
 137              	.LFB213:
  43:../../lib/lpc11cx4-library/evt_lib/src/ltc6804.c **** 
  44:../../lib/lpc11cx4-library/evt_lib/src/ltc6804.c **** /***************************************
  45:../../lib/lpc11cx4-library/evt_lib/src/ltc6804.c **** 		Public Functions
  46:../../lib/lpc11cx4-library/evt_lib/src/ltc6804.c **** ****************************************/
  47:../../lib/lpc11cx4-library/evt_lib/src/ltc6804.c **** 
  48:../../lib/lpc11cx4-library/evt_lib/src/ltc6804.c **** LTC6804_STATUS_T LTC6804_Init(LTC6804_CONFIG_T *config, LTC6804_STATE_T *state, uint32_t msTicks) {
  49:../../lib/lpc11cx4-library/evt_lib/src/ltc6804.c **** 	Chip_GPIO_WriteDirBit(LPC_GPIO, config->cs_gpio, config->cs_pin, true);
  50:../../lib/lpc11cx4-library/evt_lib/src/ltc6804.c **** 	Chip_GPIO_SetPinState(LPC_GPIO, config->cs_gpio, config->cs_pin, true);
  51:../../lib/lpc11cx4-library/evt_lib/src/ltc6804.c **** 
  52:../../lib/lpc11cx4-library/evt_lib/src/ltc6804.c **** 	Chip_SSP_Init(config->pSSP);
  53:../../lib/lpc11cx4-library/evt_lib/src/ltc6804.c **** 	Chip_SSP_SetBitRate(config->pSSP, config->baud);
  54:../../lib/lpc11cx4-library/evt_lib/src/ltc6804.c **** 	Chip_SSP_SetFormat(config->pSSP, SSP_BITS_8, SSP_FRAMEFORMAT_SPI, SSP_CLOCK_MODE3);
  55:../../lib/lpc11cx4-library/evt_lib/src/ltc6804.c **** 	Chip_SSP_SetMaster(config->pSSP, true);
  56:../../lib/lpc11cx4-library/evt_lib/src/ltc6804.c **** 	Chip_SSP_Enable(config->pSSP);
  57:../../lib/lpc11cx4-library/evt_lib/src/ltc6804.c **** 
  58:../../lib/lpc11cx4-library/evt_lib/src/ltc6804.c **** 	uint16_t VUV = config->min_cell_mV * 10 / 16 - 1;
  59:../../lib/lpc11cx4-library/evt_lib/src/ltc6804.c **** 	uint16_t VOV = config->max_cell_mV * 10 / 16;
  60:../../lib/lpc11cx4-library/evt_lib/src/ltc6804.c **** 
  61:../../lib/lpc11cx4-library/evt_lib/src/ltc6804.c **** 	state->xf->rx_data = state->rx_buf;
  62:../../lib/lpc11cx4-library/evt_lib/src/ltc6804.c **** 	state->cfg[0] = 0xBC; 
  63:../../lib/lpc11cx4-library/evt_lib/src/ltc6804.c **** 	state->cfg[1] = VUV & 0xFF;
  64:../../lib/lpc11cx4-library/evt_lib/src/ltc6804.c **** 	state->cfg[2] = (VUV & 0xF00) >> 8 | (VOV & 0xF) << 4; 
  65:../../lib/lpc11cx4-library/evt_lib/src/ltc6804.c **** 	state->cfg[3] = (VOV & 0xFF0) >> 4;
  66:../../lib/lpc11cx4-library/evt_lib/src/ltc6804.c **** 	state->cfg[4] = 0x00; 
  67:../../lib/lpc11cx4-library/evt_lib/src/ltc6804.c **** 	state->cfg[5] = 0x00; // [TODO] Consider using DCTO
  68:../../lib/lpc11cx4-library/evt_lib/src/ltc6804.c **** 
  69:../../lib/lpc11cx4-library/evt_lib/src/ltc6804.c **** 	state->last_message = msTicks;
  70:../../lib/lpc11cx4-library/evt_lib/src/ltc6804.c **** 	state->wake_length = 3*config->baud/80000 + 1; // [TODO] Remember how this was calculated
  71:../../lib/lpc11cx4-library/evt_lib/src/ltc6804.c **** 	state->waiting = false;
  72:../../lib/lpc11cx4-library/evt_lib/src/ltc6804.c **** 	state->wait_time = LTC6804_ADCV_MODE_WAIT_TIMES[config->adc_mode];
  73:../../lib/lpc11cx4-library/evt_lib/src/ltc6804.c **** 	// state->wait_time = 7; // [TODO] Remove
  74:../../lib/lpc11cx4-library/evt_lib/src/ltc6804.c **** 	state->last_sleep_wake = msTicks;
  75:../../lib/lpc11cx4-library/evt_lib/src/ltc6804.c **** 	state->balancing = false;
  76:../../lib/lpc11cx4-library/evt_lib/src/ltc6804.c **** 	state->flight_time = 0;
  77:../../lib/lpc11cx4-library/evt_lib/src/ltc6804.c **** 
  78:../../lib/lpc11cx4-library/evt_lib/src/ltc6804.c **** 	state->adc_status = LTC6804_ADC_NONE;
  79:../../lib/lpc11cx4-library/evt_lib/src/ltc6804.c **** 
  80:../../lib/lpc11cx4-library/evt_lib/src/ltc6804.c **** 	owt_state = 0;
  81:../../lib/lpc11cx4-library/evt_lib/src/ltc6804.c **** 
  82:../../lib/lpc11cx4-library/evt_lib/src/ltc6804.c **** 	memset(wake_buf, 0, WAKE_BUF_LEN);
  83:../../lib/lpc11cx4-library/evt_lib/src/ltc6804.c ****   // memset(zero_vector, 0, sizeof(bool) * MAX_NUM_MODULES * MAX_CELLS_PER_MODULE);
  84:../../lib/lpc11cx4-library/evt_lib/src/ltc6804.c **** 	memset(state->bal_list, 0, sizeof(state->bal_list[0])*MAX_NUM_MODULES);
  85:../../lib/lpc11cx4-library/evt_lib/src/ltc6804.c **** 
  86:../../lib/lpc11cx4-library/evt_lib/src/ltc6804.c ****   should_zero_balance = false;
  87:../../lib/lpc11cx4-library/evt_lib/src/ltc6804.c **** 
  88:../../lib/lpc11cx4-library/evt_lib/src/ltc6804.c **** 	_wake(config, state, msTicks, true);
  89:../../lib/lpc11cx4-library/evt_lib/src/ltc6804.c **** 
  90:../../lib/lpc11cx4-library/evt_lib/src/ltc6804.c **** 	return LTC6804_WriteCFG(config, state, msTicks);
  91:../../lib/lpc11cx4-library/evt_lib/src/ltc6804.c **** }
ARM GAS  /var/folders/z0/6xlwn_996xz3mwq1cgzkbq4r0000gp/T//ccvmbCXw.s 			page 5


  92:../../lib/lpc11cx4-library/evt_lib/src/ltc6804.c **** 
  93:../../lib/lpc11cx4-library/evt_lib/src/ltc6804.c **** /* Clears Balance Bytes */
  94:../../lib/lpc11cx4-library/evt_lib/src/ltc6804.c **** LTC6804_STATUS_T LTC6804_WriteCFG(LTC6804_CONFIG_T *config, LTC6804_STATE_T *state, uint32_t msTick
  95:../../lib/lpc11cx4-library/evt_lib/src/ltc6804.c **** 	memcpy(state->tx_buf+4, state->cfg, 6);
  96:../../lib/lpc11cx4-library/evt_lib/src/ltc6804.c **** 	uint16_t pec = _calculate_pec(state->tx_buf+4, 6);
  97:../../lib/lpc11cx4-library/evt_lib/src/ltc6804.c **** 	state->tx_buf[10] = pec >> 8;
  98:../../lib/lpc11cx4-library/evt_lib/src/ltc6804.c **** 	state->tx_buf[11] = pec & 0xFF;
  99:../../lib/lpc11cx4-library/evt_lib/src/ltc6804.c **** 
 100:../../lib/lpc11cx4-library/evt_lib/src/ltc6804.c **** 	int i;
 101:../../lib/lpc11cx4-library/evt_lib/src/ltc6804.c **** 	for (i = 0; i < config->num_modules; i++) {
 102:../../lib/lpc11cx4-library/evt_lib/src/ltc6804.c **** 		memcpy(state->tx_buf+4+8*i, state->tx_buf+4, 8);
 103:../../lib/lpc11cx4-library/evt_lib/src/ltc6804.c **** 	}
 104:../../lib/lpc11cx4-library/evt_lib/src/ltc6804.c **** 
 105:../../lib/lpc11cx4-library/evt_lib/src/ltc6804.c **** 	return _write(config, state, WRCFG, msTicks);
 106:../../lib/lpc11cx4-library/evt_lib/src/ltc6804.c **** }
 107:../../lib/lpc11cx4-library/evt_lib/src/ltc6804.c **** 
 108:../../lib/lpc11cx4-library/evt_lib/src/ltc6804.c **** bool LTC6804_VerifyCFG(LTC6804_CONFIG_T *config, LTC6804_STATE_T *state, uint32_t msTicks) {
 109:../../lib/lpc11cx4-library/evt_lib/src/ltc6804.c **** 	LTC6804_STATUS_T res = _read(config, state, RDCFG, msTicks);
 110:../../lib/lpc11cx4-library/evt_lib/src/ltc6804.c **** 	if (res != LTC6804_PASS) return false;
 111:../../lib/lpc11cx4-library/evt_lib/src/ltc6804.c **** 
 112:../../lib/lpc11cx4-library/evt_lib/src/ltc6804.c **** 	int i;
 113:../../lib/lpc11cx4-library/evt_lib/src/ltc6804.c **** 	for (i = 0; i < config->num_modules; i++) {
 114:../../lib/lpc11cx4-library/evt_lib/src/ltc6804.c **** 		uint8_t *rx_ptr = state->rx_buf+4+8*i;
 115:../../lib/lpc11cx4-library/evt_lib/src/ltc6804.c **** 		if (rx_ptr[1] != state->cfg[1]) return false;
 116:../../lib/lpc11cx4-library/evt_lib/src/ltc6804.c **** 		if (rx_ptr[2] != state->cfg[2]) return false;
 117:../../lib/lpc11cx4-library/evt_lib/src/ltc6804.c **** 		if (rx_ptr[3] != state->cfg[3]) return false;
 118:../../lib/lpc11cx4-library/evt_lib/src/ltc6804.c **** 		if ((rx_ptr[5] & 0xF0) != (state->cfg[5] & 0xF0)) return false;
 119:../../lib/lpc11cx4-library/evt_lib/src/ltc6804.c **** 	}
 120:../../lib/lpc11cx4-library/evt_lib/src/ltc6804.c **** 
 121:../../lib/lpc11cx4-library/evt_lib/src/ltc6804.c **** 	return true;
 122:../../lib/lpc11cx4-library/evt_lib/src/ltc6804.c **** }
 123:../../lib/lpc11cx4-library/evt_lib/src/ltc6804.c **** 
 124:../../lib/lpc11cx4-library/evt_lib/src/ltc6804.c **** LTC6804_STATUS_T LTC6804_CVST(LTC6804_CONFIG_T *config, LTC6804_STATE_T *state, uint32_t msTicks) {
 125:../../lib/lpc11cx4-library/evt_lib/src/ltc6804.c **** 	if (state->adc_status == LTC6804_ADC_NONE) {
 126:../../lib/lpc11cx4-library/evt_lib/src/ltc6804.c **** 		state->adc_status = LTC6804_ADC_CVST;
 127:../../lib/lpc11cx4-library/evt_lib/src/ltc6804.c **** 	} else if (state->adc_status != LTC6804_ADC_CVST) {
 128:../../lib/lpc11cx4-library/evt_lib/src/ltc6804.c **** 		return LTC6804_WAITING;
 129:../../lib/lpc11cx4-library/evt_lib/src/ltc6804.c **** 	}
 130:../../lib/lpc11cx4-library/evt_lib/src/ltc6804.c **** 
 131:../../lib/lpc11cx4-library/evt_lib/src/ltc6804.c **** 	if (_IS_ASLEEP(state, msTicks)) {
 132:../../lib/lpc11cx4-library/evt_lib/src/ltc6804.c **** 		_wake(config, state, msTicks, false);
 133:../../lib/lpc11cx4-library/evt_lib/src/ltc6804.c **** 		return LTC6804_WAITING;
 134:../../lib/lpc11cx4-library/evt_lib/src/ltc6804.c **** 	} else if (!_IS_REFUP(state, msTicks)) {
 135:../../lib/lpc11cx4-library/evt_lib/src/ltc6804.c **** 		return LTC6804_WAITING_REFUP;
 136:../../lib/lpc11cx4-library/evt_lib/src/ltc6804.c **** 	}
 137:../../lib/lpc11cx4-library/evt_lib/src/ltc6804.c **** 
 138:../../lib/lpc11cx4-library/evt_lib/src/ltc6804.c **** 	if (!state->waiting) { // Need to send out self test command
 139:../../lib/lpc11cx4-library/evt_lib/src/ltc6804.c **** 		state->waiting = true;
 140:../../lib/lpc11cx4-library/evt_lib/src/ltc6804.c **** 		state->flight_time = msTicks;
 141:../../lib/lpc11cx4-library/evt_lib/src/ltc6804.c **** 		_command(config, state, (config->adc_mode << 7) | 0x227, msTicks);
 142:../../lib/lpc11cx4-library/evt_lib/src/ltc6804.c **** 		return LTC6804_WAITING;
 143:../../lib/lpc11cx4-library/evt_lib/src/ltc6804.c **** 	} else {
 144:../../lib/lpc11cx4-library/evt_lib/src/ltc6804.c **** 		if (msTicks - state->flight_time > state->wait_time) { // We've waited long enough
 145:../../lib/lpc11cx4-library/evt_lib/src/ltc6804.c **** 			state->waiting = false;
 146:../../lib/lpc11cx4-library/evt_lib/src/ltc6804.c **** 			state->adc_status = LTC6804_ADC_NONE;
 147:../../lib/lpc11cx4-library/evt_lib/src/ltc6804.c **** 			LTC6804_STATUS_T res;
 148:../../lib/lpc11cx4-library/evt_lib/src/ltc6804.c **** 			if ((res = _read(config, state, RDCVA, msTicks)) != LTC6804_PASS) return res;
ARM GAS  /var/folders/z0/6xlwn_996xz3mwq1cgzkbq4r0000gp/T//ccvmbCXw.s 			page 6


 149:../../lib/lpc11cx4-library/evt_lib/src/ltc6804.c **** 			if (!_check_st_results(config, state)) return LTC6804_FAIL;
 150:../../lib/lpc11cx4-library/evt_lib/src/ltc6804.c **** 			if ((res = _read(config, state, RDCVB, msTicks)) != LTC6804_PASS) return res;
 151:../../lib/lpc11cx4-library/evt_lib/src/ltc6804.c **** 			if (!_check_st_results(config, state)) return LTC6804_FAIL;
 152:../../lib/lpc11cx4-library/evt_lib/src/ltc6804.c **** 			if ((res = _read(config, state, RDCVC, msTicks)) != LTC6804_PASS) return res;
 153:../../lib/lpc11cx4-library/evt_lib/src/ltc6804.c **** 			if (!_check_st_results(config, state)) return LTC6804_FAIL;
 154:../../lib/lpc11cx4-library/evt_lib/src/ltc6804.c **** 			if ((res = _read(config, state, RDCVD, msTicks)) != LTC6804_PASS) return res;
 155:../../lib/lpc11cx4-library/evt_lib/src/ltc6804.c **** 			if (!_check_st_results(config, state)) return LTC6804_FAIL;
 156:../../lib/lpc11cx4-library/evt_lib/src/ltc6804.c **** 			return LTC6804_PASS;
 157:../../lib/lpc11cx4-library/evt_lib/src/ltc6804.c **** 		} else { // Keep Waiting
 158:../../lib/lpc11cx4-library/evt_lib/src/ltc6804.c **** 			return LTC6804_WAITING;
 159:../../lib/lpc11cx4-library/evt_lib/src/ltc6804.c **** 		}
 160:../../lib/lpc11cx4-library/evt_lib/src/ltc6804.c **** 	}
 161:../../lib/lpc11cx4-library/evt_lib/src/ltc6804.c **** }
 162:../../lib/lpc11cx4-library/evt_lib/src/ltc6804.c **** 
 163:../../lib/lpc11cx4-library/evt_lib/src/ltc6804.c **** #define LENGTH 35 // [TODO] Put in config
 164:../../lib/lpc11cx4-library/evt_lib/src/ltc6804.c **** 
 165:../../lib/lpc11cx4-library/evt_lib/src/ltc6804.c **** // [TODO] Don't break at module fail (cycle through all modules)
 166:../../lib/lpc11cx4-library/evt_lib/src/ltc6804.c **** LTC6804_STATUS_T LTC6804_OpenWireTest(LTC6804_CONFIG_T *config, LTC6804_STATE_T *state, LTC6804_OWT
 167:../../lib/lpc11cx4-library/evt_lib/src/ltc6804.c **** 
 168:../../lib/lpc11cx4-library/evt_lib/src/ltc6804.c **** 	if (state->adc_status == LTC6804_ADC_NONE) {
 169:../../lib/lpc11cx4-library/evt_lib/src/ltc6804.c **** 		state->adc_status = LTC6804_ADC_OWT;
 170:../../lib/lpc11cx4-library/evt_lib/src/ltc6804.c **** 	} else if (state->adc_status != LTC6804_ADC_OWT) {
 171:../../lib/lpc11cx4-library/evt_lib/src/ltc6804.c **** 		return LTC6804_WAITING;
 172:../../lib/lpc11cx4-library/evt_lib/src/ltc6804.c **** 	}
 173:../../lib/lpc11cx4-library/evt_lib/src/ltc6804.c **** 
 174:../../lib/lpc11cx4-library/evt_lib/src/ltc6804.c **** 	int i;
 175:../../lib/lpc11cx4-library/evt_lib/src/ltc6804.c **** 
 176:../../lib/lpc11cx4-library/evt_lib/src/ltc6804.c **** 	if (msTicks - owt_time < state->wait_time) {
 177:../../lib/lpc11cx4-library/evt_lib/src/ltc6804.c **** 		return LTC6804_WAITING;
 178:../../lib/lpc11cx4-library/evt_lib/src/ltc6804.c **** 	}
 179:../../lib/lpc11cx4-library/evt_lib/src/ltc6804.c **** 
 180:../../lib/lpc11cx4-library/evt_lib/src/ltc6804.c **** 	if (owt_state <= LENGTH) {
 181:../../lib/lpc11cx4-library/evt_lib/src/ltc6804.c **** 		owt_state++;
 182:../../lib/lpc11cx4-library/evt_lib/src/ltc6804.c **** 		owt_time = msTicks;
 183:../../lib/lpc11cx4-library/evt_lib/src/ltc6804.c **** 		_command(config, state, (config->adc_mode << 7) | 0x268, msTicks);
 184:../../lib/lpc11cx4-library/evt_lib/src/ltc6804.c **** 		return LTC6804_WAITING; 
 185:../../lib/lpc11cx4-library/evt_lib/src/ltc6804.c **** 	} else if (owt_state == LENGTH + 1) {
 186:../../lib/lpc11cx4-library/evt_lib/src/ltc6804.c **** 		uint8_t *normal_rx_ptr = state->rx_buf;
 187:../../lib/lpc11cx4-library/evt_lib/src/ltc6804.c **** 		state->rx_buf = owt_up_rx_buf[0];
 188:../../lib/lpc11cx4-library/evt_lib/src/ltc6804.c **** 		LTC6804_STATUS_T r;
 189:../../lib/lpc11cx4-library/evt_lib/src/ltc6804.c **** 		r = _read(config, state, RDCVA, msTicks);
 190:../../lib/lpc11cx4-library/evt_lib/src/ltc6804.c **** 		if (r != LTC6804_PASS) {state->rx_buf = normal_rx_ptr; return r;}
 191:../../lib/lpc11cx4-library/evt_lib/src/ltc6804.c **** 		for (i = 0; i < config->num_modules; i++) {
 192:../../lib/lpc11cx4-library/evt_lib/src/ltc6804.c **** 			uint8_t *rx_ptr = owt_up_rx_buf[0] + 4 + 8 * i;
 193:../../lib/lpc11cx4-library/evt_lib/src/ltc6804.c **** 			if (rx_ptr[0] == 0 && rx_ptr[1] == 0) {
 194:../../lib/lpc11cx4-library/evt_lib/src/ltc6804.c **** 				state->rx_buf = normal_rx_ptr;
 195:../../lib/lpc11cx4-library/evt_lib/src/ltc6804.c **** 				owt_state = 0;
 196:../../lib/lpc11cx4-library/evt_lib/src/ltc6804.c **** 				res->failed_module = i;
 197:../../lib/lpc11cx4-library/evt_lib/src/ltc6804.c **** 				res->failed_wire = 0;
 198:../../lib/lpc11cx4-library/evt_lib/src/ltc6804.c **** 				return LTC6804_FAIL;
 199:../../lib/lpc11cx4-library/evt_lib/src/ltc6804.c **** 			}
 200:../../lib/lpc11cx4-library/evt_lib/src/ltc6804.c **** 		}
 201:../../lib/lpc11cx4-library/evt_lib/src/ltc6804.c **** 		state->rx_buf = owt_up_rx_buf[1];
 202:../../lib/lpc11cx4-library/evt_lib/src/ltc6804.c **** 		r = _read(config, state, RDCVB, msTicks);
 203:../../lib/lpc11cx4-library/evt_lib/src/ltc6804.c **** 		if (r != LTC6804_PASS) {state->rx_buf = normal_rx_ptr; return r;}
 204:../../lib/lpc11cx4-library/evt_lib/src/ltc6804.c **** 		state->rx_buf = owt_up_rx_buf[2];
 205:../../lib/lpc11cx4-library/evt_lib/src/ltc6804.c **** 		r = _read(config, state, RDCVC, msTicks);
ARM GAS  /var/folders/z0/6xlwn_996xz3mwq1cgzkbq4r0000gp/T//ccvmbCXw.s 			page 7


 206:../../lib/lpc11cx4-library/evt_lib/src/ltc6804.c **** 		if (r != LTC6804_PASS) {state->rx_buf = normal_rx_ptr; return r;}
 207:../../lib/lpc11cx4-library/evt_lib/src/ltc6804.c **** 		state->rx_buf = owt_up_rx_buf[3];
 208:../../lib/lpc11cx4-library/evt_lib/src/ltc6804.c **** 		r = _read(config, state, RDCVD, msTicks);
 209:../../lib/lpc11cx4-library/evt_lib/src/ltc6804.c **** 		if (r != LTC6804_PASS) {state->rx_buf = normal_rx_ptr; return r;}
 210:../../lib/lpc11cx4-library/evt_lib/src/ltc6804.c **** 		state->rx_buf = normal_rx_ptr;
 211:../../lib/lpc11cx4-library/evt_lib/src/ltc6804.c **** 		owt_state++;
 212:../../lib/lpc11cx4-library/evt_lib/src/ltc6804.c **** 		owt_time = msTicks;
 213:../../lib/lpc11cx4-library/evt_lib/src/ltc6804.c **** 		_command(config, state, (config->adc_mode << 7) | 0x228, msTicks);
 214:../../lib/lpc11cx4-library/evt_lib/src/ltc6804.c **** 		return LTC6804_WAITING;
 215:../../lib/lpc11cx4-library/evt_lib/src/ltc6804.c **** 	} else if (owt_state <= LENGTH*2) {
 216:../../lib/lpc11cx4-library/evt_lib/src/ltc6804.c **** 		owt_state++;
 217:../../lib/lpc11cx4-library/evt_lib/src/ltc6804.c **** 		owt_time = msTicks;
 218:../../lib/lpc11cx4-library/evt_lib/src/ltc6804.c **** 		_command(config, state, (config->adc_mode << 7) | 0x228, msTicks);
 219:../../lib/lpc11cx4-library/evt_lib/src/ltc6804.c **** 		return LTC6804_WAITING;
 220:../../lib/lpc11cx4-library/evt_lib/src/ltc6804.c **** 	} else if (owt_state == LENGTH*2 + 1) {
 221:../../lib/lpc11cx4-library/evt_lib/src/ltc6804.c **** 		state->adc_status = LTC6804_ADC_NONE;
 222:../../lib/lpc11cx4-library/evt_lib/src/ltc6804.c **** 		LTC6804_STATUS_T r;
 223:../../lib/lpc11cx4-library/evt_lib/src/ltc6804.c **** 		for (i = 0; i < 4; i++) {
 224:../../lib/lpc11cx4-library/evt_lib/src/ltc6804.c **** 			r = _read(config, state, RDCVA+2*i, msTicks);
 225:../../lib/lpc11cx4-library/evt_lib/src/ltc6804.c **** 			if (r != LTC6804_PASS) {return r;}
 226:../../lib/lpc11cx4-library/evt_lib/src/ltc6804.c **** 			if (!_check_owt(config, res, owt_up_rx_buf[i], state->rx_buf)) {
 227:../../lib/lpc11cx4-library/evt_lib/src/ltc6804.c **** 				owt_state = 0;
 228:../../lib/lpc11cx4-library/evt_lib/src/ltc6804.c **** 				res->failed_wire += 3*i;
 229:../../lib/lpc11cx4-library/evt_lib/src/ltc6804.c **** 				return LTC6804_FAIL;
 230:../../lib/lpc11cx4-library/evt_lib/src/ltc6804.c **** 			}
 231:../../lib/lpc11cx4-library/evt_lib/src/ltc6804.c **** 		}
 232:../../lib/lpc11cx4-library/evt_lib/src/ltc6804.c **** 		for (i = 0; i < config->num_modules; i++) {
 233:../../lib/lpc11cx4-library/evt_lib/src/ltc6804.c **** 			uint8_t *rx_ptr = state->rx_buf + 4 + 8 * i;
 234:../../lib/lpc11cx4-library/evt_lib/src/ltc6804.c **** 			if (rx_ptr[5] == 0 && rx_ptr[4] == 0) {
 235:../../lib/lpc11cx4-library/evt_lib/src/ltc6804.c **** 				owt_state = 0;
 236:../../lib/lpc11cx4-library/evt_lib/src/ltc6804.c **** 				res->failed_module = i;
 237:../../lib/lpc11cx4-library/evt_lib/src/ltc6804.c **** 				res->failed_wire = 12;
 238:../../lib/lpc11cx4-library/evt_lib/src/ltc6804.c **** 				return LTC6804_FAIL;
 239:../../lib/lpc11cx4-library/evt_lib/src/ltc6804.c **** 			}
 240:../../lib/lpc11cx4-library/evt_lib/src/ltc6804.c **** 
 241:../../lib/lpc11cx4-library/evt_lib/src/ltc6804.c **** 		}
 242:../../lib/lpc11cx4-library/evt_lib/src/ltc6804.c **** 		owt_state = 0;
 243:../../lib/lpc11cx4-library/evt_lib/src/ltc6804.c **** 		owt_time = msTicks;
 244:../../lib/lpc11cx4-library/evt_lib/src/ltc6804.c **** 		return LTC6804_PASS;
 245:../../lib/lpc11cx4-library/evt_lib/src/ltc6804.c **** 	} else {
 246:../../lib/lpc11cx4-library/evt_lib/src/ltc6804.c **** 		return LTC6804_FAIL;
 247:../../lib/lpc11cx4-library/evt_lib/src/ltc6804.c **** 	}
 248:../../lib/lpc11cx4-library/evt_lib/src/ltc6804.c **** }
 249:../../lib/lpc11cx4-library/evt_lib/src/ltc6804.c **** 
 250:../../lib/lpc11cx4-library/evt_lib/src/ltc6804.c **** // Once updates on change
 251:../../lib/lpc11cx4-library/evt_lib/src/ltc6804.c **** LTC6804_STATUS_T LTC6804_UpdateBalanceStates(LTC6804_CONFIG_T *config, LTC6804_STATE_T *state, bool
 252:../../lib/lpc11cx4-library/evt_lib/src/ltc6804.c ****   // if (should_zero_balance) {
 253:../../lib/lpc11cx4-library/evt_lib/src/ltc6804.c ****   //   balance_req = zero_vector;
 254:../../lib/lpc11cx4-library/evt_lib/src/ltc6804.c ****   // }
 255:../../lib/lpc11cx4-library/evt_lib/src/ltc6804.c **** 	bool *bal_ptr = balance_req;
 256:../../lib/lpc11cx4-library/evt_lib/src/ltc6804.c **** 	bool change = false;
 257:../../lib/lpc11cx4-library/evt_lib/src/ltc6804.c **** 	int i, j;
 258:../../lib/lpc11cx4-library/evt_lib/src/ltc6804.c **** 	state->balancing = false;
 259:../../lib/lpc11cx4-library/evt_lib/src/ltc6804.c **** 	for (i = 0; i < config->num_modules; i++) {
 260:../../lib/lpc11cx4-library/evt_lib/src/ltc6804.c **** 		uint16_t bal_temp = 0;
 261:../../lib/lpc11cx4-library/evt_lib/src/ltc6804.c **** 		for (j = 0; j < config->module_cell_count[i]; j++) {
 262:../../lib/lpc11cx4-library/evt_lib/src/ltc6804.c **** 			bal_temp |= bal_ptr[0] << j;
ARM GAS  /var/folders/z0/6xlwn_996xz3mwq1cgzkbq4r0000gp/T//ccvmbCXw.s 			page 8


 263:../../lib/lpc11cx4-library/evt_lib/src/ltc6804.c **** 			bal_ptr++;
 264:../../lib/lpc11cx4-library/evt_lib/src/ltc6804.c **** 		}
 265:../../lib/lpc11cx4-library/evt_lib/src/ltc6804.c **** 		if (bal_temp != state->bal_list[i]) {
 266:../../lib/lpc11cx4-library/evt_lib/src/ltc6804.c **** 			change = true;
 267:../../lib/lpc11cx4-library/evt_lib/src/ltc6804.c **** 			state->bal_list[i] = bal_temp;
 268:../../lib/lpc11cx4-library/evt_lib/src/ltc6804.c **** 		}
 269:../../lib/lpc11cx4-library/evt_lib/src/ltc6804.c **** 		if (state->bal_list[i]) state->balancing = true;
 270:../../lib/lpc11cx4-library/evt_lib/src/ltc6804.c **** 	}
 271:../../lib/lpc11cx4-library/evt_lib/src/ltc6804.c **** 
 272:../../lib/lpc11cx4-library/evt_lib/src/ltc6804.c **** 	if (change) {
 273:../../lib/lpc11cx4-library/evt_lib/src/ltc6804.c **** 		return _set_balance_states(config, state, msTicks);
 274:../../lib/lpc11cx4-library/evt_lib/src/ltc6804.c **** 	} else {
 275:../../lib/lpc11cx4-library/evt_lib/src/ltc6804.c **** 		return LTC6804_PASS;
 276:../../lib/lpc11cx4-library/evt_lib/src/ltc6804.c **** 	}
 277:../../lib/lpc11cx4-library/evt_lib/src/ltc6804.c **** }
 278:../../lib/lpc11cx4-library/evt_lib/src/ltc6804.c **** 
 279:../../lib/lpc11cx4-library/evt_lib/src/ltc6804.c **** LTC6804_STATUS_T LTC6804_SetGPIOState(LTC6804_CONFIG_T *config, LTC6804_STATE_T *state, uint8_t gpi
 280:../../lib/lpc11cx4-library/evt_lib/src/ltc6804.c **** 	// valid gpio range: 1 <= gpio <= 5
 281:../../lib/lpc11cx4-library/evt_lib/src/ltc6804.c **** 	if (gpio > 5 || gpio < 1) {
 282:../../lib/lpc11cx4-library/evt_lib/src/ltc6804.c **** 		return LTC6804_FAIL;
 283:../../lib/lpc11cx4-library/evt_lib/src/ltc6804.c **** 	}
 284:../../lib/lpc11cx4-library/evt_lib/src/ltc6804.c **** 
 285:../../lib/lpc11cx4-library/evt_lib/src/ltc6804.c **** 	if ((val & 1) == ((state->cfg[0] >> (2 + gpio)) & 1)) {
 286:../../lib/lpc11cx4-library/evt_lib/src/ltc6804.c **** 		// No Change
 287:../../lib/lpc11cx4-library/evt_lib/src/ltc6804.c **** 		return LTC6804_PASS;
 288:../../lib/lpc11cx4-library/evt_lib/src/ltc6804.c **** 	} else {
 289:../../lib/lpc11cx4-library/evt_lib/src/ltc6804.c **** 		if (val)
 290:../../lib/lpc11cx4-library/evt_lib/src/ltc6804.c **** 			state->cfg[0] |= 1 << (gpio + 2);
 291:../../lib/lpc11cx4-library/evt_lib/src/ltc6804.c **** 		else
 292:../../lib/lpc11cx4-library/evt_lib/src/ltc6804.c **** 			state->cfg[0] &= ~(1 << (gpio + 2));
 293:../../lib/lpc11cx4-library/evt_lib/src/ltc6804.c **** 
 294:../../lib/lpc11cx4-library/evt_lib/src/ltc6804.c **** 		return _set_balance_states(config, state, msTicks);
 295:../../lib/lpc11cx4-library/evt_lib/src/ltc6804.c **** 	}
 296:../../lib/lpc11cx4-library/evt_lib/src/ltc6804.c **** }
 297:../../lib/lpc11cx4-library/evt_lib/src/ltc6804.c **** 
 298:../../lib/lpc11cx4-library/evt_lib/src/ltc6804.c **** // [TODO] Clear cell votlages and only return pass when recieving not all FF
 299:../../lib/lpc11cx4-library/evt_lib/src/ltc6804.c **** LTC6804_STATUS_T LTC6804_GetCellVoltages(LTC6804_CONFIG_T *config, LTC6804_STATE_T *state, LTC6804_
 300:../../lib/lpc11cx4-library/evt_lib/src/ltc6804.c **** 	if (state->adc_status == LTC6804_ADC_NONE) {
 301:../../lib/lpc11cx4-library/evt_lib/src/ltc6804.c **** 		state->adc_status = LTC6804_ADC_GCV;
 302:../../lib/lpc11cx4-library/evt_lib/src/ltc6804.c **** 	} else if (state->adc_status != LTC6804_ADC_GCV) {
 303:../../lib/lpc11cx4-library/evt_lib/src/ltc6804.c **** 		return LTC6804_WAITING;
 304:../../lib/lpc11cx4-library/evt_lib/src/ltc6804.c **** 	}
 305:../../lib/lpc11cx4-library/evt_lib/src/ltc6804.c **** 
 306:../../lib/lpc11cx4-library/evt_lib/src/ltc6804.c **** 	if (_IS_ASLEEP(state, msTicks)) {
 307:../../lib/lpc11cx4-library/evt_lib/src/ltc6804.c **** 		_wake(config, state, msTicks, false);
 308:../../lib/lpc11cx4-library/evt_lib/src/ltc6804.c **** 		return LTC6804_WAITING;
 309:../../lib/lpc11cx4-library/evt_lib/src/ltc6804.c **** 	} else if (!_IS_REFUP(state, msTicks)) {
 310:../../lib/lpc11cx4-library/evt_lib/src/ltc6804.c **** 		return LTC6804_WAITING_REFUP;
 311:../../lib/lpc11cx4-library/evt_lib/src/ltc6804.c **** 	}
 312:../../lib/lpc11cx4-library/evt_lib/src/ltc6804.c **** 
 313:../../lib/lpc11cx4-library/evt_lib/src/ltc6804.c ****   // if (!state->waiting && !should_zero_balance) { // Need to pause balancing to read
 314:../../lib/lpc11cx4-library/evt_lib/src/ltc6804.c ****   //   should_zero_balance = true;
 315:../../lib/lpc11cx4-library/evt_lib/src/ltc6804.c ****   //   LTC6804_UpdateBalanceStates(config, state, zero_vector, msTicks);
 316:../../lib/lpc11cx4-library/evt_lib/src/ltc6804.c ****   //   return LTC6804_WAITING;
 317:../../lib/lpc11cx4-library/evt_lib/src/ltc6804.c ****   // }
 318:../../lib/lpc11cx4-library/evt_lib/src/ltc6804.c **** 
 319:../../lib/lpc11cx4-library/evt_lib/src/ltc6804.c ****   	if (!state->waiting) { // Actually get voltages
ARM GAS  /var/folders/z0/6xlwn_996xz3mwq1cgzkbq4r0000gp/T//ccvmbCXw.s 			page 9


 320:../../lib/lpc11cx4-library/evt_lib/src/ltc6804.c **** 		state->waiting = true;
 321:../../lib/lpc11cx4-library/evt_lib/src/ltc6804.c **** 		state->flight_time = msTicks;
 322:../../lib/lpc11cx4-library/evt_lib/src/ltc6804.c **** 		_command(config, state, (config->adc_mode << 7) | 0x260, msTicks); // ADCV, All Channels, DCP=1
 323:../../lib/lpc11cx4-library/evt_lib/src/ltc6804.c **** 		return LTC6804_WAITING;
 324:../../lib/lpc11cx4-library/evt_lib/src/ltc6804.c **** 	} else {
 325:../../lib/lpc11cx4-library/evt_lib/src/ltc6804.c ****     // should_zero_balance = false;
 326:../../lib/lpc11cx4-library/evt_lib/src/ltc6804.c **** 		if (msTicks - state->flight_time > state->wait_time) { // We've waited long enough
 327:../../lib/lpc11cx4-library/evt_lib/src/ltc6804.c **** 			state->waiting = false;
 328:../../lib/lpc11cx4-library/evt_lib/src/ltc6804.c **** 			int i, j;
 329:../../lib/lpc11cx4-library/evt_lib/src/ltc6804.c **** 			uint32_t *vol_ptr = res->cell_voltages_mV;
 330:../../lib/lpc11cx4-library/evt_lib/src/ltc6804.c **** 			uint32_t min = UINT32_MAX;
 331:../../lib/lpc11cx4-library/evt_lib/src/ltc6804.c **** 			uint32_t max = 0;
 332:../../lib/lpc11cx4-library/evt_lib/src/ltc6804.c **** 			uint16_t failed_read = 0xFFFF;
 333:../../lib/lpc11cx4-library/evt_lib/src/ltc6804.c **** 			// Read a cell voltage group
 334:../../lib/lpc11cx4-library/evt_lib/src/ltc6804.c **** 				// For each module, calculate head of module voltage group
 335:../../lib/lpc11cx4-library/evt_lib/src/ltc6804.c **** 				// vol_ptr is pointer to head of module cell group voltages
 336:../../lib/lpc11cx4-library/evt_lib/src/ltc6804.c **** 			LTC6804_STATUS_T r;
 337:../../lib/lpc11cx4-library/evt_lib/src/ltc6804.c **** 			r = _read(config, state, RDCVA, msTicks);
 338:../../lib/lpc11cx4-library/evt_lib/src/ltc6804.c **** 			if (r == LTC6804_PEC_ERROR) return r;
 339:../../lib/lpc11cx4-library/evt_lib/src/ltc6804.c **** 			for (i = 0; i < config->num_modules; i++) {
 340:../../lib/lpc11cx4-library/evt_lib/src/ltc6804.c **** 				uint8_t *rx_ptr = state->rx_buf + 4 + 8 * i;
 341:../../lib/lpc11cx4-library/evt_lib/src/ltc6804.c **** 				for (j = 0; j < config->module_cell_count[i] && j < 3; j++) {
 342:../../lib/lpc11cx4-library/evt_lib/src/ltc6804.c **** 					uint16_t vol = (rx_ptr[2 * j + 1] << 8 | rx_ptr[2 * j]);
 343:../../lib/lpc11cx4-library/evt_lib/src/ltc6804.c **** 					failed_read &= vol;
 344:../../lib/lpc11cx4-library/evt_lib/src/ltc6804.c **** 					vol_ptr[j] = divu10(vol);
 345:../../lib/lpc11cx4-library/evt_lib/src/ltc6804.c **** 					max = (vol_ptr[j] > max) ? vol_ptr[j] : max;
 346:../../lib/lpc11cx4-library/evt_lib/src/ltc6804.c **** 					min = (vol_ptr[j] < min) ? vol_ptr[j] : min;
 347:../../lib/lpc11cx4-library/evt_lib/src/ltc6804.c **** 				}
 348:../../lib/lpc11cx4-library/evt_lib/src/ltc6804.c **** 				vol_ptr = vol_ptr + config->module_cell_count[i];
 349:../../lib/lpc11cx4-library/evt_lib/src/ltc6804.c **** 			}
 350:../../lib/lpc11cx4-library/evt_lib/src/ltc6804.c **** 
 351:../../lib/lpc11cx4-library/evt_lib/src/ltc6804.c **** 			r = _read(config, state, RDCVB, msTicks);
 352:../../lib/lpc11cx4-library/evt_lib/src/ltc6804.c **** 			if (r == LTC6804_PEC_ERROR) return r;
 353:../../lib/lpc11cx4-library/evt_lib/src/ltc6804.c **** 			vol_ptr = res->cell_voltages_mV;
 354:../../lib/lpc11cx4-library/evt_lib/src/ltc6804.c **** 			for (i = 0; i < config->num_modules; i++) {
 355:../../lib/lpc11cx4-library/evt_lib/src/ltc6804.c **** 				uint8_t *rx_ptr = state->rx_buf + 4 + 8 * i;
 356:../../lib/lpc11cx4-library/evt_lib/src/ltc6804.c **** 				for (j = 0; j + 3 < config->module_cell_count[i] && j < 3; j++) {
 357:../../lib/lpc11cx4-library/evt_lib/src/ltc6804.c **** 					uint16_t vol = (rx_ptr[2 * j + 1] << 8 | rx_ptr[2 * j]);
 358:../../lib/lpc11cx4-library/evt_lib/src/ltc6804.c **** 					failed_read &= vol;
 359:../../lib/lpc11cx4-library/evt_lib/src/ltc6804.c **** 					vol_ptr[j + 3] = divu10(vol);
 360:../../lib/lpc11cx4-library/evt_lib/src/ltc6804.c **** 					max = (vol_ptr[j + 3] > max) ? vol_ptr[j + 3] : max;
 361:../../lib/lpc11cx4-library/evt_lib/src/ltc6804.c **** 					min = (vol_ptr[j + 3] < min) ? vol_ptr[j + 3] : min;
 362:../../lib/lpc11cx4-library/evt_lib/src/ltc6804.c **** 				} 
 363:../../lib/lpc11cx4-library/evt_lib/src/ltc6804.c **** 				vol_ptr = vol_ptr + config->module_cell_count[i];
 364:../../lib/lpc11cx4-library/evt_lib/src/ltc6804.c **** 			}
 365:../../lib/lpc11cx4-library/evt_lib/src/ltc6804.c **** 
 366:../../lib/lpc11cx4-library/evt_lib/src/ltc6804.c **** 			r = _read(config, state, RDCVC, msTicks);
 367:../../lib/lpc11cx4-library/evt_lib/src/ltc6804.c **** 			if (r == LTC6804_PEC_ERROR) return r;
 368:../../lib/lpc11cx4-library/evt_lib/src/ltc6804.c **** 			vol_ptr = res->cell_voltages_mV;
 369:../../lib/lpc11cx4-library/evt_lib/src/ltc6804.c **** 			for (i = 0; i < config->num_modules; i++) {
 370:../../lib/lpc11cx4-library/evt_lib/src/ltc6804.c **** 				uint8_t *rx_ptr = state->rx_buf + 4 + 8 * i;
 371:../../lib/lpc11cx4-library/evt_lib/src/ltc6804.c **** 				for (j = 0; j + 6 < config->module_cell_count[i] && j < 3; j++) {
 372:../../lib/lpc11cx4-library/evt_lib/src/ltc6804.c **** 					uint16_t vol = (rx_ptr[2 * j + 1] << 8 | rx_ptr[2 * j]);
 373:../../lib/lpc11cx4-library/evt_lib/src/ltc6804.c **** 					failed_read &= vol;
 374:../../lib/lpc11cx4-library/evt_lib/src/ltc6804.c **** 					vol_ptr[j + 6] = divu10(vol);
 375:../../lib/lpc11cx4-library/evt_lib/src/ltc6804.c **** 					max = (vol_ptr[j + 6] > max) ? vol_ptr[j + 6] : max;
 376:../../lib/lpc11cx4-library/evt_lib/src/ltc6804.c **** 					min = (vol_ptr[j + 6] < min) ? vol_ptr[j + 6] : min;
ARM GAS  /var/folders/z0/6xlwn_996xz3mwq1cgzkbq4r0000gp/T//ccvmbCXw.s 			page 10


 377:../../lib/lpc11cx4-library/evt_lib/src/ltc6804.c **** 				} 
 378:../../lib/lpc11cx4-library/evt_lib/src/ltc6804.c **** 				vol_ptr = vol_ptr + config->module_cell_count[i];
 379:../../lib/lpc11cx4-library/evt_lib/src/ltc6804.c **** 			}
 380:../../lib/lpc11cx4-library/evt_lib/src/ltc6804.c **** 			
 381:../../lib/lpc11cx4-library/evt_lib/src/ltc6804.c **** 			r = _read(config, state, RDCVD, msTicks);
 382:../../lib/lpc11cx4-library/evt_lib/src/ltc6804.c **** 			if (r == LTC6804_PEC_ERROR) return r;
 383:../../lib/lpc11cx4-library/evt_lib/src/ltc6804.c **** 			vol_ptr = res->cell_voltages_mV;
 384:../../lib/lpc11cx4-library/evt_lib/src/ltc6804.c **** 			for (i = 0; i < config->num_modules; i++) {
 385:../../lib/lpc11cx4-library/evt_lib/src/ltc6804.c **** 				uint8_t *rx_ptr = state->rx_buf + 4 + 8 * i;
 386:../../lib/lpc11cx4-library/evt_lib/src/ltc6804.c **** 				for (j = 0; j + 9 < config->module_cell_count[i] && j < 3; j++) {
 387:../../lib/lpc11cx4-library/evt_lib/src/ltc6804.c **** 					uint16_t vol = (rx_ptr[2 * j + 1] << 8 | rx_ptr[2 * j]);
 388:../../lib/lpc11cx4-library/evt_lib/src/ltc6804.c **** 					failed_read &= vol;
 389:../../lib/lpc11cx4-library/evt_lib/src/ltc6804.c **** 					vol_ptr[j + 9] = divu10(vol);
 390:../../lib/lpc11cx4-library/evt_lib/src/ltc6804.c **** 					max = (vol_ptr[j + 9] > max) ? vol_ptr[j + 9] : max;
 391:../../lib/lpc11cx4-library/evt_lib/src/ltc6804.c **** 					min = (vol_ptr[j + 9] < min) ? vol_ptr[j + 9] : min;
 392:../../lib/lpc11cx4-library/evt_lib/src/ltc6804.c **** 				} 
 393:../../lib/lpc11cx4-library/evt_lib/src/ltc6804.c **** 				vol_ptr = vol_ptr + config->module_cell_count[i];
 394:../../lib/lpc11cx4-library/evt_lib/src/ltc6804.c **** 			}
 395:../../lib/lpc11cx4-library/evt_lib/src/ltc6804.c **** 
 396:../../lib/lpc11cx4-library/evt_lib/src/ltc6804.c **** 			state->adc_status = LTC6804_ADC_NONE;
 397:../../lib/lpc11cx4-library/evt_lib/src/ltc6804.c **** 
 398:../../lib/lpc11cx4-library/evt_lib/src/ltc6804.c **** 			if (failed_read == 0xFFFF) {
 399:../../lib/lpc11cx4-library/evt_lib/src/ltc6804.c **** 				return LTC6804_FAIL;
 400:../../lib/lpc11cx4-library/evt_lib/src/ltc6804.c **** 			}
 401:../../lib/lpc11cx4-library/evt_lib/src/ltc6804.c **** 
 402:../../lib/lpc11cx4-library/evt_lib/src/ltc6804.c **** 			res->pack_cell_max_mV = max;
 403:../../lib/lpc11cx4-library/evt_lib/src/ltc6804.c **** 			res->pack_cell_min_mV = min;
 404:../../lib/lpc11cx4-library/evt_lib/src/ltc6804.c **** 			return LTC6804_PASS;
 405:../../lib/lpc11cx4-library/evt_lib/src/ltc6804.c **** 		} else { // Keep Waiting
 406:../../lib/lpc11cx4-library/evt_lib/src/ltc6804.c **** 			return LTC6804_WAITING;
 407:../../lib/lpc11cx4-library/evt_lib/src/ltc6804.c **** 		}
 408:../../lib/lpc11cx4-library/evt_lib/src/ltc6804.c **** 	}
 409:../../lib/lpc11cx4-library/evt_lib/src/ltc6804.c **** }
 410:../../lib/lpc11cx4-library/evt_lib/src/ltc6804.c **** 
 411:../../lib/lpc11cx4-library/evt_lib/src/ltc6804.c **** LTC6804_STATUS_T LTC6804_ClearCellVoltages(LTC6804_CONFIG_T *config, LTC6804_STATE_T *state, uint32
 412:../../lib/lpc11cx4-library/evt_lib/src/ltc6804.c **** 	return _command(config, state, CLRCELL, msTicks);
 413:../../lib/lpc11cx4-library/evt_lib/src/ltc6804.c **** }
 414:../../lib/lpc11cx4-library/evt_lib/src/ltc6804.c **** 
 415:../../lib/lpc11cx4-library/evt_lib/src/ltc6804.c **** LTC6804_STATUS_T LTC6804_GetGPIOVoltages(LTC6804_CONFIG_T *config, LTC6804_STATE_T *state, uint32_t
 416:../../lib/lpc11cx4-library/evt_lib/src/ltc6804.c **** 	if (state->adc_status == LTC6804_ADC_NONE) {
 417:../../lib/lpc11cx4-library/evt_lib/src/ltc6804.c **** 		state->adc_status = LTC6804_ADC_GPIO;
 418:../../lib/lpc11cx4-library/evt_lib/src/ltc6804.c **** 	} else if (state->adc_status != LTC6804_ADC_GPIO) {
 419:../../lib/lpc11cx4-library/evt_lib/src/ltc6804.c **** 		return LTC6804_WAITING;
 420:../../lib/lpc11cx4-library/evt_lib/src/ltc6804.c **** 	}
 421:../../lib/lpc11cx4-library/evt_lib/src/ltc6804.c **** 
 422:../../lib/lpc11cx4-library/evt_lib/src/ltc6804.c **** 	if (_IS_ASLEEP(state, msTicks)) {
 423:../../lib/lpc11cx4-library/evt_lib/src/ltc6804.c **** 		_wake(config, state, msTicks, false);
 424:../../lib/lpc11cx4-library/evt_lib/src/ltc6804.c **** 		return LTC6804_WAITING;
 425:../../lib/lpc11cx4-library/evt_lib/src/ltc6804.c **** 	} else if (!_IS_REFUP(state, msTicks)) {
 426:../../lib/lpc11cx4-library/evt_lib/src/ltc6804.c **** 		return LTC6804_WAITING_REFUP;
 427:../../lib/lpc11cx4-library/evt_lib/src/ltc6804.c **** 	}
 428:../../lib/lpc11cx4-library/evt_lib/src/ltc6804.c **** 
 429:../../lib/lpc11cx4-library/evt_lib/src/ltc6804.c **** 	if (!state->waiting) { // Need to send out self test command
 430:../../lib/lpc11cx4-library/evt_lib/src/ltc6804.c **** 		state->waiting = true;
 431:../../lib/lpc11cx4-library/evt_lib/src/ltc6804.c **** 		state->flight_time = msTicks;
 432:../../lib/lpc11cx4-library/evt_lib/src/ltc6804.c **** 		_command(config, state, (config->adc_mode << 7) | 0x460, msTicks); // ADAX, All Channels
 433:../../lib/lpc11cx4-library/evt_lib/src/ltc6804.c **** 		return LTC6804_WAITING;
ARM GAS  /var/folders/z0/6xlwn_996xz3mwq1cgzkbq4r0000gp/T//ccvmbCXw.s 			page 11


 434:../../lib/lpc11cx4-library/evt_lib/src/ltc6804.c **** 	} else {
 435:../../lib/lpc11cx4-library/evt_lib/src/ltc6804.c **** 		if (msTicks - state->flight_time > state->wait_time) { // We've waited long enough
 436:../../lib/lpc11cx4-library/evt_lib/src/ltc6804.c **** 			state->waiting = false;
 437:../../lib/lpc11cx4-library/evt_lib/src/ltc6804.c **** 			int i;
 438:../../lib/lpc11cx4-library/evt_lib/src/ltc6804.c **** 			uint32_t *vol_ptr = res;
 439:../../lib/lpc11cx4-library/evt_lib/src/ltc6804.c **** 			uint16_t failed_read = 0xFFFF;
 440:../../lib/lpc11cx4-library/evt_lib/src/ltc6804.c **** 			// Read a cell voltage group
 441:../../lib/lpc11cx4-library/evt_lib/src/ltc6804.c **** 				// For each module, calculate head of module voltage group
 442:../../lib/lpc11cx4-library/evt_lib/src/ltc6804.c **** 				// vol_ptr is pointer to head of module cell group voltages
 443:../../lib/lpc11cx4-library/evt_lib/src/ltc6804.c **** 			LTC6804_STATUS_T r;
 444:../../lib/lpc11cx4-library/evt_lib/src/ltc6804.c **** 			r = _read(config, state, RDAUXA, msTicks);
 445:../../lib/lpc11cx4-library/evt_lib/src/ltc6804.c **** 			if (r == LTC6804_PEC_ERROR) return r;
 446:../../lib/lpc11cx4-library/evt_lib/src/ltc6804.c **** 			for (i = 0; i < config->num_modules; i++) {
 447:../../lib/lpc11cx4-library/evt_lib/src/ltc6804.c **** 				uint8_t *rx_ptr = state->rx_buf + 4 + 8 * i;
 448:../../lib/lpc11cx4-library/evt_lib/src/ltc6804.c **** 				vol_ptr[0] = rx_ptr[0] | (rx_ptr[1] << 8); failed_read &= vol_ptr[0]; vol_ptr[0] = divu10(vol_p
 449:../../lib/lpc11cx4-library/evt_lib/src/ltc6804.c **** 				vol_ptr[1] = rx_ptr[2] | (rx_ptr[3] << 8); failed_read &= vol_ptr[0]; vol_ptr[1] = divu10(vol_p
 450:../../lib/lpc11cx4-library/evt_lib/src/ltc6804.c **** 				vol_ptr[2] = rx_ptr[4] | (rx_ptr[5] << 8); failed_read &= vol_ptr[0]; vol_ptr[2] = divu10(vol_p
 451:../../lib/lpc11cx4-library/evt_lib/src/ltc6804.c **** 				vol_ptr = vol_ptr + 5; // Num GPIOs
 452:../../lib/lpc11cx4-library/evt_lib/src/ltc6804.c **** 			}
 453:../../lib/lpc11cx4-library/evt_lib/src/ltc6804.c **** 
 454:../../lib/lpc11cx4-library/evt_lib/src/ltc6804.c **** 			vol_ptr = res;
 455:../../lib/lpc11cx4-library/evt_lib/src/ltc6804.c **** 			r = _read(config, state, RDAUXB, msTicks);
 456:../../lib/lpc11cx4-library/evt_lib/src/ltc6804.c **** 			if (r == LTC6804_PEC_ERROR) return r;
 457:../../lib/lpc11cx4-library/evt_lib/src/ltc6804.c **** 			for (i = 0; i < config->num_modules; i++) {
 458:../../lib/lpc11cx4-library/evt_lib/src/ltc6804.c **** 				uint8_t *rx_ptr = state->rx_buf + 4 + 8 * i;
 459:../../lib/lpc11cx4-library/evt_lib/src/ltc6804.c **** 				vol_ptr[3] = rx_ptr[0] | (rx_ptr[1] << 8); failed_read &= vol_ptr[0]; vol_ptr[3] = divu10(vol_p
 460:../../lib/lpc11cx4-library/evt_lib/src/ltc6804.c **** 				vol_ptr[4] = rx_ptr[2] | (rx_ptr[3] << 8); failed_read &= vol_ptr[0]; vol_ptr[4] = divu10(vol_p
 461:../../lib/lpc11cx4-library/evt_lib/src/ltc6804.c **** 				vol_ptr = vol_ptr + 5; // Num GPIOs
 462:../../lib/lpc11cx4-library/evt_lib/src/ltc6804.c **** 			}
 463:../../lib/lpc11cx4-library/evt_lib/src/ltc6804.c **** 
 464:../../lib/lpc11cx4-library/evt_lib/src/ltc6804.c **** 			state->adc_status = LTC6804_ADC_NONE;
 465:../../lib/lpc11cx4-library/evt_lib/src/ltc6804.c **** 
 466:../../lib/lpc11cx4-library/evt_lib/src/ltc6804.c **** 			if (failed_read == 0xFFFF) {
 467:../../lib/lpc11cx4-library/evt_lib/src/ltc6804.c **** 				return LTC6804_FAIL;
 468:../../lib/lpc11cx4-library/evt_lib/src/ltc6804.c **** 			}
 469:../../lib/lpc11cx4-library/evt_lib/src/ltc6804.c **** 
 470:../../lib/lpc11cx4-library/evt_lib/src/ltc6804.c **** 			return LTC6804_PASS;
 471:../../lib/lpc11cx4-library/evt_lib/src/ltc6804.c **** 		} else { // Keep Waiting
 472:../../lib/lpc11cx4-library/evt_lib/src/ltc6804.c **** 			return LTC6804_WAITING;
 473:../../lib/lpc11cx4-library/evt_lib/src/ltc6804.c **** 		}
 474:../../lib/lpc11cx4-library/evt_lib/src/ltc6804.c **** 	}
 475:../../lib/lpc11cx4-library/evt_lib/src/ltc6804.c **** }
 476:../../lib/lpc11cx4-library/evt_lib/src/ltc6804.c **** /***************************************
 477:../../lib/lpc11cx4-library/evt_lib/src/ltc6804.c **** 		Private Functions
 478:../../lib/lpc11cx4-library/evt_lib/src/ltc6804.c **** ****************************************/
 479:../../lib/lpc11cx4-library/evt_lib/src/ltc6804.c **** 
 480:../../lib/lpc11cx4-library/evt_lib/src/ltc6804.c **** LTC6804_STATUS_T _command(LTC6804_CONFIG_T *config, LTC6804_STATE_T *state, uint16_t cmd, uint32_t 
 481:../../lib/lpc11cx4-library/evt_lib/src/ltc6804.c **** 	_wake(config, state, msTicks, false);
 482:../../lib/lpc11cx4-library/evt_lib/src/ltc6804.c **** 
 483:../../lib/lpc11cx4-library/evt_lib/src/ltc6804.c **** 	state->tx_buf[0] = cmd >> 8;
 484:../../lib/lpc11cx4-library/evt_lib/src/ltc6804.c **** 	state->tx_buf[1] = cmd & 0xFF;
 485:../../lib/lpc11cx4-library/evt_lib/src/ltc6804.c **** 	uint16_t pec = _calculate_pec(state->tx_buf, 2);
 486:../../lib/lpc11cx4-library/evt_lib/src/ltc6804.c **** 	state->tx_buf[2] = pec >> 8;
 487:../../lib/lpc11cx4-library/evt_lib/src/ltc6804.c **** 	state->tx_buf[3] = pec & 0xFF;
 488:../../lib/lpc11cx4-library/evt_lib/src/ltc6804.c **** 
 489:../../lib/lpc11cx4-library/evt_lib/src/ltc6804.c **** 	state->last_message = msTicks;
 490:../../lib/lpc11cx4-library/evt_lib/src/ltc6804.c **** 	Chip_GPIO_SetPinState(LPC_GPIO, config->cs_gpio, config->cs_pin, false);
ARM GAS  /var/folders/z0/6xlwn_996xz3mwq1cgzkbq4r0000gp/T//ccvmbCXw.s 			page 12


 491:../../lib/lpc11cx4-library/evt_lib/src/ltc6804.c **** 	Chip_SSP_WriteFrames_Blocking(config->pSSP, state->tx_buf, 4);
 492:../../lib/lpc11cx4-library/evt_lib/src/ltc6804.c **** 	Chip_GPIO_SetPinState(LPC_GPIO, config->cs_gpio, config->cs_pin, true);
 493:../../lib/lpc11cx4-library/evt_lib/src/ltc6804.c **** 
 494:../../lib/lpc11cx4-library/evt_lib/src/ltc6804.c **** 	return LTC6804_PASS;
 495:../../lib/lpc11cx4-library/evt_lib/src/ltc6804.c **** }
 496:../../lib/lpc11cx4-library/evt_lib/src/ltc6804.c **** 
 497:../../lib/lpc11cx4-library/evt_lib/src/ltc6804.c **** LTC6804_STATUS_T _write(LTC6804_CONFIG_T *config, LTC6804_STATE_T *state, uint16_t cmd, uint32_t ms
 498:../../lib/lpc11cx4-library/evt_lib/src/ltc6804.c **** 	_wake(config, state, msTicks, false);
 499:../../lib/lpc11cx4-library/evt_lib/src/ltc6804.c **** 
 500:../../lib/lpc11cx4-library/evt_lib/src/ltc6804.c **** 	state->tx_buf[0] = cmd >> 8;
 501:../../lib/lpc11cx4-library/evt_lib/src/ltc6804.c **** 	state->tx_buf[1] = cmd & 0xFF;
 502:../../lib/lpc11cx4-library/evt_lib/src/ltc6804.c **** 	uint16_t pec = _calculate_pec(state->tx_buf, 2);
 503:../../lib/lpc11cx4-library/evt_lib/src/ltc6804.c **** 	state->tx_buf[2] = pec >> 8;
 504:../../lib/lpc11cx4-library/evt_lib/src/ltc6804.c **** 	state->tx_buf[3] = pec & 0xFF;
 505:../../lib/lpc11cx4-library/evt_lib/src/ltc6804.c **** 
 506:../../lib/lpc11cx4-library/evt_lib/src/ltc6804.c **** 	state->last_message = msTicks;
 507:../../lib/lpc11cx4-library/evt_lib/src/ltc6804.c **** 	Chip_GPIO_SetPinState(LPC_GPIO, config->cs_gpio, config->cs_pin, false);
 508:../../lib/lpc11cx4-library/evt_lib/src/ltc6804.c **** 	Chip_SSP_WriteFrames_Blocking(config->pSSP, state->tx_buf, 4+8*config->num_modules);
 509:../../lib/lpc11cx4-library/evt_lib/src/ltc6804.c **** 	Chip_GPIO_SetPinState(LPC_GPIO, config->cs_gpio, config->cs_pin, true);
 510:../../lib/lpc11cx4-library/evt_lib/src/ltc6804.c **** 
 511:../../lib/lpc11cx4-library/evt_lib/src/ltc6804.c **** 	return LTC6804_PASS;
 512:../../lib/lpc11cx4-library/evt_lib/src/ltc6804.c **** }
 513:../../lib/lpc11cx4-library/evt_lib/src/ltc6804.c **** 
 514:../../lib/lpc11cx4-library/evt_lib/src/ltc6804.c **** LTC6804_STATUS_T _read(LTC6804_CONFIG_T *config, LTC6804_STATE_T *state, uint16_t cmd, uint32_t msT
 515:../../lib/lpc11cx4-library/evt_lib/src/ltc6804.c **** 	_wake(config, state, msTicks, false);
 516:../../lib/lpc11cx4-library/evt_lib/src/ltc6804.c **** 
 517:../../lib/lpc11cx4-library/evt_lib/src/ltc6804.c **** 	state->tx_buf[0] = cmd >> 8;
 518:../../lib/lpc11cx4-library/evt_lib/src/ltc6804.c **** 	state->tx_buf[1] = cmd & 0xFF;
 519:../../lib/lpc11cx4-library/evt_lib/src/ltc6804.c **** 	uint16_t pec = _calculate_pec(state->tx_buf, 2);
 520:../../lib/lpc11cx4-library/evt_lib/src/ltc6804.c **** 	state->tx_buf[2] = pec >> 8;
 521:../../lib/lpc11cx4-library/evt_lib/src/ltc6804.c **** 	state->tx_buf[3] = pec & 0xFF;
 522:../../lib/lpc11cx4-library/evt_lib/src/ltc6804.c **** 
 523:../../lib/lpc11cx4-library/evt_lib/src/ltc6804.c **** 	memset(state->tx_buf+4, 0, 8*config->num_modules);
 524:../../lib/lpc11cx4-library/evt_lib/src/ltc6804.c **** 
 525:../../lib/lpc11cx4-library/evt_lib/src/ltc6804.c **** 	state->xf->length = 4 + 8 * config->num_modules; state->xf->rx_cnt = 0; state->xf->tx_cnt = 0;
 526:../../lib/lpc11cx4-library/evt_lib/src/ltc6804.c **** 	state->xf->rx_data = state->rx_buf;
 527:../../lib/lpc11cx4-library/evt_lib/src/ltc6804.c **** 	state->xf->tx_data = state->tx_buf;
 528:../../lib/lpc11cx4-library/evt_lib/src/ltc6804.c **** 
 529:../../lib/lpc11cx4-library/evt_lib/src/ltc6804.c **** 	state->last_message = msTicks;
 530:../../lib/lpc11cx4-library/evt_lib/src/ltc6804.c **** 	Chip_GPIO_SetPinState(LPC_GPIO, config->cs_gpio, config->cs_pin, false);
 531:../../lib/lpc11cx4-library/evt_lib/src/ltc6804.c **** 	Chip_SSP_RWFrames_Blocking(config->pSSP, state->xf);
 532:../../lib/lpc11cx4-library/evt_lib/src/ltc6804.c **** 	Chip_GPIO_SetPinState(LPC_GPIO, config->cs_gpio, config->cs_pin, true);
 533:../../lib/lpc11cx4-library/evt_lib/src/ltc6804.c **** 
 534:../../lib/lpc11cx4-library/evt_lib/src/ltc6804.c **** 
 535:../../lib/lpc11cx4-library/evt_lib/src/ltc6804.c **** 	// Check PECs
 536:../../lib/lpc11cx4-library/evt_lib/src/ltc6804.c **** 	int i;
 537:../../lib/lpc11cx4-library/evt_lib/src/ltc6804.c **** 	for (i = 0; i < config->num_modules; i++) {
 538:../../lib/lpc11cx4-library/evt_lib/src/ltc6804.c **** 		uint8_t *rx_ptr = state->rx_buf + 4 + 8 * i;
 539:../../lib/lpc11cx4-library/evt_lib/src/ltc6804.c **** 		pec = _calculate_pec(rx_ptr, 6);
 540:../../lib/lpc11cx4-library/evt_lib/src/ltc6804.c **** 		if (pec != (rx_ptr[6] << 8 | rx_ptr[7])) return LTC6804_PEC_ERROR;
 541:../../lib/lpc11cx4-library/evt_lib/src/ltc6804.c **** 	}
 542:../../lib/lpc11cx4-library/evt_lib/src/ltc6804.c **** 
 543:../../lib/lpc11cx4-library/evt_lib/src/ltc6804.c **** 	return LTC6804_PASS;
 544:../../lib/lpc11cx4-library/evt_lib/src/ltc6804.c **** }
 545:../../lib/lpc11cx4-library/evt_lib/src/ltc6804.c **** 
 546:../../lib/lpc11cx4-library/evt_lib/src/ltc6804.c **** // [NOTE] If timing is fucked look here
 547:../../lib/lpc11cx4-library/evt_lib/src/ltc6804.c **** LTC6804_STATUS_T _wake(LTC6804_CONFIG_T *config, LTC6804_STATE_T *state, uint32_t msTicks, bool for
ARM GAS  /var/folders/z0/6xlwn_996xz3mwq1cgzkbq4r0000gp/T//ccvmbCXw.s 			page 13


 548:../../lib/lpc11cx4-library/evt_lib/src/ltc6804.c **** 	if (msTicks - state->last_message < T_IDLE && !force) return LTC6804_PASS;
 549:../../lib/lpc11cx4-library/evt_lib/src/ltc6804.c **** 
 550:../../lib/lpc11cx4-library/evt_lib/src/ltc6804.c **** 
 551:../../lib/lpc11cx4-library/evt_lib/src/ltc6804.c **** 	uint32_t wake;
 552:../../lib/lpc11cx4-library/evt_lib/src/ltc6804.c **** 	bool waking = msTicks - state->last_message >= T_SLEEP;
 553:../../lib/lpc11cx4-library/evt_lib/src/ltc6804.c **** 
 554:../../lib/lpc11cx4-library/evt_lib/src/ltc6804.c **** 	wake = (waking || force) ? state->wake_length : 2;
 555:../../lib/lpc11cx4-library/evt_lib/src/ltc6804.c **** 	state->last_sleep_wake = (waking) ? msTicks : state->last_sleep_wake;
 556:../../lib/lpc11cx4-library/evt_lib/src/ltc6804.c **** 
 557:../../lib/lpc11cx4-library/evt_lib/src/ltc6804.c **** 
 558:../../lib/lpc11cx4-library/evt_lib/src/ltc6804.c **** 	// [TODO] Consider moving to _write or _command or _generic_write
 559:../../lib/lpc11cx4-library/evt_lib/src/ltc6804.c **** 	state->last_message = msTicks;
 560:../../lib/lpc11cx4-library/evt_lib/src/ltc6804.c **** 	Chip_GPIO_SetPinState(LPC_GPIO, config->cs_gpio, config->cs_pin, false);
 561:../../lib/lpc11cx4-library/evt_lib/src/ltc6804.c **** 	Chip_SSP_WriteFrames_Blocking(config->pSSP, wake_buf, wake);
 562:../../lib/lpc11cx4-library/evt_lib/src/ltc6804.c **** 	Chip_GPIO_SetPinState(LPC_GPIO, config->cs_gpio, config->cs_pin, true);
 563:../../lib/lpc11cx4-library/evt_lib/src/ltc6804.c **** 
 564:../../lib/lpc11cx4-library/evt_lib/src/ltc6804.c **** 	// If you fall asleep, write configuration again pls
 565:../../lib/lpc11cx4-library/evt_lib/src/ltc6804.c **** 	if (waking) LTC6804_WriteCFG(config, state, msTicks); // Wake will be skipped bc last_message upda
 566:../../lib/lpc11cx4-library/evt_lib/src/ltc6804.c **** 	if (waking && state->balancing) _set_balance_states(config, state, msTicks);
 567:../../lib/lpc11cx4-library/evt_lib/src/ltc6804.c **** 
 568:../../lib/lpc11cx4-library/evt_lib/src/ltc6804.c **** 	return LTC6804_PASS;
 569:../../lib/lpc11cx4-library/evt_lib/src/ltc6804.c **** }
 570:../../lib/lpc11cx4-library/evt_lib/src/ltc6804.c **** 
 571:../../lib/lpc11cx4-library/evt_lib/src/ltc6804.c **** LTC6804_STATUS_T _set_balance_states(LTC6804_CONFIG_T *config, LTC6804_STATE_T *state, uint32_t msT
 138              		.loc 1 571 0
 139              		.cfi_startproc
 140              		@ args = 0, pretend = 0, frame = 8
 141              		@ frame_needed = 0, uses_anonymous_args = 0
 142              	.LVL8:
 143 0000 F0B5     		push	{r4, r5, r6, r7, lr}	@
 144              		.cfi_def_cfa_offset 20
 145              		.cfi_offset 4, -20
 146              		.cfi_offset 5, -16
 147              		.cfi_offset 6, -12
 148              		.cfi_offset 7, -8
 149              		.cfi_offset 14, -4
 150 0002 4446     		mov	r4, r8	@,
 151 0004 5F46     		mov	r7, fp	@,
 152 0006 5646     		mov	r6, r10	@,
 153 0008 4D46     		mov	r5, r9	@,
 154 000a F0B4     		push	{r4, r5, r6, r7}	@
 155              		.cfi_def_cfa_offset 36
 156              		.cfi_offset 8, -36
 157              		.cfi_offset 9, -32
 158              		.cfi_offset 10, -28
 159              		.cfi_offset 11, -24
 160 000c 83B0     		sub	sp, sp, #12	@,,
 161              		.cfi_def_cfa_offset 48
 162              		.loc 1 571 0
 163 000e 0192     		str	r2, [sp, #4]	@ msTicks, %sfp
 572:../../lib/lpc11cx4-library/evt_lib/src/ltc6804.c **** 	int i;
 573:../../lib/lpc11cx4-library/evt_lib/src/ltc6804.c **** 	// [TODO] ensure that when sending out you have correct order
 574:../../lib/lpc11cx4-library/evt_lib/src/ltc6804.c **** 	for (i = 0; i < config->num_modules; i++) {
 164              		.loc 1 574 0
 165 0010 837A     		ldrb	r3, [r0, #10]	@ tmp208,
 571:../../lib/lpc11cx4-library/evt_lib/src/ltc6804.c **** 	int i;
 166              		.loc 1 571 0
ARM GAS  /var/folders/z0/6xlwn_996xz3mwq1cgzkbq4r0000gp/T//ccvmbCXw.s 			page 14


 167 0012 8046     		mov	r8, r0	@ config, config
 168              		.loc 1 574 0
 169 0014 002B     		cmp	r3, #0	@ tmp208,
 170 0016 50D0     		beq	.L6	@,
 171              		.loc 1 574 0 is_stmt 0 discriminator 3
 172 0018 0423     		movs	r3, #4	@ ivtmp.53,
 173 001a 9A46     		mov	r10, r3	@ ivtmp.53, ivtmp.53
 174 001c 0023     		movs	r3, #0	@ i,
 175 001e 9946     		mov	r9, r3	@ i, i
 176 0020 2C4B     		ldr	r3, .L11	@ tmp268,
 177              	.LBB68:
 178              	.LBB69:
 179              	.LBB70:
 575:../../lib/lpc11cx4-library/evt_lib/src/ltc6804.c **** 		uint8_t *tx_ptr = state->tx_buf + 4 + 8 * i;
 576:../../lib/lpc11cx4-library/evt_lib/src/ltc6804.c **** 		tx_ptr[0] = state->cfg[0]; tx_ptr[1] = state->cfg[1];
 577:../../lib/lpc11cx4-library/evt_lib/src/ltc6804.c **** 		tx_ptr[2] = state->cfg[2]; tx_ptr[3] = state->cfg[3];
 578:../../lib/lpc11cx4-library/evt_lib/src/ltc6804.c **** 		tx_ptr[4] = state->bal_list[config->num_modules - i - 1] & 0xFF;
 579:../../lib/lpc11cx4-library/evt_lib/src/ltc6804.c **** 		tx_ptr[5] = (state->cfg[5] & 0xF0) | (state->bal_list[config->num_modules - i - 1] >> 8);
 580:../../lib/lpc11cx4-library/evt_lib/src/ltc6804.c **** 		uint16_t pec = _calculate_pec(tx_ptr, 6);
 581:../../lib/lpc11cx4-library/evt_lib/src/ltc6804.c **** 		tx_ptr[6] = pec >> 8;
 582:../../lib/lpc11cx4-library/evt_lib/src/ltc6804.c **** 		tx_ptr[7] = pec & 0xFF;
 583:../../lib/lpc11cx4-library/evt_lib/src/ltc6804.c **** 	}
 584:../../lib/lpc11cx4-library/evt_lib/src/ltc6804.c **** 	return _write(config, state, WRCFG, msTicks);
 585:../../lib/lpc11cx4-library/evt_lib/src/ltc6804.c **** }
 586:../../lib/lpc11cx4-library/evt_lib/src/ltc6804.c **** 
 587:../../lib/lpc11cx4-library/evt_lib/src/ltc6804.c **** static const unsigned int crc15Table[256] = {
 588:../../lib/lpc11cx4-library/evt_lib/src/ltc6804.c **** 	0x0000, 0xc599, 0xceab, 0xb32, 0xd8cf, 0x1d56, 0x1664, 0xd3fd, 0xf407, 0x319e, 0x3aac,  //!<precom
 589:../../lib/lpc11cx4-library/evt_lib/src/ltc6804.c **** 	0xff35, 0x2cc8, 0xe951, 0xe263, 0x27fa, 0xad97, 0x680e, 0x633c, 0xa6a5, 0x7558, 0xb0c1, 
 590:../../lib/lpc11cx4-library/evt_lib/src/ltc6804.c **** 	0xbbf3, 0x7e6a, 0x5990, 0x9c09, 0x973b, 0x52a2, 0x815f, 0x44c6, 0x4ff4, 0x8a6d, 0x5b2e,
 591:../../lib/lpc11cx4-library/evt_lib/src/ltc6804.c **** 	0x9eb7, 0x9585, 0x501c, 0x83e1, 0x4678, 0x4d4a, 0x88d3, 0xaf29, 0x6ab0, 0x6182, 0xa41b,
 592:../../lib/lpc11cx4-library/evt_lib/src/ltc6804.c **** 	0x77e6, 0xb27f, 0xb94d, 0x7cd4, 0xf6b9, 0x3320, 0x3812, 0xfd8b, 0x2e76, 0xebef, 0xe0dd, 
 593:../../lib/lpc11cx4-library/evt_lib/src/ltc6804.c **** 	0x2544, 0x2be, 0xc727, 0xcc15, 0x98c, 0xda71, 0x1fe8, 0x14da, 0xd143, 0xf3c5, 0x365c, 
 594:../../lib/lpc11cx4-library/evt_lib/src/ltc6804.c **** 	0x3d6e, 0xf8f7,0x2b0a, 0xee93, 0xe5a1, 0x2038, 0x7c2, 0xc25b, 0xc969, 0xcf0, 0xdf0d, 
 595:../../lib/lpc11cx4-library/evt_lib/src/ltc6804.c **** 	0x1a94, 0x11a6, 0xd43f, 0x5e52, 0x9bcb, 0x90f9, 0x5560, 0x869d, 0x4304, 0x4836, 0x8daf,
 596:../../lib/lpc11cx4-library/evt_lib/src/ltc6804.c **** 	0xaa55, 0x6fcc, 0x64fe, 0xa167, 0x729a, 0xb703, 0xbc31, 0x79a8, 0xa8eb, 0x6d72, 0x6640,
 597:../../lib/lpc11cx4-library/evt_lib/src/ltc6804.c **** 	0xa3d9, 0x7024, 0xb5bd, 0xbe8f, 0x7b16, 0x5cec, 0x9975, 0x9247, 0x57de, 0x8423, 0x41ba,
 598:../../lib/lpc11cx4-library/evt_lib/src/ltc6804.c **** 	0x4a88, 0x8f11, 0x57c, 0xc0e5, 0xcbd7, 0xe4e, 0xddb3, 0x182a, 0x1318, 0xd681, 0xf17b, 
 599:../../lib/lpc11cx4-library/evt_lib/src/ltc6804.c **** 	0x34e2, 0x3fd0, 0xfa49, 0x29b4, 0xec2d, 0xe71f, 0x2286, 0xa213, 0x678a, 0x6cb8, 0xa921, 
 600:../../lib/lpc11cx4-library/evt_lib/src/ltc6804.c **** 	0x7adc, 0xbf45, 0xb477, 0x71ee, 0x5614, 0x938d, 0x98bf, 0x5d26, 0x8edb, 0x4b42, 0x4070, 
 601:../../lib/lpc11cx4-library/evt_lib/src/ltc6804.c **** 	0x85e9, 0xf84, 0xca1d, 0xc12f, 0x4b6, 0xd74b, 0x12d2, 0x19e0, 0xdc79, 0xfb83, 0x3e1a, 0x3528, 
 602:../../lib/lpc11cx4-library/evt_lib/src/ltc6804.c **** 	0xf0b1, 0x234c, 0xe6d5, 0xede7, 0x287e, 0xf93d, 0x3ca4, 0x3796, 0xf20f, 0x21f2, 0xe46b, 0xef59, 
 603:../../lib/lpc11cx4-library/evt_lib/src/ltc6804.c **** 	0x2ac0, 0xd3a, 0xc8a3, 0xc391, 0x608, 0xd5f5, 0x106c, 0x1b5e, 0xdec7, 0x54aa, 0x9133, 0x9a01, 
 604:../../lib/lpc11cx4-library/evt_lib/src/ltc6804.c **** 	0x5f98, 0x8c65, 0x49fc, 0x42ce, 0x8757, 0xa0ad, 0x6534, 0x6e06, 0xab9f, 0x7862, 0xbdfb, 0xb6c9, 
 605:../../lib/lpc11cx4-library/evt_lib/src/ltc6804.c **** 	0x7350, 0x51d6, 0x944f, 0x9f7d, 0x5ae4, 0x8919, 0x4c80, 0x47b2, 0x822b, 0xa5d1, 0x6048, 0x6b7a, 
 606:../../lib/lpc11cx4-library/evt_lib/src/ltc6804.c **** 	0xaee3, 0x7d1e, 0xb887, 0xb3b5, 0x762c, 0xfc41, 0x39d8, 0x32ea, 0xf773, 0x248e, 0xe117, 0xea25, 
 607:../../lib/lpc11cx4-library/evt_lib/src/ltc6804.c **** 	0x2fbc, 0x846, 0xcddf, 0xc6ed, 0x374, 0xd089, 0x1510, 0x1e22, 0xdbbb, 0xaf8, 0xcf61, 0xc453, 
 608:../../lib/lpc11cx4-library/evt_lib/src/ltc6804.c **** 	0x1ca, 0xd237, 0x17ae, 0x1c9c, 0xd905, 0xfeff, 0x3b66, 0x3054, 0xf5cd, 0x2630, 0xe3a9, 0xe89b, 
 609:../../lib/lpc11cx4-library/evt_lib/src/ltc6804.c **** 	0x2d02, 0xa76f, 0x62f6, 0x69c4, 0xac5d, 0x7fa0, 0xba39, 0xb10b, 0x7492, 0x5368, 0x96f1, 0x9dc3, 
 610:../../lib/lpc11cx4-library/evt_lib/src/ltc6804.c **** 	0x585a, 0x8ba7, 0x4e3e, 0x450c, 0x8095
 611:../../lib/lpc11cx4-library/evt_lib/src/ltc6804.c **** }; 
 612:../../lib/lpc11cx4-library/evt_lib/src/ltc6804.c **** 
 613:../../lib/lpc11cx4-library/evt_lib/src/ltc6804.c **** uint16_t _calculate_pec(uint8_t *data, uint8_t len) {
 614:../../lib/lpc11cx4-library/evt_lib/src/ltc6804.c **** 	uint16_t remainder,addr;
 615:../../lib/lpc11cx4-library/evt_lib/src/ltc6804.c **** 	
 616:../../lib/lpc11cx4-library/evt_lib/src/ltc6804.c **** 	remainder = 16;//initialize the PEC
 617:../../lib/lpc11cx4-library/evt_lib/src/ltc6804.c **** 	uint8_t i;
 618:../../lib/lpc11cx4-library/evt_lib/src/ltc6804.c **** 	for(i = 0; i<len;i++) // loops for each byte in data array
ARM GAS  /var/folders/z0/6xlwn_996xz3mwq1cgzkbq4r0000gp/T//ccvmbCXw.s 			page 15


 619:../../lib/lpc11cx4-library/evt_lib/src/ltc6804.c **** 	{
 620:../../lib/lpc11cx4-library/evt_lib/src/ltc6804.c **** 		addr = ((remainder>>7)^data[i])&0xff;//calculate PEC table address 
 621:../../lib/lpc11cx4-library/evt_lib/src/ltc6804.c **** 		remainder = (remainder<<8)^crc15Table[addr];
 180              		.loc 1 621 0 is_stmt 1 discriminator 3
 181 0022 FF20     		movs	r0, #255	@ tmp272,
 182              	.LVL9:
 183 0024 9C46     		mov	ip, r3	@ tmp268, tmp268
 184              	.LBE70:
 185              	.LBE69:
 579:../../lib/lpc11cx4-library/evt_lib/src/ltc6804.c **** 		uint16_t pec = _calculate_pec(tx_ptr, 6);
 186              		.loc 1 579 0 discriminator 3
 187 0026 0F23     		movs	r3, #15	@ tmp270,
 188 0028 0093     		str	r3, [sp]	@ tmp270, %sfp
 189              	.LVL10:
 190              	.L5:
 575:../../lib/lpc11cx4-library/evt_lib/src/ltc6804.c **** 		uint8_t *tx_ptr = state->tx_buf + 4 + 8 * i;
 191              		.loc 1 575 0 discriminator 3
 192 002a 4B68     		ldr	r3, [r1, #4]	@ tx_ptr, state_7(D)->tx_buf
 578:../../lib/lpc11cx4-library/evt_lib/src/ltc6804.c **** 		tx_ptr[5] = (state->cfg[5] & 0xF0) | (state->bal_list[config->num_modules - i - 1] >> 8);
 193              		.loc 1 578 0 discriminator 3
 194 002c 4A46     		mov	r2, r9	@ i, i
 575:../../lib/lpc11cx4-library/evt_lib/src/ltc6804.c **** 		uint8_t *tx_ptr = state->tx_buf + 4 + 8 * i;
 195              		.loc 1 575 0 discriminator 3
 196 002e 5344     		add	r3, r3, r10	@ tx_ptr, ivtmp.53
 197 0030 1D00     		movs	r5, r3	@ tx_ptr, tx_ptr
 198              	.LVL11:
 576:../../lib/lpc11cx4-library/evt_lib/src/ltc6804.c **** 		tx_ptr[2] = state->cfg[2]; tx_ptr[3] = state->cfg[3];
 199              		.loc 1 576 0 discriminator 3
 200 0032 4B69     		ldr	r3, [r1, #20]	@ tmp292, state_7(D)->cfg
 201              	.LVL12:
 579:../../lib/lpc11cx4-library/evt_lib/src/ltc6804.c **** 		uint16_t pec = _calculate_pec(tx_ptr, 6);
 202              		.loc 1 579 0 discriminator 3
 203 0034 009C     		ldr	r4, [sp]	@ tmp270, %sfp
 576:../../lib/lpc11cx4-library/evt_lib/src/ltc6804.c **** 		tx_ptr[2] = state->cfg[2]; tx_ptr[3] = state->cfg[3];
 204              		.loc 1 576 0 discriminator 3
 205 0036 1B78     		ldrb	r3, [r3]	@ D.7847, *_13
 206 0038 AE1D     		adds	r6, r5, #6	@ D.7858, tx_ptr,
 207 003a 2B70     		strb	r3, [r5]	@ D.7847, *tx_ptr_12
 208 003c 4B69     		ldr	r3, [r1, #20]	@ tmp293, state_7(D)->cfg
 209 003e 5B78     		ldrb	r3, [r3, #1]	@ D.7847, MEM[(uint8_t *)_16 + 1B]
 210 0040 6B70     		strb	r3, [r5, #1]	@ D.7847, MEM[(uint8_t *)tx_ptr_12 + 1B]
 577:../../lib/lpc11cx4-library/evt_lib/src/ltc6804.c **** 		tx_ptr[4] = state->bal_list[config->num_modules - i - 1] & 0xFF;
 211              		.loc 1 577 0 discriminator 3
 212 0042 4B69     		ldr	r3, [r1, #20]	@ tmp294, state_7(D)->cfg
 213 0044 9B78     		ldrb	r3, [r3, #2]	@ D.7847, MEM[(uint8_t *)_19 + 2B]
 214 0046 AB70     		strb	r3, [r5, #2]	@ D.7847, MEM[(uint8_t *)tx_ptr_12 + 2B]
 215 0048 4B69     		ldr	r3, [r1, #20]	@ tmp295, state_7(D)->cfg
 216 004a DB78     		ldrb	r3, [r3, #3]	@ D.7847, MEM[(uint8_t *)_22 + 3B]
 217 004c EB70     		strb	r3, [r5, #3]	@ D.7847, MEM[(uint8_t *)tx_ptr_12 + 3B]
 578:../../lib/lpc11cx4-library/evt_lib/src/ltc6804.c **** 		tx_ptr[5] = (state->cfg[5] & 0xF0) | (state->bal_list[config->num_modules - i - 1] >> 8);
 218              		.loc 1 578 0 discriminator 3
 219 004e 4346     		mov	r3, r8	@ config, config
 220 0050 9B7A     		ldrb	r3, [r3, #10]	@ D.7848,
 221 0052 9B1A     		subs	r3, r3, r2	@ D.7848, D.7848, i
 222 0054 204A     		ldr	r2, .L11+4	@ tmp298,
 223 0056 9346     		mov	fp, r2	@ tmp298, tmp298
 224 0058 CA6A     		ldr	r2, [r1, #44]	@ tmp300, state_7(D)->bal_list
ARM GAS  /var/folders/z0/6xlwn_996xz3mwq1cgzkbq4r0000gp/T//ccvmbCXw.s 			page 16


 225 005a 5B44     		add	r3, r3, fp	@ tmp223, tmp298
 226 005c 5B00     		lsls	r3, r3, #1	@ tmp225, tmp223,
 227 005e 9B5A     		ldrh	r3, [r3, r2]	@ *_32, *_32
 579:../../lib/lpc11cx4-library/evt_lib/src/ltc6804.c **** 		uint16_t pec = _calculate_pec(tx_ptr, 6);
 228              		.loc 1 579 0 discriminator 3
 229 0060 4A46     		mov	r2, r9	@ i, i
 578:../../lib/lpc11cx4-library/evt_lib/src/ltc6804.c **** 		tx_ptr[5] = (state->cfg[5] & 0xF0) | (state->bal_list[config->num_modules - i - 1] >> 8);
 230              		.loc 1 578 0 discriminator 3
 231 0062 2B71     		strb	r3, [r5, #4]	@ *_32, MEM[(uint8_t *)tx_ptr_12 + 4B]
 579:../../lib/lpc11cx4-library/evt_lib/src/ltc6804.c **** 		uint16_t pec = _calculate_pec(tx_ptr, 6);
 232              		.loc 1 579 0 discriminator 3
 233 0064 4346     		mov	r3, r8	@ config, config
 234 0066 9B7A     		ldrb	r3, [r3, #10]	@ D.7848,
 235 0068 9B1A     		subs	r3, r3, r2	@ D.7848, D.7848, i
 236 006a 5B44     		add	r3, r3, fp	@ tmp231, tmp303
 237 006c CA6A     		ldr	r2, [r1, #44]	@ tmp305, state_7(D)->bal_list
 238 006e 5B00     		lsls	r3, r3, #1	@ tmp233, tmp231,
 239 0070 9B5A     		ldrh	r3, [r3, r2]	@ *_47, *_47
 240 0072 1A0A     		lsrs	r2, r3, #8	@ tmp235, *_47,
 241 0074 4B69     		ldr	r3, [r1, #20]	@ tmp306, state_7(D)->cfg
 242 0076 5B79     		ldrb	r3, [r3, #5]	@ MEM[(uint8_t *)_36 + 5B], MEM[(uint8_t *)_36 + 5B]
 243 0078 A343     		bics	r3, r4	@ tmp240, tmp270
 244 007a 1343     		orrs	r3, r2	@ tmp243, tmp235
 245 007c 6B71     		strb	r3, [r5, #5]	@ tmp243, MEM[(uint8_t *)tx_ptr_12 + 5B]
 246              	.LVL13:
 247 007e 2A00     		movs	r2, r5	@ ivtmp.49, tx_ptr
 248              	.LBB72:
 249              	.LBB71:
 616:../../lib/lpc11cx4-library/evt_lib/src/ltc6804.c **** 	uint8_t i;
 250              		.loc 1 616 0 discriminator 3
 251 0080 1023     		movs	r3, #16	@ remainder,
 252              	.LVL14:
 253              	.L4:
 254              		.loc 1 621 0
 255 0082 1778     		ldrb	r7, [r2]	@ MEM[base: _109, offset: 0B], MEM[base: _109, offset: 0B]
 256 0084 1C02     		lsls	r4, r3, #8	@ tmp245, remainder,
 257 0086 DB09     		lsrs	r3, r3, #7	@ tmp247, remainder,
 258              	.LVL15:
 259 0088 7B40     		eors	r3, r7	@ tmp251, MEM[base: _109, offset: 0B]
 260 008a 6746     		mov	r7, ip	@ tmp268, tmp268
 261 008c 0340     		ands	r3, r0	@ D.7848, tmp272
 262 008e 9B00     		lsls	r3, r3, #2	@ tmp258, D.7848,
 263 0090 FB5A     		ldrh	r3, [r7, r3]	@ D.7852, crc15Table
 264 0092 A4B2     		uxth	r4, r4	@ D.7852, tmp245
 265 0094 0132     		adds	r2, r2, #1	@ ivtmp.49,
 266              	.LVL16:
 267 0096 6340     		eors	r3, r4	@ remainder, D.7852
 268              	.LVL17:
 618:../../lib/lpc11cx4-library/evt_lib/src/ltc6804.c **** 	{
 269              		.loc 1 618 0
 270 0098 9642     		cmp	r6, r2	@ D.7858, ivtmp.49
 271 009a F2D1     		bne	.L4	@,
 622:../../lib/lpc11cx4-library/evt_lib/src/ltc6804.c **** 	}
 623:../../lib/lpc11cx4-library/evt_lib/src/ltc6804.c **** 	return(remainder*2);//The CRC15 has a 0 in the LSB so the remainder must be multiplied by 2
 272              		.loc 1 623 0
 273 009c 5B00     		lsls	r3, r3, #1	@ tmp263, remainder,
 274              	.LVL18:
ARM GAS  /var/folders/z0/6xlwn_996xz3mwq1cgzkbq4r0000gp/T//ccvmbCXw.s 			page 17


 275 009e 9BB2     		uxth	r3, r3	@ D.7857, tmp263
 276              	.LVL19:
 277              	.LBE71:
 278              	.LBE72:
 581:../../lib/lpc11cx4-library/evt_lib/src/ltc6804.c **** 		tx_ptr[7] = pec & 0xFF;
 279              		.loc 1 581 0
 280 00a0 1A0A     		lsrs	r2, r3, #8	@ tmp264, D.7857,
 582:../../lib/lpc11cx4-library/evt_lib/src/ltc6804.c **** 	}
 281              		.loc 1 582 0
 282 00a2 EB71     		strb	r3, [r5, #7]	@ D.7857, MEM[(uint8_t *)tx_ptr_12 + 7B]
 283              	.LBE68:
 574:../../lib/lpc11cx4-library/evt_lib/src/ltc6804.c **** 		uint8_t *tx_ptr = state->tx_buf + 4 + 8 * i;
 284              		.loc 1 574 0
 285 00a4 0123     		movs	r3, #1	@ tmp309,
 286 00a6 9B46     		mov	fp, r3	@ tmp309, tmp309
 287 00a8 0733     		adds	r3, r3, #7	@ tmp311,
 288 00aa D944     		add	r9, r9, fp	@ i, tmp309
 289              	.LVL20:
 290 00ac 9B46     		mov	fp, r3	@ tmp311, tmp311
 291 00ae 4346     		mov	r3, r8	@ config, config
 292              	.LBB73:
 581:../../lib/lpc11cx4-library/evt_lib/src/ltc6804.c **** 		tx_ptr[7] = pec & 0xFF;
 293              		.loc 1 581 0
 294 00b0 AA71     		strb	r2, [r5, #6]	@ tmp264, MEM[(uint8_t *)tx_ptr_12 + 6B]
 295              	.LBE73:
 574:../../lib/lpc11cx4-library/evt_lib/src/ltc6804.c **** 		uint8_t *tx_ptr = state->tx_buf + 4 + 8 * i;
 296              		.loc 1 574 0
 297 00b2 9B7A     		ldrb	r3, [r3, #10]	@ D.7848,
 298 00b4 DA44     		add	r10, r10, fp	@ ivtmp.53, tmp311
 299 00b6 4B45     		cmp	r3, r9	@ D.7848, i
 300 00b8 B7DC     		bgt	.L5	@,
 301              	.LVL21:
 302              	.L6:
 584:../../lib/lpc11cx4-library/evt_lib/src/ltc6804.c **** }
 303              		.loc 1 584 0
 304 00ba 019B     		ldr	r3, [sp, #4]	@, %sfp
 305 00bc 0122     		movs	r2, #1	@,
 306 00be 4046     		mov	r0, r8	@, config
 307 00c0 FFF7FEFF 		bl	_write	@
 308              	.LVL22:
 585:../../lib/lpc11cx4-library/evt_lib/src/ltc6804.c **** 
 309              		.loc 1 585 0
 310 00c4 03B0     		add	sp, sp, #12	@,,
 311              		@ sp needed	@
 312              	.LVL23:
 313 00c6 3CBC     		pop	{r2, r3, r4, r5}
 314 00c8 9046     		mov	r8, r2
 315 00ca 9946     		mov	r9, r3
 316 00cc A246     		mov	r10, r4
 317 00ce AB46     		mov	fp, r5
 318 00d0 F0BD     		pop	{r4, r5, r6, r7, pc}
 319              	.L12:
 320 00d2 C046     		.align	2
 321              	.L11:
 322 00d4 00000000 		.word	.LANCHOR0
 323 00d8 FFFFFF7F 		.word	2147483647
 324              		.cfi_endproc
ARM GAS  /var/folders/z0/6xlwn_996xz3mwq1cgzkbq4r0000gp/T//ccvmbCXw.s 			page 18


 325              	.LFE213:
 326              		.size	_set_balance_states, .-_set_balance_states
 327              		.section	.text.LTC6804_UpdateBalanceStates,"ax",%progbits
 328              		.align	2
 329              		.global	LTC6804_UpdateBalanceStates
 330              		.code	16
 331              		.thumb_func
 332              		.type	LTC6804_UpdateBalanceStates, %function
 333              	LTC6804_UpdateBalanceStates:
 334              	.LFB204:
 251:../../lib/lpc11cx4-library/evt_lib/src/ltc6804.c ****   // if (should_zero_balance) {
 335              		.loc 1 251 0
 336              		.cfi_startproc
 337              		@ args = 0, pretend = 0, frame = 8
 338              		@ frame_needed = 0, uses_anonymous_args = 0
 339              	.LVL24:
 340 0000 F0B5     		push	{r4, r5, r6, r7, lr}	@
 341              		.cfi_def_cfa_offset 20
 342              		.cfi_offset 4, -20
 343              		.cfi_offset 5, -16
 344              		.cfi_offset 6, -12
 345              		.cfi_offset 7, -8
 346              		.cfi_offset 14, -4
 347 0002 4D46     		mov	r5, r9	@,
 348 0004 4446     		mov	r4, r8	@,
 349 0006 5F46     		mov	r7, fp	@,
 350 0008 5646     		mov	r6, r10	@,
 351 000a 8946     		mov	r9, r1	@ state, state
 352 000c F0B4     		push	{r4, r5, r6, r7}	@
 353              		.cfi_def_cfa_offset 36
 354              		.cfi_offset 8, -36
 355              		.cfi_offset 9, -32
 356              		.cfi_offset 10, -28
 357              		.cfi_offset 11, -24
 358 000e 83B0     		sub	sp, sp, #12	@,,
 359              		.cfi_def_cfa_offset 48
 251:../../lib/lpc11cx4-library/evt_lib/src/ltc6804.c ****   // if (should_zero_balance) {
 360              		.loc 1 251 0
 361 0010 0193     		str	r3, [sp, #4]	@ msTicks, %sfp
 258:../../lib/lpc11cx4-library/evt_lib/src/ltc6804.c **** 	for (i = 0; i < config->num_modules; i++) {
 362              		.loc 1 258 0
 363 0012 4C46     		mov	r4, r9	@ state, state
 364 0014 0021     		movs	r1, #0	@ tmp165,
 365              	.LVL25:
 366 0016 2823     		movs	r3, #40	@ tmp164,
 367              	.LVL26:
 368 0018 E154     		strb	r1, [r4, r3]	@ tmp165, state_16(D)->balancing
 369              	.LVL27:
 259:../../lib/lpc11cx4-library/evt_lib/src/ltc6804.c **** 		uint16_t bal_temp = 0;
 370              		.loc 1 259 0
 371 001a 847A     		ldrb	r4, [r0, #10]	@ D.7879,
 372              	.LVL28:
 373 001c 002C     		cmp	r4, #0	@ D.7879,
 374 001e 30D0     		beq	.L23	@,
 375 0020 C368     		ldr	r3, [r0, #12]	@ D.7884, config_18(D)->module_cell_count
 376 0022 0027     		movs	r7, #0	@ i,
 377 0024 9C46     		mov	ip, r3	@ D.7884, D.7884
ARM GAS  /var/folders/z0/6xlwn_996xz3mwq1cgzkbq4r0000gp/T//ccvmbCXw.s 			page 19


 378 0026 4B46     		mov	r3, r9	@ state, state
 379 0028 D96A     		ldr	r1, [r3, #44]	@ ivtmp.64, state_16(D)->bal_list
 380 002a 0023     		movs	r3, #0	@ change,
 381 002c 9846     		mov	r8, r3	@ change, change
 382              	.LBB74:
 269:../../lib/lpc11cx4-library/evt_lib/src/ltc6804.c **** 	}
 383              		.loc 1 269 0
 384 002e 2833     		adds	r3, r3, #40	@ tmp185,
 385 0030 9B46     		mov	fp, r3	@ tmp185, tmp185
 386 0032 273B     		subs	r3, r3, #39	@ tmp186,
 387 0034 9A46     		mov	r10, r3	@ tmp186, tmp186
 388 0036 6346     		mov	r3, ip	@ D.7884, D.7884
 389 0038 A446     		mov	ip, r4	@ D.7879, D.7879
 390 003a 0093     		str	r3, [sp]	@ D.7884, %sfp
 391              	.LVL29:
 392              	.L16:
 261:../../lib/lpc11cx4-library/evt_lib/src/ltc6804.c **** 			bal_temp |= bal_ptr[0] << j;
 393              		.loc 1 261 0 discriminator 1
 394 003c 009B     		ldr	r3, [sp]	@ D.7884, %sfp
 395 003e 0025     		movs	r5, #0	@ j,
 396 0040 DE5D     		ldrb	r6, [r3, r7]	@ D.7878, MEM[base: _75, index: _48, offset: 0B]
 397 0042 0023     		movs	r3, #0	@ bal_temp,
 398 0044 002E     		cmp	r6, #0	@ D.7878,
 399 0046 24D0     		beq	.L39	@,
 400              	.LVL30:
 401              	.L30:
 262:../../lib/lpc11cx4-library/evt_lib/src/ltc6804.c **** 			bal_ptr++;
 402              		.loc 1 262 0 discriminator 3
 403 0048 545D     		ldrb	r4, [r2, r5]	@ D.7879, MEM[base: balance_req_14, index: _65, offset: 0B]
 404 004a AC40     		lsls	r4, r4, r5	@ D.7879, D.7879, j
 261:../../lib/lpc11cx4-library/evt_lib/src/ltc6804.c **** 			bal_temp |= bal_ptr[0] << j;
 405              		.loc 1 261 0 discriminator 3
 406 004c 0135     		adds	r5, r5, #1	@ j,
 407              	.LVL31:
 262:../../lib/lpc11cx4-library/evt_lib/src/ltc6804.c **** 			bal_ptr++;
 408              		.loc 1 262 0 discriminator 3
 409 004e 2343     		orrs	r3, r4	@ tmp172, D.7879
 410              	.LVL32:
 411 0050 9BB2     		uxth	r3, r3	@ bal_temp, tmp172
 412              	.LVL33:
 261:../../lib/lpc11cx4-library/evt_lib/src/ltc6804.c **** 			bal_temp |= bal_ptr[0] << j;
 413              		.loc 1 261 0 discriminator 3
 414 0052 B542     		cmp	r5, r6	@ j, D.7878
 415 0054 F8DB     		blt	.L30	@,
 265:../../lib/lpc11cx4-library/evt_lib/src/ltc6804.c **** 			change = true;
 416              		.loc 1 265 0
 417 0056 0D88     		ldrh	r5, [r1]	@ MEM[base: _36, offset: 0B], MEM[base: _36, offset: 0B]
 418              	.LVL34:
 419 0058 9219     		adds	r2, r2, r6	@ balance_req, balance_req, D.7878
 420 005a 9D42     		cmp	r5, r3	@ MEM[base: _36, offset: 0B], bal_temp
 421 005c 02D0     		beq	.L18	@,
 422              	.LVL35:
 423              	.L24:
 266:../../lib/lpc11cx4-library/evt_lib/src/ltc6804.c **** 			state->bal_list[i] = bal_temp;
 424              		.loc 1 266 0
 425 005e 0124     		movs	r4, #1	@ change,
 426 0060 A046     		mov	r8, r4	@ change, change
ARM GAS  /var/folders/z0/6xlwn_996xz3mwq1cgzkbq4r0000gp/T//ccvmbCXw.s 			page 20


 267:../../lib/lpc11cx4-library/evt_lib/src/ltc6804.c **** 		}
 427              		.loc 1 267 0
 428 0062 0B80     		strh	r3, [r1]	@ bal_temp, MEM[base: _6, offset: 0B]
 429              	.LVL36:
 430              	.L18:
 269:../../lib/lpc11cx4-library/evt_lib/src/ltc6804.c **** 	}
 431              		.loc 1 269 0
 432 0064 002B     		cmp	r3, #0	@ bal_temp,
 433 0066 03D0     		beq	.L37	@,
 269:../../lib/lpc11cx4-library/evt_lib/src/ltc6804.c **** 	}
 434              		.loc 1 269 0 is_stmt 0 discriminator 1
 435 0068 4B46     		mov	r3, r9	@ state, state
 436 006a 5C46     		mov	r4, fp	@ tmp185, tmp185
 437 006c 5546     		mov	r5, r10	@ tmp215, tmp186
 438 006e 1D55     		strb	r5, [r3, r4]	@ tmp215, state_16(D)->balancing
 439              	.L37:
 440 0070 837A     		ldrb	r3, [r0, #10]	@ D.7879,
 441 0072 9C46     		mov	ip, r3	@ D.7879, D.7879
 442              	.L19:
 443              	.LBE74:
 259:../../lib/lpc11cx4-library/evt_lib/src/ltc6804.c **** 		uint16_t bal_temp = 0;
 444              		.loc 1 259 0 is_stmt 1 discriminator 2
 445 0074 0137     		adds	r7, r7, #1	@ i,
 446              	.LVL37:
 447 0076 0231     		adds	r1, r1, #2	@ ivtmp.64,
 448 0078 BC45     		cmp	ip, r7	@ D.7879, i
 449 007a DFDC     		bgt	.L16	@,
 272:../../lib/lpc11cx4-library/evt_lib/src/ltc6804.c **** 		return _set_balance_states(config, state, msTicks);
 450              		.loc 1 272 0
 451 007c 4346     		mov	r3, r8	@ change, change
 452 007e 002B     		cmp	r3, #0	@ change,
 453 0080 0BD1     		bne	.L40	@,
 454              	.LVL38:
 455              	.L23:
 275:../../lib/lpc11cx4-library/evt_lib/src/ltc6804.c **** 	}
 456              		.loc 1 275 0
 457 0082 0120     		movs	r0, #1	@ D.7876,
 458              	.LVL39:
 459              	.L33:
 277:../../lib/lpc11cx4-library/evt_lib/src/ltc6804.c **** 
 460              		.loc 1 277 0
 461 0084 03B0     		add	sp, sp, #12	@,,
 462              		@ sp needed	@
 463              	.LVL40:
 464 0086 3CBC     		pop	{r2, r3, r4, r5}
 465 0088 9046     		mov	r8, r2
 466 008a 9946     		mov	r9, r3
 467 008c A246     		mov	r10, r4
 468 008e AB46     		mov	fp, r5
 469 0090 F0BD     		pop	{r4, r5, r6, r7, pc}
 470              	.LVL41:
 471              	.L39:
 472              	.LBB75:
 265:../../lib/lpc11cx4-library/evt_lib/src/ltc6804.c **** 			change = true;
 473              		.loc 1 265 0
 474 0092 0D88     		ldrh	r5, [r1]	@ MEM[base: _21, offset: 0B], MEM[base: _21, offset: 0B]
 475 0094 002D     		cmp	r5, #0	@ MEM[base: _21, offset: 0B],
ARM GAS  /var/folders/z0/6xlwn_996xz3mwq1cgzkbq4r0000gp/T//ccvmbCXw.s 			page 21


 476 0096 E2D1     		bne	.L24	@,
 477 0098 ECE7     		b	.L19	@
 478              	.LVL42:
 479              	.L40:
 480              	.LBE75:
 273:../../lib/lpc11cx4-library/evt_lib/src/ltc6804.c **** 	} else {
 481              		.loc 1 273 0
 482 009a 019A     		ldr	r2, [sp, #4]	@, %sfp
 483              	.LVL43:
 484 009c 4946     		mov	r1, r9	@, state
 485 009e FFF7FEFF 		bl	_set_balance_states	@
 486              	.LVL44:
 487 00a2 EFE7     		b	.L33	@
 488              		.cfi_endproc
 489              	.LFE204:
 490              		.size	LTC6804_UpdateBalanceStates, .-LTC6804_UpdateBalanceStates
 491              		.section	.text.LTC6804_SetGPIOState,"ax",%progbits
 492              		.align	2
 493              		.global	LTC6804_SetGPIOState
 494              		.code	16
 495              		.thumb_func
 496              		.type	LTC6804_SetGPIOState, %function
 497              	LTC6804_SetGPIOState:
 498              	.LFB205:
 279:../../lib/lpc11cx4-library/evt_lib/src/ltc6804.c **** 	// valid gpio range: 1 <= gpio <= 5
 499              		.loc 1 279 0
 500              		.cfi_startproc
 501              		@ args = 4, pretend = 0, frame = 0
 502              		@ frame_needed = 0, uses_anonymous_args = 0
 503              	.LVL45:
 504 0000 F8B5     		push	{r3, r4, r5, r6, r7, lr}	@
 505              		.cfi_def_cfa_offset 24
 506              		.cfi_offset 3, -24
 507              		.cfi_offset 4, -20
 508              		.cfi_offset 5, -16
 509              		.cfi_offset 6, -12
 510              		.cfi_offset 7, -8
 511              		.cfi_offset 14, -4
 281:../../lib/lpc11cx4-library/evt_lib/src/ltc6804.c **** 		return LTC6804_FAIL;
 512              		.loc 1 281 0
 513 0002 541E     		subs	r4, r2, #1	@ tmp139, gpio,
 279:../../lib/lpc11cx4-library/evt_lib/src/ltc6804.c **** 	// valid gpio range: 1 <= gpio <= 5
 514              		.loc 1 279 0
 515 0004 0600     		movs	r6, r0	@ config, config
 282:../../lib/lpc11cx4-library/evt_lib/src/ltc6804.c **** 	}
 516              		.loc 1 282 0
 517 0006 0220     		movs	r0, #2	@ D.7887,
 518              	.LVL46:
 281:../../lib/lpc11cx4-library/evt_lib/src/ltc6804.c **** 		return LTC6804_FAIL;
 519              		.loc 1 281 0
 520 0008 042C     		cmp	r4, #4	@ tmp139,
 521 000a 00D9     		bls	.L48	@,
 522              	.LVL47:
 523              	.L42:
 296:../../lib/lpc11cx4-library/evt_lib/src/ltc6804.c **** 
 524              		.loc 1 296 0
 525              		@ sp needed	@
ARM GAS  /var/folders/z0/6xlwn_996xz3mwq1cgzkbq4r0000gp/T//ccvmbCXw.s 			page 22


 526              	.LVL48:
 527 000c F8BD     		pop	{r3, r4, r5, r6, r7, pc}
 528              	.LVL49:
 529              	.L48:
 285:../../lib/lpc11cx4-library/evt_lib/src/ltc6804.c **** 		// No Change
 530              		.loc 1 285 0
 531 000e 4869     		ldr	r0, [r1, #20]	@ D.7890, state_9(D)->cfg
 532 0010 0232     		adds	r2, r2, #2	@ D.7889,
 533              	.LVL50:
 534 0012 0578     		ldrb	r5, [r0]	@ D.7888, *_10
 535 0014 0127     		movs	r7, #1	@ tmp142,
 536 0016 2C00     		movs	r4, r5	@ D.7889, D.7888
 537 0018 1441     		asrs	r4, r4, r2	@ D.7889, D.7889, D.7889
 538 001a 5C40     		eors	r4, r3	@ D.7889, val
 539 001c 8446     		mov	ip, r0	@ D.7890, D.7890
 287:../../lib/lpc11cx4-library/evt_lib/src/ltc6804.c **** 	} else {
 540              		.loc 1 287 0
 541 001e 0120     		movs	r0, #1	@ D.7887,
 285:../../lib/lpc11cx4-library/evt_lib/src/ltc6804.c **** 		// No Change
 542              		.loc 1 285 0
 543 0020 2742     		tst	r7, r4	@ tmp142, D.7889
 544 0022 F3D0     		beq	.L42	@,
 290:../../lib/lpc11cx4-library/evt_lib/src/ltc6804.c **** 		else
 545              		.loc 1 290 0
 546 0024 9740     		lsls	r7, r7, r2	@ D.7889, tmp142, D.7889
 289:../../lib/lpc11cx4-library/evt_lib/src/ltc6804.c **** 			state->cfg[0] |= 1 << (gpio + 2);
 547              		.loc 1 289 0
 548 0026 002B     		cmp	r3, #0	@ val,
 549 0028 07D1     		bne	.L49	@,
 292:../../lib/lpc11cx4-library/evt_lib/src/ltc6804.c **** 
 550              		.loc 1 292 0
 551 002a 6346     		mov	r3, ip	@ D.7890, D.7890
 552              	.LVL51:
 553 002c BD43     		bics	r5, r7	@ tmp156, D.7889
 554 002e 1D70     		strb	r5, [r3]	@ tmp156, *_10
 555              	.L44:
 294:../../lib/lpc11cx4-library/evt_lib/src/ltc6804.c **** 	}
 556              		.loc 1 294 0
 557 0030 069A     		ldr	r2, [sp, #24]	@, msTicks
 558 0032 3000     		movs	r0, r6	@, config
 559 0034 FFF7FEFF 		bl	_set_balance_states	@
 560              	.LVL52:
 561 0038 E8E7     		b	.L42	@
 562              	.LVL53:
 563              	.L49:
 290:../../lib/lpc11cx4-library/evt_lib/src/ltc6804.c **** 		else
 564              		.loc 1 290 0
 565 003a 6346     		mov	r3, ip	@ D.7890, D.7890
 566              	.LVL54:
 567 003c 3D43     		orrs	r5, r7	@ tmp148, D.7889
 568 003e 1D70     		strb	r5, [r3]	@ tmp148, *_10
 569 0040 F6E7     		b	.L44	@
 570              		.cfi_endproc
 571              	.LFE205:
 572              		.size	LTC6804_SetGPIOState, .-LTC6804_SetGPIOState
 573 0042 C046     		.section	.text._wake,"ax",%progbits
 574              		.align	2
ARM GAS  /var/folders/z0/6xlwn_996xz3mwq1cgzkbq4r0000gp/T//ccvmbCXw.s 			page 23


 575              		.global	_wake
 576              		.code	16
 577              		.thumb_func
 578              		.type	_wake, %function
 579              	_wake:
 580              	.LFB212:
 547:../../lib/lpc11cx4-library/evt_lib/src/ltc6804.c **** 	if (msTicks - state->last_message < T_IDLE && !force) return LTC6804_PASS;
 581              		.loc 1 547 0
 582              		.cfi_startproc
 583              		@ args = 0, pretend = 0, frame = 0
 584              		@ frame_needed = 0, uses_anonymous_args = 0
 585              	.LVL55:
 586 0000 F0B5     		push	{r4, r5, r6, r7, lr}	@
 587              		.cfi_def_cfa_offset 20
 588              		.cfi_offset 4, -20
 589              		.cfi_offset 5, -16
 590              		.cfi_offset 6, -12
 591              		.cfi_offset 7, -8
 592              		.cfi_offset 14, -4
 593 0002 4746     		mov	r7, r8	@,
 594 0004 0C00     		movs	r4, r1	@ state, state
 548:../../lib/lpc11cx4-library/evt_lib/src/ltc6804.c **** 
 595              		.loc 1 548 0
 596 0006 C968     		ldr	r1, [r1, #12]	@ tmp156, state_6(D)->last_message
 597              	.LVL56:
 547:../../lib/lpc11cx4-library/evt_lib/src/ltc6804.c **** 	if (msTicks - state->last_message < T_IDLE && !force) return LTC6804_PASS;
 598              		.loc 1 547 0
 599 0008 80B4     		push	{r7}	@
 600              		.cfi_def_cfa_offset 24
 601              		.cfi_offset 8, -24
 547:../../lib/lpc11cx4-library/evt_lib/src/ltc6804.c **** 	if (msTicks - state->last_message < T_IDLE && !force) return LTC6804_PASS;
 602              		.loc 1 547 0
 603 000a 0500     		movs	r5, r0	@ config, config
 604 000c 9046     		mov	r8, r2	@ msTicks, msTicks
 548:../../lib/lpc11cx4-library/evt_lib/src/ltc6804.c **** 
 605              		.loc 1 548 0
 606 000e 561A     		subs	r6, r2, r1	@ D.7895, msTicks, tmp156
 607 0010 032E     		cmp	r6, #3	@ D.7895,
 608 0012 04D8     		bhi	.L51	@,
 548:../../lib/lpc11cx4-library/evt_lib/src/ltc6804.c **** 
 609              		.loc 1 548 0 is_stmt 0 discriminator 1
 610 0014 002B     		cmp	r3, #0	@ force,
 611 0016 36D0     		beq	.L60	@,
 612              	.LVL57:
 613              	.L52:
 554:../../lib/lpc11cx4-library/evt_lib/src/ltc6804.c **** 	state->last_sleep_wake = (waking) ? msTicks : state->last_sleep_wake;
 614              		.loc 1 554 0 is_stmt 1 discriminator 3
 615 0018 2269     		ldr	r2, [r4, #16]	@ wake, state_6(D)->wake_length
 616              	.LVL58:
 555:../../lib/lpc11cx4-library/evt_lib/src/ltc6804.c **** 
 617              		.loc 1 555 0 discriminator 3
 618 001a 636A     		ldr	r3, [r4, #36]	@ D.7894, state_6(D)->last_sleep_wake
 619              	.LVL59:
 620 001c 04E0     		b	.L58	@
 621              	.LVL60:
 622              	.L51:
 554:../../lib/lpc11cx4-library/evt_lib/src/ltc6804.c **** 	state->last_sleep_wake = (waking) ? msTicks : state->last_sleep_wake;
ARM GAS  /var/folders/z0/6xlwn_996xz3mwq1cgzkbq4r0000gp/T//ccvmbCXw.s 			page 24


 623              		.loc 1 554 0
 624 001e 1E4A     		ldr	r2, .L64	@ tmp137,
 625              	.LVL61:
 626 0020 9642     		cmp	r6, r2	@ D.7895, tmp137
 627 0022 34D9     		bls	.L63	@,
 555:../../lib/lpc11cx4-library/evt_lib/src/ltc6804.c **** 
 628              		.loc 1 555 0
 629 0024 4346     		mov	r3, r8	@ D.7894, msTicks
 630              	.LVL62:
 554:../../lib/lpc11cx4-library/evt_lib/src/ltc6804.c **** 	state->last_sleep_wake = (waking) ? msTicks : state->last_sleep_wake;
 631              		.loc 1 554 0
 632 0026 2269     		ldr	r2, [r4, #16]	@ wake, state_6(D)->wake_length
 633              	.LVL63:
 634              	.L58:
 635              	.LBB76:
 636              	.LBB77:
 637              		.file 2 "../../lib/lpc11cx4-library/lpc_chip_11cxx_lib/inc/gpio_11xx_2.h"
   1:../../lib/lpc11cx4-library/lpc_chip_11cxx_lib/inc/gpio_11xx_2.h **** /*
   2:../../lib/lpc11cx4-library/lpc_chip_11cxx_lib/inc/gpio_11xx_2.h ****  * @brief LPC11xx GPIO driver for CHIP_LPC11CXX, CHIP_LPC110X, CHIP_LPC11XXLV,
   3:../../lib/lpc11cx4-library/lpc_chip_11cxx_lib/inc/gpio_11xx_2.h ****  * and CHIP_LPC1125 families only.
   4:../../lib/lpc11cx4-library/lpc_chip_11cxx_lib/inc/gpio_11xx_2.h ****  *
   5:../../lib/lpc11cx4-library/lpc_chip_11cxx_lib/inc/gpio_11xx_2.h ****  * @note
   6:../../lib/lpc11cx4-library/lpc_chip_11cxx_lib/inc/gpio_11xx_2.h ****  * Copyright(C) NXP Semiconductors, 2013
   7:../../lib/lpc11cx4-library/lpc_chip_11cxx_lib/inc/gpio_11xx_2.h ****  * All rights reserved.
   8:../../lib/lpc11cx4-library/lpc_chip_11cxx_lib/inc/gpio_11xx_2.h ****  *
   9:../../lib/lpc11cx4-library/lpc_chip_11cxx_lib/inc/gpio_11xx_2.h ****  * @par
  10:../../lib/lpc11cx4-library/lpc_chip_11cxx_lib/inc/gpio_11xx_2.h ****  * Software that is described herein is for illustrative purposes only
  11:../../lib/lpc11cx4-library/lpc_chip_11cxx_lib/inc/gpio_11xx_2.h ****  * which provides customers with programming information regarding the
  12:../../lib/lpc11cx4-library/lpc_chip_11cxx_lib/inc/gpio_11xx_2.h ****  * LPC products.  This software is supplied "AS IS" without any warranties of
  13:../../lib/lpc11cx4-library/lpc_chip_11cxx_lib/inc/gpio_11xx_2.h ****  * any kind, and NXP Semiconductors and its licensor disclaim any and
  14:../../lib/lpc11cx4-library/lpc_chip_11cxx_lib/inc/gpio_11xx_2.h ****  * all warranties, express or implied, including all implied warranties of
  15:../../lib/lpc11cx4-library/lpc_chip_11cxx_lib/inc/gpio_11xx_2.h ****  * merchantability, fitness for a particular purpose and non-infringement of
  16:../../lib/lpc11cx4-library/lpc_chip_11cxx_lib/inc/gpio_11xx_2.h ****  * intellectual property rights.  NXP Semiconductors assumes no responsibility
  17:../../lib/lpc11cx4-library/lpc_chip_11cxx_lib/inc/gpio_11xx_2.h ****  * or liability for the use of the software, conveys no license or rights under any
  18:../../lib/lpc11cx4-library/lpc_chip_11cxx_lib/inc/gpio_11xx_2.h ****  * patent, copyright, mask work right, or any other intellectual property rights in
  19:../../lib/lpc11cx4-library/lpc_chip_11cxx_lib/inc/gpio_11xx_2.h ****  * or to any products. NXP Semiconductors reserves the right to make changes
  20:../../lib/lpc11cx4-library/lpc_chip_11cxx_lib/inc/gpio_11xx_2.h ****  * in the software without notification. NXP Semiconductors also makes no
  21:../../lib/lpc11cx4-library/lpc_chip_11cxx_lib/inc/gpio_11xx_2.h ****  * representation or warranty that such application will be suitable for the
  22:../../lib/lpc11cx4-library/lpc_chip_11cxx_lib/inc/gpio_11xx_2.h ****  * specified use without further testing or modification.
  23:../../lib/lpc11cx4-library/lpc_chip_11cxx_lib/inc/gpio_11xx_2.h ****  *
  24:../../lib/lpc11cx4-library/lpc_chip_11cxx_lib/inc/gpio_11xx_2.h ****  * @par
  25:../../lib/lpc11cx4-library/lpc_chip_11cxx_lib/inc/gpio_11xx_2.h ****  * Permission to use, copy, modify, and distribute this software and its
  26:../../lib/lpc11cx4-library/lpc_chip_11cxx_lib/inc/gpio_11xx_2.h ****  * documentation is hereby granted, under NXP Semiconductors' and its
  27:../../lib/lpc11cx4-library/lpc_chip_11cxx_lib/inc/gpio_11xx_2.h ****  * licensor's relevant copyrights in the software, without fee, provided that it
  28:../../lib/lpc11cx4-library/lpc_chip_11cxx_lib/inc/gpio_11xx_2.h ****  * is used in conjunction with NXP Semiconductors microcontrollers.  This
  29:../../lib/lpc11cx4-library/lpc_chip_11cxx_lib/inc/gpio_11xx_2.h ****  * copyright, permission, and disclaimer notice must appear in all copies of
  30:../../lib/lpc11cx4-library/lpc_chip_11cxx_lib/inc/gpio_11xx_2.h ****  * this code.
  31:../../lib/lpc11cx4-library/lpc_chip_11cxx_lib/inc/gpio_11xx_2.h ****  */
  32:../../lib/lpc11cx4-library/lpc_chip_11cxx_lib/inc/gpio_11xx_2.h **** 
  33:../../lib/lpc11cx4-library/lpc_chip_11cxx_lib/inc/gpio_11xx_2.h **** #ifndef __GPIO_11XX_2_H_
  34:../../lib/lpc11cx4-library/lpc_chip_11cxx_lib/inc/gpio_11xx_2.h **** #define __GPIO_11XX_2_H_
  35:../../lib/lpc11cx4-library/lpc_chip_11cxx_lib/inc/gpio_11xx_2.h **** 
  36:../../lib/lpc11cx4-library/lpc_chip_11cxx_lib/inc/gpio_11xx_2.h **** #ifdef __cplusplus
  37:../../lib/lpc11cx4-library/lpc_chip_11cxx_lib/inc/gpio_11xx_2.h **** extern "C" {
  38:../../lib/lpc11cx4-library/lpc_chip_11cxx_lib/inc/gpio_11xx_2.h **** #endif
  39:../../lib/lpc11cx4-library/lpc_chip_11cxx_lib/inc/gpio_11xx_2.h **** 
  40:../../lib/lpc11cx4-library/lpc_chip_11cxx_lib/inc/gpio_11xx_2.h **** /** @defgroup GPIO_11XX_2 CHIP: LPC11xx GPIO driver for CHIP_LPC11CXX, CHIP_LPC110X, and CHIP_LPC11
ARM GAS  /var/folders/z0/6xlwn_996xz3mwq1cgzkbq4r0000gp/T//ccvmbCXw.s 			page 25


  41:../../lib/lpc11cx4-library/lpc_chip_11cxx_lib/inc/gpio_11xx_2.h ****  * @ingroup CHIP_11XX_Drivers
  42:../../lib/lpc11cx4-library/lpc_chip_11cxx_lib/inc/gpio_11xx_2.h ****  * For device familes identified with CHIP definitions CHIP_LPC11CXX,
  43:../../lib/lpc11cx4-library/lpc_chip_11cxx_lib/inc/gpio_11xx_2.h ****  * CHIP_LPC110X, and CHIP_LPC11XXLV only.
  44:../../lib/lpc11cx4-library/lpc_chip_11cxx_lib/inc/gpio_11xx_2.h ****  * @{
  45:../../lib/lpc11cx4-library/lpc_chip_11cxx_lib/inc/gpio_11xx_2.h ****  */
  46:../../lib/lpc11cx4-library/lpc_chip_11cxx_lib/inc/gpio_11xx_2.h **** 
  47:../../lib/lpc11cx4-library/lpc_chip_11cxx_lib/inc/gpio_11xx_2.h **** #if defined(CHIP_LPC11CXX) || defined(CHIP_LPC110X) || defined(CHIP_LPC11XXLV) || defined(CHIP_LPC1
  48:../../lib/lpc11cx4-library/lpc_chip_11cxx_lib/inc/gpio_11xx_2.h **** 
  49:../../lib/lpc11cx4-library/lpc_chip_11cxx_lib/inc/gpio_11xx_2.h **** /**
  50:../../lib/lpc11cx4-library/lpc_chip_11cxx_lib/inc/gpio_11xx_2.h ****  * @brief  GPIO port register block structure
  51:../../lib/lpc11cx4-library/lpc_chip_11cxx_lib/inc/gpio_11xx_2.h ****  */
  52:../../lib/lpc11cx4-library/lpc_chip_11cxx_lib/inc/gpio_11xx_2.h **** typedef struct {				/*!< GPIO_PORT Structure */
  53:../../lib/lpc11cx4-library/lpc_chip_11cxx_lib/inc/gpio_11xx_2.h **** 	__IO uint32_t DATA[4096];			/*!< Offset: 0x0000 to 0x3FFC Data address masking register (R/W) */
  54:../../lib/lpc11cx4-library/lpc_chip_11cxx_lib/inc/gpio_11xx_2.h **** 	uint32_t RESERVED1[4096];
  55:../../lib/lpc11cx4-library/lpc_chip_11cxx_lib/inc/gpio_11xx_2.h **** 	__IO uint32_t DIR;					/*!< Offset: 0x8000 Data direction register (R/W) */
  56:../../lib/lpc11cx4-library/lpc_chip_11cxx_lib/inc/gpio_11xx_2.h **** 	__IO uint32_t IS;					/*!< Offset: 0x8004 Interrupt sense register (R/W) */
  57:../../lib/lpc11cx4-library/lpc_chip_11cxx_lib/inc/gpio_11xx_2.h **** 	__IO uint32_t IBE;					/*!< Offset: 0x8008 Interrupt both edges register (R/W) */
  58:../../lib/lpc11cx4-library/lpc_chip_11cxx_lib/inc/gpio_11xx_2.h **** 	__IO uint32_t IEV;					/*!< Offset: 0x800C Interrupt event register  (R/W) */
  59:../../lib/lpc11cx4-library/lpc_chip_11cxx_lib/inc/gpio_11xx_2.h **** 	__IO uint32_t IE;					/*!< Offset: 0x8010 Interrupt mask register (R/W) */
  60:../../lib/lpc11cx4-library/lpc_chip_11cxx_lib/inc/gpio_11xx_2.h **** 	__I  uint32_t RIS;					/*!< Offset: 0x8014 Raw interrupt status register (R/ ) */
  61:../../lib/lpc11cx4-library/lpc_chip_11cxx_lib/inc/gpio_11xx_2.h **** 	__I  uint32_t MIS;					/*!< Offset: 0x8018 Masked interrupt status register (R/ ) */
  62:../../lib/lpc11cx4-library/lpc_chip_11cxx_lib/inc/gpio_11xx_2.h **** 	__O  uint32_t IC;					/*!< Offset: 0x801C Interrupt clear register (W) */
  63:../../lib/lpc11cx4-library/lpc_chip_11cxx_lib/inc/gpio_11xx_2.h **** 	uint32_t RESERVED2[8184];			/* Padding added for aligning contiguous GPIO blocks */
  64:../../lib/lpc11cx4-library/lpc_chip_11cxx_lib/inc/gpio_11xx_2.h **** } LPC_GPIO_T;
  65:../../lib/lpc11cx4-library/lpc_chip_11cxx_lib/inc/gpio_11xx_2.h **** 
  66:../../lib/lpc11cx4-library/lpc_chip_11cxx_lib/inc/gpio_11xx_2.h **** /**
  67:../../lib/lpc11cx4-library/lpc_chip_11cxx_lib/inc/gpio_11xx_2.h ****  * @brief	Initialize GPIO block
  68:../../lib/lpc11cx4-library/lpc_chip_11cxx_lib/inc/gpio_11xx_2.h ****  * @param	pGPIO	: The base of GPIO peripheral on the chip
  69:../../lib/lpc11cx4-library/lpc_chip_11cxx_lib/inc/gpio_11xx_2.h ****  * @return	Nothing
  70:../../lib/lpc11cx4-library/lpc_chip_11cxx_lib/inc/gpio_11xx_2.h ****  */
  71:../../lib/lpc11cx4-library/lpc_chip_11cxx_lib/inc/gpio_11xx_2.h **** void Chip_GPIO_Init(LPC_GPIO_T *pGPIO);
  72:../../lib/lpc11cx4-library/lpc_chip_11cxx_lib/inc/gpio_11xx_2.h **** 
  73:../../lib/lpc11cx4-library/lpc_chip_11cxx_lib/inc/gpio_11xx_2.h **** /**
  74:../../lib/lpc11cx4-library/lpc_chip_11cxx_lib/inc/gpio_11xx_2.h ****  * @brief	De-Initialize GPIO block
  75:../../lib/lpc11cx4-library/lpc_chip_11cxx_lib/inc/gpio_11xx_2.h ****  * @param	pGPIO	: The base of GPIO peripheral on the chip
  76:../../lib/lpc11cx4-library/lpc_chip_11cxx_lib/inc/gpio_11xx_2.h ****  * @return	Nothing
  77:../../lib/lpc11cx4-library/lpc_chip_11cxx_lib/inc/gpio_11xx_2.h ****  */
  78:../../lib/lpc11cx4-library/lpc_chip_11cxx_lib/inc/gpio_11xx_2.h **** void Chip_GPIO_DeInit(LPC_GPIO_T *pGPIO);
  79:../../lib/lpc11cx4-library/lpc_chip_11cxx_lib/inc/gpio_11xx_2.h **** 
  80:../../lib/lpc11cx4-library/lpc_chip_11cxx_lib/inc/gpio_11xx_2.h **** /**
  81:../../lib/lpc11cx4-library/lpc_chip_11cxx_lib/inc/gpio_11xx_2.h ****  * @brief	Set a GPIO port/bit state
  82:../../lib/lpc11cx4-library/lpc_chip_11cxx_lib/inc/gpio_11xx_2.h ****  * @param	pGPIO	: The base of GPIO peripheral on the chip
  83:../../lib/lpc11cx4-library/lpc_chip_11cxx_lib/inc/gpio_11xx_2.h ****  * @param	port	: GPIO port to set
  84:../../lib/lpc11cx4-library/lpc_chip_11cxx_lib/inc/gpio_11xx_2.h ****  * @param	bit		: GPIO bit to set
  85:../../lib/lpc11cx4-library/lpc_chip_11cxx_lib/inc/gpio_11xx_2.h ****  * @param	setting	: true for high, false for low
  86:../../lib/lpc11cx4-library/lpc_chip_11cxx_lib/inc/gpio_11xx_2.h ****  * @return	Nothing
  87:../../lib/lpc11cx4-library/lpc_chip_11cxx_lib/inc/gpio_11xx_2.h ****  */
  88:../../lib/lpc11cx4-library/lpc_chip_11cxx_lib/inc/gpio_11xx_2.h **** STATIC INLINE void Chip_GPIO_WritePortBit(LPC_GPIO_T *pGPIO, uint32_t port, uint8_t bit, bool setti
  89:../../lib/lpc11cx4-library/lpc_chip_11cxx_lib/inc/gpio_11xx_2.h **** {
  90:../../lib/lpc11cx4-library/lpc_chip_11cxx_lib/inc/gpio_11xx_2.h **** 	pGPIO[port].DATA[1 << bit] = setting << bit;
  91:../../lib/lpc11cx4-library/lpc_chip_11cxx_lib/inc/gpio_11xx_2.h **** }
  92:../../lib/lpc11cx4-library/lpc_chip_11cxx_lib/inc/gpio_11xx_2.h **** 
  93:../../lib/lpc11cx4-library/lpc_chip_11cxx_lib/inc/gpio_11xx_2.h **** /**
  94:../../lib/lpc11cx4-library/lpc_chip_11cxx_lib/inc/gpio_11xx_2.h ****  * @brief	Set a GPIO pin state via the GPIO byte register
  95:../../lib/lpc11cx4-library/lpc_chip_11cxx_lib/inc/gpio_11xx_2.h ****  * @param	pGPIO	: The base of GPIO peripheral on the chip
  96:../../lib/lpc11cx4-library/lpc_chip_11cxx_lib/inc/gpio_11xx_2.h ****  * @param	port	: Port number
  97:../../lib/lpc11cx4-library/lpc_chip_11cxx_lib/inc/gpio_11xx_2.h ****  * @param	pin		: GPIO pin to set
ARM GAS  /var/folders/z0/6xlwn_996xz3mwq1cgzkbq4r0000gp/T//ccvmbCXw.s 			page 26


  98:../../lib/lpc11cx4-library/lpc_chip_11cxx_lib/inc/gpio_11xx_2.h ****  * @param	setting	: true for high, false for low
  99:../../lib/lpc11cx4-library/lpc_chip_11cxx_lib/inc/gpio_11xx_2.h ****  * @return	Nothing
 100:../../lib/lpc11cx4-library/lpc_chip_11cxx_lib/inc/gpio_11xx_2.h ****  * @note	This function replaces Chip_GPIO_WritePortBit()
 101:../../lib/lpc11cx4-library/lpc_chip_11cxx_lib/inc/gpio_11xx_2.h ****  */
 102:../../lib/lpc11cx4-library/lpc_chip_11cxx_lib/inc/gpio_11xx_2.h **** STATIC INLINE void Chip_GPIO_SetPinState(LPC_GPIO_T *pGPIO, uint8_t port, uint8_t pin, bool setting
 103:../../lib/lpc11cx4-library/lpc_chip_11cxx_lib/inc/gpio_11xx_2.h **** {
 104:../../lib/lpc11cx4-library/lpc_chip_11cxx_lib/inc/gpio_11xx_2.h **** 	pGPIO[port].DATA[1 << pin] = setting << pin;
 638              		.loc 2 104 0 discriminator 4
 639 0028 0127     		movs	r7, #1	@ tmp141,
 640              	.LBE77:
 641              	.LBE76:
 555:../../lib/lpc11cx4-library/evt_lib/src/ltc6804.c **** 
 642              		.loc 1 555 0 discriminator 4
 643 002a 6362     		str	r3, [r4, #36]	@ D.7894, state_6(D)->last_sleep_wake
 644              	.LBB81:
 645              	.LBB78:
 646              		.loc 2 104 0 discriminator 4
 647 002c A021     		movs	r1, #160	@ tmp158,
 648              	.LBE78:
 649              	.LBE81:
 559:../../lib/lpc11cx4-library/evt_lib/src/ltc6804.c **** 	Chip_GPIO_SetPinState(LPC_GPIO, config->cs_gpio, config->cs_pin, false);
 650              		.loc 1 559 0 discriminator 4
 651 002e 4346     		mov	r3, r8	@ msTicks, msTicks
 652              	.LBB82:
 653              	.LBB79:
 654              		.loc 2 104 0 discriminator 4
 655 0030 3800     		movs	r0, r7	@ D.7901, tmp141
 656              	.LVL64:
 657              	.LBE79:
 658              	.LBE82:
 559:../../lib/lpc11cx4-library/evt_lib/src/ltc6804.c **** 	Chip_GPIO_SetPinState(LPC_GPIO, config->cs_gpio, config->cs_pin, false);
 659              		.loc 1 559 0 discriminator 4
 660 0032 E360     		str	r3, [r4, #12]	@ msTicks, state_6(D)->last_message
 661              	.LVL65:
 662              	.LBB83:
 663              	.LBB80:
 664              		.loc 2 104 0 discriminator 4
 665 0034 C905     		lsls	r1, r1, #23	@ tmp158, tmp158,
 666 0036 8C46     		mov	ip, r1	@ tmp158, tmp158
 667 0038 697A     		ldrb	r1, [r5, #9]	@ D.7901,
 668 003a 2B7A     		ldrb	r3, [r5, #8]	@ D.7898,
 669 003c 8840     		lsls	r0, r0, r1	@ D.7901, D.7901, D.7901
 670 003e 8100     		lsls	r1, r0, #2	@ tmp142, D.7901,
 671 0040 0020     		movs	r0, #0	@ tmp143,
 672 0042 1B04     		lsls	r3, r3, #16	@ D.7898, D.7898,
 673 0044 6344     		add	r3, r3, ip	@ D.7900, tmp158
 674 0046 C850     		str	r0, [r1, r3]	@ tmp143, _34->DATA
 675              	.LVL66:
 676              	.LBE80:
 677              	.LBE83:
 561:../../lib/lpc11cx4-library/evt_lib/src/ltc6804.c **** 	Chip_GPIO_SetPinState(LPC_GPIO, config->cs_gpio, config->cs_pin, true);
 678              		.loc 1 561 0 discriminator 4
 679 0048 1449     		ldr	r1, .L64+4	@,
 680 004a 2868     		ldr	r0, [r5]	@, config_15(D)->pSSP
 681 004c FFF7FEFF 		bl	Chip_SSP_WriteFrames_Blocking	@
 682              	.LVL67:
 683              	.LBB84:
ARM GAS  /var/folders/z0/6xlwn_996xz3mwq1cgzkbq4r0000gp/T//ccvmbCXw.s 			page 27


 684              	.LBB85:
 685              		.loc 2 104 0 discriminator 4
 686 0050 A022     		movs	r2, #160	@ tmp161,
 687 0052 D205     		lsls	r2, r2, #23	@ tmp161, tmp161,
 688 0054 9446     		mov	ip, r2	@ tmp161, tmp161
 689 0056 6A7A     		ldrb	r2, [r5, #9]	@ D.7901,
 690 0058 2B7A     		ldrb	r3, [r5, #8]	@ D.7898,
 691 005a 9740     		lsls	r7, r7, r2	@ D.7901, tmp141, D.7901
 692 005c 1B04     		lsls	r3, r3, #16	@ D.7898, D.7898,
 693 005e 6344     		add	r3, r3, ip	@ D.7900, tmp161
 694 0060 BA00     		lsls	r2, r7, #2	@ tmp150, D.7901,
 695 0062 D750     		str	r7, [r2, r3]	@ D.7901, _29->DATA
 696              	.LVL68:
 697              	.LBE85:
 698              	.LBE84:
 565:../../lib/lpc11cx4-library/evt_lib/src/ltc6804.c **** 	if (waking && state->balancing) _set_balance_states(config, state, msTicks);
 699              		.loc 1 565 0 discriminator 4
 700 0064 0C4B     		ldr	r3, .L64	@ tmp151,
 701 0066 9E42     		cmp	r6, r3	@ D.7895, tmp151
 702 0068 0DD9     		bls	.L60	@,
 565:../../lib/lpc11cx4-library/evt_lib/src/ltc6804.c **** 	if (waking && state->balancing) _set_balance_states(config, state, msTicks);
 703              		.loc 1 565 0 is_stmt 0 discriminator 1
 704 006a 4246     		mov	r2, r8	@, msTicks
 705 006c 2100     		movs	r1, r4	@, state
 706 006e 2800     		movs	r0, r5	@, config
 707 0070 FFF7FEFF 		bl	LTC6804_WriteCFG	@
 708              	.LVL69:
 566:../../lib/lpc11cx4-library/evt_lib/src/ltc6804.c **** 
 709              		.loc 1 566 0 is_stmt 1 discriminator 1
 710 0074 2823     		movs	r3, #40	@ tmp152,
 711 0076 E35C     		ldrb	r3, [r4, r3]	@ tmp153,
 712 0078 002B     		cmp	r3, #0	@ tmp153,
 713 007a 04D0     		beq	.L60	@,
 566:../../lib/lpc11cx4-library/evt_lib/src/ltc6804.c **** 
 714              		.loc 1 566 0 is_stmt 0 discriminator 2
 715 007c 4246     		mov	r2, r8	@, msTicks
 716 007e 2100     		movs	r1, r4	@, state
 717 0080 2800     		movs	r0, r5	@, config
 718 0082 FFF7FEFF 		bl	_set_balance_states	@
 719              	.LVL70:
 720              	.L60:
 569:../../lib/lpc11cx4-library/evt_lib/src/ltc6804.c **** 
 721              		.loc 1 569 0 is_stmt 1
 722 0086 0120     		movs	r0, #1	@,
 723              		@ sp needed	@
 724              	.LVL71:
 725              	.LVL72:
 726              	.LVL73:
 727 0088 04BC     		pop	{r2}
 728 008a 9046     		mov	r8, r2
 729 008c F0BD     		pop	{r4, r5, r6, r7, pc}
 730              	.LVL74:
 731              	.L63:
 554:../../lib/lpc11cx4-library/evt_lib/src/ltc6804.c **** 	state->last_sleep_wake = (waking) ? msTicks : state->last_sleep_wake;
 732              		.loc 1 554 0 discriminator 2
 733 008e 002B     		cmp	r3, #0	@ force,
 734 0090 C2D1     		bne	.L52	@,
ARM GAS  /var/folders/z0/6xlwn_996xz3mwq1cgzkbq4r0000gp/T//ccvmbCXw.s 			page 28


 554:../../lib/lpc11cx4-library/evt_lib/src/ltc6804.c **** 	state->last_sleep_wake = (waking) ? msTicks : state->last_sleep_wake;
 735              		.loc 1 554 0 is_stmt 0
 736 0092 0222     		movs	r2, #2	@ wake,
 737              	.LVL75:
 555:../../lib/lpc11cx4-library/evt_lib/src/ltc6804.c **** 
 738              		.loc 1 555 0 is_stmt 1
 739 0094 636A     		ldr	r3, [r4, #36]	@ D.7894, state_6(D)->last_sleep_wake
 740              	.LVL76:
 741 0096 C7E7     		b	.L58	@
 742              	.L65:
 743              		.align	2
 744              	.L64:
 745 0098 07070000 		.word	1799
 746 009c 00000000 		.word	.LANCHOR1
 747              		.cfi_endproc
 748              	.LFE212:
 749              		.size	_wake, .-_wake
 750              		.section	.text._command,"ax",%progbits
 751              		.align	2
 752              		.global	_command
 753              		.code	16
 754              		.thumb_func
 755              		.type	_command, %function
 756              	_command:
 757              	.LFB209:
 480:../../lib/lpc11cx4-library/evt_lib/src/ltc6804.c **** 	_wake(config, state, msTicks, false);
 758              		.loc 1 480 0
 759              		.cfi_startproc
 760              		@ args = 0, pretend = 0, frame = 0
 761              		@ frame_needed = 0, uses_anonymous_args = 0
 762              	.LVL77:
 763 0000 F8B5     		push	{r3, r4, r5, r6, r7, lr}	@
 764              		.cfi_def_cfa_offset 24
 765              		.cfi_offset 3, -24
 766              		.cfi_offset 4, -20
 767              		.cfi_offset 5, -16
 768              		.cfi_offset 6, -12
 769              		.cfi_offset 7, -8
 770              		.cfi_offset 14, -4
 480:../../lib/lpc11cx4-library/evt_lib/src/ltc6804.c **** 	_wake(config, state, msTicks, false);
 771              		.loc 1 480 0
 772 0002 1E00     		movs	r6, r3	@ msTicks, msTicks
 773 0004 0C00     		movs	r4, r1	@ state, state
 774 0006 1700     		movs	r7, r2	@ cmd, cmd
 481:../../lib/lpc11cx4-library/evt_lib/src/ltc6804.c **** 
 775              		.loc 1 481 0
 776 0008 0023     		movs	r3, #0	@,
 777              	.LVL78:
 778 000a 3200     		movs	r2, r6	@, msTicks
 779              	.LVL79:
 480:../../lib/lpc11cx4-library/evt_lib/src/ltc6804.c **** 	_wake(config, state, msTicks, false);
 780              		.loc 1 480 0
 781 000c 0500     		movs	r5, r0	@ config, config
 481:../../lib/lpc11cx4-library/evt_lib/src/ltc6804.c **** 
 782              		.loc 1 481 0
 783 000e FFF7FEFF 		bl	_wake	@
 784              	.LVL80:
ARM GAS  /var/folders/z0/6xlwn_996xz3mwq1cgzkbq4r0000gp/T//ccvmbCXw.s 			page 29


 785              	.LBB86:
 786              	.LBB87:
 621:../../lib/lpc11cx4-library/evt_lib/src/ltc6804.c **** 	}
 787              		.loc 1 621 0
 788 0012 8020     		movs	r0, #128	@ tmp167,
 789              	.LBE87:
 790              	.LBE86:
 483:../../lib/lpc11cx4-library/evt_lib/src/ltc6804.c **** 	state->tx_buf[1] = cmd & 0xFF;
 791              		.loc 1 483 0
 792 0014 6268     		ldr	r2, [r4, #4]	@ tmp205, state_3(D)->tx_buf
 793 0016 3B0A     		lsrs	r3, r7, #8	@ tmp159, cmd,
 794 0018 1370     		strb	r3, [r2]	@ tmp159, *_6
 484:../../lib/lpc11cx4-library/evt_lib/src/ltc6804.c **** 	uint16_t pec = _calculate_pec(state->tx_buf, 2);
 795              		.loc 1 484 0
 796 001a 6368     		ldr	r3, [r4, #4]	@ tmp206, state_3(D)->tx_buf
 797              	.LBB91:
 798              	.LBB88:
 621:../../lib/lpc11cx4-library/evt_lib/src/ltc6804.c **** 	}
 799              		.loc 1 621 0
 800 001c 1B49     		ldr	r1, .L67	@ tmp162,
 801              	.LBE88:
 802              	.LBE91:
 484:../../lib/lpc11cx4-library/evt_lib/src/ltc6804.c **** 	uint16_t pec = _calculate_pec(state->tx_buf, 2);
 803              		.loc 1 484 0
 804 001e 5F70     		strb	r7, [r3, #1]	@ cmd, MEM[(uint8_t *)_11 + 1B]
 485:../../lib/lpc11cx4-library/evt_lib/src/ltc6804.c **** 	state->tx_buf[2] = pec >> 8;
 805              		.loc 1 485 0
 806 0020 6268     		ldr	r2, [r4, #4]	@ D.7905, state_3(D)->tx_buf
 807              	.LVL81:
 808              	.LBB92:
 809              	.LBB89:
 621:../../lib/lpc11cx4-library/evt_lib/src/ltc6804.c **** 	}
 810              		.loc 1 621 0
 811 0022 4001     		lsls	r0, r0, #5	@ tmp167, tmp167,
 620:../../lib/lpc11cx4-library/evt_lib/src/ltc6804.c **** 		remainder = (remainder<<8)^crc15Table[addr];
 812              		.loc 1 620 0
 813 0024 1378     		ldrb	r3, [r2]	@ D.7907, *_14
 621:../../lib/lpc11cx4-library/evt_lib/src/ltc6804.c **** 	}
 814              		.loc 1 621 0
 815 0026 5778     		ldrb	r7, [r2, #1]	@ MEM[(uint8_t *)_14 + 1B], MEM[(uint8_t *)_14 + 1B]
 816 0028 9B00     		lsls	r3, r3, #2	@ tmp163, D.7907,
 817 002a CB5A     		ldrh	r3, [r1, r3]	@ tmp166, crc15Table
 818              	.LBE89:
 819              	.LBE92:
 495:../../lib/lpc11cx4-library/evt_lib/src/ltc6804.c **** 
 820              		.loc 1 495 0
 821              		@ sp needed	@
 822              	.LBB93:
 823              	.LBB90:
 621:../../lib/lpc11cx4-library/evt_lib/src/ltc6804.c **** 	}
 824              		.loc 1 621 0
 825 002c 4340     		eors	r3, r0	@ remainder, tmp167
 826              	.LVL82:
 827 002e 1802     		lsls	r0, r3, #8	@ tmp168, remainder,
 828 0030 DB09     		lsrs	r3, r3, #7	@ tmp170, remainder,
 829              	.LVL83:
 830 0032 7B40     		eors	r3, r7	@ tmp174, MEM[(uint8_t *)_14 + 1B]
ARM GAS  /var/folders/z0/6xlwn_996xz3mwq1cgzkbq4r0000gp/T//ccvmbCXw.s 			page 30


 831 0034 FF27     		movs	r7, #255	@ tmp179,
 832 0036 3B40     		ands	r3, r7	@ D.7911, tmp179
 833 0038 80B2     		uxth	r0, r0	@ D.7906, tmp168
 834 003a 9B00     		lsls	r3, r3, #2	@ tmp181, D.7911,
 835 003c C95A     		ldrh	r1, [r1, r3]	@ D.7906, crc15Table
 836              	.LVL84:
 837              		.loc 1 623 0
 838 003e 0300     		movs	r3, r0	@ D.7906, D.7906
 839 0040 4B40     		eors	r3, r1	@ D.7906, D.7906
 840 0042 5B00     		lsls	r3, r3, #1	@ tmp186, tmp184,
 841 0044 9BB2     		uxth	r3, r3	@ D.7914, tmp186
 842              	.LVL85:
 843              	.LBE90:
 844              	.LBE93:
 486:../../lib/lpc11cx4-library/evt_lib/src/ltc6804.c **** 	state->tx_buf[3] = pec & 0xFF;
 845              		.loc 1 486 0
 846 0046 190A     		lsrs	r1, r3, #8	@ tmp187, D.7914,
 847 0048 9170     		strb	r1, [r2, #2]	@ tmp187, MEM[(uint8_t *)_14 + 2B]
 487:../../lib/lpc11cx4-library/evt_lib/src/ltc6804.c **** 
 848              		.loc 1 487 0
 849 004a 6268     		ldr	r2, [r4, #4]	@ tmp208, state_3(D)->tx_buf
 850 004c D370     		strb	r3, [r2, #3]	@ D.7914, MEM[(uint8_t *)_19 + 3B]
 489:../../lib/lpc11cx4-library/evt_lib/src/ltc6804.c **** 	Chip_GPIO_SetPinState(LPC_GPIO, config->cs_gpio, config->cs_pin, false);
 851              		.loc 1 489 0
 852 004e E660     		str	r6, [r4, #12]	@ msTicks, state_3(D)->last_message
 853              	.LVL86:
 854              	.LBB94:
 855              	.LBB95:
 856              		.loc 2 104 0
 857 0050 0126     		movs	r6, #1	@ tmp193,
 858              	.LVL87:
 859 0052 A022     		movs	r2, #160	@ tmp209,
 860 0054 3100     		movs	r1, r6	@ D.7911, tmp193
 861 0056 D205     		lsls	r2, r2, #23	@ tmp209, tmp209,
 862 0058 9446     		mov	ip, r2	@ tmp209, tmp209
 863 005a 6A7A     		ldrb	r2, [r5, #9]	@ D.7911,
 864 005c 2B7A     		ldrb	r3, [r5, #8]	@ D.7908,
 865 005e 9140     		lsls	r1, r1, r2	@ D.7911, D.7911, D.7911
 866 0060 8A00     		lsls	r2, r1, #2	@ tmp194, D.7911,
 867 0062 0021     		movs	r1, #0	@ tmp195,
 868 0064 1B04     		lsls	r3, r3, #16	@ D.7908, D.7908,
 869 0066 6344     		add	r3, r3, ip	@ D.7910, tmp209
 870 0068 D150     		str	r1, [r2, r3]	@ tmp195, _38->DATA
 871              	.LVL88:
 872              	.LBE95:
 873              	.LBE94:
 491:../../lib/lpc11cx4-library/evt_lib/src/ltc6804.c **** 	Chip_GPIO_SetPinState(LPC_GPIO, config->cs_gpio, config->cs_pin, true);
 874              		.loc 1 491 0
 875 006a 2868     		ldr	r0, [r5]	@, config_2(D)->pSSP
 876 006c 6168     		ldr	r1, [r4, #4]	@ state_3(D)->tx_buf, state_3(D)->tx_buf
 877 006e 0422     		movs	r2, #4	@,
 878 0070 FFF7FEFF 		bl	Chip_SSP_WriteFrames_Blocking	@
 879              	.LVL89:
 880              	.LBB96:
 881              	.LBB97:
 882              		.loc 2 104 0
 883 0074 A022     		movs	r2, #160	@ tmp212,
ARM GAS  /var/folders/z0/6xlwn_996xz3mwq1cgzkbq4r0000gp/T//ccvmbCXw.s 			page 31


 884 0076 D205     		lsls	r2, r2, #23	@ tmp212, tmp212,
 885 0078 9446     		mov	ip, r2	@ tmp212, tmp212
 886 007a 6A7A     		ldrb	r2, [r5, #9]	@ D.7911,
 887 007c 2B7A     		ldrb	r3, [r5, #8]	@ D.7908,
 888 007e 9640     		lsls	r6, r6, r2	@ D.7911, tmp193, D.7911
 889 0080 1B04     		lsls	r3, r3, #16	@ D.7908, D.7908,
 890 0082 B200     		lsls	r2, r6, #2	@ tmp202, D.7911,
 891 0084 6344     		add	r3, r3, ip	@ D.7910, tmp212
 892 0086 D650     		str	r6, [r2, r3]	@ D.7911, _33->DATA
 893              	.LVL90:
 894              	.LBE97:
 895              	.LBE96:
 495:../../lib/lpc11cx4-library/evt_lib/src/ltc6804.c **** 
 896              		.loc 1 495 0
 897 0088 0120     		movs	r0, #1	@,
 898              	.LVL91:
 899              	.LVL92:
 900 008a F8BD     		pop	{r3, r4, r5, r6, r7, pc}
 901              	.L68:
 902              		.align	2
 903              	.L67:
 904 008c 00000000 		.word	.LANCHOR0
 905              		.cfi_endproc
 906              	.LFE209:
 907              		.size	_command, .-_command
 908              		.section	.text.LTC6804_ClearCellVoltages,"ax",%progbits
 909              		.align	2
 910              		.global	LTC6804_ClearCellVoltages
 911              		.code	16
 912              		.thumb_func
 913              		.type	LTC6804_ClearCellVoltages, %function
 914              	LTC6804_ClearCellVoltages:
 915              	.LFB207:
 411:../../lib/lpc11cx4-library/evt_lib/src/ltc6804.c **** 	return _command(config, state, CLRCELL, msTicks);
 916              		.loc 1 411 0
 917              		.cfi_startproc
 918              		@ args = 0, pretend = 0, frame = 0
 919              		@ frame_needed = 0, uses_anonymous_args = 0
 920              	.LVL93:
 921 0000 10B5     		push	{r4, lr}	@
 922              		.cfi_def_cfa_offset 8
 923              		.cfi_offset 4, -8
 924              		.cfi_offset 14, -4
 411:../../lib/lpc11cx4-library/evt_lib/src/ltc6804.c **** 	return _command(config, state, CLRCELL, msTicks);
 925              		.loc 1 411 0
 926 0002 1300     		movs	r3, r2	@ msTicks, msTicks
 412:../../lib/lpc11cx4-library/evt_lib/src/ltc6804.c **** }
 927              		.loc 1 412 0
 928 0004 014A     		ldr	r2, .L70	@,
 929              	.LVL94:
 930 0006 FFF7FEFF 		bl	_command	@
 931              	.LVL95:
 413:../../lib/lpc11cx4-library/evt_lib/src/ltc6804.c **** 
 932              		.loc 1 413 0
 933              		@ sp needed	@
 934 000a 10BD     		pop	{r4, pc}
 935              	.L71:
ARM GAS  /var/folders/z0/6xlwn_996xz3mwq1cgzkbq4r0000gp/T//ccvmbCXw.s 			page 32


 936              		.align	2
 937              	.L70:
 938 000c 11070000 		.word	1809
 939              		.cfi_endproc
 940              	.LFE207:
 941              		.size	LTC6804_ClearCellVoltages, .-LTC6804_ClearCellVoltages
 942              		.section	.text._write,"ax",%progbits
 943              		.align	2
 944              		.global	_write
 945              		.code	16
 946              		.thumb_func
 947              		.type	_write, %function
 948              	_write:
 949              	.LFB210:
 497:../../lib/lpc11cx4-library/evt_lib/src/ltc6804.c **** 	_wake(config, state, msTicks, false);
 950              		.loc 1 497 0
 951              		.cfi_startproc
 952              		@ args = 0, pretend = 0, frame = 0
 953              		@ frame_needed = 0, uses_anonymous_args = 0
 954              	.LVL96:
 955 0000 F8B5     		push	{r3, r4, r5, r6, r7, lr}	@
 956              		.cfi_def_cfa_offset 24
 957              		.cfi_offset 3, -24
 958              		.cfi_offset 4, -20
 959              		.cfi_offset 5, -16
 960              		.cfi_offset 6, -12
 961              		.cfi_offset 7, -8
 962              		.cfi_offset 14, -4
 497:../../lib/lpc11cx4-library/evt_lib/src/ltc6804.c **** 	_wake(config, state, msTicks, false);
 963              		.loc 1 497 0
 964 0002 1E00     		movs	r6, r3	@ msTicks, msTicks
 965 0004 0D00     		movs	r5, r1	@ state, state
 966 0006 1700     		movs	r7, r2	@ cmd, cmd
 498:../../lib/lpc11cx4-library/evt_lib/src/ltc6804.c **** 
 967              		.loc 1 498 0
 968 0008 0023     		movs	r3, #0	@,
 969              	.LVL97:
 970 000a 3200     		movs	r2, r6	@, msTicks
 971              	.LVL98:
 497:../../lib/lpc11cx4-library/evt_lib/src/ltc6804.c **** 	_wake(config, state, msTicks, false);
 972              		.loc 1 497 0
 973 000c 0400     		movs	r4, r0	@ config, config
 498:../../lib/lpc11cx4-library/evt_lib/src/ltc6804.c **** 
 974              		.loc 1 498 0
 975 000e FFF7FEFF 		bl	_wake	@
 976              	.LVL99:
 977              	.LBB98:
 978              	.LBB99:
 621:../../lib/lpc11cx4-library/evt_lib/src/ltc6804.c **** 	}
 979              		.loc 1 621 0
 980 0012 8020     		movs	r0, #128	@ tmp172,
 981              	.LBE99:
 982              	.LBE98:
 500:../../lib/lpc11cx4-library/evt_lib/src/ltc6804.c **** 	state->tx_buf[1] = cmd & 0xFF;
 983              		.loc 1 500 0
 984 0014 6A68     		ldr	r2, [r5, #4]	@ tmp213, state_3(D)->tx_buf
 985 0016 3B0A     		lsrs	r3, r7, #8	@ tmp164, cmd,
ARM GAS  /var/folders/z0/6xlwn_996xz3mwq1cgzkbq4r0000gp/T//ccvmbCXw.s 			page 33


 986 0018 1370     		strb	r3, [r2]	@ tmp164, *_6
 501:../../lib/lpc11cx4-library/evt_lib/src/ltc6804.c **** 	uint16_t pec = _calculate_pec(state->tx_buf, 2);
 987              		.loc 1 501 0
 988 001a 6B68     		ldr	r3, [r5, #4]	@ tmp214, state_3(D)->tx_buf
 989              	.LBB103:
 990              	.LBB100:
 621:../../lib/lpc11cx4-library/evt_lib/src/ltc6804.c **** 	}
 991              		.loc 1 621 0
 992 001c 1C49     		ldr	r1, .L73	@ tmp167,
 993              	.LBE100:
 994              	.LBE103:
 501:../../lib/lpc11cx4-library/evt_lib/src/ltc6804.c **** 	uint16_t pec = _calculate_pec(state->tx_buf, 2);
 995              		.loc 1 501 0
 996 001e 5F70     		strb	r7, [r3, #1]	@ cmd, MEM[(uint8_t *)_11 + 1B]
 502:../../lib/lpc11cx4-library/evt_lib/src/ltc6804.c **** 	state->tx_buf[2] = pec >> 8;
 997              		.loc 1 502 0
 998 0020 6A68     		ldr	r2, [r5, #4]	@ D.7921, state_3(D)->tx_buf
 999              	.LVL100:
 1000              	.LBB104:
 1001              	.LBB101:
 621:../../lib/lpc11cx4-library/evt_lib/src/ltc6804.c **** 	}
 1002              		.loc 1 621 0
 1003 0022 4001     		lsls	r0, r0, #5	@ tmp172, tmp172,
 620:../../lib/lpc11cx4-library/evt_lib/src/ltc6804.c **** 		remainder = (remainder<<8)^crc15Table[addr];
 1004              		.loc 1 620 0
 1005 0024 1378     		ldrb	r3, [r2]	@ D.7923, *_14
 621:../../lib/lpc11cx4-library/evt_lib/src/ltc6804.c **** 	}
 1006              		.loc 1 621 0
 1007 0026 5778     		ldrb	r7, [r2, #1]	@ MEM[(uint8_t *)_14 + 1B], MEM[(uint8_t *)_14 + 1B]
 1008 0028 9B00     		lsls	r3, r3, #2	@ tmp168, D.7923,
 1009 002a CB5A     		ldrh	r3, [r1, r3]	@ tmp171, crc15Table
 1010              	.LBE101:
 1011              	.LBE104:
 512:../../lib/lpc11cx4-library/evt_lib/src/ltc6804.c **** 
 1012              		.loc 1 512 0
 1013              		@ sp needed	@
 1014              	.LBB105:
 1015              	.LBB102:
 621:../../lib/lpc11cx4-library/evt_lib/src/ltc6804.c **** 	}
 1016              		.loc 1 621 0
 1017 002c 4340     		eors	r3, r0	@ remainder, tmp172
 1018              	.LVL101:
 1019 002e 1802     		lsls	r0, r3, #8	@ tmp173, remainder,
 1020 0030 DB09     		lsrs	r3, r3, #7	@ tmp175, remainder,
 1021              	.LVL102:
 1022 0032 7B40     		eors	r3, r7	@ tmp179, MEM[(uint8_t *)_14 + 1B]
 1023 0034 FF27     		movs	r7, #255	@ tmp184,
 1024 0036 3B40     		ands	r3, r7	@ D.7926, tmp184
 1025 0038 80B2     		uxth	r0, r0	@ D.7922, tmp173
 1026 003a 9B00     		lsls	r3, r3, #2	@ tmp186, D.7926,
 1027 003c C95A     		ldrh	r1, [r1, r3]	@ D.7922, crc15Table
 1028              	.LVL103:
 1029              		.loc 1 623 0
 1030 003e 0300     		movs	r3, r0	@ D.7922, D.7922
 1031 0040 4B40     		eors	r3, r1	@ D.7922, D.7922
 1032 0042 5B00     		lsls	r3, r3, #1	@ tmp191, tmp189,
 1033 0044 9BB2     		uxth	r3, r3	@ D.7930, tmp191
ARM GAS  /var/folders/z0/6xlwn_996xz3mwq1cgzkbq4r0000gp/T//ccvmbCXw.s 			page 34


 1034              	.LVL104:
 1035              	.LBE102:
 1036              	.LBE105:
 503:../../lib/lpc11cx4-library/evt_lib/src/ltc6804.c **** 	state->tx_buf[3] = pec & 0xFF;
 1037              		.loc 1 503 0
 1038 0046 190A     		lsrs	r1, r3, #8	@ tmp192, D.7930,
 1039 0048 9170     		strb	r1, [r2, #2]	@ tmp192, MEM[(uint8_t *)_14 + 2B]
 504:../../lib/lpc11cx4-library/evt_lib/src/ltc6804.c **** 
 1040              		.loc 1 504 0
 1041 004a 6A68     		ldr	r2, [r5, #4]	@ tmp216, state_3(D)->tx_buf
 1042 004c D370     		strb	r3, [r2, #3]	@ D.7930, MEM[(uint8_t *)_19 + 3B]
 506:../../lib/lpc11cx4-library/evt_lib/src/ltc6804.c **** 	Chip_GPIO_SetPinState(LPC_GPIO, config->cs_gpio, config->cs_pin, false);
 1043              		.loc 1 506 0
 1044 004e EE60     		str	r6, [r5, #12]	@ msTicks, state_3(D)->last_message
 1045              	.LVL105:
 1046              	.LBB106:
 1047              	.LBB107:
 1048              		.loc 2 104 0
 1049 0050 0126     		movs	r6, #1	@ tmp198,
 1050              	.LVL106:
 1051 0052 A022     		movs	r2, #160	@ tmp217,
 1052 0054 3100     		movs	r1, r6	@ D.7926, tmp198
 1053 0056 D205     		lsls	r2, r2, #23	@ tmp217, tmp217,
 1054 0058 9446     		mov	ip, r2	@ tmp217, tmp217
 1055 005a 627A     		ldrb	r2, [r4, #9]	@ D.7926,
 1056 005c 237A     		ldrb	r3, [r4, #8]	@ D.7924,
 1057 005e 9140     		lsls	r1, r1, r2	@ D.7926, D.7926, D.7926
 1058 0060 8A00     		lsls	r2, r1, #2	@ tmp199, D.7926,
 1059 0062 0021     		movs	r1, #0	@ tmp200,
 1060 0064 1B04     		lsls	r3, r3, #16	@ D.7924, D.7924,
 1061 0066 6344     		add	r3, r3, ip	@ D.7928, tmp217
 1062 0068 D150     		str	r1, [r2, r3]	@ tmp200, _43->DATA
 1063              	.LVL107:
 1064              	.LBE107:
 1065              	.LBE106:
 508:../../lib/lpc11cx4-library/evt_lib/src/ltc6804.c **** 	Chip_GPIO_SetPinState(LPC_GPIO, config->cs_gpio, config->cs_pin, true);
 1066              		.loc 1 508 0
 1067 006a A27A     		ldrb	r2, [r4, #10]	@ D.7926,
 1068 006c 6968     		ldr	r1, [r5, #4]	@ state_3(D)->tx_buf, state_3(D)->tx_buf
 1069 006e D200     		lsls	r2, r2, #3	@ D.7926, D.7926,
 1070 0070 0432     		adds	r2, r2, #4	@ D.7926,
 1071 0072 2068     		ldr	r0, [r4]	@, config_2(D)->pSSP
 1072 0074 FFF7FEFF 		bl	Chip_SSP_WriteFrames_Blocking	@
 1073              	.LVL108:
 1074              	.LBB108:
 1075              	.LBB109:
 1076              		.loc 2 104 0
 1077 0078 A022     		movs	r2, #160	@ tmp220,
 1078 007a D205     		lsls	r2, r2, #23	@ tmp220, tmp220,
 1079 007c 9446     		mov	ip, r2	@ tmp220, tmp220
 1080 007e 627A     		ldrb	r2, [r4, #9]	@ D.7926,
 1081 0080 237A     		ldrb	r3, [r4, #8]	@ D.7924,
 1082 0082 9640     		lsls	r6, r6, r2	@ D.7926, tmp198, D.7926
 1083 0084 1B04     		lsls	r3, r3, #16	@ D.7924, D.7924,
 1084 0086 B200     		lsls	r2, r6, #2	@ tmp210, D.7926,
 1085 0088 6344     		add	r3, r3, ip	@ D.7928, tmp220
 1086 008a D650     		str	r6, [r2, r3]	@ D.7926, _38->DATA
ARM GAS  /var/folders/z0/6xlwn_996xz3mwq1cgzkbq4r0000gp/T//ccvmbCXw.s 			page 35


 1087              	.LVL109:
 1088              	.LBE109:
 1089              	.LBE108:
 512:../../lib/lpc11cx4-library/evt_lib/src/ltc6804.c **** 
 1090              		.loc 1 512 0
 1091 008c 0120     		movs	r0, #1	@,
 1092              	.LVL110:
 1093              	.LVL111:
 1094 008e F8BD     		pop	{r3, r4, r5, r6, r7, pc}
 1095              	.L74:
 1096              		.align	2
 1097              	.L73:
 1098 0090 00000000 		.word	.LANCHOR0
 1099              		.cfi_endproc
 1100              	.LFE210:
 1101              		.size	_write, .-_write
 1102              		.section	.text.LTC6804_WriteCFG,"ax",%progbits
 1103              		.align	2
 1104              		.global	LTC6804_WriteCFG
 1105              		.code	16
 1106              		.thumb_func
 1107              		.type	LTC6804_WriteCFG, %function
 1108              	LTC6804_WriteCFG:
 1109              	.LFB200:
  94:../../lib/lpc11cx4-library/evt_lib/src/ltc6804.c **** 	memcpy(state->tx_buf+4, state->cfg, 6);
 1110              		.loc 1 94 0
 1111              		.cfi_startproc
 1112              		@ args = 0, pretend = 0, frame = 0
 1113              		@ frame_needed = 0, uses_anonymous_args = 0
 1114              	.LVL112:
 1115 0000 F8B5     		push	{r3, r4, r5, r6, r7, lr}	@
 1116              		.cfi_def_cfa_offset 24
 1117              		.cfi_offset 3, -24
 1118              		.cfi_offset 4, -20
 1119              		.cfi_offset 5, -16
 1120              		.cfi_offset 6, -12
 1121              		.cfi_offset 7, -8
 1122              		.cfi_offset 14, -4
 1123 0002 4F46     		mov	r7, r9	@,
 1124 0004 4646     		mov	r6, r8	@,
 1125 0006 0C00     		movs	r4, r1	@ state, state
  95:../../lib/lpc11cx4-library/evt_lib/src/ltc6804.c **** 	uint16_t pec = _calculate_pec(state->tx_buf+4, 6);
 1126              		.loc 1 95 0
 1127 0008 4B68     		ldr	r3, [r1, #4]	@ tmp206, state_4(D)->tx_buf
  94:../../lib/lpc11cx4-library/evt_lib/src/ltc6804.c **** 	memcpy(state->tx_buf+4, state->cfg, 6);
 1128              		.loc 1 94 0
 1129 000a C0B4     		push	{r6, r7}	@
 1130              		.cfi_def_cfa_offset 32
 1131              		.cfi_offset 8, -32
 1132              		.cfi_offset 9, -28
  94:../../lib/lpc11cx4-library/evt_lib/src/ltc6804.c **** 	memcpy(state->tx_buf+4, state->cfg, 6);
 1133              		.loc 1 94 0
 1134 000c 0500     		movs	r5, r0	@ config, config
 1135 000e 9046     		mov	r8, r2	@ msTicks, msTicks
  95:../../lib/lpc11cx4-library/evt_lib/src/ltc6804.c **** 	uint16_t pec = _calculate_pec(state->tx_buf+4, 6);
 1136              		.loc 1 95 0
 1137 0010 181D     		adds	r0, r3, #4	@ D.7947, tmp206,
ARM GAS  /var/folders/z0/6xlwn_996xz3mwq1cgzkbq4r0000gp/T//ccvmbCXw.s 			page 36


 1138              	.LVL113:
 1139 0012 0622     		movs	r2, #6	@,
 1140              	.LVL114:
 1141 0014 4969     		ldr	r1, [r1, #20]	@, state_4(D)->cfg
 1142              	.LVL115:
 1143 0016 FFF7FEFF 		bl	memcpy	@
 1144              	.LVL116:
  96:../../lib/lpc11cx4-library/evt_lib/src/ltc6804.c **** 	state->tx_buf[10] = pec >> 8;
 1145              		.loc 1 96 0
 1146 001a 6368     		ldr	r3, [r4, #4]	@ D.7946, state_4(D)->tx_buf
 1147              	.LBB110:
 1148              	.LBB111:
 621:../../lib/lpc11cx4-library/evt_lib/src/ltc6804.c **** 	}
 1149              		.loc 1 621 0
 1150 001c FF20     		movs	r0, #255	@ tmp205,
 1151              	.LBE111:
 1152              	.LBE110:
  96:../../lib/lpc11cx4-library/evt_lib/src/ltc6804.c **** 	state->tx_buf[10] = pec >> 8;
 1153              		.loc 1 96 0
 1154 001e 9946     		mov	r9, r3	@ D.7946, D.7946
 1155              	.LVL117:
 1156 0020 1A1D     		adds	r2, r3, #4	@ ivtmp.88, D.7946,
 1157              	.LVL118:
 1158 0022 0A23     		movs	r3, #10	@ D.7956,
 1159 0024 4B44     		add	r3, r3, r9	@ D.7956, D.7946
 1160 0026 9C46     		mov	ip, r3	@ D.7956, D.7956
 1161              	.LBB114:
 1162              	.LBB112:
 616:../../lib/lpc11cx4-library/evt_lib/src/ltc6804.c **** 	uint8_t i;
 1163              		.loc 1 616 0
 1164 0028 1023     		movs	r3, #16	@ remainder,
 1165 002a 174F     		ldr	r7, .L84	@ tmp204,
 1166              	.LVL119:
 1167              	.L76:
 621:../../lib/lpc11cx4-library/evt_lib/src/ltc6804.c **** 	}
 1168              		.loc 1 621 0
 1169 002c 1678     		ldrb	r6, [r2]	@ MEM[base: _73, offset: 0B], MEM[base: _73, offset: 0B]
 1170 002e 1902     		lsls	r1, r3, #8	@ tmp170, remainder,
 1171 0030 DB09     		lsrs	r3, r3, #7	@ tmp172, remainder,
 1172              	.LVL120:
 1173 0032 7340     		eors	r3, r6	@ tmp176, MEM[base: _73, offset: 0B]
 1174 0034 0340     		ands	r3, r0	@ D.7950, tmp205
 1175 0036 9B00     		lsls	r3, r3, #2	@ tmp183, D.7950,
 1176 0038 FB5A     		ldrh	r3, [r7, r3]	@ D.7949, crc15Table
 1177 003a 89B2     		uxth	r1, r1	@ D.7949, tmp170
 1178 003c 0132     		adds	r2, r2, #1	@ ivtmp.88,
 1179              	.LVL121:
 1180 003e 4B40     		eors	r3, r1	@ remainder, D.7949
 1181              	.LVL122:
 618:../../lib/lpc11cx4-library/evt_lib/src/ltc6804.c **** 	{
 1182              		.loc 1 618 0
 1183 0040 6245     		cmp	r2, ip	@ ivtmp.88, D.7956
 1184 0042 F3D1     		bne	.L76	@,
 1185              	.LBE112:
 1186              	.LBE114:
  97:../../lib/lpc11cx4-library/evt_lib/src/ltc6804.c **** 	state->tx_buf[11] = pec & 0xFF;
 1187              		.loc 1 97 0
ARM GAS  /var/folders/z0/6xlwn_996xz3mwq1cgzkbq4r0000gp/T//ccvmbCXw.s 			page 37


 1188 0044 4946     		mov	r1, r9	@ D.7946, D.7946
 1189              	.LBB115:
 1190              	.LBB113:
 1191              		.loc 1 623 0
 1192 0046 5B00     		lsls	r3, r3, #1	@ tmp188, remainder,
 1193              	.LVL123:
 1194 0048 9BB2     		uxth	r3, r3	@ D.7955, tmp188
 1195              	.LVL124:
 1196              	.LBE113:
 1197              	.LBE115:
  97:../../lib/lpc11cx4-library/evt_lib/src/ltc6804.c **** 	state->tx_buf[11] = pec & 0xFF;
 1198              		.loc 1 97 0
 1199 004a 1A0A     		lsrs	r2, r3, #8	@ tmp189, D.7955,
 1200 004c 8A72     		strb	r2, [r1, #10]	@ tmp189, MEM[(uint8_t *)_9 + 10B]
  98:../../lib/lpc11cx4-library/evt_lib/src/ltc6804.c **** 
 1201              		.loc 1 98 0
 1202 004e 6268     		ldr	r2, [r4, #4]	@ tmp211, state_4(D)->tx_buf
 101:../../lib/lpc11cx4-library/evt_lib/src/ltc6804.c **** 		memcpy(state->tx_buf+4+8*i, state->tx_buf+4, 8);
 1203              		.loc 1 101 0
 1204 0050 0426     		movs	r6, #4	@ ivtmp.80,
  98:../../lib/lpc11cx4-library/evt_lib/src/ltc6804.c **** 
 1205              		.loc 1 98 0
 1206 0052 D372     		strb	r3, [r2, #11]	@ D.7955, MEM[(uint8_t *)_14 + 11B]
 1207              	.LVL125:
 101:../../lib/lpc11cx4-library/evt_lib/src/ltc6804.c **** 		memcpy(state->tx_buf+4+8*i, state->tx_buf+4, 8);
 1208              		.loc 1 101 0
 1209 0054 AB7A     		ldrb	r3, [r5, #10]	@ tmp192,
 1210 0056 0027     		movs	r7, #0	@ i,
 1211 0058 002B     		cmp	r3, #0	@ tmp192,
 1212 005a 0AD0     		beq	.L79	@,
 1213              	.LVL126:
 1214              	.L80:
 102:../../lib/lpc11cx4-library/evt_lib/src/ltc6804.c **** 	}
 1215              		.loc 1 102 0 discriminator 3
 1216 005c 6168     		ldr	r1, [r4, #4]	@ D.7946, state_4(D)->tx_buf
 1217 005e 0822     		movs	r2, #8	@,
 1218 0060 8819     		adds	r0, r1, r6	@ D.7946, D.7946, ivtmp.80
 1219 0062 0431     		adds	r1, r1, #4	@ D.7951,
 1220 0064 FFF7FEFF 		bl	memcpy	@
 1221              	.LVL127:
 101:../../lib/lpc11cx4-library/evt_lib/src/ltc6804.c **** 		memcpy(state->tx_buf+4+8*i, state->tx_buf+4, 8);
 1222              		.loc 1 101 0 discriminator 3
 1223 0068 AB7A     		ldrb	r3, [r5, #10]	@ D.7950,
 1224 006a 0137     		adds	r7, r7, #1	@ i,
 1225              	.LVL128:
 1226 006c 0836     		adds	r6, r6, #8	@ ivtmp.80,
 1227 006e BB42     		cmp	r3, r7	@ D.7950, i
 1228 0070 F4DC     		bgt	.L80	@,
 1229              	.LVL129:
 1230              	.L79:
 105:../../lib/lpc11cx4-library/evt_lib/src/ltc6804.c **** }
 1231              		.loc 1 105 0
 1232 0072 4346     		mov	r3, r8	@, msTicks
 1233 0074 2800     		movs	r0, r5	@, config
 1234 0076 0122     		movs	r2, #1	@,
 1235 0078 2100     		movs	r1, r4	@, state
 1236 007a FFF7FEFF 		bl	_write	@
ARM GAS  /var/folders/z0/6xlwn_996xz3mwq1cgzkbq4r0000gp/T//ccvmbCXw.s 			page 38


 1237              	.LVL130:
 106:../../lib/lpc11cx4-library/evt_lib/src/ltc6804.c **** 
 1238              		.loc 1 106 0
 1239              		@ sp needed	@
 1240              	.LVL131:
 1241              	.LVL132:
 1242              	.LVL133:
 1243 007e 0CBC     		pop	{r2, r3}
 1244 0080 9046     		mov	r8, r2
 1245 0082 9946     		mov	r9, r3
 1246 0084 F8BD     		pop	{r3, r4, r5, r6, r7, pc}
 1247              	.L85:
 1248 0086 C046     		.align	2
 1249              	.L84:
 1250 0088 00000000 		.word	.LANCHOR0
 1251              		.cfi_endproc
 1252              	.LFE200:
 1253              		.size	LTC6804_WriteCFG, .-LTC6804_WriteCFG
 1254              		.global	__aeabi_uidiv
 1255              		.section	.text.LTC6804_Init,"ax",%progbits
 1256              		.align	2
 1257              		.global	LTC6804_Init
 1258              		.code	16
 1259              		.thumb_func
 1260              		.type	LTC6804_Init, %function
 1261              	LTC6804_Init:
 1262              	.LFB199:
  48:../../lib/lpc11cx4-library/evt_lib/src/ltc6804.c **** 	Chip_GPIO_WriteDirBit(LPC_GPIO, config->cs_gpio, config->cs_pin, true);
 1263              		.loc 1 48 0
 1264              		.cfi_startproc
 1265              		@ args = 0, pretend = 0, frame = 0
 1266              		@ frame_needed = 0, uses_anonymous_args = 0
 1267              	.LVL134:
 1268 0000 F8B5     		push	{r3, r4, r5, r6, r7, lr}	@
 1269              		.cfi_def_cfa_offset 24
 1270              		.cfi_offset 3, -24
 1271              		.cfi_offset 4, -20
 1272              		.cfi_offset 5, -16
 1273              		.cfi_offset 6, -12
 1274              		.cfi_offset 7, -8
 1275              		.cfi_offset 14, -4
  48:../../lib/lpc11cx4-library/evt_lib/src/ltc6804.c **** 	Chip_GPIO_WriteDirBit(LPC_GPIO, config->cs_gpio, config->cs_pin, true);
 1276              		.loc 1 48 0
 1277 0002 0C00     		movs	r4, r1	@ state, state
 1278 0004 0500     		movs	r5, r0	@ config, config
 1279 0006 1600     		movs	r6, r2	@ msTicks, msTicks
  49:../../lib/lpc11cx4-library/evt_lib/src/ltc6804.c **** 	Chip_GPIO_SetPinState(LPC_GPIO, config->cs_gpio, config->cs_pin, true);
 1280              		.loc 1 49 0
 1281 0008 017A     		ldrb	r1, [r0, #8]	@ D.7968,
 1282              	.LVL135:
 1283 000a 427A     		ldrb	r2, [r0, #9]	@ tmp175,
 1284              	.LVL136:
 1285 000c A020     		movs	r0, #160	@,
 1286              	.LVL137:
 1287 000e 0123     		movs	r3, #1	@,
 1288 0010 C005     		lsls	r0, r0, #23	@,,
 1289 0012 FFF7FEFF 		bl	Chip_GPIO_WriteDirBit	@
ARM GAS  /var/folders/z0/6xlwn_996xz3mwq1cgzkbq4r0000gp/T//ccvmbCXw.s 			page 39


 1290              	.LVL138:
 1291              	.LBB116:
 1292              	.LBB117:
 1293              		.loc 2 104 0
 1294 0016 A022     		movs	r2, #160	@ tmp267,
 1295 0018 D205     		lsls	r2, r2, #23	@ tmp267, tmp267,
 1296 001a 9446     		mov	ip, r2	@ tmp267, tmp267
 1297 001c 0122     		movs	r2, #1	@ tmp181,
 1298 001e 697A     		ldrb	r1, [r5, #9]	@ D.7974,
 1299 0020 2B7A     		ldrb	r3, [r5, #8]	@ D.7970,
 1300 0022 8A40     		lsls	r2, r2, r1	@ D.7974, tmp181, D.7974
 1301 0024 1B04     		lsls	r3, r3, #16	@ D.7970, D.7970,
 1302 0026 6344     		add	r3, r3, ip	@ D.7979, tmp267
 1303 0028 9100     		lsls	r1, r2, #2	@ tmp182, D.7974,
 1304 002a CA50     		str	r2, [r1, r3]	@ D.7974, _87->DATA
 1305              	.LVL139:
 1306              	.LBE117:
 1307              	.LBE116:
  52:../../lib/lpc11cx4-library/evt_lib/src/ltc6804.c **** 	Chip_SSP_SetBitRate(config->pSSP, config->baud);
 1308              		.loc 1 52 0
 1309 002c 2868     		ldr	r0, [r5]	@, config_2(D)->pSSP
 1310 002e FFF7FEFF 		bl	Chip_SSP_Init	@
 1311              	.LVL140:
  53:../../lib/lpc11cx4-library/evt_lib/src/ltc6804.c **** 	Chip_SSP_SetFormat(config->pSSP, SSP_BITS_8, SSP_FRAMEFORMAT_SPI, SSP_CLOCK_MODE3);
 1312              		.loc 1 53 0
 1313 0032 6968     		ldr	r1, [r5, #4]	@, config_2(D)->baud
 1314 0034 2868     		ldr	r0, [r5]	@, config_2(D)->pSSP
 1315 0036 FFF7FEFF 		bl	Chip_SSP_SetBitRate	@
 1316              	.LVL141:
 1317              	.LBB118:
 1318              	.LBB119:
 1319              		.file 3 "../../lib/lpc11cx4-library/lpc_chip_11cxx_lib/inc/ssp_11xx.h"
   1:../../lib/lpc11cx4-library/lpc_chip_11cxx_lib/inc/ssp_11xx.h **** /*
   2:../../lib/lpc11cx4-library/lpc_chip_11cxx_lib/inc/ssp_11xx.h ****  * @brief LPC11xx SSP Registers and control functions
   3:../../lib/lpc11cx4-library/lpc_chip_11cxx_lib/inc/ssp_11xx.h ****  *
   4:../../lib/lpc11cx4-library/lpc_chip_11cxx_lib/inc/ssp_11xx.h ****  * @note
   5:../../lib/lpc11cx4-library/lpc_chip_11cxx_lib/inc/ssp_11xx.h ****  * Copyright(C) NXP Semiconductors, 2012
   6:../../lib/lpc11cx4-library/lpc_chip_11cxx_lib/inc/ssp_11xx.h ****  * All rights reserved.
   7:../../lib/lpc11cx4-library/lpc_chip_11cxx_lib/inc/ssp_11xx.h ****  *
   8:../../lib/lpc11cx4-library/lpc_chip_11cxx_lib/inc/ssp_11xx.h ****  * @par
   9:../../lib/lpc11cx4-library/lpc_chip_11cxx_lib/inc/ssp_11xx.h ****  * Software that is described herein is for illustrative purposes only
  10:../../lib/lpc11cx4-library/lpc_chip_11cxx_lib/inc/ssp_11xx.h ****  * which provides customers with programming information regarding the
  11:../../lib/lpc11cx4-library/lpc_chip_11cxx_lib/inc/ssp_11xx.h ****  * LPC products.  This software is supplied "AS IS" without any warranties of
  12:../../lib/lpc11cx4-library/lpc_chip_11cxx_lib/inc/ssp_11xx.h ****  * any kind, and NXP Semiconductors and its licensor disclaim any and
  13:../../lib/lpc11cx4-library/lpc_chip_11cxx_lib/inc/ssp_11xx.h ****  * all warranties, express or implied, including all implied warranties of
  14:../../lib/lpc11cx4-library/lpc_chip_11cxx_lib/inc/ssp_11xx.h ****  * merchantability, fitness for a particular purpose and non-infringement of
  15:../../lib/lpc11cx4-library/lpc_chip_11cxx_lib/inc/ssp_11xx.h ****  * intellectual property rights.  NXP Semiconductors assumes no responsibility
  16:../../lib/lpc11cx4-library/lpc_chip_11cxx_lib/inc/ssp_11xx.h ****  * or liability for the use of the software, conveys no license or rights under any
  17:../../lib/lpc11cx4-library/lpc_chip_11cxx_lib/inc/ssp_11xx.h ****  * patent, copyright, mask work right, or any other intellectual property rights in
  18:../../lib/lpc11cx4-library/lpc_chip_11cxx_lib/inc/ssp_11xx.h ****  * or to any products. NXP Semiconductors reserves the right to make changes
  19:../../lib/lpc11cx4-library/lpc_chip_11cxx_lib/inc/ssp_11xx.h ****  * in the software without notification. NXP Semiconductors also makes no
  20:../../lib/lpc11cx4-library/lpc_chip_11cxx_lib/inc/ssp_11xx.h ****  * representation or warranty that such application will be suitable for the
  21:../../lib/lpc11cx4-library/lpc_chip_11cxx_lib/inc/ssp_11xx.h ****  * specified use without further testing or modification.
  22:../../lib/lpc11cx4-library/lpc_chip_11cxx_lib/inc/ssp_11xx.h ****  *
  23:../../lib/lpc11cx4-library/lpc_chip_11cxx_lib/inc/ssp_11xx.h ****  * @par
  24:../../lib/lpc11cx4-library/lpc_chip_11cxx_lib/inc/ssp_11xx.h ****  * Permission to use, copy, modify, and distribute this software and its
  25:../../lib/lpc11cx4-library/lpc_chip_11cxx_lib/inc/ssp_11xx.h ****  * documentation is hereby granted, under NXP Semiconductors' and its
ARM GAS  /var/folders/z0/6xlwn_996xz3mwq1cgzkbq4r0000gp/T//ccvmbCXw.s 			page 40


  26:../../lib/lpc11cx4-library/lpc_chip_11cxx_lib/inc/ssp_11xx.h ****  * licensor's relevant copyrights in the software, without fee, provided that it
  27:../../lib/lpc11cx4-library/lpc_chip_11cxx_lib/inc/ssp_11xx.h ****  * is used in conjunction with NXP Semiconductors microcontrollers.  This
  28:../../lib/lpc11cx4-library/lpc_chip_11cxx_lib/inc/ssp_11xx.h ****  * copyright, permission, and disclaimer notice must appear in all copies of
  29:../../lib/lpc11cx4-library/lpc_chip_11cxx_lib/inc/ssp_11xx.h ****  * this code.
  30:../../lib/lpc11cx4-library/lpc_chip_11cxx_lib/inc/ssp_11xx.h ****  */
  31:../../lib/lpc11cx4-library/lpc_chip_11cxx_lib/inc/ssp_11xx.h **** 
  32:../../lib/lpc11cx4-library/lpc_chip_11cxx_lib/inc/ssp_11xx.h **** #ifndef __SSP_11XX_H_
  33:../../lib/lpc11cx4-library/lpc_chip_11cxx_lib/inc/ssp_11xx.h **** #define __SSP_11XX_H_
  34:../../lib/lpc11cx4-library/lpc_chip_11cxx_lib/inc/ssp_11xx.h **** 
  35:../../lib/lpc11cx4-library/lpc_chip_11cxx_lib/inc/ssp_11xx.h **** #ifdef __cplusplus
  36:../../lib/lpc11cx4-library/lpc_chip_11cxx_lib/inc/ssp_11xx.h **** extern "C" {
  37:../../lib/lpc11cx4-library/lpc_chip_11cxx_lib/inc/ssp_11xx.h **** #endif
  38:../../lib/lpc11cx4-library/lpc_chip_11cxx_lib/inc/ssp_11xx.h **** 
  39:../../lib/lpc11cx4-library/lpc_chip_11cxx_lib/inc/ssp_11xx.h **** /** @defgroup SSP_11XX CHIP: LPC11xx SSP register block and driver
  40:../../lib/lpc11cx4-library/lpc_chip_11cxx_lib/inc/ssp_11xx.h ****  * @ingroup CHIP_11XX_Drivers
  41:../../lib/lpc11cx4-library/lpc_chip_11cxx_lib/inc/ssp_11xx.h ****  * @{
  42:../../lib/lpc11cx4-library/lpc_chip_11cxx_lib/inc/ssp_11xx.h ****  */
  43:../../lib/lpc11cx4-library/lpc_chip_11cxx_lib/inc/ssp_11xx.h **** 
  44:../../lib/lpc11cx4-library/lpc_chip_11cxx_lib/inc/ssp_11xx.h **** /**
  45:../../lib/lpc11cx4-library/lpc_chip_11cxx_lib/inc/ssp_11xx.h ****  * @brief SSP register block structure
  46:../../lib/lpc11cx4-library/lpc_chip_11cxx_lib/inc/ssp_11xx.h ****  */
  47:../../lib/lpc11cx4-library/lpc_chip_11cxx_lib/inc/ssp_11xx.h **** typedef struct {			/*!< SSPn Structure         */
  48:../../lib/lpc11cx4-library/lpc_chip_11cxx_lib/inc/ssp_11xx.h **** 	__IO uint32_t CR0;		/*!< Control Register 0. Selects the serial clock rate, bus type, and data siz
  49:../../lib/lpc11cx4-library/lpc_chip_11cxx_lib/inc/ssp_11xx.h **** 	__IO uint32_t CR1;		/*!< Control Register 1. Selects master/slave and other modes. */
  50:../../lib/lpc11cx4-library/lpc_chip_11cxx_lib/inc/ssp_11xx.h **** 	__IO uint32_t DR;		/*!< Data Register. Writes fill the transmit FIFO, and reads empty the receive 
  51:../../lib/lpc11cx4-library/lpc_chip_11cxx_lib/inc/ssp_11xx.h **** 	__I  uint32_t SR;		/*!< Status Register        */
  52:../../lib/lpc11cx4-library/lpc_chip_11cxx_lib/inc/ssp_11xx.h **** 	__IO uint32_t CPSR;		/*!< Clock Prescale Register */
  53:../../lib/lpc11cx4-library/lpc_chip_11cxx_lib/inc/ssp_11xx.h **** 	__IO uint32_t IMSC;		/*!< Interrupt Mask Set and Clear Register */
  54:../../lib/lpc11cx4-library/lpc_chip_11cxx_lib/inc/ssp_11xx.h **** 	__I  uint32_t RIS;		/*!< Raw Interrupt Status Register */
  55:../../lib/lpc11cx4-library/lpc_chip_11cxx_lib/inc/ssp_11xx.h **** 	__I  uint32_t MIS;		/*!< Masked Interrupt Status Register */
  56:../../lib/lpc11cx4-library/lpc_chip_11cxx_lib/inc/ssp_11xx.h **** 	__O  uint32_t ICR;		/*!< SSPICR Interrupt Clear Register */
  57:../../lib/lpc11cx4-library/lpc_chip_11cxx_lib/inc/ssp_11xx.h **** } LPC_SSP_T;
  58:../../lib/lpc11cx4-library/lpc_chip_11cxx_lib/inc/ssp_11xx.h **** 
  59:../../lib/lpc11cx4-library/lpc_chip_11cxx_lib/inc/ssp_11xx.h **** /**
  60:../../lib/lpc11cx4-library/lpc_chip_11cxx_lib/inc/ssp_11xx.h ****  * Macro defines for CR0 register
  61:../../lib/lpc11cx4-library/lpc_chip_11cxx_lib/inc/ssp_11xx.h ****  */
  62:../../lib/lpc11cx4-library/lpc_chip_11cxx_lib/inc/ssp_11xx.h **** 
  63:../../lib/lpc11cx4-library/lpc_chip_11cxx_lib/inc/ssp_11xx.h **** /** SSP data size select, must be 4 bits to 16 bits */
  64:../../lib/lpc11cx4-library/lpc_chip_11cxx_lib/inc/ssp_11xx.h **** #define SSP_CR0_DSS(n)          ((uint32_t) ((n) & 0xF))
  65:../../lib/lpc11cx4-library/lpc_chip_11cxx_lib/inc/ssp_11xx.h **** /** SSP control 0 Motorola SPI mode */
  66:../../lib/lpc11cx4-library/lpc_chip_11cxx_lib/inc/ssp_11xx.h **** #define SSP_CR0_FRF_SPI         ((uint32_t) (0 << 4))
  67:../../lib/lpc11cx4-library/lpc_chip_11cxx_lib/inc/ssp_11xx.h **** /** SSP control 0 TI synchronous serial mode */
  68:../../lib/lpc11cx4-library/lpc_chip_11cxx_lib/inc/ssp_11xx.h **** #define SSP_CR0_FRF_TI          ((uint32_t) (1 << 4))
  69:../../lib/lpc11cx4-library/lpc_chip_11cxx_lib/inc/ssp_11xx.h **** /** SSP control 0 National Micro-wire mode */
  70:../../lib/lpc11cx4-library/lpc_chip_11cxx_lib/inc/ssp_11xx.h **** #define SSP_CR0_FRF_MICROWIRE   ((uint32_t) (2 << 4))
  71:../../lib/lpc11cx4-library/lpc_chip_11cxx_lib/inc/ssp_11xx.h **** /** SPI clock polarity bit (used in SPI mode only), (1) = maintains the
  72:../../lib/lpc11cx4-library/lpc_chip_11cxx_lib/inc/ssp_11xx.h ****    bus clock high between frames, (0) = low */
  73:../../lib/lpc11cx4-library/lpc_chip_11cxx_lib/inc/ssp_11xx.h **** #define SSP_CR0_CPOL_LO     ((uint32_t) (0))
  74:../../lib/lpc11cx4-library/lpc_chip_11cxx_lib/inc/ssp_11xx.h **** #define SSP_CR0_CPOL_HI     ((uint32_t) (1 << 6))
  75:../../lib/lpc11cx4-library/lpc_chip_11cxx_lib/inc/ssp_11xx.h **** /** SPI clock out phase bit (used in SPI mode only), (1) = captures data
  76:../../lib/lpc11cx4-library/lpc_chip_11cxx_lib/inc/ssp_11xx.h ****    on the second clock transition of the frame, (0) = first */
  77:../../lib/lpc11cx4-library/lpc_chip_11cxx_lib/inc/ssp_11xx.h **** #define SSP_CR0_CPHA_FIRST  ((uint32_t) (0))
  78:../../lib/lpc11cx4-library/lpc_chip_11cxx_lib/inc/ssp_11xx.h **** #define SSP_CR0_CPHA_SECOND ((uint32_t) (1 << 7))
  79:../../lib/lpc11cx4-library/lpc_chip_11cxx_lib/inc/ssp_11xx.h **** /** SSP serial clock rate value load macro, divider rate is
  80:../../lib/lpc11cx4-library/lpc_chip_11cxx_lib/inc/ssp_11xx.h ****    PERIPH_CLK / (cpsr * (SCR + 1)) */
  81:../../lib/lpc11cx4-library/lpc_chip_11cxx_lib/inc/ssp_11xx.h **** #define SSP_CR0_SCR(n)      ((uint32_t) ((n & 0xFF) << 8))
  82:../../lib/lpc11cx4-library/lpc_chip_11cxx_lib/inc/ssp_11xx.h **** /** SSP CR0 bit mask */
ARM GAS  /var/folders/z0/6xlwn_996xz3mwq1cgzkbq4r0000gp/T//ccvmbCXw.s 			page 41


  83:../../lib/lpc11cx4-library/lpc_chip_11cxx_lib/inc/ssp_11xx.h **** #define SSP_CR0_BITMASK     ((uint32_t) (0xFFFF))
  84:../../lib/lpc11cx4-library/lpc_chip_11cxx_lib/inc/ssp_11xx.h **** /** SSP CR0 bit mask */
  85:../../lib/lpc11cx4-library/lpc_chip_11cxx_lib/inc/ssp_11xx.h **** #define SSP_CR0_BITMASK     ((uint32_t) (0xFFFF))
  86:../../lib/lpc11cx4-library/lpc_chip_11cxx_lib/inc/ssp_11xx.h **** /** SSP serial clock rate value load macro, divider rate is
  87:../../lib/lpc11cx4-library/lpc_chip_11cxx_lib/inc/ssp_11xx.h ****    PERIPH_CLK / (cpsr * (SCR + 1)) */
  88:../../lib/lpc11cx4-library/lpc_chip_11cxx_lib/inc/ssp_11xx.h **** #define SSP_CR0_SCR(n)      ((uint32_t) ((n & 0xFF) << 8))
  89:../../lib/lpc11cx4-library/lpc_chip_11cxx_lib/inc/ssp_11xx.h **** 
  90:../../lib/lpc11cx4-library/lpc_chip_11cxx_lib/inc/ssp_11xx.h **** /**
  91:../../lib/lpc11cx4-library/lpc_chip_11cxx_lib/inc/ssp_11xx.h ****  * Macro defines for CR1 register
  92:../../lib/lpc11cx4-library/lpc_chip_11cxx_lib/inc/ssp_11xx.h ****  */
  93:../../lib/lpc11cx4-library/lpc_chip_11cxx_lib/inc/ssp_11xx.h **** 
  94:../../lib/lpc11cx4-library/lpc_chip_11cxx_lib/inc/ssp_11xx.h **** /** SSP control 1 loopback mode enable bit */
  95:../../lib/lpc11cx4-library/lpc_chip_11cxx_lib/inc/ssp_11xx.h **** #define SSP_CR1_LBM_EN      ((uint32_t) (1 << 0))
  96:../../lib/lpc11cx4-library/lpc_chip_11cxx_lib/inc/ssp_11xx.h **** /** SSP control 1 enable bit */
  97:../../lib/lpc11cx4-library/lpc_chip_11cxx_lib/inc/ssp_11xx.h **** #define SSP_CR1_SSP_EN      ((uint32_t) (1 << 1))
  98:../../lib/lpc11cx4-library/lpc_chip_11cxx_lib/inc/ssp_11xx.h **** /** SSP control 1 slave enable */
  99:../../lib/lpc11cx4-library/lpc_chip_11cxx_lib/inc/ssp_11xx.h **** #define SSP_CR1_SLAVE_EN    ((uint32_t) (1 << 2))
 100:../../lib/lpc11cx4-library/lpc_chip_11cxx_lib/inc/ssp_11xx.h **** #define SSP_CR1_MASTER_EN   ((uint32_t) (0))
 101:../../lib/lpc11cx4-library/lpc_chip_11cxx_lib/inc/ssp_11xx.h **** /** SSP control 1 slave out disable bit, disables transmit line in slave
 102:../../lib/lpc11cx4-library/lpc_chip_11cxx_lib/inc/ssp_11xx.h ****    mode */
 103:../../lib/lpc11cx4-library/lpc_chip_11cxx_lib/inc/ssp_11xx.h **** #define SSP_CR1_SO_DISABLE  ((uint32_t) (1 << 3))
 104:../../lib/lpc11cx4-library/lpc_chip_11cxx_lib/inc/ssp_11xx.h **** /** SSP CR1 bit mask */
 105:../../lib/lpc11cx4-library/lpc_chip_11cxx_lib/inc/ssp_11xx.h **** #define SSP_CR1_BITMASK     ((uint32_t) (0x0F))
 106:../../lib/lpc11cx4-library/lpc_chip_11cxx_lib/inc/ssp_11xx.h **** 
 107:../../lib/lpc11cx4-library/lpc_chip_11cxx_lib/inc/ssp_11xx.h **** /** SSP CPSR bit mask */
 108:../../lib/lpc11cx4-library/lpc_chip_11cxx_lib/inc/ssp_11xx.h **** #define SSP_CPSR_BITMASK    ((uint32_t) (0xFF))
 109:../../lib/lpc11cx4-library/lpc_chip_11cxx_lib/inc/ssp_11xx.h **** /**
 110:../../lib/lpc11cx4-library/lpc_chip_11cxx_lib/inc/ssp_11xx.h ****  * Macro defines for DR register
 111:../../lib/lpc11cx4-library/lpc_chip_11cxx_lib/inc/ssp_11xx.h ****  */
 112:../../lib/lpc11cx4-library/lpc_chip_11cxx_lib/inc/ssp_11xx.h **** 
 113:../../lib/lpc11cx4-library/lpc_chip_11cxx_lib/inc/ssp_11xx.h **** /** SSP data bit mask */
 114:../../lib/lpc11cx4-library/lpc_chip_11cxx_lib/inc/ssp_11xx.h **** #define SSP_DR_BITMASK(n)   ((n) & 0xFFFF)
 115:../../lib/lpc11cx4-library/lpc_chip_11cxx_lib/inc/ssp_11xx.h **** 
 116:../../lib/lpc11cx4-library/lpc_chip_11cxx_lib/inc/ssp_11xx.h **** /**
 117:../../lib/lpc11cx4-library/lpc_chip_11cxx_lib/inc/ssp_11xx.h ****  * Macro defines for SR register
 118:../../lib/lpc11cx4-library/lpc_chip_11cxx_lib/inc/ssp_11xx.h ****  */
 119:../../lib/lpc11cx4-library/lpc_chip_11cxx_lib/inc/ssp_11xx.h **** 
 120:../../lib/lpc11cx4-library/lpc_chip_11cxx_lib/inc/ssp_11xx.h **** /** SSP SR bit mask */
 121:../../lib/lpc11cx4-library/lpc_chip_11cxx_lib/inc/ssp_11xx.h **** #define SSP_SR_BITMASK  ((uint32_t) (0x1F))
 122:../../lib/lpc11cx4-library/lpc_chip_11cxx_lib/inc/ssp_11xx.h **** 
 123:../../lib/lpc11cx4-library/lpc_chip_11cxx_lib/inc/ssp_11xx.h **** /** ICR bit mask */
 124:../../lib/lpc11cx4-library/lpc_chip_11cxx_lib/inc/ssp_11xx.h **** #define SSP_ICR_BITMASK ((uint32_t) (0x03))
 125:../../lib/lpc11cx4-library/lpc_chip_11cxx_lib/inc/ssp_11xx.h **** 
 126:../../lib/lpc11cx4-library/lpc_chip_11cxx_lib/inc/ssp_11xx.h **** /**
 127:../../lib/lpc11cx4-library/lpc_chip_11cxx_lib/inc/ssp_11xx.h ****  * @brief SSP Type of Status
 128:../../lib/lpc11cx4-library/lpc_chip_11cxx_lib/inc/ssp_11xx.h ****  */
 129:../../lib/lpc11cx4-library/lpc_chip_11cxx_lib/inc/ssp_11xx.h **** typedef enum _SSP_STATUS {
 130:../../lib/lpc11cx4-library/lpc_chip_11cxx_lib/inc/ssp_11xx.h **** 	SSP_STAT_TFE = ((uint32_t)(1 << 0)),/**< TX FIFO Empty */
 131:../../lib/lpc11cx4-library/lpc_chip_11cxx_lib/inc/ssp_11xx.h **** 	SSP_STAT_TNF = ((uint32_t)(1 << 1)),/**< TX FIFO not full */
 132:../../lib/lpc11cx4-library/lpc_chip_11cxx_lib/inc/ssp_11xx.h **** 	SSP_STAT_RNE = ((uint32_t)(1 << 2)),/**< RX FIFO not empty */
 133:../../lib/lpc11cx4-library/lpc_chip_11cxx_lib/inc/ssp_11xx.h **** 	SSP_STAT_RFF = ((uint32_t)(1 << 3)),/**< RX FIFO full */
 134:../../lib/lpc11cx4-library/lpc_chip_11cxx_lib/inc/ssp_11xx.h **** 	SSP_STAT_BSY = ((uint32_t)(1 << 4)),/**< SSP Busy */
 135:../../lib/lpc11cx4-library/lpc_chip_11cxx_lib/inc/ssp_11xx.h **** } SSP_STATUS_T;
 136:../../lib/lpc11cx4-library/lpc_chip_11cxx_lib/inc/ssp_11xx.h **** 
 137:../../lib/lpc11cx4-library/lpc_chip_11cxx_lib/inc/ssp_11xx.h **** /**
 138:../../lib/lpc11cx4-library/lpc_chip_11cxx_lib/inc/ssp_11xx.h ****  * @brief SSP Type of Interrupt Mask
 139:../../lib/lpc11cx4-library/lpc_chip_11cxx_lib/inc/ssp_11xx.h ****  */
ARM GAS  /var/folders/z0/6xlwn_996xz3mwq1cgzkbq4r0000gp/T//ccvmbCXw.s 			page 42


 140:../../lib/lpc11cx4-library/lpc_chip_11cxx_lib/inc/ssp_11xx.h **** typedef enum _SSP_INTMASK {
 141:../../lib/lpc11cx4-library/lpc_chip_11cxx_lib/inc/ssp_11xx.h **** 	SSP_RORIM = ((uint32_t)(1 << 0)),	/**< Overun */
 142:../../lib/lpc11cx4-library/lpc_chip_11cxx_lib/inc/ssp_11xx.h **** 	SSP_RTIM = ((uint32_t)(1 << 1)),/**< TimeOut */
 143:../../lib/lpc11cx4-library/lpc_chip_11cxx_lib/inc/ssp_11xx.h **** 	SSP_RXIM = ((uint32_t)(1 << 2)),/**< Rx FIFO is at least half full */
 144:../../lib/lpc11cx4-library/lpc_chip_11cxx_lib/inc/ssp_11xx.h **** 	SSP_TXIM = ((uint32_t)(1 << 3)),/**< Tx FIFO is at least half empty */
 145:../../lib/lpc11cx4-library/lpc_chip_11cxx_lib/inc/ssp_11xx.h **** 	SSP_INT_MASK_BITMASK = ((uint32_t)(0xF)),
 146:../../lib/lpc11cx4-library/lpc_chip_11cxx_lib/inc/ssp_11xx.h **** } SSP_INTMASK_T;
 147:../../lib/lpc11cx4-library/lpc_chip_11cxx_lib/inc/ssp_11xx.h **** 
 148:../../lib/lpc11cx4-library/lpc_chip_11cxx_lib/inc/ssp_11xx.h **** /**
 149:../../lib/lpc11cx4-library/lpc_chip_11cxx_lib/inc/ssp_11xx.h ****  * @brief SSP Type of Mask Interrupt Status
 150:../../lib/lpc11cx4-library/lpc_chip_11cxx_lib/inc/ssp_11xx.h ****  */
 151:../../lib/lpc11cx4-library/lpc_chip_11cxx_lib/inc/ssp_11xx.h **** typedef enum _SSP_MASKINTSTATUS {
 152:../../lib/lpc11cx4-library/lpc_chip_11cxx_lib/inc/ssp_11xx.h **** 	SSP_RORMIS = ((uint32_t)(1 << 0)),	/**< Overun */
 153:../../lib/lpc11cx4-library/lpc_chip_11cxx_lib/inc/ssp_11xx.h **** 	SSP_RTMIS = ((uint32_t)(1 << 1)),	/**< TimeOut */
 154:../../lib/lpc11cx4-library/lpc_chip_11cxx_lib/inc/ssp_11xx.h **** 	SSP_RXMIS = ((uint32_t)(1 << 2)),	/**< Rx FIFO is at least half full */
 155:../../lib/lpc11cx4-library/lpc_chip_11cxx_lib/inc/ssp_11xx.h **** 	SSP_TXMIS = ((uint32_t)(1 << 3)),	/**< Tx FIFO is at least half empty */
 156:../../lib/lpc11cx4-library/lpc_chip_11cxx_lib/inc/ssp_11xx.h **** 	SSP_MASK_INT_STAT_BITMASK = ((uint32_t)(0xF)),
 157:../../lib/lpc11cx4-library/lpc_chip_11cxx_lib/inc/ssp_11xx.h **** } SSP_MASKINTSTATUS_T;
 158:../../lib/lpc11cx4-library/lpc_chip_11cxx_lib/inc/ssp_11xx.h **** 
 159:../../lib/lpc11cx4-library/lpc_chip_11cxx_lib/inc/ssp_11xx.h **** /**
 160:../../lib/lpc11cx4-library/lpc_chip_11cxx_lib/inc/ssp_11xx.h ****  * @brief SSP Type of Raw Interrupt Status
 161:../../lib/lpc11cx4-library/lpc_chip_11cxx_lib/inc/ssp_11xx.h ****  */
 162:../../lib/lpc11cx4-library/lpc_chip_11cxx_lib/inc/ssp_11xx.h **** typedef enum _SSP_RAWINTSTATUS {
 163:../../lib/lpc11cx4-library/lpc_chip_11cxx_lib/inc/ssp_11xx.h **** 	SSP_RORRIS = ((uint32_t)(1 << 0)),	/**< Overun */
 164:../../lib/lpc11cx4-library/lpc_chip_11cxx_lib/inc/ssp_11xx.h **** 	SSP_RTRIS = ((uint32_t)(1 << 1)),	/**< TimeOut */
 165:../../lib/lpc11cx4-library/lpc_chip_11cxx_lib/inc/ssp_11xx.h **** 	SSP_RXRIS = ((uint32_t)(1 << 2)),	/**< Rx FIFO is at least half full */
 166:../../lib/lpc11cx4-library/lpc_chip_11cxx_lib/inc/ssp_11xx.h **** 	SSP_TXRIS = ((uint32_t)(1 << 3)),	/**< Tx FIFO is at least half empty */
 167:../../lib/lpc11cx4-library/lpc_chip_11cxx_lib/inc/ssp_11xx.h **** 	SSP_RAW_INT_STAT_BITMASK = ((uint32_t)(0xF)),
 168:../../lib/lpc11cx4-library/lpc_chip_11cxx_lib/inc/ssp_11xx.h **** } SSP_RAWINTSTATUS_T;
 169:../../lib/lpc11cx4-library/lpc_chip_11cxx_lib/inc/ssp_11xx.h **** 
 170:../../lib/lpc11cx4-library/lpc_chip_11cxx_lib/inc/ssp_11xx.h **** typedef enum _SSP_INTCLEAR {
 171:../../lib/lpc11cx4-library/lpc_chip_11cxx_lib/inc/ssp_11xx.h **** 	SSP_RORIC = 0x0,
 172:../../lib/lpc11cx4-library/lpc_chip_11cxx_lib/inc/ssp_11xx.h **** 	SSP_RTIC = 0x1,
 173:../../lib/lpc11cx4-library/lpc_chip_11cxx_lib/inc/ssp_11xx.h **** 	SSP_INT_CLEAR_BITMASK = 0x3,
 174:../../lib/lpc11cx4-library/lpc_chip_11cxx_lib/inc/ssp_11xx.h **** } SSP_INTCLEAR_T;
 175:../../lib/lpc11cx4-library/lpc_chip_11cxx_lib/inc/ssp_11xx.h **** 
 176:../../lib/lpc11cx4-library/lpc_chip_11cxx_lib/inc/ssp_11xx.h **** /*
 177:../../lib/lpc11cx4-library/lpc_chip_11cxx_lib/inc/ssp_11xx.h ****  * @brief SSP clock format
 178:../../lib/lpc11cx4-library/lpc_chip_11cxx_lib/inc/ssp_11xx.h ****  */
 179:../../lib/lpc11cx4-library/lpc_chip_11cxx_lib/inc/ssp_11xx.h **** typedef enum CHIP_SSP_CLOCK_FORMAT {
 180:../../lib/lpc11cx4-library/lpc_chip_11cxx_lib/inc/ssp_11xx.h **** 	SSP_CLOCK_CPHA0_CPOL0 = (0 << 6),		/**< CPHA = 0, CPOL = 0 */
 181:../../lib/lpc11cx4-library/lpc_chip_11cxx_lib/inc/ssp_11xx.h **** 	SSP_CLOCK_CPHA0_CPOL1 = (1u << 6),		/**< CPHA = 0, CPOL = 1 */
 182:../../lib/lpc11cx4-library/lpc_chip_11cxx_lib/inc/ssp_11xx.h **** 	SSP_CLOCK_CPHA1_CPOL0 = (2u << 6),		/**< CPHA = 1, CPOL = 0 */
 183:../../lib/lpc11cx4-library/lpc_chip_11cxx_lib/inc/ssp_11xx.h **** 	SSP_CLOCK_CPHA1_CPOL1 = (3u << 6),		/**< CPHA = 1, CPOL = 1 */
 184:../../lib/lpc11cx4-library/lpc_chip_11cxx_lib/inc/ssp_11xx.h **** 	SSP_CLOCK_MODE0 = SSP_CLOCK_CPHA0_CPOL0,/**< alias */
 185:../../lib/lpc11cx4-library/lpc_chip_11cxx_lib/inc/ssp_11xx.h **** 	SSP_CLOCK_MODE1 = SSP_CLOCK_CPHA1_CPOL0,/**< alias */
 186:../../lib/lpc11cx4-library/lpc_chip_11cxx_lib/inc/ssp_11xx.h **** 	SSP_CLOCK_MODE2 = SSP_CLOCK_CPHA0_CPOL1,/**< alias */
 187:../../lib/lpc11cx4-library/lpc_chip_11cxx_lib/inc/ssp_11xx.h **** 	SSP_CLOCK_MODE3 = SSP_CLOCK_CPHA1_CPOL1,/**< alias */
 188:../../lib/lpc11cx4-library/lpc_chip_11cxx_lib/inc/ssp_11xx.h **** } CHIP_SSP_CLOCK_MODE_T;
 189:../../lib/lpc11cx4-library/lpc_chip_11cxx_lib/inc/ssp_11xx.h **** 
 190:../../lib/lpc11cx4-library/lpc_chip_11cxx_lib/inc/ssp_11xx.h **** /*
 191:../../lib/lpc11cx4-library/lpc_chip_11cxx_lib/inc/ssp_11xx.h ****  * @brief SSP frame format
 192:../../lib/lpc11cx4-library/lpc_chip_11cxx_lib/inc/ssp_11xx.h ****  */
 193:../../lib/lpc11cx4-library/lpc_chip_11cxx_lib/inc/ssp_11xx.h **** typedef enum CHIP_SSP_FRAME_FORMAT {
 194:../../lib/lpc11cx4-library/lpc_chip_11cxx_lib/inc/ssp_11xx.h **** 	SSP_FRAMEFORMAT_SPI = (0 << 4),			/**< Frame format: SPI */
 195:../../lib/lpc11cx4-library/lpc_chip_11cxx_lib/inc/ssp_11xx.h **** 	CHIP_SSP_FRAME_FORMAT_TI = (1u << 4),			/**< Frame format: TI SSI */
 196:../../lib/lpc11cx4-library/lpc_chip_11cxx_lib/inc/ssp_11xx.h **** 	SSP_FRAMEFORMAT_MICROWIRE = (2u << 4),	/**< Frame format: Microwire */
ARM GAS  /var/folders/z0/6xlwn_996xz3mwq1cgzkbq4r0000gp/T//ccvmbCXw.s 			page 43


 197:../../lib/lpc11cx4-library/lpc_chip_11cxx_lib/inc/ssp_11xx.h **** } CHIP_SSP_FRAME_FORMAT_T;
 198:../../lib/lpc11cx4-library/lpc_chip_11cxx_lib/inc/ssp_11xx.h **** 
 199:../../lib/lpc11cx4-library/lpc_chip_11cxx_lib/inc/ssp_11xx.h **** /*
 200:../../lib/lpc11cx4-library/lpc_chip_11cxx_lib/inc/ssp_11xx.h ****  * @brief Number of bits per frame
 201:../../lib/lpc11cx4-library/lpc_chip_11cxx_lib/inc/ssp_11xx.h ****  */
 202:../../lib/lpc11cx4-library/lpc_chip_11cxx_lib/inc/ssp_11xx.h **** typedef enum CHIP_SSP_BITS {
 203:../../lib/lpc11cx4-library/lpc_chip_11cxx_lib/inc/ssp_11xx.h **** 	SSP_BITS_4 = (3u << 0),		/*!< 4 bits/frame */
 204:../../lib/lpc11cx4-library/lpc_chip_11cxx_lib/inc/ssp_11xx.h **** 	SSP_BITS_5 = (4u << 0),		/*!< 5 bits/frame */
 205:../../lib/lpc11cx4-library/lpc_chip_11cxx_lib/inc/ssp_11xx.h **** 	SSP_BITS_6 = (5u << 0),		/*!< 6 bits/frame */
 206:../../lib/lpc11cx4-library/lpc_chip_11cxx_lib/inc/ssp_11xx.h **** 	SSP_BITS_7 = (6u << 0),		/*!< 7 bits/frame */
 207:../../lib/lpc11cx4-library/lpc_chip_11cxx_lib/inc/ssp_11xx.h **** 	SSP_BITS_8 = (7u << 0),		/*!< 8 bits/frame */
 208:../../lib/lpc11cx4-library/lpc_chip_11cxx_lib/inc/ssp_11xx.h **** 	SSP_BITS_9 = (8u << 0),		/*!< 9 bits/frame */
 209:../../lib/lpc11cx4-library/lpc_chip_11cxx_lib/inc/ssp_11xx.h **** 	SSP_BITS_10 = (9u << 0),	/*!< 10 bits/frame */
 210:../../lib/lpc11cx4-library/lpc_chip_11cxx_lib/inc/ssp_11xx.h **** 	SSP_BITS_11 = (10u << 0),	/*!< 11 bits/frame */
 211:../../lib/lpc11cx4-library/lpc_chip_11cxx_lib/inc/ssp_11xx.h **** 	SSP_BITS_12 = (11u << 0),	/*!< 12 bits/frame */
 212:../../lib/lpc11cx4-library/lpc_chip_11cxx_lib/inc/ssp_11xx.h **** 	SSP_BITS_13 = (12u << 0),	/*!< 13 bits/frame */
 213:../../lib/lpc11cx4-library/lpc_chip_11cxx_lib/inc/ssp_11xx.h **** 	SSP_BITS_14 = (13u << 0),	/*!< 14 bits/frame */
 214:../../lib/lpc11cx4-library/lpc_chip_11cxx_lib/inc/ssp_11xx.h **** 	SSP_BITS_15 = (14u << 0),	/*!< 15 bits/frame */
 215:../../lib/lpc11cx4-library/lpc_chip_11cxx_lib/inc/ssp_11xx.h **** 	SSP_BITS_16 = (15u << 0),	/*!< 16 bits/frame */
 216:../../lib/lpc11cx4-library/lpc_chip_11cxx_lib/inc/ssp_11xx.h **** } CHIP_SSP_BITS_T;
 217:../../lib/lpc11cx4-library/lpc_chip_11cxx_lib/inc/ssp_11xx.h **** 
 218:../../lib/lpc11cx4-library/lpc_chip_11cxx_lib/inc/ssp_11xx.h **** /*
 219:../../lib/lpc11cx4-library/lpc_chip_11cxx_lib/inc/ssp_11xx.h ****  * @brief SSP config format
 220:../../lib/lpc11cx4-library/lpc_chip_11cxx_lib/inc/ssp_11xx.h ****  */
 221:../../lib/lpc11cx4-library/lpc_chip_11cxx_lib/inc/ssp_11xx.h **** typedef struct SSP_ConfigFormat {
 222:../../lib/lpc11cx4-library/lpc_chip_11cxx_lib/inc/ssp_11xx.h **** 	CHIP_SSP_BITS_T bits;					/*!< Format config: bits/frame */
 223:../../lib/lpc11cx4-library/lpc_chip_11cxx_lib/inc/ssp_11xx.h **** 	CHIP_SSP_CLOCK_MODE_T clockMode;	/*!< Format config: clock phase/polarity */
 224:../../lib/lpc11cx4-library/lpc_chip_11cxx_lib/inc/ssp_11xx.h **** 	CHIP_SSP_FRAME_FORMAT_T frameFormat;	/*!< Format config: SPI/TI/Microwire */
 225:../../lib/lpc11cx4-library/lpc_chip_11cxx_lib/inc/ssp_11xx.h **** } SSP_ConfigFormat;
 226:../../lib/lpc11cx4-library/lpc_chip_11cxx_lib/inc/ssp_11xx.h **** 
 227:../../lib/lpc11cx4-library/lpc_chip_11cxx_lib/inc/ssp_11xx.h **** /**
 228:../../lib/lpc11cx4-library/lpc_chip_11cxx_lib/inc/ssp_11xx.h ****  * @brief	Enable SSP operation
 229:../../lib/lpc11cx4-library/lpc_chip_11cxx_lib/inc/ssp_11xx.h ****  * @param	pSSP		: The base of SSP peripheral on the chip
 230:../../lib/lpc11cx4-library/lpc_chip_11cxx_lib/inc/ssp_11xx.h ****  * @return	 Nothing
 231:../../lib/lpc11cx4-library/lpc_chip_11cxx_lib/inc/ssp_11xx.h ****  */
 232:../../lib/lpc11cx4-library/lpc_chip_11cxx_lib/inc/ssp_11xx.h **** STATIC INLINE void Chip_SSP_Enable(LPC_SSP_T *pSSP)
 233:../../lib/lpc11cx4-library/lpc_chip_11cxx_lib/inc/ssp_11xx.h **** {
 234:../../lib/lpc11cx4-library/lpc_chip_11cxx_lib/inc/ssp_11xx.h **** 	pSSP->CR1 |= SSP_CR1_SSP_EN;
 235:../../lib/lpc11cx4-library/lpc_chip_11cxx_lib/inc/ssp_11xx.h **** }
 236:../../lib/lpc11cx4-library/lpc_chip_11cxx_lib/inc/ssp_11xx.h **** 
 237:../../lib/lpc11cx4-library/lpc_chip_11cxx_lib/inc/ssp_11xx.h **** /**
 238:../../lib/lpc11cx4-library/lpc_chip_11cxx_lib/inc/ssp_11xx.h ****  * @brief	Disable SSP operation
 239:../../lib/lpc11cx4-library/lpc_chip_11cxx_lib/inc/ssp_11xx.h ****  * @param	pSSP		: The base of SSP peripheral on the chip
 240:../../lib/lpc11cx4-library/lpc_chip_11cxx_lib/inc/ssp_11xx.h ****  * @return	 Nothing
 241:../../lib/lpc11cx4-library/lpc_chip_11cxx_lib/inc/ssp_11xx.h ****  */
 242:../../lib/lpc11cx4-library/lpc_chip_11cxx_lib/inc/ssp_11xx.h **** STATIC INLINE void Chip_SSP_Disable(LPC_SSP_T *pSSP)
 243:../../lib/lpc11cx4-library/lpc_chip_11cxx_lib/inc/ssp_11xx.h **** {
 244:../../lib/lpc11cx4-library/lpc_chip_11cxx_lib/inc/ssp_11xx.h **** 	pSSP->CR1 &= (~SSP_CR1_SSP_EN) & SSP_CR1_BITMASK;
 245:../../lib/lpc11cx4-library/lpc_chip_11cxx_lib/inc/ssp_11xx.h **** }
 246:../../lib/lpc11cx4-library/lpc_chip_11cxx_lib/inc/ssp_11xx.h **** 
 247:../../lib/lpc11cx4-library/lpc_chip_11cxx_lib/inc/ssp_11xx.h **** /**
 248:../../lib/lpc11cx4-library/lpc_chip_11cxx_lib/inc/ssp_11xx.h ****  * @brief	Enable loopback mode
 249:../../lib/lpc11cx4-library/lpc_chip_11cxx_lib/inc/ssp_11xx.h ****  * @param	pSSP		: The base of SSP peripheral on the chip
 250:../../lib/lpc11cx4-library/lpc_chip_11cxx_lib/inc/ssp_11xx.h ****  * @return	 Nothing
 251:../../lib/lpc11cx4-library/lpc_chip_11cxx_lib/inc/ssp_11xx.h ****  * @note	Serial input is taken from the serial output (MOSI or MISO) rather
 252:../../lib/lpc11cx4-library/lpc_chip_11cxx_lib/inc/ssp_11xx.h ****  * than the serial input pin
 253:../../lib/lpc11cx4-library/lpc_chip_11cxx_lib/inc/ssp_11xx.h ****  */
ARM GAS  /var/folders/z0/6xlwn_996xz3mwq1cgzkbq4r0000gp/T//ccvmbCXw.s 			page 44


 254:../../lib/lpc11cx4-library/lpc_chip_11cxx_lib/inc/ssp_11xx.h **** STATIC INLINE void Chip_SSP_EnableLoopBack(LPC_SSP_T *pSSP)
 255:../../lib/lpc11cx4-library/lpc_chip_11cxx_lib/inc/ssp_11xx.h **** {
 256:../../lib/lpc11cx4-library/lpc_chip_11cxx_lib/inc/ssp_11xx.h **** 	pSSP->CR1 |= SSP_CR1_LBM_EN;
 257:../../lib/lpc11cx4-library/lpc_chip_11cxx_lib/inc/ssp_11xx.h **** }
 258:../../lib/lpc11cx4-library/lpc_chip_11cxx_lib/inc/ssp_11xx.h **** 
 259:../../lib/lpc11cx4-library/lpc_chip_11cxx_lib/inc/ssp_11xx.h **** /**
 260:../../lib/lpc11cx4-library/lpc_chip_11cxx_lib/inc/ssp_11xx.h ****  * @brief	Disable loopback mode
 261:../../lib/lpc11cx4-library/lpc_chip_11cxx_lib/inc/ssp_11xx.h ****  * @param	pSSP		: The base of SSP peripheral on the chip
 262:../../lib/lpc11cx4-library/lpc_chip_11cxx_lib/inc/ssp_11xx.h ****  * @return	 Nothing
 263:../../lib/lpc11cx4-library/lpc_chip_11cxx_lib/inc/ssp_11xx.h ****  * @note	Serial input is taken from the serial output (MOSI or MISO) rather
 264:../../lib/lpc11cx4-library/lpc_chip_11cxx_lib/inc/ssp_11xx.h ****  * than the serial input pin
 265:../../lib/lpc11cx4-library/lpc_chip_11cxx_lib/inc/ssp_11xx.h ****  */
 266:../../lib/lpc11cx4-library/lpc_chip_11cxx_lib/inc/ssp_11xx.h **** STATIC INLINE void Chip_SSP_DisableLoopBack(LPC_SSP_T *pSSP)
 267:../../lib/lpc11cx4-library/lpc_chip_11cxx_lib/inc/ssp_11xx.h **** {
 268:../../lib/lpc11cx4-library/lpc_chip_11cxx_lib/inc/ssp_11xx.h **** 	pSSP->CR1 &= (~SSP_CR1_LBM_EN) & SSP_CR1_BITMASK;
 269:../../lib/lpc11cx4-library/lpc_chip_11cxx_lib/inc/ssp_11xx.h **** }
 270:../../lib/lpc11cx4-library/lpc_chip_11cxx_lib/inc/ssp_11xx.h **** 
 271:../../lib/lpc11cx4-library/lpc_chip_11cxx_lib/inc/ssp_11xx.h **** /**
 272:../../lib/lpc11cx4-library/lpc_chip_11cxx_lib/inc/ssp_11xx.h ****  * @brief	Get the current status of SSP controller
 273:../../lib/lpc11cx4-library/lpc_chip_11cxx_lib/inc/ssp_11xx.h ****  * @param	pSSP	: The base of SSP peripheral on the chip
 274:../../lib/lpc11cx4-library/lpc_chip_11cxx_lib/inc/ssp_11xx.h ****  * @param	Stat	: Type of status, should be :
 275:../../lib/lpc11cx4-library/lpc_chip_11cxx_lib/inc/ssp_11xx.h ****  *						- SSP_STAT_TFE
 276:../../lib/lpc11cx4-library/lpc_chip_11cxx_lib/inc/ssp_11xx.h ****  *						- SSP_STAT_TNF
 277:../../lib/lpc11cx4-library/lpc_chip_11cxx_lib/inc/ssp_11xx.h ****  *						- SSP_STAT_RNE
 278:../../lib/lpc11cx4-library/lpc_chip_11cxx_lib/inc/ssp_11xx.h ****  *						- SSP_STAT_RFF
 279:../../lib/lpc11cx4-library/lpc_chip_11cxx_lib/inc/ssp_11xx.h ****  *						- SSP_STAT_BSY
 280:../../lib/lpc11cx4-library/lpc_chip_11cxx_lib/inc/ssp_11xx.h ****  * @return	 SSP controller status, SET or RESET
 281:../../lib/lpc11cx4-library/lpc_chip_11cxx_lib/inc/ssp_11xx.h ****  */
 282:../../lib/lpc11cx4-library/lpc_chip_11cxx_lib/inc/ssp_11xx.h **** STATIC INLINE FlagStatus Chip_SSP_GetStatus(LPC_SSP_T *pSSP, SSP_STATUS_T Stat)
 283:../../lib/lpc11cx4-library/lpc_chip_11cxx_lib/inc/ssp_11xx.h **** {
 284:../../lib/lpc11cx4-library/lpc_chip_11cxx_lib/inc/ssp_11xx.h **** 	return (pSSP->SR & Stat) ? SET : RESET;
 285:../../lib/lpc11cx4-library/lpc_chip_11cxx_lib/inc/ssp_11xx.h **** }
 286:../../lib/lpc11cx4-library/lpc_chip_11cxx_lib/inc/ssp_11xx.h **** 
 287:../../lib/lpc11cx4-library/lpc_chip_11cxx_lib/inc/ssp_11xx.h **** /**
 288:../../lib/lpc11cx4-library/lpc_chip_11cxx_lib/inc/ssp_11xx.h ****  * @brief	Get the masked interrupt status
 289:../../lib/lpc11cx4-library/lpc_chip_11cxx_lib/inc/ssp_11xx.h ****  * @param	pSSP	: The base of SSP peripheral on the chip
 290:../../lib/lpc11cx4-library/lpc_chip_11cxx_lib/inc/ssp_11xx.h ****  * @return	 SSP Masked Interrupt Status Register value
 291:../../lib/lpc11cx4-library/lpc_chip_11cxx_lib/inc/ssp_11xx.h ****  * @note	The return value contains a 1 for each interrupt condition that is asserted and enabled (m
 292:../../lib/lpc11cx4-library/lpc_chip_11cxx_lib/inc/ssp_11xx.h ****  */
 293:../../lib/lpc11cx4-library/lpc_chip_11cxx_lib/inc/ssp_11xx.h **** STATIC INLINE uint32_t Chip_SSP_GetIntStatus(LPC_SSP_T *pSSP)
 294:../../lib/lpc11cx4-library/lpc_chip_11cxx_lib/inc/ssp_11xx.h **** {
 295:../../lib/lpc11cx4-library/lpc_chip_11cxx_lib/inc/ssp_11xx.h **** 	return pSSP->MIS;
 296:../../lib/lpc11cx4-library/lpc_chip_11cxx_lib/inc/ssp_11xx.h **** }
 297:../../lib/lpc11cx4-library/lpc_chip_11cxx_lib/inc/ssp_11xx.h **** 
 298:../../lib/lpc11cx4-library/lpc_chip_11cxx_lib/inc/ssp_11xx.h **** /**
 299:../../lib/lpc11cx4-library/lpc_chip_11cxx_lib/inc/ssp_11xx.h ****  * @brief	Get the raw interrupt status
 300:../../lib/lpc11cx4-library/lpc_chip_11cxx_lib/inc/ssp_11xx.h ****  * @param	pSSP	: The base of SSP peripheral on the chip
 301:../../lib/lpc11cx4-library/lpc_chip_11cxx_lib/inc/ssp_11xx.h ****  * @param	RawInt	: Interrupt condition to be get status, shoud be :
 302:../../lib/lpc11cx4-library/lpc_chip_11cxx_lib/inc/ssp_11xx.h ****  *						- SSP_RORRIS
 303:../../lib/lpc11cx4-library/lpc_chip_11cxx_lib/inc/ssp_11xx.h ****  *						- SSP_RTRIS
 304:../../lib/lpc11cx4-library/lpc_chip_11cxx_lib/inc/ssp_11xx.h ****  *						- SSP_RXRIS
 305:../../lib/lpc11cx4-library/lpc_chip_11cxx_lib/inc/ssp_11xx.h ****  *						- SSP_TXRIS
 306:../../lib/lpc11cx4-library/lpc_chip_11cxx_lib/inc/ssp_11xx.h ****  * @return	 Raw interrupt status corresponding to interrupt condition , SET or RESET
 307:../../lib/lpc11cx4-library/lpc_chip_11cxx_lib/inc/ssp_11xx.h ****  * @note	Get the status of each interrupt condition ,regardless of whether or not the interrupt is 
 308:../../lib/lpc11cx4-library/lpc_chip_11cxx_lib/inc/ssp_11xx.h ****  */
 309:../../lib/lpc11cx4-library/lpc_chip_11cxx_lib/inc/ssp_11xx.h **** STATIC INLINE IntStatus Chip_SSP_GetRawIntStatus(LPC_SSP_T *pSSP, SSP_RAWINTSTATUS_T RawInt)
 310:../../lib/lpc11cx4-library/lpc_chip_11cxx_lib/inc/ssp_11xx.h **** {
ARM GAS  /var/folders/z0/6xlwn_996xz3mwq1cgzkbq4r0000gp/T//ccvmbCXw.s 			page 45


 311:../../lib/lpc11cx4-library/lpc_chip_11cxx_lib/inc/ssp_11xx.h **** 	return (pSSP->RIS & RawInt) ? SET : RESET;
 312:../../lib/lpc11cx4-library/lpc_chip_11cxx_lib/inc/ssp_11xx.h **** }
 313:../../lib/lpc11cx4-library/lpc_chip_11cxx_lib/inc/ssp_11xx.h **** 
 314:../../lib/lpc11cx4-library/lpc_chip_11cxx_lib/inc/ssp_11xx.h **** /**
 315:../../lib/lpc11cx4-library/lpc_chip_11cxx_lib/inc/ssp_11xx.h ****  * @brief	Get the number of bits transferred in each frame
 316:../../lib/lpc11cx4-library/lpc_chip_11cxx_lib/inc/ssp_11xx.h ****  * @param	pSSP	: The base of SSP peripheral on the chip
 317:../../lib/lpc11cx4-library/lpc_chip_11cxx_lib/inc/ssp_11xx.h ****  * @return	 the number of bits transferred in each frame minus one
 318:../../lib/lpc11cx4-library/lpc_chip_11cxx_lib/inc/ssp_11xx.h ****  * @note	The return value is 0x03 -> 0xF corresponding to 4bit -> 16bit transfer
 319:../../lib/lpc11cx4-library/lpc_chip_11cxx_lib/inc/ssp_11xx.h ****  */
 320:../../lib/lpc11cx4-library/lpc_chip_11cxx_lib/inc/ssp_11xx.h **** STATIC INLINE uint8_t Chip_SSP_GetDataSize(LPC_SSP_T *pSSP)
 321:../../lib/lpc11cx4-library/lpc_chip_11cxx_lib/inc/ssp_11xx.h **** {
 322:../../lib/lpc11cx4-library/lpc_chip_11cxx_lib/inc/ssp_11xx.h **** 	return SSP_CR0_DSS(pSSP->CR0);
 323:../../lib/lpc11cx4-library/lpc_chip_11cxx_lib/inc/ssp_11xx.h **** }
 324:../../lib/lpc11cx4-library/lpc_chip_11cxx_lib/inc/ssp_11xx.h **** 
 325:../../lib/lpc11cx4-library/lpc_chip_11cxx_lib/inc/ssp_11xx.h **** /**
 326:../../lib/lpc11cx4-library/lpc_chip_11cxx_lib/inc/ssp_11xx.h ****  * @brief	Clear the corresponding interrupt condition(s) in the SSP controller
 327:../../lib/lpc11cx4-library/lpc_chip_11cxx_lib/inc/ssp_11xx.h ****  * @param	pSSP	: The base of SSP peripheral on the chip
 328:../../lib/lpc11cx4-library/lpc_chip_11cxx_lib/inc/ssp_11xx.h ****  * @param	IntClear: Type of cleared interrupt, should be :
 329:../../lib/lpc11cx4-library/lpc_chip_11cxx_lib/inc/ssp_11xx.h ****  *						- SSP_RORIC
 330:../../lib/lpc11cx4-library/lpc_chip_11cxx_lib/inc/ssp_11xx.h ****  *						- SSP_RTIC
 331:../../lib/lpc11cx4-library/lpc_chip_11cxx_lib/inc/ssp_11xx.h ****  * @return	 Nothing
 332:../../lib/lpc11cx4-library/lpc_chip_11cxx_lib/inc/ssp_11xx.h ****  * @note	Software can clear one or more interrupt condition(s) in the SSP controller
 333:../../lib/lpc11cx4-library/lpc_chip_11cxx_lib/inc/ssp_11xx.h ****  */
 334:../../lib/lpc11cx4-library/lpc_chip_11cxx_lib/inc/ssp_11xx.h **** STATIC INLINE void Chip_SSP_ClearIntPending(LPC_SSP_T *pSSP, SSP_INTCLEAR_T IntClear)
 335:../../lib/lpc11cx4-library/lpc_chip_11cxx_lib/inc/ssp_11xx.h **** {
 336:../../lib/lpc11cx4-library/lpc_chip_11cxx_lib/inc/ssp_11xx.h **** 	pSSP->ICR = IntClear;
 337:../../lib/lpc11cx4-library/lpc_chip_11cxx_lib/inc/ssp_11xx.h **** }
 338:../../lib/lpc11cx4-library/lpc_chip_11cxx_lib/inc/ssp_11xx.h **** 
 339:../../lib/lpc11cx4-library/lpc_chip_11cxx_lib/inc/ssp_11xx.h **** /**
 340:../../lib/lpc11cx4-library/lpc_chip_11cxx_lib/inc/ssp_11xx.h ****  * @brief	Enable interrupt for the SSP
 341:../../lib/lpc11cx4-library/lpc_chip_11cxx_lib/inc/ssp_11xx.h ****  * @param	pSSP		: The base of SSP peripheral on the chip
 342:../../lib/lpc11cx4-library/lpc_chip_11cxx_lib/inc/ssp_11xx.h ****  * @return	 Nothing
 343:../../lib/lpc11cx4-library/lpc_chip_11cxx_lib/inc/ssp_11xx.h ****  */
 344:../../lib/lpc11cx4-library/lpc_chip_11cxx_lib/inc/ssp_11xx.h **** STATIC INLINE void Chip_SSP_Int_Enable(LPC_SSP_T *pSSP)
 345:../../lib/lpc11cx4-library/lpc_chip_11cxx_lib/inc/ssp_11xx.h **** {
 346:../../lib/lpc11cx4-library/lpc_chip_11cxx_lib/inc/ssp_11xx.h **** 	pSSP->IMSC |= SSP_TXIM;
 347:../../lib/lpc11cx4-library/lpc_chip_11cxx_lib/inc/ssp_11xx.h **** }
 348:../../lib/lpc11cx4-library/lpc_chip_11cxx_lib/inc/ssp_11xx.h **** 
 349:../../lib/lpc11cx4-library/lpc_chip_11cxx_lib/inc/ssp_11xx.h **** /**
 350:../../lib/lpc11cx4-library/lpc_chip_11cxx_lib/inc/ssp_11xx.h ****  * @brief	Disable interrupt for the SSP
 351:../../lib/lpc11cx4-library/lpc_chip_11cxx_lib/inc/ssp_11xx.h ****  * @param	pSSP		: The base of SSP peripheral on the chip
 352:../../lib/lpc11cx4-library/lpc_chip_11cxx_lib/inc/ssp_11xx.h ****  * @return	 Nothing
 353:../../lib/lpc11cx4-library/lpc_chip_11cxx_lib/inc/ssp_11xx.h ****  */
 354:../../lib/lpc11cx4-library/lpc_chip_11cxx_lib/inc/ssp_11xx.h **** STATIC INLINE void Chip_SSP_Int_Disable(LPC_SSP_T *pSSP)
 355:../../lib/lpc11cx4-library/lpc_chip_11cxx_lib/inc/ssp_11xx.h **** {
 356:../../lib/lpc11cx4-library/lpc_chip_11cxx_lib/inc/ssp_11xx.h **** 	pSSP->IMSC &= (~SSP_TXIM);
 357:../../lib/lpc11cx4-library/lpc_chip_11cxx_lib/inc/ssp_11xx.h **** }
 358:../../lib/lpc11cx4-library/lpc_chip_11cxx_lib/inc/ssp_11xx.h **** 
 359:../../lib/lpc11cx4-library/lpc_chip_11cxx_lib/inc/ssp_11xx.h **** /**
 360:../../lib/lpc11cx4-library/lpc_chip_11cxx_lib/inc/ssp_11xx.h ****  * @brief	Get received SSP data
 361:../../lib/lpc11cx4-library/lpc_chip_11cxx_lib/inc/ssp_11xx.h ****  * @param	pSSP	: The base of SSP peripheral on the chip
 362:../../lib/lpc11cx4-library/lpc_chip_11cxx_lib/inc/ssp_11xx.h ****  * @return	 SSP 16-bit data received
 363:../../lib/lpc11cx4-library/lpc_chip_11cxx_lib/inc/ssp_11xx.h ****  */
 364:../../lib/lpc11cx4-library/lpc_chip_11cxx_lib/inc/ssp_11xx.h **** STATIC INLINE uint16_t Chip_SSP_ReceiveFrame(LPC_SSP_T *pSSP)
 365:../../lib/lpc11cx4-library/lpc_chip_11cxx_lib/inc/ssp_11xx.h **** {
 366:../../lib/lpc11cx4-library/lpc_chip_11cxx_lib/inc/ssp_11xx.h **** 	return (uint16_t) (SSP_DR_BITMASK(pSSP->DR));
 367:../../lib/lpc11cx4-library/lpc_chip_11cxx_lib/inc/ssp_11xx.h **** }
ARM GAS  /var/folders/z0/6xlwn_996xz3mwq1cgzkbq4r0000gp/T//ccvmbCXw.s 			page 46


 368:../../lib/lpc11cx4-library/lpc_chip_11cxx_lib/inc/ssp_11xx.h **** 
 369:../../lib/lpc11cx4-library/lpc_chip_11cxx_lib/inc/ssp_11xx.h **** /**
 370:../../lib/lpc11cx4-library/lpc_chip_11cxx_lib/inc/ssp_11xx.h ****  * @brief	Send SSP 16-bit data
 371:../../lib/lpc11cx4-library/lpc_chip_11cxx_lib/inc/ssp_11xx.h ****  * @param	pSSP	: The base of SSP peripheral on the chip
 372:../../lib/lpc11cx4-library/lpc_chip_11cxx_lib/inc/ssp_11xx.h ****  * @param	tx_data	: SSP 16-bit data to be transmited
 373:../../lib/lpc11cx4-library/lpc_chip_11cxx_lib/inc/ssp_11xx.h ****  * @return	 Nothing
 374:../../lib/lpc11cx4-library/lpc_chip_11cxx_lib/inc/ssp_11xx.h ****  */
 375:../../lib/lpc11cx4-library/lpc_chip_11cxx_lib/inc/ssp_11xx.h **** STATIC INLINE void Chip_SSP_SendFrame(LPC_SSP_T *pSSP, uint16_t tx_data)
 376:../../lib/lpc11cx4-library/lpc_chip_11cxx_lib/inc/ssp_11xx.h **** {
 377:../../lib/lpc11cx4-library/lpc_chip_11cxx_lib/inc/ssp_11xx.h **** 	pSSP->DR = SSP_DR_BITMASK(tx_data);
 378:../../lib/lpc11cx4-library/lpc_chip_11cxx_lib/inc/ssp_11xx.h **** }
 379:../../lib/lpc11cx4-library/lpc_chip_11cxx_lib/inc/ssp_11xx.h **** 
 380:../../lib/lpc11cx4-library/lpc_chip_11cxx_lib/inc/ssp_11xx.h **** /**
 381:../../lib/lpc11cx4-library/lpc_chip_11cxx_lib/inc/ssp_11xx.h ****  * @brief	Set up output clocks per bit for SSP bus
 382:../../lib/lpc11cx4-library/lpc_chip_11cxx_lib/inc/ssp_11xx.h ****  * @param	pSSP		: The base of SSP peripheral on the chip
 383:../../lib/lpc11cx4-library/lpc_chip_11cxx_lib/inc/ssp_11xx.h ****  * @param	clk_rate	fs: The number of prescaler-output clocks per bit on the bus, minus one
 384:../../lib/lpc11cx4-library/lpc_chip_11cxx_lib/inc/ssp_11xx.h ****  * @param	prescale	: The factor by which the Prescaler divides the SSP peripheral clock PCLK
 385:../../lib/lpc11cx4-library/lpc_chip_11cxx_lib/inc/ssp_11xx.h ****  * @return	 Nothing
 386:../../lib/lpc11cx4-library/lpc_chip_11cxx_lib/inc/ssp_11xx.h ****  * @note	The bit frequency is PCLK / (prescale x[clk_rate+1])
 387:../../lib/lpc11cx4-library/lpc_chip_11cxx_lib/inc/ssp_11xx.h ****  */
 388:../../lib/lpc11cx4-library/lpc_chip_11cxx_lib/inc/ssp_11xx.h **** void Chip_SSP_SetClockRate(LPC_SSP_T *pSSP, uint32_t clk_rate, uint32_t prescale);
 389:../../lib/lpc11cx4-library/lpc_chip_11cxx_lib/inc/ssp_11xx.h **** 
 390:../../lib/lpc11cx4-library/lpc_chip_11cxx_lib/inc/ssp_11xx.h **** /**
 391:../../lib/lpc11cx4-library/lpc_chip_11cxx_lib/inc/ssp_11xx.h ****  * @brief	Set up the SSP frame format
 392:../../lib/lpc11cx4-library/lpc_chip_11cxx_lib/inc/ssp_11xx.h ****  * @param	pSSP		: The base of SSP peripheral on the chip
 393:../../lib/lpc11cx4-library/lpc_chip_11cxx_lib/inc/ssp_11xx.h ****  * @param	bits		: The number of bits transferred in each frame, should be SSP_BITS_4 to SSP_BITS_16
 394:../../lib/lpc11cx4-library/lpc_chip_11cxx_lib/inc/ssp_11xx.h ****  * @param	frameFormat	: Frame format, should be :
 395:../../lib/lpc11cx4-library/lpc_chip_11cxx_lib/inc/ssp_11xx.h ****  *							- SSP_FRAMEFORMAT_SPI
 396:../../lib/lpc11cx4-library/lpc_chip_11cxx_lib/inc/ssp_11xx.h ****  *							- SSP_FRAME_FORMAT_TI
 397:../../lib/lpc11cx4-library/lpc_chip_11cxx_lib/inc/ssp_11xx.h ****  *							- SSP_FRAMEFORMAT_MICROWIRE
 398:../../lib/lpc11cx4-library/lpc_chip_11cxx_lib/inc/ssp_11xx.h ****  * @param	clockMode	: Select Clock polarity and Clock phase, should be :
 399:../../lib/lpc11cx4-library/lpc_chip_11cxx_lib/inc/ssp_11xx.h ****  *							- SSP_CLOCK_CPHA0_CPOL0
 400:../../lib/lpc11cx4-library/lpc_chip_11cxx_lib/inc/ssp_11xx.h ****  *							- SSP_CLOCK_CPHA0_CPOL1
 401:../../lib/lpc11cx4-library/lpc_chip_11cxx_lib/inc/ssp_11xx.h ****  *							- SSP_CLOCK_CPHA1_CPOL0
 402:../../lib/lpc11cx4-library/lpc_chip_11cxx_lib/inc/ssp_11xx.h ****  *							- SSP_CLOCK_CPHA1_CPOL1
 403:../../lib/lpc11cx4-library/lpc_chip_11cxx_lib/inc/ssp_11xx.h ****  * @return	 Nothing
 404:../../lib/lpc11cx4-library/lpc_chip_11cxx_lib/inc/ssp_11xx.h ****  * @note	Note: The clockFormat is only used in SPI mode
 405:../../lib/lpc11cx4-library/lpc_chip_11cxx_lib/inc/ssp_11xx.h ****  */
 406:../../lib/lpc11cx4-library/lpc_chip_11cxx_lib/inc/ssp_11xx.h **** STATIC INLINE void Chip_SSP_SetFormat(LPC_SSP_T *pSSP, uint32_t bits, uint32_t frameFormat, uint32_
 407:../../lib/lpc11cx4-library/lpc_chip_11cxx_lib/inc/ssp_11xx.h **** {
 408:../../lib/lpc11cx4-library/lpc_chip_11cxx_lib/inc/ssp_11xx.h **** 	pSSP->CR0 = (pSSP->CR0 & ~0xFF) | bits | frameFormat | clockMode;
 1320              		.loc 3 408 0
 1321 003a FF22     		movs	r2, #255	@ tmp187,
 1322              	.LBE119:
 1323              	.LBE118:
  54:../../lib/lpc11cx4-library/evt_lib/src/ltc6804.c **** 	Chip_SSP_SetMaster(config->pSSP, true);
 1324              		.loc 1 54 0
 1325 003c 2868     		ldr	r0, [r5]	@ D.7969, config_2(D)->pSSP
 1326              	.LVL142:
  55:../../lib/lpc11cx4-library/evt_lib/src/ltc6804.c **** 	Chip_SSP_Enable(config->pSSP);
 1327              		.loc 1 55 0
 1328 003e 0121     		movs	r1, #1	@,
 1329              	.LBB122:
 1330              	.LBB120:
 1331              		.loc 3 408 0
 1332 0040 0368     		ldr	r3, [r0]	@ D.7968, _15->CR0
 1333              	.LBE120:
ARM GAS  /var/folders/z0/6xlwn_996xz3mwq1cgzkbq4r0000gp/T//ccvmbCXw.s 			page 47


 1334              	.LBE122:
  66:../../lib/lpc11cx4-library/evt_lib/src/ltc6804.c **** 	state->cfg[5] = 0x00; // [TODO] Consider using DCTO
 1335              		.loc 1 66 0
 1336 0042 0027     		movs	r7, #0	@ tmp225,
 1337              	.LBB123:
 1338              	.LBB121:
 1339              		.loc 3 408 0
 1340 0044 9343     		bics	r3, r2	@ D.7968, tmp187
 1341 0046 383A     		subs	r2, r2, #56	@ tmp188,
 1342 0048 1343     		orrs	r3, r2	@ D.7968, tmp188
 1343 004a 0360     		str	r3, [r0]	@ D.7968, _15->CR0
 1344              	.LVL143:
 1345              	.LBE121:
 1346              	.LBE123:
  55:../../lib/lpc11cx4-library/evt_lib/src/ltc6804.c **** 	Chip_SSP_Enable(config->pSSP);
 1347              		.loc 1 55 0
 1348 004c FFF7FEFF 		bl	Chip_SSP_SetMaster	@
 1349              	.LVL144:
 1350              	.LBB124:
 1351              	.LBB125:
 234:../../lib/lpc11cx4-library/lpc_chip_11cxx_lib/inc/ssp_11xx.h **** }
 1352              		.loc 3 234 0
 1353 0050 0223     		movs	r3, #2	@ tmp189,
 1354              	.LBE125:
 1355              	.LBE124:
  56:../../lib/lpc11cx4-library/evt_lib/src/ltc6804.c **** 
 1356              		.loc 1 56 0
 1357 0052 2A68     		ldr	r2, [r5]	@ D.7969, config_2(D)->pSSP
 1358              	.LVL145:
  61:../../lib/lpc11cx4-library/evt_lib/src/ltc6804.c **** 	state->cfg[0] = 0xBC; 
 1359              		.loc 1 61 0
 1360 0054 A068     		ldr	r0, [r4, #8]	@ tmp269, state_28(D)->rx_buf
 1361              	.LBB128:
 1362              	.LBB126:
 234:../../lib/lpc11cx4-library/lpc_chip_11cxx_lib/inc/ssp_11xx.h **** }
 1363              		.loc 3 234 0
 1364 0056 5168     		ldr	r1, [r2, #4]	@ D.7968, _18->CR1
 1365              	.LBE126:
 1366              	.LBE128:
  91:../../lib/lpc11cx4-library/evt_lib/src/ltc6804.c **** 
 1367              		.loc 1 91 0
 1368              		@ sp needed	@
 1369              	.LBB129:
 1370              	.LBB127:
 234:../../lib/lpc11cx4-library/lpc_chip_11cxx_lib/inc/ssp_11xx.h **** }
 1371              		.loc 3 234 0
 1372 0058 0B43     		orrs	r3, r1	@ D.7968, D.7968
 1373 005a 5360     		str	r3, [r2, #4]	@ D.7968, _18->CR1
 1374              	.LVL146:
 1375              	.LBE127:
 1376              	.LBE129:
  58:../../lib/lpc11cx4-library/evt_lib/src/ltc6804.c **** 	uint16_t VOV = config->max_cell_mV * 10 / 16;
 1377              		.loc 1 58 0
 1378 005c 2B69     		ldr	r3, [r5, #16]	@ config_2(D)->min_cell_mV, config_2(D)->min_cell_mV
 1379 005e 9A00     		lsls	r2, r3, #2	@ tmp192, config_2(D)->min_cell_mV,
 1380 0060 D318     		adds	r3, r2, r3	@ D.7968, tmp192, config_2(D)->min_cell_mV
  59:../../lib/lpc11cx4-library/evt_lib/src/ltc6804.c **** 
ARM GAS  /var/folders/z0/6xlwn_996xz3mwq1cgzkbq4r0000gp/T//ccvmbCXw.s 			page 48


 1381              		.loc 1 59 0
 1382 0062 6A69     		ldr	r2, [r5, #20]	@ config_2(D)->max_cell_mV, config_2(D)->max_cell_mV
  58:../../lib/lpc11cx4-library/evt_lib/src/ltc6804.c **** 	uint16_t VOV = config->max_cell_mV * 10 / 16;
 1383              		.loc 1 58 0
 1384 0064 5B00     		lsls	r3, r3, #1	@ tmp194, D.7968,
  59:../../lib/lpc11cx4-library/evt_lib/src/ltc6804.c **** 
 1385              		.loc 1 59 0
 1386 0066 9100     		lsls	r1, r2, #2	@ tmp200, config_2(D)->max_cell_mV,
 1387 0068 8A18     		adds	r2, r1, r2	@ D.7968, tmp200, config_2(D)->max_cell_mV
  61:../../lib/lpc11cx4-library/evt_lib/src/ltc6804.c **** 	state->cfg[0] = 0xBC; 
 1388              		.loc 1 61 0
 1389 006a 2168     		ldr	r1, [r4]	@ state_28(D)->xf, state_28(D)->xf
  58:../../lib/lpc11cx4-library/evt_lib/src/ltc6804.c **** 	uint16_t VOV = config->max_cell_mV * 10 / 16;
 1390              		.loc 1 58 0
 1391 006c 1B09     		lsrs	r3, r3, #4	@ D.7968, tmp194,
  61:../../lib/lpc11cx4-library/evt_lib/src/ltc6804.c **** 	state->cfg[0] = 0xBC; 
 1392              		.loc 1 61 0
 1393 006e 8860     		str	r0, [r1, #8]	@ tmp269, _29->rx_data
  62:../../lib/lpc11cx4-library/evt_lib/src/ltc6804.c **** 	state->cfg[1] = VUV & 0xFF;
 1394              		.loc 1 62 0
 1395 0070 BC21     		movs	r1, #188	@ tmp205,
 1396 0072 6069     		ldr	r0, [r4, #20]	@ tmp270, state_28(D)->cfg
  58:../../lib/lpc11cx4-library/evt_lib/src/ltc6804.c **** 	uint16_t VOV = config->max_cell_mV * 10 / 16;
 1397              		.loc 1 58 0
 1398 0074 013B     		subs	r3, r3, #1	@ tmp197,
  62:../../lib/lpc11cx4-library/evt_lib/src/ltc6804.c **** 	state->cfg[1] = VUV & 0xFF;
 1399              		.loc 1 62 0
 1400 0076 0170     		strb	r1, [r0]	@ tmp205, *_32
  63:../../lib/lpc11cx4-library/evt_lib/src/ltc6804.c **** 	state->cfg[2] = (VUV & 0xF00) >> 8 | (VOV & 0xF) << 4; 
 1401              		.loc 1 63 0
 1402 0078 6169     		ldr	r1, [r4, #20]	@ tmp271, state_28(D)->cfg
  58:../../lib/lpc11cx4-library/evt_lib/src/ltc6804.c **** 	uint16_t VOV = config->max_cell_mV * 10 / 16;
 1403              		.loc 1 58 0
 1404 007a 9BB2     		uxth	r3, r3	@ VUV, tmp197
 1405              	.LVL147:
  63:../../lib/lpc11cx4-library/evt_lib/src/ltc6804.c **** 	state->cfg[2] = (VUV & 0xF00) >> 8 | (VOV & 0xF) << 4; 
 1406              		.loc 1 63 0
 1407 007c 4B70     		strb	r3, [r1, #1]	@ VUV, MEM[(uint8_t *)_34 + 1B]
  64:../../lib/lpc11cx4-library/evt_lib/src/ltc6804.c **** 	state->cfg[3] = (VOV & 0xFF0) >> 4;
 1408              		.loc 1 64 0
 1409 007e 1D49     		ldr	r1, .L87	@ tmp216,
  59:../../lib/lpc11cx4-library/evt_lib/src/ltc6804.c **** 
 1410              		.loc 1 59 0
 1411 0080 5200     		lsls	r2, r2, #1	@ tmp202, D.7968,
 1412              	.LVL148:
  64:../../lib/lpc11cx4-library/evt_lib/src/ltc6804.c **** 	state->cfg[3] = (VOV & 0xFF0) >> 4;
 1413              		.loc 1 64 0
 1414 0082 1B05     		lsls	r3, r3, #20	@ tmp213, VUV,
 1415              	.LVL149:
 1416 0084 1140     		ands	r1, r2	@ D.7974, tmp202
 1417 0086 1B0F     		lsrs	r3, r3, #28	@ tmp212, tmp213,
 1418 0088 0B43     		orrs	r3, r1	@ tmp219, D.7974
 1419 008a 6169     		ldr	r1, [r4, #20]	@ tmp272, state_28(D)->cfg
  65:../../lib/lpc11cx4-library/evt_lib/src/ltc6804.c **** 	state->cfg[4] = 0x00; 
 1420              		.loc 1 65 0
 1421 008c 120A     		lsrs	r2, r2, #8	@ D.7974, tmp202,
 1422              	.LVL150:
ARM GAS  /var/folders/z0/6xlwn_996xz3mwq1cgzkbq4r0000gp/T//ccvmbCXw.s 			page 49


  64:../../lib/lpc11cx4-library/evt_lib/src/ltc6804.c **** 	state->cfg[3] = (VOV & 0xFF0) >> 4;
 1423              		.loc 1 64 0
 1424 008e 8B70     		strb	r3, [r1, #2]	@ tmp219, MEM[(uint8_t *)_37 + 2B]
  65:../../lib/lpc11cx4-library/evt_lib/src/ltc6804.c **** 	state->cfg[4] = 0x00; 
 1425              		.loc 1 65 0
 1426 0090 6369     		ldr	r3, [r4, #20]	@ tmp273, state_28(D)->cfg
  70:../../lib/lpc11cx4-library/evt_lib/src/ltc6804.c **** 	state->waiting = false;
 1427              		.loc 1 70 0
 1428 0092 1949     		ldr	r1, .L87+4	@,
  65:../../lib/lpc11cx4-library/evt_lib/src/ltc6804.c **** 	state->cfg[4] = 0x00; 
 1429              		.loc 1 65 0
 1430 0094 DA70     		strb	r2, [r3, #3]	@ D.7974, MEM[(uint8_t *)_47 + 3B]
  66:../../lib/lpc11cx4-library/evt_lib/src/ltc6804.c **** 	state->cfg[5] = 0x00; // [TODO] Consider using DCTO
 1431              		.loc 1 66 0
 1432 0096 6369     		ldr	r3, [r4, #20]	@ tmp274, state_28(D)->cfg
 1433 0098 1F71     		strb	r7, [r3, #4]	@ tmp225, MEM[(uint8_t *)_52 + 4B]
  67:../../lib/lpc11cx4-library/evt_lib/src/ltc6804.c **** 
 1434              		.loc 1 67 0
 1435 009a 6369     		ldr	r3, [r4, #20]	@ tmp275, state_28(D)->cfg
 1436 009c 5F71     		strb	r7, [r3, #5]	@ tmp225, MEM[(uint8_t *)_55 + 5B]
  70:../../lib/lpc11cx4-library/evt_lib/src/ltc6804.c **** 	state->waiting = false;
 1437              		.loc 1 70 0
 1438 009e 6B68     		ldr	r3, [r5, #4]	@ config_2(D)->baud, config_2(D)->baud
  69:../../lib/lpc11cx4-library/evt_lib/src/ltc6804.c **** 	state->wake_length = 3*config->baud/80000 + 1; // [TODO] Remember how this was calculated
 1439              		.loc 1 69 0
 1440 00a0 E660     		str	r6, [r4, #12]	@ msTicks, state_28(D)->last_message
  70:../../lib/lpc11cx4-library/evt_lib/src/ltc6804.c **** 	state->waiting = false;
 1441              		.loc 1 70 0
 1442 00a2 5800     		lsls	r0, r3, #1	@ tmp231, config_2(D)->baud,
 1443 00a4 C018     		adds	r0, r0, r3	@ D.7968, tmp231, config_2(D)->baud
 1444 00a6 FFF7FEFF 		bl	__aeabi_uidiv	@
 1445              	.LVL151:
 1446 00aa 0130     		adds	r0, r0, #1	@ D.7968,
 1447 00ac 2061     		str	r0, [r4, #16]	@ D.7968, state_28(D)->wake_length
  71:../../lib/lpc11cx4-library/evt_lib/src/ltc6804.c **** 	state->wait_time = LTC6804_ADCV_MODE_WAIT_TIMES[config->adc_mode];
 1448              		.loc 1 71 0
 1449 00ae 2776     		strb	r7, [r4, #24]	@ tmp225, state_28(D)->waiting
  72:../../lib/lpc11cx4-library/evt_lib/src/ltc6804.c **** 	// state->wait_time = 7; // [TODO] Remove
 1450              		.loc 1 72 0
 1451 00b0 2B7E     		ldrb	r3, [r5, #24]	@ D.7974,
 1452 00b2 124A     		ldr	r2, .L87+8	@ tmp240,
  74:../../lib/lpc11cx4-library/evt_lib/src/ltc6804.c **** 	state->balancing = false;
 1453              		.loc 1 74 0
 1454 00b4 6662     		str	r6, [r4, #36]	@ msTicks, state_28(D)->last_sleep_wake
  72:../../lib/lpc11cx4-library/evt_lib/src/ltc6804.c **** 	// state->wait_time = 7; // [TODO] Remove
 1455              		.loc 1 72 0
 1456 00b6 D35C     		ldrb	r3, [r2, r3]	@ tmp242, LTC6804_ADCV_MODE_WAIT_TIMES
  82:../../lib/lpc11cx4-library/evt_lib/src/ltc6804.c ****   // memset(zero_vector, 0, sizeof(bool) * MAX_NUM_MODULES * MAX_CELLS_PER_MODULE);
 1457              		.loc 1 82 0
 1458 00b8 0021     		movs	r1, #0	@,
  72:../../lib/lpc11cx4-library/evt_lib/src/ltc6804.c **** 	// state->wait_time = 7; // [TODO] Remove
 1459              		.loc 1 72 0
 1460 00ba E361     		str	r3, [r4, #28]	@ tmp242, state_28(D)->wait_time
  75:../../lib/lpc11cx4-library/evt_lib/src/ltc6804.c **** 	state->flight_time = 0;
 1461              		.loc 1 75 0
 1462 00bc 2823     		movs	r3, #40	@ tmp243,
 1463 00be E754     		strb	r7, [r4, r3]	@ tmp225, state_28(D)->balancing
ARM GAS  /var/folders/z0/6xlwn_996xz3mwq1cgzkbq4r0000gp/T//ccvmbCXw.s 			page 50


  78:../../lib/lpc11cx4-library/evt_lib/src/ltc6804.c **** 
 1464              		.loc 1 78 0
 1465 00c0 0833     		adds	r3, r3, #8	@ tmp247,
  76:../../lib/lpc11cx4-library/evt_lib/src/ltc6804.c **** 
 1466              		.loc 1 76 0
 1467 00c2 2762     		str	r7, [r4, #32]	@ tmp225, state_28(D)->flight_time
  78:../../lib/lpc11cx4-library/evt_lib/src/ltc6804.c **** 
 1468              		.loc 1 78 0
 1469 00c4 E754     		strb	r7, [r4, r3]	@ tmp225, state_28(D)->adc_status
  80:../../lib/lpc11cx4-library/evt_lib/src/ltc6804.c **** 
 1470              		.loc 1 80 0
 1471 00c6 0E4B     		ldr	r3, .L87+12	@ tmp250,
  82:../../lib/lpc11cx4-library/evt_lib/src/ltc6804.c ****   // memset(zero_vector, 0, sizeof(bool) * MAX_NUM_MODULES * MAX_CELLS_PER_MODULE);
 1472              		.loc 1 82 0
 1473 00c8 2822     		movs	r2, #40	@,
 1474 00ca 0E48     		ldr	r0, .L87+16	@,
  80:../../lib/lpc11cx4-library/evt_lib/src/ltc6804.c **** 
 1475              		.loc 1 80 0
 1476 00cc 1F80     		strh	r7, [r3]	@ tmp225, owt_state
  82:../../lib/lpc11cx4-library/evt_lib/src/ltc6804.c ****   // memset(zero_vector, 0, sizeof(bool) * MAX_NUM_MODULES * MAX_CELLS_PER_MODULE);
 1477              		.loc 1 82 0
 1478 00ce FFF7FEFF 		bl	memset	@
 1479              	.LVL152:
  84:../../lib/lpc11cx4-library/evt_lib/src/ltc6804.c **** 
 1480              		.loc 1 84 0
 1481 00d2 1E22     		movs	r2, #30	@,
 1482 00d4 0021     		movs	r1, #0	@,
 1483 00d6 E06A     		ldr	r0, [r4, #44]	@, state_28(D)->bal_list
 1484 00d8 FFF7FEFF 		bl	memset	@
 1485              	.LVL153:
  88:../../lib/lpc11cx4-library/evt_lib/src/ltc6804.c **** 
 1486              		.loc 1 88 0
 1487 00dc 3200     		movs	r2, r6	@, msTicks
 1488 00de 0123     		movs	r3, #1	@,
 1489 00e0 2100     		movs	r1, r4	@, state
 1490 00e2 2800     		movs	r0, r5	@, config
 1491 00e4 FFF7FEFF 		bl	_wake	@
 1492              	.LVL154:
  90:../../lib/lpc11cx4-library/evt_lib/src/ltc6804.c **** }
 1493              		.loc 1 90 0
 1494 00e8 3200     		movs	r2, r6	@, msTicks
 1495 00ea 2800     		movs	r0, r5	@, config
 1496 00ec 2100     		movs	r1, r4	@, state
 1497 00ee FFF7FEFF 		bl	LTC6804_WriteCFG	@
 1498              	.LVL155:
 1499              	.LVL156:
 1500              	.LVL157:
 1501              	.LVL158:
  91:../../lib/lpc11cx4-library/evt_lib/src/ltc6804.c **** 
 1502              		.loc 1 91 0
 1503 00f2 F8BD     		pop	{r3, r4, r5, r6, r7, pc}
 1504              	.L88:
 1505              		.align	2
 1506              	.L87:
 1507 00f4 F0FF0F00 		.word	1048560
 1508 00f8 80380100 		.word	80000
 1509 00fc 00000000 		.word	.LANCHOR2
ARM GAS  /var/folders/z0/6xlwn_996xz3mwq1cgzkbq4r0000gp/T//ccvmbCXw.s 			page 51


 1510 0100 00000000 		.word	.LANCHOR3
 1511 0104 00000000 		.word	.LANCHOR1
 1512              		.cfi_endproc
 1513              	.LFE199:
 1514              		.size	LTC6804_Init, .-LTC6804_Init
 1515              		.section	.text._read,"ax",%progbits
 1516              		.align	2
 1517              		.global	_read
 1518              		.code	16
 1519              		.thumb_func
 1520              		.type	_read, %function
 1521              	_read:
 1522              	.LFB211:
 514:../../lib/lpc11cx4-library/evt_lib/src/ltc6804.c **** 	_wake(config, state, msTicks, false);
 1523              		.loc 1 514 0
 1524              		.cfi_startproc
 1525              		@ args = 0, pretend = 0, frame = 0
 1526              		@ frame_needed = 0, uses_anonymous_args = 0
 1527              	.LVL159:
 1528 0000 F8B5     		push	{r3, r4, r5, r6, r7, lr}	@
 1529              		.cfi_def_cfa_offset 24
 1530              		.cfi_offset 3, -24
 1531              		.cfi_offset 4, -20
 1532              		.cfi_offset 5, -16
 1533              		.cfi_offset 6, -12
 1534              		.cfi_offset 7, -8
 1535              		.cfi_offset 14, -4
 514:../../lib/lpc11cx4-library/evt_lib/src/ltc6804.c **** 	_wake(config, state, msTicks, false);
 1536              		.loc 1 514 0
 1537 0002 1F00     		movs	r7, r3	@ msTicks, msTicks
 1538 0004 0E00     		movs	r6, r1	@ state, state
 1539 0006 1400     		movs	r4, r2	@ cmd, cmd
 515:../../lib/lpc11cx4-library/evt_lib/src/ltc6804.c **** 
 1540              		.loc 1 515 0
 1541 0008 0023     		movs	r3, #0	@,
 1542              	.LVL160:
 1543 000a 3A00     		movs	r2, r7	@, msTicks
 1544              	.LVL161:
 514:../../lib/lpc11cx4-library/evt_lib/src/ltc6804.c **** 	_wake(config, state, msTicks, false);
 1545              		.loc 1 514 0
 1546 000c 0500     		movs	r5, r0	@ config, config
 515:../../lib/lpc11cx4-library/evt_lib/src/ltc6804.c **** 
 1547              		.loc 1 515 0
 1548 000e FFF7FEFF 		bl	_wake	@
 1549              	.LVL162:
 1550              	.LBB130:
 1551              	.LBB131:
 621:../../lib/lpc11cx4-library/evt_lib/src/ltc6804.c **** 	}
 1552              		.loc 1 621 0
 1553 0012 8021     		movs	r1, #128	@ tmp217,
 1554              	.LBE131:
 1555              	.LBE130:
 517:../../lib/lpc11cx4-library/evt_lib/src/ltc6804.c **** 	state->tx_buf[1] = cmd & 0xFF;
 1556              		.loc 1 517 0
 1557 0014 7268     		ldr	r2, [r6, #4]	@ tmp298, state_6(D)->tx_buf
 1558 0016 230A     		lsrs	r3, r4, #8	@ tmp209, cmd,
 1559 0018 1370     		strb	r3, [r2]	@ tmp209, *_9
ARM GAS  /var/folders/z0/6xlwn_996xz3mwq1cgzkbq4r0000gp/T//ccvmbCXw.s 			page 52


 518:../../lib/lpc11cx4-library/evt_lib/src/ltc6804.c **** 	uint16_t pec = _calculate_pec(state->tx_buf, 2);
 1560              		.loc 1 518 0
 1561 001a 7368     		ldr	r3, [r6, #4]	@ tmp299, state_6(D)->tx_buf
 1562              	.LBB134:
 1563              	.LBB132:
 621:../../lib/lpc11cx4-library/evt_lib/src/ltc6804.c **** 	}
 1564              		.loc 1 621 0
 1565 001c 4901     		lsls	r1, r1, #5	@ tmp217, tmp217,
 1566              	.LBE132:
 1567              	.LBE134:
 518:../../lib/lpc11cx4-library/evt_lib/src/ltc6804.c **** 	uint16_t pec = _calculate_pec(state->tx_buf, 2);
 1568              		.loc 1 518 0
 1569 001e 5C70     		strb	r4, [r3, #1]	@ cmd, MEM[(uint8_t *)_14 + 1B]
 519:../../lib/lpc11cx4-library/evt_lib/src/ltc6804.c **** 	state->tx_buf[2] = pec >> 8;
 1570              		.loc 1 519 0
 1571 0020 7268     		ldr	r2, [r6, #4]	@ D.8005, state_6(D)->tx_buf
 1572              	.LVL163:
 1573              	.LBB135:
 1574              	.LBB133:
 621:../../lib/lpc11cx4-library/evt_lib/src/ltc6804.c **** 	}
 1575              		.loc 1 621 0
 1576 0022 344C     		ldr	r4, .L97	@ tmp293,
 620:../../lib/lpc11cx4-library/evt_lib/src/ltc6804.c **** 		remainder = (remainder<<8)^crc15Table[addr];
 1577              		.loc 1 620 0
 1578 0024 1378     		ldrb	r3, [r2]	@ D.8007, *_17
 621:../../lib/lpc11cx4-library/evt_lib/src/ltc6804.c **** 	}
 1579              		.loc 1 621 0
 1580 0026 5078     		ldrb	r0, [r2, #1]	@ MEM[(uint8_t *)_17 + 1B], MEM[(uint8_t *)_17 + 1B]
 1581 0028 9B00     		lsls	r3, r3, #2	@ tmp213, D.8007,
 1582 002a E35A     		ldrh	r3, [r4, r3]	@ tmp216, crc15Table
 1583 002c 4B40     		eors	r3, r1	@ remainder, tmp217
 1584              	.LVL164:
 1585 002e 1902     		lsls	r1, r3, #8	@ tmp218, remainder,
 1586 0030 DB09     		lsrs	r3, r3, #7	@ tmp220, remainder,
 1587              	.LVL165:
 1588 0032 4340     		eors	r3, r0	@ tmp224, MEM[(uint8_t *)_17 + 1B]
 1589 0034 FF20     		movs	r0, #255	@ tmp229,
 1590 0036 0340     		ands	r3, r0	@ D.8010, tmp229
 1591 0038 9B00     		lsls	r3, r3, #2	@ tmp231, D.8010,
 1592 003a E35A     		ldrh	r3, [r4, r3]	@ D.8006, crc15Table
 1593              	.LVL166:
 1594 003c 89B2     		uxth	r1, r1	@ D.8006, tmp218
 1595              	.LVL167:
 1596              		.loc 1 623 0
 1597 003e 4B40     		eors	r3, r1	@ tmp234, D.8006
 1598              	.LVL168:
 1599 0040 5B00     		lsls	r3, r3, #1	@ tmp236, tmp234,
 1600 0042 9BB2     		uxth	r3, r3	@ D.8016, tmp236
 1601              	.LVL169:
 1602              	.LBE133:
 1603              	.LBE135:
 520:../../lib/lpc11cx4-library/evt_lib/src/ltc6804.c **** 	state->tx_buf[3] = pec & 0xFF;
 1604              		.loc 1 520 0
 1605 0044 190A     		lsrs	r1, r3, #8	@ tmp237, D.8016,
 1606 0046 9170     		strb	r1, [r2, #2]	@ tmp237, MEM[(uint8_t *)_17 + 2B]
 521:../../lib/lpc11cx4-library/evt_lib/src/ltc6804.c **** 
 1607              		.loc 1 521 0
ARM GAS  /var/folders/z0/6xlwn_996xz3mwq1cgzkbq4r0000gp/T//ccvmbCXw.s 			page 53


 1608 0048 7268     		ldr	r2, [r6, #4]	@ tmp300, state_6(D)->tx_buf
 523:../../lib/lpc11cx4-library/evt_lib/src/ltc6804.c **** 
 1609              		.loc 1 523 0
 1610 004a 0021     		movs	r1, #0	@,
 521:../../lib/lpc11cx4-library/evt_lib/src/ltc6804.c **** 
 1611              		.loc 1 521 0
 1612 004c D370     		strb	r3, [r2, #3]	@ D.8016, MEM[(uint8_t *)_22 + 3B]
 523:../../lib/lpc11cx4-library/evt_lib/src/ltc6804.c **** 
 1613              		.loc 1 523 0
 1614 004e 7368     		ldr	r3, [r6, #4]	@ tmp301, state_6(D)->tx_buf
 1615 0050 AA7A     		ldrb	r2, [r5, #10]	@ D.8010,
 1616 0052 181D     		adds	r0, r3, #4	@ D.8009, tmp301,
 1617 0054 D200     		lsls	r2, r2, #3	@ D.8010, D.8010,
 1618 0056 FFF7FEFF 		bl	memset	@
 1619              	.LVL170:
 1620              	.LBB136:
 1621              	.LBB137:
 1622              		.loc 2 104 0
 1623 005a A022     		movs	r2, #160	@ tmp304,
 1624              	.LBE137:
 1625              	.LBE136:
 525:../../lib/lpc11cx4-library/evt_lib/src/ltc6804.c **** 	state->xf->rx_data = state->rx_buf;
 1626              		.loc 1 525 0
 1627 005c 0020     		movs	r0, #0	@ tmp251,
 1628 005e AB7A     		ldrb	r3, [r5, #10]	@ D.8010,
 1629 0060 3168     		ldr	r1, [r6]	@ D.8011, state_6(D)->xf
 1630 0062 DB00     		lsls	r3, r3, #3	@ D.8010, D.8010,
 1631 0064 0433     		adds	r3, r3, #4	@ D.8010,
 1632 0066 0B61     		str	r3, [r1, #16]	@ D.8010, _32->length
 526:../../lib/lpc11cx4-library/evt_lib/src/ltc6804.c **** 	state->xf->tx_data = state->tx_buf;
 1633              		.loc 1 526 0
 1634 0068 B368     		ldr	r3, [r6, #8]	@ tmp302, state_6(D)->rx_buf
 1635              	.LBB141:
 1636              	.LBB138:
 1637              		.loc 2 104 0
 1638 006a D205     		lsls	r2, r2, #23	@ tmp304, tmp304,
 1639              	.LBE138:
 1640              	.LBE141:
 526:../../lib/lpc11cx4-library/evt_lib/src/ltc6804.c **** 	state->xf->tx_data = state->tx_buf;
 1641              		.loc 1 526 0
 1642 006c 8B60     		str	r3, [r1, #8]	@ tmp302, _32->rx_data
 527:../../lib/lpc11cx4-library/evt_lib/src/ltc6804.c **** 
 1643              		.loc 1 527 0
 1644 006e 7368     		ldr	r3, [r6, #4]	@ tmp303, state_6(D)->tx_buf
 525:../../lib/lpc11cx4-library/evt_lib/src/ltc6804.c **** 	state->xf->rx_data = state->rx_buf;
 1645              		.loc 1 525 0
 1646 0070 C860     		str	r0, [r1, #12]	@ tmp251, _32->rx_cnt
 1647 0072 4860     		str	r0, [r1, #4]	@ tmp251, _32->tx_cnt
 527:../../lib/lpc11cx4-library/evt_lib/src/ltc6804.c **** 
 1648              		.loc 1 527 0
 1649 0074 0B60     		str	r3, [r1]	@ tmp303, _32->tx_data
 1650              	.LBB142:
 1651              	.LBB139:
 1652              		.loc 2 104 0
 1653 0076 9446     		mov	ip, r2	@ tmp304, tmp304
 1654              	.LBE139:
 1655              	.LBE142:
ARM GAS  /var/folders/z0/6xlwn_996xz3mwq1cgzkbq4r0000gp/T//ccvmbCXw.s 			page 54


 529:../../lib/lpc11cx4-library/evt_lib/src/ltc6804.c **** 	Chip_GPIO_SetPinState(LPC_GPIO, config->cs_gpio, config->cs_pin, false);
 1656              		.loc 1 529 0
 1657 0078 F760     		str	r7, [r6, #12]	@ msTicks, state_6(D)->last_message
 1658              	.LVL171:
 1659              	.LBB143:
 1660              	.LBB140:
 1661              		.loc 2 104 0
 1662 007a 0127     		movs	r7, #1	@ tmp258,
 1663              	.LVL172:
 1664 007c 2B7A     		ldrb	r3, [r5, #8]	@ D.8008,
 1665 007e 6A7A     		ldrb	r2, [r5, #9]	@ D.8010,
 1666 0080 1B04     		lsls	r3, r3, #16	@ D.8008, D.8008,
 1667 0082 9C44     		add	ip, ip, r3	@ D.8014, D.8008
 1668 0084 3B00     		movs	r3, r7	@ D.8010, tmp258
 1669 0086 9340     		lsls	r3, r3, r2	@ D.8010, D.8010, D.8010
 1670 0088 9A00     		lsls	r2, r3, #2	@ tmp259, D.8010,
 1671 008a 6346     		mov	r3, ip	@ D.8014, D.8014
 1672 008c D050     		str	r0, [r2, r3]	@ tmp251, _75->DATA
 1673              	.LVL173:
 1674              	.LBE140:
 1675              	.LBE143:
 531:../../lib/lpc11cx4-library/evt_lib/src/ltc6804.c **** 	Chip_GPIO_SetPinState(LPC_GPIO, config->cs_gpio, config->cs_pin, true);
 1676              		.loc 1 531 0
 1677 008e 2868     		ldr	r0, [r5]	@, config_5(D)->pSSP
 1678 0090 FFF7FEFF 		bl	Chip_SSP_RWFrames_Blocking	@
 1679              	.LVL174:
 1680              	.LBB144:
 1681              	.LBB145:
 1682              		.loc 2 104 0
 1683 0094 A022     		movs	r2, #160	@ tmp307,
 1684 0096 D205     		lsls	r2, r2, #23	@ tmp307, tmp307,
 1685 0098 9446     		mov	ip, r2	@ tmp307, tmp307
 1686 009a 6A7A     		ldrb	r2, [r5, #9]	@ D.8010,
 1687 009c 2B7A     		ldrb	r3, [r5, #8]	@ D.8008,
 1688 009e 9740     		lsls	r7, r7, r2	@ D.8010, tmp258, D.8010
 1689 00a0 1B04     		lsls	r3, r3, #16	@ D.8008, D.8008,
 1690 00a2 6344     		add	r3, r3, ip	@ D.8014, tmp307
 1691 00a4 BA00     		lsls	r2, r7, #2	@ tmp266, D.8010,
 1692 00a6 D750     		str	r7, [r2, r3]	@ D.8010, _70->DATA
 1693              	.LVL175:
 1694              	.LBE145:
 1695              	.LBE144:
 537:../../lib/lpc11cx4-library/evt_lib/src/ltc6804.c **** 		uint8_t *rx_ptr = state->rx_buf + 4 + 8 * i;
 1696              		.loc 1 537 0
 1697 00a8 AB7A     		ldrb	r3, [r5, #10]	@ D.8010,
 1698 00aa 9C46     		mov	ip, r3	@ D.8010, D.8010
 1699 00ac 002B     		cmp	r3, #0	@ D.8010,
 1700 00ae 1DD0     		beq	.L93	@,
 1701 00b0 0020     		movs	r0, #0	@ i,
 1702              	.LBB146:
 1703              	.LBB147:
 1704              	.LBB148:
 621:../../lib/lpc11cx4-library/evt_lib/src/ltc6804.c **** 	}
 1705              		.loc 1 621 0
 1706 00b2 FF21     		movs	r1, #255	@ tmp296,
 1707 00b4 B268     		ldr	r2, [r6, #8]	@ state_6(D)->rx_buf, state_6(D)->rx_buf
 1708 00b6 0A32     		adds	r2, r2, #10	@ ivtmp.103,
ARM GAS  /var/folders/z0/6xlwn_996xz3mwq1cgzkbq4r0000gp/T//ccvmbCXw.s 			page 55


 1709              	.LVL176:
 1710              	.L92:
 616:../../lib/lpc11cx4-library/evt_lib/src/ltc6804.c **** 	uint8_t i;
 1711              		.loc 1 616 0
 1712 00b8 1023     		movs	r3, #16	@ remainder,
 1713 00ba 961F     		subs	r6, r2, #6	@ ivtmp.100, ivtmp.103,
 1714              	.LVL177:
 1715              	.L91:
 621:../../lib/lpc11cx4-library/evt_lib/src/ltc6804.c **** 	}
 1716              		.loc 1 621 0
 1717 00bc 3578     		ldrb	r5, [r6]	@ MEM[base: _114, offset: 0B], MEM[base: _114, offset: 0B]
 1718 00be 1F02     		lsls	r7, r3, #8	@ tmp268, remainder,
 1719 00c0 DB09     		lsrs	r3, r3, #7	@ tmp270, remainder,
 1720              	.LVL178:
 1721 00c2 6B40     		eors	r3, r5	@ tmp274, MEM[base: _114, offset: 0B]
 1722 00c4 0B40     		ands	r3, r1	@ D.8010, tmp296
 1723 00c6 9B00     		lsls	r3, r3, #2	@ tmp281, D.8010,
 1724 00c8 E35A     		ldrh	r3, [r4, r3]	@ D.8006, crc15Table
 1725 00ca BFB2     		uxth	r7, r7	@ D.8006, tmp268
 1726 00cc 0136     		adds	r6, r6, #1	@ ivtmp.100,
 1727              	.LVL179:
 1728 00ce 7B40     		eors	r3, r7	@ remainder, D.8006
 1729              	.LVL180:
 618:../../lib/lpc11cx4-library/evt_lib/src/ltc6804.c **** 	{
 1730              		.loc 1 618 0
 1731 00d0 B242     		cmp	r2, r6	@ ivtmp.103, ivtmp.100
 1732 00d2 F3D1     		bne	.L91	@,
 1733              	.LVL181:
 1734              	.LBE148:
 1735              	.LBE147:
 540:../../lib/lpc11cx4-library/evt_lib/src/ltc6804.c **** 	}
 1736              		.loc 1 540 0
 1737 00d4 1678     		ldrb	r6, [r2]	@ D.8010, MEM[base: _107, offset: 0B]
 1738 00d6 5B00     		lsls	r3, r3, #1	@ tmp286, remainder,
 1739 00d8 5778     		ldrb	r7, [r2, #1]	@ D.8010, MEM[base: _107, offset: 1B]
 1740 00da 3602     		lsls	r6, r6, #8	@ D.8010, D.8010,
 1741 00dc 9BB2     		uxth	r3, r3	@ D.8010, tmp286
 1742 00de 3E43     		orrs	r6, r7	@ D.8010, D.8010
 1743 00e0 B342     		cmp	r3, r6	@ D.8010, D.8010
 1744 00e2 05D1     		bne	.L94	@,
 1745              	.LBE146:
 537:../../lib/lpc11cx4-library/evt_lib/src/ltc6804.c **** 		uint8_t *rx_ptr = state->rx_buf + 4 + 8 * i;
 1746              		.loc 1 537 0 discriminator 2
 1747 00e4 0130     		adds	r0, r0, #1	@ i,
 1748              	.LVL182:
 1749 00e6 0832     		adds	r2, r2, #8	@ ivtmp.103,
 1750              	.LVL183:
 1751 00e8 6045     		cmp	r0, ip	@ i, D.8010
 1752 00ea E5DB     		blt	.L92	@,
 1753              	.LVL184:
 1754              	.L93:
 543:../../lib/lpc11cx4-library/evt_lib/src/ltc6804.c **** }
 1755              		.loc 1 543 0
 1756 00ec 0120     		movs	r0, #1	@ D.8004,
 1757              	.L90:
 544:../../lib/lpc11cx4-library/evt_lib/src/ltc6804.c **** 
 1758              		.loc 1 544 0
ARM GAS  /var/folders/z0/6xlwn_996xz3mwq1cgzkbq4r0000gp/T//ccvmbCXw.s 			page 56


 1759              		@ sp needed	@
 1760 00ee F8BD     		pop	{r3, r4, r5, r6, r7, pc}
 1761              	.LVL185:
 1762              	.L94:
 1763              	.LBB149:
 540:../../lib/lpc11cx4-library/evt_lib/src/ltc6804.c **** 	}
 1764              		.loc 1 540 0
 1765 00f0 0320     		movs	r0, #3	@ D.8004,
 1766              	.LVL186:
 1767 00f2 FCE7     		b	.L90	@
 1768              	.L98:
 1769              		.align	2
 1770              	.L97:
 1771 00f4 00000000 		.word	.LANCHOR0
 1772              	.LBE149:
 1773              		.cfi_endproc
 1774              	.LFE211:
 1775              		.size	_read, .-_read
 1776              		.section	.text.LTC6804_VerifyCFG,"ax",%progbits
 1777              		.align	2
 1778              		.global	LTC6804_VerifyCFG
 1779              		.code	16
 1780              		.thumb_func
 1781              		.type	LTC6804_VerifyCFG, %function
 1782              	LTC6804_VerifyCFG:
 1783              	.LFB201:
 108:../../lib/lpc11cx4-library/evt_lib/src/ltc6804.c **** 	LTC6804_STATUS_T res = _read(config, state, RDCFG, msTicks);
 1784              		.loc 1 108 0
 1785              		.cfi_startproc
 1786              		@ args = 0, pretend = 0, frame = 0
 1787              		@ frame_needed = 0, uses_anonymous_args = 0
 1788              	.LVL187:
 1789 0000 F0B5     		push	{r4, r5, r6, r7, lr}	@
 1790              		.cfi_def_cfa_offset 20
 1791              		.cfi_offset 4, -20
 1792              		.cfi_offset 5, -16
 1793              		.cfi_offset 6, -12
 1794              		.cfi_offset 7, -8
 1795              		.cfi_offset 14, -4
 1796 0002 4746     		mov	r7, r8	@,
 1797 0004 1300     		movs	r3, r2	@ msTicks, msTicks
 1798 0006 80B4     		push	{r7}	@
 1799              		.cfi_def_cfa_offset 24
 1800              		.cfi_offset 8, -24
 109:../../lib/lpc11cx4-library/evt_lib/src/ltc6804.c **** 	if (res != LTC6804_PASS) return false;
 1801              		.loc 1 109 0
 1802 0008 0222     		movs	r2, #2	@,
 1803              	.LVL188:
 108:../../lib/lpc11cx4-library/evt_lib/src/ltc6804.c **** 	LTC6804_STATUS_T res = _read(config, state, RDCFG, msTicks);
 1804              		.loc 1 108 0
 1805 000a 0400     		movs	r4, r0	@ config, config
 1806 000c 0E00     		movs	r6, r1	@ state, state
 109:../../lib/lpc11cx4-library/evt_lib/src/ltc6804.c **** 	if (res != LTC6804_PASS) return false;
 1807              		.loc 1 109 0
 1808 000e FFF7FEFF 		bl	_read	@
 1809              	.LVL189:
 110:../../lib/lpc11cx4-library/evt_lib/src/ltc6804.c **** 
ARM GAS  /var/folders/z0/6xlwn_996xz3mwq1cgzkbq4r0000gp/T//ccvmbCXw.s 			page 57


 1810              		.loc 1 110 0
 1811 0012 0023     		movs	r3, #0	@ D.8032,
 1812 0014 0128     		cmp	r0, #1	@ tmp135,
 1813 0016 03D0     		beq	.L112	@,
 1814              	.LVL190:
 1815              	.L100:
 122:../../lib/lpc11cx4-library/evt_lib/src/ltc6804.c **** 
 1816              		.loc 1 122 0
 1817 0018 1800     		movs	r0, r3	@, D.8032
 1818              		@ sp needed	@
 1819 001a 04BC     		pop	{r2}
 1820 001c 9046     		mov	r8, r2
 1821 001e F0BD     		pop	{r4, r5, r6, r7, pc}
 1822              	.LVL191:
 1823              	.L112:
 113:../../lib/lpc11cx4-library/evt_lib/src/ltc6804.c **** 		uint8_t *rx_ptr = state->rx_buf+4+8*i;
 1824              		.loc 1 113 0 discriminator 1
 1825 0020 A47A     		ldrb	r4, [r4, #10]	@ D.8036,
 1826              	.LVL192:
 1827 0022 002C     		cmp	r4, #0	@ D.8036,
 1828 0024 2BD0     		beq	.L104	@,
 1829              	.LBB150:
 114:../../lib/lpc11cx4-library/evt_lib/src/ltc6804.c **** 		if (rx_ptr[1] != state->cfg[1]) return false;
 1830              		.loc 1 114 0
 1831 0026 B168     		ldr	r1, [r6, #8]	@ D.8035, state_5(D)->rx_buf
 115:../../lib/lpc11cx4-library/evt_lib/src/ltc6804.c **** 		if (rx_ptr[2] != state->cfg[2]) return false;
 1832              		.loc 1 115 0
 1833 0028 7069     		ldr	r0, [r6, #20]	@ D.8035, state_5(D)->cfg
 1834              	.LVL193:
 1835 002a 4D79     		ldrb	r5, [r1, #5]	@ D.8034, MEM[(uint8_t *)_29 + 5B]
 1836 002c 4678     		ldrb	r6, [r0, #1]	@ MEM[(uint8_t *)_38 + 1B], MEM[(uint8_t *)_38 + 1B]
 1837              	.LVL194:
 114:../../lib/lpc11cx4-library/evt_lib/src/ltc6804.c **** 		if (rx_ptr[1] != state->cfg[1]) return false;
 1838              		.loc 1 114 0
 1839 002e 0A1D     		adds	r2, r1, #4	@ rx_ptr, D.8035,
 1840              	.LVL195:
 115:../../lib/lpc11cx4-library/evt_lib/src/ltc6804.c **** 		if (rx_ptr[2] != state->cfg[2]) return false;
 1841              		.loc 1 115 0
 1842 0030 AE42     		cmp	r6, r5	@ MEM[(uint8_t *)_38 + 1B], D.8034
 1843 0032 F1D1     		bne	.L100	@,
 116:../../lib/lpc11cx4-library/evt_lib/src/ltc6804.c **** 		if (rx_ptr[3] != state->cfg[3]) return false;
 1844              		.loc 1 116 0
 1845 0034 8E79     		ldrb	r6, [r1, #6]	@ D.8034, MEM[(uint8_t *)_29 + 6B]
 1846 0036 8778     		ldrb	r7, [r0, #2]	@ MEM[(uint8_t *)_38 + 2B], MEM[(uint8_t *)_38 + 2B]
 1847 0038 B742     		cmp	r7, r6	@ MEM[(uint8_t *)_38 + 2B], D.8034
 1848 003a EDD1     		bne	.L100	@,
 117:../../lib/lpc11cx4-library/evt_lib/src/ltc6804.c **** 		if ((rx_ptr[5] & 0xF0) != (state->cfg[5] & 0xF0)) return false;
 1849              		.loc 1 117 0
 1850 003c CF79     		ldrb	r7, [r1, #7]	@ D.8034, MEM[(uint8_t *)_29 + 7B]
 1851 003e C178     		ldrb	r1, [r0, #3]	@ MEM[(uint8_t *)_38 + 3B], MEM[(uint8_t *)_38 + 3B]
 1852 0040 B942     		cmp	r1, r7	@ MEM[(uint8_t *)_38 + 3B], D.8034
 1853 0042 E9D1     		bne	.L100	@,
 1854 0044 4379     		ldrb	r3, [r0, #5]	@ D.8033, MEM[(uint8_t *)_38 + 5B]
 1855 0046 0021     		movs	r1, #0	@ i,
 1856 0048 9C46     		mov	ip, r3	@ D.8033, D.8033
 118:../../lib/lpc11cx4-library/evt_lib/src/ltc6804.c **** 	}
 1857              		.loc 1 118 0
ARM GAS  /var/folders/z0/6xlwn_996xz3mwq1cgzkbq4r0000gp/T//ccvmbCXw.s 			page 58


 1858 004a 0F23     		movs	r3, #15	@ tmp152,
 1859 004c 9846     		mov	r8, r3	@ tmp152, tmp152
 1860 004e 0CE0     		b	.L101	@
 1861              	.LVL196:
 1862              	.L114:
 1863              	.LBE150:
 113:../../lib/lpc11cx4-library/evt_lib/src/ltc6804.c **** 		uint8_t *rx_ptr = state->rx_buf+4+8*i;
 1864              		.loc 1 113 0 discriminator 2
 1865 0050 0131     		adds	r1, r1, #1	@ i,
 1866              	.LVL197:
 1867 0052 A142     		cmp	r1, r4	@ i, D.8036
 1868 0054 11DA     		bge	.L113	@,
 1869              	.LBB151:
 114:../../lib/lpc11cx4-library/evt_lib/src/ltc6804.c **** 		if (rx_ptr[1] != state->cfg[1]) return false;
 1870              		.loc 1 114 0
 1871 0056 0832     		adds	r2, r2, #8	@ rx_ptr,
 1872              	.LVL198:
 115:../../lib/lpc11cx4-library/evt_lib/src/ltc6804.c **** 		if (rx_ptr[2] != state->cfg[2]) return false;
 1873              		.loc 1 115 0
 1874 0058 5378     		ldrb	r3, [r2, #1]	@ MEM[base: rx_ptr_15, offset: 1B], MEM[base: rx_ptr_15, offset: 1B]
 1875 005a AB42     		cmp	r3, r5	@ MEM[base: rx_ptr_15, offset: 1B], D.8034
 1876 005c 0BD1     		bne	.L111	@,
 116:../../lib/lpc11cx4-library/evt_lib/src/ltc6804.c **** 		if (rx_ptr[3] != state->cfg[3]) return false;
 1877              		.loc 1 116 0
 1878 005e 9378     		ldrb	r3, [r2, #2]	@ MEM[base: rx_ptr_15, offset: 2B], MEM[base: rx_ptr_15, offset: 2B]
 1879 0060 B342     		cmp	r3, r6	@ MEM[base: rx_ptr_15, offset: 2B], D.8034
 1880 0062 08D1     		bne	.L111	@,
 117:../../lib/lpc11cx4-library/evt_lib/src/ltc6804.c **** 		if ((rx_ptr[5] & 0xF0) != (state->cfg[5] & 0xF0)) return false;
 1881              		.loc 1 117 0
 1882 0064 D378     		ldrb	r3, [r2, #3]	@ MEM[base: rx_ptr_15, offset: 3B], MEM[base: rx_ptr_15, offset: 3B]
 1883 0066 BB42     		cmp	r3, r7	@ MEM[base: rx_ptr_15, offset: 3B], D.8034
 1884 0068 05D1     		bne	.L111	@,
 1885              	.LVL199:
 1886              	.L101:
 118:../../lib/lpc11cx4-library/evt_lib/src/ltc6804.c **** 	}
 1887              		.loc 1 118 0
 1888 006a 6046     		mov	r0, ip	@ D.8033, D.8033
 1889 006c 5379     		ldrb	r3, [r2, #5]	@ MEM[base: rx_ptr_45, offset: 5B], MEM[base: rx_ptr_45, offset: 5B]
 1890 006e 4340     		eors	r3, r0	@ tmp145, D.8033
 1891 0070 4046     		mov	r0, r8	@ tmp152, tmp152
 1892 0072 8343     		bics	r3, r0	@ tmp150, tmp152
 1893 0074 ECD0     		beq	.L114	@,
 1894              	.L111:
 1895              	.LBE151:
 110:../../lib/lpc11cx4-library/evt_lib/src/ltc6804.c **** 
 1896              		.loc 1 110 0
 1897 0076 0023     		movs	r3, #0	@ D.8032,
 1898 0078 CEE7     		b	.L100	@
 1899              	.L113:
 121:../../lib/lpc11cx4-library/evt_lib/src/ltc6804.c **** }
 1900              		.loc 1 121 0
 1901 007a 0133     		adds	r3, r3, #1	@ D.8032,
 1902 007c CCE7     		b	.L100	@
 1903              	.LVL200:
 1904              	.L104:
 1905 007e 0123     		movs	r3, #1	@ D.8032,
 1906 0080 CAE7     		b	.L100	@
ARM GAS  /var/folders/z0/6xlwn_996xz3mwq1cgzkbq4r0000gp/T//ccvmbCXw.s 			page 59


 1907              		.cfi_endproc
 1908              	.LFE201:
 1909              		.size	LTC6804_VerifyCFG, .-LTC6804_VerifyCFG
 1910 0082 C046     		.section	.text.LTC6804_GetCellVoltages,"ax",%progbits
 1911              		.align	2
 1912              		.global	LTC6804_GetCellVoltages
 1913              		.code	16
 1914              		.thumb_func
 1915              		.type	LTC6804_GetCellVoltages, %function
 1916              	LTC6804_GetCellVoltages:
 1917              	.LFB206:
 299:../../lib/lpc11cx4-library/evt_lib/src/ltc6804.c **** 	if (state->adc_status == LTC6804_ADC_NONE) {
 1918              		.loc 1 299 0
 1919              		.cfi_startproc
 1920              		@ args = 0, pretend = 0, frame = 24
 1921              		@ frame_needed = 0, uses_anonymous_args = 0
 1922              	.LVL201:
 1923 0000 F0B5     		push	{r4, r5, r6, r7, lr}	@
 1924              		.cfi_def_cfa_offset 20
 1925              		.cfi_offset 4, -20
 1926              		.cfi_offset 5, -16
 1927              		.cfi_offset 6, -12
 1928              		.cfi_offset 7, -8
 1929              		.cfi_offset 14, -4
 1930 0002 5646     		mov	r6, r10	@,
 1931 0004 5F46     		mov	r7, fp	@,
 1932 0006 4D46     		mov	r5, r9	@,
 1933 0008 4446     		mov	r4, r8	@,
 1934 000a F0B4     		push	{r4, r5, r6, r7}	@
 1935              		.cfi_def_cfa_offset 36
 1936              		.cfi_offset 8, -36
 1937              		.cfi_offset 9, -32
 1938              		.cfi_offset 10, -28
 1939              		.cfi_offset 11, -24
 1940 000c 87B0     		sub	sp, sp, #28	@,,
 1941              		.cfi_def_cfa_offset 64
 299:../../lib/lpc11cx4-library/evt_lib/src/ltc6804.c **** 	if (state->adc_status == LTC6804_ADC_NONE) {
 1942              		.loc 1 299 0
 1943 000e 0392     		str	r2, [sp, #12]	@ res, %sfp
 300:../../lib/lpc11cx4-library/evt_lib/src/ltc6804.c **** 		state->adc_status = LTC6804_ADC_GCV;
 1944              		.loc 1 300 0
 1945 0010 3022     		movs	r2, #48	@ tmp335,
 1946              	.LVL202:
 299:../../lib/lpc11cx4-library/evt_lib/src/ltc6804.c **** 	if (state->adc_status == LTC6804_ADC_NONE) {
 1947              		.loc 1 299 0
 1948 0012 0290     		str	r0, [sp, #8]	@ config, %sfp
 1949 0014 0193     		str	r3, [sp, #4]	@ msTicks, %sfp
 300:../../lib/lpc11cx4-library/evt_lib/src/ltc6804.c **** 		state->adc_status = LTC6804_ADC_GCV;
 1950              		.loc 1 300 0
 1951 0016 8B5C     		ldrb	r3, [r1, r2]	@ D.8113,
 1952              	.LVL203:
 299:../../lib/lpc11cx4-library/evt_lib/src/ltc6804.c **** 	if (state->adc_status == LTC6804_ADC_NONE) {
 1953              		.loc 1 299 0
 1954 0018 0E00     		movs	r6, r1	@ state, state
 300:../../lib/lpc11cx4-library/evt_lib/src/ltc6804.c **** 		state->adc_status = LTC6804_ADC_GCV;
 1955              		.loc 1 300 0
 1956 001a 002B     		cmp	r3, #0	@ D.8113,
ARM GAS  /var/folders/z0/6xlwn_996xz3mwq1cgzkbq4r0000gp/T//ccvmbCXw.s 			page 60


 1957 001c 16D1     		bne	.L116	@,
 301:../../lib/lpc11cx4-library/evt_lib/src/ltc6804.c **** 	} else if (state->adc_status != LTC6804_ADC_GCV) {
 1958              		.loc 1 301 0
 1959 001e 0133     		adds	r3, r3, #1	@ tmp337,
 1960 0020 8B54     		strb	r3, [r1, r2]	@ tmp337, state_49(D)->adc_status
 1961              	.L117:
 306:../../lib/lpc11cx4-library/evt_lib/src/ltc6804.c **** 		_wake(config, state, msTicks, false);
 1962              		.loc 1 306 0
 1963 0022 F268     		ldr	r2, [r6, #12]	@ tmp539, state_49(D)->last_message
 1964 0024 019B     		ldr	r3, [sp, #4]	@ msTicks, %sfp
 1965 0026 9B1A     		subs	r3, r3, r2	@ D.8114, msTicks, tmp539
 1966 0028 E122     		movs	r2, #225	@ tmp341,
 1967 002a D200     		lsls	r2, r2, #3	@ tmp341, tmp341,
 1968 002c 9342     		cmp	r3, r2	@ D.8114, tmp341
 1969 002e 00D9     		bls	.LCB1990	@
 1970 0030 CAE1     		b	.L194	@long jump	@
 1971              	.LCB1990:
 309:../../lib/lpc11cx4-library/evt_lib/src/ltc6804.c **** 		return LTC6804_WAITING_REFUP;
 1972              		.loc 1 309 0
 1973 0032 019B     		ldr	r3, [sp, #4]	@ msTicks, %sfp
 1974 0034 726A     		ldr	r2, [r6, #36]	@ tmp541, state_49(D)->last_sleep_wake
 310:../../lib/lpc11cx4-library/evt_lib/src/ltc6804.c **** 	}
 1975              		.loc 1 310 0
 1976 0036 0420     		movs	r0, #4	@ D.8111,
 1977              	.LVL204:
 309:../../lib/lpc11cx4-library/evt_lib/src/ltc6804.c **** 		return LTC6804_WAITING_REFUP;
 1978              		.loc 1 309 0
 1979 0038 9B1A     		subs	r3, r3, r2	@ D.8114, msTicks, tmp541
 1980 003a 052B     		cmp	r3, #5	@ D.8114,
 1981 003c 0AD8     		bhi	.L195	@,
 1982              	.LVL205:
 1983              	.L118:
 409:../../lib/lpc11cx4-library/evt_lib/src/ltc6804.c **** 
 1984              		.loc 1 409 0
 1985 003e 07B0     		add	sp, sp, #28	@,,
 1986              		@ sp needed	@
 1987 0040 3CBC     		pop	{r2, r3, r4, r5}
 1988 0042 9046     		mov	r8, r2
 1989 0044 9946     		mov	r9, r3
 1990 0046 A246     		mov	r10, r4
 1991 0048 AB46     		mov	fp, r5
 1992 004a F0BD     		pop	{r4, r5, r6, r7, pc}
 1993              	.LVL206:
 1994              	.L116:
 302:../../lib/lpc11cx4-library/evt_lib/src/ltc6804.c **** 		return LTC6804_WAITING;
 1995              		.loc 1 302 0
 1996 004c 012B     		cmp	r3, #1	@ D.8113,
 1997 004e E8D0     		beq	.L117	@,
 1998              	.LVL207:
 1999              	.L193:
 308:../../lib/lpc11cx4-library/evt_lib/src/ltc6804.c **** 	} else if (!_IS_REFUP(state, msTicks)) {
 2000              		.loc 1 308 0
 2001 0050 0020     		movs	r0, #0	@ D.8111,
 2002 0052 F4E7     		b	.L118	@
 2003              	.L195:
 319:../../lib/lpc11cx4-library/evt_lib/src/ltc6804.c **** 		state->waiting = true;
 2004              		.loc 1 319 0
ARM GAS  /var/folders/z0/6xlwn_996xz3mwq1cgzkbq4r0000gp/T//ccvmbCXw.s 			page 61


 2005 0054 337E     		ldrb	r3, [r6, #24]	@ tmp344,
 2006 0056 002B     		cmp	r3, #0	@ tmp344,
 2007 0058 00D1     		bne	.LCB2034	@
 2008 005a C4E1     		b	.L196	@long jump	@
 2009              	.LCB2034:
 326:../../lib/lpc11cx4-library/evt_lib/src/ltc6804.c **** 			state->waiting = false;
 2010              		.loc 1 326 0
 2011 005c 326A     		ldr	r2, [r6, #32]	@ tmp545, state_49(D)->flight_time
 2012 005e 019B     		ldr	r3, [sp, #4]	@ msTicks, %sfp
 2013 0060 9B1A     		subs	r3, r3, r2	@ D.8114, msTicks, tmp545
 2014 0062 F269     		ldr	r2, [r6, #28]	@ tmp546, state_49(D)->wait_time
 2015 0064 9342     		cmp	r3, r2	@ D.8114, tmp546
 2016 0066 F3D9     		bls	.L193	@,
 2017              	.LBB152:
 327:../../lib/lpc11cx4-library/evt_lib/src/ltc6804.c **** 			int i, j;
 2018              		.loc 1 327 0
 2019 0068 0023     		movs	r3, #0	@ tmp356,
 2020 006a 3376     		strb	r3, [r6, #24]	@ tmp356, state_49(D)->waiting
 329:../../lib/lpc11cx4-library/evt_lib/src/ltc6804.c **** 			uint32_t min = UINT32_MAX;
 2021              		.loc 1 329 0
 2022 006c 039B     		ldr	r3, [sp, #12]	@ res, %sfp
 337:../../lib/lpc11cx4-library/evt_lib/src/ltc6804.c **** 			if (r == LTC6804_PEC_ERROR) return r;
 2023              		.loc 1 337 0
 2024 006e 0422     		movs	r2, #4	@,
 329:../../lib/lpc11cx4-library/evt_lib/src/ltc6804.c **** 			uint32_t min = UINT32_MAX;
 2025              		.loc 1 329 0
 2026 0070 1B68     		ldr	r3, [r3]	@ vol_ptr, res_74(D)->cell_voltages_mV
 337:../../lib/lpc11cx4-library/evt_lib/src/ltc6804.c **** 			if (r == LTC6804_PEC_ERROR) return r;
 2027              		.loc 1 337 0
 2028 0072 3100     		movs	r1, r6	@, state
 2029              	.LVL208:
 329:../../lib/lpc11cx4-library/evt_lib/src/ltc6804.c **** 			uint32_t min = UINT32_MAX;
 2030              		.loc 1 329 0
 2031 0074 9946     		mov	r9, r3	@ vol_ptr, vol_ptr
 2032              	.LVL209:
 337:../../lib/lpc11cx4-library/evt_lib/src/ltc6804.c **** 			if (r == LTC6804_PEC_ERROR) return r;
 2033              		.loc 1 337 0
 2034 0076 0298     		ldr	r0, [sp, #8]	@, %sfp
 2035 0078 019B     		ldr	r3, [sp, #4]	@, %sfp
 2036              	.LVL210:
 2037 007a FFF7FEFF 		bl	_read	@
 2038              	.LVL211:
 338:../../lib/lpc11cx4-library/evt_lib/src/ltc6804.c **** 			for (i = 0; i < config->num_modules; i++) {
 2039              		.loc 1 338 0
 2040 007e 0328     		cmp	r0, #3	@ tmp358,
 2041 0080 00D1     		bne	.LCB2063	@
 2042 0082 A9E1     		b	.L129	@long jump	@
 2043              	.LCB2063:
 2044              	.LVL212:
 339:../../lib/lpc11cx4-library/evt_lib/src/ltc6804.c **** 				uint8_t *rx_ptr = state->rx_buf + 4 + 8 * i;
 2045              		.loc 1 339 0 discriminator 1
 2046 0084 029B     		ldr	r3, [sp, #8]	@ config, %sfp
 2047 0086 9A7A     		ldrb	r2, [r3, #10]	@ D.8117,
 2048 0088 002A     		cmp	r2, #0	@ D.8117,
 2049 008a 00D1     		bne	.LCB2072	@
 2050 008c C2E1     		b	.L149	@long jump	@
 2051              	.LCB2072:
ARM GAS  /var/folders/z0/6xlwn_996xz3mwq1cgzkbq4r0000gp/T//ccvmbCXw.s 			page 62


 2052 008e DB68     		ldr	r3, [r3, #12]	@ D.8122, config_56(D)->module_cell_count
 339:../../lib/lpc11cx4-library/evt_lib/src/ltc6804.c **** 				uint8_t *rx_ptr = state->rx_buf + 4 + 8 * i;
 2053              		.loc 1 339 0 is_stmt 0
 2054 0090 0025     		movs	r5, #0	@ max,
 2055 0092 9A46     		mov	r10, r3	@ D.8122, D.8122
 2056 0094 B368     		ldr	r3, [r6, #8]	@ tmp554, state_49(D)->rx_buf
 2057 0096 0027     		movs	r7, #0	@ i,
 2058 0098 0433     		adds	r3, r3, #4	@ ivtmp.189,
 2059 009a 9B46     		mov	fp, r3	@ ivtmp.189, ivtmp.189
 2060 009c 0123     		movs	r3, #1	@ min,
 2061 009e DC4C     		ldr	r4, .L199	@ failed_read,
 2062 00a0 5B42     		rsbs	r3, r3, #0	@ min, min
 2063 00a2 2900     		movs	r1, r5	@ max, max
 2064 00a4 9846     		mov	r8, r3	@ min, min
 2065 00a6 2500     		movs	r5, r4	@ failed_read, failed_read
 2066 00a8 3C00     		movs	r4, r7	@ i, i
 2067 00aa 0496     		str	r6, [sp, #16]	@ state, %sfp
 2068              	.LVL213:
 2069              	.L128:
 2070              	.LBB153:
 341:../../lib/lpc11cx4-library/evt_lib/src/ltc6804.c **** 					uint16_t vol = (rx_ptr[2 * j + 1] << 8 | rx_ptr[2 * j]);
 2071              		.loc 1 341 0 is_stmt 1
 2072 00ac 5346     		mov	r3, r10	@ D.8122, D.8122
 2073 00ae 1B5D     		ldrb	r3, [r3, r4]	@ D.8120, MEM[base: _679, index: _93, offset: 0B]
 2074 00b0 002B     		cmp	r3, #0	@ D.8120,
 2075 00b2 36D0     		beq	.L124	@,
 341:../../lib/lpc11cx4-library/evt_lib/src/ltc6804.c **** 					uint16_t vol = (rx_ptr[2 * j + 1] << 8 | rx_ptr[2 * j]);
 2076              		.loc 1 341 0 is_stmt 0 discriminator 4
 2077 00b4 A446     		mov	ip, r4	@ i, i
 2078 00b6 4F46     		mov	r7, r9	@ ivtmp.184, vol_ptr
 2079 00b8 5E46     		mov	r6, fp	@ ivtmp.183, ivtmp.189
 2080 00ba 0020     		movs	r0, #0	@ j,
 2081 00bc 4446     		mov	r4, r8	@ min, min
 2082              	.LVL214:
 2083 00be 0095     		str	r5, [sp]	@ failed_read, %sfp
 2084              	.LVL215:
 2085              	.L127:
 2086              	.LBB154:
 342:../../lib/lpc11cx4-library/evt_lib/src/ltc6804.c **** 					failed_read &= vol;
 2087              		.loc 1 342 0 is_stmt 1 discriminator 4
 2088 00c0 7378     		ldrb	r3, [r6, #1]	@ D.8117, MEM[base: _139, offset: 1B]
 2089 00c2 3278     		ldrb	r2, [r6]	@ MEM[base: _139, offset: 0B], MEM[base: _139, offset: 0B]
 2090 00c4 1B02     		lsls	r3, r3, #8	@ D.8117, D.8117,
 2091 00c6 1343     		orrs	r3, r2	@ vol, MEM[base: _139, offset: 0B]
 2092              	.LVL216:
 343:../../lib/lpc11cx4-library/evt_lib/src/ltc6804.c **** 					vol_ptr[j] = divu10(vol);
 2093              		.loc 1 343 0 discriminator 4
 2094 00c8 009A     		ldr	r2, [sp]	@ failed_read, %sfp
 2095 00ca 1A40     		ands	r2, r3	@ failed_read, vol
 2096 00cc 0092     		str	r2, [sp]	@ failed_read, %sfp
 2097              	.LVL217:
 2098              	.LBB155:
 2099              	.LBB156:
  35:../../lib/lpc11cx4-library/evt_lib/src/ltc6804.c ****  q = q + (q >> 4);
 2100              		.loc 1 35 0 discriminator 4
 2101 00ce 9A08     		lsrs	r2, r3, #2	@ D.8114, vol,
 2102 00d0 9046     		mov	r8, r2	@ D.8114, D.8114
ARM GAS  /var/folders/z0/6xlwn_996xz3mwq1cgzkbq4r0000gp/T//ccvmbCXw.s 			page 63


 2103 00d2 5A08     		lsrs	r2, r3, #1	@ D.8114, vol,
 2104 00d4 4244     		add	r2, r2, r8	@ q, D.8114
 2105              	.LVL218:
  36:../../lib/lpc11cx4-library/evt_lib/src/ltc6804.c ****  q = q + (q >> 8);
 2106              		.loc 1 36 0 discriminator 4
 2107 00d6 1509     		lsrs	r5, r2, #4	@ D.8114, q,
 2108 00d8 A846     		mov	r8, r5	@ D.8114, D.8114
 2109 00da 4244     		add	r2, r2, r8	@ q, D.8114
 2110              	.LVL219:
  37:../../lib/lpc11cx4-library/evt_lib/src/ltc6804.c ****  q = q + (q >> 16);
 2111              		.loc 1 37 0 discriminator 4
 2112 00dc 150A     		lsrs	r5, r2, #8	@ D.8114, q,
 2113 00de A846     		mov	r8, r5	@ D.8114, D.8114
 2114 00e0 4244     		add	r2, r2, r8	@ q, D.8114
 2115              	.LVL220:
  39:../../lib/lpc11cx4-library/evt_lib/src/ltc6804.c ****  r = n - q*10;
 2116              		.loc 1 39 0 discriminator 4
 2117 00e2 D208     		lsrs	r2, r2, #3	@ q, q,
 2118              	.LVL221:
  41:../../lib/lpc11cx4-library/evt_lib/src/ltc6804.c **** }
 2119              		.loc 1 41 0 discriminator 4
 2120 00e4 9500     		lsls	r5, r2, #2	@ tmp373, q,
 2121 00e6 A846     		mov	r8, r5	@ tmp373, tmp373
 2122 00e8 9044     		add	r8, r8, r2	@ D.8114, q
 2123 00ea 4546     		mov	r5, r8	@ D.8114, D.8114
 2124 00ec 0633     		adds	r3, r3, #6	@ D.8112,
 2125              	.LVL222:
 2126 00ee 6D00     		lsls	r5, r5, #1	@ tmp375, D.8114,
 2127 00f0 5B1B     		subs	r3, r3, r5	@ D.8114, D.8112, tmp375
 2128              	.LVL223:
 2129 00f2 1B09     		lsrs	r3, r3, #4	@ D.8114, D.8114,
 2130 00f4 9B18     		adds	r3, r3, r2	@ D.8112, D.8114, q
 2131              	.LVL224:
 2132              	.LBE156:
 2133              	.LBE155:
 344:../../lib/lpc11cx4-library/evt_lib/src/ltc6804.c **** 					max = (vol_ptr[j] > max) ? vol_ptr[j] : max;
 2134              		.loc 1 344 0 discriminator 4
 2135 00f6 3B60     		str	r3, [r7]	@ D.8112, MEM[base: _603, offset: 0B]
 2136              	.LVL225:
 345:../../lib/lpc11cx4-library/evt_lib/src/ltc6804.c **** 					min = (vol_ptr[j] < min) ? vol_ptr[j] : min;
 2137              		.loc 1 345 0 discriminator 4
 2138 00f8 9942     		cmp	r1, r3	@ max, D.8112
 2139 00fa 00D2     		bcs	.L125	@,
 2140 00fc 1900     		movs	r1, r3	@ max, D.8112
 2141              	.LVL226:
 2142              	.L125:
 346:../../lib/lpc11cx4-library/evt_lib/src/ltc6804.c **** 				}
 2143              		.loc 1 346 0 discriminator 4
 2144 00fe 9C42     		cmp	r4, r3	@ min, D.8112
 2145 0100 00D9     		bls	.L126	@,
 2146 0102 1C00     		movs	r4, r3	@ min, D.8112
 2147              	.LVL227:
 2148              	.L126:
 2149              	.LBE154:
 341:../../lib/lpc11cx4-library/evt_lib/src/ltc6804.c **** 					uint16_t vol = (rx_ptr[2 * j + 1] << 8 | rx_ptr[2 * j]);
 2150              		.loc 1 341 0 discriminator 4
 2151 0104 5346     		mov	r3, r10	@ D.8122, D.8122
ARM GAS  /var/folders/z0/6xlwn_996xz3mwq1cgzkbq4r0000gp/T//ccvmbCXw.s 			page 64


 2152 0106 6246     		mov	r2, ip	@ i, i
 2153 0108 9B5C     		ldrb	r3, [r3, r2]	@ D.8120, MEM[base: _679, index: _93, offset: 0B]
 2154 010a 0130     		adds	r0, r0, #1	@ j,
 2155              	.LVL228:
 2156 010c 8342     		cmp	r3, r0	@ D.8120, j
 2157 010e 03DD     		ble	.L191	@,
 2158              	.LVL229:
 2159 0110 0236     		adds	r6, r6, #2	@ ivtmp.183,
 2160 0112 0437     		adds	r7, r7, #4	@ ivtmp.184,
 341:../../lib/lpc11cx4-library/evt_lib/src/ltc6804.c **** 					uint16_t vol = (rx_ptr[2 * j + 1] << 8 | rx_ptr[2 * j]);
 2161              		.loc 1 341 0 is_stmt 0 discriminator 3
 2162 0114 0328     		cmp	r0, #3	@ j,
 2163 0116 D3D1     		bne	.L127	@,
 2164              	.L191:
 2165 0118 A046     		mov	r8, r4	@ min, min
 2166 011a 6446     		mov	r4, ip	@ i, i
 2167              	.LVL230:
 2168 011c 029A     		ldr	r2, [sp, #8]	@ config, %sfp
 2169              	.LVL231:
 2170 011e 009D     		ldr	r5, [sp]	@ failed_read, %sfp
 2171 0120 927A     		ldrb	r2, [r2, #10]	@ D.8117,
 2172              	.LVL232:
 2173              	.L124:
 348:../../lib/lpc11cx4-library/evt_lib/src/ltc6804.c **** 			}
 2174              		.loc 1 348 0 is_stmt 1 discriminator 2
 2175 0122 9B00     		lsls	r3, r3, #2	@ D.8123, D.8120,
 2176 0124 9944     		add	r9, r9, r3	@ vol_ptr, D.8123
 2177              	.LVL233:
 2178 0126 0823     		movs	r3, #8	@ tmp569,
 2179 0128 9C46     		mov	ip, r3	@ tmp569, tmp569
 2180              	.LBE153:
 339:../../lib/lpc11cx4-library/evt_lib/src/ltc6804.c **** 				uint8_t *rx_ptr = state->rx_buf + 4 + 8 * i;
 2181              		.loc 1 339 0 discriminator 2
 2182 012a 0134     		adds	r4, r4, #1	@ i,
 2183              	.LVL234:
 2184 012c E344     		add	fp, fp, ip	@ ivtmp.189, tmp569
 2185              	.LVL235:
 2186 012e A242     		cmp	r2, r4	@ D.8117, i
 2187 0130 BCDC     		bgt	.L128	@,
 2188 0132 4346     		mov	r3, r8	@ min, min
 2189 0134 2C00     		movs	r4, r5	@ failed_read, failed_read
 2190              	.LVL236:
 2191 0136 0D00     		movs	r5, r1	@ max, max
 2192              	.LVL237:
 2193 0138 049E     		ldr	r6, [sp, #16]	@ state, %sfp
 2194 013a 0093     		str	r3, [sp]	@ min, %sfp
 2195              	.LVL238:
 2196              	.L123:
 351:../../lib/lpc11cx4-library/evt_lib/src/ltc6804.c **** 			if (r == LTC6804_PEC_ERROR) return r;
 2197              		.loc 1 351 0
 2198 013c 029F     		ldr	r7, [sp, #8]	@ config, %sfp
 2199 013e 019B     		ldr	r3, [sp, #4]	@, %sfp
 2200 0140 0622     		movs	r2, #6	@,
 2201 0142 3100     		movs	r1, r6	@, state
 2202 0144 3800     		movs	r0, r7	@, config
 2203 0146 FFF7FEFF 		bl	_read	@
 2204              	.LVL239:
ARM GAS  /var/folders/z0/6xlwn_996xz3mwq1cgzkbq4r0000gp/T//ccvmbCXw.s 			page 65


 352:../../lib/lpc11cx4-library/evt_lib/src/ltc6804.c **** 			vol_ptr = res->cell_voltages_mV;
 2205              		.loc 1 352 0
 2206 014a 0328     		cmp	r0, #3	@ tmp380,
 2207 014c 00D1     		bne	.LCB2283	@
 2208 014e 43E1     		b	.L129	@long jump	@
 2209              	.LCB2283:
 353:../../lib/lpc11cx4-library/evt_lib/src/ltc6804.c **** 			for (i = 0; i < config->num_modules; i++) {
 2210              		.loc 1 353 0
 2211 0150 039A     		ldr	r2, [sp, #12]	@ res, %sfp
 2212 0152 1268     		ldr	r2, [r2]	@ vol_ptr, res_74(D)->cell_voltages_mV
 2213 0154 9246     		mov	r10, r2	@ vol_ptr, vol_ptr
 2214              	.LVL240:
 354:../../lib/lpc11cx4-library/evt_lib/src/ltc6804.c **** 				uint8_t *rx_ptr = state->rx_buf + 4 + 8 * i;
 2215              		.loc 1 354 0
 2216 0156 BA7A     		ldrb	r2, [r7, #10]	@ D.8117,
 2217              	.LVL241:
 2218 0158 002A     		cmp	r2, #0	@ D.8117,
 2219 015a 58D0     		beq	.L130	@,
 2220 015c FB68     		ldr	r3, [r7, #12]	@ D.8122, config_56(D)->module_cell_count
 2221 015e 0495     		str	r5, [sp, #16]	@ max, %sfp
 2222 0160 9946     		mov	r9, r3	@ D.8122, D.8122
 2223 0162 B368     		ldr	r3, [r6, #8]	@ tmp579, state_49(D)->rx_buf
 2224 0164 2500     		movs	r5, r4	@ failed_read, failed_read
 2225              	.LVL242:
 2226 0166 0433     		adds	r3, r3, #4	@ ivtmp.173,
 2227 0168 9B46     		mov	fp, r3	@ ivtmp.173, ivtmp.173
 2228 016a 0023     		movs	r3, #0	@ i,
 2229 016c 1C00     		movs	r4, r3	@ i, i
 2230              	.LVL243:
 2231 016e 009B     		ldr	r3, [sp]	@ min, %sfp
 2232 0170 0596     		str	r6, [sp, #20]	@ state, %sfp
 2233 0172 9846     		mov	r8, r3	@ min, min
 2234              	.LVL244:
 2235              	.L135:
 2236              	.LBB157:
 356:../../lib/lpc11cx4-library/evt_lib/src/ltc6804.c **** 					uint16_t vol = (rx_ptr[2 * j + 1] << 8 | rx_ptr[2 * j]);
 2237              		.loc 1 356 0
 2238 0174 4B46     		mov	r3, r9	@ D.8122, D.8122
 2239 0176 1B5D     		ldrb	r3, [r3, r4]	@ D.8120, MEM[base: _663, index: _138, offset: 0B]
 2240 0178 032B     		cmp	r3, #3	@ D.8120,
 2241 017a 3BDD     		ble	.L131	@,
 2242 017c 5746     		mov	r7, r10	@ ivtmp.166, vol_ptr
 356:../../lib/lpc11cx4-library/evt_lib/src/ltc6804.c **** 					uint16_t vol = (rx_ptr[2 * j + 1] << 8 | rx_ptr[2 * j]);
 2243              		.loc 1 356 0 is_stmt 0 discriminator 4
 2244 017e 5846     		mov	r0, fp	@ ivtmp.165, ivtmp.173
 2245 0180 0426     		movs	r6, #4	@ ivtmp.169,
 2246 0182 4146     		mov	r1, r8	@ min, min
 2247 0184 049A     		ldr	r2, [sp, #16]	@ max, %sfp
 2248 0186 0C37     		adds	r7, r7, #12	@ ivtmp.166,
 2249 0188 0094     		str	r4, [sp]	@ i, %sfp
 2250              	.LVL245:
 2251              	.L134:
 2252              	.LBB158:
 357:../../lib/lpc11cx4-library/evt_lib/src/ltc6804.c **** 					failed_read &= vol;
 2253              		.loc 1 357 0 is_stmt 1 discriminator 4
 2254 018a 4378     		ldrb	r3, [r0, #1]	@ D.8117, MEM[base: _204, offset: 1B]
 2255 018c 0478     		ldrb	r4, [r0]	@ MEM[base: _204, offset: 0B], MEM[base: _204, offset: 0B]
ARM GAS  /var/folders/z0/6xlwn_996xz3mwq1cgzkbq4r0000gp/T//ccvmbCXw.s 			page 66


 2256 018e 1B02     		lsls	r3, r3, #8	@ D.8117, D.8117,
 2257 0190 2343     		orrs	r3, r4	@ vol, MEM[base: _204, offset: 0B]
 2258              	.LVL246:
 2259              	.LBB159:
 2260              	.LBB160:
  35:../../lib/lpc11cx4-library/evt_lib/src/ltc6804.c ****  q = q + (q >> 4);
 2261              		.loc 1 35 0 discriminator 4
 2262 0192 5C08     		lsrs	r4, r3, #1	@ D.8114, vol,
 2263 0194 A046     		mov	r8, r4	@ D.8114, D.8114
 2264 0196 9C08     		lsrs	r4, r3, #2	@ D.8114, vol,
 2265 0198 A446     		mov	ip, r4	@ D.8114, D.8114
 2266 019a C444     		add	ip, ip, r8	@ q, D.8114
  36:../../lib/lpc11cx4-library/evt_lib/src/ltc6804.c ****  q = q + (q >> 8);
 2267              		.loc 1 36 0 discriminator 4
 2268 019c 6446     		mov	r4, ip	@ q, q
 2269 019e 2409     		lsrs	r4, r4, #4	@ D.8114, q,
 2270 01a0 A046     		mov	r8, r4	@ D.8114, D.8114
 2271 01a2 C444     		add	ip, ip, r8	@ q, D.8114
  37:../../lib/lpc11cx4-library/evt_lib/src/ltc6804.c ****  q = q + (q >> 16);
 2272              		.loc 1 37 0 discriminator 4
 2273 01a4 6446     		mov	r4, ip	@ q, q
 2274 01a6 240A     		lsrs	r4, r4, #8	@ D.8114, q,
 2275 01a8 A046     		mov	r8, r4	@ D.8114, D.8114
 2276 01aa C444     		add	ip, ip, r8	@ q, D.8114
  39:../../lib/lpc11cx4-library/evt_lib/src/ltc6804.c ****  r = n - q*10;
 2277              		.loc 1 39 0 discriminator 4
 2278 01ac 6446     		mov	r4, ip	@ q, q
 2279 01ae E408     		lsrs	r4, r4, #3	@ q, q,
 2280 01b0 A446     		mov	ip, r4	@ q, q
  41:../../lib/lpc11cx4-library/evt_lib/src/ltc6804.c **** }
 2281              		.loc 1 41 0 discriminator 4
 2282 01b2 A400     		lsls	r4, r4, #2	@ tmp395, q,
 2283 01b4 A046     		mov	r8, r4	@ tmp395, tmp395
 2284 01b6 E044     		add	r8, r8, ip	@ D.8114, q
 2285 01b8 4446     		mov	r4, r8	@ D.8114, D.8114
 2286              	.LBE160:
 2287              	.LBE159:
 358:../../lib/lpc11cx4-library/evt_lib/src/ltc6804.c **** 					vol_ptr[j + 3] = divu10(vol);
 2288              		.loc 1 358 0 discriminator 4
 2289 01ba 1D40     		ands	r5, r3	@ failed_read, vol
 2290              	.LVL247:
 2291              	.LBB162:
 2292              	.LBB161:
  41:../../lib/lpc11cx4-library/evt_lib/src/ltc6804.c **** }
 2293              		.loc 1 41 0 discriminator 4
 2294 01bc 6400     		lsls	r4, r4, #1	@ tmp397, D.8114,
 2295 01be 0633     		adds	r3, r3, #6	@ D.8112,
 2296              	.LVL248:
 2297 01c0 1B1B     		subs	r3, r3, r4	@ D.8114, D.8112, tmp397
 2298              	.LVL249:
 2299 01c2 1B09     		lsrs	r3, r3, #4	@ D.8114, D.8114,
 2300 01c4 6344     		add	r3, r3, ip	@ D.8112, q
 2301              	.LVL250:
 2302              	.LBE161:
 2303              	.LBE162:
 359:../../lib/lpc11cx4-library/evt_lib/src/ltc6804.c **** 					max = (vol_ptr[j + 3] > max) ? vol_ptr[j + 3] : max;
 2304              		.loc 1 359 0 discriminator 4
ARM GAS  /var/folders/z0/6xlwn_996xz3mwq1cgzkbq4r0000gp/T//ccvmbCXw.s 			page 67


 2305 01c6 3B60     		str	r3, [r7]	@ D.8112, MEM[base: _189, offset: 0B]
 2306              	.LVL251:
 360:../../lib/lpc11cx4-library/evt_lib/src/ltc6804.c **** 					min = (vol_ptr[j + 3] < min) ? vol_ptr[j + 3] : min;
 2307              		.loc 1 360 0 discriminator 4
 2308 01c8 9A42     		cmp	r2, r3	@ max, D.8112
 2309 01ca 00D2     		bcs	.L132	@,
 2310 01cc 1A00     		movs	r2, r3	@ max, D.8112
 2311              	.LVL252:
 2312              	.L132:
 361:../../lib/lpc11cx4-library/evt_lib/src/ltc6804.c **** 				} 
 2313              		.loc 1 361 0 discriminator 4
 2314 01ce 9942     		cmp	r1, r3	@ min, D.8112
 2315 01d0 00D9     		bls	.L133	@,
 2316 01d2 1900     		movs	r1, r3	@ min, D.8112
 2317              	.LVL253:
 2318              	.L133:
 2319              	.LBE158:
 356:../../lib/lpc11cx4-library/evt_lib/src/ltc6804.c **** 					uint16_t vol = (rx_ptr[2 * j + 1] << 8 | rx_ptr[2 * j]);
