ARM GAS  /var/folders/z0/6xlwn_996xz3mwq1cgzkbq4r0000gp/T//ccmL70zo.s 			page 1


   1              		.syntax unified
   2              		.cpu cortex-m0
   3              		.fpu softvfp
   4              		.eabi_attribute 20, 1	@ Tag_ABI_FP_denormal
   5              		.eabi_attribute 21, 1	@ Tag_ABI_FP_exceptions
   6              		.eabi_attribute 23, 3	@ Tag_ABI_FP_number_model
   7              		.eabi_attribute 24, 1	@ Tag_ABI_align8_needed
   8              		.eabi_attribute 25, 1	@ Tag_ABI_align8_preserved
   9              		.eabi_attribute 26, 1	@ Tag_ABI_enum_size
  10              		.eabi_attribute 30, 2	@ Tag_ABI_optimization_goals
  11              		.eabi_attribute 34, 0	@ Tag_CPU_unaligned_access
  12              		.eabi_attribute 18, 4	@ Tag_ABI_PCS_wchar_t
  13              		.file	"main.c"
  14              	@ GNU C89 (GNU Tools for ARM Embedded Processors) version 5.4.1 20160919 (release) [ARM/embedded-5-
  15              	@	compiled by GNU C version 4.2.1 (Based on Apple Inc. build 5658) (LLVM build 2336.9.00), GMP vers
  16              	@ GGC heuristics: --param ggc-min-expand=100 --param ggc-min-heapsize=131072
  17              	@ options passed:  -I . -I inc/
  18              	@ -I ../../lib/lpc11cx4-library/lpc_chip_11cxx_lib/inc
  19              	@ -I ../../lib/lpc11cx4-library/evt_lib/inc/ -I ../../lib/CANlib
  20              	@ -imultilib armv6-m
  21              	@ -iprefix /usr/local/Cellar/gcc-arm-none-eabi/20160928/bin/../lib/gcc/arm-none-eabi/5.4.1/
  22              	@ -isysroot /usr/local/Cellar/gcc-arm-none-eabi/20160928/bin/../arm-none-eabi
  23              	@ -MD bin/main.d -MF bin/main.d -MP -MQ bin/main.o -D__USES_INITFINI__
  24              	@ -D UART_BAUD=57600 -D CORE_M0 -D DEBUG_ENABLE -D FSAE_DRIVERS
  25              	@ -D CAN_ARCHITECTURE_ARM src/main.c -mcpu=cortex-m0 -mthumb
  26              	@ -auxbase-strip bin/main.o -g -ggdb3 -O2 -Wall -Wstrict-prototypes -Wextra
  27              	@ -std=gnu90 -ffunction-sections -fdata-sections -fdiagnostics-color=always
  28              	@ -fverbose-asm
  29              	@ options enabled:  -faggressive-loop-optimizations -falign-functions
  30              	@ -falign-jumps -falign-labels -falign-loops -fauto-inc-dec
  31              	@ -fbranch-count-reg -fcaller-saves -fchkp-check-incomplete-type
  32              	@ -fchkp-check-read -fchkp-check-write -fchkp-instrument-calls
  33              	@ -fchkp-narrow-bounds -fchkp-optimize -fchkp-store-bounds
  34              	@ -fchkp-use-static-bounds -fchkp-use-static-const-bounds
  35              	@ -fchkp-use-wrappers -fcombine-stack-adjustments -fcommon -fcompare-elim
  36              	@ -fcprop-registers -fcrossjumping -fcse-follow-jumps -fdata-sections
  37              	@ -fdefer-pop -fdelete-null-pointer-checks -fdevirtualize
  38              	@ -fdevirtualize-speculatively -fdwarf2-cfi-asm -fearly-inlining
  39              	@ -feliminate-unused-debug-types -fexpensive-optimizations
  40              	@ -fforward-propagate -ffunction-cse -ffunction-sections -fgcse -fgcse-lm
  41              	@ -fgnu-runtime -fgnu-unique -fguess-branch-probability
  42              	@ -fhoist-adjacent-loads -fident -fif-conversion -fif-conversion2
  43              	@ -findirect-inlining -finline -finline-atomics
  44              	@ -finline-functions-called-once -finline-small-functions -fipa-cp
  45              	@ -fipa-cp-alignment -fipa-icf -fipa-icf-functions -fipa-icf-variables
  46              	@ -fipa-profile -fipa-pure-const -fipa-reference -fipa-sra
  47              	@ -fira-hoist-pressure -fira-share-save-slots -fira-share-spill-slots
  48              	@ -fisolate-erroneous-paths-dereference -fivopts -fkeep-static-consts
  49              	@ -fleading-underscore -flifetime-dse -flra-remat -flto-odr-type-merging
  50              	@ -fmath-errno -fmerge-constants -fmerge-debug-strings
  51              	@ -fmove-loop-invariants -fomit-frame-pointer -foptimize-sibling-calls
  52              	@ -foptimize-strlen -fpartial-inlining -fpeephole -fpeephole2
  53              	@ -fprefetch-loop-arrays -freg-struct-return -freorder-blocks
  54              	@ -freorder-functions -frerun-cse-after-loop
  55              	@ -fsched-critical-path-heuristic -fsched-dep-count-heuristic
  56              	@ -fsched-group-heuristic -fsched-interblock -fsched-last-insn-heuristic
  57              	@ -fsched-pressure -fsched-rank-heuristic -fsched-spec
ARM GAS  /var/folders/z0/6xlwn_996xz3mwq1cgzkbq4r0000gp/T//ccmL70zo.s 			page 2


  58              	@ -fsched-spec-insn-heuristic -fsched-stalled-insns-dep -fschedule-insns2
  59              	@ -fsection-anchors -fsemantic-interposition -fshow-column -fshrink-wrap
  60              	@ -fsigned-zeros -fsplit-ivs-in-unroller -fsplit-wide-types -fssa-phiopt
  61              	@ -fstdarg-opt -fstrict-aliasing -fstrict-overflow
  62              	@ -fstrict-volatile-bitfields -fsync-libcalls -fthread-jumps
  63              	@ -ftoplevel-reorder -ftrapping-math -ftree-bit-ccp -ftree-builtin-call-dce
  64              	@ -ftree-ccp -ftree-ch -ftree-coalesce-vars -ftree-copy-prop
  65              	@ -ftree-copyrename -ftree-cselim -ftree-dce -ftree-dominator-opts
  66              	@ -ftree-dse -ftree-forwprop -ftree-fre -ftree-loop-if-convert
  67              	@ -ftree-loop-im -ftree-loop-ivcanon -ftree-loop-optimize
  68              	@ -ftree-parallelize-loops= -ftree-phiprop -ftree-pre -ftree-pta
  69              	@ -ftree-reassoc -ftree-scev-cprop -ftree-sink -ftree-slsr -ftree-sra
  70              	@ -ftree-switch-conversion -ftree-tail-merge -ftree-ter -ftree-vrp
  71              	@ -funit-at-a-time -fvar-tracking -fvar-tracking-assignments -fverbose-asm
  72              	@ -fzero-initialized-in-bss -mlittle-endian -mpic-data-is-text-relative
  73              	@ -msched-prolog -mthumb -mvectorize-with-neon-quad
  74              	
  75              		.text
  76              	.Ltext0:
  77              		.cfi_sections	.debug_frame
  78              		.section	.text.Init_Structs,"ax",%progbits
  79              		.align	2
  80              		.global	Init_Structs
  81              		.code	16
  82              		.thumb_func
  83              		.type	Init_Structs, %function
  84              	Init_Structs:
  85              	.LFB198:
  86              		.file 1 "src/main.c"
   1:src/main.c    **** #include <string.h>
   2:src/main.c    **** #include <stdlib.h>
   3:src/main.c    **** #include "structs.h"
   4:src/main.c    **** #include "config.h"
   5:src/main.c    **** #include "ssm.h"
   6:src/main.c    **** #include "board.h"
   7:src/main.c    **** #include "console.h"
   8:src/main.c    **** #include "pack_config.h"
   9:src/main.c    **** 
  10:src/main.c    **** volatile uint32_t msTicks;
  11:src/main.c    **** 
  12:src/main.c    **** static char str[10];
  13:src/main.c    **** 
  14:src/main.c    **** // memory allocation for CBS_OUTPUT_T
  15:src/main.c    **** static bool balance_waitingoff[MAX_NUM_MODULES*MAX_CELLS_PER_MODULE];
  16:src/main.c    **** static uint32_t balance_timeon[MAX_NUM_MODULES*MAX_CELLS_PER_MODULE];
  17:src/main.c    **** static CSB_OUTPUT_T csb_output;
  18:src/main.c    **** 
  19:src/main.c    **** // memory allocation for BMS_INPUT_T
  20:src/main.c    **** static BMS_PACK_STATUS_T pack_status;
  21:src/main.c    **** static CSB_INPUT_T csb_input;
  22:src/main.c    **** 
  23:src/main.c    **** // memory allocation for BMS_STATE_T
  24:src/main.c    **** static PACK_CONFIG_T pack_config;
  25:src/main.c    **** static CSB_STATE_T csb_state;
  26:src/main.c    **** 
  27:src/main.c    **** // memory for console
  28:src/main.c    **** static microrl_t rl;
ARM GAS  /var/folders/z0/6xlwn_996xz3mwq1cgzkbq4r0000gp/T//ccmL70zo.s 			page 3


  29:src/main.c    **** static CONSOLE_OUTPUT_T console_output;
  30:src/main.c    **** 
  31:src/main.c    **** void Init_Structs(void) {
  87              		.loc 1 31 0
  88              		.cfi_startproc
  89              		@ args = 0, pretend = 0, frame = 0
  90              		@ frame_needed = 0, uses_anonymous_args = 0
  91 0000 70B5     		push	{r4, r5, r6, lr}	@
  92              		.cfi_def_cfa_offset 16
  93              		.cfi_offset 4, -16
  94              		.cfi_offset 5, -12
  95              		.cfi_offset 6, -8
  96              		.cfi_offset 14, -4
  32:src/main.c    ****   csb_output.voltage_req_mV = 0;
  97              		.loc 1 32 0
  98 0002 0024     		movs	r4, #0	@ tmp112,
  99 0004 224B     		ldr	r3, .L2	@ tmp111,
  33:src/main.c    ****   csb_output.current_req_mA = 0;
  34:src/main.c    ****   csb_output.send_bms_config = false;
  35:src/main.c    ****   csb_output.close_contactors = false;
  36:src/main.c    ****   csb_output.charger_on = false;
  37:src/main.c    **** 
  38:src/main.c    ****   csb_state.pack_config = &pack_config;
 100              		.loc 1 38 0
 101 0006 234D     		ldr	r5, .L2+4	@ tmp125,
 102 0008 234E     		ldr	r6, .L2+8	@ tmp124,
  32:src/main.c    ****   csb_output.voltage_req_mV = 0;
 103              		.loc 1 32 0
 104 000a 1C60     		str	r4, [r3]	@ tmp112, csb_output.voltage_req_mV
  33:src/main.c    ****   csb_output.current_req_mA = 0;
 105              		.loc 1 33 0
 106 000c 5C60     		str	r4, [r3, #4]	@ tmp112, csb_output.current_req_mA
  34:src/main.c    ****   csb_output.close_contactors = false;
 107              		.loc 1 34 0
 108 000e 1C72     		strb	r4, [r3, #8]	@ tmp112, csb_output.send_bms_config
  35:src/main.c    ****   csb_output.charger_on = false;
 109              		.loc 1 35 0
 110 0010 5C72     		strb	r4, [r3, #9]	@ tmp112, csb_output.close_contactors
  36:src/main.c    **** 
 111              		.loc 1 36 0
 112 0012 9C72     		strb	r4, [r3, #10]	@ tmp112, csb_output.charger_on
  39:src/main.c    ****   csb_state.curr_mode = CSB_SSM_MODE_INIT;
  40:src/main.c    ****   csb_state.init_state = CSB_INIT_OFF;
  41:src/main.c    ****   csb_state.charge_state = CSB_CHARGE_OFF;
  42:src/main.c    ****   csb_state.idle_state = CSB_IDLE_OFF;
  43:src/main.c    ****   csb_state.curr_baud_rate = BMS_CAN_BAUD;
  44:src/main.c    ****   csb_state.balance_waitingoff = balance_waitingoff;
 113              		.loc 1 44 0
 114 0014 2148     		ldr	r0, .L2+12	@ tmp141,
  43:src/main.c    ****   csb_state.balance_waitingoff = balance_waitingoff;
 115              		.loc 1 43 0
 116 0016 224B     		ldr	r3, .L2+16	@ tmp139,
  45:src/main.c    ****   memset(balance_waitingoff, 0, sizeof(balance_waitingoff[0])*MAX_NUM_MODULES*MAX_CELLS_PER_MODULE)
 117              		.loc 1 45 0
 118 0018 B422     		movs	r2, #180	@,
 119 001a 0021     		movs	r1, #0	@,
  43:src/main.c    ****   csb_state.balance_waitingoff = balance_waitingoff;
ARM GAS  /var/folders/z0/6xlwn_996xz3mwq1cgzkbq4r0000gp/T//ccmL70zo.s 			page 4


 120              		.loc 1 43 0
 121 001c B360     		str	r3, [r6, #8]	@ tmp139, csb_state.curr_baud_rate
  38:src/main.c    ****   csb_state.curr_mode = CSB_SSM_MODE_INIT;
 122              		.loc 1 38 0
 123 001e 3560     		str	r5, [r6]	@ tmp125, csb_state.pack_config
  39:src/main.c    ****   csb_state.init_state = CSB_INIT_OFF;
 124              		.loc 1 39 0
 125 0020 3471     		strb	r4, [r6, #4]	@ tmp112, csb_state.curr_mode
  40:src/main.c    ****   csb_state.charge_state = CSB_CHARGE_OFF;
 126              		.loc 1 40 0
 127 0022 7471     		strb	r4, [r6, #5]	@ tmp112, csb_state.init_state
  41:src/main.c    ****   csb_state.idle_state = CSB_IDLE_OFF;
 128              		.loc 1 41 0
 129 0024 B471     		strb	r4, [r6, #6]	@ tmp112, csb_state.charge_state
  42:src/main.c    ****   csb_state.curr_baud_rate = BMS_CAN_BAUD;
 130              		.loc 1 42 0
 131 0026 F471     		strb	r4, [r6, #7]	@ tmp112, csb_state.idle_state
  44:src/main.c    ****   memset(balance_waitingoff, 0, sizeof(balance_waitingoff[0])*MAX_NUM_MODULES*MAX_CELLS_PER_MODULE)
 132              		.loc 1 44 0
 133 0028 3061     		str	r0, [r6, #16]	@ tmp141, csb_state.balance_waitingoff
 134              		.loc 1 45 0
 135 002a FFF7FEFF 		bl	memset	@
 136              	.LVL0:
  46:src/main.c    ****   csb_state.balance_timeon = balance_timeon;
  47:src/main.c    ****   memset(balance_timeon, 0, sizeof(balance_timeon[0])*MAX_NUM_MODULES*MAX_CELLS_PER_MODULE);
 137              		.loc 1 47 0
 138 002e B422     		movs	r2, #180	@,
  46:src/main.c    ****   csb_state.balance_timeon = balance_timeon;
 139              		.loc 1 46 0
 140 0030 1C48     		ldr	r0, .L2+20	@ tmp148,
 141              		.loc 1 47 0
 142 0032 9200     		lsls	r2, r2, #2	@,,
 143 0034 0021     		movs	r1, #0	@,
  46:src/main.c    ****   csb_state.balance_timeon = balance_timeon;
 144              		.loc 1 46 0
 145 0036 F060     		str	r0, [r6, #12]	@ tmp148, csb_state.balance_timeon
 146              		.loc 1 47 0
 147 0038 FFF7FEFF 		bl	memset	@
 148              	.LVL1:
  48:src/main.c    **** 
  49:src/main.c    ****   pack_config.module_cell_count = 0;
  50:src/main.c    ****   pack_config.cell_min_mV = 0;
  51:src/main.c    ****   pack_config.cell_max_mV = 0;
  52:src/main.c    ****   pack_config.cell_capacity_cAh = 0;
  53:src/main.c    ****   pack_config.num_modules = 0;
  54:src/main.c    ****   pack_config.cell_charge_c_rating_cC = 0;
  55:src/main.c    ****   pack_config.bal_on_thresh_mV = 0;
  56:src/main.c    ****   pack_config.bal_off_thresh_mV = 0;
  57:src/main.c    ****   pack_config.pack_cells_p = 0;
  58:src/main.c    ****   pack_config.cv_min_current_mA = 0;
  59:src/main.c    ****   pack_config.cv_min_current_ms = 0;
  60:src/main.c    ****   pack_config.cc_cell_voltage_mV = 0;
  61:src/main.c    **** 
  62:src/main.c    ****   //assign csb_inputs
  63:src/main.c    ****   csb_input.mode_request = CSB_SSM_MODE_IDLE;
 149              		.loc 1 63 0
 150 003c 0122     		movs	r2, #1	@ tmp179,
ARM GAS  /var/folders/z0/6xlwn_996xz3mwq1cgzkbq4r0000gp/T//ccmL70zo.s 			page 5


 151 003e 1A4B     		ldr	r3, .L2+24	@ tmp178,
  64:src/main.c    ****   csb_input.balance_mV = 0; // console request balance to mV
  65:src/main.c    ****   csb_input.msTicks = msTicks;
  66:src/main.c    ****   csb_input.elcon_output_voltage = 0;
  67:src/main.c    ****   csb_input.elcon_output_current = 0;
  68:src/main.c    ****   csb_input.elcon_has_hardware_failure = false;
  69:src/main.c    ****   csb_input.elcon_over_temp_protection_on = false;
  70:src/main.c    ****   csb_input.elcon_is_input_voltage_wrong = false;
  71:src/main.c    ****   csb_input.elcon_battery_voltage_not_detected = false;
  72:src/main.c    ****   csb_input.pack_status = &pack_status;
  73:src/main.c    ****   csb_input.balance_req = false;
  74:src/main.c    ****   csb_input.contactors_closed = false;
  75:src/main.c    ****   csb_input.receive_bms_config = false;
  76:src/main.c    ****   csb_input.charger_on = false;
  77:src/main.c    ****   csb_input.imd_fault = false;
  78:src/main.c    ****   csb_input.int_fault = false;
  79:src/main.c    ****   csb_input.bms_fault = false;
  80:src/main.c    ****   csb_input.low_side_cntr_fault = false;
 152              		.loc 1 80 0
 153 0040 2020     		movs	r0, #32	@ tmp227,
  63:src/main.c    ****   csb_input.balance_mV = 0; // console request balance to mV
 154              		.loc 1 63 0
 155 0042 1A71     		strb	r2, [r3, #4]	@ tmp179, csb_input.mode_request
  65:src/main.c    ****   csb_input.elcon_output_voltage = 0;
 156              		.loc 1 65 0
 157 0044 194A     		ldr	r2, .L2+28	@ tmp183,
  72:src/main.c    ****   csb_input.balance_req = false;
 158              		.loc 1 72 0
 159 0046 1A49     		ldr	r1, .L2+32	@ tmp204,
  65:src/main.c    ****   csb_input.elcon_output_voltage = 0;
 160              		.loc 1 65 0
 161 0048 1268     		ldr	r2, [r2]	@ D.7274, msTicks
  49:src/main.c    ****   pack_config.cell_min_mV = 0;
 162              		.loc 1 49 0
 163 004a EC62     		str	r4, [r5, #44]	@ tmp112, pack_config.module_cell_count
  65:src/main.c    ****   csb_input.elcon_output_voltage = 0;
 164              		.loc 1 65 0
 165 004c DA60     		str	r2, [r3, #12]	@ D.7274, csb_input.msTicks
  66:src/main.c    ****   csb_input.elcon_output_current = 0;
 166              		.loc 1 66 0
 167 004e 0022     		movs	r2, #0	@ tmp187,
  50:src/main.c    ****   pack_config.cell_max_mV = 0;
 168              		.loc 1 50 0
 169 0050 2C60     		str	r4, [r5]	@ tmp112, pack_config.cell_min_mV
  51:src/main.c    ****   pack_config.cell_capacity_cAh = 0;
 170              		.loc 1 51 0
 171 0052 6C60     		str	r4, [r5, #4]	@ tmp112, pack_config.cell_max_mV
  52:src/main.c    ****   pack_config.num_modules = 0;
 172              		.loc 1 52 0
 173 0054 AC60     		str	r4, [r5, #8]	@ tmp112, pack_config.cell_capacity_cAh
  53:src/main.c    ****   pack_config.cell_charge_c_rating_cC = 0;
 174              		.loc 1 53 0
 175 0056 EC60     		str	r4, [r5, #12]	@ tmp112, pack_config.num_modules
  54:src/main.c    ****   pack_config.bal_on_thresh_mV = 0;
 176              		.loc 1 54 0
 177 0058 2C61     		str	r4, [r5, #16]	@ tmp112, pack_config.cell_charge_c_rating_cC
  55:src/main.c    ****   pack_config.bal_off_thresh_mV = 0;
ARM GAS  /var/folders/z0/6xlwn_996xz3mwq1cgzkbq4r0000gp/T//ccmL70zo.s 			page 6


 178              		.loc 1 55 0
 179 005a 6C61     		str	r4, [r5, #20]	@ tmp112, pack_config.bal_on_thresh_mV
  56:src/main.c    ****   pack_config.pack_cells_p = 0;
 180              		.loc 1 56 0
 181 005c AC61     		str	r4, [r5, #24]	@ tmp112, pack_config.bal_off_thresh_mV
  57:src/main.c    ****   pack_config.cv_min_current_mA = 0;
 182              		.loc 1 57 0
 183 005e EC61     		str	r4, [r5, #28]	@ tmp112, pack_config.pack_cells_p
  58:src/main.c    ****   pack_config.cv_min_current_ms = 0;
 184              		.loc 1 58 0
 185 0060 2C62     		str	r4, [r5, #32]	@ tmp112, pack_config.cv_min_current_mA
  59:src/main.c    ****   pack_config.cc_cell_voltage_mV = 0;
 186              		.loc 1 59 0
 187 0062 6C62     		str	r4, [r5, #36]	@ tmp112, pack_config.cv_min_current_ms
  60:src/main.c    **** 
 188              		.loc 1 60 0
 189 0064 AC62     		str	r4, [r5, #40]	@ tmp112, pack_config.cc_cell_voltage_mV
  64:src/main.c    ****   csb_input.msTicks = msTicks;
 190              		.loc 1 64 0
 191 0066 9C60     		str	r4, [r3, #8]	@ tmp112, csb_input.balance_mV
  66:src/main.c    ****   csb_input.elcon_output_current = 0;
 192              		.loc 1 66 0
 193 0068 1C82     		strh	r4, [r3, #16]	@ tmp112, csb_input.elcon_output_voltage
  67:src/main.c    ****   csb_input.elcon_has_hardware_failure = false;
 194              		.loc 1 67 0
 195 006a 5C82     		strh	r4, [r3, #18]	@ tmp112, csb_input.elcon_output_current
  68:src/main.c    ****   csb_input.elcon_over_temp_protection_on = false;
 196              		.loc 1 68 0
 197 006c 1A75     		strb	r2, [r3, #20]	@ tmp187, csb_input.elcon_has_hardware_failure
  69:src/main.c    ****   csb_input.elcon_is_input_voltage_wrong = false;
 198              		.loc 1 69 0
 199 006e 5A75     		strb	r2, [r3, #21]	@ tmp187, csb_input.elcon_over_temp_protection_on
  70:src/main.c    ****   csb_input.elcon_battery_voltage_not_detected = false;
 200              		.loc 1 70 0
 201 0070 9A75     		strb	r2, [r3, #22]	@ tmp187, csb_input.elcon_is_input_voltage_wrong
  71:src/main.c    ****   csb_input.pack_status = &pack_status;
 202              		.loc 1 71 0
 203 0072 DA75     		strb	r2, [r3, #23]	@ tmp187, csb_input.elcon_battery_voltage_not_detected
  72:src/main.c    ****   csb_input.balance_req = false;
 204              		.loc 1 72 0
 205 0074 1960     		str	r1, [r3]	@ tmp204, csb_input.pack_status
  73:src/main.c    ****   csb_input.contactors_closed = false;
 206              		.loc 1 73 0
 207 0076 9A76     		strb	r2, [r3, #26]	@ tmp187, csb_input.balance_req
  74:src/main.c    ****   csb_input.receive_bms_config = false;
 208              		.loc 1 74 0
 209 0078 DA76     		strb	r2, [r3, #27]	@ tmp187, csb_input.contactors_closed
  75:src/main.c    ****   csb_input.charger_on = false;
 210              		.loc 1 75 0
 211 007a 5A76     		strb	r2, [r3, #25]	@ tmp187, csb_input.receive_bms_config
  76:src/main.c    ****   csb_input.imd_fault = false;
 212              		.loc 1 76 0
 213 007c 1A77     		strb	r2, [r3, #28]	@ tmp187, csb_input.charger_on
  77:src/main.c    ****   csb_input.int_fault = false;
 214              		.loc 1 77 0
 215 007e 5A77     		strb	r2, [r3, #29]	@ tmp187, csb_input.imd_fault
  78:src/main.c    ****   csb_input.bms_fault = false;
ARM GAS  /var/folders/z0/6xlwn_996xz3mwq1cgzkbq4r0000gp/T//ccmL70zo.s 			page 7


 216              		.loc 1 78 0
 217 0080 9A77     		strb	r2, [r3, #30]	@ tmp187, csb_input.int_fault
  81:src/main.c    **** 
  82:src/main.c    ****   pack_status.pack_cell_max_mV = 0;
  83:src/main.c    ****   pack_status.pack_current_mA = 0;
  84:src/main.c    ****   pack_status.pack_voltage_mV = 0;
  85:src/main.c    **** }
 218              		.loc 1 85 0
 219              		@ sp needed	@
  79:src/main.c    ****   csb_input.low_side_cntr_fault = false;
 220              		.loc 1 79 0
 221 0082 DA77     		strb	r2, [r3, #31]	@ tmp187, csb_input.bms_fault
  80:src/main.c    **** 
 222              		.loc 1 80 0
 223 0084 1A54     		strb	r2, [r3, r0]	@ tmp187, csb_input.low_side_cntr_fault
  82:src/main.c    ****   pack_status.pack_current_mA = 0;
 224              		.loc 1 82 0
 225 0086 0C60     		str	r4, [r1]	@ tmp112, pack_status.pack_cell_max_mV
  83:src/main.c    ****   pack_status.pack_voltage_mV = 0;
 226              		.loc 1 83 0
 227 0088 4C60     		str	r4, [r1, #4]	@ tmp112, pack_status.pack_current_mA
  84:src/main.c    **** }
 228              		.loc 1 84 0
 229 008a 8C60     		str	r4, [r1, #8]	@ tmp112, pack_status.pack_voltage_mV
 230              		.loc 1 85 0
 231 008c 70BD     		pop	{r4, r5, r6, pc}
 232              	.L3:
 233 008e C046     		.align	2
 234              	.L2:
 235 0090 00000000 		.word	.LANCHOR0
 236 0094 00000000 		.word	.LANCHOR2
 237 0098 00000000 		.word	.LANCHOR1
 238 009c 00000000 		.word	.LANCHOR3
 239 00a0 20A10700 		.word	500000
 240 00a4 00000000 		.word	.LANCHOR4
 241 00a8 00000000 		.word	.LANCHOR5
 242 00ac 00000000 		.word	msTicks
 243 00b0 00000000 		.word	.LANCHOR6
 244              		.cfi_endproc
 245              	.LFE198:
 246              		.size	Init_Structs, .-Init_Structs
 247              		.section	.text.Process_Output,"ax",%progbits
 248              		.align	2
 249              		.global	Process_Output
 250              		.code	16
 251              		.thumb_func
 252              		.type	Process_Output, %function
 253              	Process_Output:
 254              	.LFB199:
  86:src/main.c    **** 
  87:src/main.c    **** void Process_Output(CSB_INPUT_T* csb_input, CSB_OUTPUT_T* csb_output, CSB_STATE_T* csb_state) {
 255              		.loc 1 87 0
 256              		.cfi_startproc
 257              		@ args = 0, pretend = 0, frame = 0
 258              		@ frame_needed = 0, uses_anonymous_args = 0
 259              	.LVL2:
 260 0000 70B5     		push	{r4, r5, r6, lr}	@
ARM GAS  /var/folders/z0/6xlwn_996xz3mwq1cgzkbq4r0000gp/T//ccmL70zo.s 			page 8


 261              		.cfi_def_cfa_offset 16
 262              		.cfi_offset 4, -16
 263              		.cfi_offset 5, -12
 264              		.cfi_offset 6, -8
 265              		.cfi_offset 14, -4
 266              		.loc 1 87 0
 267 0002 1600     		movs	r6, r2	@ csb_state, csb_state
 268 0004 0500     		movs	r5, r0	@ csb_input, csb_input
 269 0006 0C00     		movs	r4, r1	@ csb_output, csb_output
  88:src/main.c    ****   Board_Contactors_Set(csb_output->close_contactors);
 270              		.loc 1 88 0
 271 0008 487A     		ldrb	r0, [r1, #9]	@ tmp114,
 272              	.LVL3:
 273 000a FFF7FEFF 		bl	Board_Contactors_Set	@
 274              	.LVL4:
  89:src/main.c    ****   Board_Can_ProcessOutput(csb_input, csb_state, csb_output);
 275              		.loc 1 89 0
 276 000e 3100     		movs	r1, r6	@, csb_state
 277 0010 2800     		movs	r0, r5	@, csb_input
 278 0012 2200     		movs	r2, r4	@, csb_output
 279 0014 FFF7FEFF 		bl	Board_Can_ProcessOutput	@
 280              	.LVL5:
  90:src/main.c    **** }
 281              		.loc 1 90 0
 282              		@ sp needed	@
 283              	.LVL6:
 284              	.LVL7:
 285              	.LVL8:
 286 0018 70BD     		pop	{r4, r5, r6, pc}
 287              		.cfi_endproc
 288              	.LFE199:
 289              		.size	Process_Output, .-Process_Output
 290 001a C046     		.section	.text.Process_Input,"ax",%progbits
 291              		.align	2
 292              		.global	Process_Input
 293              		.code	16
 294              		.thumb_func
 295              		.type	Process_Input, %function
 296              	Process_Input:
 297              	.LFB200:
  91:src/main.c    **** 
  92:src/main.c    **** void Process_Input(CSB_INPUT_T* csb_input, CSB_STATE_T* csb_state) {
 298              		.loc 1 92 0
 299              		.cfi_startproc
 300              		@ args = 0, pretend = 0, frame = 0
 301              		@ frame_needed = 0, uses_anonymous_args = 0
 302              	.LVL9:
 303 0000 10B5     		push	{r4, lr}	@
 304              		.cfi_def_cfa_offset 8
 305              		.cfi_offset 4, -8
 306              		.cfi_offset 14, -4
 307              		.loc 1 92 0
 308 0002 0400     		movs	r4, r0	@ csb_input, csb_input
  93:src/main.c    ****   Board_Can_ProcessInput(csb_input, csb_state);
 309              		.loc 1 93 0
 310 0004 FFF7FEFF 		bl	Board_Can_ProcessInput	@
 311              	.LVL10:
ARM GAS  /var/folders/z0/6xlwn_996xz3mwq1cgzkbq4r0000gp/T//ccmL70zo.s 			page 9


  94:src/main.c    ****   Board_GetModeRequest();
 312              		.loc 1 94 0
 313 0008 FFF7FEFF 		bl	Board_GetModeRequest	@
 314              	.LVL11:
  95:src/main.c    ****   csb_input->msTicks = msTicks;
 315              		.loc 1 95 0
 316 000c 044B     		ldr	r3, .L6	@ tmp114,
  96:src/main.c    ****   csb_input->contactors_closed = Board_Contactors_Closed();
  97:src/main.c    ****   Board_Check_Faults(csb_input);
  98:src/main.c    **** }
 317              		.loc 1 98 0
 318              		@ sp needed	@
  95:src/main.c    ****   csb_input->msTicks = msTicks;
 319              		.loc 1 95 0
 320 000e 1B68     		ldr	r3, [r3]	@ D.7292, msTicks
 321 0010 E360     		str	r3, [r4, #12]	@ D.7292, csb_input_2(D)->msTicks
  96:src/main.c    ****   csb_input->contactors_closed = Board_Contactors_Closed();
 322              		.loc 1 96 0
 323 0012 FFF7FEFF 		bl	Board_Contactors_Closed	@
 324              	.LVL12:
 325 0016 E076     		strb	r0, [r4, #27]	@ tmp115, csb_input_2(D)->contactors_closed
  97:src/main.c    **** }
 326              		.loc 1 97 0
 327 0018 2000     		movs	r0, r4	@, csb_input
 328 001a FFF7FEFF 		bl	Board_Check_Faults	@
 329              	.LVL13:
 330              	.LVL14:
 331              		.loc 1 98 0
 332 001e 10BD     		pop	{r4, pc}
 333              	.L7:
 334              		.align	2
 335              	.L6:
 336 0020 00000000 		.word	msTicks
 337              		.cfi_endproc
 338              	.LFE200:
 339              		.size	Process_Input, .-Process_Input
 340              		.section	.text.Process_Keyboard,"ax",%progbits
 341              		.align	2
 342              		.global	Process_Keyboard
 343              		.code	16
 344              		.thumb_func
 345              		.type	Process_Keyboard, %function
 346              	Process_Keyboard:
 347              	.LFB201:
  99:src/main.c    **** 
 100:src/main.c    **** void Process_Keyboard(void) {
 348              		.loc 1 100 0
 349              		.cfi_startproc
 350              		@ args = 0, pretend = 0, frame = 0
 351              		@ frame_needed = 0, uses_anonymous_args = 0
 352 0000 F8B5     		push	{r3, r4, r5, r6, r7, lr}	@
 353              		.cfi_def_cfa_offset 24
 354              		.cfi_offset 3, -24
 355              		.cfi_offset 4, -20
 356              		.cfi_offset 5, -16
 357              		.cfi_offset 6, -12
 358              		.cfi_offset 7, -8
ARM GAS  /var/folders/z0/6xlwn_996xz3mwq1cgzkbq4r0000gp/T//ccmL70zo.s 			page 10


 359              		.cfi_offset 14, -4
 101:src/main.c    ****     uint32_t readln = Board_Read(str,50);
 360              		.loc 1 101 0
 361 0002 084E     		ldr	r6, .L14	@ tmp142,
 362 0004 3221     		movs	r1, #50	@,
 363 0006 3000     		movs	r0, r6	@, tmp142
 364 0008 FFF7FEFF 		bl	Board_Read	@
 365              	.LVL15:
 366 000c 051E     		subs	r5, r0, #0	@ readln,,
 367              	.LVL16:
 102:src/main.c    ****     uint32_t i;
 103:src/main.c    ****     for(i = 0; i < readln; i++) {
 368              		.loc 1 103 0
 369 000e 08D0     		beq	.L8	@,
 370              		.loc 1 103 0 is_stmt 0 discriminator 3
 371 0010 0024     		movs	r4, #0	@ i,
 372 0012 054F     		ldr	r7, .L14+4	@ tmp143,
 373              	.LVL17:
 374              	.L10:
 104:src/main.c    ****         microrl_insert_char(&rl, str[i]);
 375              		.loc 1 104 0 is_stmt 1 discriminator 3
 376 0014 315D     		ldrb	r1, [r6, r4]	@ D.7303, MEM[symbol: str, index: i_12, offset: 0B]
 377 0016 3800     		movs	r0, r7	@, tmp143
 103:src/main.c    ****         microrl_insert_char(&rl, str[i]);
 378              		.loc 1 103 0 discriminator 3
 379 0018 0134     		adds	r4, r4, #1	@ i,
 380              	.LVL18:
 381              		.loc 1 104 0 discriminator 3
 382 001a FFF7FEFF 		bl	microrl_insert_char	@
 383              	.LVL19:
 103:src/main.c    ****         microrl_insert_char(&rl, str[i]);
 384              		.loc 1 103 0 discriminator 3
 385 001e A542     		cmp	r5, r4	@ readln, i
 386 0020 F8D1     		bne	.L10	@,
 387              	.LVL20:
 388              	.L8:
 105:src/main.c    ****     }
 106:src/main.c    **** }
 389              		.loc 1 106 0
 390              		@ sp needed	@
 391              	.LVL21:
 392 0022 F8BD     		pop	{r3, r4, r5, r6, r7, pc}
 393              	.L15:
 394              		.align	2
 395              	.L14:
 396 0024 00000000 		.word	.LANCHOR7
 397 0028 00000000 		.word	.LANCHOR8
 398              		.cfi_endproc
 399              	.LFE201:
 400              		.size	Process_Keyboard, .-Process_Keyboard
 401              		.section	.text.startup.main,"ax",%progbits
 402              		.align	2
 403              		.global	main
 404              		.code	16
 405              		.thumb_func
 406              		.type	main, %function
 407              	main:
ARM GAS  /var/folders/z0/6xlwn_996xz3mwq1cgzkbq4r0000gp/T//ccmL70zo.s 			page 11


 408              	.LFB202:
 107:src/main.c    **** 
 108:src/main.c    **** int main(void) {
 409              		.loc 1 108 0
 410              		.cfi_startproc
 411              		@ Volatile: function does not return.
 412              		@ args = 0, pretend = 0, frame = 0
 413              		@ frame_needed = 0, uses_anonymous_args = 0
 414 0000 F0B5     		push	{r4, r5, r6, r7, lr}	@
 415              		.cfi_def_cfa_offset 20
 416              		.cfi_offset 4, -20
 417              		.cfi_offset 5, -16
 418              		.cfi_offset 6, -12
 419              		.cfi_offset 7, -8
 420              		.cfi_offset 14, -4
 421 0002 4746     		mov	r7, r8	@,
 422 0004 80B4     		push	{r7}	@
 423              		.cfi_def_cfa_offset 24
 424              		.cfi_offset 8, -24
 109:src/main.c    ****   Init_Structs();
 425              		.loc 1 109 0
 426 0006 FFF7FEFF 		bl	Init_Structs	@
 427              	.LVL22:
 110:src/main.c    ****   Board_Can_Init(BMS_CAN_BAUD);
 428              		.loc 1 110 0
 429 000a 2148     		ldr	r0, .L18	@,
 430 000c FFF7FEFF 		bl	Board_Can_Init	@
 431              	.LVL23:
 111:src/main.c    ****   Board_UART_Init(UART_BAUD);
 432              		.loc 1 111 0
 433 0010 E120     		movs	r0, #225	@,
 434 0012 0002     		lsls	r0, r0, #8	@,,
 435 0014 FFF7FEFF 		bl	Board_UART_Init	@
 436              	.LVL24:
 112:src/main.c    ****   Board_Chip_Init();
 437              		.loc 1 112 0
 438 0018 FFF7FEFF 		bl	Board_Chip_Init	@
 439              	.LVL25:
 113:src/main.c    ****   Board_GPIO_Init();
 440              		.loc 1 113 0
 441 001c FFF7FEFF 		bl	Board_GPIO_Init	@
 442              	.LVL26:
 114:src/main.c    **** 
 115:src/main.c    ****   MY18_Pack_Config(&csb_state);
 443              		.loc 1 115 0
 444 0020 1C4C     		ldr	r4, .L18+4	@ tmp141,
 445 0022 2000     		movs	r0, r4	@, tmp141
 446 0024 FFF7FEFF 		bl	MY18_Pack_Config	@
 447              	.LVL27:
 116:src/main.c    ****   SSM_Init(&csb_input, &csb_state, &csb_output, &pack_config);
 448              		.loc 1 116 0
 449 0028 1B4D     		ldr	r5, .L18+8	@ tmp145,
 450 002a 1C4E     		ldr	r6, .L18+12	@ tmp144,
 451 002c 1C4B     		ldr	r3, .L18+16	@,
 452 002e 3200     		movs	r2, r6	@, tmp144
 453 0030 2100     		movs	r1, r4	@, tmp141
 454 0032 2800     		movs	r0, r5	@, tmp145
ARM GAS  /var/folders/z0/6xlwn_996xz3mwq1cgzkbq4r0000gp/T//ccmL70zo.s 			page 12


 455 0034 FFF7FEFF 		bl	SSM_Init	@
 456              	.LVL28:
 117:src/main.c    **** 
 118:src/main.c    ****   //setup readline
 119:src/main.c    ****   microrl_init(&rl, Board_Print);
 457              		.loc 1 119 0
 458 0038 1A4F     		ldr	r7, .L18+20	@ tmp121,
 459 003a 1B49     		ldr	r1, .L18+24	@,
 460 003c 3800     		movs	r0, r7	@, tmp121
 461 003e FFF7FEFF 		bl	microrl_init	@
 462              	.LVL29:
 120:src/main.c    ****   microrl_set_execute_callback(&rl, executerl);
 463              		.loc 1 120 0
 464 0042 3800     		movs	r0, r7	@, tmp121
 465 0044 1949     		ldr	r1, .L18+28	@,
 466 0046 FFF7FEFF 		bl	microrl_set_execute_callback	@
 467              	.LVL30:
 121:src/main.c    ****   console_init(&csb_input, &csb_state, &console_output);
 468              		.loc 1 121 0
 469 004a 194F     		ldr	r7, .L18+32	@ tmp142,
 470 004c 2100     		movs	r1, r4	@, tmp141
 471 004e 3A00     		movs	r2, r7	@, tmp142
 472 0050 2800     		movs	r0, r5	@, tmp145
 473 0052 FFF7FEFF 		bl	console_init	@
 474              	.LVL31:
 475 0056 174B     		ldr	r3, .L18+36	@ tmp143,
 476 0058 9846     		mov	r8, r3	@ tmp143, tmp143
 477              	.L17:
 122:src/main.c    **** 
 123:src/main.c    ****   while(1) {
 124:src/main.c    ****     Process_Keyboard();
 478              		.loc 1 124 0 discriminator 1
 479 005a FFF7FEFF 		bl	Process_Keyboard	@
 480              	.LVL32:
 125:src/main.c    ****     Process_Input(&csb_input, &csb_state);
 481              		.loc 1 125 0 discriminator 1
 482 005e 2100     		movs	r1, r4	@, tmp141
 483 0060 2800     		movs	r0, r5	@, tmp145
 484 0062 FFF7FEFF 		bl	Process_Input	@
 485              	.LVL33:
 126:src/main.c    ****     SSM_Step(&csb_input, &csb_state, &csb_output);
 486              		.loc 1 126 0 discriminator 1
 487 0066 3200     		movs	r2, r6	@, tmp144
 488 0068 2100     		movs	r1, r4	@, tmp141
 489 006a 2800     		movs	r0, r5	@, tmp145
 490 006c FFF7FEFF 		bl	SSM_Step	@
 491              	.LVL34:
 492              	.LBB4:
 493              	.LBB5:
  88:src/main.c    ****   Board_Can_ProcessOutput(csb_input, csb_state, csb_output);
 494              		.loc 1 88 0 discriminator 1
 495 0070 707A     		ldrb	r0, [r6, #9]	@ tmp133,
 496 0072 FFF7FEFF 		bl	Board_Contactors_Set	@
 497              	.LVL35:
  89:src/main.c    **** }
 498              		.loc 1 89 0 discriminator 1
 499 0076 3200     		movs	r2, r6	@, tmp144
ARM GAS  /var/folders/z0/6xlwn_996xz3mwq1cgzkbq4r0000gp/T//ccmL70zo.s 			page 13


 500 0078 2100     		movs	r1, r4	@, tmp141
 501 007a 2800     		movs	r0, r5	@, tmp145
 502 007c FFF7FEFF 		bl	Board_Can_ProcessOutput	@
 503              	.LVL36:
 504              	.LBE5:
 505              	.LBE4:
 127:src/main.c    ****     Process_Output(&csb_input, &csb_output, &csb_state);
 128:src/main.c    ****     Output_Measurements(&console_output, &csb_input, &csb_state, msTicks);
 506              		.loc 1 128 0 discriminator 1
 507 0080 4346     		mov	r3, r8	@ tmp143, tmp143
 508 0082 2200     		movs	r2, r4	@, tmp141
 509 0084 1B68     		ldr	r3, [r3]	@ D.7308, msTicks
 510 0086 2900     		movs	r1, r5	@, tmp145
 511 0088 3800     		movs	r0, r7	@, tmp142
 512 008a FFF7FEFF 		bl	Output_Measurements	@
 513              	.LVL37:
 514 008e E4E7     		b	.L17	@
 515              	.L19:
 516              		.align	2
 517              	.L18:
 518 0090 20A10700 		.word	500000
 519 0094 00000000 		.word	.LANCHOR1
 520 0098 00000000 		.word	.LANCHOR5
 521 009c 00000000 		.word	.LANCHOR0
 522 00a0 00000000 		.word	.LANCHOR2
 523 00a4 00000000 		.word	.LANCHOR8
 524 00a8 00000000 		.word	Board_Print
 525 00ac 00000000 		.word	executerl
 526 00b0 00000000 		.word	.LANCHOR9
 527 00b4 00000000 		.word	msTicks
 528              		.cfi_endproc
 529              	.LFE202:
 530              		.size	main, .-main
 531              		.comm	msTicks,4,4
 532              		.section	.bss.console_output,"aw",%nobits
 533              		.align	2
 534              		.set	.LANCHOR9,. + 0
 535              		.type	console_output, %object
 536              		.size	console_output, 12
 537              	console_output:
 538 0000 00000000 		.space	12
 538      00000000 
 538      00000000 
 539              		.section	.bss.balance_waitingoff,"aw",%nobits
 540              		.align	2
 541              		.set	.LANCHOR3,. + 0
 542              		.type	balance_waitingoff, %object
 543              		.size	balance_waitingoff, 180
 544              	balance_waitingoff:
 545 0000 00000000 		.space	180
 545      00000000 
 545      00000000 
 545      00000000 
 545      00000000 
 546              		.section	.bss.pack_config,"aw",%nobits
 547              		.align	2
 548              		.set	.LANCHOR2,. + 0
ARM GAS  /var/folders/z0/6xlwn_996xz3mwq1cgzkbq4r0000gp/T//ccmL70zo.s 			page 14


 549              		.type	pack_config, %object
 550              		.size	pack_config, 48
 551              	pack_config:
 552 0000 00000000 		.space	48
 552      00000000 
 552      00000000 
 552      00000000 
 552      00000000 
 553              		.section	.bss.pack_status,"aw",%nobits
 554              		.align	2
 555              		.set	.LANCHOR6,. + 0
 556              		.type	pack_status, %object
 557              		.size	pack_status, 12
 558              	pack_status:
 559 0000 00000000 		.space	12
 559      00000000 
 559      00000000 
 560              		.section	.bss.csb_output,"aw",%nobits
 561              		.align	2
 562              		.set	.LANCHOR0,. + 0
 563              		.type	csb_output, %object
 564              		.size	csb_output, 12
 565              	csb_output:
 566 0000 00000000 		.space	12
 566      00000000 
 566      00000000 
 567              		.section	.bss.csb_input,"aw",%nobits
 568              		.align	2
 569              		.set	.LANCHOR5,. + 0
 570              		.type	csb_input, %object
 571              		.size	csb_input, 36
 572              	csb_input:
 573 0000 00000000 		.space	36
 573      00000000 
 573      00000000 
 573      00000000 
 573      00000000 
 574              		.section	.bss.str,"aw",%nobits
 575              		.align	2
 576              		.set	.LANCHOR7,. + 0
 577              		.type	str, %object
 578              		.size	str, 10
 579              	str:
 580 0000 00000000 		.space	10
 580      00000000 
 580      0000
 581              		.section	.bss.rl,"aw",%nobits
 582              		.align	2
 583              		.set	.LANCHOR8,. + 0
 584              		.type	rl, %object
 585              		.size	rl, 152
 586              	rl:
 587 0000 00000000 		.space	152
 587      00000000 
 587      00000000 
 587      00000000 
 587      00000000 
ARM GAS  /var/folders/z0/6xlwn_996xz3mwq1cgzkbq4r0000gp/T//ccmL70zo.s 			page 15


 588              		.section	.bss.balance_timeon,"aw",%nobits
 589              		.align	2
 590              		.set	.LANCHOR4,. + 0
 591              		.type	balance_timeon, %object
 592              		.size	balance_timeon, 720
 593              	balance_timeon:
 594 0000 00000000 		.space	720
 594      00000000 
 594      00000000 
 594      00000000 
 594      00000000 
 595              		.section	.bss.csb_state,"aw",%nobits
 596              		.align	2
 597              		.set	.LANCHOR1,. + 0
 598              		.type	csb_state, %object
 599              		.size	csb_state, 20
 600              	csb_state:
 601 0000 00000000 		.space	20
 601      00000000 
 601      00000000 
 601      00000000 
 601      00000000 
 602              		.text
 603              	.Letext0:
 604              		.file 2 "/usr/local/Cellar/gcc-arm-none-eabi/20160928/arm-none-eabi/include/machine/_default_types
 605              		.file 3 "/usr/local/Cellar/gcc-arm-none-eabi/20160928/arm-none-eabi/include/sys/_stdint.h"
 606              		.file 4 "inc/structs.h"
 607              		.file 5 "inc/microrl.h"
 608              		.file 6 "inc/console.h"
 609              		.file 7 "../../lib/lpc11cx4-library/lpc_chip_11cxx_lib/inc/chip.h"
 610              		.file 8 "inc/board.h"
 611              		.file 9 "inc/pack_config.h"
 612              		.file 10 "inc/ssm.h"