ARM GAS  /var/folders/z0/6xlwn_996xz3mwq1cgzkbq4r0000gp/T//ccjFFqvf.s 			page 1


   1              		.syntax unified
   2              		.cpu cortex-m0
   3              		.fpu softvfp
   4              		.eabi_attribute 20, 1	@ Tag_ABI_FP_denormal
   5              		.eabi_attribute 21, 1	@ Tag_ABI_FP_exceptions
   6              		.eabi_attribute 23, 3	@ Tag_ABI_FP_number_model
   7              		.eabi_attribute 24, 1	@ Tag_ABI_align8_needed
   8              		.eabi_attribute 25, 1	@ Tag_ABI_align8_preserved
   9              		.eabi_attribute 26, 1	@ Tag_ABI_enum_size
  10              		.eabi_attribute 30, 2	@ Tag_ABI_optimization_goals
  11              		.eabi_attribute 34, 0	@ Tag_CPU_unaligned_access
  12              		.eabi_attribute 18, 4	@ Tag_ABI_PCS_wchar_t
  13              		.file	"pmu_11xx.c"
  14              	@ GNU C89 (GNU Tools for ARM Embedded Processors) version 5.4.1 20160919 (release) [ARM/embedded-5-
  15              	@	compiled by GNU C version 4.2.1 (Based on Apple Inc. build 5658) (LLVM build 2336.9.00), GMP vers
  16              	@ GGC heuristics: --param ggc-min-expand=100 --param ggc-min-heapsize=131072
  17              	@ options passed:  -I . -I inc/
  18              	@ -I ../../lib/lpc11cx4-library/lpc_chip_11cxx_lib/inc
  19              	@ -I ../../lib/lpc11cx4-library/evt_lib/inc/ -I ../../lib/CANlib
  20              	@ -imultilib armv6-m
  21              	@ -iprefix /usr/local/Cellar/gcc-arm-none-eabi/20160928/bin/../lib/gcc/arm-none-eabi/5.4.1/
  22              	@ -isysroot /usr/local/Cellar/gcc-arm-none-eabi/20160928/bin/../arm-none-eabi
  23              	@ -MD bin/pmu_11xx.d -MF bin/pmu_11xx.d -MP -MQ bin/pmu_11xx.o
  24              	@ -D__USES_INITFINI__ -D UART_BAUD=57600 -D CORE_M0 -D DEBUG_ENABLE
  25              	@ -D FSAE_DRIVERS -D CAN_ARCHITECTURE_ARM
  26              	@ ../../lib/lpc11cx4-library/lpc_chip_11cxx_lib/src/pmu_11xx.c
  27              	@ -mcpu=cortex-m0 -mthumb -auxbase-strip bin/pmu_11xx.o -g -ggdb3 -O2 -Wall
  28              	@ -Wstrict-prototypes -Wextra -std=gnu90 -ffunction-sections
  29              	@ -fdata-sections -fdiagnostics-color=always -fverbose-asm
  30              	@ options enabled:  -faggressive-loop-optimizations -falign-functions
  31              	@ -falign-jumps -falign-labels -falign-loops -fauto-inc-dec
  32              	@ -fbranch-count-reg -fcaller-saves -fchkp-check-incomplete-type
  33              	@ -fchkp-check-read -fchkp-check-write -fchkp-instrument-calls
  34              	@ -fchkp-narrow-bounds -fchkp-optimize -fchkp-store-bounds
  35              	@ -fchkp-use-static-bounds -fchkp-use-static-const-bounds
  36              	@ -fchkp-use-wrappers -fcombine-stack-adjustments -fcommon -fcompare-elim
  37              	@ -fcprop-registers -fcrossjumping -fcse-follow-jumps -fdata-sections
  38              	@ -fdefer-pop -fdelete-null-pointer-checks -fdevirtualize
  39              	@ -fdevirtualize-speculatively -fdwarf2-cfi-asm -fearly-inlining
  40              	@ -feliminate-unused-debug-types -fexpensive-optimizations
  41              	@ -fforward-propagate -ffunction-cse -ffunction-sections -fgcse -fgcse-lm
  42              	@ -fgnu-runtime -fgnu-unique -fguess-branch-probability
  43              	@ -fhoist-adjacent-loads -fident -fif-conversion -fif-conversion2
  44              	@ -findirect-inlining -finline -finline-atomics
  45              	@ -finline-functions-called-once -finline-small-functions -fipa-cp
  46              	@ -fipa-cp-alignment -fipa-icf -fipa-icf-functions -fipa-icf-variables
  47              	@ -fipa-profile -fipa-pure-const -fipa-reference -fipa-sra
  48              	@ -fira-hoist-pressure -fira-share-save-slots -fira-share-spill-slots
  49              	@ -fisolate-erroneous-paths-dereference -fivopts -fkeep-static-consts
  50              	@ -fleading-underscore -flifetime-dse -flra-remat -flto-odr-type-merging
  51              	@ -fmath-errno -fmerge-constants -fmerge-debug-strings
  52              	@ -fmove-loop-invariants -fomit-frame-pointer -foptimize-sibling-calls
  53              	@ -foptimize-strlen -fpartial-inlining -fpeephole -fpeephole2
  54              	@ -fprefetch-loop-arrays -freg-struct-return -freorder-blocks
  55              	@ -freorder-functions -frerun-cse-after-loop
  56              	@ -fsched-critical-path-heuristic -fsched-dep-count-heuristic
  57              	@ -fsched-group-heuristic -fsched-interblock -fsched-last-insn-heuristic
ARM GAS  /var/folders/z0/6xlwn_996xz3mwq1cgzkbq4r0000gp/T//ccjFFqvf.s 			page 2


  58              	@ -fsched-pressure -fsched-rank-heuristic -fsched-spec
  59              	@ -fsched-spec-insn-heuristic -fsched-stalled-insns-dep -fschedule-insns2
  60              	@ -fsection-anchors -fsemantic-interposition -fshow-column -fshrink-wrap
  61              	@ -fsigned-zeros -fsplit-ivs-in-unroller -fsplit-wide-types -fssa-phiopt
  62              	@ -fstdarg-opt -fstrict-aliasing -fstrict-overflow
  63              	@ -fstrict-volatile-bitfields -fsync-libcalls -fthread-jumps
  64              	@ -ftoplevel-reorder -ftrapping-math -ftree-bit-ccp -ftree-builtin-call-dce
  65              	@ -ftree-ccp -ftree-ch -ftree-coalesce-vars -ftree-copy-prop
  66              	@ -ftree-copyrename -ftree-cselim -ftree-dce -ftree-dominator-opts
  67              	@ -ftree-dse -ftree-forwprop -ftree-fre -ftree-loop-if-convert
  68              	@ -ftree-loop-im -ftree-loop-ivcanon -ftree-loop-optimize
  69              	@ -ftree-parallelize-loops= -ftree-phiprop -ftree-pre -ftree-pta
  70              	@ -ftree-reassoc -ftree-scev-cprop -ftree-sink -ftree-slsr -ftree-sra
  71              	@ -ftree-switch-conversion -ftree-tail-merge -ftree-ter -ftree-vrp
  72              	@ -funit-at-a-time -fvar-tracking -fvar-tracking-assignments -fverbose-asm
  73              	@ -fzero-initialized-in-bss -mlittle-endian -mpic-data-is-text-relative
  74              	@ -msched-prolog -mthumb -mvectorize-with-neon-quad
  75              	
  76              		.text
  77              	.Ltext0:
  78              		.cfi_sections	.debug_frame
  79              		.section	.text.Chip_PMU_SleepState,"ax",%progbits
  80              		.align	2
  81              		.global	Chip_PMU_SleepState
  82              		.code	16
  83              		.thumb_func
  84              		.type	Chip_PMU_SleepState, %function
  85              	Chip_PMU_SleepState:
  86              	.LFB198:
  87              		.file 1 "../../lib/lpc11cx4-library/lpc_chip_11cxx_lib/src/pmu_11xx.c"
   1:../../lib/lpc11cx4-library/lpc_chip_11cxx_lib/src/pmu_11xx.c **** /*
   2:../../lib/lpc11cx4-library/lpc_chip_11cxx_lib/src/pmu_11xx.c ****  * @brief LPC11xx PMU chip driver
   3:../../lib/lpc11cx4-library/lpc_chip_11cxx_lib/src/pmu_11xx.c ****  *
   4:../../lib/lpc11cx4-library/lpc_chip_11cxx_lib/src/pmu_11xx.c ****  * @note
   5:../../lib/lpc11cx4-library/lpc_chip_11cxx_lib/src/pmu_11xx.c ****  * Copyright(C) NXP Semiconductors, 2013
   6:../../lib/lpc11cx4-library/lpc_chip_11cxx_lib/src/pmu_11xx.c ****  * All rights reserved.
   7:../../lib/lpc11cx4-library/lpc_chip_11cxx_lib/src/pmu_11xx.c ****  *
   8:../../lib/lpc11cx4-library/lpc_chip_11cxx_lib/src/pmu_11xx.c ****  * @par
   9:../../lib/lpc11cx4-library/lpc_chip_11cxx_lib/src/pmu_11xx.c ****  * Software that is described herein is for illustrative purposes only
  10:../../lib/lpc11cx4-library/lpc_chip_11cxx_lib/src/pmu_11xx.c ****  * which provides customers with programming information regarding the
  11:../../lib/lpc11cx4-library/lpc_chip_11cxx_lib/src/pmu_11xx.c ****  * LPC products.  This software is supplied "AS IS" without any warranties of
  12:../../lib/lpc11cx4-library/lpc_chip_11cxx_lib/src/pmu_11xx.c ****  * any kind, and NXP Semiconductors and its licensor disclaim any and
  13:../../lib/lpc11cx4-library/lpc_chip_11cxx_lib/src/pmu_11xx.c ****  * all warranties, express or implied, including all implied warranties of
  14:../../lib/lpc11cx4-library/lpc_chip_11cxx_lib/src/pmu_11xx.c ****  * merchantability, fitness for a particular purpose and non-infringement of
  15:../../lib/lpc11cx4-library/lpc_chip_11cxx_lib/src/pmu_11xx.c ****  * intellectual property rights.  NXP Semiconductors assumes no responsibility
  16:../../lib/lpc11cx4-library/lpc_chip_11cxx_lib/src/pmu_11xx.c ****  * or liability for the use of the software, conveys no license or rights under any
  17:../../lib/lpc11cx4-library/lpc_chip_11cxx_lib/src/pmu_11xx.c ****  * patent, copyright, mask work right, or any other intellectual property rights in
  18:../../lib/lpc11cx4-library/lpc_chip_11cxx_lib/src/pmu_11xx.c ****  * or to any products. NXP Semiconductors reserves the right to make changes
  19:../../lib/lpc11cx4-library/lpc_chip_11cxx_lib/src/pmu_11xx.c ****  * in the software without notification. NXP Semiconductors also makes no
  20:../../lib/lpc11cx4-library/lpc_chip_11cxx_lib/src/pmu_11xx.c ****  * representation or warranty that such application will be suitable for the
  21:../../lib/lpc11cx4-library/lpc_chip_11cxx_lib/src/pmu_11xx.c ****  * specified use without further testing or modification.
  22:../../lib/lpc11cx4-library/lpc_chip_11cxx_lib/src/pmu_11xx.c ****  *
  23:../../lib/lpc11cx4-library/lpc_chip_11cxx_lib/src/pmu_11xx.c ****  * @par
  24:../../lib/lpc11cx4-library/lpc_chip_11cxx_lib/src/pmu_11xx.c ****  * Permission to use, copy, modify, and distribute this software and its
  25:../../lib/lpc11cx4-library/lpc_chip_11cxx_lib/src/pmu_11xx.c ****  * documentation is hereby granted, under NXP Semiconductors' and its
  26:../../lib/lpc11cx4-library/lpc_chip_11cxx_lib/src/pmu_11xx.c ****  * licensor's relevant copyrights in the software, without fee, provided that it
  27:../../lib/lpc11cx4-library/lpc_chip_11cxx_lib/src/pmu_11xx.c ****  * is used in conjunction with NXP Semiconductors microcontrollers.  This
ARM GAS  /var/folders/z0/6xlwn_996xz3mwq1cgzkbq4r0000gp/T//ccjFFqvf.s 			page 3


  28:../../lib/lpc11cx4-library/lpc_chip_11cxx_lib/src/pmu_11xx.c ****  * copyright, permission, and disclaimer notice must appear in all copies of
  29:../../lib/lpc11cx4-library/lpc_chip_11cxx_lib/src/pmu_11xx.c ****  * this code.
  30:../../lib/lpc11cx4-library/lpc_chip_11cxx_lib/src/pmu_11xx.c ****  */
  31:../../lib/lpc11cx4-library/lpc_chip_11cxx_lib/src/pmu_11xx.c **** 
  32:../../lib/lpc11cx4-library/lpc_chip_11cxx_lib/src/pmu_11xx.c **** #include "chip.h"
  33:../../lib/lpc11cx4-library/lpc_chip_11cxx_lib/src/pmu_11xx.c **** 
  34:../../lib/lpc11cx4-library/lpc_chip_11cxx_lib/src/pmu_11xx.c **** #if defined(CHIP_LPC11AXX) || defined(CHIP_LPC11CXX) || defined(CHIP_LPC11EXX) || defined(CHIP_LPC1
  35:../../lib/lpc11cx4-library/lpc_chip_11cxx_lib/src/pmu_11xx.c **** 
  36:../../lib/lpc11cx4-library/lpc_chip_11cxx_lib/src/pmu_11xx.c **** /*****************************************************************************
  37:../../lib/lpc11cx4-library/lpc_chip_11cxx_lib/src/pmu_11xx.c ****  * Private types/enumerations/variables
  38:../../lib/lpc11cx4-library/lpc_chip_11cxx_lib/src/pmu_11xx.c ****  ****************************************************************************/
  39:../../lib/lpc11cx4-library/lpc_chip_11cxx_lib/src/pmu_11xx.c **** 
  40:../../lib/lpc11cx4-library/lpc_chip_11cxx_lib/src/pmu_11xx.c **** /*****************************************************************************
  41:../../lib/lpc11cx4-library/lpc_chip_11cxx_lib/src/pmu_11xx.c ****  * Public types/enumerations/variables
  42:../../lib/lpc11cx4-library/lpc_chip_11cxx_lib/src/pmu_11xx.c ****  ****************************************************************************/
  43:../../lib/lpc11cx4-library/lpc_chip_11cxx_lib/src/pmu_11xx.c **** 
  44:../../lib/lpc11cx4-library/lpc_chip_11cxx_lib/src/pmu_11xx.c **** /*****************************************************************************
  45:../../lib/lpc11cx4-library/lpc_chip_11cxx_lib/src/pmu_11xx.c ****  * Private functions
  46:../../lib/lpc11cx4-library/lpc_chip_11cxx_lib/src/pmu_11xx.c ****  ****************************************************************************/
  47:../../lib/lpc11cx4-library/lpc_chip_11cxx_lib/src/pmu_11xx.c **** 
  48:../../lib/lpc11cx4-library/lpc_chip_11cxx_lib/src/pmu_11xx.c **** /*****************************************************************************
  49:../../lib/lpc11cx4-library/lpc_chip_11cxx_lib/src/pmu_11xx.c ****  * Public functions
  50:../../lib/lpc11cx4-library/lpc_chip_11cxx_lib/src/pmu_11xx.c ****  ****************************************************************************/
  51:../../lib/lpc11cx4-library/lpc_chip_11cxx_lib/src/pmu_11xx.c **** 
  52:../../lib/lpc11cx4-library/lpc_chip_11cxx_lib/src/pmu_11xx.c **** /* Enter MCU Sleep mode */
  53:../../lib/lpc11cx4-library/lpc_chip_11cxx_lib/src/pmu_11xx.c **** void Chip_PMU_SleepState(LPC_PMU_T *pPMU)
  54:../../lib/lpc11cx4-library/lpc_chip_11cxx_lib/src/pmu_11xx.c **** {
  88              		.loc 1 54 0
  89              		.cfi_startproc
  90              		@ args = 0, pretend = 0, frame = 0
  91              		@ frame_needed = 0, uses_anonymous_args = 0
  92              		@ link register save eliminated.
  93              	.LVL0:
  55:../../lib/lpc11cx4-library/lpc_chip_11cxx_lib/src/pmu_11xx.c **** 	pPMU->PCON = PMU_PCON_PM_SLEEP;
  94              		.loc 1 55 0
  95 0000 0023     		movs	r3, #0	@ tmp111,
  96 0002 0360     		str	r3, [r0]	@ tmp111, pPMU_2(D)->PCON
  97              	.LBB10:
  98              	.LBB11:
  99              		.file 2 "../../lib/lpc11cx4-library/lpc_chip_11cxx_lib/inc/core_cmInstr.h"
   1:../../lib/lpc11cx4-library/lpc_chip_11cxx_lib/inc/core_cmInstr.h **** /**************************************************************************//**
   2:../../lib/lpc11cx4-library/lpc_chip_11cxx_lib/inc/core_cmInstr.h ****  * @file     core_cmInstr.h
   3:../../lib/lpc11cx4-library/lpc_chip_11cxx_lib/inc/core_cmInstr.h ****  * @brief    CMSIS Cortex-M Core Instruction Access Header File
   4:../../lib/lpc11cx4-library/lpc_chip_11cxx_lib/inc/core_cmInstr.h ****  * @version  V3.01
   5:../../lib/lpc11cx4-library/lpc_chip_11cxx_lib/inc/core_cmInstr.h ****  * @date     06. March 2012
   6:../../lib/lpc11cx4-library/lpc_chip_11cxx_lib/inc/core_cmInstr.h ****  *
   7:../../lib/lpc11cx4-library/lpc_chip_11cxx_lib/inc/core_cmInstr.h ****  * @note
   8:../../lib/lpc11cx4-library/lpc_chip_11cxx_lib/inc/core_cmInstr.h ****  * Copyright (C) 2009-2012 ARM Limited. All rights reserved.
   9:../../lib/lpc11cx4-library/lpc_chip_11cxx_lib/inc/core_cmInstr.h ****  *
  10:../../lib/lpc11cx4-library/lpc_chip_11cxx_lib/inc/core_cmInstr.h ****  * @par
  11:../../lib/lpc11cx4-library/lpc_chip_11cxx_lib/inc/core_cmInstr.h ****  * ARM Limited (ARM) is supplying this software for use with Cortex-M
  12:../../lib/lpc11cx4-library/lpc_chip_11cxx_lib/inc/core_cmInstr.h ****  * processor based microcontrollers.  This file can be freely distributed
  13:../../lib/lpc11cx4-library/lpc_chip_11cxx_lib/inc/core_cmInstr.h ****  * within development tools that are supporting such ARM based processors.
  14:../../lib/lpc11cx4-library/lpc_chip_11cxx_lib/inc/core_cmInstr.h ****  *
  15:../../lib/lpc11cx4-library/lpc_chip_11cxx_lib/inc/core_cmInstr.h ****  * @par
  16:../../lib/lpc11cx4-library/lpc_chip_11cxx_lib/inc/core_cmInstr.h ****  * THIS SOFTWARE IS PROVIDED "AS IS".  NO WARRANTIES, WHETHER EXPRESS, IMPLIED
  17:../../lib/lpc11cx4-library/lpc_chip_11cxx_lib/inc/core_cmInstr.h ****  * OR STATUTORY, INCLUDING, BUT NOT LIMITED TO, IMPLIED WARRANTIES OF
ARM GAS  /var/folders/z0/6xlwn_996xz3mwq1cgzkbq4r0000gp/T//ccjFFqvf.s 			page 4


  18:../../lib/lpc11cx4-library/lpc_chip_11cxx_lib/inc/core_cmInstr.h ****  * MERCHANTABILITY AND FITNESS FOR A PARTICULAR PURPOSE APPLY TO THIS SOFTWARE.
  19:../../lib/lpc11cx4-library/lpc_chip_11cxx_lib/inc/core_cmInstr.h ****  * ARM SHALL NOT, IN ANY CIRCUMSTANCES, BE LIABLE FOR SPECIAL, INCIDENTAL, OR
  20:../../lib/lpc11cx4-library/lpc_chip_11cxx_lib/inc/core_cmInstr.h ****  * CONSEQUENTIAL DAMAGES, FOR ANY REASON WHATSOEVER.
  21:../../lib/lpc11cx4-library/lpc_chip_11cxx_lib/inc/core_cmInstr.h ****  *
  22:../../lib/lpc11cx4-library/lpc_chip_11cxx_lib/inc/core_cmInstr.h ****  ******************************************************************************/
  23:../../lib/lpc11cx4-library/lpc_chip_11cxx_lib/inc/core_cmInstr.h **** 
  24:../../lib/lpc11cx4-library/lpc_chip_11cxx_lib/inc/core_cmInstr.h **** #ifndef __CORE_CMINSTR_H
  25:../../lib/lpc11cx4-library/lpc_chip_11cxx_lib/inc/core_cmInstr.h **** #define __CORE_CMINSTR_H
  26:../../lib/lpc11cx4-library/lpc_chip_11cxx_lib/inc/core_cmInstr.h **** 
  27:../../lib/lpc11cx4-library/lpc_chip_11cxx_lib/inc/core_cmInstr.h **** 
  28:../../lib/lpc11cx4-library/lpc_chip_11cxx_lib/inc/core_cmInstr.h **** /* ##########################  Core Instruction Access  ######################### */
  29:../../lib/lpc11cx4-library/lpc_chip_11cxx_lib/inc/core_cmInstr.h **** /** \defgroup CMSIS_Core_InstructionInterface CMSIS Core Instruction Interface
  30:../../lib/lpc11cx4-library/lpc_chip_11cxx_lib/inc/core_cmInstr.h ****   Access to dedicated instructions
  31:../../lib/lpc11cx4-library/lpc_chip_11cxx_lib/inc/core_cmInstr.h ****   @{
  32:../../lib/lpc11cx4-library/lpc_chip_11cxx_lib/inc/core_cmInstr.h **** */
  33:../../lib/lpc11cx4-library/lpc_chip_11cxx_lib/inc/core_cmInstr.h **** 
  34:../../lib/lpc11cx4-library/lpc_chip_11cxx_lib/inc/core_cmInstr.h **** #if   defined ( __CC_ARM ) /*------------------RealView Compiler -----------------*/
  35:../../lib/lpc11cx4-library/lpc_chip_11cxx_lib/inc/core_cmInstr.h **** /* ARM armcc specific functions */
  36:../../lib/lpc11cx4-library/lpc_chip_11cxx_lib/inc/core_cmInstr.h **** 
  37:../../lib/lpc11cx4-library/lpc_chip_11cxx_lib/inc/core_cmInstr.h **** #if (__ARMCC_VERSION < 400677)
  38:../../lib/lpc11cx4-library/lpc_chip_11cxx_lib/inc/core_cmInstr.h ****   #error "Please use ARM Compiler Toolchain V4.0.677 or later!"
  39:../../lib/lpc11cx4-library/lpc_chip_11cxx_lib/inc/core_cmInstr.h **** #endif
  40:../../lib/lpc11cx4-library/lpc_chip_11cxx_lib/inc/core_cmInstr.h **** 
  41:../../lib/lpc11cx4-library/lpc_chip_11cxx_lib/inc/core_cmInstr.h **** 
  42:../../lib/lpc11cx4-library/lpc_chip_11cxx_lib/inc/core_cmInstr.h **** /** \brief  No Operation
  43:../../lib/lpc11cx4-library/lpc_chip_11cxx_lib/inc/core_cmInstr.h **** 
  44:../../lib/lpc11cx4-library/lpc_chip_11cxx_lib/inc/core_cmInstr.h ****     No Operation does nothing. This instruction can be used for code alignment purposes.
  45:../../lib/lpc11cx4-library/lpc_chip_11cxx_lib/inc/core_cmInstr.h ****  */
  46:../../lib/lpc11cx4-library/lpc_chip_11cxx_lib/inc/core_cmInstr.h **** #define __NOP                             __nop
  47:../../lib/lpc11cx4-library/lpc_chip_11cxx_lib/inc/core_cmInstr.h **** 
  48:../../lib/lpc11cx4-library/lpc_chip_11cxx_lib/inc/core_cmInstr.h **** 
  49:../../lib/lpc11cx4-library/lpc_chip_11cxx_lib/inc/core_cmInstr.h **** /** \brief  Wait For Interrupt
  50:../../lib/lpc11cx4-library/lpc_chip_11cxx_lib/inc/core_cmInstr.h **** 
  51:../../lib/lpc11cx4-library/lpc_chip_11cxx_lib/inc/core_cmInstr.h ****     Wait For Interrupt is a hint instruction that suspends execution
  52:../../lib/lpc11cx4-library/lpc_chip_11cxx_lib/inc/core_cmInstr.h ****     until one of a number of events occurs.
  53:../../lib/lpc11cx4-library/lpc_chip_11cxx_lib/inc/core_cmInstr.h ****  */
  54:../../lib/lpc11cx4-library/lpc_chip_11cxx_lib/inc/core_cmInstr.h **** #define __WFI                             __wfi
  55:../../lib/lpc11cx4-library/lpc_chip_11cxx_lib/inc/core_cmInstr.h **** 
  56:../../lib/lpc11cx4-library/lpc_chip_11cxx_lib/inc/core_cmInstr.h **** 
  57:../../lib/lpc11cx4-library/lpc_chip_11cxx_lib/inc/core_cmInstr.h **** /** \brief  Wait For Event
  58:../../lib/lpc11cx4-library/lpc_chip_11cxx_lib/inc/core_cmInstr.h **** 
  59:../../lib/lpc11cx4-library/lpc_chip_11cxx_lib/inc/core_cmInstr.h ****     Wait For Event is a hint instruction that permits the processor to enter
  60:../../lib/lpc11cx4-library/lpc_chip_11cxx_lib/inc/core_cmInstr.h ****     a low-power state until one of a number of events occurs.
  61:../../lib/lpc11cx4-library/lpc_chip_11cxx_lib/inc/core_cmInstr.h ****  */
  62:../../lib/lpc11cx4-library/lpc_chip_11cxx_lib/inc/core_cmInstr.h **** #define __WFE                             __wfe
  63:../../lib/lpc11cx4-library/lpc_chip_11cxx_lib/inc/core_cmInstr.h **** 
  64:../../lib/lpc11cx4-library/lpc_chip_11cxx_lib/inc/core_cmInstr.h **** 
  65:../../lib/lpc11cx4-library/lpc_chip_11cxx_lib/inc/core_cmInstr.h **** /** \brief  Send Event
  66:../../lib/lpc11cx4-library/lpc_chip_11cxx_lib/inc/core_cmInstr.h **** 
  67:../../lib/lpc11cx4-library/lpc_chip_11cxx_lib/inc/core_cmInstr.h ****     Send Event is a hint instruction. It causes an event to be signaled to the CPU.
  68:../../lib/lpc11cx4-library/lpc_chip_11cxx_lib/inc/core_cmInstr.h ****  */
  69:../../lib/lpc11cx4-library/lpc_chip_11cxx_lib/inc/core_cmInstr.h **** #define __SEV                             __sev
  70:../../lib/lpc11cx4-library/lpc_chip_11cxx_lib/inc/core_cmInstr.h **** 
  71:../../lib/lpc11cx4-library/lpc_chip_11cxx_lib/inc/core_cmInstr.h **** 
  72:../../lib/lpc11cx4-library/lpc_chip_11cxx_lib/inc/core_cmInstr.h **** /** \brief  Instruction Synchronization Barrier
  73:../../lib/lpc11cx4-library/lpc_chip_11cxx_lib/inc/core_cmInstr.h **** 
  74:../../lib/lpc11cx4-library/lpc_chip_11cxx_lib/inc/core_cmInstr.h ****     Instruction Synchronization Barrier flushes the pipeline in the processor,
ARM GAS  /var/folders/z0/6xlwn_996xz3mwq1cgzkbq4r0000gp/T//ccjFFqvf.s 			page 5


  75:../../lib/lpc11cx4-library/lpc_chip_11cxx_lib/inc/core_cmInstr.h ****     so that all instructions following the ISB are fetched from cache or
  76:../../lib/lpc11cx4-library/lpc_chip_11cxx_lib/inc/core_cmInstr.h ****     memory, after the instruction has been completed.
  77:../../lib/lpc11cx4-library/lpc_chip_11cxx_lib/inc/core_cmInstr.h ****  */
  78:../../lib/lpc11cx4-library/lpc_chip_11cxx_lib/inc/core_cmInstr.h **** #define __ISB()                           __isb(0xF)
  79:../../lib/lpc11cx4-library/lpc_chip_11cxx_lib/inc/core_cmInstr.h **** 
  80:../../lib/lpc11cx4-library/lpc_chip_11cxx_lib/inc/core_cmInstr.h **** 
  81:../../lib/lpc11cx4-library/lpc_chip_11cxx_lib/inc/core_cmInstr.h **** /** \brief  Data Synchronization Barrier
  82:../../lib/lpc11cx4-library/lpc_chip_11cxx_lib/inc/core_cmInstr.h **** 
  83:../../lib/lpc11cx4-library/lpc_chip_11cxx_lib/inc/core_cmInstr.h ****     This function acts as a special kind of Data Memory Barrier.
  84:../../lib/lpc11cx4-library/lpc_chip_11cxx_lib/inc/core_cmInstr.h ****     It completes when all explicit memory accesses before this instruction complete.
  85:../../lib/lpc11cx4-library/lpc_chip_11cxx_lib/inc/core_cmInstr.h ****  */
  86:../../lib/lpc11cx4-library/lpc_chip_11cxx_lib/inc/core_cmInstr.h **** #define __DSB()                           __dsb(0xF)
  87:../../lib/lpc11cx4-library/lpc_chip_11cxx_lib/inc/core_cmInstr.h **** 
  88:../../lib/lpc11cx4-library/lpc_chip_11cxx_lib/inc/core_cmInstr.h **** 
  89:../../lib/lpc11cx4-library/lpc_chip_11cxx_lib/inc/core_cmInstr.h **** /** \brief  Data Memory Barrier
  90:../../lib/lpc11cx4-library/lpc_chip_11cxx_lib/inc/core_cmInstr.h **** 
  91:../../lib/lpc11cx4-library/lpc_chip_11cxx_lib/inc/core_cmInstr.h ****     This function ensures the apparent order of the explicit memory operations before
  92:../../lib/lpc11cx4-library/lpc_chip_11cxx_lib/inc/core_cmInstr.h ****     and after the instruction, without ensuring their completion.
  93:../../lib/lpc11cx4-library/lpc_chip_11cxx_lib/inc/core_cmInstr.h ****  */
  94:../../lib/lpc11cx4-library/lpc_chip_11cxx_lib/inc/core_cmInstr.h **** #define __DMB()                           __dmb(0xF)
  95:../../lib/lpc11cx4-library/lpc_chip_11cxx_lib/inc/core_cmInstr.h **** 
  96:../../lib/lpc11cx4-library/lpc_chip_11cxx_lib/inc/core_cmInstr.h **** 
  97:../../lib/lpc11cx4-library/lpc_chip_11cxx_lib/inc/core_cmInstr.h **** /** \brief  Reverse byte order (32 bit)
  98:../../lib/lpc11cx4-library/lpc_chip_11cxx_lib/inc/core_cmInstr.h **** 
  99:../../lib/lpc11cx4-library/lpc_chip_11cxx_lib/inc/core_cmInstr.h ****     This function reverses the byte order in integer value.
 100:../../lib/lpc11cx4-library/lpc_chip_11cxx_lib/inc/core_cmInstr.h **** 
 101:../../lib/lpc11cx4-library/lpc_chip_11cxx_lib/inc/core_cmInstr.h ****     \param [in]    value  Value to reverse
 102:../../lib/lpc11cx4-library/lpc_chip_11cxx_lib/inc/core_cmInstr.h ****     \return               Reversed value
 103:../../lib/lpc11cx4-library/lpc_chip_11cxx_lib/inc/core_cmInstr.h ****  */
 104:../../lib/lpc11cx4-library/lpc_chip_11cxx_lib/inc/core_cmInstr.h **** #define __REV                             __rev
 105:../../lib/lpc11cx4-library/lpc_chip_11cxx_lib/inc/core_cmInstr.h **** 
 106:../../lib/lpc11cx4-library/lpc_chip_11cxx_lib/inc/core_cmInstr.h **** 
 107:../../lib/lpc11cx4-library/lpc_chip_11cxx_lib/inc/core_cmInstr.h **** /** \brief  Reverse byte order (16 bit)
 108:../../lib/lpc11cx4-library/lpc_chip_11cxx_lib/inc/core_cmInstr.h **** 
 109:../../lib/lpc11cx4-library/lpc_chip_11cxx_lib/inc/core_cmInstr.h ****     This function reverses the byte order in two unsigned short values.
 110:../../lib/lpc11cx4-library/lpc_chip_11cxx_lib/inc/core_cmInstr.h **** 
 111:../../lib/lpc11cx4-library/lpc_chip_11cxx_lib/inc/core_cmInstr.h ****     \param [in]    value  Value to reverse
 112:../../lib/lpc11cx4-library/lpc_chip_11cxx_lib/inc/core_cmInstr.h ****     \return               Reversed value
 113:../../lib/lpc11cx4-library/lpc_chip_11cxx_lib/inc/core_cmInstr.h ****  */
 114:../../lib/lpc11cx4-library/lpc_chip_11cxx_lib/inc/core_cmInstr.h **** __attribute__((section(".rev16_text"))) __STATIC_INLINE __ASM uint32_t __REV16(uint32_t value)
 115:../../lib/lpc11cx4-library/lpc_chip_11cxx_lib/inc/core_cmInstr.h **** {
 116:../../lib/lpc11cx4-library/lpc_chip_11cxx_lib/inc/core_cmInstr.h ****   rev16 r0, r0
 117:../../lib/lpc11cx4-library/lpc_chip_11cxx_lib/inc/core_cmInstr.h ****   bx lr
 118:../../lib/lpc11cx4-library/lpc_chip_11cxx_lib/inc/core_cmInstr.h **** }
 119:../../lib/lpc11cx4-library/lpc_chip_11cxx_lib/inc/core_cmInstr.h **** 
 120:../../lib/lpc11cx4-library/lpc_chip_11cxx_lib/inc/core_cmInstr.h **** 
 121:../../lib/lpc11cx4-library/lpc_chip_11cxx_lib/inc/core_cmInstr.h **** /** \brief  Reverse byte order in signed short value
 122:../../lib/lpc11cx4-library/lpc_chip_11cxx_lib/inc/core_cmInstr.h **** 
 123:../../lib/lpc11cx4-library/lpc_chip_11cxx_lib/inc/core_cmInstr.h ****     This function reverses the byte order in a signed short value with sign extension to integer.
 124:../../lib/lpc11cx4-library/lpc_chip_11cxx_lib/inc/core_cmInstr.h **** 
 125:../../lib/lpc11cx4-library/lpc_chip_11cxx_lib/inc/core_cmInstr.h ****     \param [in]    value  Value to reverse
 126:../../lib/lpc11cx4-library/lpc_chip_11cxx_lib/inc/core_cmInstr.h ****     \return               Reversed value
 127:../../lib/lpc11cx4-library/lpc_chip_11cxx_lib/inc/core_cmInstr.h ****  */
 128:../../lib/lpc11cx4-library/lpc_chip_11cxx_lib/inc/core_cmInstr.h **** __attribute__((section(".revsh_text"))) __STATIC_INLINE __ASM int32_t __REVSH(int32_t value)
 129:../../lib/lpc11cx4-library/lpc_chip_11cxx_lib/inc/core_cmInstr.h **** {
 130:../../lib/lpc11cx4-library/lpc_chip_11cxx_lib/inc/core_cmInstr.h ****   revsh r0, r0
 131:../../lib/lpc11cx4-library/lpc_chip_11cxx_lib/inc/core_cmInstr.h ****   bx lr
ARM GAS  /var/folders/z0/6xlwn_996xz3mwq1cgzkbq4r0000gp/T//ccjFFqvf.s 			page 6


 132:../../lib/lpc11cx4-library/lpc_chip_11cxx_lib/inc/core_cmInstr.h **** }
 133:../../lib/lpc11cx4-library/lpc_chip_11cxx_lib/inc/core_cmInstr.h **** 
 134:../../lib/lpc11cx4-library/lpc_chip_11cxx_lib/inc/core_cmInstr.h **** 
 135:../../lib/lpc11cx4-library/lpc_chip_11cxx_lib/inc/core_cmInstr.h **** /** \brief  Rotate Right in unsigned value (32 bit)
 136:../../lib/lpc11cx4-library/lpc_chip_11cxx_lib/inc/core_cmInstr.h **** 
 137:../../lib/lpc11cx4-library/lpc_chip_11cxx_lib/inc/core_cmInstr.h ****     This function Rotate Right (immediate) provides the value of the contents of a register rotated
 138:../../lib/lpc11cx4-library/lpc_chip_11cxx_lib/inc/core_cmInstr.h **** 
 139:../../lib/lpc11cx4-library/lpc_chip_11cxx_lib/inc/core_cmInstr.h ****     \param [in]    value  Value to rotate
 140:../../lib/lpc11cx4-library/lpc_chip_11cxx_lib/inc/core_cmInstr.h ****     \param [in]    value  Number of Bits to rotate
 141:../../lib/lpc11cx4-library/lpc_chip_11cxx_lib/inc/core_cmInstr.h ****     \return               Rotated value
 142:../../lib/lpc11cx4-library/lpc_chip_11cxx_lib/inc/core_cmInstr.h ****  */
 143:../../lib/lpc11cx4-library/lpc_chip_11cxx_lib/inc/core_cmInstr.h **** #define __ROR                             __ror
 144:../../lib/lpc11cx4-library/lpc_chip_11cxx_lib/inc/core_cmInstr.h **** 
 145:../../lib/lpc11cx4-library/lpc_chip_11cxx_lib/inc/core_cmInstr.h **** 
 146:../../lib/lpc11cx4-library/lpc_chip_11cxx_lib/inc/core_cmInstr.h **** #if       (__CORTEX_M >= 0x03)
 147:../../lib/lpc11cx4-library/lpc_chip_11cxx_lib/inc/core_cmInstr.h **** 
 148:../../lib/lpc11cx4-library/lpc_chip_11cxx_lib/inc/core_cmInstr.h **** /** \brief  Reverse bit order of value
 149:../../lib/lpc11cx4-library/lpc_chip_11cxx_lib/inc/core_cmInstr.h **** 
 150:../../lib/lpc11cx4-library/lpc_chip_11cxx_lib/inc/core_cmInstr.h ****     This function reverses the bit order of the given value.
 151:../../lib/lpc11cx4-library/lpc_chip_11cxx_lib/inc/core_cmInstr.h **** 
 152:../../lib/lpc11cx4-library/lpc_chip_11cxx_lib/inc/core_cmInstr.h ****     \param [in]    value  Value to reverse
 153:../../lib/lpc11cx4-library/lpc_chip_11cxx_lib/inc/core_cmInstr.h ****     \return               Reversed value
 154:../../lib/lpc11cx4-library/lpc_chip_11cxx_lib/inc/core_cmInstr.h ****  */
 155:../../lib/lpc11cx4-library/lpc_chip_11cxx_lib/inc/core_cmInstr.h **** #define __RBIT                            __rbit
 156:../../lib/lpc11cx4-library/lpc_chip_11cxx_lib/inc/core_cmInstr.h **** 
 157:../../lib/lpc11cx4-library/lpc_chip_11cxx_lib/inc/core_cmInstr.h **** 
 158:../../lib/lpc11cx4-library/lpc_chip_11cxx_lib/inc/core_cmInstr.h **** /** \brief  LDR Exclusive (8 bit)
 159:../../lib/lpc11cx4-library/lpc_chip_11cxx_lib/inc/core_cmInstr.h **** 
 160:../../lib/lpc11cx4-library/lpc_chip_11cxx_lib/inc/core_cmInstr.h ****     This function performs a exclusive LDR command for 8 bit value.
 161:../../lib/lpc11cx4-library/lpc_chip_11cxx_lib/inc/core_cmInstr.h **** 
 162:../../lib/lpc11cx4-library/lpc_chip_11cxx_lib/inc/core_cmInstr.h ****     \param [in]    ptr  Pointer to data
 163:../../lib/lpc11cx4-library/lpc_chip_11cxx_lib/inc/core_cmInstr.h ****     \return             value of type uint8_t at (*ptr)
 164:../../lib/lpc11cx4-library/lpc_chip_11cxx_lib/inc/core_cmInstr.h ****  */
 165:../../lib/lpc11cx4-library/lpc_chip_11cxx_lib/inc/core_cmInstr.h **** #define __LDREXB(ptr)                     ((uint8_t ) __ldrex(ptr))
 166:../../lib/lpc11cx4-library/lpc_chip_11cxx_lib/inc/core_cmInstr.h **** 
 167:../../lib/lpc11cx4-library/lpc_chip_11cxx_lib/inc/core_cmInstr.h **** 
 168:../../lib/lpc11cx4-library/lpc_chip_11cxx_lib/inc/core_cmInstr.h **** /** \brief  LDR Exclusive (16 bit)
 169:../../lib/lpc11cx4-library/lpc_chip_11cxx_lib/inc/core_cmInstr.h **** 
 170:../../lib/lpc11cx4-library/lpc_chip_11cxx_lib/inc/core_cmInstr.h ****     This function performs a exclusive LDR command for 16 bit values.
 171:../../lib/lpc11cx4-library/lpc_chip_11cxx_lib/inc/core_cmInstr.h **** 
 172:../../lib/lpc11cx4-library/lpc_chip_11cxx_lib/inc/core_cmInstr.h ****     \param [in]    ptr  Pointer to data
 173:../../lib/lpc11cx4-library/lpc_chip_11cxx_lib/inc/core_cmInstr.h ****     \return        value of type uint16_t at (*ptr)
 174:../../lib/lpc11cx4-library/lpc_chip_11cxx_lib/inc/core_cmInstr.h ****  */
 175:../../lib/lpc11cx4-library/lpc_chip_11cxx_lib/inc/core_cmInstr.h **** #define __LDREXH(ptr)                     ((uint16_t) __ldrex(ptr))
 176:../../lib/lpc11cx4-library/lpc_chip_11cxx_lib/inc/core_cmInstr.h **** 
 177:../../lib/lpc11cx4-library/lpc_chip_11cxx_lib/inc/core_cmInstr.h **** 
 178:../../lib/lpc11cx4-library/lpc_chip_11cxx_lib/inc/core_cmInstr.h **** /** \brief  LDR Exclusive (32 bit)
 179:../../lib/lpc11cx4-library/lpc_chip_11cxx_lib/inc/core_cmInstr.h **** 
 180:../../lib/lpc11cx4-library/lpc_chip_11cxx_lib/inc/core_cmInstr.h ****     This function performs a exclusive LDR command for 32 bit values.
 181:../../lib/lpc11cx4-library/lpc_chip_11cxx_lib/inc/core_cmInstr.h **** 
 182:../../lib/lpc11cx4-library/lpc_chip_11cxx_lib/inc/core_cmInstr.h ****     \param [in]    ptr  Pointer to data
 183:../../lib/lpc11cx4-library/lpc_chip_11cxx_lib/inc/core_cmInstr.h ****     \return        value of type uint32_t at (*ptr)
 184:../../lib/lpc11cx4-library/lpc_chip_11cxx_lib/inc/core_cmInstr.h ****  */
 185:../../lib/lpc11cx4-library/lpc_chip_11cxx_lib/inc/core_cmInstr.h **** #define __LDREXW(ptr)                     ((uint32_t ) __ldrex(ptr))
 186:../../lib/lpc11cx4-library/lpc_chip_11cxx_lib/inc/core_cmInstr.h **** 
 187:../../lib/lpc11cx4-library/lpc_chip_11cxx_lib/inc/core_cmInstr.h **** 
 188:../../lib/lpc11cx4-library/lpc_chip_11cxx_lib/inc/core_cmInstr.h **** /** \brief  STR Exclusive (8 bit)
ARM GAS  /var/folders/z0/6xlwn_996xz3mwq1cgzkbq4r0000gp/T//ccjFFqvf.s 			page 7


 189:../../lib/lpc11cx4-library/lpc_chip_11cxx_lib/inc/core_cmInstr.h **** 
 190:../../lib/lpc11cx4-library/lpc_chip_11cxx_lib/inc/core_cmInstr.h ****     This function performs a exclusive STR command for 8 bit values.
 191:../../lib/lpc11cx4-library/lpc_chip_11cxx_lib/inc/core_cmInstr.h **** 
 192:../../lib/lpc11cx4-library/lpc_chip_11cxx_lib/inc/core_cmInstr.h ****     \param [in]  value  Value to store
 193:../../lib/lpc11cx4-library/lpc_chip_11cxx_lib/inc/core_cmInstr.h ****     \param [in]    ptr  Pointer to location
 194:../../lib/lpc11cx4-library/lpc_chip_11cxx_lib/inc/core_cmInstr.h ****     \return          0  Function succeeded
 195:../../lib/lpc11cx4-library/lpc_chip_11cxx_lib/inc/core_cmInstr.h ****     \return          1  Function failed
 196:../../lib/lpc11cx4-library/lpc_chip_11cxx_lib/inc/core_cmInstr.h ****  */
 197:../../lib/lpc11cx4-library/lpc_chip_11cxx_lib/inc/core_cmInstr.h **** #define __STREXB(value, ptr)              __strex(value, ptr)
 198:../../lib/lpc11cx4-library/lpc_chip_11cxx_lib/inc/core_cmInstr.h **** 
 199:../../lib/lpc11cx4-library/lpc_chip_11cxx_lib/inc/core_cmInstr.h **** 
 200:../../lib/lpc11cx4-library/lpc_chip_11cxx_lib/inc/core_cmInstr.h **** /** \brief  STR Exclusive (16 bit)
 201:../../lib/lpc11cx4-library/lpc_chip_11cxx_lib/inc/core_cmInstr.h **** 
 202:../../lib/lpc11cx4-library/lpc_chip_11cxx_lib/inc/core_cmInstr.h ****     This function performs a exclusive STR command for 16 bit values.
 203:../../lib/lpc11cx4-library/lpc_chip_11cxx_lib/inc/core_cmInstr.h **** 
 204:../../lib/lpc11cx4-library/lpc_chip_11cxx_lib/inc/core_cmInstr.h ****     \param [in]  value  Value to store
 205:../../lib/lpc11cx4-library/lpc_chip_11cxx_lib/inc/core_cmInstr.h ****     \param [in]    ptr  Pointer to location
 206:../../lib/lpc11cx4-library/lpc_chip_11cxx_lib/inc/core_cmInstr.h ****     \return          0  Function succeeded
 207:../../lib/lpc11cx4-library/lpc_chip_11cxx_lib/inc/core_cmInstr.h ****     \return          1  Function failed
 208:../../lib/lpc11cx4-library/lpc_chip_11cxx_lib/inc/core_cmInstr.h ****  */
 209:../../lib/lpc11cx4-library/lpc_chip_11cxx_lib/inc/core_cmInstr.h **** #define __STREXH(value, ptr)              __strex(value, ptr)
 210:../../lib/lpc11cx4-library/lpc_chip_11cxx_lib/inc/core_cmInstr.h **** 
 211:../../lib/lpc11cx4-library/lpc_chip_11cxx_lib/inc/core_cmInstr.h **** 
 212:../../lib/lpc11cx4-library/lpc_chip_11cxx_lib/inc/core_cmInstr.h **** /** \brief  STR Exclusive (32 bit)
 213:../../lib/lpc11cx4-library/lpc_chip_11cxx_lib/inc/core_cmInstr.h **** 
 214:../../lib/lpc11cx4-library/lpc_chip_11cxx_lib/inc/core_cmInstr.h ****     This function performs a exclusive STR command for 32 bit values.
 215:../../lib/lpc11cx4-library/lpc_chip_11cxx_lib/inc/core_cmInstr.h **** 
 216:../../lib/lpc11cx4-library/lpc_chip_11cxx_lib/inc/core_cmInstr.h ****     \param [in]  value  Value to store
 217:../../lib/lpc11cx4-library/lpc_chip_11cxx_lib/inc/core_cmInstr.h ****     \param [in]    ptr  Pointer to location
 218:../../lib/lpc11cx4-library/lpc_chip_11cxx_lib/inc/core_cmInstr.h ****     \return          0  Function succeeded
 219:../../lib/lpc11cx4-library/lpc_chip_11cxx_lib/inc/core_cmInstr.h ****     \return          1  Function failed
 220:../../lib/lpc11cx4-library/lpc_chip_11cxx_lib/inc/core_cmInstr.h ****  */
 221:../../lib/lpc11cx4-library/lpc_chip_11cxx_lib/inc/core_cmInstr.h **** #define __STREXW(value, ptr)              __strex(value, ptr)
 222:../../lib/lpc11cx4-library/lpc_chip_11cxx_lib/inc/core_cmInstr.h **** 
 223:../../lib/lpc11cx4-library/lpc_chip_11cxx_lib/inc/core_cmInstr.h **** 
 224:../../lib/lpc11cx4-library/lpc_chip_11cxx_lib/inc/core_cmInstr.h **** /** \brief  Remove the exclusive lock
 225:../../lib/lpc11cx4-library/lpc_chip_11cxx_lib/inc/core_cmInstr.h **** 
 226:../../lib/lpc11cx4-library/lpc_chip_11cxx_lib/inc/core_cmInstr.h ****     This function removes the exclusive lock which is created by LDREX.
 227:../../lib/lpc11cx4-library/lpc_chip_11cxx_lib/inc/core_cmInstr.h **** 
 228:../../lib/lpc11cx4-library/lpc_chip_11cxx_lib/inc/core_cmInstr.h ****  */
 229:../../lib/lpc11cx4-library/lpc_chip_11cxx_lib/inc/core_cmInstr.h **** #define __CLREX                           __clrex
 230:../../lib/lpc11cx4-library/lpc_chip_11cxx_lib/inc/core_cmInstr.h **** 
 231:../../lib/lpc11cx4-library/lpc_chip_11cxx_lib/inc/core_cmInstr.h **** 
 232:../../lib/lpc11cx4-library/lpc_chip_11cxx_lib/inc/core_cmInstr.h **** /** \brief  Signed Saturate
 233:../../lib/lpc11cx4-library/lpc_chip_11cxx_lib/inc/core_cmInstr.h **** 
 234:../../lib/lpc11cx4-library/lpc_chip_11cxx_lib/inc/core_cmInstr.h ****     This function saturates a signed value.
 235:../../lib/lpc11cx4-library/lpc_chip_11cxx_lib/inc/core_cmInstr.h **** 
 236:../../lib/lpc11cx4-library/lpc_chip_11cxx_lib/inc/core_cmInstr.h ****     \param [in]  value  Value to be saturated
 237:../../lib/lpc11cx4-library/lpc_chip_11cxx_lib/inc/core_cmInstr.h ****     \param [in]    sat  Bit position to saturate to (1..32)
 238:../../lib/lpc11cx4-library/lpc_chip_11cxx_lib/inc/core_cmInstr.h ****     \return             Saturated value
 239:../../lib/lpc11cx4-library/lpc_chip_11cxx_lib/inc/core_cmInstr.h ****  */
 240:../../lib/lpc11cx4-library/lpc_chip_11cxx_lib/inc/core_cmInstr.h **** #define __SSAT                            __ssat
 241:../../lib/lpc11cx4-library/lpc_chip_11cxx_lib/inc/core_cmInstr.h **** 
 242:../../lib/lpc11cx4-library/lpc_chip_11cxx_lib/inc/core_cmInstr.h **** 
 243:../../lib/lpc11cx4-library/lpc_chip_11cxx_lib/inc/core_cmInstr.h **** /** \brief  Unsigned Saturate
 244:../../lib/lpc11cx4-library/lpc_chip_11cxx_lib/inc/core_cmInstr.h **** 
 245:../../lib/lpc11cx4-library/lpc_chip_11cxx_lib/inc/core_cmInstr.h ****     This function saturates an unsigned value.
ARM GAS  /var/folders/z0/6xlwn_996xz3mwq1cgzkbq4r0000gp/T//ccjFFqvf.s 			page 8


 246:../../lib/lpc11cx4-library/lpc_chip_11cxx_lib/inc/core_cmInstr.h **** 
 247:../../lib/lpc11cx4-library/lpc_chip_11cxx_lib/inc/core_cmInstr.h ****     \param [in]  value  Value to be saturated
 248:../../lib/lpc11cx4-library/lpc_chip_11cxx_lib/inc/core_cmInstr.h ****     \param [in]    sat  Bit position to saturate to (0..31)
 249:../../lib/lpc11cx4-library/lpc_chip_11cxx_lib/inc/core_cmInstr.h ****     \return             Saturated value
 250:../../lib/lpc11cx4-library/lpc_chip_11cxx_lib/inc/core_cmInstr.h ****  */
 251:../../lib/lpc11cx4-library/lpc_chip_11cxx_lib/inc/core_cmInstr.h **** #define __USAT                            __usat
 252:../../lib/lpc11cx4-library/lpc_chip_11cxx_lib/inc/core_cmInstr.h **** 
 253:../../lib/lpc11cx4-library/lpc_chip_11cxx_lib/inc/core_cmInstr.h **** 
 254:../../lib/lpc11cx4-library/lpc_chip_11cxx_lib/inc/core_cmInstr.h **** /** \brief  Count leading zeros
 255:../../lib/lpc11cx4-library/lpc_chip_11cxx_lib/inc/core_cmInstr.h **** 
 256:../../lib/lpc11cx4-library/lpc_chip_11cxx_lib/inc/core_cmInstr.h ****     This function counts the number of leading zeros of a data value.
 257:../../lib/lpc11cx4-library/lpc_chip_11cxx_lib/inc/core_cmInstr.h **** 
 258:../../lib/lpc11cx4-library/lpc_chip_11cxx_lib/inc/core_cmInstr.h ****     \param [in]  value  Value to count the leading zeros
 259:../../lib/lpc11cx4-library/lpc_chip_11cxx_lib/inc/core_cmInstr.h ****     \return             number of leading zeros in value
 260:../../lib/lpc11cx4-library/lpc_chip_11cxx_lib/inc/core_cmInstr.h ****  */
 261:../../lib/lpc11cx4-library/lpc_chip_11cxx_lib/inc/core_cmInstr.h **** #define __CLZ                             __clz
 262:../../lib/lpc11cx4-library/lpc_chip_11cxx_lib/inc/core_cmInstr.h **** 
 263:../../lib/lpc11cx4-library/lpc_chip_11cxx_lib/inc/core_cmInstr.h **** #endif /* (__CORTEX_M >= 0x03) */
 264:../../lib/lpc11cx4-library/lpc_chip_11cxx_lib/inc/core_cmInstr.h **** 
 265:../../lib/lpc11cx4-library/lpc_chip_11cxx_lib/inc/core_cmInstr.h **** 
 266:../../lib/lpc11cx4-library/lpc_chip_11cxx_lib/inc/core_cmInstr.h **** 
 267:../../lib/lpc11cx4-library/lpc_chip_11cxx_lib/inc/core_cmInstr.h **** #elif defined ( __ICCARM__ ) /*------------------ ICC Compiler -------------------*/
 268:../../lib/lpc11cx4-library/lpc_chip_11cxx_lib/inc/core_cmInstr.h **** /* IAR iccarm specific functions */
 269:../../lib/lpc11cx4-library/lpc_chip_11cxx_lib/inc/core_cmInstr.h **** 
 270:../../lib/lpc11cx4-library/lpc_chip_11cxx_lib/inc/core_cmInstr.h **** #include <cmsis_iar.h>
 271:../../lib/lpc11cx4-library/lpc_chip_11cxx_lib/inc/core_cmInstr.h **** 
 272:../../lib/lpc11cx4-library/lpc_chip_11cxx_lib/inc/core_cmInstr.h **** 
 273:../../lib/lpc11cx4-library/lpc_chip_11cxx_lib/inc/core_cmInstr.h **** #elif defined ( __TMS470__ ) /*---------------- TI CCS Compiler ------------------*/
 274:../../lib/lpc11cx4-library/lpc_chip_11cxx_lib/inc/core_cmInstr.h **** /* TI CCS specific functions */
 275:../../lib/lpc11cx4-library/lpc_chip_11cxx_lib/inc/core_cmInstr.h **** 
 276:../../lib/lpc11cx4-library/lpc_chip_11cxx_lib/inc/core_cmInstr.h **** #include <cmsis_ccs.h>
 277:../../lib/lpc11cx4-library/lpc_chip_11cxx_lib/inc/core_cmInstr.h **** 
 278:../../lib/lpc11cx4-library/lpc_chip_11cxx_lib/inc/core_cmInstr.h **** 
 279:../../lib/lpc11cx4-library/lpc_chip_11cxx_lib/inc/core_cmInstr.h **** #elif defined ( __GNUC__ ) /*------------------ GNU Compiler ---------------------*/
 280:../../lib/lpc11cx4-library/lpc_chip_11cxx_lib/inc/core_cmInstr.h **** /* GNU gcc specific functions */
 281:../../lib/lpc11cx4-library/lpc_chip_11cxx_lib/inc/core_cmInstr.h **** 
 282:../../lib/lpc11cx4-library/lpc_chip_11cxx_lib/inc/core_cmInstr.h **** /** \brief  No Operation
 283:../../lib/lpc11cx4-library/lpc_chip_11cxx_lib/inc/core_cmInstr.h **** 
 284:../../lib/lpc11cx4-library/lpc_chip_11cxx_lib/inc/core_cmInstr.h ****     No Operation does nothing. This instruction can be used for code alignment purposes.
 285:../../lib/lpc11cx4-library/lpc_chip_11cxx_lib/inc/core_cmInstr.h ****  */
 286:../../lib/lpc11cx4-library/lpc_chip_11cxx_lib/inc/core_cmInstr.h **** __attribute__( ( always_inline ) ) __STATIC_INLINE void __NOP(void)
 287:../../lib/lpc11cx4-library/lpc_chip_11cxx_lib/inc/core_cmInstr.h **** {
 288:../../lib/lpc11cx4-library/lpc_chip_11cxx_lib/inc/core_cmInstr.h ****   __ASM volatile ("nop");
 289:../../lib/lpc11cx4-library/lpc_chip_11cxx_lib/inc/core_cmInstr.h **** }
 290:../../lib/lpc11cx4-library/lpc_chip_11cxx_lib/inc/core_cmInstr.h **** 
 291:../../lib/lpc11cx4-library/lpc_chip_11cxx_lib/inc/core_cmInstr.h **** 
 292:../../lib/lpc11cx4-library/lpc_chip_11cxx_lib/inc/core_cmInstr.h **** /** \brief  Wait For Interrupt
 293:../../lib/lpc11cx4-library/lpc_chip_11cxx_lib/inc/core_cmInstr.h **** 
 294:../../lib/lpc11cx4-library/lpc_chip_11cxx_lib/inc/core_cmInstr.h ****     Wait For Interrupt is a hint instruction that suspends execution
 295:../../lib/lpc11cx4-library/lpc_chip_11cxx_lib/inc/core_cmInstr.h ****     until one of a number of events occurs.
 296:../../lib/lpc11cx4-library/lpc_chip_11cxx_lib/inc/core_cmInstr.h ****  */
 297:../../lib/lpc11cx4-library/lpc_chip_11cxx_lib/inc/core_cmInstr.h **** __attribute__( ( always_inline ) ) __STATIC_INLINE void __WFI(void)
 298:../../lib/lpc11cx4-library/lpc_chip_11cxx_lib/inc/core_cmInstr.h **** {
 299:../../lib/lpc11cx4-library/lpc_chip_11cxx_lib/inc/core_cmInstr.h ****   __ASM volatile ("wfi");
 100              		.loc 2 299 0
 101              		.syntax divided
 102              	@ 299 "../../lib/lpc11cx4-library/lpc_chip_11cxx_lib/inc/core_cmInstr.h" 1
ARM GAS  /var/folders/z0/6xlwn_996xz3mwq1cgzkbq4r0000gp/T//ccjFFqvf.s 			page 9


 103 0004 30BF     		wfi
 104              	@ 0 "" 2
 105              		.thumb
 106              		.syntax unified
 107              	.LBE11:
 108              	.LBE10:
  56:../../lib/lpc11cx4-library/lpc_chip_11cxx_lib/src/pmu_11xx.c **** 
  57:../../lib/lpc11cx4-library/lpc_chip_11cxx_lib/src/pmu_11xx.c **** 	/* Enter sleep mode */
  58:../../lib/lpc11cx4-library/lpc_chip_11cxx_lib/src/pmu_11xx.c **** 	__WFI();
  59:../../lib/lpc11cx4-library/lpc_chip_11cxx_lib/src/pmu_11xx.c **** }
 109              		.loc 1 59 0
 110              		@ sp needed	@
 111 0006 7047     		bx	lr
 112              		.cfi_endproc
 113              	.LFE198:
 114              		.size	Chip_PMU_SleepState, .-Chip_PMU_SleepState
 115              		.section	.text.Chip_PMU_DeepPowerDownState,"ax",%progbits
 116              		.align	2
 117              		.global	Chip_PMU_DeepPowerDownState
 118              		.code	16
 119              		.thumb_func
 120              		.type	Chip_PMU_DeepPowerDownState, %function
 121              	Chip_PMU_DeepPowerDownState:
 122              	.LFB199:
  60:../../lib/lpc11cx4-library/lpc_chip_11cxx_lib/src/pmu_11xx.c **** 
  61:../../lib/lpc11cx4-library/lpc_chip_11cxx_lib/src/pmu_11xx.c **** #if defined(CHIP_LPC11AXX) || defined(CHIP_LPC11EXX) || defined(CHIP_LPC11UXX)
  62:../../lib/lpc11cx4-library/lpc_chip_11cxx_lib/src/pmu_11xx.c **** /* Enter MCU Deep Sleep mode */
  63:../../lib/lpc11cx4-library/lpc_chip_11cxx_lib/src/pmu_11xx.c **** void Chip_PMU_DeepSleepState(LPC_PMU_T *pPMU)
  64:../../lib/lpc11cx4-library/lpc_chip_11cxx_lib/src/pmu_11xx.c **** {
  65:../../lib/lpc11cx4-library/lpc_chip_11cxx_lib/src/pmu_11xx.c **** 	SCB->SCR |= (1UL << SCB_SCR_SLEEPDEEP_Pos);
  66:../../lib/lpc11cx4-library/lpc_chip_11cxx_lib/src/pmu_11xx.c **** 	pPMU->PCON = PMU_PCON_PM_DEEPSLEEP;
  67:../../lib/lpc11cx4-library/lpc_chip_11cxx_lib/src/pmu_11xx.c **** 
  68:../../lib/lpc11cx4-library/lpc_chip_11cxx_lib/src/pmu_11xx.c **** 	/* Enter sleep mode */
  69:../../lib/lpc11cx4-library/lpc_chip_11cxx_lib/src/pmu_11xx.c **** 	__WFI();
  70:../../lib/lpc11cx4-library/lpc_chip_11cxx_lib/src/pmu_11xx.c **** }
  71:../../lib/lpc11cx4-library/lpc_chip_11cxx_lib/src/pmu_11xx.c **** 
  72:../../lib/lpc11cx4-library/lpc_chip_11cxx_lib/src/pmu_11xx.c **** /* Enter MCU Power down mode */
  73:../../lib/lpc11cx4-library/lpc_chip_11cxx_lib/src/pmu_11xx.c **** void Chip_PMU_PowerDownState(LPC_PMU_T *pPMU)
  74:../../lib/lpc11cx4-library/lpc_chip_11cxx_lib/src/pmu_11xx.c **** {
  75:../../lib/lpc11cx4-library/lpc_chip_11cxx_lib/src/pmu_11xx.c **** 	SCB->SCR |= (1UL << SCB_SCR_SLEEPDEEP_Pos);
  76:../../lib/lpc11cx4-library/lpc_chip_11cxx_lib/src/pmu_11xx.c **** 	pPMU->PCON = PMU_PCON_PM_POWERDOWN;
  77:../../lib/lpc11cx4-library/lpc_chip_11cxx_lib/src/pmu_11xx.c **** 
  78:../../lib/lpc11cx4-library/lpc_chip_11cxx_lib/src/pmu_11xx.c **** 	/* Enter sleep mode */
  79:../../lib/lpc11cx4-library/lpc_chip_11cxx_lib/src/pmu_11xx.c **** 	__WFI();
  80:../../lib/lpc11cx4-library/lpc_chip_11cxx_lib/src/pmu_11xx.c **** }
  81:../../lib/lpc11cx4-library/lpc_chip_11cxx_lib/src/pmu_11xx.c **** #endif /* defined(CHIP_LPC11AXX) || defined(CHIP_LPC11EXX) || defined(CHIP_LPC11UXX) */
  82:../../lib/lpc11cx4-library/lpc_chip_11cxx_lib/src/pmu_11xx.c **** 
  83:../../lib/lpc11cx4-library/lpc_chip_11cxx_lib/src/pmu_11xx.c **** /* Enter MCU Deep Power down mode */
  84:../../lib/lpc11cx4-library/lpc_chip_11cxx_lib/src/pmu_11xx.c **** void Chip_PMU_DeepPowerDownState(LPC_PMU_T *pPMU)
  85:../../lib/lpc11cx4-library/lpc_chip_11cxx_lib/src/pmu_11xx.c **** {
 123              		.loc 1 85 0
 124              		.cfi_startproc
 125              		@ args = 0, pretend = 0, frame = 0
 126              		@ frame_needed = 0, uses_anonymous_args = 0
 127              		@ link register save eliminated.
 128              	.LVL1:
  86:../../lib/lpc11cx4-library/lpc_chip_11cxx_lib/src/pmu_11xx.c **** 	SCB->SCR |= (1UL << SCB_SCR_SLEEPDEEP_Pos);
ARM GAS  /var/folders/z0/6xlwn_996xz3mwq1cgzkbq4r0000gp/T//ccjFFqvf.s 			page 10


 129              		.loc 1 86 0
 130 0000 0423     		movs	r3, #4	@ tmp114,
 131 0002 044A     		ldr	r2, .L3	@ tmp113,
 132 0004 1169     		ldr	r1, [r2, #16]	@ D.6176, MEM[(struct SCB_Type *)3758157056B].SCR
 133 0006 0B43     		orrs	r3, r1	@ D.6176, D.6176
 134 0008 1361     		str	r3, [r2, #16]	@ D.6176, MEM[(struct SCB_Type *)3758157056B].SCR
  87:../../lib/lpc11cx4-library/lpc_chip_11cxx_lib/src/pmu_11xx.c **** 	pPMU->PCON = PMU_PCON_PM_DEEPPOWERDOWN;
 135              		.loc 1 87 0
 136 000a 0223     		movs	r3, #2	@ tmp116,
 137 000c 0360     		str	r3, [r0]	@ tmp116, pPMU_5(D)->PCON
 138              	.LBB12:
 139              	.LBB13:
 140              		.loc 2 299 0
 141              		.syntax divided
 142              	@ 299 "../../lib/lpc11cx4-library/lpc_chip_11cxx_lib/inc/core_cmInstr.h" 1
 143 000e 30BF     		wfi
 144              	@ 0 "" 2
 145              		.thumb
 146              		.syntax unified
 147              	.LBE13:
 148              	.LBE12:
  88:../../lib/lpc11cx4-library/lpc_chip_11cxx_lib/src/pmu_11xx.c **** 
  89:../../lib/lpc11cx4-library/lpc_chip_11cxx_lib/src/pmu_11xx.c **** 	/* Enter sleep mode */
  90:../../lib/lpc11cx4-library/lpc_chip_11cxx_lib/src/pmu_11xx.c **** 	__WFI();
  91:../../lib/lpc11cx4-library/lpc_chip_11cxx_lib/src/pmu_11xx.c **** }
 149              		.loc 1 91 0
 150              		@ sp needed	@
 151 0010 7047     		bx	lr
 152              	.L4:
 153 0012 C046     		.align	2
 154              	.L3:
 155 0014 00ED00E0 		.word	-536810240
 156              		.cfi_endproc
 157              	.LFE199:
 158              		.size	Chip_PMU_DeepPowerDownState, .-Chip_PMU_DeepPowerDownState
 159              		.section	.text.Chip_PMU_Sleep,"ax",%progbits
 160              		.align	2
 161              		.global	Chip_PMU_Sleep
 162              		.code	16
 163              		.thumb_func
 164              		.type	Chip_PMU_Sleep, %function
 165              	Chip_PMU_Sleep:
 166              	.LFB200:
  92:../../lib/lpc11cx4-library/lpc_chip_11cxx_lib/src/pmu_11xx.c **** 
  93:../../lib/lpc11cx4-library/lpc_chip_11cxx_lib/src/pmu_11xx.c **** /* Put some of the peripheral in sleep mode */
  94:../../lib/lpc11cx4-library/lpc_chip_11cxx_lib/src/pmu_11xx.c **** void Chip_PMU_Sleep(LPC_PMU_T *pPMU, CHIP_PMU_MCUPOWER_T SleepMode)
  95:../../lib/lpc11cx4-library/lpc_chip_11cxx_lib/src/pmu_11xx.c **** {
 167              		.loc 1 95 0
 168              		.cfi_startproc
 169              		@ args = 0, pretend = 0, frame = 0
 170              		@ frame_needed = 0, uses_anonymous_args = 0
 171              		@ link register save eliminated.
 172              	.LVL2:
  96:../../lib/lpc11cx4-library/lpc_chip_11cxx_lib/src/pmu_11xx.c **** #if defined(CHIP_LPC11AXX) || defined(CHIP_LPC11EXX) || defined(CHIP_LPC11UXX)
  97:../../lib/lpc11cx4-library/lpc_chip_11cxx_lib/src/pmu_11xx.c **** 	if (SleepMode == PMU_MCU_DEEP_SLEEP) {
  98:../../lib/lpc11cx4-library/lpc_chip_11cxx_lib/src/pmu_11xx.c **** 		Chip_PMU_DeepSleepState(pPMU);
  99:../../lib/lpc11cx4-library/lpc_chip_11cxx_lib/src/pmu_11xx.c **** 	}
ARM GAS  /var/folders/z0/6xlwn_996xz3mwq1cgzkbq4r0000gp/T//ccjFFqvf.s 			page 11


 100:../../lib/lpc11cx4-library/lpc_chip_11cxx_lib/src/pmu_11xx.c **** 	else if (SleepMode == PMU_MCU_POWER_DOWN) {
 101:../../lib/lpc11cx4-library/lpc_chip_11cxx_lib/src/pmu_11xx.c **** 		Chip_PMU_PowerDownState(pPMU);
 102:../../lib/lpc11cx4-library/lpc_chip_11cxx_lib/src/pmu_11xx.c **** 	}
 103:../../lib/lpc11cx4-library/lpc_chip_11cxx_lib/src/pmu_11xx.c **** 	else if (SleepMode == PMU_MCU_DEEP_PWRDOWN) {
 104:../../lib/lpc11cx4-library/lpc_chip_11cxx_lib/src/pmu_11xx.c **** 		Chip_PMU_DeepPowerDownState(pPMU);
 105:../../lib/lpc11cx4-library/lpc_chip_11cxx_lib/src/pmu_11xx.c **** 	}
 106:../../lib/lpc11cx4-library/lpc_chip_11cxx_lib/src/pmu_11xx.c **** 	else {
 107:../../lib/lpc11cx4-library/lpc_chip_11cxx_lib/src/pmu_11xx.c **** 		/* PMU_MCU_SLEEP */
 108:../../lib/lpc11cx4-library/lpc_chip_11cxx_lib/src/pmu_11xx.c **** 		Chip_PMU_SleepState(pPMU);
 109:../../lib/lpc11cx4-library/lpc_chip_11cxx_lib/src/pmu_11xx.c **** 	}
 110:../../lib/lpc11cx4-library/lpc_chip_11cxx_lib/src/pmu_11xx.c **** #elif defined(CHIP_LPC11CXX)
 111:../../lib/lpc11cx4-library/lpc_chip_11cxx_lib/src/pmu_11xx.c **** 	if (SleepMode == PMU_MCU_DEEP_PWRDOWN) {
 173              		.loc 1 111 0
 174 0000 0329     		cmp	r1, #3	@ SleepMode,
 175 0002 07D1     		bne	.L5	@,
 176              	.LVL3:
 177              	.LBB14:
 178              	.LBB15:
  86:../../lib/lpc11cx4-library/lpc_chip_11cxx_lib/src/pmu_11xx.c **** 	pPMU->PCON = PMU_PCON_PM_DEEPPOWERDOWN;
 179              		.loc 1 86 0
 180 0004 0423     		movs	r3, #4	@ tmp115,
 181 0006 044A     		ldr	r2, .L8	@ tmp114,
 182 0008 1169     		ldr	r1, [r2, #16]	@ D.6179, MEM[(struct SCB_Type *)3758157056B].SCR
 183              	.LVL4:
 184 000a 0B43     		orrs	r3, r1	@ D.6179, D.6179
 185 000c 1361     		str	r3, [r2, #16]	@ D.6179, MEM[(struct SCB_Type *)3758157056B].SCR
  87:../../lib/lpc11cx4-library/lpc_chip_11cxx_lib/src/pmu_11xx.c **** 
 186              		.loc 1 87 0
 187 000e 0223     		movs	r3, #2	@ tmp117,
 188 0010 0360     		str	r3, [r0]	@ tmp117, pPMU_4(D)->PCON
 189              	.LBB16:
 190              	.LBB17:
 191              		.loc 2 299 0
 192              		.syntax divided
 193              	@ 299 "../../lib/lpc11cx4-library/lpc_chip_11cxx_lib/inc/core_cmInstr.h" 1
 194 0012 30BF     		wfi
 195              	@ 0 "" 2
 196              	.LVL5:
 197              		.thumb
 198              		.syntax unified
 199              	.L5:
 200              	.LBE17:
 201              	.LBE16:
 202              	.LBE15:
 203              	.LBE14:
 112:../../lib/lpc11cx4-library/lpc_chip_11cxx_lib/src/pmu_11xx.c **** 		Chip_PMU_DeepPowerDownState(pPMU);
 113:../../lib/lpc11cx4-library/lpc_chip_11cxx_lib/src/pmu_11xx.c **** 	}
 114:../../lib/lpc11cx4-library/lpc_chip_11cxx_lib/src/pmu_11xx.c **** #endif /* defined(CHIP_LPC11AXX) || defined(CHIP_LPC11EXX) || defined(CHIP_LPC11UXX) */
 115:../../lib/lpc11cx4-library/lpc_chip_11cxx_lib/src/pmu_11xx.c **** }
 204              		.loc 1 115 0
 205              		@ sp needed	@
 206 0014 7047     		bx	lr
 207              	.L9:
 208 0016 C046     		.align	2
 209              	.L8:
 210 0018 00ED00E0 		.word	-536810240
 211              		.cfi_endproc
ARM GAS  /var/folders/z0/6xlwn_996xz3mwq1cgzkbq4r0000gp/T//ccjFFqvf.s 			page 12


 212              	.LFE200:
 213              		.size	Chip_PMU_Sleep, .-Chip_PMU_Sleep
 214              		.text
 215              	.Letext0:
 216              		.file 3 "/usr/local/Cellar/gcc-arm-none-eabi/20160928/arm-none-eabi/include/machine/_default_types
 217              		.file 4 "/usr/local/Cellar/gcc-arm-none-eabi/20160928/arm-none-eabi/include/sys/_stdint.h"
 218              		.file 5 "../../lib/lpc11cx4-library/lpc_chip_11cxx_lib/inc/core_cm0.h"
 219              		.file 6 "../../lib/lpc11cx4-library/lpc_chip_11cxx_lib/inc/pmu_11xx.h"
 220              		.file 7 "../../lib/lpc11cx4-library/lpc_chip_11cxx_lib/inc/chip.h"