ARM GAS  /var/folders/z0/6xlwn_996xz3mwq1cgzkbq4r0000gp/T//cchvq4ef.s 			page 1


   1              		.syntax unified
   2              		.cpu cortex-m0
   3              		.fpu softvfp
   4              		.eabi_attribute 20, 1	@ Tag_ABI_FP_denormal
   5              		.eabi_attribute 21, 1	@ Tag_ABI_FP_exceptions
   6              		.eabi_attribute 23, 3	@ Tag_ABI_FP_number_model
   7              		.eabi_attribute 24, 1	@ Tag_ABI_align8_needed
   8              		.eabi_attribute 25, 1	@ Tag_ABI_align8_preserved
   9              		.eabi_attribute 26, 1	@ Tag_ABI_enum_size
  10              		.eabi_attribute 30, 2	@ Tag_ABI_optimization_goals
  11              		.eabi_attribute 34, 0	@ Tag_CPU_unaligned_access
  12              		.eabi_attribute 18, 4	@ Tag_ABI_PCS_wchar_t
  13              		.file	"ring_buffer.c"
  14              	@ GNU C89 (GNU Tools for ARM Embedded Processors) version 5.4.1 20160919 (release) [ARM/embedded-5-
  15              	@	compiled by GNU C version 4.2.1 (Based on Apple Inc. build 5658) (LLVM build 2336.9.00), GMP vers
  16              	@ GGC heuristics: --param ggc-min-expand=100 --param ggc-min-heapsize=131072
  17              	@ options passed:  -I . -I inc/
  18              	@ -I ../../lib/lpc11cx4-library/lpc_chip_11cxx_lib/inc
  19              	@ -I ../../lib/lpc11cx4-library/evt_lib/inc/ -I ../../lib/CANlib
  20              	@ -imultilib armv6-m
  21              	@ -iprefix /usr/local/Cellar/gcc-arm-none-eabi/20160928/bin/../lib/gcc/arm-none-eabi/5.4.1/
  22              	@ -isysroot /usr/local/Cellar/gcc-arm-none-eabi/20160928/bin/../arm-none-eabi
  23              	@ -MD bin/ring_buffer.d -MF bin/ring_buffer.d -MP -MQ bin/ring_buffer.o
  24              	@ -D__USES_INITFINI__ -D UART_BAUD=57600 -D CORE_M0 -D DEBUG_ENABLE
  25              	@ -D FSAE_DRIVERS -D CAN_ARCHITECTURE_ARM
  26              	@ ../../lib/lpc11cx4-library/lpc_chip_11cxx_lib/src/ring_buffer.c
  27              	@ -mcpu=cortex-m0 -mthumb -auxbase-strip bin/ring_buffer.o -g -ggdb3 -O2
  28              	@ -Wall -Wstrict-prototypes -Wextra -std=gnu90 -ffunction-sections
  29              	@ -fdata-sections -fdiagnostics-color=always -fverbose-asm
  30              	@ options enabled:  -faggressive-loop-optimizations -falign-functions
  31              	@ -falign-jumps -falign-labels -falign-loops -fauto-inc-dec
  32              	@ -fbranch-count-reg -fcaller-saves -fchkp-check-incomplete-type
  33              	@ -fchkp-check-read -fchkp-check-write -fchkp-instrument-calls
  34              	@ -fchkp-narrow-bounds -fchkp-optimize -fchkp-store-bounds
  35              	@ -fchkp-use-static-bounds -fchkp-use-static-const-bounds
  36              	@ -fchkp-use-wrappers -fcombine-stack-adjustments -fcommon -fcompare-elim
  37              	@ -fcprop-registers -fcrossjumping -fcse-follow-jumps -fdata-sections
  38              	@ -fdefer-pop -fdelete-null-pointer-checks -fdevirtualize
  39              	@ -fdevirtualize-speculatively -fdwarf2-cfi-asm -fearly-inlining
  40              	@ -feliminate-unused-debug-types -fexpensive-optimizations
  41              	@ -fforward-propagate -ffunction-cse -ffunction-sections -fgcse -fgcse-lm
  42              	@ -fgnu-runtime -fgnu-unique -fguess-branch-probability
  43              	@ -fhoist-adjacent-loads -fident -fif-conversion -fif-conversion2
  44              	@ -findirect-inlining -finline -finline-atomics
  45              	@ -finline-functions-called-once -finline-small-functions -fipa-cp
  46              	@ -fipa-cp-alignment -fipa-icf -fipa-icf-functions -fipa-icf-variables
  47              	@ -fipa-profile -fipa-pure-const -fipa-reference -fipa-sra
  48              	@ -fira-hoist-pressure -fira-share-save-slots -fira-share-spill-slots
  49              	@ -fisolate-erroneous-paths-dereference -fivopts -fkeep-static-consts
  50              	@ -fleading-underscore -flifetime-dse -flra-remat -flto-odr-type-merging
  51              	@ -fmath-errno -fmerge-constants -fmerge-debug-strings
  52              	@ -fmove-loop-invariants -fomit-frame-pointer -foptimize-sibling-calls
  53              	@ -foptimize-strlen -fpartial-inlining -fpeephole -fpeephole2
  54              	@ -fprefetch-loop-arrays -freg-struct-return -freorder-blocks
  55              	@ -freorder-functions -frerun-cse-after-loop
  56              	@ -fsched-critical-path-heuristic -fsched-dep-count-heuristic
  57              	@ -fsched-group-heuristic -fsched-interblock -fsched-last-insn-heuristic
ARM GAS  /var/folders/z0/6xlwn_996xz3mwq1cgzkbq4r0000gp/T//cchvq4ef.s 			page 2


  58              	@ -fsched-pressure -fsched-rank-heuristic -fsched-spec
  59              	@ -fsched-spec-insn-heuristic -fsched-stalled-insns-dep -fschedule-insns2
  60              	@ -fsection-anchors -fsemantic-interposition -fshow-column -fshrink-wrap
  61              	@ -fsigned-zeros -fsplit-ivs-in-unroller -fsplit-wide-types -fssa-phiopt
  62              	@ -fstdarg-opt -fstrict-aliasing -fstrict-overflow
  63              	@ -fstrict-volatile-bitfields -fsync-libcalls -fthread-jumps
  64              	@ -ftoplevel-reorder -ftrapping-math -ftree-bit-ccp -ftree-builtin-call-dce
  65              	@ -ftree-ccp -ftree-ch -ftree-coalesce-vars -ftree-copy-prop
  66              	@ -ftree-copyrename -ftree-cselim -ftree-dce -ftree-dominator-opts
  67              	@ -ftree-dse -ftree-forwprop -ftree-fre -ftree-loop-if-convert
  68              	@ -ftree-loop-im -ftree-loop-ivcanon -ftree-loop-optimize
  69              	@ -ftree-parallelize-loops= -ftree-phiprop -ftree-pre -ftree-pta
  70              	@ -ftree-reassoc -ftree-scev-cprop -ftree-sink -ftree-slsr -ftree-sra
  71              	@ -ftree-switch-conversion -ftree-tail-merge -ftree-ter -ftree-vrp
  72              	@ -funit-at-a-time -fvar-tracking -fvar-tracking-assignments -fverbose-asm
  73              	@ -fzero-initialized-in-bss -mlittle-endian -mpic-data-is-text-relative
  74              	@ -msched-prolog -mthumb -mvectorize-with-neon-quad
  75              	
  76              		.text
  77              	.Ltext0:
  78              		.cfi_sections	.debug_frame
  79              		.section	.text.RingBuffer_Init,"ax",%progbits
  80              		.align	2
  81              		.global	RingBuffer_Init
  82              		.code	16
  83              		.thumb_func
  84              		.type	RingBuffer_Init, %function
  85              	RingBuffer_Init:
  86              	.LFB6:
  87              		.file 1 "../../lib/lpc11cx4-library/lpc_chip_11cxx_lib/src/ring_buffer.c"
   1:../../lib/lpc11cx4-library/lpc_chip_11cxx_lib/src/ring_buffer.c **** /*
   2:../../lib/lpc11cx4-library/lpc_chip_11cxx_lib/src/ring_buffer.c ****  * @brief Common ring buffer support functions
   3:../../lib/lpc11cx4-library/lpc_chip_11cxx_lib/src/ring_buffer.c ****  *
   4:../../lib/lpc11cx4-library/lpc_chip_11cxx_lib/src/ring_buffer.c ****  * @note
   5:../../lib/lpc11cx4-library/lpc_chip_11cxx_lib/src/ring_buffer.c ****  * Copyright(C) NXP Semiconductors, 2012
   6:../../lib/lpc11cx4-library/lpc_chip_11cxx_lib/src/ring_buffer.c ****  * All rights reserved.
   7:../../lib/lpc11cx4-library/lpc_chip_11cxx_lib/src/ring_buffer.c ****  *
   8:../../lib/lpc11cx4-library/lpc_chip_11cxx_lib/src/ring_buffer.c ****  * @par
   9:../../lib/lpc11cx4-library/lpc_chip_11cxx_lib/src/ring_buffer.c ****  * Software that is described herein is for illustrative purposes only
  10:../../lib/lpc11cx4-library/lpc_chip_11cxx_lib/src/ring_buffer.c ****  * which provides customers with programming information regarding the
  11:../../lib/lpc11cx4-library/lpc_chip_11cxx_lib/src/ring_buffer.c ****  * LPC products.  This software is supplied "AS IS" without any warranties of
  12:../../lib/lpc11cx4-library/lpc_chip_11cxx_lib/src/ring_buffer.c ****  * any kind, and NXP Semiconductors and its licensor disclaim any and
  13:../../lib/lpc11cx4-library/lpc_chip_11cxx_lib/src/ring_buffer.c ****  * all warranties, express or implied, including all implied warranties of
  14:../../lib/lpc11cx4-library/lpc_chip_11cxx_lib/src/ring_buffer.c ****  * merchantability, fitness for a particular purpose and non-infringement of
  15:../../lib/lpc11cx4-library/lpc_chip_11cxx_lib/src/ring_buffer.c ****  * intellectual property rights.  NXP Semiconductors assumes no responsibility
  16:../../lib/lpc11cx4-library/lpc_chip_11cxx_lib/src/ring_buffer.c ****  * or liability for the use of the software, conveys no license or rights under any
  17:../../lib/lpc11cx4-library/lpc_chip_11cxx_lib/src/ring_buffer.c ****  * patent, copyright, mask work right, or any other intellectual property rights in
  18:../../lib/lpc11cx4-library/lpc_chip_11cxx_lib/src/ring_buffer.c ****  * or to any products. NXP Semiconductors reserves the right to make changes
  19:../../lib/lpc11cx4-library/lpc_chip_11cxx_lib/src/ring_buffer.c ****  * in the software without notification. NXP Semiconductors also makes no
  20:../../lib/lpc11cx4-library/lpc_chip_11cxx_lib/src/ring_buffer.c ****  * representation or warranty that such application will be suitable for the
  21:../../lib/lpc11cx4-library/lpc_chip_11cxx_lib/src/ring_buffer.c ****  * specified use without further testing or modification.
  22:../../lib/lpc11cx4-library/lpc_chip_11cxx_lib/src/ring_buffer.c ****  *
  23:../../lib/lpc11cx4-library/lpc_chip_11cxx_lib/src/ring_buffer.c ****  * @par
  24:../../lib/lpc11cx4-library/lpc_chip_11cxx_lib/src/ring_buffer.c ****  * Permission to use, copy, modify, and distribute this software and its
  25:../../lib/lpc11cx4-library/lpc_chip_11cxx_lib/src/ring_buffer.c ****  * documentation is hereby granted, under NXP Semiconductors' and its
  26:../../lib/lpc11cx4-library/lpc_chip_11cxx_lib/src/ring_buffer.c ****  * licensor's relevant copyrights in the software, without fee, provided that it
  27:../../lib/lpc11cx4-library/lpc_chip_11cxx_lib/src/ring_buffer.c ****  * is used in conjunction with NXP Semiconductors microcontrollers.  This
ARM GAS  /var/folders/z0/6xlwn_996xz3mwq1cgzkbq4r0000gp/T//cchvq4ef.s 			page 3


  28:../../lib/lpc11cx4-library/lpc_chip_11cxx_lib/src/ring_buffer.c ****  * copyright, permission, and disclaimer notice must appear in all copies of
  29:../../lib/lpc11cx4-library/lpc_chip_11cxx_lib/src/ring_buffer.c ****  * this code.
  30:../../lib/lpc11cx4-library/lpc_chip_11cxx_lib/src/ring_buffer.c ****  */
  31:../../lib/lpc11cx4-library/lpc_chip_11cxx_lib/src/ring_buffer.c **** 
  32:../../lib/lpc11cx4-library/lpc_chip_11cxx_lib/src/ring_buffer.c **** #include <string.h>
  33:../../lib/lpc11cx4-library/lpc_chip_11cxx_lib/src/ring_buffer.c **** #include "ring_buffer.h"
  34:../../lib/lpc11cx4-library/lpc_chip_11cxx_lib/src/ring_buffer.c **** 
  35:../../lib/lpc11cx4-library/lpc_chip_11cxx_lib/src/ring_buffer.c **** /*****************************************************************************
  36:../../lib/lpc11cx4-library/lpc_chip_11cxx_lib/src/ring_buffer.c ****  * Private types/enumerations/variables
  37:../../lib/lpc11cx4-library/lpc_chip_11cxx_lib/src/ring_buffer.c ****  ****************************************************************************/
  38:../../lib/lpc11cx4-library/lpc_chip_11cxx_lib/src/ring_buffer.c **** 
  39:../../lib/lpc11cx4-library/lpc_chip_11cxx_lib/src/ring_buffer.c **** #define RB_INDH(rb)                ((rb)->head % (rb)->count)
  40:../../lib/lpc11cx4-library/lpc_chip_11cxx_lib/src/ring_buffer.c **** #define RB_INDT(rb)                ((rb)->tail % (rb)->count)
  41:../../lib/lpc11cx4-library/lpc_chip_11cxx_lib/src/ring_buffer.c **** 
  42:../../lib/lpc11cx4-library/lpc_chip_11cxx_lib/src/ring_buffer.c **** /*****************************************************************************
  43:../../lib/lpc11cx4-library/lpc_chip_11cxx_lib/src/ring_buffer.c ****  * Public types/enumerations/variables
  44:../../lib/lpc11cx4-library/lpc_chip_11cxx_lib/src/ring_buffer.c ****  ****************************************************************************/
  45:../../lib/lpc11cx4-library/lpc_chip_11cxx_lib/src/ring_buffer.c **** 
  46:../../lib/lpc11cx4-library/lpc_chip_11cxx_lib/src/ring_buffer.c **** /*****************************************************************************
  47:../../lib/lpc11cx4-library/lpc_chip_11cxx_lib/src/ring_buffer.c ****  * Private functions
  48:../../lib/lpc11cx4-library/lpc_chip_11cxx_lib/src/ring_buffer.c ****  ****************************************************************************/
  49:../../lib/lpc11cx4-library/lpc_chip_11cxx_lib/src/ring_buffer.c **** 
  50:../../lib/lpc11cx4-library/lpc_chip_11cxx_lib/src/ring_buffer.c **** /*****************************************************************************
  51:../../lib/lpc11cx4-library/lpc_chip_11cxx_lib/src/ring_buffer.c ****  * Public functions
  52:../../lib/lpc11cx4-library/lpc_chip_11cxx_lib/src/ring_buffer.c ****  ****************************************************************************/
  53:../../lib/lpc11cx4-library/lpc_chip_11cxx_lib/src/ring_buffer.c **** 
  54:../../lib/lpc11cx4-library/lpc_chip_11cxx_lib/src/ring_buffer.c **** /* Initialize ring buffer */
  55:../../lib/lpc11cx4-library/lpc_chip_11cxx_lib/src/ring_buffer.c **** int RingBuffer_Init(RINGBUFF_T *RingBuff, void *buffer, uint32_t itemSize, uint32_t count)
  56:../../lib/lpc11cx4-library/lpc_chip_11cxx_lib/src/ring_buffer.c **** {
  88              		.loc 1 56 0
  89              		.cfi_startproc
  90              		@ args = 0, pretend = 0, frame = 0
  91              		@ frame_needed = 0, uses_anonymous_args = 0
  92              		@ link register save eliminated.
  93              	.LVL0:
  57:../../lib/lpc11cx4-library/lpc_chip_11cxx_lib/src/ring_buffer.c **** 	RingBuff->data = buffer;
  58:../../lib/lpc11cx4-library/lpc_chip_11cxx_lib/src/ring_buffer.c **** 	RingBuff->count = count;
  94              		.loc 1 58 0
  95 0000 4360     		str	r3, [r0, #4]	@ count, RingBuff_2(D)->count
  59:../../lib/lpc11cx4-library/lpc_chip_11cxx_lib/src/ring_buffer.c **** 	RingBuff->itemSz = itemSize;
  60:../../lib/lpc11cx4-library/lpc_chip_11cxx_lib/src/ring_buffer.c **** 	RingBuff->head = RingBuff->tail = 0;
  96              		.loc 1 60 0
  97 0002 0023     		movs	r3, #0	@ tmp115,
  98              	.LVL1:
  57:../../lib/lpc11cx4-library/lpc_chip_11cxx_lib/src/ring_buffer.c **** 	RingBuff->data = buffer;
  99              		.loc 1 57 0
 100 0004 0160     		str	r1, [r0]	@ buffer, RingBuff_2(D)->data
  59:../../lib/lpc11cx4-library/lpc_chip_11cxx_lib/src/ring_buffer.c **** 	RingBuff->itemSz = itemSize;
 101              		.loc 1 59 0
 102 0006 8260     		str	r2, [r0, #8]	@ itemSize, RingBuff_2(D)->itemSz
 103              		.loc 1 60 0
 104 0008 0361     		str	r3, [r0, #16]	@ tmp115, RingBuff_2(D)->tail
 105 000a C360     		str	r3, [r0, #12]	@ tmp115, RingBuff_2(D)->head
  61:../../lib/lpc11cx4-library/lpc_chip_11cxx_lib/src/ring_buffer.c **** 
  62:../../lib/lpc11cx4-library/lpc_chip_11cxx_lib/src/ring_buffer.c **** 	return 1;
  63:../../lib/lpc11cx4-library/lpc_chip_11cxx_lib/src/ring_buffer.c **** }
 106              		.loc 1 63 0
ARM GAS  /var/folders/z0/6xlwn_996xz3mwq1cgzkbq4r0000gp/T//cchvq4ef.s 			page 4


 107              		@ sp needed	@
 108 000c 0120     		movs	r0, #1	@,
 109              	.LVL2:
 110 000e 7047     		bx	lr
 111              		.cfi_endproc
 112              	.LFE6:
 113              		.size	RingBuffer_Init, .-RingBuffer_Init
 114              		.global	__aeabi_uidivmod
 115              		.section	.text.RingBuffer_Insert,"ax",%progbits
 116              		.align	2
 117              		.global	RingBuffer_Insert
 118              		.code	16
 119              		.thumb_func
 120              		.type	RingBuffer_Insert, %function
 121              	RingBuffer_Insert:
 122              	.LFB7:
  64:../../lib/lpc11cx4-library/lpc_chip_11cxx_lib/src/ring_buffer.c **** 
  65:../../lib/lpc11cx4-library/lpc_chip_11cxx_lib/src/ring_buffer.c **** /* Insert a single item into Ring Buffer */
  66:../../lib/lpc11cx4-library/lpc_chip_11cxx_lib/src/ring_buffer.c **** int RingBuffer_Insert(RINGBUFF_T *RingBuff, const void *data)
  67:../../lib/lpc11cx4-library/lpc_chip_11cxx_lib/src/ring_buffer.c **** {
 123              		.loc 1 67 0
 124              		.cfi_startproc
 125              		@ args = 0, pretend = 0, frame = 0
 126              		@ frame_needed = 0, uses_anonymous_args = 0
 127              	.LVL3:
 128 0000 F8B5     		push	{r3, r4, r5, r6, r7, lr}	@
 129              		.cfi_def_cfa_offset 24
 130              		.cfi_offset 3, -24
 131              		.cfi_offset 4, -20
 132              		.cfi_offset 5, -16
 133              		.cfi_offset 6, -12
 134              		.cfi_offset 7, -8
 135              		.cfi_offset 14, -4
 136 0002 C268     		ldr	r2, [r0, #12]	@ D.4848, MEM[(long unsigned int *)RingBuff_4(D) + 12B]
 137              	.LVL4:
  68:../../lib/lpc11cx4-library/lpc_chip_11cxx_lib/src/ring_buffer.c **** 	uint8_t *ptr = RingBuff->data;
  69:../../lib/lpc11cx4-library/lpc_chip_11cxx_lib/src/ring_buffer.c **** 
  70:../../lib/lpc11cx4-library/lpc_chip_11cxx_lib/src/ring_buffer.c **** 	/* We cannot insert when queue is full */
  71:../../lib/lpc11cx4-library/lpc_chip_11cxx_lib/src/ring_buffer.c **** 	if (RingBuffer_IsFull(RingBuff))
 138              		.loc 1 71 0
 139 0004 0369     		ldr	r3, [r0, #16]	@ tmp143, MEM[(long unsigned int *)RingBuff_4(D) + 16B]
  67:../../lib/lpc11cx4-library/lpc_chip_11cxx_lib/src/ring_buffer.c **** 	uint8_t *ptr = RingBuff->data;
 140              		.loc 1 67 0
 141 0006 0D00     		movs	r5, r1	@ data, data
 142              	.LBB24:
 143              	.LBB25:
 144              		.file 2 "../../lib/lpc11cx4-library/lpc_chip_11cxx_lib/inc/ring_buffer.h"
   1:../../lib/lpc11cx4-library/lpc_chip_11cxx_lib/inc/ring_buffer.h **** /*
   2:../../lib/lpc11cx4-library/lpc_chip_11cxx_lib/inc/ring_buffer.h ****  * @brief Common ring buffer support functions
   3:../../lib/lpc11cx4-library/lpc_chip_11cxx_lib/inc/ring_buffer.h ****  *
   4:../../lib/lpc11cx4-library/lpc_chip_11cxx_lib/inc/ring_buffer.h ****  * @note
   5:../../lib/lpc11cx4-library/lpc_chip_11cxx_lib/inc/ring_buffer.h ****  * Copyright(C) NXP Semiconductors, 2012
   6:../../lib/lpc11cx4-library/lpc_chip_11cxx_lib/inc/ring_buffer.h ****  * All rights reserved.
   7:../../lib/lpc11cx4-library/lpc_chip_11cxx_lib/inc/ring_buffer.h ****  *
   8:../../lib/lpc11cx4-library/lpc_chip_11cxx_lib/inc/ring_buffer.h ****  * @par
   9:../../lib/lpc11cx4-library/lpc_chip_11cxx_lib/inc/ring_buffer.h ****  * Software that is described herein is for illustrative purposes only
  10:../../lib/lpc11cx4-library/lpc_chip_11cxx_lib/inc/ring_buffer.h ****  * which provides customers with programming information regarding the
ARM GAS  /var/folders/z0/6xlwn_996xz3mwq1cgzkbq4r0000gp/T//cchvq4ef.s 			page 5


  11:../../lib/lpc11cx4-library/lpc_chip_11cxx_lib/inc/ring_buffer.h ****  * LPC products.  This software is supplied "AS IS" without any warranties of
  12:../../lib/lpc11cx4-library/lpc_chip_11cxx_lib/inc/ring_buffer.h ****  * any kind, and NXP Semiconductors and its licensor disclaim any and
  13:../../lib/lpc11cx4-library/lpc_chip_11cxx_lib/inc/ring_buffer.h ****  * all warranties, express or implied, including all implied warranties of
  14:../../lib/lpc11cx4-library/lpc_chip_11cxx_lib/inc/ring_buffer.h ****  * merchantability, fitness for a particular purpose and non-infringement of
  15:../../lib/lpc11cx4-library/lpc_chip_11cxx_lib/inc/ring_buffer.h ****  * intellectual property rights.  NXP Semiconductors assumes no responsibility
  16:../../lib/lpc11cx4-library/lpc_chip_11cxx_lib/inc/ring_buffer.h ****  * or liability for the use of the software, conveys no license or rights under any
  17:../../lib/lpc11cx4-library/lpc_chip_11cxx_lib/inc/ring_buffer.h ****  * patent, copyright, mask work right, or any other intellectual property rights in
  18:../../lib/lpc11cx4-library/lpc_chip_11cxx_lib/inc/ring_buffer.h ****  * or to any products. NXP Semiconductors reserves the right to make changes
  19:../../lib/lpc11cx4-library/lpc_chip_11cxx_lib/inc/ring_buffer.h ****  * in the software without notification. NXP Semiconductors also makes no
  20:../../lib/lpc11cx4-library/lpc_chip_11cxx_lib/inc/ring_buffer.h ****  * representation or warranty that such application will be suitable for the
  21:../../lib/lpc11cx4-library/lpc_chip_11cxx_lib/inc/ring_buffer.h ****  * specified use without further testing or modification.
  22:../../lib/lpc11cx4-library/lpc_chip_11cxx_lib/inc/ring_buffer.h ****  *
  23:../../lib/lpc11cx4-library/lpc_chip_11cxx_lib/inc/ring_buffer.h ****  * @par
  24:../../lib/lpc11cx4-library/lpc_chip_11cxx_lib/inc/ring_buffer.h ****  * Permission to use, copy, modify, and distribute this software and its
  25:../../lib/lpc11cx4-library/lpc_chip_11cxx_lib/inc/ring_buffer.h ****  * documentation is hereby granted, under NXP Semiconductors' and its
  26:../../lib/lpc11cx4-library/lpc_chip_11cxx_lib/inc/ring_buffer.h ****  * licensor's relevant copyrights in the software, without fee, provided that it
  27:../../lib/lpc11cx4-library/lpc_chip_11cxx_lib/inc/ring_buffer.h ****  * is used in conjunction with NXP Semiconductors microcontrollers.  This
  28:../../lib/lpc11cx4-library/lpc_chip_11cxx_lib/inc/ring_buffer.h ****  * copyright, permission, and disclaimer notice must appear in all copies of
  29:../../lib/lpc11cx4-library/lpc_chip_11cxx_lib/inc/ring_buffer.h ****  * this code.
  30:../../lib/lpc11cx4-library/lpc_chip_11cxx_lib/inc/ring_buffer.h ****  */
  31:../../lib/lpc11cx4-library/lpc_chip_11cxx_lib/inc/ring_buffer.h **** 
  32:../../lib/lpc11cx4-library/lpc_chip_11cxx_lib/inc/ring_buffer.h **** #ifndef __RING_BUFFER_H_
  33:../../lib/lpc11cx4-library/lpc_chip_11cxx_lib/inc/ring_buffer.h **** #define __RING_BUFFER_H_
  34:../../lib/lpc11cx4-library/lpc_chip_11cxx_lib/inc/ring_buffer.h **** 
  35:../../lib/lpc11cx4-library/lpc_chip_11cxx_lib/inc/ring_buffer.h **** #include "lpc_types.h"
  36:../../lib/lpc11cx4-library/lpc_chip_11cxx_lib/inc/ring_buffer.h **** 
  37:../../lib/lpc11cx4-library/lpc_chip_11cxx_lib/inc/ring_buffer.h **** /** @defgroup Ring_Buffer CHIP: Simple ring buffer implementation
  38:../../lib/lpc11cx4-library/lpc_chip_11cxx_lib/inc/ring_buffer.h ****  * @ingroup CHIP_Common
  39:../../lib/lpc11cx4-library/lpc_chip_11cxx_lib/inc/ring_buffer.h ****  * @{
  40:../../lib/lpc11cx4-library/lpc_chip_11cxx_lib/inc/ring_buffer.h ****  */
  41:../../lib/lpc11cx4-library/lpc_chip_11cxx_lib/inc/ring_buffer.h **** 
  42:../../lib/lpc11cx4-library/lpc_chip_11cxx_lib/inc/ring_buffer.h **** /**
  43:../../lib/lpc11cx4-library/lpc_chip_11cxx_lib/inc/ring_buffer.h ****  * @brief Ring buffer structure
  44:../../lib/lpc11cx4-library/lpc_chip_11cxx_lib/inc/ring_buffer.h ****  */
  45:../../lib/lpc11cx4-library/lpc_chip_11cxx_lib/inc/ring_buffer.h **** typedef struct {
  46:../../lib/lpc11cx4-library/lpc_chip_11cxx_lib/inc/ring_buffer.h **** 	void *data;
  47:../../lib/lpc11cx4-library/lpc_chip_11cxx_lib/inc/ring_buffer.h **** 	uint32_t count;
  48:../../lib/lpc11cx4-library/lpc_chip_11cxx_lib/inc/ring_buffer.h **** 	uint32_t itemSz;
  49:../../lib/lpc11cx4-library/lpc_chip_11cxx_lib/inc/ring_buffer.h **** 	uint32_t head;
  50:../../lib/lpc11cx4-library/lpc_chip_11cxx_lib/inc/ring_buffer.h **** 	uint32_t tail;
  51:../../lib/lpc11cx4-library/lpc_chip_11cxx_lib/inc/ring_buffer.h **** } RINGBUFF_T;
  52:../../lib/lpc11cx4-library/lpc_chip_11cxx_lib/inc/ring_buffer.h **** 
  53:../../lib/lpc11cx4-library/lpc_chip_11cxx_lib/inc/ring_buffer.h **** /**
  54:../../lib/lpc11cx4-library/lpc_chip_11cxx_lib/inc/ring_buffer.h ****  * @def		RB_VHEAD(rb)
  55:../../lib/lpc11cx4-library/lpc_chip_11cxx_lib/inc/ring_buffer.h ****  * volatile typecasted head index
  56:../../lib/lpc11cx4-library/lpc_chip_11cxx_lib/inc/ring_buffer.h ****  */
  57:../../lib/lpc11cx4-library/lpc_chip_11cxx_lib/inc/ring_buffer.h **** // #define RB_VHEAD(rb)              (*(volatile uint32_t *) &(rb)->head)
  58:../../lib/lpc11cx4-library/lpc_chip_11cxx_lib/inc/ring_buffer.h **** #define RB_VHEAD(rb)				((volatile uint32_t)(rb->head))
  59:../../lib/lpc11cx4-library/lpc_chip_11cxx_lib/inc/ring_buffer.h **** 
  60:../../lib/lpc11cx4-library/lpc_chip_11cxx_lib/inc/ring_buffer.h **** /**
  61:../../lib/lpc11cx4-library/lpc_chip_11cxx_lib/inc/ring_buffer.h ****  * @def		RB_VTAIL(rb)
  62:../../lib/lpc11cx4-library/lpc_chip_11cxx_lib/inc/ring_buffer.h ****  * volatile typecasted tail index
  63:../../lib/lpc11cx4-library/lpc_chip_11cxx_lib/inc/ring_buffer.h ****  */
  64:../../lib/lpc11cx4-library/lpc_chip_11cxx_lib/inc/ring_buffer.h **** // #define RB_VTAIL(rb)              (*(volatile uint32_t *) &(rb)->tail)
  65:../../lib/lpc11cx4-library/lpc_chip_11cxx_lib/inc/ring_buffer.h **** #define RB_VTAIL(rb)				((volatile uint32_t)(rb->tail))
  66:../../lib/lpc11cx4-library/lpc_chip_11cxx_lib/inc/ring_buffer.h **** 
  67:../../lib/lpc11cx4-library/lpc_chip_11cxx_lib/inc/ring_buffer.h **** /**
ARM GAS  /var/folders/z0/6xlwn_996xz3mwq1cgzkbq4r0000gp/T//cchvq4ef.s 			page 6


  68:../../lib/lpc11cx4-library/lpc_chip_11cxx_lib/inc/ring_buffer.h ****  * @brief	Initialize ring buffer
  69:../../lib/lpc11cx4-library/lpc_chip_11cxx_lib/inc/ring_buffer.h ****  * @param	RingBuff	: Pointer to ring buffer to initialize
  70:../../lib/lpc11cx4-library/lpc_chip_11cxx_lib/inc/ring_buffer.h ****  * @param	buffer		: Pointer to buffer to associate with RingBuff
  71:../../lib/lpc11cx4-library/lpc_chip_11cxx_lib/inc/ring_buffer.h ****  * @param	itemSize	: Size of each buffer item size
  72:../../lib/lpc11cx4-library/lpc_chip_11cxx_lib/inc/ring_buffer.h ****  * @param	count		: Size of ring buffer
  73:../../lib/lpc11cx4-library/lpc_chip_11cxx_lib/inc/ring_buffer.h ****  * @note	Memory pointed by @a buffer must have correct alignment of
  74:../../lib/lpc11cx4-library/lpc_chip_11cxx_lib/inc/ring_buffer.h ****  * 			@a itemSize, and @a count must be a power of 2 and must at
  75:../../lib/lpc11cx4-library/lpc_chip_11cxx_lib/inc/ring_buffer.h ****  * 			least be 2 or greater.
  76:../../lib/lpc11cx4-library/lpc_chip_11cxx_lib/inc/ring_buffer.h ****  * @return	Nothing
  77:../../lib/lpc11cx4-library/lpc_chip_11cxx_lib/inc/ring_buffer.h ****  */
  78:../../lib/lpc11cx4-library/lpc_chip_11cxx_lib/inc/ring_buffer.h **** int RingBuffer_Init(RINGBUFF_T *RingBuff, void *buffer, uint32_t itemSize, uint32_t count);
  79:../../lib/lpc11cx4-library/lpc_chip_11cxx_lib/inc/ring_buffer.h **** 
  80:../../lib/lpc11cx4-library/lpc_chip_11cxx_lib/inc/ring_buffer.h **** /**
  81:../../lib/lpc11cx4-library/lpc_chip_11cxx_lib/inc/ring_buffer.h ****  * @brief	Resets the ring buffer to empty
  82:../../lib/lpc11cx4-library/lpc_chip_11cxx_lib/inc/ring_buffer.h ****  * @param	RingBuff	: Pointer to ring buffer
  83:../../lib/lpc11cx4-library/lpc_chip_11cxx_lib/inc/ring_buffer.h ****  * @return	Nothing
  84:../../lib/lpc11cx4-library/lpc_chip_11cxx_lib/inc/ring_buffer.h ****  */
  85:../../lib/lpc11cx4-library/lpc_chip_11cxx_lib/inc/ring_buffer.h **** STATIC INLINE void RingBuffer_Flush(RINGBUFF_T *RingBuff)
  86:../../lib/lpc11cx4-library/lpc_chip_11cxx_lib/inc/ring_buffer.h **** {
  87:../../lib/lpc11cx4-library/lpc_chip_11cxx_lib/inc/ring_buffer.h **** 	RingBuff->head = RingBuff->tail = 0;
  88:../../lib/lpc11cx4-library/lpc_chip_11cxx_lib/inc/ring_buffer.h **** }
  89:../../lib/lpc11cx4-library/lpc_chip_11cxx_lib/inc/ring_buffer.h **** 
  90:../../lib/lpc11cx4-library/lpc_chip_11cxx_lib/inc/ring_buffer.h **** /**
  91:../../lib/lpc11cx4-library/lpc_chip_11cxx_lib/inc/ring_buffer.h ****  * @brief	Return size the ring buffer
  92:../../lib/lpc11cx4-library/lpc_chip_11cxx_lib/inc/ring_buffer.h ****  * @param	RingBuff	: Pointer to ring buffer
  93:../../lib/lpc11cx4-library/lpc_chip_11cxx_lib/inc/ring_buffer.h ****  * @return	Size of the ring buffer in bytes
  94:../../lib/lpc11cx4-library/lpc_chip_11cxx_lib/inc/ring_buffer.h ****  */
  95:../../lib/lpc11cx4-library/lpc_chip_11cxx_lib/inc/ring_buffer.h **** STATIC INLINE uint32_t RingBuffer_GetSize(RINGBUFF_T *RingBuff)
  96:../../lib/lpc11cx4-library/lpc_chip_11cxx_lib/inc/ring_buffer.h **** {
  97:../../lib/lpc11cx4-library/lpc_chip_11cxx_lib/inc/ring_buffer.h **** 	return RingBuff->count;
  98:../../lib/lpc11cx4-library/lpc_chip_11cxx_lib/inc/ring_buffer.h **** }
  99:../../lib/lpc11cx4-library/lpc_chip_11cxx_lib/inc/ring_buffer.h **** 
 100:../../lib/lpc11cx4-library/lpc_chip_11cxx_lib/inc/ring_buffer.h **** /**
 101:../../lib/lpc11cx4-library/lpc_chip_11cxx_lib/inc/ring_buffer.h ****  * @brief	Return number of items in the ring buffer
 102:../../lib/lpc11cx4-library/lpc_chip_11cxx_lib/inc/ring_buffer.h ****  * @param	RingBuff	: Pointer to ring buffer
 103:../../lib/lpc11cx4-library/lpc_chip_11cxx_lib/inc/ring_buffer.h ****  * @return	Number of items in the ring buffer
 104:../../lib/lpc11cx4-library/lpc_chip_11cxx_lib/inc/ring_buffer.h ****  */
 105:../../lib/lpc11cx4-library/lpc_chip_11cxx_lib/inc/ring_buffer.h **** STATIC INLINE uint32_t RingBuffer_GetCount(RINGBUFF_T *RingBuff)
 106:../../lib/lpc11cx4-library/lpc_chip_11cxx_lib/inc/ring_buffer.h **** {
 107:../../lib/lpc11cx4-library/lpc_chip_11cxx_lib/inc/ring_buffer.h **** 	return RB_VHEAD(RingBuff) - RB_VTAIL(RingBuff);
 108:../../lib/lpc11cx4-library/lpc_chip_11cxx_lib/inc/ring_buffer.h **** }
 109:../../lib/lpc11cx4-library/lpc_chip_11cxx_lib/inc/ring_buffer.h **** 
 110:../../lib/lpc11cx4-library/lpc_chip_11cxx_lib/inc/ring_buffer.h **** /**
 111:../../lib/lpc11cx4-library/lpc_chip_11cxx_lib/inc/ring_buffer.h ****  * @brief	Return number of free items in the ring buffer
 112:../../lib/lpc11cx4-library/lpc_chip_11cxx_lib/inc/ring_buffer.h ****  * @param	RingBuff	: Pointer to ring buffer
 113:../../lib/lpc11cx4-library/lpc_chip_11cxx_lib/inc/ring_buffer.h ****  * @return	Number of free items in the ring buffer
 114:../../lib/lpc11cx4-library/lpc_chip_11cxx_lib/inc/ring_buffer.h ****  */
 115:../../lib/lpc11cx4-library/lpc_chip_11cxx_lib/inc/ring_buffer.h **** STATIC INLINE uint32_t RingBuffer_GetFree(RINGBUFF_T *RingBuff)
 116:../../lib/lpc11cx4-library/lpc_chip_11cxx_lib/inc/ring_buffer.h **** {
 117:../../lib/lpc11cx4-library/lpc_chip_11cxx_lib/inc/ring_buffer.h **** 	return RingBuff->count - RingBuffer_GetCount(RingBuff);
 118:../../lib/lpc11cx4-library/lpc_chip_11cxx_lib/inc/ring_buffer.h **** }
 119:../../lib/lpc11cx4-library/lpc_chip_11cxx_lib/inc/ring_buffer.h **** 
 120:../../lib/lpc11cx4-library/lpc_chip_11cxx_lib/inc/ring_buffer.h **** /**
 121:../../lib/lpc11cx4-library/lpc_chip_11cxx_lib/inc/ring_buffer.h ****  * @brief	Return number of items in the ring buffer
 122:../../lib/lpc11cx4-library/lpc_chip_11cxx_lib/inc/ring_buffer.h ****  * @param	RingBuff	: Pointer to ring buffer
 123:../../lib/lpc11cx4-library/lpc_chip_11cxx_lib/inc/ring_buffer.h ****  * @return	1 if the ring buffer is full, otherwise 0
 124:../../lib/lpc11cx4-library/lpc_chip_11cxx_lib/inc/ring_buffer.h ****  */
ARM GAS  /var/folders/z0/6xlwn_996xz3mwq1cgzkbq4r0000gp/T//cchvq4ef.s 			page 7


 125:../../lib/lpc11cx4-library/lpc_chip_11cxx_lib/inc/ring_buffer.h **** STATIC INLINE int RingBuffer_IsFull(RINGBUFF_T *RingBuff)
 126:../../lib/lpc11cx4-library/lpc_chip_11cxx_lib/inc/ring_buffer.h **** {
 127:../../lib/lpc11cx4-library/lpc_chip_11cxx_lib/inc/ring_buffer.h **** 	return (RingBuffer_GetCount(RingBuff) >= RingBuff->count);
 145              		.loc 2 127 0
 146 0008 4168     		ldr	r1, [r0, #4]	@ D.4849, RingBuff_4(D)->count
 147              	.LVL5:
 148              	.LBE25:
 149              	.LBE24:
  67:../../lib/lpc11cx4-library/lpc_chip_11cxx_lib/src/ring_buffer.c **** 	uint8_t *ptr = RingBuff->data;
 150              		.loc 1 67 0
 151 000a 0400     		movs	r4, r0	@ RingBuff, RingBuff
 152              		.loc 1 71 0
 153 000c D31A     		subs	r3, r2, r3	@ D.4848, D.4848, tmp143
  72:../../lib/lpc11cx4-library/lpc_chip_11cxx_lib/src/ring_buffer.c **** 		return 0;
 154              		.loc 1 72 0
 155 000e 0020     		movs	r0, #0	@ D.4847,
 156              	.LVL6:
  71:../../lib/lpc11cx4-library/lpc_chip_11cxx_lib/src/ring_buffer.c **** 		return 0;
 157              		.loc 1 71 0
 158 0010 8B42     		cmp	r3, r1	@ D.4848, D.4849
 159 0012 0ED2     		bcs	.L3	@,
  73:../../lib/lpc11cx4-library/lpc_chip_11cxx_lib/src/ring_buffer.c **** 
  74:../../lib/lpc11cx4-library/lpc_chip_11cxx_lib/src/ring_buffer.c **** 	ptr += RB_INDH(RingBuff) * RingBuff->itemSz;
  75:../../lib/lpc11cx4-library/lpc_chip_11cxx_lib/src/ring_buffer.c **** 	memcpy(ptr, data, RingBuff->itemSz);
 160              		.loc 1 75 0
 161 0014 1000     		movs	r0, r2	@, D.4848
 162 0016 FFF7FEFF 		bl	__aeabi_uidivmod	@
 163              	.LVL7:
  74:../../lib/lpc11cx4-library/lpc_chip_11cxx_lib/src/ring_buffer.c **** 	memcpy(ptr, data, RingBuff->itemSz);
 164              		.loc 1 74 0
 165 001a A668     		ldr	r6, [r4, #8]	@ D.4849, RingBuff_4(D)->itemSz
  68:../../lib/lpc11cx4-library/lpc_chip_11cxx_lib/src/ring_buffer.c **** 
 166              		.loc 1 68 0
 167 001c 2768     		ldr	r7, [r4]	@ ptr, RingBuff_4(D)->data
 168              		.loc 1 75 0
 169 001e 7143     		muls	r1, r6	@ D.4849, D.4849
 170 0020 3200     		movs	r2, r6	@, D.4849
 171 0022 7818     		adds	r0, r7, r1	@ ptr, ptr, D.4849
 172 0024 2900     		movs	r1, r5	@, data
 173 0026 FFF7FEFF 		bl	memcpy	@
 174              	.LVL8:
  76:../../lib/lpc11cx4-library/lpc_chip_11cxx_lib/src/ring_buffer.c **** 	RingBuff->head++;
  77:../../lib/lpc11cx4-library/lpc_chip_11cxx_lib/src/ring_buffer.c **** 
  78:../../lib/lpc11cx4-library/lpc_chip_11cxx_lib/src/ring_buffer.c **** 	return 1;
 175              		.loc 1 78 0
 176 002a 0120     		movs	r0, #1	@ D.4847,
  76:../../lib/lpc11cx4-library/lpc_chip_11cxx_lib/src/ring_buffer.c **** 	RingBuff->head++;
 177              		.loc 1 76 0
 178 002c E368     		ldr	r3, [r4, #12]	@ tmp145, RingBuff_4(D)->head
 179 002e 0133     		adds	r3, r3, #1	@ D.4849,
 180 0030 E360     		str	r3, [r4, #12]	@ D.4849, RingBuff_4(D)->head
 181              	.L3:
  79:../../lib/lpc11cx4-library/lpc_chip_11cxx_lib/src/ring_buffer.c **** }
 182              		.loc 1 79 0
 183              		@ sp needed	@
 184              	.LVL9:
 185              	.LVL10:
ARM GAS  /var/folders/z0/6xlwn_996xz3mwq1cgzkbq4r0000gp/T//cchvq4ef.s 			page 8


 186 0032 F8BD     		pop	{r3, r4, r5, r6, r7, pc}
 187              		.cfi_endproc
 188              	.LFE7:
 189              		.size	RingBuffer_Insert, .-RingBuffer_Insert
 190              		.section	.text.RingBuffer_InsertMult,"ax",%progbits
 191              		.align	2
 192              		.global	RingBuffer_InsertMult
 193              		.code	16
 194              		.thumb_func
 195              		.type	RingBuffer_InsertMult, %function
 196              	RingBuffer_InsertMult:
 197              	.LFB8:
  80:../../lib/lpc11cx4-library/lpc_chip_11cxx_lib/src/ring_buffer.c **** 
  81:../../lib/lpc11cx4-library/lpc_chip_11cxx_lib/src/ring_buffer.c **** /* Insert multiple items into Ring Buffer */
  82:../../lib/lpc11cx4-library/lpc_chip_11cxx_lib/src/ring_buffer.c **** uint32_t RingBuffer_InsertMult(RINGBUFF_T *RingBuff, const void *data, int num)
  83:../../lib/lpc11cx4-library/lpc_chip_11cxx_lib/src/ring_buffer.c **** {
 198              		.loc 1 83 0
 199              		.cfi_startproc
 200              		@ args = 0, pretend = 0, frame = 0
 201              		@ frame_needed = 0, uses_anonymous_args = 0
 202              	.LVL11:
 203 0000 F0B5     		push	{r4, r5, r6, r7, lr}	@
 204              		.cfi_def_cfa_offset 20
 205              		.cfi_offset 4, -20
 206              		.cfi_offset 5, -16
 207              		.cfi_offset 6, -12
 208              		.cfi_offset 7, -8
 209              		.cfi_offset 14, -4
 210 0002 4746     		mov	r7, r8	@,
 211              	.LBB26:
 212              	.LBB27:
 213              	.LBB28:
 214              	.LBB29:
 107:../../lib/lpc11cx4-library/lpc_chip_11cxx_lib/inc/ring_buffer.h **** }
 215              		.loc 2 107 0
 216 0004 0369     		ldr	r3, [r0, #16]	@ tmp187, MEM[(long unsigned int *)RingBuff_5(D) + 16B]
 217              	.LBE29:
 218              	.LBE28:
 219              	.LBE27:
 220              	.LBE26:
 221              		.loc 1 83 0
 222 0006 80B4     		push	{r7}	@
 223              		.cfi_def_cfa_offset 24
 224              		.cfi_offset 8, -24
 225              		.loc 1 83 0
 226 0008 0E00     		movs	r6, r1	@ data, data
 227 000a 1700     		movs	r7, r2	@ num, num
 228              	.LBB34:
 229              	.LBB32:
 230              		.loc 2 127 0
 231 000c 4168     		ldr	r1, [r0, #4]	@ D.4857, RingBuff_5(D)->count
 232              	.LVL12:
 233 000e C268     		ldr	r2, [r0, #12]	@ D.4856, MEM[(long unsigned int *)RingBuff_5(D) + 12B]
 234              	.LVL13:
 235              	.LBE32:
 236              	.LBE34:
 237              		.loc 1 83 0
ARM GAS  /var/folders/z0/6xlwn_996xz3mwq1cgzkbq4r0000gp/T//cchvq4ef.s 			page 9


 238 0010 0500     		movs	r5, r0	@ RingBuff, RingBuff
 239              	.LBB35:
 240              	.LBB33:
 241              	.LBB31:
 242              	.LBB30:
 107:../../lib/lpc11cx4-library/lpc_chip_11cxx_lib/inc/ring_buffer.h **** }
 243              		.loc 2 107 0
 244 0012 D31A     		subs	r3, r2, r3	@ D.4856, D.4856, tmp187
 245              	.LBE30:
 246              	.LBE31:
 247              		.loc 2 127 0
 248 0014 8846     		mov	r8, r1	@ D.4857, D.4857
 249              	.LVL14:
 250              	.LBE33:
 251              	.LBE35:
  84:../../lib/lpc11cx4-library/lpc_chip_11cxx_lib/src/ring_buffer.c **** 
  85:../../lib/lpc11cx4-library/lpc_chip_11cxx_lib/src/ring_buffer.c **** 	uint8_t *ptr = RingBuff->data;
  86:../../lib/lpc11cx4-library/lpc_chip_11cxx_lib/src/ring_buffer.c **** 	int cnt1, cnt2;
  87:../../lib/lpc11cx4-library/lpc_chip_11cxx_lib/src/ring_buffer.c **** 
  88:../../lib/lpc11cx4-library/lpc_chip_11cxx_lib/src/ring_buffer.c **** 	/* We cannot insert when queue is full */
  89:../../lib/lpc11cx4-library/lpc_chip_11cxx_lib/src/ring_buffer.c **** 	if (RingBuffer_IsFull(RingBuff))
  90:../../lib/lpc11cx4-library/lpc_chip_11cxx_lib/src/ring_buffer.c **** 		return 0;
 252              		.loc 1 90 0
 253 0016 0020     		movs	r0, #0	@ D.4856,
 254              	.LVL15:
  89:../../lib/lpc11cx4-library/lpc_chip_11cxx_lib/src/ring_buffer.c **** 		return 0;
 255              		.loc 1 89 0
 256 0018 8B42     		cmp	r3, r1	@ D.4856, D.4857
 257 001a 30D2     		bcs	.L7	@,
 258              	.LVL16:
  91:../../lib/lpc11cx4-library/lpc_chip_11cxx_lib/src/ring_buffer.c **** 
  92:../../lib/lpc11cx4-library/lpc_chip_11cxx_lib/src/ring_buffer.c **** 	/* Calculate the segment lengths */
  93:../../lib/lpc11cx4-library/lpc_chip_11cxx_lib/src/ring_buffer.c **** 	cnt1 = cnt2 = RingBuffer_GetFree(RingBuff);
  94:../../lib/lpc11cx4-library/lpc_chip_11cxx_lib/src/ring_buffer.c **** 	if (RB_INDH(RingBuff) + cnt1 >= RingBuff->count)
 259              		.loc 1 94 0
 260 001c 1000     		movs	r0, r2	@, D.4856
 261              	.LBB36:
 262              	.LBB37:
 117:../../lib/lpc11cx4-library/lpc_chip_11cxx_lib/inc/ring_buffer.h **** }
 263              		.loc 2 117 0
 264 001e CC1A     		subs	r4, r1, r3	@ cnt1, D.4857, D.4856
 265              	.LVL17:
 266              	.LBE37:
 267              	.LBE36:
 268              		.loc 1 94 0
 269 0020 FFF7FEFF 		bl	__aeabi_uidivmod	@
 270              	.LVL18:
 271 0024 0B19     		adds	r3, r1, r4	@ D.4857, D.4857, cnt1
 272 0026 0022     		movs	r2, #0	@ D.4859,
 273 0028 4345     		cmp	r3, r8	@ D.4857, D.4857
 274 002a 03D3     		bcc	.L8	@,
  95:../../lib/lpc11cx4-library/lpc_chip_11cxx_lib/src/ring_buffer.c **** 		cnt1 = RingBuff->count - RB_INDH(RingBuff);
 275              		.loc 1 95 0
 276 002c 4346     		mov	r3, r8	@ D.4857, D.4857
 277 002e 5B1A     		subs	r3, r3, r1	@ cnt1, D.4857, D.4857
 278              	.LVL19:
 279 0030 E21A     		subs	r2, r4, r3	@ D.4859, cnt1, cnt1
ARM GAS  /var/folders/z0/6xlwn_996xz3mwq1cgzkbq4r0000gp/T//cchvq4ef.s 			page 10


 280 0032 1C00     		movs	r4, r3	@ cnt1, cnt1
 281              	.LVL20:
 282              	.L8:
  85:../../lib/lpc11cx4-library/lpc_chip_11cxx_lib/src/ring_buffer.c **** 	int cnt1, cnt2;
 283              		.loc 1 85 0
 284 0034 2868     		ldr	r0, [r5]	@ ptr, RingBuff_5(D)->data
 285              	.LVL21:
  96:../../lib/lpc11cx4-library/lpc_chip_11cxx_lib/src/ring_buffer.c **** 	cnt2 -= cnt1;
  97:../../lib/lpc11cx4-library/lpc_chip_11cxx_lib/src/ring_buffer.c **** 
  98:../../lib/lpc11cx4-library/lpc_chip_11cxx_lib/src/ring_buffer.c **** 	cnt1 = MIN(cnt1, num);
 286              		.loc 1 98 0
 287 0036 BC42     		cmp	r4, r7	@ cnt1, num
 288 0038 26DC     		bgt	.L13	@,
 289              	.LVL22:
  99:../../lib/lpc11cx4-library/lpc_chip_11cxx_lib/src/ring_buffer.c **** 	num -= cnt1;
 100:../../lib/lpc11cx4-library/lpc_chip_11cxx_lib/src/ring_buffer.c **** 
 101:../../lib/lpc11cx4-library/lpc_chip_11cxx_lib/src/ring_buffer.c **** 	cnt2 = MIN(cnt2, num);
 290              		.loc 1 101 0
 291 003a 3F1B     		subs	r7, r7, r4	@ cnt2, num, cnt1
 292              	.LVL23:
 293 003c 9742     		cmp	r7, r2	@ cnt2, D.4859
 294 003e 21DC     		bgt	.L14	@,
 295              	.LVL24:
 296              	.L10:
 102:../../lib/lpc11cx4-library/lpc_chip_11cxx_lib/src/ring_buffer.c **** 	num -= cnt2;
 103:../../lib/lpc11cx4-library/lpc_chip_11cxx_lib/src/ring_buffer.c **** 
 104:../../lib/lpc11cx4-library/lpc_chip_11cxx_lib/src/ring_buffer.c **** 	/* Write segment 1 */
 105:../../lib/lpc11cx4-library/lpc_chip_11cxx_lib/src/ring_buffer.c **** 	ptr += RB_INDH(RingBuff) * RingBuff->itemSz;
 297              		.loc 1 105 0
 298 0040 AA68     		ldr	r2, [r5, #8]	@ D.4857, RingBuff_5(D)->itemSz
 299              	.LVL25:
 106:../../lib/lpc11cx4-library/lpc_chip_11cxx_lib/src/ring_buffer.c **** 	memcpy(ptr, data, cnt1 * RingBuff->itemSz);
 300              		.loc 1 106 0
 301 0042 5143     		muls	r1, r2	@ D.4857, D.4857
 302              	.LVL26:
 303 0044 6243     		muls	r2, r4	@ D.4857, cnt1
 304 0046 4018     		adds	r0, r0, r1	@ ptr, ptr, D.4857
 305              	.LVL27:
 306 0048 3100     		movs	r1, r6	@, data
 307 004a FFF7FEFF 		bl	memcpy	@
 308              	.LVL28:
 107:../../lib/lpc11cx4-library/lpc_chip_11cxx_lib/src/ring_buffer.c **** 	RingBuff->head += cnt1;
 309              		.loc 1 107 0
 310 004e EB68     		ldr	r3, [r5, #12]	@ tmp191, RingBuff_5(D)->head
 108:../../lib/lpc11cx4-library/lpc_chip_11cxx_lib/src/ring_buffer.c **** 
 109:../../lib/lpc11cx4-library/lpc_chip_11cxx_lib/src/ring_buffer.c **** 	/* Write segment 2 */
 110:../../lib/lpc11cx4-library/lpc_chip_11cxx_lib/src/ring_buffer.c **** 	ptr = (uint8_t *) RingBuff->data + RB_INDH(RingBuff) * RingBuff->itemSz;
 111:../../lib/lpc11cx4-library/lpc_chip_11cxx_lib/src/ring_buffer.c **** 	data = (const uint8_t *) data + cnt1 * RingBuff->itemSz;
 112:../../lib/lpc11cx4-library/lpc_chip_11cxx_lib/src/ring_buffer.c **** 	memcpy(ptr, data, cnt2 * RingBuff->itemSz);
 311              		.loc 1 112 0
 312 0050 6968     		ldr	r1, [r5, #4]	@, RingBuff_5(D)->count
 107:../../lib/lpc11cx4-library/lpc_chip_11cxx_lib/src/ring_buffer.c **** 	RingBuff->head += cnt1;
 313              		.loc 1 107 0
 314 0052 E018     		adds	r0, r4, r3	@ D.4857, cnt1, tmp191
 110:../../lib/lpc11cx4-library/lpc_chip_11cxx_lib/src/ring_buffer.c **** 	data = (const uint8_t *) data + cnt1 * RingBuff->itemSz;
 315              		.loc 1 110 0
 316 0054 AB68     		ldr	r3, [r5, #8]	@ D.4857, RingBuff_5(D)->itemSz
ARM GAS  /var/folders/z0/6xlwn_996xz3mwq1cgzkbq4r0000gp/T//cchvq4ef.s 			page 11


 107:../../lib/lpc11cx4-library/lpc_chip_11cxx_lib/src/ring_buffer.c **** 	RingBuff->head += cnt1;
 317              		.loc 1 107 0
 318 0056 E860     		str	r0, [r5, #12]	@ D.4857, RingBuff_5(D)->head
 110:../../lib/lpc11cx4-library/lpc_chip_11cxx_lib/src/ring_buffer.c **** 	data = (const uint8_t *) data + cnt1 * RingBuff->itemSz;
 319              		.loc 1 110 0
 320 0058 9846     		mov	r8, r3	@ D.4857, D.4857
 321              	.LVL29:
 322              		.loc 1 112 0
 323 005a FFF7FEFF 		bl	__aeabi_uidivmod	@
 324              	.LVL30:
 325 005e 4046     		mov	r0, r8	@ D.4857, D.4857
 326 0060 4843     		muls	r0, r1	@ D.4857, D.4857
 327 0062 4146     		mov	r1, r8	@ D.4857, D.4857
 328 0064 2B68     		ldr	r3, [r5]	@ tmp194, RingBuff_5(D)->data
 329 0066 4246     		mov	r2, r8	@ D.4857, D.4857
 330 0068 9C46     		mov	ip, r3	@ tmp194, tmp194
 331 006a 6143     		muls	r1, r4	@ D.4857, cnt1
 332 006c 6044     		add	r0, r0, ip	@ ptr, tmp194
 333 006e 7A43     		muls	r2, r7	@ D.4857, cnt2
 334 0070 7118     		adds	r1, r6, r1	@ data, data, D.4857
 335              	.LVL31:
 336 0072 FFF7FEFF 		bl	memcpy	@
 337              	.LVL32:
 113:../../lib/lpc11cx4-library/lpc_chip_11cxx_lib/src/ring_buffer.c **** 	RingBuff->head += cnt2;
 338              		.loc 1 113 0
 339 0076 EB68     		ldr	r3, [r5, #12]	@ tmp198, RingBuff_5(D)->head
 114:../../lib/lpc11cx4-library/lpc_chip_11cxx_lib/src/ring_buffer.c **** 
 115:../../lib/lpc11cx4-library/lpc_chip_11cxx_lib/src/ring_buffer.c **** 	return cnt1 + cnt2;
 340              		.loc 1 115 0
 341 0078 E019     		adds	r0, r4, r7	@ D.4856, cnt1, cnt2
 113:../../lib/lpc11cx4-library/lpc_chip_11cxx_lib/src/ring_buffer.c **** 	RingBuff->head += cnt2;
 342              		.loc 1 113 0
 343 007a DB19     		adds	r3, r3, r7	@ D.4857, tmp198, cnt2
 344 007c EB60     		str	r3, [r5, #12]	@ D.4857, RingBuff_5(D)->head
 345              	.LVL33:
 346              	.L7:
 116:../../lib/lpc11cx4-library/lpc_chip_11cxx_lib/src/ring_buffer.c **** }
 347              		.loc 1 116 0
 348              		@ sp needed	@
 349              	.LVL34:
 350 007e 04BC     		pop	{r2}
 351 0080 9046     		mov	r8, r2
 352 0082 F0BD     		pop	{r4, r5, r6, r7, pc}
 353              	.LVL35:
 354              	.L14:
 101:../../lib/lpc11cx4-library/lpc_chip_11cxx_lib/src/ring_buffer.c **** 	num -= cnt2;
 355              		.loc 1 101 0
 356 0084 1700     		movs	r7, r2	@ cnt2, D.4859
 357              	.LVL36:
 358 0086 DBE7     		b	.L10	@
 359              	.LVL37:
 360              	.L13:
  98:../../lib/lpc11cx4-library/lpc_chip_11cxx_lib/src/ring_buffer.c **** 	num -= cnt1;
 361              		.loc 1 98 0
 362 0088 3C00     		movs	r4, r7	@ cnt1, num
 363              	.LVL38:
 101:../../lib/lpc11cx4-library/lpc_chip_11cxx_lib/src/ring_buffer.c **** 	num -= cnt2;
ARM GAS  /var/folders/z0/6xlwn_996xz3mwq1cgzkbq4r0000gp/T//cchvq4ef.s 			page 12


 364              		.loc 1 101 0
 365 008a 3F1B     		subs	r7, r7, r4	@ cnt2, num, cnt1
 366              	.LVL39:
 367 008c 9742     		cmp	r7, r2	@ cnt2, D.4859
 368 008e D7DD     		ble	.L10	@,
 369 0090 F8E7     		b	.L14	@
 370              		.cfi_endproc
 371              	.LFE8:
 372              		.size	RingBuffer_InsertMult, .-RingBuffer_InsertMult
 373 0092 C046     		.section	.text.RingBuffer_Pop,"ax",%progbits
 374              		.align	2
 375              		.global	RingBuffer_Pop
 376              		.code	16
 377              		.thumb_func
 378              		.type	RingBuffer_Pop, %function
 379              	RingBuffer_Pop:
 380              	.LFB9:
 117:../../lib/lpc11cx4-library/lpc_chip_11cxx_lib/src/ring_buffer.c **** 
 118:../../lib/lpc11cx4-library/lpc_chip_11cxx_lib/src/ring_buffer.c **** /* Pop single item from Ring Buffer */
 119:../../lib/lpc11cx4-library/lpc_chip_11cxx_lib/src/ring_buffer.c **** int RingBuffer_Pop(RINGBUFF_T *RingBuff, void *data)
 120:../../lib/lpc11cx4-library/lpc_chip_11cxx_lib/src/ring_buffer.c **** {
 381              		.loc 1 120 0
 382              		.cfi_startproc
 383              		@ args = 0, pretend = 0, frame = 0
 384              		@ frame_needed = 0, uses_anonymous_args = 0
 385              	.LVL40:
 386 0000 F8B5     		push	{r3, r4, r5, r6, r7, lr}	@
 387              		.cfi_def_cfa_offset 24
 388              		.cfi_offset 3, -24
 389              		.cfi_offset 4, -20
 390              		.cfi_offset 5, -16
 391              		.cfi_offset 6, -12
 392              		.cfi_offset 7, -8
 393              		.cfi_offset 14, -4
 394              		.loc 1 120 0
 395 0002 0400     		movs	r4, r0	@ RingBuff, RingBuff
 396 0004 0369     		ldr	r3, [r0, #16]	@ D.4871, MEM[(long unsigned int *)RingBuff_4(D) + 16B]
 397              	.LVL41:
 121:../../lib/lpc11cx4-library/lpc_chip_11cxx_lib/src/ring_buffer.c **** 	uint8_t *ptr = RingBuff->data;
 122:../../lib/lpc11cx4-library/lpc_chip_11cxx_lib/src/ring_buffer.c **** 
 123:../../lib/lpc11cx4-library/lpc_chip_11cxx_lib/src/ring_buffer.c **** 	/* We cannot pop when queue is empty */
 124:../../lib/lpc11cx4-library/lpc_chip_11cxx_lib/src/ring_buffer.c **** 	if (RingBuffer_IsEmpty(RingBuff))
 398              		.loc 1 124 0
 399 0006 E268     		ldr	r2, [r4, #12]	@ tmp141, MEM[(long unsigned int *)RingBuff_4(D) + 12B]
 120:../../lib/lpc11cx4-library/lpc_chip_11cxx_lib/src/ring_buffer.c **** 	uint8_t *ptr = RingBuff->data;
 400              		.loc 1 120 0
 401 0008 0E00     		movs	r6, r1	@ data, data
 125:../../lib/lpc11cx4-library/lpc_chip_11cxx_lib/src/ring_buffer.c **** 		return 0;
 402              		.loc 1 125 0
 403 000a 0020     		movs	r0, #0	@ D.4869,
 404              	.LVL42:
 124:../../lib/lpc11cx4-library/lpc_chip_11cxx_lib/src/ring_buffer.c **** 		return 0;
 405              		.loc 1 124 0
 406 000c 9A42     		cmp	r2, r3	@ tmp141, D.4871
 407 000e 0FD0     		beq	.L16	@,
 126:../../lib/lpc11cx4-library/lpc_chip_11cxx_lib/src/ring_buffer.c **** 
 127:../../lib/lpc11cx4-library/lpc_chip_11cxx_lib/src/ring_buffer.c **** 	ptr += RB_INDT(RingBuff) * RingBuff->itemSz;
ARM GAS  /var/folders/z0/6xlwn_996xz3mwq1cgzkbq4r0000gp/T//cchvq4ef.s 			page 13


 128:../../lib/lpc11cx4-library/lpc_chip_11cxx_lib/src/ring_buffer.c **** 	memcpy(data, ptr, RingBuff->itemSz);
 408              		.loc 1 128 0
 409 0010 1800     		movs	r0, r3	@, D.4871
 410 0012 6168     		ldr	r1, [r4, #4]	@, RingBuff_4(D)->count
 411              	.LVL43:
 412 0014 FFF7FEFF 		bl	__aeabi_uidivmod	@
 413              	.LVL44:
 127:../../lib/lpc11cx4-library/lpc_chip_11cxx_lib/src/ring_buffer.c **** 	memcpy(data, ptr, RingBuff->itemSz);
 414              		.loc 1 127 0
 415 0018 A568     		ldr	r5, [r4, #8]	@ D.4870, RingBuff_4(D)->itemSz
 121:../../lib/lpc11cx4-library/lpc_chip_11cxx_lib/src/ring_buffer.c **** 
 416              		.loc 1 121 0
 417 001a 2768     		ldr	r7, [r4]	@ ptr, RingBuff_4(D)->data
 418              		.loc 1 128 0
 419 001c 6943     		muls	r1, r5	@ D.4870, D.4870
 420 001e 2A00     		movs	r2, r5	@, D.4870
 421 0020 7918     		adds	r1, r7, r1	@ ptr, ptr, D.4870
 422 0022 3000     		movs	r0, r6	@, data
 423 0024 FFF7FEFF 		bl	memcpy	@
 424              	.LVL45:
 129:../../lib/lpc11cx4-library/lpc_chip_11cxx_lib/src/ring_buffer.c **** 	RingBuff->tail++;
 130:../../lib/lpc11cx4-library/lpc_chip_11cxx_lib/src/ring_buffer.c ****  
 131:../../lib/lpc11cx4-library/lpc_chip_11cxx_lib/src/ring_buffer.c **** 	return 1;
 425              		.loc 1 131 0
 426 0028 0120     		movs	r0, #1	@ D.4869,
 129:../../lib/lpc11cx4-library/lpc_chip_11cxx_lib/src/ring_buffer.c **** 	RingBuff->tail++;
 427              		.loc 1 129 0
 428 002a 2369     		ldr	r3, [r4, #16]	@ tmp143, RingBuff_4(D)->tail
 429 002c 0133     		adds	r3, r3, #1	@ D.4870,
 430 002e 2361     		str	r3, [r4, #16]	@ D.4870, RingBuff_4(D)->tail
 431              	.L16:
 132:../../lib/lpc11cx4-library/lpc_chip_11cxx_lib/src/ring_buffer.c **** }
 432              		.loc 1 132 0
 433              		@ sp needed	@
 434              	.LVL46:
 435              	.LVL47:
 436 0030 F8BD     		pop	{r3, r4, r5, r6, r7, pc}
 437              		.cfi_endproc
 438              	.LFE9:
 439              		.size	RingBuffer_Pop, .-RingBuffer_Pop
 440 0032 C046     		.section	.text.RingBuffer_PopMult,"ax",%progbits
 441              		.align	2
 442              		.global	RingBuffer_PopMult
 443              		.code	16
 444              		.thumb_func
 445              		.type	RingBuffer_PopMult, %function
 446              	RingBuffer_PopMult:
 447              	.LFB10:
 133:../../lib/lpc11cx4-library/lpc_chip_11cxx_lib/src/ring_buffer.c **** 
 134:../../lib/lpc11cx4-library/lpc_chip_11cxx_lib/src/ring_buffer.c **** /* Pop multiple items from Ring buffer */
 135:../../lib/lpc11cx4-library/lpc_chip_11cxx_lib/src/ring_buffer.c **** uint32_t RingBuffer_PopMult(RINGBUFF_T *RingBuff, void *data, int num)
 136:../../lib/lpc11cx4-library/lpc_chip_11cxx_lib/src/ring_buffer.c **** {
 448              		.loc 1 136 0
 449              		.cfi_startproc
 450              		@ args = 0, pretend = 0, frame = 0
 451              		@ frame_needed = 0, uses_anonymous_args = 0
 452              	.LVL48:
ARM GAS  /var/folders/z0/6xlwn_996xz3mwq1cgzkbq4r0000gp/T//cchvq4ef.s 			page 14


 453 0000 F8B5     		push	{r3, r4, r5, r6, r7, lr}	@
 454              		.cfi_def_cfa_offset 24
 455              		.cfi_offset 3, -24
 456              		.cfi_offset 4, -20
 457              		.cfi_offset 5, -16
 458              		.cfi_offset 6, -12
 459              		.cfi_offset 7, -8
 460              		.cfi_offset 14, -4
 461 0002 4F46     		mov	r7, r9	@,
 462 0004 4646     		mov	r6, r8	@,
 463 0006 C468     		ldr	r4, [r0, #12]	@ D.4877, MEM[(long unsigned int *)RingBuff_5(D) + 12B]
 464 0008 C0B4     		push	{r6, r7}	@
 465              		.cfi_def_cfa_offset 32
 466              		.cfi_offset 8, -32
 467              		.cfi_offset 9, -28
 468              		.loc 1 136 0
 469 000a 0700     		movs	r7, r0	@ RingBuff, RingBuff
 470 000c 0069     		ldr	r0, [r0, #16]	@ D.4877, MEM[(long unsigned int *)RingBuff_5(D) + 16B]
 471              	.LVL49:
 472 000e 8846     		mov	r8, r1	@ data, data
 473 0010 1500     		movs	r5, r2	@ num, num
 137:../../lib/lpc11cx4-library/lpc_chip_11cxx_lib/src/ring_buffer.c **** 	uint8_t *ptr = RingBuff->data;
 138:../../lib/lpc11cx4-library/lpc_chip_11cxx_lib/src/ring_buffer.c **** 	int cnt1, cnt2;
 139:../../lib/lpc11cx4-library/lpc_chip_11cxx_lib/src/ring_buffer.c **** 
 140:../../lib/lpc11cx4-library/lpc_chip_11cxx_lib/src/ring_buffer.c **** 	/* We cannot insert when queue is empty */
 141:../../lib/lpc11cx4-library/lpc_chip_11cxx_lib/src/ring_buffer.c **** 	if (RingBuffer_IsEmpty(RingBuff))
 474              		.loc 1 141 0
 475 0012 8442     		cmp	r4, r0	@ D.4877, D.4877
 476 0014 3DD0     		beq	.L23	@,
 477              	.LVL50:
 142:../../lib/lpc11cx4-library/lpc_chip_11cxx_lib/src/ring_buffer.c **** 		return 0;
 143:../../lib/lpc11cx4-library/lpc_chip_11cxx_lib/src/ring_buffer.c **** 
 144:../../lib/lpc11cx4-library/lpc_chip_11cxx_lib/src/ring_buffer.c **** 	/* Calculate the segment lengths */
 145:../../lib/lpc11cx4-library/lpc_chip_11cxx_lib/src/ring_buffer.c **** 	cnt1 = cnt2 = RingBuffer_GetCount(RingBuff);
 146:../../lib/lpc11cx4-library/lpc_chip_11cxx_lib/src/ring_buffer.c **** 	if (RB_INDT(RingBuff) + cnt1 >= RingBuff->count)
 478              		.loc 1 146 0
 479 0016 7E68     		ldr	r6, [r7, #4]	@ D.4878, RingBuff_5(D)->count
 480              	.LBB38:
 481              	.LBB39:
 107:../../lib/lpc11cx4-library/lpc_chip_11cxx_lib/inc/ring_buffer.h **** }
 482              		.loc 2 107 0
 483 0018 241A     		subs	r4, r4, r0	@ cnt1, D.4877, D.4877
 484              	.LVL51:
 485              	.LBE39:
 486              	.LBE38:
 487              		.loc 1 146 0
 488 001a 3100     		movs	r1, r6	@, D.4878
 489              	.LVL52:
 490 001c FFF7FEFF 		bl	__aeabi_uidivmod	@
 491              	.LVL53:
 492 0020 0B19     		adds	r3, r1, r4	@ D.4878, D.4878, cnt1
 493 0022 0022     		movs	r2, #0	@ D.4880,
 494 0024 9E42     		cmp	r6, r3	@ D.4878, D.4878
 495 0026 02D8     		bhi	.L20	@,
 147:../../lib/lpc11cx4-library/lpc_chip_11cxx_lib/src/ring_buffer.c **** 		cnt1 = RingBuff->count - RB_INDT(RingBuff);
 496              		.loc 1 147 0
 497 0028 761A     		subs	r6, r6, r1	@ cnt1, D.4878, D.4878
ARM GAS  /var/folders/z0/6xlwn_996xz3mwq1cgzkbq4r0000gp/T//cchvq4ef.s 			page 15


 498              	.LVL54:
 499 002a A21B     		subs	r2, r4, r6	@ D.4880, cnt1, cnt1
 500 002c 3400     		movs	r4, r6	@ cnt1, cnt1
 501              	.LVL55:
 502              	.L20:
 137:../../lib/lpc11cx4-library/lpc_chip_11cxx_lib/src/ring_buffer.c **** 	int cnt1, cnt2;
 503              		.loc 1 137 0
 504 002e 3868     		ldr	r0, [r7]	@ ptr, RingBuff_5(D)->data
 505              	.LVL56:
 148:../../lib/lpc11cx4-library/lpc_chip_11cxx_lib/src/ring_buffer.c **** 	cnt2 -= cnt1;
 149:../../lib/lpc11cx4-library/lpc_chip_11cxx_lib/src/ring_buffer.c **** 
 150:../../lib/lpc11cx4-library/lpc_chip_11cxx_lib/src/ring_buffer.c **** 	cnt1 = MIN(cnt1, num);
 506              		.loc 1 150 0
 507 0030 AC42     		cmp	r4, r5	@ cnt1, num
 508 0032 29DC     		bgt	.L25	@,
 509              	.LVL57:
 151:../../lib/lpc11cx4-library/lpc_chip_11cxx_lib/src/ring_buffer.c **** 	num -= cnt1;
 152:../../lib/lpc11cx4-library/lpc_chip_11cxx_lib/src/ring_buffer.c **** 
 153:../../lib/lpc11cx4-library/lpc_chip_11cxx_lib/src/ring_buffer.c **** 	cnt2 = MIN(cnt2, num);
 510              		.loc 1 153 0
 511 0034 2D1B     		subs	r5, r5, r4	@ cnt2, num, cnt1
 512              	.LVL58:
 513 0036 9542     		cmp	r5, r2	@ cnt2, D.4880
 514 0038 24DC     		bgt	.L26	@,
 515              	.LVL59:
 516              	.L22:
 154:../../lib/lpc11cx4-library/lpc_chip_11cxx_lib/src/ring_buffer.c **** 	num -= cnt2;
 155:../../lib/lpc11cx4-library/lpc_chip_11cxx_lib/src/ring_buffer.c **** 
 156:../../lib/lpc11cx4-library/lpc_chip_11cxx_lib/src/ring_buffer.c **** 	/* Write segment 1 */
 157:../../lib/lpc11cx4-library/lpc_chip_11cxx_lib/src/ring_buffer.c **** 	ptr += RB_INDT(RingBuff) * RingBuff->itemSz;
 158:../../lib/lpc11cx4-library/lpc_chip_11cxx_lib/src/ring_buffer.c **** 	memcpy(data, ptr, cnt1 * RingBuff->itemSz);
 517              		.loc 1 158 0
 518 003a 2200     		movs	r2, r4	@ D.4878, cnt1
 157:../../lib/lpc11cx4-library/lpc_chip_11cxx_lib/src/ring_buffer.c **** 	memcpy(data, ptr, cnt1 * RingBuff->itemSz);
 519              		.loc 1 157 0
 520 003c BB68     		ldr	r3, [r7, #8]	@ D.4878, RingBuff_5(D)->itemSz
 521              	.LVL60:
 522              		.loc 1 158 0
 523 003e 5A43     		muls	r2, r3	@ D.4878, D.4878
 524 0040 4B43     		muls	r3, r1	@ D.4878, D.4878
 525              	.LVL61:
 526 0042 C118     		adds	r1, r0, r3	@ ptr, ptr, D.4878
 527              	.LVL62:
 528 0044 4046     		mov	r0, r8	@, data
 529 0046 FFF7FEFF 		bl	memcpy	@
 530              	.LVL63:
 159:../../lib/lpc11cx4-library/lpc_chip_11cxx_lib/src/ring_buffer.c **** 	RingBuff->tail += cnt1;
 531              		.loc 1 159 0
 532 004a 3B69     		ldr	r3, [r7, #16]	@ tmp186, RingBuff_5(D)->tail
 160:../../lib/lpc11cx4-library/lpc_chip_11cxx_lib/src/ring_buffer.c **** 
 161:../../lib/lpc11cx4-library/lpc_chip_11cxx_lib/src/ring_buffer.c **** 	/* Write segment 2 */
 162:../../lib/lpc11cx4-library/lpc_chip_11cxx_lib/src/ring_buffer.c **** 	ptr = (uint8_t *) RingBuff->data + RB_INDT(RingBuff) * RingBuff->itemSz;
 533              		.loc 1 162 0
 534 004c BE68     		ldr	r6, [r7, #8]	@ D.4878, RingBuff_5(D)->itemSz
 159:../../lib/lpc11cx4-library/lpc_chip_11cxx_lib/src/ring_buffer.c **** 	RingBuff->tail += cnt1;
 535              		.loc 1 159 0
 536 004e E018     		adds	r0, r4, r3	@ D.4878, cnt1, tmp186
ARM GAS  /var/folders/z0/6xlwn_996xz3mwq1cgzkbq4r0000gp/T//cchvq4ef.s 			page 16


 537              	.LVL64:
 163:../../lib/lpc11cx4-library/lpc_chip_11cxx_lib/src/ring_buffer.c **** 	data = (uint8_t *) data + cnt1 * RingBuff->itemSz;
 164:../../lib/lpc11cx4-library/lpc_chip_11cxx_lib/src/ring_buffer.c **** 	memcpy(data, ptr, cnt2 * RingBuff->itemSz);
 538              		.loc 1 164 0
 539 0050 3300     		movs	r3, r6	@ D.4878, D.4878
 540 0052 6343     		muls	r3, r4	@ D.4878, cnt1
 541 0054 9844     		add	r8, r8, r3	@ data, D.4878
 542              	.LVL65:
 543 0056 2B00     		movs	r3, r5	@ D.4878, cnt2
 544 0058 7343     		muls	r3, r6	@ D.4878, D.4878
 545 005a 7968     		ldr	r1, [r7, #4]	@, RingBuff_5(D)->count
 159:../../lib/lpc11cx4-library/lpc_chip_11cxx_lib/src/ring_buffer.c **** 
 546              		.loc 1 159 0
 547 005c 3861     		str	r0, [r7, #16]	@ D.4878, RingBuff_5(D)->tail
 548              	.LVL66:
 549              		.loc 1 164 0
 550 005e 9946     		mov	r9, r3	@ D.4878, D.4878
 551 0060 FFF7FEFF 		bl	__aeabi_uidivmod	@
 552              	.LVL67:
 553 0064 3B68     		ldr	r3, [r7]	@ tmp189, RingBuff_5(D)->data
 554 0066 7143     		muls	r1, r6	@ D.4878, D.4878
 555 0068 9C46     		mov	ip, r3	@ tmp189, tmp189
 556 006a 4A46     		mov	r2, r9	@, D.4878
 557 006c 6144     		add	r1, r1, ip	@ ptr, tmp189
 558 006e 4046     		mov	r0, r8	@, data
 559 0070 FFF7FEFF 		bl	memcpy	@
 560              	.LVL68:
 165:../../lib/lpc11cx4-library/lpc_chip_11cxx_lib/src/ring_buffer.c **** 	RingBuff->tail += cnt2;
 561              		.loc 1 165 0
 562 0074 3B69     		ldr	r3, [r7, #16]	@ tmp191, RingBuff_5(D)->tail
 166:../../lib/lpc11cx4-library/lpc_chip_11cxx_lib/src/ring_buffer.c **** 
 167:../../lib/lpc11cx4-library/lpc_chip_11cxx_lib/src/ring_buffer.c **** 	return cnt1 + cnt2;
 563              		.loc 1 167 0
 564 0076 6019     		adds	r0, r4, r5	@ D.4877, cnt1, cnt2
 165:../../lib/lpc11cx4-library/lpc_chip_11cxx_lib/src/ring_buffer.c **** 	RingBuff->tail += cnt2;
 565              		.loc 1 165 0
 566 0078 5B19     		adds	r3, r3, r5	@ D.4878, tmp191, cnt2
 567 007a 3B61     		str	r3, [r7, #16]	@ D.4878, RingBuff_5(D)->tail
 568              	.LVL69:
 569              	.L19:
 168:../../lib/lpc11cx4-library/lpc_chip_11cxx_lib/src/ring_buffer.c **** }
 570              		.loc 1 168 0
 571              		@ sp needed	@
 572              	.LVL70:
 573              	.LVL71:
 574 007c 0CBC     		pop	{r2, r3}
 575 007e 9046     		mov	r8, r2
 576 0080 9946     		mov	r9, r3
 577 0082 F8BD     		pop	{r3, r4, r5, r6, r7, pc}
 578              	.LVL72:
 579              	.L26:
 153:../../lib/lpc11cx4-library/lpc_chip_11cxx_lib/src/ring_buffer.c **** 	num -= cnt2;
 580              		.loc 1 153 0
 581 0084 1500     		movs	r5, r2	@ cnt2, D.4880
 582              	.LVL73:
 583 0086 D8E7     		b	.L22	@
 584              	.LVL74:
ARM GAS  /var/folders/z0/6xlwn_996xz3mwq1cgzkbq4r0000gp/T//cchvq4ef.s 			page 17


 585              	.L25:
 150:../../lib/lpc11cx4-library/lpc_chip_11cxx_lib/src/ring_buffer.c **** 	num -= cnt1;
 586              		.loc 1 150 0
 587 0088 2C00     		movs	r4, r5	@ cnt1, num
 588              	.LVL75:
 153:../../lib/lpc11cx4-library/lpc_chip_11cxx_lib/src/ring_buffer.c **** 	num -= cnt2;
 589              		.loc 1 153 0
 590 008a 2D1B     		subs	r5, r5, r4	@ cnt2, num, cnt1
 591              	.LVL76:
 592 008c 9542     		cmp	r5, r2	@ cnt2, D.4880
 593 008e D4DD     		ble	.L22	@,
 594 0090 F8E7     		b	.L26	@
 595              	.LVL77:
 596              	.L23:
 142:../../lib/lpc11cx4-library/lpc_chip_11cxx_lib/src/ring_buffer.c **** 
 597              		.loc 1 142 0
 598 0092 0020     		movs	r0, #0	@ D.4877,
 599 0094 F2E7     		b	.L19	@
 600              		.cfi_endproc
 601              	.LFE10:
 602              		.size	RingBuffer_PopMult, .-RingBuffer_PopMult
 603 0096 C046     		.text
 604              	.Letext0:
 605              		.file 3 "/usr/local/Cellar/gcc-arm-none-eabi/20160928/arm-none-eabi/include/machine/_default_types
 606              		.file 4 "/usr/local/Cellar/gcc-arm-none-eabi/20160928/arm-none-eabi/include/sys/_stdint.h"