ARM GAS  /var/folders/z0/6xlwn_996xz3mwq1cgzkbq4r0000gp/T//ccO747n5.s 			page 1


   1              		.syntax unified
   2              		.cpu cortex-m0
   3              		.fpu softvfp
   4              		.eabi_attribute 20, 1	@ Tag_ABI_FP_denormal
   5              		.eabi_attribute 21, 1	@ Tag_ABI_FP_exceptions
   6              		.eabi_attribute 23, 3	@ Tag_ABI_FP_number_model
   7              		.eabi_attribute 24, 1	@ Tag_ABI_align8_needed
   8              		.eabi_attribute 25, 1	@ Tag_ABI_align8_preserved
   9              		.eabi_attribute 26, 1	@ Tag_ABI_enum_size
  10              		.eabi_attribute 30, 2	@ Tag_ABI_optimization_goals
  11              		.eabi_attribute 34, 0	@ Tag_CPU_unaligned_access
  12              		.eabi_attribute 18, 4	@ Tag_ABI_PCS_wchar_t
  13              		.file	"ssm.c"
  14              	@ GNU C89 (GNU Tools for ARM Embedded Processors) version 5.4.1 20160919 (release) [ARM/embedded-5-
  15              	@	compiled by GNU C version 4.2.1 (Based on Apple Inc. build 5658) (LLVM build 2336.9.00), GMP vers
  16              	@ GGC heuristics: --param ggc-min-expand=100 --param ggc-min-heapsize=131072
  17              	@ options passed:  -I . -I inc/
  18              	@ -I ../../lib/lpc11cx4-library/lpc_chip_11cxx_lib/inc
  19              	@ -I ../../lib/lpc11cx4-library/evt_lib/inc/ -I ../../lib/CANlib/
  20              	@ -imultilib armv6-m
  21              	@ -iprefix /usr/local/Cellar/gcc-arm-none-eabi/20160928/bin/../lib/gcc/arm-none-eabi/5.4.1/
  22              	@ -isysroot /usr/local/Cellar/gcc-arm-none-eabi/20160928/bin/../arm-none-eabi
  23              	@ -MD bin/ssm.d -MF bin/ssm.d -MP -MQ bin/ssm.o -D__USES_INITFINI__
  24              	@ -D UART_BAUD=57600 -D CORE_M0 -D DEBUG_ENABLE -D FSAE_DRIVERS
  25              	@ -D CAN_ARCHITECTURE_ARM src/ssm.c -mcpu=cortex-m0 -mthumb
  26              	@ -auxbase-strip bin/ssm.o -g -ggdb3 -O2 -Wall -Wstrict-prototypes -Wextra
  27              	@ -std=gnu90 -ffunction-sections -fdata-sections -fdiagnostics-color=always
  28              	@ -fverbose-asm
  29              	@ options enabled:  -faggressive-loop-optimizations -falign-functions
  30              	@ -falign-jumps -falign-labels -falign-loops -fauto-inc-dec
  31              	@ -fbranch-count-reg -fcaller-saves -fchkp-check-incomplete-type
  32              	@ -fchkp-check-read -fchkp-check-write -fchkp-instrument-calls
  33              	@ -fchkp-narrow-bounds -fchkp-optimize -fchkp-store-bounds
  34              	@ -fchkp-use-static-bounds -fchkp-use-static-const-bounds
  35              	@ -fchkp-use-wrappers -fcombine-stack-adjustments -fcommon -fcompare-elim
  36              	@ -fcprop-registers -fcrossjumping -fcse-follow-jumps -fdata-sections
  37              	@ -fdefer-pop -fdelete-null-pointer-checks -fdevirtualize
  38              	@ -fdevirtualize-speculatively -fdwarf2-cfi-asm -fearly-inlining
  39              	@ -feliminate-unused-debug-types -fexpensive-optimizations
  40              	@ -fforward-propagate -ffunction-cse -ffunction-sections -fgcse -fgcse-lm
  41              	@ -fgnu-runtime -fgnu-unique -fguess-branch-probability
  42              	@ -fhoist-adjacent-loads -fident -fif-conversion -fif-conversion2
  43              	@ -findirect-inlining -finline -finline-atomics
  44              	@ -finline-functions-called-once -finline-small-functions -fipa-cp
  45              	@ -fipa-cp-alignment -fipa-icf -fipa-icf-functions -fipa-icf-variables
  46              	@ -fipa-profile -fipa-pure-const -fipa-reference -fipa-sra
  47              	@ -fira-hoist-pressure -fira-share-save-slots -fira-share-spill-slots
  48              	@ -fisolate-erroneous-paths-dereference -fivopts -fkeep-static-consts
  49              	@ -fleading-underscore -flifetime-dse -flra-remat -flto-odr-type-merging
  50              	@ -fmath-errno -fmerge-constants -fmerge-debug-strings
  51              	@ -fmove-loop-invariants -fomit-frame-pointer -foptimize-sibling-calls
  52              	@ -foptimize-strlen -fpartial-inlining -fpeephole -fpeephole2
  53              	@ -fprefetch-loop-arrays -freg-struct-return -freorder-blocks
  54              	@ -freorder-functions -frerun-cse-after-loop
  55              	@ -fsched-critical-path-heuristic -fsched-dep-count-heuristic
  56              	@ -fsched-group-heuristic -fsched-interblock -fsched-last-insn-heuristic
  57              	@ -fsched-pressure -fsched-rank-heuristic -fsched-spec
ARM GAS  /var/folders/z0/6xlwn_996xz3mwq1cgzkbq4r0000gp/T//ccO747n5.s 			page 2


  58              	@ -fsched-spec-insn-heuristic -fsched-stalled-insns-dep -fschedule-insns2
  59              	@ -fsection-anchors -fsemantic-interposition -fshow-column -fshrink-wrap
  60              	@ -fsigned-zeros -fsplit-ivs-in-unroller -fsplit-wide-types -fssa-phiopt
  61              	@ -fstdarg-opt -fstrict-aliasing -fstrict-overflow
  62              	@ -fstrict-volatile-bitfields -fsync-libcalls -fthread-jumps
  63              	@ -ftoplevel-reorder -ftrapping-math -ftree-bit-ccp -ftree-builtin-call-dce
  64              	@ -ftree-ccp -ftree-ch -ftree-coalesce-vars -ftree-copy-prop
  65              	@ -ftree-copyrename -ftree-cselim -ftree-dce -ftree-dominator-opts
  66              	@ -ftree-dse -ftree-forwprop -ftree-fre -ftree-loop-if-convert
  67              	@ -ftree-loop-im -ftree-loop-ivcanon -ftree-loop-optimize
  68              	@ -ftree-parallelize-loops= -ftree-phiprop -ftree-pre -ftree-pta
  69              	@ -ftree-reassoc -ftree-scev-cprop -ftree-sink -ftree-slsr -ftree-sra
  70              	@ -ftree-switch-conversion -ftree-tail-merge -ftree-ter -ftree-vrp
  71              	@ -funit-at-a-time -fvar-tracking -fvar-tracking-assignments -fverbose-asm
  72              	@ -fzero-initialized-in-bss -mlittle-endian -mpic-data-is-text-relative
  73              	@ -msched-prolog -mthumb -mvectorize-with-neon-quad
  74              	
  75              		.text
  76              	.Ltext0:
  77              		.cfi_sections	.debug_frame
  78              		.section	.text.SSM_Init,"ax",%progbits
  79              		.align	2
  80              		.global	SSM_Init
  81              		.code	16
  82              		.thumb_func
  83              		.type	SSM_Init, %function
  84              	SSM_Init:
  85              	.LFB0:
  86              		.file 1 "src/ssm.c"
   1:src/ssm.c     **** #include "ssm.h"
   2:src/ssm.c     **** 
   3:src/ssm.c     **** volatile uint32_t msTicks;
   4:src/ssm.c     **** 
   5:src/ssm.c     **** void SSM_Init(CSB_INPUT_T *input, CSB_STATE_T *state, CSB_OUTPUT_T *output) {
  87              		.loc 1 5 0
  88              		.cfi_startproc
  89              		@ args = 0, pretend = 0, frame = 0
  90              		@ frame_needed = 0, uses_anonymous_args = 0
  91              	.LVL0:
   6:src/ssm.c     ****   // Initialize BMS state variables
   7:src/ssm.c     ****   state->curr_mode = CSB_SSM_MODE_INIT;
  92              		.loc 1 7 0
  93 0000 0023     		movs	r3, #0	@ tmp114,
   5:src/ssm.c     ****   // Initialize BMS state variables
  94              		.loc 1 5 0
  95 0002 10B5     		push	{r4, lr}	@
  96              		.cfi_def_cfa_offset 8
  97              		.cfi_offset 4, -8
  98              		.cfi_offset 14, -4
   8:src/ssm.c     ****   state->init_state = CSB_INIT_OFF;
   9:src/ssm.c     **** 
  10:src/ssm.c     ****   input->pack_status->max_cell_temp_dC = 0;
  99              		.loc 1 10 0
 100 0004 0268     		ldr	r2, [r0]	@ input_5(D)->pack_status, input_5(D)->pack_status
 101              	.LVL1:
   7:src/ssm.c     ****   state->init_state = CSB_INIT_OFF;
 102              		.loc 1 7 0
ARM GAS  /var/folders/z0/6xlwn_996xz3mwq1cgzkbq4r0000gp/T//ccO747n5.s 			page 3


 103 0006 0B71     		strb	r3, [r1, #4]	@ tmp114, state_2(D)->curr_mode
   8:src/ssm.c     ****   state->init_state = CSB_INIT_OFF;
 104              		.loc 1 8 0
 105 0008 4B71     		strb	r3, [r1, #5]	@ tmp114, state_2(D)->init_state
  11:src/ssm.c     **** 
  12:src/ssm.c     ****   Charge_Init(state);
 106              		.loc 1 12 0
 107 000a 0800     		movs	r0, r1	@, state
 108              	.LVL2:
  10:src/ssm.c     **** 
 109              		.loc 1 10 0
 110 000c 1383     		strh	r3, [r2, #24]	@ tmp114, _6->max_cell_temp_dC
 111              		.loc 1 12 0
 112 000e FFF7FEFF 		bl	Charge_Init	@
 113              	.LVL3:
  13:src/ssm.c     **** }
 114              		.loc 1 13 0
 115              		@ sp needed	@
 116 0012 10BD     		pop	{r4, pc}
 117              		.cfi_endproc
 118              	.LFE0:
 119              		.size	SSM_Init, .-SSM_Init
 120              		.section	.text.Init_Step,"ax",%progbits
 121              		.align	2
 122              		.global	Init_Step
 123              		.code	16
 124              		.thumb_func
 125              		.type	Init_Step, %function
 126              	Init_Step:
 127              	.LFB1:
  14:src/ssm.c     **** 
  15:src/ssm.c     **** void Init_Step(CSB_INPUT_T *input, CSB_STATE_T *state, CSB_OUTPUT_T *output) {
 128              		.loc 1 15 0
 129              		.cfi_startproc
 130              		@ args = 0, pretend = 0, frame = 0
 131              		@ frame_needed = 0, uses_anonymous_args = 0
 132              	.LVL4:
  16:src/ssm.c     ****   switch(state->init_state) {
 133              		.loc 1 16 0
 134 0000 4B79     		ldrb	r3, [r1, #5]	@ D.4457,
  15:src/ssm.c     ****   switch(state->init_state) {
 135              		.loc 1 15 0
 136 0002 10B5     		push	{r4, lr}	@
 137              		.cfi_def_cfa_offset 8
 138              		.cfi_offset 4, -8
 139              		.cfi_offset 14, -4
 140              		.loc 1 16 0
 141 0004 012B     		cmp	r3, #1	@ D.4457,
 142 0006 0BD0     		beq	.L4	@,
 143 0008 002B     		cmp	r3, #0	@ D.4457,
 144 000a 04D0     		beq	.L5	@,
 145 000c 022B     		cmp	r3, #2	@ D.4457,
 146 000e 01D1     		bne	.L2	@,
  17:src/ssm.c     ****       case(CSB_INIT_OFF):
  18:src/ssm.c     ****           output->send_bms_config = true;
  19:src/ssm.c     ****           state->init_state = CSB_INIT_BMS_CONFIG;
  20:src/ssm.c     ****           input->receive_bms_config = false;
ARM GAS  /var/folders/z0/6xlwn_996xz3mwq1cgzkbq4r0000gp/T//ccO747n5.s 			page 4


  21:src/ssm.c     ****           break;
  22:src/ssm.c     ****       case(CSB_INIT_BMS_CONFIG):
  23:src/ssm.c     ****           if(input->receive_bms_config) {
  24:src/ssm.c     ****               output->send_bms_config = false;
  25:src/ssm.c     ****               state->init_state = CSB_INIT_DONE;
  26:src/ssm.c     ****               state->curr_mode = CSB_SSM_MODE_IDLE; //but why?
  27:src/ssm.c     ****               input->receive_bms_config = false;
  28:src/ssm.c     ****           }
  29:src/ssm.c     ****           break;
  30:src/ssm.c     ****       case(CSB_INIT_DONE):
  31:src/ssm.c     ****           state->curr_mode = CSB_SSM_MODE_IDLE;
 147              		.loc 1 31 0
 148 0010 0123     		movs	r3, #1	@ tmp135,
 149 0012 0B71     		strb	r3, [r1, #4]	@ tmp135, state_2(D)->curr_mode
 150              	.LVL5:
 151              	.L2:
  32:src/ssm.c     ****           break;
  33:src/ssm.c     ****   }
  34:src/ssm.c     **** }
 152              		.loc 1 34 0
 153              		@ sp needed	@
 154 0014 10BD     		pop	{r4, pc}
 155              	.LVL6:
 156              	.L5:
  18:src/ssm.c     ****           state->init_state = CSB_INIT_BMS_CONFIG;
 157              		.loc 1 18 0
 158 0016 0124     		movs	r4, #1	@ tmp120,
 159 0018 1472     		strb	r4, [r2, #8]	@ tmp120, output_4(D)->send_bms_config
  19:src/ssm.c     ****           input->receive_bms_config = false;
 160              		.loc 1 19 0
 161 001a 4C71     		strb	r4, [r1, #5]	@ tmp120, state_2(D)->init_state
  20:src/ssm.c     ****           break;
 162              		.loc 1 20 0
 163 001c 0374     		strb	r3, [r0, #16]	@ D.4457, input_7(D)->receive_bms_config
  21:src/ssm.c     ****       case(CSB_INIT_BMS_CONFIG):
 164              		.loc 1 21 0
 165 001e F9E7     		b	.L2	@
 166              	.L4:
 167              	.LVL7:
 168              	.LBB9:
 169              	.LBB10:
  23:src/ssm.c     ****               output->send_bms_config = false;
 170              		.loc 1 23 0
 171 0020 047C     		ldrb	r4, [r0, #16]	@ tmp126,
 172 0022 002C     		cmp	r4, #0	@ tmp126,
 173 0024 F6D0     		beq	.L2	@,
  24:src/ssm.c     ****               state->init_state = CSB_INIT_DONE;
 174              		.loc 1 24 0
 175 0026 0024     		movs	r4, #0	@ tmp127,
 176 0028 1472     		strb	r4, [r2, #8]	@ tmp127, output_4(D)->send_bms_config
  25:src/ssm.c     ****               state->curr_mode = CSB_SSM_MODE_IDLE; //but why?
 177              		.loc 1 25 0
 178 002a 0222     		movs	r2, #2	@ tmp129,
 179              	.LVL8:
  26:src/ssm.c     ****               input->receive_bms_config = false;
 180              		.loc 1 26 0
 181 002c 0B71     		strb	r3, [r1, #4]	@ D.4457, state_2(D)->curr_mode
ARM GAS  /var/folders/z0/6xlwn_996xz3mwq1cgzkbq4r0000gp/T//ccO747n5.s 			page 5


  25:src/ssm.c     ****               state->curr_mode = CSB_SSM_MODE_IDLE; //but why?
 182              		.loc 1 25 0
 183 002e 4A71     		strb	r2, [r1, #5]	@ tmp129, state_2(D)->init_state
  27:src/ssm.c     ****           }
 184              		.loc 1 27 0
 185 0030 0474     		strb	r4, [r0, #16]	@ tmp127, input_7(D)->receive_bms_config
 186 0032 EFE7     		b	.L2	@
 187              	.LBE10:
 188              	.LBE9:
 189              		.cfi_endproc
 190              	.LFE1:
 191              		.size	Init_Step, .-Init_Step
 192              		.section	.text.Is_Valid_Jump,"ax",%progbits
 193              		.align	2
 194              		.global	Is_Valid_Jump
 195              		.code	16
 196              		.thumb_func
 197              		.type	Is_Valid_Jump, %function
 198              	Is_Valid_Jump:
 199              	.LFB2:
  35:src/ssm.c     **** 
  36:src/ssm.c     **** bool Is_Valid_Jump(CSB_SSM_MODE_T mode1, CSB_SSM_MODE_T mode2) {
 200              		.loc 1 36 0
 201              		.cfi_startproc
 202              		@ args = 0, pretend = 0, frame = 0
 203              		@ frame_needed = 0, uses_anonymous_args = 0
 204              		@ link register save eliminated.
 205              	.LVL9:
  37:src/ssm.c     **** 
  38:src/ssm.c     ****     // idle switch
  39:src/ssm.c     ****     if(mode1 == CSB_SSM_MODE_IDLE && mode2 == CSB_SSM_MODE_CHARGE) {
 206              		.loc 1 39 0
 207 0000 0128     		cmp	r0, #1	@ mode1,
 208 0002 10D0     		beq	.L18	@,
  40:src/ssm.c     ****         return true;
  41:src/ssm.c     ****     } else if(mode1 == CSB_SSM_MODE_IDLE && mode2 == CSB_SSM_MODE_BALANCE) {
  42:src/ssm.c     ****         return true;
  43:src/ssm.c     **** 
  44:src/ssm.c     ****     } else if(mode1 == CSB_SSM_MODE_CHARGE && mode2 == CSB_SSM_MODE_IDLE) {
 209              		.loc 1 44 0
 210 0004 0228     		cmp	r0, #2	@ mode1,
 211 0006 08D0     		beq	.L19	@,
  45:src/ssm.c     ****         return true;
  46:src/ssm.c     ****     } else if(mode1 == CSB_SSM_MODE_BALANCE && mode2 == CSB_SSM_MODE_IDLE) {
 212              		.loc 1 46 0
 213 0008 0328     		cmp	r0, #3	@ mode1,
 214 000a 13D1     		bne	.L20	@,
 215              		.loc 1 46 0 is_stmt 0 discriminator 1
 216 000c 0129     		cmp	r1, #1	@ mode2,
 217 000e 13D0     		beq	.L16	@,
  47:src/ssm.c     ****         return true;
  48:src/ssm.c     **** 
  49:src/ssm.c     ****     // charge and balance switch
  50:src/ssm.c     ****     } else if(mode1 == CSB_SSM_MODE_BALANCE && mode2 == CSB_SSM_MODE_CHARGE) {
 218              		.loc 1 50 0 is_stmt 1 discriminator 1
 219 0010 0239     		subs	r1, r1, #2	@ tmp131,
 220              	.LVL10:
ARM GAS  /var/folders/z0/6xlwn_996xz3mwq1cgzkbq4r0000gp/T//ccO747n5.s 			page 6


 221 0012 4842     		rsbs	r0, r1, #0	@ tmp130, tmp131
 222 0014 4841     		adcs	r0, r0, r1	@ tmp130, tmp131
 223              	.LVL11:
 224 0016 C0B2     		uxtb	r0, r0	@ D.4461, tmp130
 225 0018 04E0     		b	.L17	@
 226              	.LVL12:
 227              	.L19:
  44:src/ssm.c     ****         return true;
 228              		.loc 1 44 0 discriminator 1
 229 001a 8143     		bics	r1, r0	@ tmp125, mode1
 230              	.LVL13:
 231 001c 0139     		subs	r1, r1, #1	@ tmp127,
 232 001e 4842     		rsbs	r0, r1, #0	@ tmp126, tmp127
 233 0020 4841     		adcs	r0, r0, r1	@ tmp126, tmp127
 234              	.LVL14:
 235 0022 C0B2     		uxtb	r0, r0	@ D.4461, tmp126
 236              	.L17:
  51:src/ssm.c     ****         return true;
  52:src/ssm.c     ****     } else if(mode1 == CSB_SSM_MODE_CHARGE && mode2 == CSB_SSM_MODE_BALANCE) {
  53:src/ssm.c     ****         return true;
  54:src/ssm.c     ****     }
  55:src/ssm.c     ****     return false;
  56:src/ssm.c     **** }
 237              		.loc 1 56 0
 238              		@ sp needed	@
 239 0024 7047     		bx	lr
 240              	.LVL15:
 241              	.L18:
  39:src/ssm.c     ****         return true;
 242              		.loc 1 39 0 discriminator 1
 243 0026 0023     		movs	r3, #0	@ tmp121,
 244 0028 0239     		subs	r1, r1, #2	@ tmp116,
 245              	.LVL16:
 246 002a C9B2     		uxtb	r1, r1	@ tmp118, tmp116
 247 002c 8842     		cmp	r0, r1	@ mode1, tmp118
 248 002e 5B41     		adcs	r3, r3, r3	@ tmp119, tmp121, tmp121
 249 0030 D8B2     		uxtb	r0, r3	@ D.4461, tmp119
 250              	.LVL17:
 251 0032 F7E7     		b	.L17	@
 252              	.LVL18:
 253              	.L20:
  55:src/ssm.c     **** }
 254              		.loc 1 55 0
 255 0034 0020     		movs	r0, #0	@ D.4461,
 256              	.LVL19:
 257 0036 F5E7     		b	.L17	@
 258              	.LVL20:
 259              	.L16:
  47:src/ssm.c     **** 
 260              		.loc 1 47 0
 261 0038 0120     		movs	r0, #1	@ D.4461,
 262              	.LVL21:
 263 003a F3E7     		b	.L17	@
 264              		.cfi_endproc
 265              	.LFE2:
 266              		.size	Is_Valid_Jump, .-Is_Valid_Jump
 267              		.section	.text.Is_State_Done,"ax",%progbits
ARM GAS  /var/folders/z0/6xlwn_996xz3mwq1cgzkbq4r0000gp/T//ccO747n5.s 			page 7


 268              		.align	2
 269              		.global	Is_State_Done
 270              		.code	16
 271              		.thumb_func
 272              		.type	Is_State_Done, %function
 273              	Is_State_Done:
 274              	.LFB3:
  57:src/ssm.c     **** 
  58:src/ssm.c     **** bool Is_State_Done(CSB_STATE_T *state) {
 275              		.loc 1 58 0
 276              		.cfi_startproc
 277              		@ args = 0, pretend = 0, frame = 0
 278              		@ frame_needed = 0, uses_anonymous_args = 0
 279              		@ link register save eliminated.
 280              	.LVL22:
  59:src/ssm.c     ****     switch(state->curr_mode) {
 281              		.loc 1 59 0
 282 0000 0279     		ldrb	r2, [r0, #4]	@ D.4469,
 283 0002 012A     		cmp	r2, #1	@ D.4469,
 284 0004 11D0     		beq	.L26	@,
 285 0006 002A     		cmp	r2, #0	@ D.4469,
 286 0008 09D0     		beq	.L24	@,
  60:src/ssm.c     ****         case CSB_SSM_MODE_CHARGE:
  61:src/ssm.c     ****         case CSB_SSM_MODE_BALANCE:
  62:src/ssm.c     ****             return state->charge_state == CSB_CHARGE_OFF;
  63:src/ssm.c     ****         case CSB_SSM_MODE_INIT:
  64:src/ssm.c     ****             return state->init_state == CSB_INIT_DONE;
  65:src/ssm.c     ****         case CSB_SSM_MODE_IDLE:
  66:src/ssm.c     ****             return true;
  67:src/ssm.c     ****     }
  68:src/ssm.c     ****     return false;
 287              		.loc 1 68 0
 288 000a 0023     		movs	r3, #0	@ D.4468,
  59:src/ssm.c     ****     switch(state->curr_mode) {
 289              		.loc 1 59 0
 290 000c 032A     		cmp	r2, #3	@ D.4469,
 291 000e 01D9     		bls	.L27	@,
 292              	.LVL23:
 293              	.L23:
  69:src/ssm.c     **** }
 294              		.loc 1 69 0
 295 0010 1800     		movs	r0, r3	@, D.4468
 296              		@ sp needed	@
 297 0012 7047     		bx	lr
 298              	.LVL24:
 299              	.L27:
  62:src/ssm.c     ****         case CSB_SSM_MODE_INIT:
 300              		.loc 1 62 0
 301 0014 8379     		ldrb	r3, [r0, #6]	@ tmp122,
 302 0016 5842     		rsbs	r0, r3, #0	@ tmp124, tmp122
 303 0018 4341     		adcs	r3, r3, r0	@ tmp123, tmp122, tmp124
 304              	.LVL25:
 305 001a DBB2     		uxtb	r3, r3	@ D.4468, tmp123
 306 001c F8E7     		b	.L23	@
 307              	.LVL26:
 308              	.L24:
  64:src/ssm.c     ****         case CSB_SSM_MODE_IDLE:
ARM GAS  /var/folders/z0/6xlwn_996xz3mwq1cgzkbq4r0000gp/T//ccO747n5.s 			page 8


 309              		.loc 1 64 0
 310 001e 4379     		ldrb	r3, [r0, #5]	@ tmp126,
 311 0020 023B     		subs	r3, r3, #2	@ tmp128,
 312 0022 5842     		rsbs	r0, r3, #0	@ tmp129, tmp128
 313 0024 4341     		adcs	r3, r3, r0	@ tmp127, tmp128, tmp129
 314              	.LVL27:
 315 0026 DBB2     		uxtb	r3, r3	@ D.4468, tmp127
 316 0028 F2E7     		b	.L23	@
 317              	.LVL28:
 318              	.L26:
  66:src/ssm.c     ****     }
 319              		.loc 1 66 0
 320 002a 0123     		movs	r3, #1	@ D.4468,
 321 002c F0E7     		b	.L23	@
 322              		.cfi_endproc
 323              	.LFE3:
 324              		.size	Is_State_Done, .-Is_State_Done
 325 002e C046     		.section	.text.SSM_Step,"ax",%progbits
 326              		.align	2
 327              		.global	SSM_Step
 328              		.code	16
 329              		.thumb_func
 330              		.type	SSM_Step, %function
 331              	SSM_Step:
 332              	.LFB5:
  70:src/ssm.c     **** 
  71:src/ssm.c     **** static void Check_Error(CSB_INPUT_T *input, CSB_STATE_T *state, CSB_OUTPUT_T *output) {
  72:src/ssm.c     ****     (void)(output);
  73:src/ssm.c     **** 
  74:src/ssm.c     **** }
  75:src/ssm.c     **** 
  76:src/ssm.c     **** 
  77:src/ssm.c     **** void SSM_Step(CSB_INPUT_T *input, CSB_STATE_T *state, CSB_OUTPUT_T *output) {
 333              		.loc 1 77 0
 334              		.cfi_startproc
 335              		@ args = 0, pretend = 0, frame = 0
 336              		@ frame_needed = 0, uses_anonymous_args = 0
 337              	.LVL29:
 338 0000 F0B5     		push	{r4, r5, r6, r7, lr}	@
 339              		.cfi_def_cfa_offset 20
 340              		.cfi_offset 4, -20
 341              		.cfi_offset 5, -16
 342              		.cfi_offset 6, -12
 343              		.cfi_offset 7, -8
 344              		.cfi_offset 14, -4
 345 0002 4746     		mov	r7, r8	@,
 346 0004 80B4     		push	{r7}	@
 347              		.cfi_def_cfa_offset 24
 348              		.cfi_offset 8, -24
  78:src/ssm.c     ****     // OUTLINE:
  79:src/ssm.c     ****     // If change state request made and possible, change state
  80:src/ssm.c     ****     // Check if in idle:
  81:src/ssm.c     ****     //   if in idle:
  82:src/ssm.c     ****     //        if mode request change valid, switch over
  83:src/ssm.c     ****     //   else dispatch step to appropriate SM step
  84:src/ssm.c     ****     Check_Error(input, state, output);
  85:src/ssm.c     **** 
ARM GAS  /var/folders/z0/6xlwn_996xz3mwq1cgzkbq4r0000gp/T//ccO747n5.s 			page 9


  86:src/ssm.c     ****     if(Is_Valid_Jump(state->curr_mode, input->mode_request) && Is_State_Done(state)) {
 349              		.loc 1 86 0
 350 0006 0C79     		ldrb	r4, [r1, #4]	@ D.4491,
 351 0008 0779     		ldrb	r7, [r0, #4]	@ D.4491,
  77:src/ssm.c     ****     // OUTLINE:
 352              		.loc 1 77 0
 353 000a 0600     		movs	r6, r0	@ input, input
 354 000c 0D00     		movs	r5, r1	@ state, state
 355              		.loc 1 86 0
 356 000e 2000     		movs	r0, r4	@, D.4491
 357              	.LVL30:
 358 0010 3900     		movs	r1, r7	@, D.4491
 359              	.LVL31:
  77:src/ssm.c     ****     // OUTLINE:
 360              		.loc 1 77 0
 361 0012 9046     		mov	r8, r2	@ output, output
 362              	.LVL32:
 363              		.loc 1 86 0
 364 0014 FFF7FEFF 		bl	Is_Valid_Jump	@
 365              	.LVL33:
 366 0018 0028     		cmp	r0, #0	@ tmp118,
 367 001a 05D0     		beq	.L29	@,
 368              	.LVL34:
 369              	.LBB11:
 370              	.LBB12:
  59:src/ssm.c     ****         case CSB_SSM_MODE_CHARGE:
 371              		.loc 1 59 0
 372 001c 012C     		cmp	r4, #1	@ D.4491,
 373 001e 1AD0     		beq	.L30	@,
 374 0020 002C     		cmp	r4, #0	@ D.4491,
 375 0022 1BD0     		beq	.L31	@,
 376 0024 032C     		cmp	r4, #3	@ D.4491,
 377 0026 13D9     		bls	.L49	@,
 378              	.LVL35:
 379              	.L29:
 380              	.LBE12:
 381              	.LBE11:
  87:src/ssm.c     ****         state->curr_mode = input->mode_request;
  88:src/ssm.c     ****     }
  89:src/ssm.c     **** 
  90:src/ssm.c     ****     switch(state->curr_mode) {
 382              		.loc 1 90 0
 383 0028 022C     		cmp	r4, #2	@ D.4491,
 384 002a 09D0     		beq	.L36	@,
 385 002c 032C     		cmp	r4, #3	@ D.4491,
 386 002e 07D0     		beq	.L36	@,
 387 0030 002C     		cmp	r4, #0	@ D.4491,
 388 0032 0AD1     		bne	.L28	@,
 389              	.L33:
 390              	.LBB13:
  91:src/ssm.c     ****         case CSB_SSM_MODE_IDLE:
  92:src/ssm.c     ****             break;
  93:src/ssm.c     ****         case CSB_SSM_MODE_INIT:
  94:src/ssm.c     ****             Init_Step(input, state, output);
 391              		.loc 1 94 0
 392 0034 4246     		mov	r2, r8	@, output
 393 0036 2900     		movs	r1, r5	@, state
ARM GAS  /var/folders/z0/6xlwn_996xz3mwq1cgzkbq4r0000gp/T//ccO747n5.s 			page 10


 394 0038 3000     		movs	r0, r6	@, input
 395 003a FFF7FEFF 		bl	Init_Step	@
 396              	.LVL36:
  95:src/ssm.c     ****             break;
 397              		.loc 1 95 0
 398 003e 04E0     		b	.L28	@
 399              	.L36:
  96:src/ssm.c     ****         case CSB_SSM_MODE_CHARGE:
  97:src/ssm.c     ****             Charge_Step(input, state, output);
  98:src/ssm.c     ****             break;
  99:src/ssm.c     ****         case CSB_SSM_MODE_BALANCE:
 100:src/ssm.c     ****             Charge_Step(input, state, output);
 400              		.loc 1 100 0
 401 0040 4246     		mov	r2, r8	@, output
 402 0042 2900     		movs	r1, r5	@, state
 403 0044 3000     		movs	r0, r6	@, input
 404 0046 FFF7FEFF 		bl	Charge_Step	@
 405              	.LVL37:
 406              	.L28:
 407              	.LBE13:
 101:src/ssm.c     ****             break;
 102:src/ssm.c     ****     }
 103:src/ssm.c     **** }
 408              		.loc 1 103 0
 409              		@ sp needed	@
 410              	.LVL38:
 411              	.LVL39:
 412              	.LVL40:
 413 004a 04BC     		pop	{r2}
 414 004c 9046     		mov	r8, r2
 415 004e F0BD     		pop	{r4, r5, r6, r7, pc}
 416              	.LVL41:
 417              	.L49:
  86:src/ssm.c     ****         state->curr_mode = input->mode_request;
 418              		.loc 1 86 0
 419 0050 AB79     		ldrb	r3, [r5, #6]	@ tmp120,
 420 0052 002B     		cmp	r3, #0	@ tmp120,
 421 0054 E8D1     		bne	.L29	@,
 422              	.L30:
  87:src/ssm.c     ****     }
 423              		.loc 1 87 0
 424 0056 2F71     		strb	r7, [r5, #4]	@ D.4491, state_5(D)->curr_mode
 425 0058 3C00     		movs	r4, r7	@ D.4491, D.4491
 426 005a E5E7     		b	.L29	@
 427              	.LVL42:
 428              	.L31:
  86:src/ssm.c     ****         state->curr_mode = input->mode_request;
 429              		.loc 1 86 0
 430 005c 6B79     		ldrb	r3, [r5, #5]	@ tmp121,
 431 005e 022B     		cmp	r3, #2	@ tmp121,
 432 0060 E8D1     		bne	.L33	@,
 433 0062 F8E7     		b	.L30	@
 434              		.cfi_endproc
 435              	.LFE5:
 436              		.size	SSM_Step, .-SSM_Step
 437              		.comm	msTicks,4,4
 438              		.text
ARM GAS  /var/folders/z0/6xlwn_996xz3mwq1cgzkbq4r0000gp/T//ccO747n5.s 			page 11


 439              	.Letext0:
 440              		.file 2 "/usr/local/Cellar/gcc-arm-none-eabi/20160928/arm-none-eabi/include/machine/_default_types
 441              		.file 3 "/usr/local/Cellar/gcc-arm-none-eabi/20160928/arm-none-eabi/include/sys/_stdint.h"
 442              		.file 4 "inc/structs.h"