ARM GAS  /var/folders/z0/6xlwn_996xz3mwq1cgzkbq4r0000gp/T//ccfwIZwM.s 			page 1


   1              		.syntax unified
   2              		.cpu cortex-m0
   3              		.fpu softvfp
   4              		.eabi_attribute 20, 1	@ Tag_ABI_FP_denormal
   5              		.eabi_attribute 21, 1	@ Tag_ABI_FP_exceptions
   6              		.eabi_attribute 23, 3	@ Tag_ABI_FP_number_model
   7              		.eabi_attribute 24, 1	@ Tag_ABI_align8_needed
   8              		.eabi_attribute 25, 1	@ Tag_ABI_align8_preserved
   9              		.eabi_attribute 26, 1	@ Tag_ABI_enum_size
  10              		.eabi_attribute 30, 2	@ Tag_ABI_optimization_goals
  11              		.eabi_attribute 34, 0	@ Tag_CPU_unaligned_access
  12              		.eabi_attribute 18, 4	@ Tag_ABI_PCS_wchar_t
  13              		.file	"sysctl_11xx.c"
  14              	@ GNU C89 (GNU Tools for ARM Embedded Processors) version 5.4.1 20160919 (release) [ARM/embedded-5-
  15              	@	compiled by GNU C version 4.2.1 (Based on Apple Inc. build 5658) (LLVM build 2336.9.00), GMP vers
  16              	@ GGC heuristics: --param ggc-min-expand=100 --param ggc-min-heapsize=131072
  17              	@ options passed:  -I . -I inc/
  18              	@ -I ../../lib/lpc11cx4-library/lpc_chip_11cxx_lib/inc
  19              	@ -I ../../lib/lpc11cx4-library/evt_lib/inc/ -I ../../lib/CANlib
  20              	@ -imultilib armv6-m
  21              	@ -iprefix /usr/local/Cellar/gcc-arm-none-eabi/20160928/bin/../lib/gcc/arm-none-eabi/5.4.1/
  22              	@ -isysroot /usr/local/Cellar/gcc-arm-none-eabi/20160928/bin/../arm-none-eabi
  23              	@ -MD bin/sysctl_11xx.d -MF bin/sysctl_11xx.d -MP -MQ bin/sysctl_11xx.o
  24              	@ -D__USES_INITFINI__ -D UART_BAUD=57600 -D CORE_M0 -D DEBUG_ENABLE
  25              	@ -D FSAE_DRIVERS -D CAN_ARCHITECTURE_ARM
  26              	@ ../../lib/lpc11cx4-library/lpc_chip_11cxx_lib/src/sysctl_11xx.c
  27              	@ -mcpu=cortex-m0 -mthumb -auxbase-strip bin/sysctl_11xx.o -g -ggdb3 -O2
  28              	@ -Wall -Wstrict-prototypes -Wextra -std=gnu90 -ffunction-sections
  29              	@ -fdata-sections -fdiagnostics-color=always -fverbose-asm
  30              	@ options enabled:  -faggressive-loop-optimizations -falign-functions
  31              	@ -falign-jumps -falign-labels -falign-loops -fauto-inc-dec
  32              	@ -fbranch-count-reg -fcaller-saves -fchkp-check-incomplete-type
  33              	@ -fchkp-check-read -fchkp-check-write -fchkp-instrument-calls
  34              	@ -fchkp-narrow-bounds -fchkp-optimize -fchkp-store-bounds
  35              	@ -fchkp-use-static-bounds -fchkp-use-static-const-bounds
  36              	@ -fchkp-use-wrappers -fcombine-stack-adjustments -fcommon -fcompare-elim
  37              	@ -fcprop-registers -fcrossjumping -fcse-follow-jumps -fdata-sections
  38              	@ -fdefer-pop -fdelete-null-pointer-checks -fdevirtualize
  39              	@ -fdevirtualize-speculatively -fdwarf2-cfi-asm -fearly-inlining
  40              	@ -feliminate-unused-debug-types -fexpensive-optimizations
  41              	@ -fforward-propagate -ffunction-cse -ffunction-sections -fgcse -fgcse-lm
  42              	@ -fgnu-runtime -fgnu-unique -fguess-branch-probability
  43              	@ -fhoist-adjacent-loads -fident -fif-conversion -fif-conversion2
  44              	@ -findirect-inlining -finline -finline-atomics
  45              	@ -finline-functions-called-once -finline-small-functions -fipa-cp
  46              	@ -fipa-cp-alignment -fipa-icf -fipa-icf-functions -fipa-icf-variables
  47              	@ -fipa-profile -fipa-pure-const -fipa-reference -fipa-sra
  48              	@ -fira-hoist-pressure -fira-share-save-slots -fira-share-spill-slots
  49              	@ -fisolate-erroneous-paths-dereference -fivopts -fkeep-static-consts
  50              	@ -fleading-underscore -flifetime-dse -flra-remat -flto-odr-type-merging
  51              	@ -fmath-errno -fmerge-constants -fmerge-debug-strings
  52              	@ -fmove-loop-invariants -fomit-frame-pointer -foptimize-sibling-calls
  53              	@ -foptimize-strlen -fpartial-inlining -fpeephole -fpeephole2
  54              	@ -fprefetch-loop-arrays -freg-struct-return -freorder-blocks
  55              	@ -freorder-functions -frerun-cse-after-loop
  56              	@ -fsched-critical-path-heuristic -fsched-dep-count-heuristic
  57              	@ -fsched-group-heuristic -fsched-interblock -fsched-last-insn-heuristic
ARM GAS  /var/folders/z0/6xlwn_996xz3mwq1cgzkbq4r0000gp/T//ccfwIZwM.s 			page 2


  58              	@ -fsched-pressure -fsched-rank-heuristic -fsched-spec
  59              	@ -fsched-spec-insn-heuristic -fsched-stalled-insns-dep -fschedule-insns2
  60              	@ -fsection-anchors -fsemantic-interposition -fshow-column -fshrink-wrap
  61              	@ -fsigned-zeros -fsplit-ivs-in-unroller -fsplit-wide-types -fssa-phiopt
  62              	@ -fstdarg-opt -fstrict-aliasing -fstrict-overflow
  63              	@ -fstrict-volatile-bitfields -fsync-libcalls -fthread-jumps
  64              	@ -ftoplevel-reorder -ftrapping-math -ftree-bit-ccp -ftree-builtin-call-dce
  65              	@ -ftree-ccp -ftree-ch -ftree-coalesce-vars -ftree-copy-prop
  66              	@ -ftree-copyrename -ftree-cselim -ftree-dce -ftree-dominator-opts
  67              	@ -ftree-dse -ftree-forwprop -ftree-fre -ftree-loop-if-convert
  68              	@ -ftree-loop-im -ftree-loop-ivcanon -ftree-loop-optimize
  69              	@ -ftree-parallelize-loops= -ftree-phiprop -ftree-pre -ftree-pta
  70              	@ -ftree-reassoc -ftree-scev-cprop -ftree-sink -ftree-slsr -ftree-sra
  71              	@ -ftree-switch-conversion -ftree-tail-merge -ftree-ter -ftree-vrp
  72              	@ -funit-at-a-time -fvar-tracking -fvar-tracking-assignments -fverbose-asm
  73              	@ -fzero-initialized-in-bss -mlittle-endian -mpic-data-is-text-relative
  74              	@ -msched-prolog -mthumb -mvectorize-with-neon-quad
  75              	
  76              		.text
  77              	.Ltext0:
  78              		.cfi_sections	.debug_frame
  79              		.section	.text.Chip_SYSCTL_SetDeepSleepPD,"ax",%progbits
  80              		.align	2
  81              		.global	Chip_SYSCTL_SetDeepSleepPD
  82              		.code	16
  83              		.thumb_func
  84              		.type	Chip_SYSCTL_SetDeepSleepPD, %function
  85              	Chip_SYSCTL_SetDeepSleepPD:
  86              	.LFB198:
  87              		.file 1 "../../lib/lpc11cx4-library/lpc_chip_11cxx_lib/src/sysctl_11xx.c"
   1:../../lib/lpc11cx4-library/lpc_chip_11cxx_lib/src/sysctl_11xx.c **** /*
   2:../../lib/lpc11cx4-library/lpc_chip_11cxx_lib/src/sysctl_11xx.c ****  * @brief LPC11XX System Control functions
   3:../../lib/lpc11cx4-library/lpc_chip_11cxx_lib/src/sysctl_11xx.c ****  *
   4:../../lib/lpc11cx4-library/lpc_chip_11cxx_lib/src/sysctl_11xx.c ****  * Copyright(C) NXP Semiconductors, 2012
   5:../../lib/lpc11cx4-library/lpc_chip_11cxx_lib/src/sysctl_11xx.c ****  * All rights reserved.
   6:../../lib/lpc11cx4-library/lpc_chip_11cxx_lib/src/sysctl_11xx.c ****  *
   7:../../lib/lpc11cx4-library/lpc_chip_11cxx_lib/src/sysctl_11xx.c ****  * Software that is described herein is for illustrative purposes only
   8:../../lib/lpc11cx4-library/lpc_chip_11cxx_lib/src/sysctl_11xx.c ****  * which provides customers with programming information regarding the
   9:../../lib/lpc11cx4-library/lpc_chip_11cxx_lib/src/sysctl_11xx.c ****  * LPC products.  This software is supplied "AS IS" without any warranties of
  10:../../lib/lpc11cx4-library/lpc_chip_11cxx_lib/src/sysctl_11xx.c ****  * any kind, and NXP Semiconductors and its licensor disclaim any and
  11:../../lib/lpc11cx4-library/lpc_chip_11cxx_lib/src/sysctl_11xx.c ****  * all warranties, express or implied, including all implied warranties of
  12:../../lib/lpc11cx4-library/lpc_chip_11cxx_lib/src/sysctl_11xx.c ****  * merchantability, fitness for a particular purpose and non-infringement of
  13:../../lib/lpc11cx4-library/lpc_chip_11cxx_lib/src/sysctl_11xx.c ****  * intellectual property rights.  NXP Semiconductors assumes no responsibility
  14:../../lib/lpc11cx4-library/lpc_chip_11cxx_lib/src/sysctl_11xx.c ****  * or liability for the use of the software, conveys no license or rights under any
  15:../../lib/lpc11cx4-library/lpc_chip_11cxx_lib/src/sysctl_11xx.c ****  * patent, copyright, mask work right, or any other intellectual property rights in
  16:../../lib/lpc11cx4-library/lpc_chip_11cxx_lib/src/sysctl_11xx.c ****  * or to any products. NXP Semiconductors reserves the right to make changes
  17:../../lib/lpc11cx4-library/lpc_chip_11cxx_lib/src/sysctl_11xx.c ****  * in the software without notification. NXP Semiconductors also makes no
  18:../../lib/lpc11cx4-library/lpc_chip_11cxx_lib/src/sysctl_11xx.c ****  * representation or warranty that such application will be suitable for the
  19:../../lib/lpc11cx4-library/lpc_chip_11cxx_lib/src/sysctl_11xx.c ****  * specified use without further testing or modification.
  20:../../lib/lpc11cx4-library/lpc_chip_11cxx_lib/src/sysctl_11xx.c ****  *
  21:../../lib/lpc11cx4-library/lpc_chip_11cxx_lib/src/sysctl_11xx.c ****  * Permission to use, copy, modify, and distribute this software and its
  22:../../lib/lpc11cx4-library/lpc_chip_11cxx_lib/src/sysctl_11xx.c ****  * documentation is hereby granted, under NXP Semiconductors' and its
  23:../../lib/lpc11cx4-library/lpc_chip_11cxx_lib/src/sysctl_11xx.c ****  * licensor's relevant copyrights in the software, without fee, provided that it
  24:../../lib/lpc11cx4-library/lpc_chip_11cxx_lib/src/sysctl_11xx.c ****  * is used in conjunction with NXP Semiconductors microcontrollers.  This
  25:../../lib/lpc11cx4-library/lpc_chip_11cxx_lib/src/sysctl_11xx.c ****  * copyright, permission, and disclaimer notice must appear in all copies of
  26:../../lib/lpc11cx4-library/lpc_chip_11cxx_lib/src/sysctl_11xx.c ****  * this code.
  27:../../lib/lpc11cx4-library/lpc_chip_11cxx_lib/src/sysctl_11xx.c ****  */
ARM GAS  /var/folders/z0/6xlwn_996xz3mwq1cgzkbq4r0000gp/T//ccfwIZwM.s 			page 3


  28:../../lib/lpc11cx4-library/lpc_chip_11cxx_lib/src/sysctl_11xx.c **** 
  29:../../lib/lpc11cx4-library/lpc_chip_11cxx_lib/src/sysctl_11xx.c **** #include "chip.h"
  30:../../lib/lpc11cx4-library/lpc_chip_11cxx_lib/src/sysctl_11xx.c **** 
  31:../../lib/lpc11cx4-library/lpc_chip_11cxx_lib/src/sysctl_11xx.c **** /*****************************************************************************
  32:../../lib/lpc11cx4-library/lpc_chip_11cxx_lib/src/sysctl_11xx.c ****  * Private types/enumerations/variables
  33:../../lib/lpc11cx4-library/lpc_chip_11cxx_lib/src/sysctl_11xx.c ****  ****************************************************************************/
  34:../../lib/lpc11cx4-library/lpc_chip_11cxx_lib/src/sysctl_11xx.c **** 
  35:../../lib/lpc11cx4-library/lpc_chip_11cxx_lib/src/sysctl_11xx.c **** #if !defined(LPC11AXX)
  36:../../lib/lpc11cx4-library/lpc_chip_11cxx_lib/src/sysctl_11xx.c **** /* PDSLEEPCFG register mask */
  37:../../lib/lpc11cx4-library/lpc_chip_11cxx_lib/src/sysctl_11xx.c **** #define PDSLEEPUSEMASK 0x000018FF
  38:../../lib/lpc11cx4-library/lpc_chip_11cxx_lib/src/sysctl_11xx.c **** #if defined(CHIP_LPC11XXLV)
  39:../../lib/lpc11cx4-library/lpc_chip_11cxx_lib/src/sysctl_11xx.c **** #define PDSLEEPMASKTMP (SYSCTL_DEEPSLP_BOD_PD | SYSCTL_DEEPSLP_WDTOSC_PD | \
  40:../../lib/lpc11cx4-library/lpc_chip_11cxx_lib/src/sysctl_11xx.c **** 						SYSCTL_DEEPSLP_IRCOUT_PD | SYSCTL_DEEPSLP_IRC_PD)
  41:../../lib/lpc11cx4-library/lpc_chip_11cxx_lib/src/sysctl_11xx.c **** #else
  42:../../lib/lpc11cx4-library/lpc_chip_11cxx_lib/src/sysctl_11xx.c **** #define PDSLEEPMASKTMP (SYSCTL_DEEPSLP_BOD_PD | SYSCTL_DEEPSLP_WDTOSC_PD)
  43:../../lib/lpc11cx4-library/lpc_chip_11cxx_lib/src/sysctl_11xx.c **** #endif
  44:../../lib/lpc11cx4-library/lpc_chip_11cxx_lib/src/sysctl_11xx.c **** #define PDSLEEPMASK ((PDSLEEPUSEMASK) &~(PDSLEEPMASKTMP))
  45:../../lib/lpc11cx4-library/lpc_chip_11cxx_lib/src/sysctl_11xx.c **** 
  46:../../lib/lpc11cx4-library/lpc_chip_11cxx_lib/src/sysctl_11xx.c **** /* PDWAKECFG register mask */
  47:../../lib/lpc11cx4-library/lpc_chip_11cxx_lib/src/sysctl_11xx.c **** #if defined(CHIP_LPC11UXX)
  48:../../lib/lpc11cx4-library/lpc_chip_11cxx_lib/src/sysctl_11xx.c **** #define PDWAKEUPUSEMASK 0x0000E800
  49:../../lib/lpc11cx4-library/lpc_chip_11cxx_lib/src/sysctl_11xx.c **** #define PDWAKEUPMASKTMP 0x000000FF
  50:../../lib/lpc11cx4-library/lpc_chip_11cxx_lib/src/sysctl_11xx.c **** #elif defined(CHIP_LPC1125)
  51:../../lib/lpc11cx4-library/lpc_chip_11cxx_lib/src/sysctl_11xx.c **** #define PDWAKEUPUSEMASK 0x0000ED00
  52:../../lib/lpc11cx4-library/lpc_chip_11cxx_lib/src/sysctl_11xx.c **** #define PDWAKEUPMASKTMP 0x000000FF
  53:../../lib/lpc11cx4-library/lpc_chip_11cxx_lib/src/sysctl_11xx.c **** #else
  54:../../lib/lpc11cx4-library/lpc_chip_11cxx_lib/src/sysctl_11xx.c **** #define PDWAKEUPUSEMASK 0x0000ED00
  55:../../lib/lpc11cx4-library/lpc_chip_11cxx_lib/src/sysctl_11xx.c **** #define PDWAKEUPMASKTMP 0x000005FF
  56:../../lib/lpc11cx4-library/lpc_chip_11cxx_lib/src/sysctl_11xx.c **** #endif
  57:../../lib/lpc11cx4-library/lpc_chip_11cxx_lib/src/sysctl_11xx.c **** #endif /* !defined(LPC11AXX) */
  58:../../lib/lpc11cx4-library/lpc_chip_11cxx_lib/src/sysctl_11xx.c **** 
  59:../../lib/lpc11cx4-library/lpc_chip_11cxx_lib/src/sysctl_11xx.c **** /* PDRUNCFG register mask */
  60:../../lib/lpc11cx4-library/lpc_chip_11cxx_lib/src/sysctl_11xx.c **** #if defined(CHIP_LPC11AXX)
  61:../../lib/lpc11cx4-library/lpc_chip_11cxx_lib/src/sysctl_11xx.c **** #define PDRUNCFGUSEMASK 0x00000D08
  62:../../lib/lpc11cx4-library/lpc_chip_11cxx_lib/src/sysctl_11xx.c **** #define PDRUNCFGMASKTMP 0x0001E0F7
  63:../../lib/lpc11cx4-library/lpc_chip_11cxx_lib/src/sysctl_11xx.c **** #elif defined(CHIP_LPC11UXX)
  64:../../lib/lpc11cx4-library/lpc_chip_11cxx_lib/src/sysctl_11xx.c **** #define PDRUNCFGUSEMASK 0x0000E800
  65:../../lib/lpc11cx4-library/lpc_chip_11cxx_lib/src/sysctl_11xx.c **** #define PDRUNCFGMASKTMP 0x000005FF
  66:../../lib/lpc11cx4-library/lpc_chip_11cxx_lib/src/sysctl_11xx.c **** #elif defined(CHIP_LPC1125)
  67:../../lib/lpc11cx4-library/lpc_chip_11cxx_lib/src/sysctl_11xx.c **** #define PDRUNCFGUSEMASK 0x0000ED00
  68:../../lib/lpc11cx4-library/lpc_chip_11cxx_lib/src/sysctl_11xx.c **** #define PDRUNCFGMASKTMP 0x000000FF
  69:../../lib/lpc11cx4-library/lpc_chip_11cxx_lib/src/sysctl_11xx.c **** #else
  70:../../lib/lpc11cx4-library/lpc_chip_11cxx_lib/src/sysctl_11xx.c **** #define PDRUNCFGUSEMASK 0x0000ED00
  71:../../lib/lpc11cx4-library/lpc_chip_11cxx_lib/src/sysctl_11xx.c **** #define PDRUNCFGMASKTMP 0x000000FF
  72:../../lib/lpc11cx4-library/lpc_chip_11cxx_lib/src/sysctl_11xx.c **** #endif
  73:../../lib/lpc11cx4-library/lpc_chip_11cxx_lib/src/sysctl_11xx.c **** 
  74:../../lib/lpc11cx4-library/lpc_chip_11cxx_lib/src/sysctl_11xx.c **** /*****************************************************************************
  75:../../lib/lpc11cx4-library/lpc_chip_11cxx_lib/src/sysctl_11xx.c ****  * Public types/enumerations/variables
  76:../../lib/lpc11cx4-library/lpc_chip_11cxx_lib/src/sysctl_11xx.c ****  ****************************************************************************/
  77:../../lib/lpc11cx4-library/lpc_chip_11cxx_lib/src/sysctl_11xx.c **** 
  78:../../lib/lpc11cx4-library/lpc_chip_11cxx_lib/src/sysctl_11xx.c **** /*****************************************************************************
  79:../../lib/lpc11cx4-library/lpc_chip_11cxx_lib/src/sysctl_11xx.c ****  * Private functions
  80:../../lib/lpc11cx4-library/lpc_chip_11cxx_lib/src/sysctl_11xx.c ****  ****************************************************************************/
  81:../../lib/lpc11cx4-library/lpc_chip_11cxx_lib/src/sysctl_11xx.c **** 
  82:../../lib/lpc11cx4-library/lpc_chip_11cxx_lib/src/sysctl_11xx.c **** /*****************************************************************************
  83:../../lib/lpc11cx4-library/lpc_chip_11cxx_lib/src/sysctl_11xx.c ****  * Public functions
  84:../../lib/lpc11cx4-library/lpc_chip_11cxx_lib/src/sysctl_11xx.c ****  ****************************************************************************/
ARM GAS  /var/folders/z0/6xlwn_996xz3mwq1cgzkbq4r0000gp/T//ccfwIZwM.s 			page 4


  85:../../lib/lpc11cx4-library/lpc_chip_11cxx_lib/src/sysctl_11xx.c **** 
  86:../../lib/lpc11cx4-library/lpc_chip_11cxx_lib/src/sysctl_11xx.c **** #if !defined(LPC11AXX)
  87:../../lib/lpc11cx4-library/lpc_chip_11cxx_lib/src/sysctl_11xx.c **** /* Setup deep sleep behaviour for power down */
  88:../../lib/lpc11cx4-library/lpc_chip_11cxx_lib/src/sysctl_11xx.c **** void Chip_SYSCTL_SetDeepSleepPD(uint32_t sleepmask)
  89:../../lib/lpc11cx4-library/lpc_chip_11cxx_lib/src/sysctl_11xx.c **** {
  88              		.loc 1 89 0
  89              		.cfi_startproc
  90              		@ args = 0, pretend = 0, frame = 0
  91              		@ frame_needed = 0, uses_anonymous_args = 0
  92              		@ link register save eliminated.
  93              	.LVL0:
  90:../../lib/lpc11cx4-library/lpc_chip_11cxx_lib/src/sysctl_11xx.c **** 	/* Update new value */
  91:../../lib/lpc11cx4-library/lpc_chip_11cxx_lib/src/sysctl_11xx.c **** 	LPC_SYSCTL->PDSLEEPCFG = PDSLEEPMASK | (sleepmask & PDSLEEPMASKTMP);
  94              		.loc 1 91 0
  95 0000 FF23     		movs	r3, #255	@ tmp113,
  96 0002 1840     		ands	r0, r3	@ D.6187, tmp113
  97              	.LVL1:
  98 0004 034B     		ldr	r3, .L2	@ tmp115,
  99 0006 044A     		ldr	r2, .L2+4	@ tmp116,
 100 0008 1843     		orrs	r0, r3	@ D.6187, tmp115
 101 000a 8C23     		movs	r3, #140	@ tmp117,
 102 000c 9B00     		lsls	r3, r3, #2	@ tmp117, tmp117,
 103 000e D050     		str	r0, [r2, r3]	@ D.6187, MEM[(struct LPC_SYSCTL_T *)1074036736B].PDSLEEPCFG
  92:../../lib/lpc11cx4-library/lpc_chip_11cxx_lib/src/sysctl_11xx.c **** }
 104              		.loc 1 92 0
 105              		@ sp needed	@
 106 0010 7047     		bx	lr
 107              	.L3:
 108 0012 C046     		.align	2
 109              	.L2:
 110 0014 B7180000 		.word	6327
 111 0018 00800440 		.word	1074036736
 112              		.cfi_endproc
 113              	.LFE198:
 114              		.size	Chip_SYSCTL_SetDeepSleepPD, .-Chip_SYSCTL_SetDeepSleepPD
 115              		.section	.text.Chip_SYSCTL_SetWakeup,"ax",%progbits
 116              		.align	2
 117              		.global	Chip_SYSCTL_SetWakeup
 118              		.code	16
 119              		.thumb_func
 120              		.type	Chip_SYSCTL_SetWakeup, %function
 121              	Chip_SYSCTL_SetWakeup:
 122              	.LFB199:
  93:../../lib/lpc11cx4-library/lpc_chip_11cxx_lib/src/sysctl_11xx.c **** 
  94:../../lib/lpc11cx4-library/lpc_chip_11cxx_lib/src/sysctl_11xx.c **** /* Setup wakeup behaviour from deep sleep */
  95:../../lib/lpc11cx4-library/lpc_chip_11cxx_lib/src/sysctl_11xx.c **** void Chip_SYSCTL_SetWakeup(uint32_t wakeupmask)
  96:../../lib/lpc11cx4-library/lpc_chip_11cxx_lib/src/sysctl_11xx.c **** {
 123              		.loc 1 96 0
 124              		.cfi_startproc
 125              		@ args = 0, pretend = 0, frame = 0
 126              		@ frame_needed = 0, uses_anonymous_args = 0
 127              		@ link register save eliminated.
 128              	.LVL2:
  97:../../lib/lpc11cx4-library/lpc_chip_11cxx_lib/src/sysctl_11xx.c **** 	/* Update new value */
  98:../../lib/lpc11cx4-library/lpc_chip_11cxx_lib/src/sysctl_11xx.c **** 	LPC_SYSCTL->PDWAKECFG = PDWAKEUPUSEMASK | (wakeupmask & PDWAKEUPMASKTMP);
 129              		.loc 1 98 0
 130 0000 FF23     		movs	r3, #255	@ tmp113,
ARM GAS  /var/folders/z0/6xlwn_996xz3mwq1cgzkbq4r0000gp/T//ccfwIZwM.s 			page 5


 131 0002 1840     		ands	r0, r3	@ D.6190, tmp113
 132              	.LVL3:
 133 0004 ED23     		movs	r3, #237	@ tmp115,
 134 0006 1B02     		lsls	r3, r3, #8	@ tmp115, tmp115,
 135 0008 1843     		orrs	r0, r3	@ D.6190, tmp115
 136 000a 8D23     		movs	r3, #141	@ tmp117,
 137 000c 014A     		ldr	r2, .L5	@ tmp116,
 138 000e 9B00     		lsls	r3, r3, #2	@ tmp117, tmp117,
 139 0010 D050     		str	r0, [r2, r3]	@ D.6190, MEM[(struct LPC_SYSCTL_T *)1074036736B].PDWAKECFG
  99:../../lib/lpc11cx4-library/lpc_chip_11cxx_lib/src/sysctl_11xx.c **** }
 140              		.loc 1 99 0
 141              		@ sp needed	@
 142 0012 7047     		bx	lr
 143              	.L6:
 144              		.align	2
 145              	.L5:
 146 0014 00800440 		.word	1074036736
 147              		.cfi_endproc
 148              	.LFE199:
 149              		.size	Chip_SYSCTL_SetWakeup, .-Chip_SYSCTL_SetWakeup
 150              		.section	.text.Chip_SYSCTL_PowerDown,"ax",%progbits
 151              		.align	2
 152              		.global	Chip_SYSCTL_PowerDown
 153              		.code	16
 154              		.thumb_func
 155              		.type	Chip_SYSCTL_PowerDown, %function
 156              	Chip_SYSCTL_PowerDown:
 157              	.LFB200:
 100:../../lib/lpc11cx4-library/lpc_chip_11cxx_lib/src/sysctl_11xx.c **** 
 101:../../lib/lpc11cx4-library/lpc_chip_11cxx_lib/src/sysctl_11xx.c **** #endif
 102:../../lib/lpc11cx4-library/lpc_chip_11cxx_lib/src/sysctl_11xx.c **** 
 103:../../lib/lpc11cx4-library/lpc_chip_11cxx_lib/src/sysctl_11xx.c **** /* Power down one or more blocks or peripherals */
 104:../../lib/lpc11cx4-library/lpc_chip_11cxx_lib/src/sysctl_11xx.c **** void Chip_SYSCTL_PowerDown(uint32_t powerdownmask)
 105:../../lib/lpc11cx4-library/lpc_chip_11cxx_lib/src/sysctl_11xx.c **** {
 158              		.loc 1 105 0
 159              		.cfi_startproc
 160              		@ args = 0, pretend = 0, frame = 0
 161              		@ frame_needed = 0, uses_anonymous_args = 0
 162              		@ link register save eliminated.
 163              	.LVL4:
 106:../../lib/lpc11cx4-library/lpc_chip_11cxx_lib/src/sysctl_11xx.c **** 	uint32_t pdrun;
 107:../../lib/lpc11cx4-library/lpc_chip_11cxx_lib/src/sysctl_11xx.c **** 
 108:../../lib/lpc11cx4-library/lpc_chip_11cxx_lib/src/sysctl_11xx.c **** 	pdrun = LPC_SYSCTL->PDRUNCFG & PDRUNCFGMASKTMP;
 164              		.loc 1 108 0
 165 0000 8E23     		movs	r3, #142	@ tmp116,
 166 0002 054A     		ldr	r2, .L8	@ tmp115,
 167 0004 9B00     		lsls	r3, r3, #2	@ tmp116, tmp116,
 168 0006 D158     		ldr	r1, [r2, r3]	@ D.6193, MEM[(struct LPC_SYSCTL_T *)1074036736B].PDRUNCFG
 169              	.LVL5:
 109:../../lib/lpc11cx4-library/lpc_chip_11cxx_lib/src/sysctl_11xx.c **** 	pdrun |= (powerdownmask & PDRUNCFGMASKTMP);
 110:../../lib/lpc11cx4-library/lpc_chip_11cxx_lib/src/sysctl_11xx.c **** 
 111:../../lib/lpc11cx4-library/lpc_chip_11cxx_lib/src/sysctl_11xx.c **** 	LPC_SYSCTL->PDRUNCFG = (pdrun | PDRUNCFGUSEMASK);
 112:../../lib/lpc11cx4-library/lpc_chip_11cxx_lib/src/sysctl_11xx.c **** }
 170              		.loc 1 112 0
 171              		@ sp needed	@
 111:../../lib/lpc11cx4-library/lpc_chip_11cxx_lib/src/sysctl_11xx.c **** }
 172              		.loc 1 111 0
ARM GAS  /var/folders/z0/6xlwn_996xz3mwq1cgzkbq4r0000gp/T//ccfwIZwM.s 			page 6


 173 0008 0843     		orrs	r0, r1	@ D.6193, D.6193
 174              	.LVL6:
 175 000a FF21     		movs	r1, #255	@ tmp118,
 176              	.LVL7:
 177 000c 0840     		ands	r0, r1	@ pdrun, tmp118
 178              	.LVL8:
 179 000e ED21     		movs	r1, #237	@ tmp120,
 180 0010 0902     		lsls	r1, r1, #8	@ tmp120, tmp120,
 181 0012 0843     		orrs	r0, r1	@ D.6193, tmp120
 182              	.LVL9:
 183 0014 D050     		str	r0, [r2, r3]	@ D.6193, MEM[(struct LPC_SYSCTL_T *)1074036736B].PDRUNCFG
 184              		.loc 1 112 0
 185 0016 7047     		bx	lr
 186              	.L9:
 187              		.align	2
 188              	.L8:
 189 0018 00800440 		.word	1074036736
 190              		.cfi_endproc
 191              	.LFE200:
 192              		.size	Chip_SYSCTL_PowerDown, .-Chip_SYSCTL_PowerDown
 193              		.section	.text.Chip_SYSCTL_PowerUp,"ax",%progbits
 194              		.align	2
 195              		.global	Chip_SYSCTL_PowerUp
 196              		.code	16
 197              		.thumb_func
 198              		.type	Chip_SYSCTL_PowerUp, %function
 199              	Chip_SYSCTL_PowerUp:
 200              	.LFB201:
 113:../../lib/lpc11cx4-library/lpc_chip_11cxx_lib/src/sysctl_11xx.c **** 
 114:../../lib/lpc11cx4-library/lpc_chip_11cxx_lib/src/sysctl_11xx.c **** /* Power up one or more blocks or peripherals */
 115:../../lib/lpc11cx4-library/lpc_chip_11cxx_lib/src/sysctl_11xx.c **** void Chip_SYSCTL_PowerUp(uint32_t powerupmask)
 116:../../lib/lpc11cx4-library/lpc_chip_11cxx_lib/src/sysctl_11xx.c **** {
 201              		.loc 1 116 0
 202              		.cfi_startproc
 203              		@ args = 0, pretend = 0, frame = 0
 204              		@ frame_needed = 0, uses_anonymous_args = 0
 205              	.LVL10:
 117:../../lib/lpc11cx4-library/lpc_chip_11cxx_lib/src/sysctl_11xx.c **** 	uint32_t pdrun;
 118:../../lib/lpc11cx4-library/lpc_chip_11cxx_lib/src/sysctl_11xx.c **** 
 119:../../lib/lpc11cx4-library/lpc_chip_11cxx_lib/src/sysctl_11xx.c **** 	pdrun = LPC_SYSCTL->PDRUNCFG & PDRUNCFGMASKTMP;
 206              		.loc 1 119 0
 207 0000 8E22     		movs	r2, #142	@ tmp118,
 116:../../lib/lpc11cx4-library/lpc_chip_11cxx_lib/src/sysctl_11xx.c **** 	uint32_t pdrun;
 208              		.loc 1 116 0
 209 0002 10B5     		push	{r4, lr}	@
 210              		.cfi_def_cfa_offset 8
 211              		.cfi_offset 4, -8
 212              		.cfi_offset 14, -4
 213              		.loc 1 119 0
 214 0004 FF24     		movs	r4, #255	@ tmp119,
 215 0006 0549     		ldr	r1, .L11	@ tmp117,
 216 0008 9200     		lsls	r2, r2, #2	@ tmp118, tmp118,
 217 000a 8B58     		ldr	r3, [r1, r2]	@ D.6196, MEM[(struct LPC_SYSCTL_T *)1074036736B].PDRUNCFG
 120:../../lib/lpc11cx4-library/lpc_chip_11cxx_lib/src/sysctl_11xx.c **** 	pdrun &= ~(powerupmask & PDRUNCFGMASKTMP);
 121:../../lib/lpc11cx4-library/lpc_chip_11cxx_lib/src/sysctl_11xx.c **** 
 122:../../lib/lpc11cx4-library/lpc_chip_11cxx_lib/src/sysctl_11xx.c **** 	LPC_SYSCTL->PDRUNCFG = (pdrun | PDRUNCFGUSEMASK);
 218              		.loc 1 122 0
ARM GAS  /var/folders/z0/6xlwn_996xz3mwq1cgzkbq4r0000gp/T//ccfwIZwM.s 			page 7


 219 000c 2040     		ands	r0, r4	@ D.6196, tmp119
 220              	.LVL11:
 119:../../lib/lpc11cx4-library/lpc_chip_11cxx_lib/src/sysctl_11xx.c **** 	pdrun &= ~(powerupmask & PDRUNCFGMASKTMP);
 221              		.loc 1 119 0
 222 000e 2340     		ands	r3, r4	@ pdrun, tmp119
 223              		.loc 1 122 0
 224 0010 8343     		bics	r3, r0	@ pdrun, D.6196
 225 0012 ED20     		movs	r0, #237	@ tmp124,
 226 0014 0002     		lsls	r0, r0, #8	@ tmp124, tmp124,
 227 0016 0343     		orrs	r3, r0	@ D.6196, tmp124
 228 0018 8B50     		str	r3, [r1, r2]	@ D.6196, MEM[(struct LPC_SYSCTL_T *)1074036736B].PDRUNCFG
 123:../../lib/lpc11cx4-library/lpc_chip_11cxx_lib/src/sysctl_11xx.c **** }
 229              		.loc 1 123 0
 230              		@ sp needed	@
 231 001a 10BD     		pop	{r4, pc}
 232              	.L12:
 233              		.align	2
 234              	.L11:
 235 001c 00800440 		.word	1074036736
 236              		.cfi_endproc
 237              	.LFE201:
 238              		.size	Chip_SYSCTL_PowerUp, .-Chip_SYSCTL_PowerUp
 239              		.text
 240              	.Letext0:
 241              		.file 2 "/usr/local/Cellar/gcc-arm-none-eabi/20160928/arm-none-eabi/include/machine/_default_types
 242              		.file 3 "/usr/local/Cellar/gcc-arm-none-eabi/20160928/arm-none-eabi/include/sys/_stdint.h"
 243              		.file 4 "../../lib/lpc11cx4-library/lpc_chip_11cxx_lib/inc/sysctl_11xx.h"
 244              		.file 5 "../../lib/lpc11cx4-library/lpc_chip_11cxx_lib/inc/chip.h"