ARM GAS  /var/folders/z0/6xlwn_996xz3mwq1cgzkbq4r0000gp/T//cc3Li5iv.s 			page 1


   1              		.syntax unified
   2              		.cpu cortex-m0
   3              		.fpu softvfp
   4              		.eabi_attribute 20, 1	@ Tag_ABI_FP_denormal
   5              		.eabi_attribute 21, 1	@ Tag_ABI_FP_exceptions
   6              		.eabi_attribute 23, 3	@ Tag_ABI_FP_number_model
   7              		.eabi_attribute 24, 1	@ Tag_ABI_align8_needed
   8              		.eabi_attribute 25, 1	@ Tag_ABI_align8_preserved
   9              		.eabi_attribute 26, 1	@ Tag_ABI_enum_size
  10              		.eabi_attribute 30, 2	@ Tag_ABI_optimization_goals
  11              		.eabi_attribute 34, 0	@ Tag_CPU_unaligned_access
  12              		.eabi_attribute 18, 4	@ Tag_ABI_PCS_wchar_t
  13              		.file	"timer_11xx.c"
  14              	@ GNU C89 (GNU Tools for ARM Embedded Processors) version 5.4.1 20160919 (release) [ARM/embedded-5-
  15              	@	compiled by GNU C version 4.2.1 (Based on Apple Inc. build 5658) (LLVM build 2336.9.00), GMP vers
  16              	@ GGC heuristics: --param ggc-min-expand=100 --param ggc-min-heapsize=131072
  17              	@ options passed:  -I . -I inc/
  18              	@ -I ../../lib/lpc11cx4-library/lpc_chip_11cxx_lib/inc
  19              	@ -I ../../lib/lpc11cx4-library/evt_lib/inc/ -I ../../lib/CANlib/
  20              	@ -imultilib armv6-m
  21              	@ -iprefix /usr/local/Cellar/gcc-arm-none-eabi/20160928/bin/../lib/gcc/arm-none-eabi/5.4.1/
  22              	@ -isysroot /usr/local/Cellar/gcc-arm-none-eabi/20160928/bin/../arm-none-eabi
  23              	@ -MD bin/timer_11xx.d -MF bin/timer_11xx.d -MP -MQ bin/timer_11xx.o
  24              	@ -D__USES_INITFINI__ -D UART_BAUD=57600 -D CORE_M0 -D DEBUG_ENABLE
  25              	@ -D FSAE_DRIVERS -D CAN_ARCHITECTURE_ARM
  26              	@ ../../lib/lpc11cx4-library/lpc_chip_11cxx_lib/src/timer_11xx.c
  27              	@ -mcpu=cortex-m0 -mthumb -auxbase-strip bin/timer_11xx.o -g -ggdb3 -O2
  28              	@ -Wall -Wstrict-prototypes -Wextra -std=gnu90 -ffunction-sections
  29              	@ -fdata-sections -fdiagnostics-color=always -fverbose-asm
  30              	@ options enabled:  -faggressive-loop-optimizations -falign-functions
  31              	@ -falign-jumps -falign-labels -falign-loops -fauto-inc-dec
  32              	@ -fbranch-count-reg -fcaller-saves -fchkp-check-incomplete-type
  33              	@ -fchkp-check-read -fchkp-check-write -fchkp-instrument-calls
  34              	@ -fchkp-narrow-bounds -fchkp-optimize -fchkp-store-bounds
  35              	@ -fchkp-use-static-bounds -fchkp-use-static-const-bounds
  36              	@ -fchkp-use-wrappers -fcombine-stack-adjustments -fcommon -fcompare-elim
  37              	@ -fcprop-registers -fcrossjumping -fcse-follow-jumps -fdata-sections
  38              	@ -fdefer-pop -fdelete-null-pointer-checks -fdevirtualize
  39              	@ -fdevirtualize-speculatively -fdwarf2-cfi-asm -fearly-inlining
  40              	@ -feliminate-unused-debug-types -fexpensive-optimizations
  41              	@ -fforward-propagate -ffunction-cse -ffunction-sections -fgcse -fgcse-lm
  42              	@ -fgnu-runtime -fgnu-unique -fguess-branch-probability
  43              	@ -fhoist-adjacent-loads -fident -fif-conversion -fif-conversion2
  44              	@ -findirect-inlining -finline -finline-atomics
  45              	@ -finline-functions-called-once -finline-small-functions -fipa-cp
  46              	@ -fipa-cp-alignment -fipa-icf -fipa-icf-functions -fipa-icf-variables
  47              	@ -fipa-profile -fipa-pure-const -fipa-reference -fipa-sra
  48              	@ -fira-hoist-pressure -fira-share-save-slots -fira-share-spill-slots
  49              	@ -fisolate-erroneous-paths-dereference -fivopts -fkeep-static-consts
  50              	@ -fleading-underscore -flifetime-dse -flra-remat -flto-odr-type-merging
  51              	@ -fmath-errno -fmerge-constants -fmerge-debug-strings
  52              	@ -fmove-loop-invariants -fomit-frame-pointer -foptimize-sibling-calls
  53              	@ -foptimize-strlen -fpartial-inlining -fpeephole -fpeephole2
  54              	@ -fprefetch-loop-arrays -freg-struct-return -freorder-blocks
  55              	@ -freorder-functions -frerun-cse-after-loop
  56              	@ -fsched-critical-path-heuristic -fsched-dep-count-heuristic
  57              	@ -fsched-group-heuristic -fsched-interblock -fsched-last-insn-heuristic
ARM GAS  /var/folders/z0/6xlwn_996xz3mwq1cgzkbq4r0000gp/T//cc3Li5iv.s 			page 2


  58              	@ -fsched-pressure -fsched-rank-heuristic -fsched-spec
  59              	@ -fsched-spec-insn-heuristic -fsched-stalled-insns-dep -fschedule-insns2
  60              	@ -fsection-anchors -fsemantic-interposition -fshow-column -fshrink-wrap
  61              	@ -fsigned-zeros -fsplit-ivs-in-unroller -fsplit-wide-types -fssa-phiopt
  62              	@ -fstdarg-opt -fstrict-aliasing -fstrict-overflow
  63              	@ -fstrict-volatile-bitfields -fsync-libcalls -fthread-jumps
  64              	@ -ftoplevel-reorder -ftrapping-math -ftree-bit-ccp -ftree-builtin-call-dce
  65              	@ -ftree-ccp -ftree-ch -ftree-coalesce-vars -ftree-copy-prop
  66              	@ -ftree-copyrename -ftree-cselim -ftree-dce -ftree-dominator-opts
  67              	@ -ftree-dse -ftree-forwprop -ftree-fre -ftree-loop-if-convert
  68              	@ -ftree-loop-im -ftree-loop-ivcanon -ftree-loop-optimize
  69              	@ -ftree-parallelize-loops= -ftree-phiprop -ftree-pre -ftree-pta
  70              	@ -ftree-reassoc -ftree-scev-cprop -ftree-sink -ftree-slsr -ftree-sra
  71              	@ -ftree-switch-conversion -ftree-tail-merge -ftree-ter -ftree-vrp
  72              	@ -funit-at-a-time -fvar-tracking -fvar-tracking-assignments -fverbose-asm
  73              	@ -fzero-initialized-in-bss -mlittle-endian -mpic-data-is-text-relative
  74              	@ -msched-prolog -mthumb -mvectorize-with-neon-quad
  75              	
  76              		.text
  77              	.Ltext0:
  78              		.cfi_sections	.debug_frame
  79              		.section	.text.Chip_TIMER_Init,"ax",%progbits
  80              		.align	2
  81              		.global	Chip_TIMER_Init
  82              		.code	16
  83              		.thumb_func
  84              		.type	Chip_TIMER_Init, %function
  85              	Chip_TIMER_Init:
  86              	.LFB199:
  87              		.file 1 "../../lib/lpc11cx4-library/lpc_chip_11cxx_lib/src/timer_11xx.c"
   1:../../lib/lpc11cx4-library/lpc_chip_11cxx_lib/src/timer_11xx.c **** /*
   2:../../lib/lpc11cx4-library/lpc_chip_11cxx_lib/src/timer_11xx.c ****  * @brief 16/32-bit Timer/PWM control functions
   3:../../lib/lpc11cx4-library/lpc_chip_11cxx_lib/src/timer_11xx.c ****  *
   4:../../lib/lpc11cx4-library/lpc_chip_11cxx_lib/src/timer_11xx.c ****  * @note
   5:../../lib/lpc11cx4-library/lpc_chip_11cxx_lib/src/timer_11xx.c ****  * Copyright(C) NXP Semiconductors, 2012
   6:../../lib/lpc11cx4-library/lpc_chip_11cxx_lib/src/timer_11xx.c ****  * All rights reserved.
   7:../../lib/lpc11cx4-library/lpc_chip_11cxx_lib/src/timer_11xx.c ****  *
   8:../../lib/lpc11cx4-library/lpc_chip_11cxx_lib/src/timer_11xx.c ****  * @par
   9:../../lib/lpc11cx4-library/lpc_chip_11cxx_lib/src/timer_11xx.c ****  * Software that is described herein is for illustrative purposes only
  10:../../lib/lpc11cx4-library/lpc_chip_11cxx_lib/src/timer_11xx.c ****  * which provides customers with programming information regarding the
  11:../../lib/lpc11cx4-library/lpc_chip_11cxx_lib/src/timer_11xx.c ****  * LPC products.  This software is supplied "AS IS" without any warranties of
  12:../../lib/lpc11cx4-library/lpc_chip_11cxx_lib/src/timer_11xx.c ****  * any kind, and NXP Semiconductors and its licensor disclaim any and
  13:../../lib/lpc11cx4-library/lpc_chip_11cxx_lib/src/timer_11xx.c ****  * all warranties, express or implied, including all implied warranties of
  14:../../lib/lpc11cx4-library/lpc_chip_11cxx_lib/src/timer_11xx.c ****  * merchantability, fitness for a particular purpose and non-infringement of
  15:../../lib/lpc11cx4-library/lpc_chip_11cxx_lib/src/timer_11xx.c ****  * intellectual property rights.  NXP Semiconductors assumes no responsibility
  16:../../lib/lpc11cx4-library/lpc_chip_11cxx_lib/src/timer_11xx.c ****  * or liability for the use of the software, conveys no license or rights under any
  17:../../lib/lpc11cx4-library/lpc_chip_11cxx_lib/src/timer_11xx.c ****  * patent, copyright, mask work right, or any other intellectual property rights in
  18:../../lib/lpc11cx4-library/lpc_chip_11cxx_lib/src/timer_11xx.c ****  * or to any products. NXP Semiconductors reserves the right to make changes
  19:../../lib/lpc11cx4-library/lpc_chip_11cxx_lib/src/timer_11xx.c ****  * in the software without notification. NXP Semiconductors also makes no
  20:../../lib/lpc11cx4-library/lpc_chip_11cxx_lib/src/timer_11xx.c ****  * representation or warranty that such application will be suitable for the
  21:../../lib/lpc11cx4-library/lpc_chip_11cxx_lib/src/timer_11xx.c ****  * specified use without further testing or modification.
  22:../../lib/lpc11cx4-library/lpc_chip_11cxx_lib/src/timer_11xx.c ****  *
  23:../../lib/lpc11cx4-library/lpc_chip_11cxx_lib/src/timer_11xx.c ****  * @par
  24:../../lib/lpc11cx4-library/lpc_chip_11cxx_lib/src/timer_11xx.c ****  * Permission to use, copy, modify, and distribute this software and its
  25:../../lib/lpc11cx4-library/lpc_chip_11cxx_lib/src/timer_11xx.c ****  * documentation is hereby granted, under NXP Semiconductors' and its
  26:../../lib/lpc11cx4-library/lpc_chip_11cxx_lib/src/timer_11xx.c ****  * licensor's relevant copyrights in the software, without fee, provided that it
  27:../../lib/lpc11cx4-library/lpc_chip_11cxx_lib/src/timer_11xx.c ****  * is used in conjunction with NXP Semiconductors microcontrollers.  This
ARM GAS  /var/folders/z0/6xlwn_996xz3mwq1cgzkbq4r0000gp/T//cc3Li5iv.s 			page 3


  28:../../lib/lpc11cx4-library/lpc_chip_11cxx_lib/src/timer_11xx.c ****  * copyright, permission, and disclaimer notice must appear in all copies of
  29:../../lib/lpc11cx4-library/lpc_chip_11cxx_lib/src/timer_11xx.c ****  * this code.
  30:../../lib/lpc11cx4-library/lpc_chip_11cxx_lib/src/timer_11xx.c ****  */
  31:../../lib/lpc11cx4-library/lpc_chip_11cxx_lib/src/timer_11xx.c **** 
  32:../../lib/lpc11cx4-library/lpc_chip_11cxx_lib/src/timer_11xx.c **** #include "chip.h"
  33:../../lib/lpc11cx4-library/lpc_chip_11cxx_lib/src/timer_11xx.c **** 
  34:../../lib/lpc11cx4-library/lpc_chip_11cxx_lib/src/timer_11xx.c **** /*****************************************************************************
  35:../../lib/lpc11cx4-library/lpc_chip_11cxx_lib/src/timer_11xx.c ****  * Private types/enumerations/variables
  36:../../lib/lpc11cx4-library/lpc_chip_11cxx_lib/src/timer_11xx.c ****  ****************************************************************************/
  37:../../lib/lpc11cx4-library/lpc_chip_11cxx_lib/src/timer_11xx.c **** 
  38:../../lib/lpc11cx4-library/lpc_chip_11cxx_lib/src/timer_11xx.c **** /*****************************************************************************
  39:../../lib/lpc11cx4-library/lpc_chip_11cxx_lib/src/timer_11xx.c ****  * Public types/enumerations/variables
  40:../../lib/lpc11cx4-library/lpc_chip_11cxx_lib/src/timer_11xx.c ****  ****************************************************************************/
  41:../../lib/lpc11cx4-library/lpc_chip_11cxx_lib/src/timer_11xx.c **** 
  42:../../lib/lpc11cx4-library/lpc_chip_11cxx_lib/src/timer_11xx.c **** /*****************************************************************************
  43:../../lib/lpc11cx4-library/lpc_chip_11cxx_lib/src/timer_11xx.c ****  * Private functions
  44:../../lib/lpc11cx4-library/lpc_chip_11cxx_lib/src/timer_11xx.c ****  ****************************************************************************/
  45:../../lib/lpc11cx4-library/lpc_chip_11cxx_lib/src/timer_11xx.c **** 
  46:../../lib/lpc11cx4-library/lpc_chip_11cxx_lib/src/timer_11xx.c **** /* Returns clock index for a specific timer referenced by IP block address */
  47:../../lib/lpc11cx4-library/lpc_chip_11cxx_lib/src/timer_11xx.c **** STATIC CHIP_SYSCTL_CLOCK_T Chip_TIMER_GetClock(LPC_TIMER_T *pTMR)
  48:../../lib/lpc11cx4-library/lpc_chip_11cxx_lib/src/timer_11xx.c **** {
  49:../../lib/lpc11cx4-library/lpc_chip_11cxx_lib/src/timer_11xx.c ****   CHIP_SYSCTL_CLOCK_T tmrClk;
  50:../../lib/lpc11cx4-library/lpc_chip_11cxx_lib/src/timer_11xx.c ****   if (pTMR == LPC_TIMER32_1) {
  51:../../lib/lpc11cx4-library/lpc_chip_11cxx_lib/src/timer_11xx.c **** 	  tmrClk = SYSCTL_CLOCK_CT32B1;
  52:../../lib/lpc11cx4-library/lpc_chip_11cxx_lib/src/timer_11xx.c ****   }
  53:../../lib/lpc11cx4-library/lpc_chip_11cxx_lib/src/timer_11xx.c ****   else if (pTMR == LPC_TIMER16_0) {
  54:../../lib/lpc11cx4-library/lpc_chip_11cxx_lib/src/timer_11xx.c **** 	  tmrClk = SYSCTL_CLOCK_CT16B0;
  55:../../lib/lpc11cx4-library/lpc_chip_11cxx_lib/src/timer_11xx.c ****   }
  56:../../lib/lpc11cx4-library/lpc_chip_11cxx_lib/src/timer_11xx.c ****   else if (pTMR == LPC_TIMER16_1) {
  57:../../lib/lpc11cx4-library/lpc_chip_11cxx_lib/src/timer_11xx.c **** 	  tmrClk = SYSCTL_CLOCK_CT16B1;
  58:../../lib/lpc11cx4-library/lpc_chip_11cxx_lib/src/timer_11xx.c ****   }
  59:../../lib/lpc11cx4-library/lpc_chip_11cxx_lib/src/timer_11xx.c ****   else {
  60:../../lib/lpc11cx4-library/lpc_chip_11cxx_lib/src/timer_11xx.c **** 	  tmrClk = SYSCTL_CLOCK_CT32B0;
  61:../../lib/lpc11cx4-library/lpc_chip_11cxx_lib/src/timer_11xx.c ****   }
  62:../../lib/lpc11cx4-library/lpc_chip_11cxx_lib/src/timer_11xx.c **** 
  63:../../lib/lpc11cx4-library/lpc_chip_11cxx_lib/src/timer_11xx.c ****   return tmrClk;
  64:../../lib/lpc11cx4-library/lpc_chip_11cxx_lib/src/timer_11xx.c **** }
  65:../../lib/lpc11cx4-library/lpc_chip_11cxx_lib/src/timer_11xx.c **** 
  66:../../lib/lpc11cx4-library/lpc_chip_11cxx_lib/src/timer_11xx.c **** /*****************************************************************************
  67:../../lib/lpc11cx4-library/lpc_chip_11cxx_lib/src/timer_11xx.c ****  * Public functions
  68:../../lib/lpc11cx4-library/lpc_chip_11cxx_lib/src/timer_11xx.c ****  ****************************************************************************/
  69:../../lib/lpc11cx4-library/lpc_chip_11cxx_lib/src/timer_11xx.c **** 
  70:../../lib/lpc11cx4-library/lpc_chip_11cxx_lib/src/timer_11xx.c **** /* Initialize a timer */
  71:../../lib/lpc11cx4-library/lpc_chip_11cxx_lib/src/timer_11xx.c **** void Chip_TIMER_Init(LPC_TIMER_T *pTMR)
  72:../../lib/lpc11cx4-library/lpc_chip_11cxx_lib/src/timer_11xx.c **** {
  88              		.loc 1 72 0
  89              		.cfi_startproc
  90              		@ args = 0, pretend = 0, frame = 0
  91              		@ frame_needed = 0, uses_anonymous_args = 0
  92              		@ link register save eliminated.
  93              	.LVL0:
  94              	.LBB10:
  95              	.LBB11:
  50:../../lib/lpc11cx4-library/lpc_chip_11cxx_lib/src/timer_11xx.c **** 	  tmrClk = SYSCTL_CLOCK_CT32B1;
  96              		.loc 1 50 0
  97 0000 0C4B     		ldr	r3, .L8	@ tmp114,
  98 0002 9842     		cmp	r0, r3	@ pTMR, tmp114
ARM GAS  /var/folders/z0/6xlwn_996xz3mwq1cgzkbq4r0000gp/T//cc3Li5iv.s 			page 4


  99 0004 0DD0     		beq	.L3	@,
  53:../../lib/lpc11cx4-library/lpc_chip_11cxx_lib/src/timer_11xx.c **** 	  tmrClk = SYSCTL_CLOCK_CT16B0;
 100              		.loc 1 53 0
 101 0006 0C4B     		ldr	r3, .L8+4	@ tmp115,
 102 0008 9842     		cmp	r0, r3	@ pTMR, tmp115
 103 000a 0DD0     		beq	.L4	@,
  56:../../lib/lpc11cx4-library/lpc_chip_11cxx_lib/src/timer_11xx.c **** 	  tmrClk = SYSCTL_CLOCK_CT16B1;
 104              		.loc 1 56 0
 105 000c 8023     		movs	r3, #128	@ D.6240,
 106 000e 0B4A     		ldr	r2, .L8+8	@ tmp116,
 107 0010 9B00     		lsls	r3, r3, #2	@ D.6240, D.6240,
 108 0012 9042     		cmp	r0, r2	@ pTMR, tmp116
 109 0014 0AD0     		beq	.L7	@,
 110              	.L2:
 111              	.LVL1:
 112              	.LBE11:
 113              	.LBE10:
 114              	.LBB13:
 115              	.LBB14:
 116              		.file 2 "../../lib/lpc11cx4-library/lpc_chip_11cxx_lib/inc/clock_11xx.h"
   1:../../lib/lpc11cx4-library/lpc_chip_11cxx_lib/inc/clock_11xx.h **** /*
   2:../../lib/lpc11cx4-library/lpc_chip_11cxx_lib/inc/clock_11xx.h ****  * @brief LPC11XX Clock control functions
   3:../../lib/lpc11cx4-library/lpc_chip_11cxx_lib/inc/clock_11xx.h ****  *
   4:../../lib/lpc11cx4-library/lpc_chip_11cxx_lib/inc/clock_11xx.h ****  * @note
   5:../../lib/lpc11cx4-library/lpc_chip_11cxx_lib/inc/clock_11xx.h ****  * Copyright(C) NXP Semiconductors, 2012
   6:../../lib/lpc11cx4-library/lpc_chip_11cxx_lib/inc/clock_11xx.h ****  * All rights reserved.
   7:../../lib/lpc11cx4-library/lpc_chip_11cxx_lib/inc/clock_11xx.h ****  *
   8:../../lib/lpc11cx4-library/lpc_chip_11cxx_lib/inc/clock_11xx.h ****  * @par
   9:../../lib/lpc11cx4-library/lpc_chip_11cxx_lib/inc/clock_11xx.h ****  * Software that is described herein is for illustrative purposes only
  10:../../lib/lpc11cx4-library/lpc_chip_11cxx_lib/inc/clock_11xx.h ****  * which provides customers with programming information regarding the
  11:../../lib/lpc11cx4-library/lpc_chip_11cxx_lib/inc/clock_11xx.h ****  * LPC products.  This software is supplied "AS IS" without any warranties of
  12:../../lib/lpc11cx4-library/lpc_chip_11cxx_lib/inc/clock_11xx.h ****  * any kind, and NXP Semiconductors and its licensor disclaim any and
  13:../../lib/lpc11cx4-library/lpc_chip_11cxx_lib/inc/clock_11xx.h ****  * all warranties, express or implied, including all implied warranties of
  14:../../lib/lpc11cx4-library/lpc_chip_11cxx_lib/inc/clock_11xx.h ****  * merchantability, fitness for a particular purpose and non-infringement of
  15:../../lib/lpc11cx4-library/lpc_chip_11cxx_lib/inc/clock_11xx.h ****  * intellectual property rights.  NXP Semiconductors assumes no responsibility
  16:../../lib/lpc11cx4-library/lpc_chip_11cxx_lib/inc/clock_11xx.h ****  * or liability for the use of the software, conveys no license or rights under any
  17:../../lib/lpc11cx4-library/lpc_chip_11cxx_lib/inc/clock_11xx.h ****  * patent, copyright, mask work right, or any other intellectual property rights in
  18:../../lib/lpc11cx4-library/lpc_chip_11cxx_lib/inc/clock_11xx.h ****  * or to any products. NXP Semiconductors reserves the right to make changes
  19:../../lib/lpc11cx4-library/lpc_chip_11cxx_lib/inc/clock_11xx.h ****  * in the software without notification. NXP Semiconductors also makes no
  20:../../lib/lpc11cx4-library/lpc_chip_11cxx_lib/inc/clock_11xx.h ****  * representation or warranty that such application will be suitable for the
  21:../../lib/lpc11cx4-library/lpc_chip_11cxx_lib/inc/clock_11xx.h ****  * specified use without further testing or modification.
  22:../../lib/lpc11cx4-library/lpc_chip_11cxx_lib/inc/clock_11xx.h ****  *
  23:../../lib/lpc11cx4-library/lpc_chip_11cxx_lib/inc/clock_11xx.h ****  * @par
  24:../../lib/lpc11cx4-library/lpc_chip_11cxx_lib/inc/clock_11xx.h ****  * Permission to use, copy, modify, and distribute this software and its
  25:../../lib/lpc11cx4-library/lpc_chip_11cxx_lib/inc/clock_11xx.h ****  * documentation is hereby granted, under NXP Semiconductors' and its
  26:../../lib/lpc11cx4-library/lpc_chip_11cxx_lib/inc/clock_11xx.h ****  * licensor's relevant copyrights in the software, without fee, provided that it
  27:../../lib/lpc11cx4-library/lpc_chip_11cxx_lib/inc/clock_11xx.h ****  * is used in conjunction with NXP Semiconductors microcontrollers.  This
  28:../../lib/lpc11cx4-library/lpc_chip_11cxx_lib/inc/clock_11xx.h ****  * copyright, permission, and disclaimer notice must appear in all copies of
  29:../../lib/lpc11cx4-library/lpc_chip_11cxx_lib/inc/clock_11xx.h ****  * this code.
  30:../../lib/lpc11cx4-library/lpc_chip_11cxx_lib/inc/clock_11xx.h ****  */
  31:../../lib/lpc11cx4-library/lpc_chip_11cxx_lib/inc/clock_11xx.h **** 
  32:../../lib/lpc11cx4-library/lpc_chip_11cxx_lib/inc/clock_11xx.h **** #ifndef __CLOCK_11XX_H_
  33:../../lib/lpc11cx4-library/lpc_chip_11cxx_lib/inc/clock_11xx.h **** #define __CLOCK_11XX_H_
  34:../../lib/lpc11cx4-library/lpc_chip_11cxx_lib/inc/clock_11xx.h **** 
  35:../../lib/lpc11cx4-library/lpc_chip_11cxx_lib/inc/clock_11xx.h **** #ifdef __cplusplus
  36:../../lib/lpc11cx4-library/lpc_chip_11cxx_lib/inc/clock_11xx.h **** extern "C" {
  37:../../lib/lpc11cx4-library/lpc_chip_11cxx_lib/inc/clock_11xx.h **** #endif
ARM GAS  /var/folders/z0/6xlwn_996xz3mwq1cgzkbq4r0000gp/T//cc3Li5iv.s 			page 5


  38:../../lib/lpc11cx4-library/lpc_chip_11cxx_lib/inc/clock_11xx.h **** 
  39:../../lib/lpc11cx4-library/lpc_chip_11cxx_lib/inc/clock_11xx.h **** /** @defgroup CLOCK_11XX CHIP: LPC11xx Clock Control block driver
  40:../../lib/lpc11cx4-library/lpc_chip_11cxx_lib/inc/clock_11xx.h ****  * @ingroup CHIP_11XX_Drivers
  41:../../lib/lpc11cx4-library/lpc_chip_11cxx_lib/inc/clock_11xx.h ****  * @{
  42:../../lib/lpc11cx4-library/lpc_chip_11cxx_lib/inc/clock_11xx.h ****  */
  43:../../lib/lpc11cx4-library/lpc_chip_11cxx_lib/inc/clock_11xx.h **** 
  44:../../lib/lpc11cx4-library/lpc_chip_11cxx_lib/inc/clock_11xx.h **** /** Internal oscillator frequency */
  45:../../lib/lpc11cx4-library/lpc_chip_11cxx_lib/inc/clock_11xx.h **** #define SYSCTL_IRC_FREQ (12000000)
  46:../../lib/lpc11cx4-library/lpc_chip_11cxx_lib/inc/clock_11xx.h **** 
  47:../../lib/lpc11cx4-library/lpc_chip_11cxx_lib/inc/clock_11xx.h **** /**
  48:../../lib/lpc11cx4-library/lpc_chip_11cxx_lib/inc/clock_11xx.h ****  * @brief	Set System PLL divider values
  49:../../lib/lpc11cx4-library/lpc_chip_11cxx_lib/inc/clock_11xx.h ****  * @param	msel    : PLL feedback divider value. M = msel + 1.
  50:../../lib/lpc11cx4-library/lpc_chip_11cxx_lib/inc/clock_11xx.h ****  * @param	psel    : PLL post divider value. P =  (1<<psel).
  51:../../lib/lpc11cx4-library/lpc_chip_11cxx_lib/inc/clock_11xx.h ****  * @return	Nothing
  52:../../lib/lpc11cx4-library/lpc_chip_11cxx_lib/inc/clock_11xx.h ****  * @note	See the user manual for how to setup the PLL.
  53:../../lib/lpc11cx4-library/lpc_chip_11cxx_lib/inc/clock_11xx.h ****  */
  54:../../lib/lpc11cx4-library/lpc_chip_11cxx_lib/inc/clock_11xx.h **** STATIC INLINE void Chip_Clock_SetupSystemPLL(uint8_t msel, uint8_t psel)
  55:../../lib/lpc11cx4-library/lpc_chip_11cxx_lib/inc/clock_11xx.h **** {
  56:../../lib/lpc11cx4-library/lpc_chip_11cxx_lib/inc/clock_11xx.h **** 	LPC_SYSCTL->SYSPLLCTRL = (msel & 0x1F) | ((psel & 0x3) << 5);
  57:../../lib/lpc11cx4-library/lpc_chip_11cxx_lib/inc/clock_11xx.h **** }
  58:../../lib/lpc11cx4-library/lpc_chip_11cxx_lib/inc/clock_11xx.h **** 
  59:../../lib/lpc11cx4-library/lpc_chip_11cxx_lib/inc/clock_11xx.h **** /**
  60:../../lib/lpc11cx4-library/lpc_chip_11cxx_lib/inc/clock_11xx.h ****  * @brief	Read System PLL lock status
  61:../../lib/lpc11cx4-library/lpc_chip_11cxx_lib/inc/clock_11xx.h ****  * @return	true of the PLL is locked. false if not locked
  62:../../lib/lpc11cx4-library/lpc_chip_11cxx_lib/inc/clock_11xx.h ****  */
  63:../../lib/lpc11cx4-library/lpc_chip_11cxx_lib/inc/clock_11xx.h **** STATIC INLINE bool Chip_Clock_IsSystemPLLLocked(void)
  64:../../lib/lpc11cx4-library/lpc_chip_11cxx_lib/inc/clock_11xx.h **** {
  65:../../lib/lpc11cx4-library/lpc_chip_11cxx_lib/inc/clock_11xx.h **** 	return (bool) ((LPC_SYSCTL->SYSPLLSTAT & 1) != 0);
  66:../../lib/lpc11cx4-library/lpc_chip_11cxx_lib/inc/clock_11xx.h **** }
  67:../../lib/lpc11cx4-library/lpc_chip_11cxx_lib/inc/clock_11xx.h **** 
  68:../../lib/lpc11cx4-library/lpc_chip_11cxx_lib/inc/clock_11xx.h **** /**
  69:../../lib/lpc11cx4-library/lpc_chip_11cxx_lib/inc/clock_11xx.h ****  * Clock sources for system and USB PLLs
  70:../../lib/lpc11cx4-library/lpc_chip_11cxx_lib/inc/clock_11xx.h ****  */
  71:../../lib/lpc11cx4-library/lpc_chip_11cxx_lib/inc/clock_11xx.h **** typedef enum CHIP_SYSCTL_PLLCLKSRC {
  72:../../lib/lpc11cx4-library/lpc_chip_11cxx_lib/inc/clock_11xx.h **** 	SYSCTL_PLLCLKSRC_IRC = 0,		/*!< Internal oscillator in */
  73:../../lib/lpc11cx4-library/lpc_chip_11cxx_lib/inc/clock_11xx.h **** 	SYSCTL_PLLCLKSRC_MAINOSC,		/*!< Crystal (main) oscillator in */
  74:../../lib/lpc11cx4-library/lpc_chip_11cxx_lib/inc/clock_11xx.h **** #if defined(CHIP_LPC11AXX)
  75:../../lib/lpc11cx4-library/lpc_chip_11cxx_lib/inc/clock_11xx.h **** 	SYSCTL_PLLCLKSRC_EXT_CLKIN,	/*!< External clock in (11Axx only) */
  76:../../lib/lpc11cx4-library/lpc_chip_11cxx_lib/inc/clock_11xx.h **** #else
  77:../../lib/lpc11cx4-library/lpc_chip_11cxx_lib/inc/clock_11xx.h **** 	SYSCTL_PLLCLKSRC_RESERVED1,	/*!< Reserved */
  78:../../lib/lpc11cx4-library/lpc_chip_11cxx_lib/inc/clock_11xx.h **** #endif
  79:../../lib/lpc11cx4-library/lpc_chip_11cxx_lib/inc/clock_11xx.h **** 	SYSCTL_PLLCLKSRC_RESERVED2,	/*!< Reserved */
  80:../../lib/lpc11cx4-library/lpc_chip_11cxx_lib/inc/clock_11xx.h **** } CHIP_SYSCTL_PLLCLKSRC_T;
  81:../../lib/lpc11cx4-library/lpc_chip_11cxx_lib/inc/clock_11xx.h **** 
  82:../../lib/lpc11cx4-library/lpc_chip_11cxx_lib/inc/clock_11xx.h **** /**
  83:../../lib/lpc11cx4-library/lpc_chip_11cxx_lib/inc/clock_11xx.h ****  * @brief	Set System PLL clock source
  84:../../lib/lpc11cx4-library/lpc_chip_11cxx_lib/inc/clock_11xx.h ****  * @param	src	: Clock source for system PLL
  85:../../lib/lpc11cx4-library/lpc_chip_11cxx_lib/inc/clock_11xx.h ****  * @return	Nothing
  86:../../lib/lpc11cx4-library/lpc_chip_11cxx_lib/inc/clock_11xx.h ****  * @note	This function will also toggle the clock source update register
  87:../../lib/lpc11cx4-library/lpc_chip_11cxx_lib/inc/clock_11xx.h ****  * to update the clock source.
  88:../../lib/lpc11cx4-library/lpc_chip_11cxx_lib/inc/clock_11xx.h ****  */
  89:../../lib/lpc11cx4-library/lpc_chip_11cxx_lib/inc/clock_11xx.h **** void Chip_Clock_SetSystemPLLSource(CHIP_SYSCTL_PLLCLKSRC_T src);
  90:../../lib/lpc11cx4-library/lpc_chip_11cxx_lib/inc/clock_11xx.h **** 
  91:../../lib/lpc11cx4-library/lpc_chip_11cxx_lib/inc/clock_11xx.h **** #if defined(CHIP_LPC11UXX)
  92:../../lib/lpc11cx4-library/lpc_chip_11cxx_lib/inc/clock_11xx.h **** /**
  93:../../lib/lpc11cx4-library/lpc_chip_11cxx_lib/inc/clock_11xx.h ****  * @brief	Set USB PLL divider values
  94:../../lib/lpc11cx4-library/lpc_chip_11cxx_lib/inc/clock_11xx.h ****  * @param	msel    : PLL feedback divider value. M = msel + 1.
ARM GAS  /var/folders/z0/6xlwn_996xz3mwq1cgzkbq4r0000gp/T//cc3Li5iv.s 			page 6


  95:../../lib/lpc11cx4-library/lpc_chip_11cxx_lib/inc/clock_11xx.h ****  * @param	psel    : PLL post divider value. P = (1<<psel).
  96:../../lib/lpc11cx4-library/lpc_chip_11cxx_lib/inc/clock_11xx.h ****  * @return	Nothing
  97:../../lib/lpc11cx4-library/lpc_chip_11cxx_lib/inc/clock_11xx.h ****  * @note	See the user manual for how to setup the PLL.
  98:../../lib/lpc11cx4-library/lpc_chip_11cxx_lib/inc/clock_11xx.h ****  */
  99:../../lib/lpc11cx4-library/lpc_chip_11cxx_lib/inc/clock_11xx.h **** STATIC INLINE void Chip_Clock_SetupUSBPLL(uint8_t msel, uint8_t psel)
 100:../../lib/lpc11cx4-library/lpc_chip_11cxx_lib/inc/clock_11xx.h **** {
 101:../../lib/lpc11cx4-library/lpc_chip_11cxx_lib/inc/clock_11xx.h **** 	LPC_SYSCTL->USBPLLCTRL = (msel & 0x1F) | ((psel & 0x3) << 5);
 102:../../lib/lpc11cx4-library/lpc_chip_11cxx_lib/inc/clock_11xx.h **** }
 103:../../lib/lpc11cx4-library/lpc_chip_11cxx_lib/inc/clock_11xx.h **** 
 104:../../lib/lpc11cx4-library/lpc_chip_11cxx_lib/inc/clock_11xx.h **** /**
 105:../../lib/lpc11cx4-library/lpc_chip_11cxx_lib/inc/clock_11xx.h ****  * @brief	Read USB PLL lock status
 106:../../lib/lpc11cx4-library/lpc_chip_11cxx_lib/inc/clock_11xx.h ****  * @return	true of the PLL is locked. false if not locked
 107:../../lib/lpc11cx4-library/lpc_chip_11cxx_lib/inc/clock_11xx.h ****  */
 108:../../lib/lpc11cx4-library/lpc_chip_11cxx_lib/inc/clock_11xx.h **** STATIC INLINE bool Chip_Clock_IsUSBPLLLocked(void)
 109:../../lib/lpc11cx4-library/lpc_chip_11cxx_lib/inc/clock_11xx.h **** {
 110:../../lib/lpc11cx4-library/lpc_chip_11cxx_lib/inc/clock_11xx.h **** 	return (bool) ((LPC_SYSCTL->USBPLLSTAT & 1) != 0);
 111:../../lib/lpc11cx4-library/lpc_chip_11cxx_lib/inc/clock_11xx.h **** }
 112:../../lib/lpc11cx4-library/lpc_chip_11cxx_lib/inc/clock_11xx.h **** 
 113:../../lib/lpc11cx4-library/lpc_chip_11cxx_lib/inc/clock_11xx.h **** /**
 114:../../lib/lpc11cx4-library/lpc_chip_11cxx_lib/inc/clock_11xx.h ****  * @brief	Set USB PLL clock source
 115:../../lib/lpc11cx4-library/lpc_chip_11cxx_lib/inc/clock_11xx.h ****  * @param	src	: Clock source for USB PLL
 116:../../lib/lpc11cx4-library/lpc_chip_11cxx_lib/inc/clock_11xx.h ****  * @return	Nothing
 117:../../lib/lpc11cx4-library/lpc_chip_11cxx_lib/inc/clock_11xx.h ****  * @note	This function will also toggle the clock source update register
 118:../../lib/lpc11cx4-library/lpc_chip_11cxx_lib/inc/clock_11xx.h ****  * to update the clock source.
 119:../../lib/lpc11cx4-library/lpc_chip_11cxx_lib/inc/clock_11xx.h ****  */
 120:../../lib/lpc11cx4-library/lpc_chip_11cxx_lib/inc/clock_11xx.h **** void Chip_Clock_SetUSBPLLSource(CHIP_SYSCTL_PLLCLKSRC_T src);
 121:../../lib/lpc11cx4-library/lpc_chip_11cxx_lib/inc/clock_11xx.h **** 
 122:../../lib/lpc11cx4-library/lpc_chip_11cxx_lib/inc/clock_11xx.h **** #endif /*defined(CHIP_LPC11UXX)*/
 123:../../lib/lpc11cx4-library/lpc_chip_11cxx_lib/inc/clock_11xx.h **** 
 124:../../lib/lpc11cx4-library/lpc_chip_11cxx_lib/inc/clock_11xx.h **** /**
 125:../../lib/lpc11cx4-library/lpc_chip_11cxx_lib/inc/clock_11xx.h ****  * @brief	Bypass System Oscillator and set oscillator frequency range
 126:../../lib/lpc11cx4-library/lpc_chip_11cxx_lib/inc/clock_11xx.h ****  * @param	bypass	: Flag to bypass oscillator
 127:../../lib/lpc11cx4-library/lpc_chip_11cxx_lib/inc/clock_11xx.h ****  * @param	highfr	: Flag to set oscillator range from 15-25 MHz
 128:../../lib/lpc11cx4-library/lpc_chip_11cxx_lib/inc/clock_11xx.h ****  * @return	Nothing
 129:../../lib/lpc11cx4-library/lpc_chip_11cxx_lib/inc/clock_11xx.h ****  * @note	Sets the PLL input to bypass the oscillator. This would be
 130:../../lib/lpc11cx4-library/lpc_chip_11cxx_lib/inc/clock_11xx.h ****  * used if an external clock that is not an oscillator is attached
 131:../../lib/lpc11cx4-library/lpc_chip_11cxx_lib/inc/clock_11xx.h ****  * to the XTALIN pin.
 132:../../lib/lpc11cx4-library/lpc_chip_11cxx_lib/inc/clock_11xx.h ****  */
 133:../../lib/lpc11cx4-library/lpc_chip_11cxx_lib/inc/clock_11xx.h **** void Chip_Clock_SetPLLBypass(bool bypass, bool highfr);
 134:../../lib/lpc11cx4-library/lpc_chip_11cxx_lib/inc/clock_11xx.h **** 
 135:../../lib/lpc11cx4-library/lpc_chip_11cxx_lib/inc/clock_11xx.h **** /**
 136:../../lib/lpc11cx4-library/lpc_chip_11cxx_lib/inc/clock_11xx.h ****  * Watchdog and low frequency oscillator frequencies plus or minus 40%
 137:../../lib/lpc11cx4-library/lpc_chip_11cxx_lib/inc/clock_11xx.h ****  */
 138:../../lib/lpc11cx4-library/lpc_chip_11cxx_lib/inc/clock_11xx.h **** typedef enum CHIP_WDTLFO_OSC {
 139:../../lib/lpc11cx4-library/lpc_chip_11cxx_lib/inc/clock_11xx.h **** 	WDTLFO_OSC_ILLEGAL,
 140:../../lib/lpc11cx4-library/lpc_chip_11cxx_lib/inc/clock_11xx.h **** 	WDTLFO_OSC_0_60,	/*!< 0.6 MHz watchdog/LFO rate */
 141:../../lib/lpc11cx4-library/lpc_chip_11cxx_lib/inc/clock_11xx.h **** 	WDTLFO_OSC_1_05,	/*!< 1.05 MHz watchdog/LFO rate */
 142:../../lib/lpc11cx4-library/lpc_chip_11cxx_lib/inc/clock_11xx.h **** 	WDTLFO_OSC_1_40,	/*!< 1.4 MHz watchdog/LFO rate */
 143:../../lib/lpc11cx4-library/lpc_chip_11cxx_lib/inc/clock_11xx.h **** 	WDTLFO_OSC_1_75,	/*!< 1.75 MHz watchdog/LFO rate */
 144:../../lib/lpc11cx4-library/lpc_chip_11cxx_lib/inc/clock_11xx.h **** 	WDTLFO_OSC_2_10,	/*!< 2.1 MHz watchdog/LFO rate */
 145:../../lib/lpc11cx4-library/lpc_chip_11cxx_lib/inc/clock_11xx.h **** 	WDTLFO_OSC_2_40,	/*!< 2.4 MHz watchdog/LFO rate */
 146:../../lib/lpc11cx4-library/lpc_chip_11cxx_lib/inc/clock_11xx.h **** 	WDTLFO_OSC_2_70,	/*!< 2.7 MHz watchdog/LFO rate */
 147:../../lib/lpc11cx4-library/lpc_chip_11cxx_lib/inc/clock_11xx.h **** 	WDTLFO_OSC_3_00,	/*!< 3.0 MHz watchdog/LFO rate */
 148:../../lib/lpc11cx4-library/lpc_chip_11cxx_lib/inc/clock_11xx.h **** 	WDTLFO_OSC_3_25,	/*!< 3.25 MHz watchdog/LFO rate */
 149:../../lib/lpc11cx4-library/lpc_chip_11cxx_lib/inc/clock_11xx.h **** 	WDTLFO_OSC_3_50,	/*!< 3.5 MHz watchdog/LFO rate */
 150:../../lib/lpc11cx4-library/lpc_chip_11cxx_lib/inc/clock_11xx.h **** 	WDTLFO_OSC_3_75,	/*!< 3.75 MHz watchdog/LFO rate */
 151:../../lib/lpc11cx4-library/lpc_chip_11cxx_lib/inc/clock_11xx.h **** 	WDTLFO_OSC_4_00,	/*!< 4.0 MHz watchdog/LFO rate */
ARM GAS  /var/folders/z0/6xlwn_996xz3mwq1cgzkbq4r0000gp/T//cc3Li5iv.s 			page 7


 152:../../lib/lpc11cx4-library/lpc_chip_11cxx_lib/inc/clock_11xx.h **** 	WDTLFO_OSC_4_20,	/*!< 4.2 MHz watchdog/LFO rate */
 153:../../lib/lpc11cx4-library/lpc_chip_11cxx_lib/inc/clock_11xx.h **** 	WDTLFO_OSC_4_40,	/*!< 4.4 MHz watchdog/LFO rate */
 154:../../lib/lpc11cx4-library/lpc_chip_11cxx_lib/inc/clock_11xx.h **** 	WDTLFO_OSC_4_60		/*!< 4.6 MHz watchdog/LFO rate */
 155:../../lib/lpc11cx4-library/lpc_chip_11cxx_lib/inc/clock_11xx.h **** } CHIP_WDTLFO_OSC_T;
 156:../../lib/lpc11cx4-library/lpc_chip_11cxx_lib/inc/clock_11xx.h **** 
 157:../../lib/lpc11cx4-library/lpc_chip_11cxx_lib/inc/clock_11xx.h **** /**
 158:../../lib/lpc11cx4-library/lpc_chip_11cxx_lib/inc/clock_11xx.h ****  * @brief	Setup Watchdog oscillator rate and divider
 159:../../lib/lpc11cx4-library/lpc_chip_11cxx_lib/inc/clock_11xx.h ****  * @param	wdtclk	: Selected watchdog clock rate
 160:../../lib/lpc11cx4-library/lpc_chip_11cxx_lib/inc/clock_11xx.h ****  * @param	div		: Watchdog divider value, even value between 2 and 64
 161:../../lib/lpc11cx4-library/lpc_chip_11cxx_lib/inc/clock_11xx.h ****  * @return	Nothing
 162:../../lib/lpc11cx4-library/lpc_chip_11cxx_lib/inc/clock_11xx.h ****  * @note	Watchdog rate = selected rate divided by divider rate
 163:../../lib/lpc11cx4-library/lpc_chip_11cxx_lib/inc/clock_11xx.h ****  */
 164:../../lib/lpc11cx4-library/lpc_chip_11cxx_lib/inc/clock_11xx.h **** STATIC INLINE void Chip_Clock_SetWDTOSC(CHIP_WDTLFO_OSC_T wdtclk, uint8_t div)
 165:../../lib/lpc11cx4-library/lpc_chip_11cxx_lib/inc/clock_11xx.h **** {
 166:../../lib/lpc11cx4-library/lpc_chip_11cxx_lib/inc/clock_11xx.h **** 	LPC_SYSCTL->WDTOSCCTRL  = (((uint32_t) wdtclk) << 5) | ((div >> 1) - 1);
 167:../../lib/lpc11cx4-library/lpc_chip_11cxx_lib/inc/clock_11xx.h **** }
 168:../../lib/lpc11cx4-library/lpc_chip_11cxx_lib/inc/clock_11xx.h **** 
 169:../../lib/lpc11cx4-library/lpc_chip_11cxx_lib/inc/clock_11xx.h **** #if defined(CHIP_LPC11AXX)
 170:../../lib/lpc11cx4-library/lpc_chip_11cxx_lib/inc/clock_11xx.h **** /**
 171:../../lib/lpc11cx4-library/lpc_chip_11cxx_lib/inc/clock_11xx.h ****  * @brief	Setup low frequency oscillator rate and divider
 172:../../lib/lpc11cx4-library/lpc_chip_11cxx_lib/inc/clock_11xx.h ****  * @param	lfoclk	: Selected low frequency clock rate
 173:../../lib/lpc11cx4-library/lpc_chip_11cxx_lib/inc/clock_11xx.h ****  * @param	div		: Low frequency divider value, even value between 2 and 64
 174:../../lib/lpc11cx4-library/lpc_chip_11cxx_lib/inc/clock_11xx.h ****  * @return	Nothing
 175:../../lib/lpc11cx4-library/lpc_chip_11cxx_lib/inc/clock_11xx.h ****  * @note	Low frequency oscillator rate = selected rate divided by divider rate
 176:../../lib/lpc11cx4-library/lpc_chip_11cxx_lib/inc/clock_11xx.h ****  */
 177:../../lib/lpc11cx4-library/lpc_chip_11cxx_lib/inc/clock_11xx.h **** STATIC INLINE void Chip_Clock_SetLFOSC(CHIP_WDTLFO_OSC_T lfoclk, uint8_t div)
 178:../../lib/lpc11cx4-library/lpc_chip_11cxx_lib/inc/clock_11xx.h **** {
 179:../../lib/lpc11cx4-library/lpc_chip_11cxx_lib/inc/clock_11xx.h **** 	LPC_SYSCTL->LFOSCCTRL  = (((uint32_t) lfoclk) << 5) | ((div >> 1) - 1);
 180:../../lib/lpc11cx4-library/lpc_chip_11cxx_lib/inc/clock_11xx.h **** }
 181:../../lib/lpc11cx4-library/lpc_chip_11cxx_lib/inc/clock_11xx.h **** 
 182:../../lib/lpc11cx4-library/lpc_chip_11cxx_lib/inc/clock_11xx.h **** #endif /*CHIP_LPC11AXX*/
 183:../../lib/lpc11cx4-library/lpc_chip_11cxx_lib/inc/clock_11xx.h **** 
 184:../../lib/lpc11cx4-library/lpc_chip_11cxx_lib/inc/clock_11xx.h **** /**
 185:../../lib/lpc11cx4-library/lpc_chip_11cxx_lib/inc/clock_11xx.h ****  * Clock sources for main system clock
 186:../../lib/lpc11cx4-library/lpc_chip_11cxx_lib/inc/clock_11xx.h ****  */
 187:../../lib/lpc11cx4-library/lpc_chip_11cxx_lib/inc/clock_11xx.h **** typedef enum CHIP_SYSCTL_MAINCLKSRC {
 188:../../lib/lpc11cx4-library/lpc_chip_11cxx_lib/inc/clock_11xx.h **** 	SYSCTL_MAINCLKSRC_IRC = 0,		/*!< Internal oscillator */
 189:../../lib/lpc11cx4-library/lpc_chip_11cxx_lib/inc/clock_11xx.h **** 	SYSCTL_MAINCLKSRC_PLLIN,		/*!< System PLL input */
 190:../../lib/lpc11cx4-library/lpc_chip_11cxx_lib/inc/clock_11xx.h **** 	SYSCTL_MAINCLKSRC_LFOSC,		/*!< LF oscillator rate (11Axx only) */
 191:../../lib/lpc11cx4-library/lpc_chip_11cxx_lib/inc/clock_11xx.h **** 	SYSCTL_MAINCLKSRC_WDTOSC = SYSCTL_MAINCLKSRC_LFOSC,	/*!< Watchdog oscillator rate */
 192:../../lib/lpc11cx4-library/lpc_chip_11cxx_lib/inc/clock_11xx.h **** 	SYSCTL_MAINCLKSRC_PLLOUT,		/*!< System PLL output */
 193:../../lib/lpc11cx4-library/lpc_chip_11cxx_lib/inc/clock_11xx.h **** } CHIP_SYSCTL_MAINCLKSRC_T;
 194:../../lib/lpc11cx4-library/lpc_chip_11cxx_lib/inc/clock_11xx.h **** 
 195:../../lib/lpc11cx4-library/lpc_chip_11cxx_lib/inc/clock_11xx.h **** /**
 196:../../lib/lpc11cx4-library/lpc_chip_11cxx_lib/inc/clock_11xx.h ****  * @brief	Set main system clock source
 197:../../lib/lpc11cx4-library/lpc_chip_11cxx_lib/inc/clock_11xx.h ****  * @param	src	: Clock source for main system
 198:../../lib/lpc11cx4-library/lpc_chip_11cxx_lib/inc/clock_11xx.h ****  * @return	Nothing
 199:../../lib/lpc11cx4-library/lpc_chip_11cxx_lib/inc/clock_11xx.h ****  * @note	This function will also toggle the clock source update register
 200:../../lib/lpc11cx4-library/lpc_chip_11cxx_lib/inc/clock_11xx.h ****  * to update the clock source.
 201:../../lib/lpc11cx4-library/lpc_chip_11cxx_lib/inc/clock_11xx.h ****  */
 202:../../lib/lpc11cx4-library/lpc_chip_11cxx_lib/inc/clock_11xx.h **** void Chip_Clock_SetMainClockSource(CHIP_SYSCTL_MAINCLKSRC_T src);
 203:../../lib/lpc11cx4-library/lpc_chip_11cxx_lib/inc/clock_11xx.h **** 
 204:../../lib/lpc11cx4-library/lpc_chip_11cxx_lib/inc/clock_11xx.h **** /**
 205:../../lib/lpc11cx4-library/lpc_chip_11cxx_lib/inc/clock_11xx.h ****  * @brief   Returns the main clock source
 206:../../lib/lpc11cx4-library/lpc_chip_11cxx_lib/inc/clock_11xx.h ****  * @return	Which clock is used for the core clock source?
 207:../../lib/lpc11cx4-library/lpc_chip_11cxx_lib/inc/clock_11xx.h ****  */
 208:../../lib/lpc11cx4-library/lpc_chip_11cxx_lib/inc/clock_11xx.h **** STATIC INLINE CHIP_SYSCTL_MAINCLKSRC_T Chip_Clock_GetMainClockSource(void)
ARM GAS  /var/folders/z0/6xlwn_996xz3mwq1cgzkbq4r0000gp/T//cc3Li5iv.s 			page 8


 209:../../lib/lpc11cx4-library/lpc_chip_11cxx_lib/inc/clock_11xx.h **** {
 210:../../lib/lpc11cx4-library/lpc_chip_11cxx_lib/inc/clock_11xx.h **** 	return (CHIP_SYSCTL_MAINCLKSRC_T) (LPC_SYSCTL->MAINCLKSEL);
 211:../../lib/lpc11cx4-library/lpc_chip_11cxx_lib/inc/clock_11xx.h **** }
 212:../../lib/lpc11cx4-library/lpc_chip_11cxx_lib/inc/clock_11xx.h **** 
 213:../../lib/lpc11cx4-library/lpc_chip_11cxx_lib/inc/clock_11xx.h **** /**
 214:../../lib/lpc11cx4-library/lpc_chip_11cxx_lib/inc/clock_11xx.h ****  * @brief	Set system clock divider
 215:../../lib/lpc11cx4-library/lpc_chip_11cxx_lib/inc/clock_11xx.h ****  * @param	div	: divider for system clock
 216:../../lib/lpc11cx4-library/lpc_chip_11cxx_lib/inc/clock_11xx.h ****  * @return	Nothing
 217:../../lib/lpc11cx4-library/lpc_chip_11cxx_lib/inc/clock_11xx.h ****  * @note	Use 0 to disable, or a divider value of 1 to 255. The system clock
 218:../../lib/lpc11cx4-library/lpc_chip_11cxx_lib/inc/clock_11xx.h ****  * rate is the main system clock divided by this value.
 219:../../lib/lpc11cx4-library/lpc_chip_11cxx_lib/inc/clock_11xx.h ****  */
 220:../../lib/lpc11cx4-library/lpc_chip_11cxx_lib/inc/clock_11xx.h **** STATIC INLINE void Chip_Clock_SetSysClockDiv(uint32_t div)
 221:../../lib/lpc11cx4-library/lpc_chip_11cxx_lib/inc/clock_11xx.h **** {
 222:../../lib/lpc11cx4-library/lpc_chip_11cxx_lib/inc/clock_11xx.h **** 	LPC_SYSCTL->SYSAHBCLKDIV  = div;
 223:../../lib/lpc11cx4-library/lpc_chip_11cxx_lib/inc/clock_11xx.h **** }
 224:../../lib/lpc11cx4-library/lpc_chip_11cxx_lib/inc/clock_11xx.h **** 
 225:../../lib/lpc11cx4-library/lpc_chip_11cxx_lib/inc/clock_11xx.h **** /**
 226:../../lib/lpc11cx4-library/lpc_chip_11cxx_lib/inc/clock_11xx.h ****  * System and peripheral clocks
 227:../../lib/lpc11cx4-library/lpc_chip_11cxx_lib/inc/clock_11xx.h ****  */
 228:../../lib/lpc11cx4-library/lpc_chip_11cxx_lib/inc/clock_11xx.h **** typedef enum CHIP_SYSCTL_CLOCK {
 229:../../lib/lpc11cx4-library/lpc_chip_11cxx_lib/inc/clock_11xx.h **** 	SYSCTL_CLOCK_SYS = 0,				/*!< 0: System clock */
 230:../../lib/lpc11cx4-library/lpc_chip_11cxx_lib/inc/clock_11xx.h **** 	SYSCTL_CLOCK_ROM,					/*!<1:  ROM clock */
 231:../../lib/lpc11cx4-library/lpc_chip_11cxx_lib/inc/clock_11xx.h **** 	SYSCTL_CLOCK_RAM,					/*!< 2: RAM clock */
 232:../../lib/lpc11cx4-library/lpc_chip_11cxx_lib/inc/clock_11xx.h **** 	SYSCTL_CLOCK_FLASHREG,				/*!< 3: FLASH register interface clock */
 233:../../lib/lpc11cx4-library/lpc_chip_11cxx_lib/inc/clock_11xx.h **** 	SYSCTL_CLOCK_FLASHARRAY,			/*!< 4: FLASH array access clock */
 234:../../lib/lpc11cx4-library/lpc_chip_11cxx_lib/inc/clock_11xx.h **** #if defined(CHIP_LPC110X)
 235:../../lib/lpc11cx4-library/lpc_chip_11cxx_lib/inc/clock_11xx.h **** 	SYSCTL_CLOCK_RESERVED5,				/*!< 5: Reserved */
 236:../../lib/lpc11cx4-library/lpc_chip_11cxx_lib/inc/clock_11xx.h **** #else
 237:../../lib/lpc11cx4-library/lpc_chip_11cxx_lib/inc/clock_11xx.h **** 	SYSCTL_CLOCK_I2C,					/*!< 5: I2C clock, not on LPC110x */
 238:../../lib/lpc11cx4-library/lpc_chip_11cxx_lib/inc/clock_11xx.h **** #endif
 239:../../lib/lpc11cx4-library/lpc_chip_11cxx_lib/inc/clock_11xx.h **** 	SYSCTL_CLOCK_GPIO,					/*!< 6: GPIO clock */
 240:../../lib/lpc11cx4-library/lpc_chip_11cxx_lib/inc/clock_11xx.h **** 	SYSCTL_CLOCK_CT16B0,				/*!< 7: 16-bit Counter/timer 0 clock */
 241:../../lib/lpc11cx4-library/lpc_chip_11cxx_lib/inc/clock_11xx.h **** 	SYSCTL_CLOCK_CT16B1,				/*!< 8: 16-bit Counter/timer 1 clock */
 242:../../lib/lpc11cx4-library/lpc_chip_11cxx_lib/inc/clock_11xx.h **** 	SYSCTL_CLOCK_CT32B0,				/*!< 9: 32-bit Counter/timer 0 clock */
 243:../../lib/lpc11cx4-library/lpc_chip_11cxx_lib/inc/clock_11xx.h **** 	SYSCTL_CLOCK_CT32B1,				/*!< 10: 32-bit Counter/timer 1 clock */
 244:../../lib/lpc11cx4-library/lpc_chip_11cxx_lib/inc/clock_11xx.h **** 	SYSCTL_CLOCK_SSP0,					/*!< 11: SSP0 clock */
 245:../../lib/lpc11cx4-library/lpc_chip_11cxx_lib/inc/clock_11xx.h **** 	SYSCTL_CLOCK_UART0,					/*!< 12: UART0 clock */
 246:../../lib/lpc11cx4-library/lpc_chip_11cxx_lib/inc/clock_11xx.h **** 	SYSCTL_CLOCK_ADC,					/*!< 13: ADC clock */
 247:../../lib/lpc11cx4-library/lpc_chip_11cxx_lib/inc/clock_11xx.h **** #if defined(CHIP_LPC11UXX)
 248:../../lib/lpc11cx4-library/lpc_chip_11cxx_lib/inc/clock_11xx.h **** 	SYSCTL_CLOCK_USB,					/*!< 14: USB clock, LPC11Uxx only */
 249:../../lib/lpc11cx4-library/lpc_chip_11cxx_lib/inc/clock_11xx.h **** #else
 250:../../lib/lpc11cx4-library/lpc_chip_11cxx_lib/inc/clock_11xx.h **** 	SYSCTL_CLOCK_RESERVED14,			/*!< 14: Reserved */
 251:../../lib/lpc11cx4-library/lpc_chip_11cxx_lib/inc/clock_11xx.h **** #endif
 252:../../lib/lpc11cx4-library/lpc_chip_11cxx_lib/inc/clock_11xx.h **** 	SYSCTL_CLOCK_WDT,					/*!< 15: Watchdog timer clock */
 253:../../lib/lpc11cx4-library/lpc_chip_11cxx_lib/inc/clock_11xx.h **** 	SYSCTL_CLOCK_IOCON,					/*!< 16: IOCON block clock */
 254:../../lib/lpc11cx4-library/lpc_chip_11cxx_lib/inc/clock_11xx.h **** #if defined(CHIP_LPC11CXX)
 255:../../lib/lpc11cx4-library/lpc_chip_11cxx_lib/inc/clock_11xx.h **** 	SYSCTL_CLOCK_CAN,					/*!< 17: CAN clock, LPC11Cxx only */
 256:../../lib/lpc11cx4-library/lpc_chip_11cxx_lib/inc/clock_11xx.h **** #else
 257:../../lib/lpc11cx4-library/lpc_chip_11cxx_lib/inc/clock_11xx.h **** 	SYSCTL_CLOCK_RESERVED17,			/*!< 17: Reserved */
 258:../../lib/lpc11cx4-library/lpc_chip_11cxx_lib/inc/clock_11xx.h **** #endif
 259:../../lib/lpc11cx4-library/lpc_chip_11cxx_lib/inc/clock_11xx.h **** #if !(defined(CHIP_LPC110X) || defined(CHIP_LPC11XXLV))  
 260:../../lib/lpc11cx4-library/lpc_chip_11cxx_lib/inc/clock_11xx.h **** 	SYSCTL_CLOCK_SSP1,					/*!< 18: SSP1 clock, LPC11A/C/E/Uxx//1125 only */
 261:../../lib/lpc11cx4-library/lpc_chip_11cxx_lib/inc/clock_11xx.h **** #if !defined(CHIP_LPC11CXX)
 262:../../lib/lpc11cx4-library/lpc_chip_11cxx_lib/inc/clock_11xx.h **** 	SYSCTL_CLOCK_PINT,					/*!< 19: GPIO Pin int register interface clock, LPC11A/E/Uxx only */
 263:../../lib/lpc11cx4-library/lpc_chip_11cxx_lib/inc/clock_11xx.h **** #if defined(CHIP_LPC11AXX)
 264:../../lib/lpc11cx4-library/lpc_chip_11cxx_lib/inc/clock_11xx.h **** 	SYSCTL_CLOCK_ACOMP,					/*!< 20: Analog comparator clock, LPC11Axx only */
 265:../../lib/lpc11cx4-library/lpc_chip_11cxx_lib/inc/clock_11xx.h **** 	SYSCTL_CLOCK_DAC,					/*!< 21: DAC clock, LPC11Axx only */
ARM GAS  /var/folders/z0/6xlwn_996xz3mwq1cgzkbq4r0000gp/T//cc3Li5iv.s 			page 9


 266:../../lib/lpc11cx4-library/lpc_chip_11cxx_lib/inc/clock_11xx.h **** #else
 267:../../lib/lpc11cx4-library/lpc_chip_11cxx_lib/inc/clock_11xx.h **** 	SYSCTL_CLOCK_RESERVED20,			/*!< 20: Reserved */
 268:../../lib/lpc11cx4-library/lpc_chip_11cxx_lib/inc/clock_11xx.h **** 	SYSCTL_CLOCK_RESERVED21,			/*!< 21: Reserved */
 269:../../lib/lpc11cx4-library/lpc_chip_11cxx_lib/inc/clock_11xx.h **** #endif
 270:../../lib/lpc11cx4-library/lpc_chip_11cxx_lib/inc/clock_11xx.h **** 	SYSCTL_CLOCK_RESERVED22,			/*!< 22: Reserved */
 271:../../lib/lpc11cx4-library/lpc_chip_11cxx_lib/inc/clock_11xx.h **** 	SYSCTL_CLOCK_P0INT,					/*!< 23: GPIO GROUP1 interrupt register clock, LPC11Axx only */
 272:../../lib/lpc11cx4-library/lpc_chip_11cxx_lib/inc/clock_11xx.h **** 	SYSCTL_CLOCK_GROUP0INT = SYSCTL_CLOCK_P0INT,/*!< 23: GPIO GROUP0 interrupt register interface cloc
 273:../../lib/lpc11cx4-library/lpc_chip_11cxx_lib/inc/clock_11xx.h **** 	SYSCTL_CLOCK_P1INT,					/*!< 24: GPIO GROUP1 interrupt register clock, LPC11Axx only */
 274:../../lib/lpc11cx4-library/lpc_chip_11cxx_lib/inc/clock_11xx.h **** 	SYSCTL_CLOCK_GROUP1INT = SYSCTL_CLOCK_P1INT,/*!< 24: GPIO GROUP1 interrupt register interface cloc
 275:../../lib/lpc11cx4-library/lpc_chip_11cxx_lib/inc/clock_11xx.h **** 	SYSCTL_CLOCK_RESERVED25,			/*!< 25: Reserved */
 276:../../lib/lpc11cx4-library/lpc_chip_11cxx_lib/inc/clock_11xx.h **** #if defined(CHIP_LPC11EXX)  || defined(CHIP_LPC11UXX)
 277:../../lib/lpc11cx4-library/lpc_chip_11cxx_lib/inc/clock_11xx.h **** 	SYSCTL_CLOCK_RAM1,					/*!< 26: SRAM block (0x20000000) clock, LPC11E/Uxx only */
 278:../../lib/lpc11cx4-library/lpc_chip_11cxx_lib/inc/clock_11xx.h **** #else
 279:../../lib/lpc11cx4-library/lpc_chip_11cxx_lib/inc/clock_11xx.h **** 	SYSCTL_CLOCK_RESERVED26,			/*!< 26: Reserved */
 280:../../lib/lpc11cx4-library/lpc_chip_11cxx_lib/inc/clock_11xx.h **** #endif
 281:../../lib/lpc11cx4-library/lpc_chip_11cxx_lib/inc/clock_11xx.h **** #if defined(CHIP_LPC11UXX)
 282:../../lib/lpc11cx4-library/lpc_chip_11cxx_lib/inc/clock_11xx.h **** 	SYSCTL_CLOCK_USBRAM,				/*!< 27: USB SRAM block clock, LPC11Uxx only */
 283:../../lib/lpc11cx4-library/lpc_chip_11cxx_lib/inc/clock_11xx.h **** #else
 284:../../lib/lpc11cx4-library/lpc_chip_11cxx_lib/inc/clock_11xx.h **** 	SYSCTL_CLOCK_RESERVED27,			/*!< 27: Reserved */
 285:../../lib/lpc11cx4-library/lpc_chip_11cxx_lib/inc/clock_11xx.h **** #endif
 286:../../lib/lpc11cx4-library/lpc_chip_11cxx_lib/inc/clock_11xx.h **** #endif /* !defined(CHIP_LPC11CXX) */
 287:../../lib/lpc11cx4-library/lpc_chip_11cxx_lib/inc/clock_11xx.h **** #endif /* !(defined(CHIP_LPC110X) || defined(CHIP_LPC11XXLV)) */
 288:../../lib/lpc11cx4-library/lpc_chip_11cxx_lib/inc/clock_11xx.h **** } CHIP_SYSCTL_CLOCK_T;
 289:../../lib/lpc11cx4-library/lpc_chip_11cxx_lib/inc/clock_11xx.h **** 
 290:../../lib/lpc11cx4-library/lpc_chip_11cxx_lib/inc/clock_11xx.h **** /**
 291:../../lib/lpc11cx4-library/lpc_chip_11cxx_lib/inc/clock_11xx.h ****  * @brief	Enable a system or peripheral clock
 292:../../lib/lpc11cx4-library/lpc_chip_11cxx_lib/inc/clock_11xx.h ****  * @param	clk	: Clock to enable
 293:../../lib/lpc11cx4-library/lpc_chip_11cxx_lib/inc/clock_11xx.h ****  * @return	Nothing
 294:../../lib/lpc11cx4-library/lpc_chip_11cxx_lib/inc/clock_11xx.h ****  */
 295:../../lib/lpc11cx4-library/lpc_chip_11cxx_lib/inc/clock_11xx.h **** STATIC INLINE void Chip_Clock_EnablePeriphClock(CHIP_SYSCTL_CLOCK_T clk)
 296:../../lib/lpc11cx4-library/lpc_chip_11cxx_lib/inc/clock_11xx.h **** {
 297:../../lib/lpc11cx4-library/lpc_chip_11cxx_lib/inc/clock_11xx.h **** 	LPC_SYSCTL->SYSAHBCLKCTRL |= (1 << clk);
 117              		.loc 2 297 0
 118 0016 8022     		movs	r2, #128	@ tmp118,
 119 0018 0949     		ldr	r1, .L8+12	@ tmp117,
 120              	.LBE14:
 121              	.LBE13:
  73:../../lib/lpc11cx4-library/lpc_chip_11cxx_lib/src/timer_11xx.c **** 	Chip_Clock_EnablePeriphClock(Chip_TIMER_GetClock(pTMR));
  74:../../lib/lpc11cx4-library/lpc_chip_11cxx_lib/src/timer_11xx.c **** }
 122              		.loc 1 74 0
 123              		@ sp needed	@
 124              	.LBB16:
 125              	.LBB15:
 126              		.loc 2 297 0
 127 001a 8858     		ldr	r0, [r1, r2]	@ D.6240, MEM[(struct LPC_SYSCTL_T *)1074036736B].SYSAHBCLKCTRL
 128              	.LVL2:
 129 001c 0343     		orrs	r3, r0	@ D.6240, D.6240
 130 001e 8B50     		str	r3, [r1, r2]	@ D.6240, MEM[(struct LPC_SYSCTL_T *)1074036736B].SYSAHBCLKCTRL
 131              	.LBE15:
 132              	.LBE16:
 133              		.loc 1 74 0
 134 0020 7047     		bx	lr
 135              	.LVL3:
 136              	.L3:
 137              	.LBB17:
 138              	.LBB12:
  50:../../lib/lpc11cx4-library/lpc_chip_11cxx_lib/src/timer_11xx.c **** 	  tmrClk = SYSCTL_CLOCK_CT32B1;
ARM GAS  /var/folders/z0/6xlwn_996xz3mwq1cgzkbq4r0000gp/T//cc3Li5iv.s 			page 10


 139              		.loc 1 50 0
 140 0022 8023     		movs	r3, #128	@ D.6240,
 141 0024 DB00     		lsls	r3, r3, #3	@ D.6240, D.6240,
 142 0026 F6E7     		b	.L2	@
 143              	.L4:
  53:../../lib/lpc11cx4-library/lpc_chip_11cxx_lib/src/timer_11xx.c **** 	  tmrClk = SYSCTL_CLOCK_CT16B0;
 144              		.loc 1 53 0
 145 0028 8023     		movs	r3, #128	@ D.6240,
 146 002a F4E7     		b	.L2	@
 147              	.L7:
  56:../../lib/lpc11cx4-library/lpc_chip_11cxx_lib/src/timer_11xx.c **** 	  tmrClk = SYSCTL_CLOCK_CT16B1;
 148              		.loc 1 56 0
 149 002c 013B     		subs	r3, r3, #1	@ D.6240,
 150 002e FF3B     		subs	r3, r3, #255	@ D.6240,
 151 0030 F1E7     		b	.L2	@
 152              	.L9:
 153 0032 C046     		.align	2
 154              	.L8:
 155 0034 00800140 		.word	1073840128
 156 0038 00C00040 		.word	1073790976
 157 003c 00000140 		.word	1073807360
 158 0040 00800440 		.word	1074036736
 159              	.LBE12:
 160              	.LBE17:
 161              		.cfi_endproc
 162              	.LFE199:
 163              		.size	Chip_TIMER_Init, .-Chip_TIMER_Init
 164              		.section	.text.Chip_TIMER_DeInit,"ax",%progbits
 165              		.align	2
 166              		.global	Chip_TIMER_DeInit
 167              		.code	16
 168              		.thumb_func
 169              		.type	Chip_TIMER_DeInit, %function
 170              	Chip_TIMER_DeInit:
 171              	.LFB200:
  75:../../lib/lpc11cx4-library/lpc_chip_11cxx_lib/src/timer_11xx.c **** 
  76:../../lib/lpc11cx4-library/lpc_chip_11cxx_lib/src/timer_11xx.c **** /*	Shutdown a timer */
  77:../../lib/lpc11cx4-library/lpc_chip_11cxx_lib/src/timer_11xx.c **** void Chip_TIMER_DeInit(LPC_TIMER_T *pTMR)
  78:../../lib/lpc11cx4-library/lpc_chip_11cxx_lib/src/timer_11xx.c **** {
 172              		.loc 1 78 0
 173              		.cfi_startproc
 174              		@ args = 0, pretend = 0, frame = 0
 175              		@ frame_needed = 0, uses_anonymous_args = 0
 176              		@ link register save eliminated.
 177              	.LVL4:
 178              	.LBB18:
 179              	.LBB19:
  50:../../lib/lpc11cx4-library/lpc_chip_11cxx_lib/src/timer_11xx.c **** 	  tmrClk = SYSCTL_CLOCK_CT32B1;
 180              		.loc 1 50 0
 181 0000 0B4B     		ldr	r3, .L16	@ tmp114,
 182 0002 9842     		cmp	r0, r3	@ pTMR, tmp114
 183 0004 0CD0     		beq	.L12	@,
  53:../../lib/lpc11cx4-library/lpc_chip_11cxx_lib/src/timer_11xx.c **** 	  tmrClk = SYSCTL_CLOCK_CT16B0;
 184              		.loc 1 53 0
 185 0006 0B4B     		ldr	r3, .L16+4	@ tmp115,
 186 0008 9842     		cmp	r0, r3	@ pTMR, tmp115
 187 000a 0BD0     		beq	.L13	@,
ARM GAS  /var/folders/z0/6xlwn_996xz3mwq1cgzkbq4r0000gp/T//cc3Li5iv.s 			page 11


  56:../../lib/lpc11cx4-library/lpc_chip_11cxx_lib/src/timer_11xx.c **** 	  tmrClk = SYSCTL_CLOCK_CT16B1;
 188              		.loc 1 56 0
 189 000c 0A4B     		ldr	r3, .L16+8	@ tmp116,
 190 000e 9842     		cmp	r0, r3	@ pTMR, tmp116
 191 0010 0BD0     		beq	.L15	@,
 192 0012 0A48     		ldr	r0, .L16+12	@ D.6243,
 193              	.LVL5:
 194              	.L11:
 195              	.LBE19:
 196              	.LBE18:
 197              	.LBB21:
 198              	.LBB22:
 298:../../lib/lpc11cx4-library/lpc_chip_11cxx_lib/inc/clock_11xx.h **** }
 299:../../lib/lpc11cx4-library/lpc_chip_11cxx_lib/inc/clock_11xx.h **** 
 300:../../lib/lpc11cx4-library/lpc_chip_11cxx_lib/inc/clock_11xx.h **** /**
 301:../../lib/lpc11cx4-library/lpc_chip_11cxx_lib/inc/clock_11xx.h ****  * @brief	Disable a system or peripheral clock
 302:../../lib/lpc11cx4-library/lpc_chip_11cxx_lib/inc/clock_11xx.h ****  * @param	clk	: Clock to disable
 303:../../lib/lpc11cx4-library/lpc_chip_11cxx_lib/inc/clock_11xx.h ****  * @return	Nothing
 304:../../lib/lpc11cx4-library/lpc_chip_11cxx_lib/inc/clock_11xx.h ****  */
 305:../../lib/lpc11cx4-library/lpc_chip_11cxx_lib/inc/clock_11xx.h **** STATIC INLINE void Chip_Clock_DisablePeriphClock(CHIP_SYSCTL_CLOCK_T clk)
 306:../../lib/lpc11cx4-library/lpc_chip_11cxx_lib/inc/clock_11xx.h **** {
 307:../../lib/lpc11cx4-library/lpc_chip_11cxx_lib/inc/clock_11xx.h **** 	LPC_SYSCTL->SYSAHBCLKCTRL &= ~(1 << clk);
 199              		.loc 2 307 0
 200 0014 8022     		movs	r2, #128	@ tmp118,
 201 0016 0A49     		ldr	r1, .L16+16	@ tmp117,
 202              	.LBE22:
 203              	.LBE21:
  79:../../lib/lpc11cx4-library/lpc_chip_11cxx_lib/src/timer_11xx.c **** 	Chip_Clock_DisablePeriphClock(Chip_TIMER_GetClock(pTMR));
  80:../../lib/lpc11cx4-library/lpc_chip_11cxx_lib/src/timer_11xx.c **** }
 204              		.loc 1 80 0
 205              		@ sp needed	@
 206              	.LBB24:
 207              	.LBB23:
 208              		.loc 2 307 0
 209 0018 8B58     		ldr	r3, [r1, r2]	@ D.6243, MEM[(struct LPC_SYSCTL_T *)1074036736B].SYSAHBCLKCTRL
 210 001a 0340     		ands	r3, r0	@ D.6243, D.6243
 211 001c 8B50     		str	r3, [r1, r2]	@ D.6243, MEM[(struct LPC_SYSCTL_T *)1074036736B].SYSAHBCLKCTRL
 212              	.LBE23:
 213              	.LBE24:
 214              		.loc 1 80 0
 215 001e 7047     		bx	lr
 216              	.LVL6:
 217              	.L12:
 218              	.LBB25:
 219              	.LBB20:
  50:../../lib/lpc11cx4-library/lpc_chip_11cxx_lib/src/timer_11xx.c **** 	  tmrClk = SYSCTL_CLOCK_CT32B1;
 220              		.loc 1 50 0
 221 0020 0848     		ldr	r0, .L16+20	@ D.6243,
 222              	.LVL7:
 223 0022 F7E7     		b	.L11	@
 224              	.LVL8:
 225              	.L13:
  53:../../lib/lpc11cx4-library/lpc_chip_11cxx_lib/src/timer_11xx.c **** 	  tmrClk = SYSCTL_CLOCK_CT16B0;
 226              		.loc 1 53 0
 227 0024 8120     		movs	r0, #129	@ D.6243,
 228              	.LVL9:
 229 0026 4042     		rsbs	r0, r0, #0	@ D.6243, D.6243
ARM GAS  /var/folders/z0/6xlwn_996xz3mwq1cgzkbq4r0000gp/T//cc3Li5iv.s 			page 12


 230 0028 F4E7     		b	.L11	@
 231              	.LVL10:
 232              	.L15:
  56:../../lib/lpc11cx4-library/lpc_chip_11cxx_lib/src/timer_11xx.c **** 	  tmrClk = SYSCTL_CLOCK_CT16B1;
 233              		.loc 1 56 0
 234 002a 0748     		ldr	r0, .L16+24	@ D.6243,
 235              	.LVL11:
 236 002c F2E7     		b	.L11	@
 237              	.L17:
 238 002e C046     		.align	2
 239              	.L16:
 240 0030 00800140 		.word	1073840128
 241 0034 00C00040 		.word	1073790976
 242 0038 00000140 		.word	1073807360
 243 003c FFFDFFFF 		.word	-513
 244 0040 00800440 		.word	1074036736
 245 0044 FFFBFFFF 		.word	-1025
 246 0048 FFFEFFFF 		.word	-257
 247              	.LBE20:
 248              	.LBE25:
 249              		.cfi_endproc
 250              	.LFE200:
 251              		.size	Chip_TIMER_DeInit, .-Chip_TIMER_DeInit
 252              		.section	.text.Chip_TIMER_Reset,"ax",%progbits
 253              		.align	2
 254              		.global	Chip_TIMER_Reset
 255              		.code	16
 256              		.thumb_func
 257              		.type	Chip_TIMER_Reset, %function
 258              	Chip_TIMER_Reset:
 259              	.LFB201:
  81:../../lib/lpc11cx4-library/lpc_chip_11cxx_lib/src/timer_11xx.c **** 
  82:../../lib/lpc11cx4-library/lpc_chip_11cxx_lib/src/timer_11xx.c **** /* Resets the timer terminal and prescale counts to 0 */
  83:../../lib/lpc11cx4-library/lpc_chip_11cxx_lib/src/timer_11xx.c **** void Chip_TIMER_Reset(LPC_TIMER_T *pTMR)
  84:../../lib/lpc11cx4-library/lpc_chip_11cxx_lib/src/timer_11xx.c **** {
 260              		.loc 1 84 0
 261              		.cfi_startproc
 262              		@ args = 0, pretend = 0, frame = 0
 263              		@ frame_needed = 0, uses_anonymous_args = 0
 264              		@ link register save eliminated.
 265              	.LVL12:
  85:../../lib/lpc11cx4-library/lpc_chip_11cxx_lib/src/timer_11xx.c **** 	uint32_t reg;
  86:../../lib/lpc11cx4-library/lpc_chip_11cxx_lib/src/timer_11xx.c **** 
  87:../../lib/lpc11cx4-library/lpc_chip_11cxx_lib/src/timer_11xx.c **** 	/* Disable timer, set terminal count to non-0 */
  88:../../lib/lpc11cx4-library/lpc_chip_11cxx_lib/src/timer_11xx.c **** 	reg = pTMR->TCR;
  89:../../lib/lpc11cx4-library/lpc_chip_11cxx_lib/src/timer_11xx.c **** 	pTMR->TCR = 0;
 266              		.loc 1 89 0
 267 0000 0023     		movs	r3, #0	@ tmp113,
  88:../../lib/lpc11cx4-library/lpc_chip_11cxx_lib/src/timer_11xx.c **** 	pTMR->TCR = 0;
 268              		.loc 1 88 0
 269 0002 4268     		ldr	r2, [r0, #4]	@ reg, pTMR_2(D)->TCR
 270              	.LVL13:
 271              		.loc 1 89 0
 272 0004 4360     		str	r3, [r0, #4]	@ tmp113, pTMR_2(D)->TCR
  90:../../lib/lpc11cx4-library/lpc_chip_11cxx_lib/src/timer_11xx.c **** 	pTMR->TC = 1;
 273              		.loc 1 90 0
 274 0006 0133     		adds	r3, r3, #1	@ tmp114,
ARM GAS  /var/folders/z0/6xlwn_996xz3mwq1cgzkbq4r0000gp/T//cc3Li5iv.s 			page 13


 275 0008 8360     		str	r3, [r0, #8]	@ tmp114, pTMR_2(D)->TC
  91:../../lib/lpc11cx4-library/lpc_chip_11cxx_lib/src/timer_11xx.c **** 
  92:../../lib/lpc11cx4-library/lpc_chip_11cxx_lib/src/timer_11xx.c **** 	/* Reset timer counter */
  93:../../lib/lpc11cx4-library/lpc_chip_11cxx_lib/src/timer_11xx.c **** 	pTMR->TCR = TIMER_RESET;
 276              		.loc 1 93 0
 277 000a 0133     		adds	r3, r3, #1	@ tmp115,
 278 000c 4360     		str	r3, [r0, #4]	@ tmp115, pTMR_2(D)->TCR
 279              	.L19:
  94:../../lib/lpc11cx4-library/lpc_chip_11cxx_lib/src/timer_11xx.c **** 
  95:../../lib/lpc11cx4-library/lpc_chip_11cxx_lib/src/timer_11xx.c **** 	/* Wait for terminal count to clear */
  96:../../lib/lpc11cx4-library/lpc_chip_11cxx_lib/src/timer_11xx.c **** 	while (pTMR->TC != 0) {}
 280              		.loc 1 96 0 discriminator 1
 281 000e 8368     		ldr	r3, [r0, #8]	@ D.6246, pTMR_2(D)->TC
 282 0010 002B     		cmp	r3, #0	@ D.6246,
 283 0012 FCD1     		bne	.L19	@,
  97:../../lib/lpc11cx4-library/lpc_chip_11cxx_lib/src/timer_11xx.c **** 
  98:../../lib/lpc11cx4-library/lpc_chip_11cxx_lib/src/timer_11xx.c **** 	/* Restore timer state */
  99:../../lib/lpc11cx4-library/lpc_chip_11cxx_lib/src/timer_11xx.c **** 	pTMR->TCR = reg;
 284              		.loc 1 99 0
 285 0014 4260     		str	r2, [r0, #4]	@ reg, pTMR_2(D)->TCR
 100:../../lib/lpc11cx4-library/lpc_chip_11cxx_lib/src/timer_11xx.c **** }
 286              		.loc 1 100 0
 287              		@ sp needed	@
 288 0016 7047     		bx	lr
 289              		.cfi_endproc
 290              	.LFE201:
 291              		.size	Chip_TIMER_Reset, .-Chip_TIMER_Reset
 292              		.section	.text.Chip_TIMER_ExtMatchControlSet,"ax",%progbits
 293              		.align	2
 294              		.global	Chip_TIMER_ExtMatchControlSet
 295              		.code	16
 296              		.thumb_func
 297              		.type	Chip_TIMER_ExtMatchControlSet, %function
 298              	Chip_TIMER_ExtMatchControlSet:
 299              	.LFB202:
 101:../../lib/lpc11cx4-library/lpc_chip_11cxx_lib/src/timer_11xx.c **** 
 102:../../lib/lpc11cx4-library/lpc_chip_11cxx_lib/src/timer_11xx.c **** /* Sets external match control (MATn.matchnum) pin control */
 103:../../lib/lpc11cx4-library/lpc_chip_11cxx_lib/src/timer_11xx.c **** void Chip_TIMER_ExtMatchControlSet(LPC_TIMER_T *pTMR, int8_t initial_state,
 104:../../lib/lpc11cx4-library/lpc_chip_11cxx_lib/src/timer_11xx.c **** 								   TIMER_PIN_MATCH_STATE_T matchState, int8_t matchnum)
 105:../../lib/lpc11cx4-library/lpc_chip_11cxx_lib/src/timer_11xx.c **** {
 300              		.loc 1 105 0
 301              		.cfi_startproc
 302              		@ args = 0, pretend = 0, frame = 0
 303              		@ frame_needed = 0, uses_anonymous_args = 0
 304              	.LVL14:
 305 0000 F0B5     		push	{r4, r5, r6, r7, lr}	@
 306              		.cfi_def_cfa_offset 20
 307              		.cfi_offset 4, -20
 308              		.cfi_offset 5, -16
 309              		.cfi_offset 6, -12
 310              		.cfi_offset 7, -8
 311              		.cfi_offset 14, -4
 106:../../lib/lpc11cx4-library/lpc_chip_11cxx_lib/src/timer_11xx.c **** 	uint32_t mask, reg;
 107:../../lib/lpc11cx4-library/lpc_chip_11cxx_lib/src/timer_11xx.c **** 
 108:../../lib/lpc11cx4-library/lpc_chip_11cxx_lib/src/timer_11xx.c **** 	/* Clear bits corresponding to selected match register */
 109:../../lib/lpc11cx4-library/lpc_chip_11cxx_lib/src/timer_11xx.c **** 	mask = (1 << matchnum) | (0x03 << (4 + (matchnum * 2)));
 110:../../lib/lpc11cx4-library/lpc_chip_11cxx_lib/src/timer_11xx.c **** 	reg = pTMR->EMR &= ~mask;
ARM GAS  /var/folders/z0/6xlwn_996xz3mwq1cgzkbq4r0000gp/T//cc3Li5iv.s 			page 14


 312              		.loc 1 110 0
 313 0002 0125     		movs	r5, #1	@ tmp132,
 314 0004 9D40     		lsls	r5, r5, r3	@ tmp132, tmp132, matchnum
 315 0006 2F00     		movs	r7, r5	@ D.6249, tmp132
 316 0008 0325     		movs	r5, #3	@ tmp134,
 109:../../lib/lpc11cx4-library/lpc_chip_11cxx_lib/src/timer_11xx.c **** 	reg = pTMR->EMR &= ~mask;
 317              		.loc 1 109 0
 318 000a 9E1C     		adds	r6, r3, #2	@ D.6249, matchnum,
 319 000c 7600     		lsls	r6, r6, #1	@ D.6249, D.6249,
 320              	.LVL15:
 321              		.loc 1 110 0
 322 000e B540     		lsls	r5, r5, r6	@ D.6249, tmp134, D.6249
 111:../../lib/lpc11cx4-library/lpc_chip_11cxx_lib/src/timer_11xx.c **** 
 112:../../lib/lpc11cx4-library/lpc_chip_11cxx_lib/src/timer_11xx.c **** 	/* Set new configuration for selected match register */
 113:../../lib/lpc11cx4-library/lpc_chip_11cxx_lib/src/timer_11xx.c **** 	pTMR->EMR = reg | (((uint32_t) initial_state) << matchnum) |
 323              		.loc 1 113 0
 324 0010 B240     		lsls	r2, r2, r6	@ D.6250, matchState, D.6249
 325              	.LVL16:
 326 0012 9940     		lsls	r1, r1, r3	@ D.6250, initial_state, matchnum
 327              	.LVL17:
 110:../../lib/lpc11cx4-library/lpc_chip_11cxx_lib/src/timer_11xx.c **** 
 328              		.loc 1 110 0
 329 0014 C46B     		ldr	r4, [r0, #60]	@ D.6250, pTMR_10(D)->EMR
 330 0016 3D43     		orrs	r5, r7	@ D.6249, D.6249
 331              	.LVL18:
 332 0018 AC43     		bics	r4, r5	@ D.6250, D.6249
 333              		.loc 1 113 0
 334 001a 0A43     		orrs	r2, r1	@ D.6250, D.6250
 110:../../lib/lpc11cx4-library/lpc_chip_11cxx_lib/src/timer_11xx.c **** 
 335              		.loc 1 110 0
 336 001c C463     		str	r4, [r0, #60]	@ D.6250, pTMR_10(D)->EMR
 337              	.LVL19:
 338              		.loc 1 113 0
 339 001e 1443     		orrs	r4, r2	@ D.6250, D.6250
 340              	.LVL20:
 341 0020 C463     		str	r4, [r0, #60]	@ D.6250, pTMR_10(D)->EMR
 342              	.LVL21:
 114:../../lib/lpc11cx4-library/lpc_chip_11cxx_lib/src/timer_11xx.c **** 				(((uint32_t) matchState) << (4 + (matchnum * 2)));
 115:../../lib/lpc11cx4-library/lpc_chip_11cxx_lib/src/timer_11xx.c **** }
 343              		.loc 1 115 0
 344              		@ sp needed	@
 345              	.LVL22:
 346              	.LVL23:
 347 0022 F0BD     		pop	{r4, r5, r6, r7, pc}
 348              		.cfi_endproc
 349              	.LFE202:
 350              		.size	Chip_TIMER_ExtMatchControlSet, .-Chip_TIMER_ExtMatchControlSet
 351              		.text
 352              	.Letext0:
 353              		.file 3 "/usr/local/Cellar/gcc-arm-none-eabi/20160928/arm-none-eabi/include/machine/_default_types
 354              		.file 4 "/usr/local/Cellar/gcc-arm-none-eabi/20160928/arm-none-eabi/include/sys/_stdint.h"
 355              		.file 5 "../../lib/lpc11cx4-library/lpc_chip_11cxx_lib/inc/sysctl_11xx.h"
 356              		.file 6 "../../lib/lpc11cx4-library/lpc_chip_11cxx_lib/inc/timer_11xx.h"
 357              		.file 7 "../../lib/lpc11cx4-library/lpc_chip_11cxx_lib/inc/chip.h"