ARM GAS  /var/folders/z0/6xlwn_996xz3mwq1cgzkbq4r0000gp/T//cckgJHwF.s 			page 1


   1              		.syntax unified
   2              		.cpu cortex-m0
   3              		.fpu softvfp
   4              		.eabi_attribute 20, 1	@ Tag_ABI_FP_denormal
   5              		.eabi_attribute 21, 1	@ Tag_ABI_FP_exceptions
   6              		.eabi_attribute 23, 3	@ Tag_ABI_FP_number_model
   7              		.eabi_attribute 24, 1	@ Tag_ABI_align8_needed
   8              		.eabi_attribute 25, 1	@ Tag_ABI_align8_preserved
   9              		.eabi_attribute 26, 1	@ Tag_ABI_enum_size
  10              		.eabi_attribute 30, 2	@ Tag_ABI_optimization_goals
  11              		.eabi_attribute 34, 0	@ Tag_CPU_unaligned_access
  12              		.eabi_attribute 18, 4	@ Tag_ABI_PCS_wchar_t
  13              		.file	"uart_11xx.c"
  14              	@ GNU C89 (GNU Tools for ARM Embedded Processors) version 5.4.1 20160919 (release) [ARM/embedded-5-
  15              	@	compiled by GNU C version 4.2.1 (Based on Apple Inc. build 5658) (LLVM build 2336.9.00), GMP vers
  16              	@ GGC heuristics: --param ggc-min-expand=100 --param ggc-min-heapsize=131072
  17              	@ options passed:  -I . -I inc/
  18              	@ -I ../../lib/lpc11cx4-library/lpc_chip_11cxx_lib/inc
  19              	@ -I ../../lib/lpc11cx4-library/evt_lib/inc/ -I ../../lib/CANlib
  20              	@ -imultilib armv6-m
  21              	@ -iprefix /usr/local/Cellar/gcc-arm-none-eabi/20160928/bin/../lib/gcc/arm-none-eabi/5.4.1/
  22              	@ -isysroot /usr/local/Cellar/gcc-arm-none-eabi/20160928/bin/../arm-none-eabi
  23              	@ -MD bin/uart_11xx.d -MF bin/uart_11xx.d -MP -MQ bin/uart_11xx.o
  24              	@ -D__USES_INITFINI__ -D UART_BAUD=57600 -D CORE_M0 -D DEBUG_ENABLE
  25              	@ -D FSAE_DRIVERS -D CAN_ARCHITECTURE_ARM
  26              	@ ../../lib/lpc11cx4-library/lpc_chip_11cxx_lib/src/uart_11xx.c
  27              	@ -mcpu=cortex-m0 -mthumb -auxbase-strip bin/uart_11xx.o -g -ggdb3 -O2
  28              	@ -Wall -Wstrict-prototypes -Wextra -std=gnu90 -ffunction-sections
  29              	@ -fdata-sections -fdiagnostics-color=always -fverbose-asm
  30              	@ options enabled:  -faggressive-loop-optimizations -falign-functions
  31              	@ -falign-jumps -falign-labels -falign-loops -fauto-inc-dec
  32              	@ -fbranch-count-reg -fcaller-saves -fchkp-check-incomplete-type
  33              	@ -fchkp-check-read -fchkp-check-write -fchkp-instrument-calls
  34              	@ -fchkp-narrow-bounds -fchkp-optimize -fchkp-store-bounds
  35              	@ -fchkp-use-static-bounds -fchkp-use-static-const-bounds
  36              	@ -fchkp-use-wrappers -fcombine-stack-adjustments -fcommon -fcompare-elim
  37              	@ -fcprop-registers -fcrossjumping -fcse-follow-jumps -fdata-sections
  38              	@ -fdefer-pop -fdelete-null-pointer-checks -fdevirtualize
  39              	@ -fdevirtualize-speculatively -fdwarf2-cfi-asm -fearly-inlining
  40              	@ -feliminate-unused-debug-types -fexpensive-optimizations
  41              	@ -fforward-propagate -ffunction-cse -ffunction-sections -fgcse -fgcse-lm
  42              	@ -fgnu-runtime -fgnu-unique -fguess-branch-probability
  43              	@ -fhoist-adjacent-loads -fident -fif-conversion -fif-conversion2
  44              	@ -findirect-inlining -finline -finline-atomics
  45              	@ -finline-functions-called-once -finline-small-functions -fipa-cp
  46              	@ -fipa-cp-alignment -fipa-icf -fipa-icf-functions -fipa-icf-variables
  47              	@ -fipa-profile -fipa-pure-const -fipa-reference -fipa-sra
  48              	@ -fira-hoist-pressure -fira-share-save-slots -fira-share-spill-slots
  49              	@ -fisolate-erroneous-paths-dereference -fivopts -fkeep-static-consts
  50              	@ -fleading-underscore -flifetime-dse -flra-remat -flto-odr-type-merging
  51              	@ -fmath-errno -fmerge-constants -fmerge-debug-strings
  52              	@ -fmove-loop-invariants -fomit-frame-pointer -foptimize-sibling-calls
  53              	@ -foptimize-strlen -fpartial-inlining -fpeephole -fpeephole2
  54              	@ -fprefetch-loop-arrays -freg-struct-return -freorder-blocks
  55              	@ -freorder-functions -frerun-cse-after-loop
  56              	@ -fsched-critical-path-heuristic -fsched-dep-count-heuristic
  57              	@ -fsched-group-heuristic -fsched-interblock -fsched-last-insn-heuristic
ARM GAS  /var/folders/z0/6xlwn_996xz3mwq1cgzkbq4r0000gp/T//cckgJHwF.s 			page 2


  58              	@ -fsched-pressure -fsched-rank-heuristic -fsched-spec
  59              	@ -fsched-spec-insn-heuristic -fsched-stalled-insns-dep -fschedule-insns2
  60              	@ -fsection-anchors -fsemantic-interposition -fshow-column -fshrink-wrap
  61              	@ -fsigned-zeros -fsplit-ivs-in-unroller -fsplit-wide-types -fssa-phiopt
  62              	@ -fstdarg-opt -fstrict-aliasing -fstrict-overflow
  63              	@ -fstrict-volatile-bitfields -fsync-libcalls -fthread-jumps
  64              	@ -ftoplevel-reorder -ftrapping-math -ftree-bit-ccp -ftree-builtin-call-dce
  65              	@ -ftree-ccp -ftree-ch -ftree-coalesce-vars -ftree-copy-prop
  66              	@ -ftree-copyrename -ftree-cselim -ftree-dce -ftree-dominator-opts
  67              	@ -ftree-dse -ftree-forwprop -ftree-fre -ftree-loop-if-convert
  68              	@ -ftree-loop-im -ftree-loop-ivcanon -ftree-loop-optimize
  69              	@ -ftree-parallelize-loops= -ftree-phiprop -ftree-pre -ftree-pta
  70              	@ -ftree-reassoc -ftree-scev-cprop -ftree-sink -ftree-slsr -ftree-sra
  71              	@ -ftree-switch-conversion -ftree-tail-merge -ftree-ter -ftree-vrp
  72              	@ -funit-at-a-time -fvar-tracking -fvar-tracking-assignments -fverbose-asm
  73              	@ -fzero-initialized-in-bss -mlittle-endian -mpic-data-is-text-relative
  74              	@ -msched-prolog -mthumb -mvectorize-with-neon-quad
  75              	
  76              		.text
  77              	.Ltext0:
  78              		.cfi_sections	.debug_frame
  79              		.section	.text.Chip_UART_Init,"ax",%progbits
  80              		.align	2
  81              		.global	Chip_UART_Init
  82              		.code	16
  83              		.thumb_func
  84              		.type	Chip_UART_Init, %function
  85              	Chip_UART_Init:
  86              	.LFB198:
  87              		.file 1 "../../lib/lpc11cx4-library/lpc_chip_11cxx_lib/src/uart_11xx.c"
   1:../../lib/lpc11cx4-library/lpc_chip_11cxx_lib/src/uart_11xx.c **** /*
   2:../../lib/lpc11cx4-library/lpc_chip_11cxx_lib/src/uart_11xx.c ****  * @brief LPC11xx UART chip driver
   3:../../lib/lpc11cx4-library/lpc_chip_11cxx_lib/src/uart_11xx.c ****  *
   4:../../lib/lpc11cx4-library/lpc_chip_11cxx_lib/src/uart_11xx.c ****  * @note
   5:../../lib/lpc11cx4-library/lpc_chip_11cxx_lib/src/uart_11xx.c ****  * Copyright(C) NXP Semiconductors, 2012
   6:../../lib/lpc11cx4-library/lpc_chip_11cxx_lib/src/uart_11xx.c ****  * All rights reserved.
   7:../../lib/lpc11cx4-library/lpc_chip_11cxx_lib/src/uart_11xx.c ****  *
   8:../../lib/lpc11cx4-library/lpc_chip_11cxx_lib/src/uart_11xx.c ****  * @par
   9:../../lib/lpc11cx4-library/lpc_chip_11cxx_lib/src/uart_11xx.c ****  * Software that is described herein is for illustrative purposes only
  10:../../lib/lpc11cx4-library/lpc_chip_11cxx_lib/src/uart_11xx.c ****  * which provides customers with programming information regarding the
  11:../../lib/lpc11cx4-library/lpc_chip_11cxx_lib/src/uart_11xx.c ****  * LPC products.  This software is supplied "AS IS" without any warranties of
  12:../../lib/lpc11cx4-library/lpc_chip_11cxx_lib/src/uart_11xx.c ****  * any kind, and NXP Semiconductors and its licensor disclaim any and
  13:../../lib/lpc11cx4-library/lpc_chip_11cxx_lib/src/uart_11xx.c ****  * all warranties, express or implied, including all implied warranties of
  14:../../lib/lpc11cx4-library/lpc_chip_11cxx_lib/src/uart_11xx.c ****  * merchantability, fitness for a particular purpose and non-infringement of
  15:../../lib/lpc11cx4-library/lpc_chip_11cxx_lib/src/uart_11xx.c ****  * intellectual property rights.  NXP Semiconductors assumes no responsibility
  16:../../lib/lpc11cx4-library/lpc_chip_11cxx_lib/src/uart_11xx.c ****  * or liability for the use of the software, conveys no license or rights under any
  17:../../lib/lpc11cx4-library/lpc_chip_11cxx_lib/src/uart_11xx.c ****  * patent, copyright, mask work right, or any other intellectual property rights in
  18:../../lib/lpc11cx4-library/lpc_chip_11cxx_lib/src/uart_11xx.c ****  * or to any products. NXP Semiconductors reserves the right to make changes
  19:../../lib/lpc11cx4-library/lpc_chip_11cxx_lib/src/uart_11xx.c ****  * in the software without notification. NXP Semiconductors also makes no
  20:../../lib/lpc11cx4-library/lpc_chip_11cxx_lib/src/uart_11xx.c ****  * representation or warranty that such application will be suitable for the
  21:../../lib/lpc11cx4-library/lpc_chip_11cxx_lib/src/uart_11xx.c ****  * specified use without further testing or modification.
  22:../../lib/lpc11cx4-library/lpc_chip_11cxx_lib/src/uart_11xx.c ****  *
  23:../../lib/lpc11cx4-library/lpc_chip_11cxx_lib/src/uart_11xx.c ****  * @par
  24:../../lib/lpc11cx4-library/lpc_chip_11cxx_lib/src/uart_11xx.c ****  * Permission to use, copy, modify, and distribute this software and its
  25:../../lib/lpc11cx4-library/lpc_chip_11cxx_lib/src/uart_11xx.c ****  * documentation is hereby granted, under NXP Semiconductors' and its
  26:../../lib/lpc11cx4-library/lpc_chip_11cxx_lib/src/uart_11xx.c ****  * licensor's relevant copyrights in the software, without fee, provided that it
  27:../../lib/lpc11cx4-library/lpc_chip_11cxx_lib/src/uart_11xx.c ****  * is used in conjunction with NXP Semiconductors microcontrollers.  This
ARM GAS  /var/folders/z0/6xlwn_996xz3mwq1cgzkbq4r0000gp/T//cckgJHwF.s 			page 3


  28:../../lib/lpc11cx4-library/lpc_chip_11cxx_lib/src/uart_11xx.c ****  * copyright, permission, and disclaimer notice must appear in all copies of
  29:../../lib/lpc11cx4-library/lpc_chip_11cxx_lib/src/uart_11xx.c ****  * this code.
  30:../../lib/lpc11cx4-library/lpc_chip_11cxx_lib/src/uart_11xx.c ****  */
  31:../../lib/lpc11cx4-library/lpc_chip_11cxx_lib/src/uart_11xx.c **** 
  32:../../lib/lpc11cx4-library/lpc_chip_11cxx_lib/src/uart_11xx.c **** #include "chip.h"
  33:../../lib/lpc11cx4-library/lpc_chip_11cxx_lib/src/uart_11xx.c **** 
  34:../../lib/lpc11cx4-library/lpc_chip_11cxx_lib/src/uart_11xx.c **** /*****************************************************************************
  35:../../lib/lpc11cx4-library/lpc_chip_11cxx_lib/src/uart_11xx.c ****  * Private types/enumerations/variables
  36:../../lib/lpc11cx4-library/lpc_chip_11cxx_lib/src/uart_11xx.c ****  ****************************************************************************/
  37:../../lib/lpc11cx4-library/lpc_chip_11cxx_lib/src/uart_11xx.c **** 
  38:../../lib/lpc11cx4-library/lpc_chip_11cxx_lib/src/uart_11xx.c **** /*****************************************************************************
  39:../../lib/lpc11cx4-library/lpc_chip_11cxx_lib/src/uart_11xx.c ****  * Public types/enumerations/variables
  40:../../lib/lpc11cx4-library/lpc_chip_11cxx_lib/src/uart_11xx.c ****  ****************************************************************************/
  41:../../lib/lpc11cx4-library/lpc_chip_11cxx_lib/src/uart_11xx.c **** 
  42:../../lib/lpc11cx4-library/lpc_chip_11cxx_lib/src/uart_11xx.c **** /*****************************************************************************
  43:../../lib/lpc11cx4-library/lpc_chip_11cxx_lib/src/uart_11xx.c ****  * Private functions
  44:../../lib/lpc11cx4-library/lpc_chip_11cxx_lib/src/uart_11xx.c ****  ****************************************************************************/
  45:../../lib/lpc11cx4-library/lpc_chip_11cxx_lib/src/uart_11xx.c **** 
  46:../../lib/lpc11cx4-library/lpc_chip_11cxx_lib/src/uart_11xx.c **** /*****************************************************************************
  47:../../lib/lpc11cx4-library/lpc_chip_11cxx_lib/src/uart_11xx.c ****  * Public functions
  48:../../lib/lpc11cx4-library/lpc_chip_11cxx_lib/src/uart_11xx.c ****  ****************************************************************************/
  49:../../lib/lpc11cx4-library/lpc_chip_11cxx_lib/src/uart_11xx.c **** 
  50:../../lib/lpc11cx4-library/lpc_chip_11cxx_lib/src/uart_11xx.c **** /* Initializes the pUART peripheral */
  51:../../lib/lpc11cx4-library/lpc_chip_11cxx_lib/src/uart_11xx.c **** void Chip_UART_Init(LPC_USART_T *pUART)
  52:../../lib/lpc11cx4-library/lpc_chip_11cxx_lib/src/uart_11xx.c **** {
  88              		.loc 1 52 0
  89              		.cfi_startproc
  90              		@ args = 0, pretend = 0, frame = 0
  91              		@ frame_needed = 0, uses_anonymous_args = 0
  92              	.LVL0:
  93              	.LBB68:
  94              	.LBB69:
  95              		.file 2 "../../lib/lpc11cx4-library/lpc_chip_11cxx_lib/inc/clock_11xx.h"
   1:../../lib/lpc11cx4-library/lpc_chip_11cxx_lib/inc/clock_11xx.h **** /*
   2:../../lib/lpc11cx4-library/lpc_chip_11cxx_lib/inc/clock_11xx.h ****  * @brief LPC11XX Clock control functions
   3:../../lib/lpc11cx4-library/lpc_chip_11cxx_lib/inc/clock_11xx.h ****  *
   4:../../lib/lpc11cx4-library/lpc_chip_11cxx_lib/inc/clock_11xx.h ****  * @note
   5:../../lib/lpc11cx4-library/lpc_chip_11cxx_lib/inc/clock_11xx.h ****  * Copyright(C) NXP Semiconductors, 2012
   6:../../lib/lpc11cx4-library/lpc_chip_11cxx_lib/inc/clock_11xx.h ****  * All rights reserved.
   7:../../lib/lpc11cx4-library/lpc_chip_11cxx_lib/inc/clock_11xx.h ****  *
   8:../../lib/lpc11cx4-library/lpc_chip_11cxx_lib/inc/clock_11xx.h ****  * @par
   9:../../lib/lpc11cx4-library/lpc_chip_11cxx_lib/inc/clock_11xx.h ****  * Software that is described herein is for illustrative purposes only
  10:../../lib/lpc11cx4-library/lpc_chip_11cxx_lib/inc/clock_11xx.h ****  * which provides customers with programming information regarding the
  11:../../lib/lpc11cx4-library/lpc_chip_11cxx_lib/inc/clock_11xx.h ****  * LPC products.  This software is supplied "AS IS" without any warranties of
  12:../../lib/lpc11cx4-library/lpc_chip_11cxx_lib/inc/clock_11xx.h ****  * any kind, and NXP Semiconductors and its licensor disclaim any and
  13:../../lib/lpc11cx4-library/lpc_chip_11cxx_lib/inc/clock_11xx.h ****  * all warranties, express or implied, including all implied warranties of
  14:../../lib/lpc11cx4-library/lpc_chip_11cxx_lib/inc/clock_11xx.h ****  * merchantability, fitness for a particular purpose and non-infringement of
  15:../../lib/lpc11cx4-library/lpc_chip_11cxx_lib/inc/clock_11xx.h ****  * intellectual property rights.  NXP Semiconductors assumes no responsibility
  16:../../lib/lpc11cx4-library/lpc_chip_11cxx_lib/inc/clock_11xx.h ****  * or liability for the use of the software, conveys no license or rights under any
  17:../../lib/lpc11cx4-library/lpc_chip_11cxx_lib/inc/clock_11xx.h ****  * patent, copyright, mask work right, or any other intellectual property rights in
  18:../../lib/lpc11cx4-library/lpc_chip_11cxx_lib/inc/clock_11xx.h ****  * or to any products. NXP Semiconductors reserves the right to make changes
  19:../../lib/lpc11cx4-library/lpc_chip_11cxx_lib/inc/clock_11xx.h ****  * in the software without notification. NXP Semiconductors also makes no
  20:../../lib/lpc11cx4-library/lpc_chip_11cxx_lib/inc/clock_11xx.h ****  * representation or warranty that such application will be suitable for the
  21:../../lib/lpc11cx4-library/lpc_chip_11cxx_lib/inc/clock_11xx.h ****  * specified use without further testing or modification.
  22:../../lib/lpc11cx4-library/lpc_chip_11cxx_lib/inc/clock_11xx.h ****  *
  23:../../lib/lpc11cx4-library/lpc_chip_11cxx_lib/inc/clock_11xx.h ****  * @par
  24:../../lib/lpc11cx4-library/lpc_chip_11cxx_lib/inc/clock_11xx.h ****  * Permission to use, copy, modify, and distribute this software and its
ARM GAS  /var/folders/z0/6xlwn_996xz3mwq1cgzkbq4r0000gp/T//cckgJHwF.s 			page 4


  25:../../lib/lpc11cx4-library/lpc_chip_11cxx_lib/inc/clock_11xx.h ****  * documentation is hereby granted, under NXP Semiconductors' and its
  26:../../lib/lpc11cx4-library/lpc_chip_11cxx_lib/inc/clock_11xx.h ****  * licensor's relevant copyrights in the software, without fee, provided that it
  27:../../lib/lpc11cx4-library/lpc_chip_11cxx_lib/inc/clock_11xx.h ****  * is used in conjunction with NXP Semiconductors microcontrollers.  This
  28:../../lib/lpc11cx4-library/lpc_chip_11cxx_lib/inc/clock_11xx.h ****  * copyright, permission, and disclaimer notice must appear in all copies of
  29:../../lib/lpc11cx4-library/lpc_chip_11cxx_lib/inc/clock_11xx.h ****  * this code.
  30:../../lib/lpc11cx4-library/lpc_chip_11cxx_lib/inc/clock_11xx.h ****  */
  31:../../lib/lpc11cx4-library/lpc_chip_11cxx_lib/inc/clock_11xx.h **** 
  32:../../lib/lpc11cx4-library/lpc_chip_11cxx_lib/inc/clock_11xx.h **** #ifndef __CLOCK_11XX_H_
  33:../../lib/lpc11cx4-library/lpc_chip_11cxx_lib/inc/clock_11xx.h **** #define __CLOCK_11XX_H_
  34:../../lib/lpc11cx4-library/lpc_chip_11cxx_lib/inc/clock_11xx.h **** 
  35:../../lib/lpc11cx4-library/lpc_chip_11cxx_lib/inc/clock_11xx.h **** #ifdef __cplusplus
  36:../../lib/lpc11cx4-library/lpc_chip_11cxx_lib/inc/clock_11xx.h **** extern "C" {
  37:../../lib/lpc11cx4-library/lpc_chip_11cxx_lib/inc/clock_11xx.h **** #endif
  38:../../lib/lpc11cx4-library/lpc_chip_11cxx_lib/inc/clock_11xx.h **** 
  39:../../lib/lpc11cx4-library/lpc_chip_11cxx_lib/inc/clock_11xx.h **** /** @defgroup CLOCK_11XX CHIP: LPC11xx Clock Control block driver
  40:../../lib/lpc11cx4-library/lpc_chip_11cxx_lib/inc/clock_11xx.h ****  * @ingroup CHIP_11XX_Drivers
  41:../../lib/lpc11cx4-library/lpc_chip_11cxx_lib/inc/clock_11xx.h ****  * @{
  42:../../lib/lpc11cx4-library/lpc_chip_11cxx_lib/inc/clock_11xx.h ****  */
  43:../../lib/lpc11cx4-library/lpc_chip_11cxx_lib/inc/clock_11xx.h **** 
  44:../../lib/lpc11cx4-library/lpc_chip_11cxx_lib/inc/clock_11xx.h **** /** Internal oscillator frequency */
  45:../../lib/lpc11cx4-library/lpc_chip_11cxx_lib/inc/clock_11xx.h **** #define SYSCTL_IRC_FREQ (12000000)
  46:../../lib/lpc11cx4-library/lpc_chip_11cxx_lib/inc/clock_11xx.h **** 
  47:../../lib/lpc11cx4-library/lpc_chip_11cxx_lib/inc/clock_11xx.h **** /**
  48:../../lib/lpc11cx4-library/lpc_chip_11cxx_lib/inc/clock_11xx.h ****  * @brief	Set System PLL divider values
  49:../../lib/lpc11cx4-library/lpc_chip_11cxx_lib/inc/clock_11xx.h ****  * @param	msel    : PLL feedback divider value. M = msel + 1.
  50:../../lib/lpc11cx4-library/lpc_chip_11cxx_lib/inc/clock_11xx.h ****  * @param	psel    : PLL post divider value. P =  (1<<psel).
  51:../../lib/lpc11cx4-library/lpc_chip_11cxx_lib/inc/clock_11xx.h ****  * @return	Nothing
  52:../../lib/lpc11cx4-library/lpc_chip_11cxx_lib/inc/clock_11xx.h ****  * @note	See the user manual for how to setup the PLL.
  53:../../lib/lpc11cx4-library/lpc_chip_11cxx_lib/inc/clock_11xx.h ****  */
  54:../../lib/lpc11cx4-library/lpc_chip_11cxx_lib/inc/clock_11xx.h **** STATIC INLINE void Chip_Clock_SetupSystemPLL(uint8_t msel, uint8_t psel)
  55:../../lib/lpc11cx4-library/lpc_chip_11cxx_lib/inc/clock_11xx.h **** {
  56:../../lib/lpc11cx4-library/lpc_chip_11cxx_lib/inc/clock_11xx.h **** 	LPC_SYSCTL->SYSPLLCTRL = (msel & 0x1F) | ((psel & 0x3) << 5);
  57:../../lib/lpc11cx4-library/lpc_chip_11cxx_lib/inc/clock_11xx.h **** }
  58:../../lib/lpc11cx4-library/lpc_chip_11cxx_lib/inc/clock_11xx.h **** 
  59:../../lib/lpc11cx4-library/lpc_chip_11cxx_lib/inc/clock_11xx.h **** /**
  60:../../lib/lpc11cx4-library/lpc_chip_11cxx_lib/inc/clock_11xx.h ****  * @brief	Read System PLL lock status
  61:../../lib/lpc11cx4-library/lpc_chip_11cxx_lib/inc/clock_11xx.h ****  * @return	true of the PLL is locked. false if not locked
  62:../../lib/lpc11cx4-library/lpc_chip_11cxx_lib/inc/clock_11xx.h ****  */
  63:../../lib/lpc11cx4-library/lpc_chip_11cxx_lib/inc/clock_11xx.h **** STATIC INLINE bool Chip_Clock_IsSystemPLLLocked(void)
  64:../../lib/lpc11cx4-library/lpc_chip_11cxx_lib/inc/clock_11xx.h **** {
  65:../../lib/lpc11cx4-library/lpc_chip_11cxx_lib/inc/clock_11xx.h **** 	return (bool) ((LPC_SYSCTL->SYSPLLSTAT & 1) != 0);
  66:../../lib/lpc11cx4-library/lpc_chip_11cxx_lib/inc/clock_11xx.h **** }
  67:../../lib/lpc11cx4-library/lpc_chip_11cxx_lib/inc/clock_11xx.h **** 
  68:../../lib/lpc11cx4-library/lpc_chip_11cxx_lib/inc/clock_11xx.h **** /**
  69:../../lib/lpc11cx4-library/lpc_chip_11cxx_lib/inc/clock_11xx.h ****  * Clock sources for system and USB PLLs
  70:../../lib/lpc11cx4-library/lpc_chip_11cxx_lib/inc/clock_11xx.h ****  */
  71:../../lib/lpc11cx4-library/lpc_chip_11cxx_lib/inc/clock_11xx.h **** typedef enum CHIP_SYSCTL_PLLCLKSRC {
  72:../../lib/lpc11cx4-library/lpc_chip_11cxx_lib/inc/clock_11xx.h **** 	SYSCTL_PLLCLKSRC_IRC = 0,		/*!< Internal oscillator in */
  73:../../lib/lpc11cx4-library/lpc_chip_11cxx_lib/inc/clock_11xx.h **** 	SYSCTL_PLLCLKSRC_MAINOSC,		/*!< Crystal (main) oscillator in */
  74:../../lib/lpc11cx4-library/lpc_chip_11cxx_lib/inc/clock_11xx.h **** #if defined(CHIP_LPC11AXX)
  75:../../lib/lpc11cx4-library/lpc_chip_11cxx_lib/inc/clock_11xx.h **** 	SYSCTL_PLLCLKSRC_EXT_CLKIN,	/*!< External clock in (11Axx only) */
  76:../../lib/lpc11cx4-library/lpc_chip_11cxx_lib/inc/clock_11xx.h **** #else
  77:../../lib/lpc11cx4-library/lpc_chip_11cxx_lib/inc/clock_11xx.h **** 	SYSCTL_PLLCLKSRC_RESERVED1,	/*!< Reserved */
  78:../../lib/lpc11cx4-library/lpc_chip_11cxx_lib/inc/clock_11xx.h **** #endif
  79:../../lib/lpc11cx4-library/lpc_chip_11cxx_lib/inc/clock_11xx.h **** 	SYSCTL_PLLCLKSRC_RESERVED2,	/*!< Reserved */
  80:../../lib/lpc11cx4-library/lpc_chip_11cxx_lib/inc/clock_11xx.h **** } CHIP_SYSCTL_PLLCLKSRC_T;
  81:../../lib/lpc11cx4-library/lpc_chip_11cxx_lib/inc/clock_11xx.h **** 
ARM GAS  /var/folders/z0/6xlwn_996xz3mwq1cgzkbq4r0000gp/T//cckgJHwF.s 			page 5


  82:../../lib/lpc11cx4-library/lpc_chip_11cxx_lib/inc/clock_11xx.h **** /**
  83:../../lib/lpc11cx4-library/lpc_chip_11cxx_lib/inc/clock_11xx.h ****  * @brief	Set System PLL clock source
  84:../../lib/lpc11cx4-library/lpc_chip_11cxx_lib/inc/clock_11xx.h ****  * @param	src	: Clock source for system PLL
  85:../../lib/lpc11cx4-library/lpc_chip_11cxx_lib/inc/clock_11xx.h ****  * @return	Nothing
  86:../../lib/lpc11cx4-library/lpc_chip_11cxx_lib/inc/clock_11xx.h ****  * @note	This function will also toggle the clock source update register
  87:../../lib/lpc11cx4-library/lpc_chip_11cxx_lib/inc/clock_11xx.h ****  * to update the clock source.
  88:../../lib/lpc11cx4-library/lpc_chip_11cxx_lib/inc/clock_11xx.h ****  */
  89:../../lib/lpc11cx4-library/lpc_chip_11cxx_lib/inc/clock_11xx.h **** void Chip_Clock_SetSystemPLLSource(CHIP_SYSCTL_PLLCLKSRC_T src);
  90:../../lib/lpc11cx4-library/lpc_chip_11cxx_lib/inc/clock_11xx.h **** 
  91:../../lib/lpc11cx4-library/lpc_chip_11cxx_lib/inc/clock_11xx.h **** #if defined(CHIP_LPC11UXX)
  92:../../lib/lpc11cx4-library/lpc_chip_11cxx_lib/inc/clock_11xx.h **** /**
  93:../../lib/lpc11cx4-library/lpc_chip_11cxx_lib/inc/clock_11xx.h ****  * @brief	Set USB PLL divider values
  94:../../lib/lpc11cx4-library/lpc_chip_11cxx_lib/inc/clock_11xx.h ****  * @param	msel    : PLL feedback divider value. M = msel + 1.
  95:../../lib/lpc11cx4-library/lpc_chip_11cxx_lib/inc/clock_11xx.h ****  * @param	psel    : PLL post divider value. P = (1<<psel).
  96:../../lib/lpc11cx4-library/lpc_chip_11cxx_lib/inc/clock_11xx.h ****  * @return	Nothing
  97:../../lib/lpc11cx4-library/lpc_chip_11cxx_lib/inc/clock_11xx.h ****  * @note	See the user manual for how to setup the PLL.
  98:../../lib/lpc11cx4-library/lpc_chip_11cxx_lib/inc/clock_11xx.h ****  */
  99:../../lib/lpc11cx4-library/lpc_chip_11cxx_lib/inc/clock_11xx.h **** STATIC INLINE void Chip_Clock_SetupUSBPLL(uint8_t msel, uint8_t psel)
 100:../../lib/lpc11cx4-library/lpc_chip_11cxx_lib/inc/clock_11xx.h **** {
 101:../../lib/lpc11cx4-library/lpc_chip_11cxx_lib/inc/clock_11xx.h **** 	LPC_SYSCTL->USBPLLCTRL = (msel & 0x1F) | ((psel & 0x3) << 5);
 102:../../lib/lpc11cx4-library/lpc_chip_11cxx_lib/inc/clock_11xx.h **** }
 103:../../lib/lpc11cx4-library/lpc_chip_11cxx_lib/inc/clock_11xx.h **** 
 104:../../lib/lpc11cx4-library/lpc_chip_11cxx_lib/inc/clock_11xx.h **** /**
 105:../../lib/lpc11cx4-library/lpc_chip_11cxx_lib/inc/clock_11xx.h ****  * @brief	Read USB PLL lock status
 106:../../lib/lpc11cx4-library/lpc_chip_11cxx_lib/inc/clock_11xx.h ****  * @return	true of the PLL is locked. false if not locked
 107:../../lib/lpc11cx4-library/lpc_chip_11cxx_lib/inc/clock_11xx.h ****  */
 108:../../lib/lpc11cx4-library/lpc_chip_11cxx_lib/inc/clock_11xx.h **** STATIC INLINE bool Chip_Clock_IsUSBPLLLocked(void)
 109:../../lib/lpc11cx4-library/lpc_chip_11cxx_lib/inc/clock_11xx.h **** {
 110:../../lib/lpc11cx4-library/lpc_chip_11cxx_lib/inc/clock_11xx.h **** 	return (bool) ((LPC_SYSCTL->USBPLLSTAT & 1) != 0);
 111:../../lib/lpc11cx4-library/lpc_chip_11cxx_lib/inc/clock_11xx.h **** }
 112:../../lib/lpc11cx4-library/lpc_chip_11cxx_lib/inc/clock_11xx.h **** 
 113:../../lib/lpc11cx4-library/lpc_chip_11cxx_lib/inc/clock_11xx.h **** /**
 114:../../lib/lpc11cx4-library/lpc_chip_11cxx_lib/inc/clock_11xx.h ****  * @brief	Set USB PLL clock source
 115:../../lib/lpc11cx4-library/lpc_chip_11cxx_lib/inc/clock_11xx.h ****  * @param	src	: Clock source for USB PLL
 116:../../lib/lpc11cx4-library/lpc_chip_11cxx_lib/inc/clock_11xx.h ****  * @return	Nothing
 117:../../lib/lpc11cx4-library/lpc_chip_11cxx_lib/inc/clock_11xx.h ****  * @note	This function will also toggle the clock source update register
 118:../../lib/lpc11cx4-library/lpc_chip_11cxx_lib/inc/clock_11xx.h ****  * to update the clock source.
 119:../../lib/lpc11cx4-library/lpc_chip_11cxx_lib/inc/clock_11xx.h ****  */
 120:../../lib/lpc11cx4-library/lpc_chip_11cxx_lib/inc/clock_11xx.h **** void Chip_Clock_SetUSBPLLSource(CHIP_SYSCTL_PLLCLKSRC_T src);
 121:../../lib/lpc11cx4-library/lpc_chip_11cxx_lib/inc/clock_11xx.h **** 
 122:../../lib/lpc11cx4-library/lpc_chip_11cxx_lib/inc/clock_11xx.h **** #endif /*defined(CHIP_LPC11UXX)*/
 123:../../lib/lpc11cx4-library/lpc_chip_11cxx_lib/inc/clock_11xx.h **** 
 124:../../lib/lpc11cx4-library/lpc_chip_11cxx_lib/inc/clock_11xx.h **** /**
 125:../../lib/lpc11cx4-library/lpc_chip_11cxx_lib/inc/clock_11xx.h ****  * @brief	Bypass System Oscillator and set oscillator frequency range
 126:../../lib/lpc11cx4-library/lpc_chip_11cxx_lib/inc/clock_11xx.h ****  * @param	bypass	: Flag to bypass oscillator
 127:../../lib/lpc11cx4-library/lpc_chip_11cxx_lib/inc/clock_11xx.h ****  * @param	highfr	: Flag to set oscillator range from 15-25 MHz
 128:../../lib/lpc11cx4-library/lpc_chip_11cxx_lib/inc/clock_11xx.h ****  * @return	Nothing
 129:../../lib/lpc11cx4-library/lpc_chip_11cxx_lib/inc/clock_11xx.h ****  * @note	Sets the PLL input to bypass the oscillator. This would be
 130:../../lib/lpc11cx4-library/lpc_chip_11cxx_lib/inc/clock_11xx.h ****  * used if an external clock that is not an oscillator is attached
 131:../../lib/lpc11cx4-library/lpc_chip_11cxx_lib/inc/clock_11xx.h ****  * to the XTALIN pin.
 132:../../lib/lpc11cx4-library/lpc_chip_11cxx_lib/inc/clock_11xx.h ****  */
 133:../../lib/lpc11cx4-library/lpc_chip_11cxx_lib/inc/clock_11xx.h **** void Chip_Clock_SetPLLBypass(bool bypass, bool highfr);
 134:../../lib/lpc11cx4-library/lpc_chip_11cxx_lib/inc/clock_11xx.h **** 
 135:../../lib/lpc11cx4-library/lpc_chip_11cxx_lib/inc/clock_11xx.h **** /**
 136:../../lib/lpc11cx4-library/lpc_chip_11cxx_lib/inc/clock_11xx.h ****  * Watchdog and low frequency oscillator frequencies plus or minus 40%
 137:../../lib/lpc11cx4-library/lpc_chip_11cxx_lib/inc/clock_11xx.h ****  */
 138:../../lib/lpc11cx4-library/lpc_chip_11cxx_lib/inc/clock_11xx.h **** typedef enum CHIP_WDTLFO_OSC {
ARM GAS  /var/folders/z0/6xlwn_996xz3mwq1cgzkbq4r0000gp/T//cckgJHwF.s 			page 6


 139:../../lib/lpc11cx4-library/lpc_chip_11cxx_lib/inc/clock_11xx.h **** 	WDTLFO_OSC_ILLEGAL,
 140:../../lib/lpc11cx4-library/lpc_chip_11cxx_lib/inc/clock_11xx.h **** 	WDTLFO_OSC_0_60,	/*!< 0.6 MHz watchdog/LFO rate */
 141:../../lib/lpc11cx4-library/lpc_chip_11cxx_lib/inc/clock_11xx.h **** 	WDTLFO_OSC_1_05,	/*!< 1.05 MHz watchdog/LFO rate */
 142:../../lib/lpc11cx4-library/lpc_chip_11cxx_lib/inc/clock_11xx.h **** 	WDTLFO_OSC_1_40,	/*!< 1.4 MHz watchdog/LFO rate */
 143:../../lib/lpc11cx4-library/lpc_chip_11cxx_lib/inc/clock_11xx.h **** 	WDTLFO_OSC_1_75,	/*!< 1.75 MHz watchdog/LFO rate */
 144:../../lib/lpc11cx4-library/lpc_chip_11cxx_lib/inc/clock_11xx.h **** 	WDTLFO_OSC_2_10,	/*!< 2.1 MHz watchdog/LFO rate */
 145:../../lib/lpc11cx4-library/lpc_chip_11cxx_lib/inc/clock_11xx.h **** 	WDTLFO_OSC_2_40,	/*!< 2.4 MHz watchdog/LFO rate */
 146:../../lib/lpc11cx4-library/lpc_chip_11cxx_lib/inc/clock_11xx.h **** 	WDTLFO_OSC_2_70,	/*!< 2.7 MHz watchdog/LFO rate */
 147:../../lib/lpc11cx4-library/lpc_chip_11cxx_lib/inc/clock_11xx.h **** 	WDTLFO_OSC_3_00,	/*!< 3.0 MHz watchdog/LFO rate */
 148:../../lib/lpc11cx4-library/lpc_chip_11cxx_lib/inc/clock_11xx.h **** 	WDTLFO_OSC_3_25,	/*!< 3.25 MHz watchdog/LFO rate */
 149:../../lib/lpc11cx4-library/lpc_chip_11cxx_lib/inc/clock_11xx.h **** 	WDTLFO_OSC_3_50,	/*!< 3.5 MHz watchdog/LFO rate */
 150:../../lib/lpc11cx4-library/lpc_chip_11cxx_lib/inc/clock_11xx.h **** 	WDTLFO_OSC_3_75,	/*!< 3.75 MHz watchdog/LFO rate */
 151:../../lib/lpc11cx4-library/lpc_chip_11cxx_lib/inc/clock_11xx.h **** 	WDTLFO_OSC_4_00,	/*!< 4.0 MHz watchdog/LFO rate */
 152:../../lib/lpc11cx4-library/lpc_chip_11cxx_lib/inc/clock_11xx.h **** 	WDTLFO_OSC_4_20,	/*!< 4.2 MHz watchdog/LFO rate */
 153:../../lib/lpc11cx4-library/lpc_chip_11cxx_lib/inc/clock_11xx.h **** 	WDTLFO_OSC_4_40,	/*!< 4.4 MHz watchdog/LFO rate */
 154:../../lib/lpc11cx4-library/lpc_chip_11cxx_lib/inc/clock_11xx.h **** 	WDTLFO_OSC_4_60		/*!< 4.6 MHz watchdog/LFO rate */
 155:../../lib/lpc11cx4-library/lpc_chip_11cxx_lib/inc/clock_11xx.h **** } CHIP_WDTLFO_OSC_T;
 156:../../lib/lpc11cx4-library/lpc_chip_11cxx_lib/inc/clock_11xx.h **** 
 157:../../lib/lpc11cx4-library/lpc_chip_11cxx_lib/inc/clock_11xx.h **** /**
 158:../../lib/lpc11cx4-library/lpc_chip_11cxx_lib/inc/clock_11xx.h ****  * @brief	Setup Watchdog oscillator rate and divider
 159:../../lib/lpc11cx4-library/lpc_chip_11cxx_lib/inc/clock_11xx.h ****  * @param	wdtclk	: Selected watchdog clock rate
 160:../../lib/lpc11cx4-library/lpc_chip_11cxx_lib/inc/clock_11xx.h ****  * @param	div		: Watchdog divider value, even value between 2 and 64
 161:../../lib/lpc11cx4-library/lpc_chip_11cxx_lib/inc/clock_11xx.h ****  * @return	Nothing
 162:../../lib/lpc11cx4-library/lpc_chip_11cxx_lib/inc/clock_11xx.h ****  * @note	Watchdog rate = selected rate divided by divider rate
 163:../../lib/lpc11cx4-library/lpc_chip_11cxx_lib/inc/clock_11xx.h ****  */
 164:../../lib/lpc11cx4-library/lpc_chip_11cxx_lib/inc/clock_11xx.h **** STATIC INLINE void Chip_Clock_SetWDTOSC(CHIP_WDTLFO_OSC_T wdtclk, uint8_t div)
 165:../../lib/lpc11cx4-library/lpc_chip_11cxx_lib/inc/clock_11xx.h **** {
 166:../../lib/lpc11cx4-library/lpc_chip_11cxx_lib/inc/clock_11xx.h **** 	LPC_SYSCTL->WDTOSCCTRL  = (((uint32_t) wdtclk) << 5) | ((div >> 1) - 1);
 167:../../lib/lpc11cx4-library/lpc_chip_11cxx_lib/inc/clock_11xx.h **** }
 168:../../lib/lpc11cx4-library/lpc_chip_11cxx_lib/inc/clock_11xx.h **** 
 169:../../lib/lpc11cx4-library/lpc_chip_11cxx_lib/inc/clock_11xx.h **** #if defined(CHIP_LPC11AXX)
 170:../../lib/lpc11cx4-library/lpc_chip_11cxx_lib/inc/clock_11xx.h **** /**
 171:../../lib/lpc11cx4-library/lpc_chip_11cxx_lib/inc/clock_11xx.h ****  * @brief	Setup low frequency oscillator rate and divider
 172:../../lib/lpc11cx4-library/lpc_chip_11cxx_lib/inc/clock_11xx.h ****  * @param	lfoclk	: Selected low frequency clock rate
 173:../../lib/lpc11cx4-library/lpc_chip_11cxx_lib/inc/clock_11xx.h ****  * @param	div		: Low frequency divider value, even value between 2 and 64
 174:../../lib/lpc11cx4-library/lpc_chip_11cxx_lib/inc/clock_11xx.h ****  * @return	Nothing
 175:../../lib/lpc11cx4-library/lpc_chip_11cxx_lib/inc/clock_11xx.h ****  * @note	Low frequency oscillator rate = selected rate divided by divider rate
 176:../../lib/lpc11cx4-library/lpc_chip_11cxx_lib/inc/clock_11xx.h ****  */
 177:../../lib/lpc11cx4-library/lpc_chip_11cxx_lib/inc/clock_11xx.h **** STATIC INLINE void Chip_Clock_SetLFOSC(CHIP_WDTLFO_OSC_T lfoclk, uint8_t div)
 178:../../lib/lpc11cx4-library/lpc_chip_11cxx_lib/inc/clock_11xx.h **** {
 179:../../lib/lpc11cx4-library/lpc_chip_11cxx_lib/inc/clock_11xx.h **** 	LPC_SYSCTL->LFOSCCTRL  = (((uint32_t) lfoclk) << 5) | ((div >> 1) - 1);
 180:../../lib/lpc11cx4-library/lpc_chip_11cxx_lib/inc/clock_11xx.h **** }
 181:../../lib/lpc11cx4-library/lpc_chip_11cxx_lib/inc/clock_11xx.h **** 
 182:../../lib/lpc11cx4-library/lpc_chip_11cxx_lib/inc/clock_11xx.h **** #endif /*CHIP_LPC11AXX*/
 183:../../lib/lpc11cx4-library/lpc_chip_11cxx_lib/inc/clock_11xx.h **** 
 184:../../lib/lpc11cx4-library/lpc_chip_11cxx_lib/inc/clock_11xx.h **** /**
 185:../../lib/lpc11cx4-library/lpc_chip_11cxx_lib/inc/clock_11xx.h ****  * Clock sources for main system clock
 186:../../lib/lpc11cx4-library/lpc_chip_11cxx_lib/inc/clock_11xx.h ****  */
 187:../../lib/lpc11cx4-library/lpc_chip_11cxx_lib/inc/clock_11xx.h **** typedef enum CHIP_SYSCTL_MAINCLKSRC {
 188:../../lib/lpc11cx4-library/lpc_chip_11cxx_lib/inc/clock_11xx.h **** 	SYSCTL_MAINCLKSRC_IRC = 0,		/*!< Internal oscillator */
 189:../../lib/lpc11cx4-library/lpc_chip_11cxx_lib/inc/clock_11xx.h **** 	SYSCTL_MAINCLKSRC_PLLIN,		/*!< System PLL input */
 190:../../lib/lpc11cx4-library/lpc_chip_11cxx_lib/inc/clock_11xx.h **** 	SYSCTL_MAINCLKSRC_LFOSC,		/*!< LF oscillator rate (11Axx only) */
 191:../../lib/lpc11cx4-library/lpc_chip_11cxx_lib/inc/clock_11xx.h **** 	SYSCTL_MAINCLKSRC_WDTOSC = SYSCTL_MAINCLKSRC_LFOSC,	/*!< Watchdog oscillator rate */
 192:../../lib/lpc11cx4-library/lpc_chip_11cxx_lib/inc/clock_11xx.h **** 	SYSCTL_MAINCLKSRC_PLLOUT,		/*!< System PLL output */
 193:../../lib/lpc11cx4-library/lpc_chip_11cxx_lib/inc/clock_11xx.h **** } CHIP_SYSCTL_MAINCLKSRC_T;
 194:../../lib/lpc11cx4-library/lpc_chip_11cxx_lib/inc/clock_11xx.h **** 
 195:../../lib/lpc11cx4-library/lpc_chip_11cxx_lib/inc/clock_11xx.h **** /**
ARM GAS  /var/folders/z0/6xlwn_996xz3mwq1cgzkbq4r0000gp/T//cckgJHwF.s 			page 7


 196:../../lib/lpc11cx4-library/lpc_chip_11cxx_lib/inc/clock_11xx.h ****  * @brief	Set main system clock source
 197:../../lib/lpc11cx4-library/lpc_chip_11cxx_lib/inc/clock_11xx.h ****  * @param	src	: Clock source for main system
 198:../../lib/lpc11cx4-library/lpc_chip_11cxx_lib/inc/clock_11xx.h ****  * @return	Nothing
 199:../../lib/lpc11cx4-library/lpc_chip_11cxx_lib/inc/clock_11xx.h ****  * @note	This function will also toggle the clock source update register
 200:../../lib/lpc11cx4-library/lpc_chip_11cxx_lib/inc/clock_11xx.h ****  * to update the clock source.
 201:../../lib/lpc11cx4-library/lpc_chip_11cxx_lib/inc/clock_11xx.h ****  */
 202:../../lib/lpc11cx4-library/lpc_chip_11cxx_lib/inc/clock_11xx.h **** void Chip_Clock_SetMainClockSource(CHIP_SYSCTL_MAINCLKSRC_T src);
 203:../../lib/lpc11cx4-library/lpc_chip_11cxx_lib/inc/clock_11xx.h **** 
 204:../../lib/lpc11cx4-library/lpc_chip_11cxx_lib/inc/clock_11xx.h **** /**
 205:../../lib/lpc11cx4-library/lpc_chip_11cxx_lib/inc/clock_11xx.h ****  * @brief   Returns the main clock source
 206:../../lib/lpc11cx4-library/lpc_chip_11cxx_lib/inc/clock_11xx.h ****  * @return	Which clock is used for the core clock source?
 207:../../lib/lpc11cx4-library/lpc_chip_11cxx_lib/inc/clock_11xx.h ****  */
 208:../../lib/lpc11cx4-library/lpc_chip_11cxx_lib/inc/clock_11xx.h **** STATIC INLINE CHIP_SYSCTL_MAINCLKSRC_T Chip_Clock_GetMainClockSource(void)
 209:../../lib/lpc11cx4-library/lpc_chip_11cxx_lib/inc/clock_11xx.h **** {
 210:../../lib/lpc11cx4-library/lpc_chip_11cxx_lib/inc/clock_11xx.h **** 	return (CHIP_SYSCTL_MAINCLKSRC_T) (LPC_SYSCTL->MAINCLKSEL);
 211:../../lib/lpc11cx4-library/lpc_chip_11cxx_lib/inc/clock_11xx.h **** }
 212:../../lib/lpc11cx4-library/lpc_chip_11cxx_lib/inc/clock_11xx.h **** 
 213:../../lib/lpc11cx4-library/lpc_chip_11cxx_lib/inc/clock_11xx.h **** /**
 214:../../lib/lpc11cx4-library/lpc_chip_11cxx_lib/inc/clock_11xx.h ****  * @brief	Set system clock divider
 215:../../lib/lpc11cx4-library/lpc_chip_11cxx_lib/inc/clock_11xx.h ****  * @param	div	: divider for system clock
 216:../../lib/lpc11cx4-library/lpc_chip_11cxx_lib/inc/clock_11xx.h ****  * @return	Nothing
 217:../../lib/lpc11cx4-library/lpc_chip_11cxx_lib/inc/clock_11xx.h ****  * @note	Use 0 to disable, or a divider value of 1 to 255. The system clock
 218:../../lib/lpc11cx4-library/lpc_chip_11cxx_lib/inc/clock_11xx.h ****  * rate is the main system clock divided by this value.
 219:../../lib/lpc11cx4-library/lpc_chip_11cxx_lib/inc/clock_11xx.h ****  */
 220:../../lib/lpc11cx4-library/lpc_chip_11cxx_lib/inc/clock_11xx.h **** STATIC INLINE void Chip_Clock_SetSysClockDiv(uint32_t div)
 221:../../lib/lpc11cx4-library/lpc_chip_11cxx_lib/inc/clock_11xx.h **** {
 222:../../lib/lpc11cx4-library/lpc_chip_11cxx_lib/inc/clock_11xx.h **** 	LPC_SYSCTL->SYSAHBCLKDIV  = div;
 223:../../lib/lpc11cx4-library/lpc_chip_11cxx_lib/inc/clock_11xx.h **** }
 224:../../lib/lpc11cx4-library/lpc_chip_11cxx_lib/inc/clock_11xx.h **** 
 225:../../lib/lpc11cx4-library/lpc_chip_11cxx_lib/inc/clock_11xx.h **** /**
 226:../../lib/lpc11cx4-library/lpc_chip_11cxx_lib/inc/clock_11xx.h ****  * System and peripheral clocks
 227:../../lib/lpc11cx4-library/lpc_chip_11cxx_lib/inc/clock_11xx.h ****  */
 228:../../lib/lpc11cx4-library/lpc_chip_11cxx_lib/inc/clock_11xx.h **** typedef enum CHIP_SYSCTL_CLOCK {
 229:../../lib/lpc11cx4-library/lpc_chip_11cxx_lib/inc/clock_11xx.h **** 	SYSCTL_CLOCK_SYS = 0,				/*!< 0: System clock */
 230:../../lib/lpc11cx4-library/lpc_chip_11cxx_lib/inc/clock_11xx.h **** 	SYSCTL_CLOCK_ROM,					/*!<1:  ROM clock */
 231:../../lib/lpc11cx4-library/lpc_chip_11cxx_lib/inc/clock_11xx.h **** 	SYSCTL_CLOCK_RAM,					/*!< 2: RAM clock */
 232:../../lib/lpc11cx4-library/lpc_chip_11cxx_lib/inc/clock_11xx.h **** 	SYSCTL_CLOCK_FLASHREG,				/*!< 3: FLASH register interface clock */
 233:../../lib/lpc11cx4-library/lpc_chip_11cxx_lib/inc/clock_11xx.h **** 	SYSCTL_CLOCK_FLASHARRAY,			/*!< 4: FLASH array access clock */
 234:../../lib/lpc11cx4-library/lpc_chip_11cxx_lib/inc/clock_11xx.h **** #if defined(CHIP_LPC110X)
 235:../../lib/lpc11cx4-library/lpc_chip_11cxx_lib/inc/clock_11xx.h **** 	SYSCTL_CLOCK_RESERVED5,				/*!< 5: Reserved */
 236:../../lib/lpc11cx4-library/lpc_chip_11cxx_lib/inc/clock_11xx.h **** #else
 237:../../lib/lpc11cx4-library/lpc_chip_11cxx_lib/inc/clock_11xx.h **** 	SYSCTL_CLOCK_I2C,					/*!< 5: I2C clock, not on LPC110x */
 238:../../lib/lpc11cx4-library/lpc_chip_11cxx_lib/inc/clock_11xx.h **** #endif
 239:../../lib/lpc11cx4-library/lpc_chip_11cxx_lib/inc/clock_11xx.h **** 	SYSCTL_CLOCK_GPIO,					/*!< 6: GPIO clock */
 240:../../lib/lpc11cx4-library/lpc_chip_11cxx_lib/inc/clock_11xx.h **** 	SYSCTL_CLOCK_CT16B0,				/*!< 7: 16-bit Counter/timer 0 clock */
 241:../../lib/lpc11cx4-library/lpc_chip_11cxx_lib/inc/clock_11xx.h **** 	SYSCTL_CLOCK_CT16B1,				/*!< 8: 16-bit Counter/timer 1 clock */
 242:../../lib/lpc11cx4-library/lpc_chip_11cxx_lib/inc/clock_11xx.h **** 	SYSCTL_CLOCK_CT32B0,				/*!< 9: 32-bit Counter/timer 0 clock */
 243:../../lib/lpc11cx4-library/lpc_chip_11cxx_lib/inc/clock_11xx.h **** 	SYSCTL_CLOCK_CT32B1,				/*!< 10: 32-bit Counter/timer 1 clock */
 244:../../lib/lpc11cx4-library/lpc_chip_11cxx_lib/inc/clock_11xx.h **** 	SYSCTL_CLOCK_SSP0,					/*!< 11: SSP0 clock */
 245:../../lib/lpc11cx4-library/lpc_chip_11cxx_lib/inc/clock_11xx.h **** 	SYSCTL_CLOCK_UART0,					/*!< 12: UART0 clock */
 246:../../lib/lpc11cx4-library/lpc_chip_11cxx_lib/inc/clock_11xx.h **** 	SYSCTL_CLOCK_ADC,					/*!< 13: ADC clock */
 247:../../lib/lpc11cx4-library/lpc_chip_11cxx_lib/inc/clock_11xx.h **** #if defined(CHIP_LPC11UXX)
 248:../../lib/lpc11cx4-library/lpc_chip_11cxx_lib/inc/clock_11xx.h **** 	SYSCTL_CLOCK_USB,					/*!< 14: USB clock, LPC11Uxx only */
 249:../../lib/lpc11cx4-library/lpc_chip_11cxx_lib/inc/clock_11xx.h **** #else
 250:../../lib/lpc11cx4-library/lpc_chip_11cxx_lib/inc/clock_11xx.h **** 	SYSCTL_CLOCK_RESERVED14,			/*!< 14: Reserved */
 251:../../lib/lpc11cx4-library/lpc_chip_11cxx_lib/inc/clock_11xx.h **** #endif
 252:../../lib/lpc11cx4-library/lpc_chip_11cxx_lib/inc/clock_11xx.h **** 	SYSCTL_CLOCK_WDT,					/*!< 15: Watchdog timer clock */
ARM GAS  /var/folders/z0/6xlwn_996xz3mwq1cgzkbq4r0000gp/T//cckgJHwF.s 			page 8


 253:../../lib/lpc11cx4-library/lpc_chip_11cxx_lib/inc/clock_11xx.h **** 	SYSCTL_CLOCK_IOCON,					/*!< 16: IOCON block clock */
 254:../../lib/lpc11cx4-library/lpc_chip_11cxx_lib/inc/clock_11xx.h **** #if defined(CHIP_LPC11CXX)
 255:../../lib/lpc11cx4-library/lpc_chip_11cxx_lib/inc/clock_11xx.h **** 	SYSCTL_CLOCK_CAN,					/*!< 17: CAN clock, LPC11Cxx only */
 256:../../lib/lpc11cx4-library/lpc_chip_11cxx_lib/inc/clock_11xx.h **** #else
 257:../../lib/lpc11cx4-library/lpc_chip_11cxx_lib/inc/clock_11xx.h **** 	SYSCTL_CLOCK_RESERVED17,			/*!< 17: Reserved */
 258:../../lib/lpc11cx4-library/lpc_chip_11cxx_lib/inc/clock_11xx.h **** #endif
 259:../../lib/lpc11cx4-library/lpc_chip_11cxx_lib/inc/clock_11xx.h **** #if !(defined(CHIP_LPC110X) || defined(CHIP_LPC11XXLV))  
 260:../../lib/lpc11cx4-library/lpc_chip_11cxx_lib/inc/clock_11xx.h **** 	SYSCTL_CLOCK_SSP1,					/*!< 18: SSP1 clock, LPC11A/C/E/Uxx//1125 only */
 261:../../lib/lpc11cx4-library/lpc_chip_11cxx_lib/inc/clock_11xx.h **** #if !defined(CHIP_LPC11CXX)
 262:../../lib/lpc11cx4-library/lpc_chip_11cxx_lib/inc/clock_11xx.h **** 	SYSCTL_CLOCK_PINT,					/*!< 19: GPIO Pin int register interface clock, LPC11A/E/Uxx only */
 263:../../lib/lpc11cx4-library/lpc_chip_11cxx_lib/inc/clock_11xx.h **** #if defined(CHIP_LPC11AXX)
 264:../../lib/lpc11cx4-library/lpc_chip_11cxx_lib/inc/clock_11xx.h **** 	SYSCTL_CLOCK_ACOMP,					/*!< 20: Analog comparator clock, LPC11Axx only */
 265:../../lib/lpc11cx4-library/lpc_chip_11cxx_lib/inc/clock_11xx.h **** 	SYSCTL_CLOCK_DAC,					/*!< 21: DAC clock, LPC11Axx only */
 266:../../lib/lpc11cx4-library/lpc_chip_11cxx_lib/inc/clock_11xx.h **** #else
 267:../../lib/lpc11cx4-library/lpc_chip_11cxx_lib/inc/clock_11xx.h **** 	SYSCTL_CLOCK_RESERVED20,			/*!< 20: Reserved */
 268:../../lib/lpc11cx4-library/lpc_chip_11cxx_lib/inc/clock_11xx.h **** 	SYSCTL_CLOCK_RESERVED21,			/*!< 21: Reserved */
 269:../../lib/lpc11cx4-library/lpc_chip_11cxx_lib/inc/clock_11xx.h **** #endif
 270:../../lib/lpc11cx4-library/lpc_chip_11cxx_lib/inc/clock_11xx.h **** 	SYSCTL_CLOCK_RESERVED22,			/*!< 22: Reserved */
 271:../../lib/lpc11cx4-library/lpc_chip_11cxx_lib/inc/clock_11xx.h **** 	SYSCTL_CLOCK_P0INT,					/*!< 23: GPIO GROUP1 interrupt register clock, LPC11Axx only */
 272:../../lib/lpc11cx4-library/lpc_chip_11cxx_lib/inc/clock_11xx.h **** 	SYSCTL_CLOCK_GROUP0INT = SYSCTL_CLOCK_P0INT,/*!< 23: GPIO GROUP0 interrupt register interface cloc
 273:../../lib/lpc11cx4-library/lpc_chip_11cxx_lib/inc/clock_11xx.h **** 	SYSCTL_CLOCK_P1INT,					/*!< 24: GPIO GROUP1 interrupt register clock, LPC11Axx only */
 274:../../lib/lpc11cx4-library/lpc_chip_11cxx_lib/inc/clock_11xx.h **** 	SYSCTL_CLOCK_GROUP1INT = SYSCTL_CLOCK_P1INT,/*!< 24: GPIO GROUP1 interrupt register interface cloc
 275:../../lib/lpc11cx4-library/lpc_chip_11cxx_lib/inc/clock_11xx.h **** 	SYSCTL_CLOCK_RESERVED25,			/*!< 25: Reserved */
 276:../../lib/lpc11cx4-library/lpc_chip_11cxx_lib/inc/clock_11xx.h **** #if defined(CHIP_LPC11EXX)  || defined(CHIP_LPC11UXX)
 277:../../lib/lpc11cx4-library/lpc_chip_11cxx_lib/inc/clock_11xx.h **** 	SYSCTL_CLOCK_RAM1,					/*!< 26: SRAM block (0x20000000) clock, LPC11E/Uxx only */
 278:../../lib/lpc11cx4-library/lpc_chip_11cxx_lib/inc/clock_11xx.h **** #else
 279:../../lib/lpc11cx4-library/lpc_chip_11cxx_lib/inc/clock_11xx.h **** 	SYSCTL_CLOCK_RESERVED26,			/*!< 26: Reserved */
 280:../../lib/lpc11cx4-library/lpc_chip_11cxx_lib/inc/clock_11xx.h **** #endif
 281:../../lib/lpc11cx4-library/lpc_chip_11cxx_lib/inc/clock_11xx.h **** #if defined(CHIP_LPC11UXX)
 282:../../lib/lpc11cx4-library/lpc_chip_11cxx_lib/inc/clock_11xx.h **** 	SYSCTL_CLOCK_USBRAM,				/*!< 27: USB SRAM block clock, LPC11Uxx only */
 283:../../lib/lpc11cx4-library/lpc_chip_11cxx_lib/inc/clock_11xx.h **** #else
 284:../../lib/lpc11cx4-library/lpc_chip_11cxx_lib/inc/clock_11xx.h **** 	SYSCTL_CLOCK_RESERVED27,			/*!< 27: Reserved */
 285:../../lib/lpc11cx4-library/lpc_chip_11cxx_lib/inc/clock_11xx.h **** #endif
 286:../../lib/lpc11cx4-library/lpc_chip_11cxx_lib/inc/clock_11xx.h **** #endif /* !defined(CHIP_LPC11CXX) */
 287:../../lib/lpc11cx4-library/lpc_chip_11cxx_lib/inc/clock_11xx.h **** #endif /* !(defined(CHIP_LPC110X) || defined(CHIP_LPC11XXLV)) */
 288:../../lib/lpc11cx4-library/lpc_chip_11cxx_lib/inc/clock_11xx.h **** } CHIP_SYSCTL_CLOCK_T;
 289:../../lib/lpc11cx4-library/lpc_chip_11cxx_lib/inc/clock_11xx.h **** 
 290:../../lib/lpc11cx4-library/lpc_chip_11cxx_lib/inc/clock_11xx.h **** /**
 291:../../lib/lpc11cx4-library/lpc_chip_11cxx_lib/inc/clock_11xx.h ****  * @brief	Enable a system or peripheral clock
 292:../../lib/lpc11cx4-library/lpc_chip_11cxx_lib/inc/clock_11xx.h ****  * @param	clk	: Clock to enable
 293:../../lib/lpc11cx4-library/lpc_chip_11cxx_lib/inc/clock_11xx.h ****  * @return	Nothing
 294:../../lib/lpc11cx4-library/lpc_chip_11cxx_lib/inc/clock_11xx.h ****  */
 295:../../lib/lpc11cx4-library/lpc_chip_11cxx_lib/inc/clock_11xx.h **** STATIC INLINE void Chip_Clock_EnablePeriphClock(CHIP_SYSCTL_CLOCK_T clk)
 296:../../lib/lpc11cx4-library/lpc_chip_11cxx_lib/inc/clock_11xx.h **** {
 297:../../lib/lpc11cx4-library/lpc_chip_11cxx_lib/inc/clock_11xx.h **** 	LPC_SYSCTL->SYSAHBCLKCTRL |= (1 << clk);
  96              		.loc 2 297 0
  97 0000 8021     		movs	r1, #128	@ tmp114,
  98              	.LBE69:
  99              	.LBE68:
 100              		.loc 1 52 0
 101 0002 10B5     		push	{r4, lr}	@
 102              		.cfi_def_cfa_offset 8
 103              		.cfi_offset 4, -8
 104              		.cfi_offset 14, -4
 105              	.LBB72:
 106              	.LBB70:
 107              		.loc 2 297 0
ARM GAS  /var/folders/z0/6xlwn_996xz3mwq1cgzkbq4r0000gp/T//cckgJHwF.s 			page 9


 108 0004 8024     		movs	r4, #128	@ tmp115,
 109 0006 074B     		ldr	r3, .L2	@ tmp113,
 110 0008 6401     		lsls	r4, r4, #5	@ tmp115, tmp115,
 111 000a 5A58     		ldr	r2, [r3, r1]	@ D.6485, MEM[(struct LPC_SYSCTL_T *)1074036736B].SYSAHBCLKCTRL
 112              	.LBE70:
 113              	.LBE72:
  53:../../lib/lpc11cx4-library/lpc_chip_11cxx_lib/src/uart_11xx.c **** 	Chip_Clock_EnablePeriphClock(SYSCTL_CLOCK_UART0);
  54:../../lib/lpc11cx4-library/lpc_chip_11cxx_lib/src/uart_11xx.c **** 	Chip_Clock_SetUARTClockDiv(1);
  55:../../lib/lpc11cx4-library/lpc_chip_11cxx_lib/src/uart_11xx.c **** 
  56:../../lib/lpc11cx4-library/lpc_chip_11cxx_lib/src/uart_11xx.c **** 	/* Enable FIFOs by default, reset them */
  57:../../lib/lpc11cx4-library/lpc_chip_11cxx_lib/src/uart_11xx.c **** 	Chip_UART_SetupFIFOS(pUART, (UART_FCR_FIFO_EN | UART_FCR_RX_RS | UART_FCR_TX_RS));
  58:../../lib/lpc11cx4-library/lpc_chip_11cxx_lib/src/uart_11xx.c **** 
  59:../../lib/lpc11cx4-library/lpc_chip_11cxx_lib/src/uart_11xx.c **** 	/* Default 8N1, with DLAB disabled */
  60:../../lib/lpc11cx4-library/lpc_chip_11cxx_lib/src/uart_11xx.c **** 	Chip_UART_ConfigData(pUART, (UART_LCR_WLEN8 | UART_LCR_SBS_1BIT | UART_LCR_PARITY_DIS));
  61:../../lib/lpc11cx4-library/lpc_chip_11cxx_lib/src/uart_11xx.c **** 
  62:../../lib/lpc11cx4-library/lpc_chip_11cxx_lib/src/uart_11xx.c **** 	/* Disable fractional divider */
  63:../../lib/lpc11cx4-library/lpc_chip_11cxx_lib/src/uart_11xx.c **** 	pUART->FDR = 0x10;
  64:../../lib/lpc11cx4-library/lpc_chip_11cxx_lib/src/uart_11xx.c **** }
 114              		.loc 1 64 0
 115              		@ sp needed	@
 116              	.LBB73:
 117              	.LBB71:
 118              		.loc 2 297 0
 119 000c 2243     		orrs	r2, r4	@ D.6485, tmp115
 120 000e 5A50     		str	r2, [r3, r1]	@ D.6485, MEM[(struct LPC_SYSCTL_T *)1074036736B].SYSAHBCLKCTRL
 121              	.LVL1:
 122              	.LBE71:
 123              	.LBE73:
 124              	.LBB74:
 125              	.LBB75:
 298:../../lib/lpc11cx4-library/lpc_chip_11cxx_lib/inc/clock_11xx.h **** }
 299:../../lib/lpc11cx4-library/lpc_chip_11cxx_lib/inc/clock_11xx.h **** 
 300:../../lib/lpc11cx4-library/lpc_chip_11cxx_lib/inc/clock_11xx.h **** /**
 301:../../lib/lpc11cx4-library/lpc_chip_11cxx_lib/inc/clock_11xx.h ****  * @brief	Disable a system or peripheral clock
 302:../../lib/lpc11cx4-library/lpc_chip_11cxx_lib/inc/clock_11xx.h ****  * @param	clk	: Clock to disable
 303:../../lib/lpc11cx4-library/lpc_chip_11cxx_lib/inc/clock_11xx.h ****  * @return	Nothing
 304:../../lib/lpc11cx4-library/lpc_chip_11cxx_lib/inc/clock_11xx.h ****  */
 305:../../lib/lpc11cx4-library/lpc_chip_11cxx_lib/inc/clock_11xx.h **** STATIC INLINE void Chip_Clock_DisablePeriphClock(CHIP_SYSCTL_CLOCK_T clk)
 306:../../lib/lpc11cx4-library/lpc_chip_11cxx_lib/inc/clock_11xx.h **** {
 307:../../lib/lpc11cx4-library/lpc_chip_11cxx_lib/inc/clock_11xx.h **** 	LPC_SYSCTL->SYSAHBCLKCTRL &= ~(1 << clk);
 308:../../lib/lpc11cx4-library/lpc_chip_11cxx_lib/inc/clock_11xx.h **** }
 309:../../lib/lpc11cx4-library/lpc_chip_11cxx_lib/inc/clock_11xx.h **** 
 310:../../lib/lpc11cx4-library/lpc_chip_11cxx_lib/inc/clock_11xx.h **** /**
 311:../../lib/lpc11cx4-library/lpc_chip_11cxx_lib/inc/clock_11xx.h ****  * @brief	Set SSP0 divider
 312:../../lib/lpc11cx4-library/lpc_chip_11cxx_lib/inc/clock_11xx.h ****  * @param	div	: divider for SSP0 clock
 313:../../lib/lpc11cx4-library/lpc_chip_11cxx_lib/inc/clock_11xx.h ****  * @return	Nothing
 314:../../lib/lpc11cx4-library/lpc_chip_11cxx_lib/inc/clock_11xx.h ****  * @note	Use 0 to disable, or a divider value of 1 to 255. The SSP0 clock
 315:../../lib/lpc11cx4-library/lpc_chip_11cxx_lib/inc/clock_11xx.h ****  * rate is the main system clock divided by this value.
 316:../../lib/lpc11cx4-library/lpc_chip_11cxx_lib/inc/clock_11xx.h ****  */
 317:../../lib/lpc11cx4-library/lpc_chip_11cxx_lib/inc/clock_11xx.h **** STATIC INLINE void Chip_Clock_SetSSP0ClockDiv(uint32_t div)
 318:../../lib/lpc11cx4-library/lpc_chip_11cxx_lib/inc/clock_11xx.h **** {
 319:../../lib/lpc11cx4-library/lpc_chip_11cxx_lib/inc/clock_11xx.h **** 	LPC_SYSCTL->SSP0CLKDIV  = div;
 320:../../lib/lpc11cx4-library/lpc_chip_11cxx_lib/inc/clock_11xx.h **** }
 321:../../lib/lpc11cx4-library/lpc_chip_11cxx_lib/inc/clock_11xx.h **** 
 322:../../lib/lpc11cx4-library/lpc_chip_11cxx_lib/inc/clock_11xx.h **** /**
 323:../../lib/lpc11cx4-library/lpc_chip_11cxx_lib/inc/clock_11xx.h ****  * @brief	Return SSP0 divider
 324:../../lib/lpc11cx4-library/lpc_chip_11cxx_lib/inc/clock_11xx.h ****  * @return	divider for SSP0 clock
ARM GAS  /var/folders/z0/6xlwn_996xz3mwq1cgzkbq4r0000gp/T//cckgJHwF.s 			page 10


 325:../../lib/lpc11cx4-library/lpc_chip_11cxx_lib/inc/clock_11xx.h ****  * @note	A value of 0 means the clock is disabled.
 326:../../lib/lpc11cx4-library/lpc_chip_11cxx_lib/inc/clock_11xx.h ****  */
 327:../../lib/lpc11cx4-library/lpc_chip_11cxx_lib/inc/clock_11xx.h **** STATIC INLINE uint32_t Chip_Clock_GetSSP0ClockDiv(void)
 328:../../lib/lpc11cx4-library/lpc_chip_11cxx_lib/inc/clock_11xx.h **** {
 329:../../lib/lpc11cx4-library/lpc_chip_11cxx_lib/inc/clock_11xx.h **** 	return LPC_SYSCTL->SSP0CLKDIV;
 330:../../lib/lpc11cx4-library/lpc_chip_11cxx_lib/inc/clock_11xx.h **** }
 331:../../lib/lpc11cx4-library/lpc_chip_11cxx_lib/inc/clock_11xx.h **** 
 332:../../lib/lpc11cx4-library/lpc_chip_11cxx_lib/inc/clock_11xx.h **** /**
 333:../../lib/lpc11cx4-library/lpc_chip_11cxx_lib/inc/clock_11xx.h ****  * @brief	Set UART divider clock
 334:../../lib/lpc11cx4-library/lpc_chip_11cxx_lib/inc/clock_11xx.h ****  * @param	div	: divider for UART clock
 335:../../lib/lpc11cx4-library/lpc_chip_11cxx_lib/inc/clock_11xx.h ****  * @return	Nothing
 336:../../lib/lpc11cx4-library/lpc_chip_11cxx_lib/inc/clock_11xx.h ****  * @note	Use 0 to disable, or a divider value of 1 to 255. The UART clock
 337:../../lib/lpc11cx4-library/lpc_chip_11cxx_lib/inc/clock_11xx.h ****  * rate is the main system clock divided by this value.
 338:../../lib/lpc11cx4-library/lpc_chip_11cxx_lib/inc/clock_11xx.h ****  */
 339:../../lib/lpc11cx4-library/lpc_chip_11cxx_lib/inc/clock_11xx.h **** STATIC INLINE void Chip_Clock_SetUARTClockDiv(uint32_t div)
 340:../../lib/lpc11cx4-library/lpc_chip_11cxx_lib/inc/clock_11xx.h **** {
 341:../../lib/lpc11cx4-library/lpc_chip_11cxx_lib/inc/clock_11xx.h **** 	LPC_SYSCTL->USARTCLKDIV  = div;
 126              		.loc 2 341 0
 127 0010 9822     		movs	r2, #152	@ tmp119,
 128 0012 7F39     		subs	r1, r1, #127	@ tmp120,
 129 0014 9950     		str	r1, [r3, r2]	@ tmp120, MEM[(struct LPC_SYSCTL_T *)1074036736B].USARTCLKDIV
 130              	.LVL2:
 131              	.LBE75:
 132              	.LBE74:
 133              	.LBB76:
 134              	.LBB77:
 135              		.file 3 "../../lib/lpc11cx4-library/lpc_chip_11cxx_lib/inc/uart_11xx.h"
   1:../../lib/lpc11cx4-library/lpc_chip_11cxx_lib/inc/uart_11xx.h **** /*
   2:../../lib/lpc11cx4-library/lpc_chip_11cxx_lib/inc/uart_11xx.h ****  * @brief LPC11xx UART chip driver
   3:../../lib/lpc11cx4-library/lpc_chip_11cxx_lib/inc/uart_11xx.h ****  *
   4:../../lib/lpc11cx4-library/lpc_chip_11cxx_lib/inc/uart_11xx.h ****  * @note
   5:../../lib/lpc11cx4-library/lpc_chip_11cxx_lib/inc/uart_11xx.h ****  * Copyright(C) NXP Semiconductors, 2012
   6:../../lib/lpc11cx4-library/lpc_chip_11cxx_lib/inc/uart_11xx.h ****  * All rights reserved.
   7:../../lib/lpc11cx4-library/lpc_chip_11cxx_lib/inc/uart_11xx.h ****  *
   8:../../lib/lpc11cx4-library/lpc_chip_11cxx_lib/inc/uart_11xx.h ****  * @par
   9:../../lib/lpc11cx4-library/lpc_chip_11cxx_lib/inc/uart_11xx.h ****  * Software that is described herein is for illustrative purposes only
  10:../../lib/lpc11cx4-library/lpc_chip_11cxx_lib/inc/uart_11xx.h ****  * which provides customers with programming information regarding the
  11:../../lib/lpc11cx4-library/lpc_chip_11cxx_lib/inc/uart_11xx.h ****  * LPC products.  This software is supplied "AS IS" without any warranties of
  12:../../lib/lpc11cx4-library/lpc_chip_11cxx_lib/inc/uart_11xx.h ****  * any kind, and NXP Semiconductors and its licensor disclaim any and
  13:../../lib/lpc11cx4-library/lpc_chip_11cxx_lib/inc/uart_11xx.h ****  * all warranties, express or implied, including all implied warranties of
  14:../../lib/lpc11cx4-library/lpc_chip_11cxx_lib/inc/uart_11xx.h ****  * merchantability, fitness for a particular purpose and non-infringement of
  15:../../lib/lpc11cx4-library/lpc_chip_11cxx_lib/inc/uart_11xx.h ****  * intellectual property rights.  NXP Semiconductors assumes no responsibility
  16:../../lib/lpc11cx4-library/lpc_chip_11cxx_lib/inc/uart_11xx.h ****  * or liability for the use of the software, conveys no license or rights under any
  17:../../lib/lpc11cx4-library/lpc_chip_11cxx_lib/inc/uart_11xx.h ****  * patent, copyright, mask work right, or any other intellectual property rights in
  18:../../lib/lpc11cx4-library/lpc_chip_11cxx_lib/inc/uart_11xx.h ****  * or to any products. NXP Semiconductors reserves the right to make changes
  19:../../lib/lpc11cx4-library/lpc_chip_11cxx_lib/inc/uart_11xx.h ****  * in the software without notification. NXP Semiconductors also makes no
  20:../../lib/lpc11cx4-library/lpc_chip_11cxx_lib/inc/uart_11xx.h ****  * representation or warranty that such application will be suitable for the
  21:../../lib/lpc11cx4-library/lpc_chip_11cxx_lib/inc/uart_11xx.h ****  * specified use without further testing or modification.
  22:../../lib/lpc11cx4-library/lpc_chip_11cxx_lib/inc/uart_11xx.h ****  *
  23:../../lib/lpc11cx4-library/lpc_chip_11cxx_lib/inc/uart_11xx.h ****  * @par
  24:../../lib/lpc11cx4-library/lpc_chip_11cxx_lib/inc/uart_11xx.h ****  * Permission to use, copy, modify, and distribute this software and its
  25:../../lib/lpc11cx4-library/lpc_chip_11cxx_lib/inc/uart_11xx.h ****  * documentation is hereby granted, under NXP Semiconductors' and its
  26:../../lib/lpc11cx4-library/lpc_chip_11cxx_lib/inc/uart_11xx.h ****  * licensor's relevant copyrights in the software, without fee, provided that it
  27:../../lib/lpc11cx4-library/lpc_chip_11cxx_lib/inc/uart_11xx.h ****  * is used in conjunction with NXP Semiconductors microcontrollers.  This
  28:../../lib/lpc11cx4-library/lpc_chip_11cxx_lib/inc/uart_11xx.h ****  * copyright, permission, and disclaimer notice must appear in all copies of
  29:../../lib/lpc11cx4-library/lpc_chip_11cxx_lib/inc/uart_11xx.h ****  * this code.
  30:../../lib/lpc11cx4-library/lpc_chip_11cxx_lib/inc/uart_11xx.h ****  */
ARM GAS  /var/folders/z0/6xlwn_996xz3mwq1cgzkbq4r0000gp/T//cckgJHwF.s 			page 11


  31:../../lib/lpc11cx4-library/lpc_chip_11cxx_lib/inc/uart_11xx.h **** 
  32:../../lib/lpc11cx4-library/lpc_chip_11cxx_lib/inc/uart_11xx.h **** #ifndef __UART_11XX_H_
  33:../../lib/lpc11cx4-library/lpc_chip_11cxx_lib/inc/uart_11xx.h **** #define __UART_11XX_H_
  34:../../lib/lpc11cx4-library/lpc_chip_11cxx_lib/inc/uart_11xx.h **** 
  35:../../lib/lpc11cx4-library/lpc_chip_11cxx_lib/inc/uart_11xx.h **** #include "ring_buffer.h"
  36:../../lib/lpc11cx4-library/lpc_chip_11cxx_lib/inc/uart_11xx.h **** 
  37:../../lib/lpc11cx4-library/lpc_chip_11cxx_lib/inc/uart_11xx.h **** #ifdef __cplusplus
  38:../../lib/lpc11cx4-library/lpc_chip_11cxx_lib/inc/uart_11xx.h **** extern "C" {
  39:../../lib/lpc11cx4-library/lpc_chip_11cxx_lib/inc/uart_11xx.h **** #endif
  40:../../lib/lpc11cx4-library/lpc_chip_11cxx_lib/inc/uart_11xx.h **** 
  41:../../lib/lpc11cx4-library/lpc_chip_11cxx_lib/inc/uart_11xx.h **** /** @defgroup UART_11XX CHIP: LPC11xx UART driver
  42:../../lib/lpc11cx4-library/lpc_chip_11cxx_lib/inc/uart_11xx.h ****  * @ingroup CHIP_11XX_Drivers
  43:../../lib/lpc11cx4-library/lpc_chip_11cxx_lib/inc/uart_11xx.h ****  * @{
  44:../../lib/lpc11cx4-library/lpc_chip_11cxx_lib/inc/uart_11xx.h ****  */
  45:../../lib/lpc11cx4-library/lpc_chip_11cxx_lib/inc/uart_11xx.h **** 
  46:../../lib/lpc11cx4-library/lpc_chip_11cxx_lib/inc/uart_11xx.h **** /**
  47:../../lib/lpc11cx4-library/lpc_chip_11cxx_lib/inc/uart_11xx.h ****  * @brief USART register block structure
  48:../../lib/lpc11cx4-library/lpc_chip_11cxx_lib/inc/uart_11xx.h ****  */
  49:../../lib/lpc11cx4-library/lpc_chip_11cxx_lib/inc/uart_11xx.h **** typedef struct {					/*!< USARTn Structure       */
  50:../../lib/lpc11cx4-library/lpc_chip_11cxx_lib/inc/uart_11xx.h **** 
  51:../../lib/lpc11cx4-library/lpc_chip_11cxx_lib/inc/uart_11xx.h **** 	union {
  52:../../lib/lpc11cx4-library/lpc_chip_11cxx_lib/inc/uart_11xx.h **** 		__IO uint32_t  DLL;			/*!< Divisor Latch LSB. Least significant byte of the baud rate divisor val
  53:../../lib/lpc11cx4-library/lpc_chip_11cxx_lib/inc/uart_11xx.h **** 		__O  uint32_t  THR;			/*!< Transmit Holding Register. The next character to be transmitted is wri
  54:../../lib/lpc11cx4-library/lpc_chip_11cxx_lib/inc/uart_11xx.h **** 		__I  uint32_t  RBR;			/*!< Receiver Buffer Register. Contains the next received character to be r
  55:../../lib/lpc11cx4-library/lpc_chip_11cxx_lib/inc/uart_11xx.h **** 	};
  56:../../lib/lpc11cx4-library/lpc_chip_11cxx_lib/inc/uart_11xx.h **** 
  57:../../lib/lpc11cx4-library/lpc_chip_11cxx_lib/inc/uart_11xx.h **** 	union {
  58:../../lib/lpc11cx4-library/lpc_chip_11cxx_lib/inc/uart_11xx.h **** 		__IO uint32_t IER;			/*!< Interrupt Enable Register. Contains individual interrupt enable bits fo
  59:../../lib/lpc11cx4-library/lpc_chip_11cxx_lib/inc/uart_11xx.h **** 		__IO uint32_t DLM;			/*!< Divisor Latch MSB. Most significant byte of the baud rate divisor value
  60:../../lib/lpc11cx4-library/lpc_chip_11cxx_lib/inc/uart_11xx.h **** 	};
  61:../../lib/lpc11cx4-library/lpc_chip_11cxx_lib/inc/uart_11xx.h **** 
  62:../../lib/lpc11cx4-library/lpc_chip_11cxx_lib/inc/uart_11xx.h **** 	union {
  63:../../lib/lpc11cx4-library/lpc_chip_11cxx_lib/inc/uart_11xx.h **** 		__O  uint32_t FCR;			/*!< FIFO Control Register. Controls UART FIFO usage and modes. */
  64:../../lib/lpc11cx4-library/lpc_chip_11cxx_lib/inc/uart_11xx.h **** 		__I  uint32_t IIR;			/*!< Interrupt ID Register. Identifies which interrupt(s) are pending. */
  65:../../lib/lpc11cx4-library/lpc_chip_11cxx_lib/inc/uart_11xx.h **** 	};
  66:../../lib/lpc11cx4-library/lpc_chip_11cxx_lib/inc/uart_11xx.h **** 
  67:../../lib/lpc11cx4-library/lpc_chip_11cxx_lib/inc/uart_11xx.h **** 	__IO uint32_t LCR;				/*!< Line Control Register. Contains controls for frame formatting and break
  68:../../lib/lpc11cx4-library/lpc_chip_11cxx_lib/inc/uart_11xx.h **** 	__IO uint32_t MCR;				/*!< Modem Control Register. Only present on USART ports with full modem sup
  69:../../lib/lpc11cx4-library/lpc_chip_11cxx_lib/inc/uart_11xx.h **** 	__I  uint32_t LSR;				/*!< Line Status Register. Contains flags for transmit and receive status, i
  70:../../lib/lpc11cx4-library/lpc_chip_11cxx_lib/inc/uart_11xx.h **** 	__I  uint32_t MSR;				/*!< Modem Status Register. Only present on USART ports with full modem supp
  71:../../lib/lpc11cx4-library/lpc_chip_11cxx_lib/inc/uart_11xx.h **** 	__IO uint32_t SCR;				/*!< Scratch Pad Register. Eight-bit temporary storage for software. */
  72:../../lib/lpc11cx4-library/lpc_chip_11cxx_lib/inc/uart_11xx.h **** 	__IO uint32_t ACR;				/*!< Auto-baud Control Register. Contains controls for the auto-baud feature
  73:../../lib/lpc11cx4-library/lpc_chip_11cxx_lib/inc/uart_11xx.h **** 	__IO uint32_t ICR;				/*!< IrDA control register (not all UARTS) */
  74:../../lib/lpc11cx4-library/lpc_chip_11cxx_lib/inc/uart_11xx.h **** 	__IO uint32_t FDR;				/*!< Fractional Divider Register. Generates a clock input for the baud rate 
  75:../../lib/lpc11cx4-library/lpc_chip_11cxx_lib/inc/uart_11xx.h **** 	__IO uint32_t OSR;				/*!< Oversampling Register. Controls the degree of oversampling during each 
  76:../../lib/lpc11cx4-library/lpc_chip_11cxx_lib/inc/uart_11xx.h **** 	__IO uint32_t TER1;				/*!< Transmit Enable Register. Turns off USART transmitter for use with sof
  77:../../lib/lpc11cx4-library/lpc_chip_11cxx_lib/inc/uart_11xx.h **** 	uint32_t  RESERVED0[3];
  78:../../lib/lpc11cx4-library/lpc_chip_11cxx_lib/inc/uart_11xx.h ****     __IO uint32_t HDEN;				/*!< Half-duplex enable Register- only on some UARTs */
  79:../../lib/lpc11cx4-library/lpc_chip_11cxx_lib/inc/uart_11xx.h **** 	__I  uint32_t RESERVED1[1];
  80:../../lib/lpc11cx4-library/lpc_chip_11cxx_lib/inc/uart_11xx.h **** 	__IO uint32_t SCICTRL;			/*!< Smart card interface control register- only on some UARTs */
  81:../../lib/lpc11cx4-library/lpc_chip_11cxx_lib/inc/uart_11xx.h **** 
  82:../../lib/lpc11cx4-library/lpc_chip_11cxx_lib/inc/uart_11xx.h **** 	__IO uint32_t RS485CTRL;		/*!< RS-485/EIA-485 Control. Contains controls to configure various aspe
  83:../../lib/lpc11cx4-library/lpc_chip_11cxx_lib/inc/uart_11xx.h **** 	__IO uint32_t RS485ADRMATCH;	/*!< RS-485/EIA-485 address match. Contains the address match value f
  84:../../lib/lpc11cx4-library/lpc_chip_11cxx_lib/inc/uart_11xx.h **** 	__IO uint32_t RS485DLY;			/*!< RS-485/EIA-485 direction control delay. */
  85:../../lib/lpc11cx4-library/lpc_chip_11cxx_lib/inc/uart_11xx.h **** 
  86:../../lib/lpc11cx4-library/lpc_chip_11cxx_lib/inc/uart_11xx.h **** 	union {
  87:../../lib/lpc11cx4-library/lpc_chip_11cxx_lib/inc/uart_11xx.h **** 		__IO uint32_t SYNCCTRL;		/*!< Synchronous mode control register. Only on USARTs. */
ARM GAS  /var/folders/z0/6xlwn_996xz3mwq1cgzkbq4r0000gp/T//cckgJHwF.s 			page 12


  88:../../lib/lpc11cx4-library/lpc_chip_11cxx_lib/inc/uart_11xx.h **** 		__I  uint32_t FIFOLVL;		/*!< FIFO Level register. Provides the current fill levels of the transmi
  89:../../lib/lpc11cx4-library/lpc_chip_11cxx_lib/inc/uart_11xx.h **** 	};
  90:../../lib/lpc11cx4-library/lpc_chip_11cxx_lib/inc/uart_11xx.h **** 
  91:../../lib/lpc11cx4-library/lpc_chip_11cxx_lib/inc/uart_11xx.h **** 	__IO uint32_t TER2;				/*!< Transmit Enable Register. Only on LPC177X_8X UART4 and LPC18XX/43XX US
  92:../../lib/lpc11cx4-library/lpc_chip_11cxx_lib/inc/uart_11xx.h **** } LPC_USART_T;
  93:../../lib/lpc11cx4-library/lpc_chip_11cxx_lib/inc/uart_11xx.h **** 
  94:../../lib/lpc11cx4-library/lpc_chip_11cxx_lib/inc/uart_11xx.h **** 
  95:../../lib/lpc11cx4-library/lpc_chip_11cxx_lib/inc/uart_11xx.h **** /**
  96:../../lib/lpc11cx4-library/lpc_chip_11cxx_lib/inc/uart_11xx.h ****  * @brief Macro defines for UART Receive Buffer register
  97:../../lib/lpc11cx4-library/lpc_chip_11cxx_lib/inc/uart_11xx.h ****  */
  98:../../lib/lpc11cx4-library/lpc_chip_11cxx_lib/inc/uart_11xx.h **** #define UART_RBR_MASKBIT    (0xFF)		        /*!< UART Received Buffer mask bit (8 bits) */
  99:../../lib/lpc11cx4-library/lpc_chip_11cxx_lib/inc/uart_11xx.h **** 
 100:../../lib/lpc11cx4-library/lpc_chip_11cxx_lib/inc/uart_11xx.h **** /**
 101:../../lib/lpc11cx4-library/lpc_chip_11cxx_lib/inc/uart_11xx.h ****  * @brief Macro defines for UART Divisor Latch LSB register
 102:../../lib/lpc11cx4-library/lpc_chip_11cxx_lib/inc/uart_11xx.h ****  */
 103:../../lib/lpc11cx4-library/lpc_chip_11cxx_lib/inc/uart_11xx.h **** #define UART_LOAD_DLL(div)  ((div) & 0xFF)		/*!< Macro for loading LSB of divisor */
 104:../../lib/lpc11cx4-library/lpc_chip_11cxx_lib/inc/uart_11xx.h **** #define UART_DLL_MASKBIT    (0xFF)	            /*!< Divisor latch LSB bit mask */
 105:../../lib/lpc11cx4-library/lpc_chip_11cxx_lib/inc/uart_11xx.h **** 
 106:../../lib/lpc11cx4-library/lpc_chip_11cxx_lib/inc/uart_11xx.h **** /**
 107:../../lib/lpc11cx4-library/lpc_chip_11cxx_lib/inc/uart_11xx.h ****  * @brief Macro defines for UART Divisor Latch MSB register
 108:../../lib/lpc11cx4-library/lpc_chip_11cxx_lib/inc/uart_11xx.h ****  */
 109:../../lib/lpc11cx4-library/lpc_chip_11cxx_lib/inc/uart_11xx.h **** #define UART_LOAD_DLM(div)  (((div) >> 8) & 0xFF)	/*!< Macro for loading MSB of divisors */
 110:../../lib/lpc11cx4-library/lpc_chip_11cxx_lib/inc/uart_11xx.h **** #define UART_DLM_MASKBIT    (0xFF)		            /*!< Divisor latch MSB bit mask */
 111:../../lib/lpc11cx4-library/lpc_chip_11cxx_lib/inc/uart_11xx.h **** 
 112:../../lib/lpc11cx4-library/lpc_chip_11cxx_lib/inc/uart_11xx.h **** /**
 113:../../lib/lpc11cx4-library/lpc_chip_11cxx_lib/inc/uart_11xx.h ****  * @brief Macro defines for UART Interrupt Enable Register
 114:../../lib/lpc11cx4-library/lpc_chip_11cxx_lib/inc/uart_11xx.h ****  */
 115:../../lib/lpc11cx4-library/lpc_chip_11cxx_lib/inc/uart_11xx.h **** #define UART_IER_RBRINT      (1 << 0)	/*!< RBR Interrupt enable */
 116:../../lib/lpc11cx4-library/lpc_chip_11cxx_lib/inc/uart_11xx.h **** #define UART_IER_THREINT     (1 << 1)	/*!< THR Interrupt enable */
 117:../../lib/lpc11cx4-library/lpc_chip_11cxx_lib/inc/uart_11xx.h **** #define UART_IER_RLSINT      (1 << 2)	/*!< RX line status interrupt enable */
 118:../../lib/lpc11cx4-library/lpc_chip_11cxx_lib/inc/uart_11xx.h **** #define UART_IER_MSINT       (1 << 3)	/*!< Modem status interrupt enable - valid for 11xx, 17xx/40x
 119:../../lib/lpc11cx4-library/lpc_chip_11cxx_lib/inc/uart_11xx.h **** #define UART_IER_CTSINT      (1 << 7)	/*!< CTS signal transition interrupt enable - valid for 17xx/
 120:../../lib/lpc11cx4-library/lpc_chip_11cxx_lib/inc/uart_11xx.h **** #define UART_IER_ABEOINT     (1 << 8)	/*!< Enables the end of auto-baud interrupt */
 121:../../lib/lpc11cx4-library/lpc_chip_11cxx_lib/inc/uart_11xx.h **** #define UART_IER_ABTOINT     (1 << 9)	/*!< Enables the auto-baud time-out interrupt */
 122:../../lib/lpc11cx4-library/lpc_chip_11cxx_lib/inc/uart_11xx.h **** #define UART_IER_BITMASK     (0x307)	/*!< UART interrupt enable register bit mask  - valid for 13xx
 123:../../lib/lpc11cx4-library/lpc_chip_11cxx_lib/inc/uart_11xx.h **** #define UART1_IER_BITMASK    (0x30F)	/*!< UART1 interrupt enable register bit mask - valid for 11xx
 124:../../lib/lpc11cx4-library/lpc_chip_11cxx_lib/inc/uart_11xx.h **** #define UART2_IER_BITMASK    (0x38F)	/*!< UART2 interrupt enable register bit mask - valid for 17xx
 125:../../lib/lpc11cx4-library/lpc_chip_11cxx_lib/inc/uart_11xx.h **** 
 126:../../lib/lpc11cx4-library/lpc_chip_11cxx_lib/inc/uart_11xx.h **** /**
 127:../../lib/lpc11cx4-library/lpc_chip_11cxx_lib/inc/uart_11xx.h ****  * @brief Macro defines for UART Interrupt Identification Register
 128:../../lib/lpc11cx4-library/lpc_chip_11cxx_lib/inc/uart_11xx.h ****  */
 129:../../lib/lpc11cx4-library/lpc_chip_11cxx_lib/inc/uart_11xx.h **** #define UART_IIR_INTSTAT_PEND   (1 << 0)	/*!< Interrupt pending status - Active low */
 130:../../lib/lpc11cx4-library/lpc_chip_11cxx_lib/inc/uart_11xx.h **** #define UART_IIR_FIFO_EN        (3 << 6)	/*!< These bits are equivalent to FCR[0] */
 131:../../lib/lpc11cx4-library/lpc_chip_11cxx_lib/inc/uart_11xx.h **** #define UART_IIR_ABEO_INT       (1 << 8)	/*!< End of auto-baud interrupt */
 132:../../lib/lpc11cx4-library/lpc_chip_11cxx_lib/inc/uart_11xx.h **** #define UART_IIR_ABTO_INT       (1 << 9)	/*!< Auto-baud time-out interrupt */
 133:../../lib/lpc11cx4-library/lpc_chip_11cxx_lib/inc/uart_11xx.h **** #define UART_IIR_BITMASK        (0x3CF)		/*!< UART interrupt identification register bit mask */
 134:../../lib/lpc11cx4-library/lpc_chip_11cxx_lib/inc/uart_11xx.h **** 
 135:../../lib/lpc11cx4-library/lpc_chip_11cxx_lib/inc/uart_11xx.h **** /* Interrupt ID bit definitions */
 136:../../lib/lpc11cx4-library/lpc_chip_11cxx_lib/inc/uart_11xx.h **** #define UART_IIR_INTID_MASK     (7 << 1)	/*!< Interrupt identification: Interrupt ID mask */
 137:../../lib/lpc11cx4-library/lpc_chip_11cxx_lib/inc/uart_11xx.h **** #define UART_IIR_INTID_RLS      (3 << 1)	/*!< Interrupt identification: Receive line interrupt */
 138:../../lib/lpc11cx4-library/lpc_chip_11cxx_lib/inc/uart_11xx.h **** #define UART_IIR_INTID_RDA      (2 << 1)	/*!< Interrupt identification: Receive data available inte
 139:../../lib/lpc11cx4-library/lpc_chip_11cxx_lib/inc/uart_11xx.h **** #define UART_IIR_INTID_CTI      (6 << 1)	/*!< Interrupt identification: Character time-out indicato
 140:../../lib/lpc11cx4-library/lpc_chip_11cxx_lib/inc/uart_11xx.h **** #define UART_IIR_INTID_THRE     (1 << 1)	/*!< Interrupt identification: THRE interrupt */
 141:../../lib/lpc11cx4-library/lpc_chip_11cxx_lib/inc/uart_11xx.h **** #define UART_IIR_INTID_MODEM    (0 << 1)	/*!< Interrupt identification: Modem interrupt */
 142:../../lib/lpc11cx4-library/lpc_chip_11cxx_lib/inc/uart_11xx.h **** 
 143:../../lib/lpc11cx4-library/lpc_chip_11cxx_lib/inc/uart_11xx.h **** /**
 144:../../lib/lpc11cx4-library/lpc_chip_11cxx_lib/inc/uart_11xx.h ****  * @brief Macro defines for UART FIFO Control Register
ARM GAS  /var/folders/z0/6xlwn_996xz3mwq1cgzkbq4r0000gp/T//cckgJHwF.s 			page 13


 145:../../lib/lpc11cx4-library/lpc_chip_11cxx_lib/inc/uart_11xx.h ****  */
 146:../../lib/lpc11cx4-library/lpc_chip_11cxx_lib/inc/uart_11xx.h **** #define UART_FCR_FIFO_EN        (1 << 0)	/*!< UART FIFO enable */
 147:../../lib/lpc11cx4-library/lpc_chip_11cxx_lib/inc/uart_11xx.h **** #define UART_FCR_RX_RS          (1 << 1)	/*!< UART RX FIFO reset */
 148:../../lib/lpc11cx4-library/lpc_chip_11cxx_lib/inc/uart_11xx.h **** #define UART_FCR_TX_RS          (1 << 2)	/*!< UART TX FIFO reset */
 149:../../lib/lpc11cx4-library/lpc_chip_11cxx_lib/inc/uart_11xx.h **** #define UART_FCR_DMAMODE_SEL    (1 << 3)	/*!< UART DMA mode selection - valid for 17xx/40xx, 18xx/4
 150:../../lib/lpc11cx4-library/lpc_chip_11cxx_lib/inc/uart_11xx.h **** #define UART_FCR_BITMASK        (0xCF)		/*!< UART FIFO control bit mask */
 151:../../lib/lpc11cx4-library/lpc_chip_11cxx_lib/inc/uart_11xx.h **** 
 152:../../lib/lpc11cx4-library/lpc_chip_11cxx_lib/inc/uart_11xx.h **** #define UART_TX_FIFO_SIZE       (16)
 153:../../lib/lpc11cx4-library/lpc_chip_11cxx_lib/inc/uart_11xx.h **** 
 154:../../lib/lpc11cx4-library/lpc_chip_11cxx_lib/inc/uart_11xx.h **** /* FIFO trigger level bit definitions */
 155:../../lib/lpc11cx4-library/lpc_chip_11cxx_lib/inc/uart_11xx.h **** #define UART_FCR_TRG_LEV0       (0)			/*!< UART FIFO trigger level 0: 1 character */
 156:../../lib/lpc11cx4-library/lpc_chip_11cxx_lib/inc/uart_11xx.h **** #define UART_FCR_TRG_LEV1       (1 << 6)	/*!< UART FIFO trigger level 1: 4 character */
 157:../../lib/lpc11cx4-library/lpc_chip_11cxx_lib/inc/uart_11xx.h **** #define UART_FCR_TRG_LEV2       (2 << 6)	/*!< UART FIFO trigger level 2: 8 character */
 158:../../lib/lpc11cx4-library/lpc_chip_11cxx_lib/inc/uart_11xx.h **** #define UART_FCR_TRG_LEV3       (3 << 6)	/*!< UART FIFO trigger level 3: 14 character */
 159:../../lib/lpc11cx4-library/lpc_chip_11cxx_lib/inc/uart_11xx.h **** 
 160:../../lib/lpc11cx4-library/lpc_chip_11cxx_lib/inc/uart_11xx.h **** /**
 161:../../lib/lpc11cx4-library/lpc_chip_11cxx_lib/inc/uart_11xx.h ****  * @brief Macro defines for UART Line Control Register
 162:../../lib/lpc11cx4-library/lpc_chip_11cxx_lib/inc/uart_11xx.h ****  */
 163:../../lib/lpc11cx4-library/lpc_chip_11cxx_lib/inc/uart_11xx.h **** /* UART word length select bit definitions */
 164:../../lib/lpc11cx4-library/lpc_chip_11cxx_lib/inc/uart_11xx.h **** #define UART_LCR_WLEN_MASK      (3 << 0)		/*!< UART word length select bit mask */
 165:../../lib/lpc11cx4-library/lpc_chip_11cxx_lib/inc/uart_11xx.h **** #define UART_LCR_WLEN5          (0 << 0)		/*!< UART word length select: 5 bit data mode */
 166:../../lib/lpc11cx4-library/lpc_chip_11cxx_lib/inc/uart_11xx.h **** #define UART_LCR_WLEN6          (1 << 0)		/*!< UART word length select: 6 bit data mode */
 167:../../lib/lpc11cx4-library/lpc_chip_11cxx_lib/inc/uart_11xx.h **** #define UART_LCR_WLEN7          (2 << 0)		/*!< UART word length select: 7 bit data mode */
 168:../../lib/lpc11cx4-library/lpc_chip_11cxx_lib/inc/uart_11xx.h **** #define UART_LCR_WLEN8          (3 << 0)		/*!< UART word length select: 8 bit data mode */
 169:../../lib/lpc11cx4-library/lpc_chip_11cxx_lib/inc/uart_11xx.h **** 
 170:../../lib/lpc11cx4-library/lpc_chip_11cxx_lib/inc/uart_11xx.h **** /* UART Stop bit select bit definitions */
 171:../../lib/lpc11cx4-library/lpc_chip_11cxx_lib/inc/uart_11xx.h **** #define UART_LCR_SBS_MASK       (1 << 2)		/*!< UART stop bit select: bit mask */
 172:../../lib/lpc11cx4-library/lpc_chip_11cxx_lib/inc/uart_11xx.h **** #define UART_LCR_SBS_1BIT       (0 << 2)		/*!< UART stop bit select: 1 stop bit */
 173:../../lib/lpc11cx4-library/lpc_chip_11cxx_lib/inc/uart_11xx.h **** #define UART_LCR_SBS_2BIT       (1 << 2)		/*!< UART stop bit select: 2 stop bits (in 5 bit data mod
 174:../../lib/lpc11cx4-library/lpc_chip_11cxx_lib/inc/uart_11xx.h **** 
 175:../../lib/lpc11cx4-library/lpc_chip_11cxx_lib/inc/uart_11xx.h **** /* UART Parity enable bit definitions */
 176:../../lib/lpc11cx4-library/lpc_chip_11cxx_lib/inc/uart_11xx.h **** #define UART_LCR_PARITY_EN      (1 << 3)		/*!< UART Parity Enable */
 177:../../lib/lpc11cx4-library/lpc_chip_11cxx_lib/inc/uart_11xx.h **** #define UART_LCR_PARITY_DIS     (0 << 3)		/*!< UART Parity Disable */
 178:../../lib/lpc11cx4-library/lpc_chip_11cxx_lib/inc/uart_11xx.h **** #define UART_LCR_PARITY_ODD     (0 << 4)		/*!< UART Parity select: Odd parity */
 179:../../lib/lpc11cx4-library/lpc_chip_11cxx_lib/inc/uart_11xx.h **** #define UART_LCR_PARITY_EVEN    (1 << 4)		/*!< UART Parity select: Even parity */
 180:../../lib/lpc11cx4-library/lpc_chip_11cxx_lib/inc/uart_11xx.h **** #define UART_LCR_PARITY_F_1     (2 << 4)		/*!< UART Parity select: Forced 1 stick parity */
 181:../../lib/lpc11cx4-library/lpc_chip_11cxx_lib/inc/uart_11xx.h **** #define UART_LCR_PARITY_F_0     (3 << 4)		/*!< UART Parity select: Forced 0 stick parity */
 182:../../lib/lpc11cx4-library/lpc_chip_11cxx_lib/inc/uart_11xx.h **** #define UART_LCR_BREAK_EN       (1 << 6)		/*!< UART Break transmission enable */
 183:../../lib/lpc11cx4-library/lpc_chip_11cxx_lib/inc/uart_11xx.h **** #define UART_LCR_DLAB_EN        (1 << 7)		/*!< UART Divisor Latches Access bit enable */
 184:../../lib/lpc11cx4-library/lpc_chip_11cxx_lib/inc/uart_11xx.h **** #define UART_LCR_BITMASK        (0xFF)			/*!< UART line control bit mask */
 185:../../lib/lpc11cx4-library/lpc_chip_11cxx_lib/inc/uart_11xx.h **** 
 186:../../lib/lpc11cx4-library/lpc_chip_11cxx_lib/inc/uart_11xx.h **** /**
 187:../../lib/lpc11cx4-library/lpc_chip_11cxx_lib/inc/uart_11xx.h ****  * @brief Macro defines for UART Modem Control Register
 188:../../lib/lpc11cx4-library/lpc_chip_11cxx_lib/inc/uart_11xx.h ****  */
 189:../../lib/lpc11cx4-library/lpc_chip_11cxx_lib/inc/uart_11xx.h **** #define UART_MCR_DTR_CTRL       (1 << 0)		/*!< Source for modem output pin DTR */
 190:../../lib/lpc11cx4-library/lpc_chip_11cxx_lib/inc/uart_11xx.h **** #define UART_MCR_RTS_CTRL       (1 << 1)		/*!< Source for modem output pin RTS */
 191:../../lib/lpc11cx4-library/lpc_chip_11cxx_lib/inc/uart_11xx.h **** #define UART_MCR_LOOPB_EN       (1 << 4)		/*!< Loop back mode select */
 192:../../lib/lpc11cx4-library/lpc_chip_11cxx_lib/inc/uart_11xx.h **** #define UART_MCR_AUTO_RTS_EN    (1 << 6)		/*!< Enable Auto RTS flow-control */
 193:../../lib/lpc11cx4-library/lpc_chip_11cxx_lib/inc/uart_11xx.h **** #define UART_MCR_AUTO_CTS_EN    (1 << 7)		/*!< Enable Auto CTS flow-control */
 194:../../lib/lpc11cx4-library/lpc_chip_11cxx_lib/inc/uart_11xx.h **** #define UART_MCR_BITMASK        (0xD3)			/*!< UART bit mask value */
 195:../../lib/lpc11cx4-library/lpc_chip_11cxx_lib/inc/uart_11xx.h **** 
 196:../../lib/lpc11cx4-library/lpc_chip_11cxx_lib/inc/uart_11xx.h **** /**
 197:../../lib/lpc11cx4-library/lpc_chip_11cxx_lib/inc/uart_11xx.h ****  * @brief Macro defines for UART Line Status Register
 198:../../lib/lpc11cx4-library/lpc_chip_11cxx_lib/inc/uart_11xx.h ****  */
 199:../../lib/lpc11cx4-library/lpc_chip_11cxx_lib/inc/uart_11xx.h **** #define UART_LSR_RDR        (1 << 0)	/*!< Line status: Receive data ready */
 200:../../lib/lpc11cx4-library/lpc_chip_11cxx_lib/inc/uart_11xx.h **** #define UART_LSR_OE         (1 << 1)	/*!< Line status: Overrun error */
 201:../../lib/lpc11cx4-library/lpc_chip_11cxx_lib/inc/uart_11xx.h **** #define UART_LSR_PE         (1 << 2)	/*!< Line status: Parity error */
ARM GAS  /var/folders/z0/6xlwn_996xz3mwq1cgzkbq4r0000gp/T//cckgJHwF.s 			page 14


 202:../../lib/lpc11cx4-library/lpc_chip_11cxx_lib/inc/uart_11xx.h **** #define UART_LSR_FE         (1 << 3)	/*!< Line status: Framing error */
 203:../../lib/lpc11cx4-library/lpc_chip_11cxx_lib/inc/uart_11xx.h **** #define UART_LSR_BI         (1 << 4)	/*!< Line status: Break interrupt */
 204:../../lib/lpc11cx4-library/lpc_chip_11cxx_lib/inc/uart_11xx.h **** #define UART_LSR_THRE       (1 << 5)	/*!< Line status: Transmit holding register empty */
 205:../../lib/lpc11cx4-library/lpc_chip_11cxx_lib/inc/uart_11xx.h **** #define UART_LSR_TEMT       (1 << 6)	/*!< Line status: Transmitter empty */
 206:../../lib/lpc11cx4-library/lpc_chip_11cxx_lib/inc/uart_11xx.h **** #define UART_LSR_RXFE       (1 << 7)	/*!< Line status: Error in RX FIFO */
 207:../../lib/lpc11cx4-library/lpc_chip_11cxx_lib/inc/uart_11xx.h **** #define UART_LSR_TXFE       (1 << 8)	/*!< Line status: Error in RX FIFO */
 208:../../lib/lpc11cx4-library/lpc_chip_11cxx_lib/inc/uart_11xx.h **** #define UART_LSR_BITMASK    (0xFF)		/*!< UART Line status bit mask */
 209:../../lib/lpc11cx4-library/lpc_chip_11cxx_lib/inc/uart_11xx.h **** #define UART1_LSR_BITMASK   (0x1FF)		/*!< UART1 Line status bit mask - valid for 11xx, 18xx/43xx UA
 210:../../lib/lpc11cx4-library/lpc_chip_11cxx_lib/inc/uart_11xx.h **** 
 211:../../lib/lpc11cx4-library/lpc_chip_11cxx_lib/inc/uart_11xx.h **** /**
 212:../../lib/lpc11cx4-library/lpc_chip_11cxx_lib/inc/uart_11xx.h ****  * @brief Macro defines for UART Modem Status Register
 213:../../lib/lpc11cx4-library/lpc_chip_11cxx_lib/inc/uart_11xx.h ****  */
 214:../../lib/lpc11cx4-library/lpc_chip_11cxx_lib/inc/uart_11xx.h **** #define UART_MSR_DELTA_CTS      (1 << 0)	/*!< Modem status: State change of input CTS */
 215:../../lib/lpc11cx4-library/lpc_chip_11cxx_lib/inc/uart_11xx.h **** #define UART_MSR_DELTA_DSR      (1 << 1)	/*!< Modem status: State change of input DSR */
 216:../../lib/lpc11cx4-library/lpc_chip_11cxx_lib/inc/uart_11xx.h **** #define UART_MSR_LO2HI_RI       (1 << 2)	/*!< Modem status: Low to high transition of input RI */
 217:../../lib/lpc11cx4-library/lpc_chip_11cxx_lib/inc/uart_11xx.h **** #define UART_MSR_DELTA_DCD      (1 << 3)	/*!< Modem status: State change of input DCD */
 218:../../lib/lpc11cx4-library/lpc_chip_11cxx_lib/inc/uart_11xx.h **** #define UART_MSR_CTS            (1 << 4)	/*!< Modem status: Clear To Send State */
 219:../../lib/lpc11cx4-library/lpc_chip_11cxx_lib/inc/uart_11xx.h **** #define UART_MSR_DSR            (1 << 5)	/*!< Modem status: Data Set Ready State */
 220:../../lib/lpc11cx4-library/lpc_chip_11cxx_lib/inc/uart_11xx.h **** #define UART_MSR_RI             (1 << 6)	/*!< Modem status: Ring Indicator State */
 221:../../lib/lpc11cx4-library/lpc_chip_11cxx_lib/inc/uart_11xx.h **** #define UART_MSR_DCD            (1 << 7)	/*!< Modem status: Data Carrier Detect State */
 222:../../lib/lpc11cx4-library/lpc_chip_11cxx_lib/inc/uart_11xx.h **** #define UART_MSR_BITMASK        (0xFF)		/*!< Modem status: MSR register bit-mask value */
 223:../../lib/lpc11cx4-library/lpc_chip_11cxx_lib/inc/uart_11xx.h **** 
 224:../../lib/lpc11cx4-library/lpc_chip_11cxx_lib/inc/uart_11xx.h **** /**
 225:../../lib/lpc11cx4-library/lpc_chip_11cxx_lib/inc/uart_11xx.h ****  * @brief Macro defines for UART Auto baudrate control register
 226:../../lib/lpc11cx4-library/lpc_chip_11cxx_lib/inc/uart_11xx.h ****  */
 227:../../lib/lpc11cx4-library/lpc_chip_11cxx_lib/inc/uart_11xx.h **** #define UART_ACR_START              (1 << 0)	/*!< UART Auto-baud start */
 228:../../lib/lpc11cx4-library/lpc_chip_11cxx_lib/inc/uart_11xx.h **** #define UART_ACR_MODE               (1 << 1)	/*!< UART Auto baudrate Mode 1 */
 229:../../lib/lpc11cx4-library/lpc_chip_11cxx_lib/inc/uart_11xx.h **** #define UART_ACR_AUTO_RESTART       (1 << 2)	/*!< UART Auto baudrate restart */
 230:../../lib/lpc11cx4-library/lpc_chip_11cxx_lib/inc/uart_11xx.h **** #define UART_ACR_ABEOINT_CLR        (1 << 8)	/*!< UART End of auto-baud interrupt clear */
 231:../../lib/lpc11cx4-library/lpc_chip_11cxx_lib/inc/uart_11xx.h **** #define UART_ACR_ABTOINT_CLR        (1 << 9)	/*!< UART Auto-baud time-out interrupt clear */
 232:../../lib/lpc11cx4-library/lpc_chip_11cxx_lib/inc/uart_11xx.h **** #define UART_ACR_BITMASK            (0x307)		/*!< UART Auto Baudrate register bit mask */
 233:../../lib/lpc11cx4-library/lpc_chip_11cxx_lib/inc/uart_11xx.h **** 
 234:../../lib/lpc11cx4-library/lpc_chip_11cxx_lib/inc/uart_11xx.h **** /**
 235:../../lib/lpc11cx4-library/lpc_chip_11cxx_lib/inc/uart_11xx.h ****  * @brief Macro defines for UART RS485 Control register
 236:../../lib/lpc11cx4-library/lpc_chip_11cxx_lib/inc/uart_11xx.h ****  */
 237:../../lib/lpc11cx4-library/lpc_chip_11cxx_lib/inc/uart_11xx.h **** #define UART_RS485CTRL_NMM_EN       (1 << 0)	/*!< RS-485/EIA-485 Normal Multi-drop Mode (NMM) is di
 238:../../lib/lpc11cx4-library/lpc_chip_11cxx_lib/inc/uart_11xx.h **** #define UART_RS485CTRL_RX_DIS       (1 << 1)	/*!< The receiver is disabled */
 239:../../lib/lpc11cx4-library/lpc_chip_11cxx_lib/inc/uart_11xx.h **** #define UART_RS485CTRL_AADEN        (1 << 2)	/*!< Auto Address Detect (AAD) is enabled */
 240:../../lib/lpc11cx4-library/lpc_chip_11cxx_lib/inc/uart_11xx.h **** #define UART_RS485CTRL_SEL_DTR      (1 << 3)	/*!< If direction control is enabled (bit DCTRL = 1), 
 241:../../lib/lpc11cx4-library/lpc_chip_11cxx_lib/inc/uart_11xx.h **** 												        used for direction control */
 242:../../lib/lpc11cx4-library/lpc_chip_11cxx_lib/inc/uart_11xx.h **** #define UART_RS485CTRL_DCTRL_EN     (1 << 4)	/*!< Enable Auto Direction Control */
 243:../../lib/lpc11cx4-library/lpc_chip_11cxx_lib/inc/uart_11xx.h **** #define UART_RS485CTRL_OINV_1       (1 << 5)	/*!< This bit reverses the polarity of the direction
 244:../../lib/lpc11cx4-library/lpc_chip_11cxx_lib/inc/uart_11xx.h **** 												       control signal on the RTS (or DTR) pin. The direction control pin
 245:../../lib/lpc11cx4-library/lpc_chip_11cxx_lib/inc/uart_11xx.h **** 												       will be driven to logic "1" when the transmitter has data to be sent */
 246:../../lib/lpc11cx4-library/lpc_chip_11cxx_lib/inc/uart_11xx.h **** #define UART_RS485CTRL_BITMASK      (0x3F)		/*!< RS485 control bit-mask value */
 247:../../lib/lpc11cx4-library/lpc_chip_11cxx_lib/inc/uart_11xx.h **** 
 248:../../lib/lpc11cx4-library/lpc_chip_11cxx_lib/inc/uart_11xx.h **** /**
 249:../../lib/lpc11cx4-library/lpc_chip_11cxx_lib/inc/uart_11xx.h ****  * @brief Macro defines for UART IrDA Control Register - valid for 11xx, 17xx/40xx UART0/2/3, 18xx/
 250:../../lib/lpc11cx4-library/lpc_chip_11cxx_lib/inc/uart_11xx.h ****  */
 251:../../lib/lpc11cx4-library/lpc_chip_11cxx_lib/inc/uart_11xx.h **** #define UART_ICR_IRDAEN         (1 << 0)			/*!< IrDA mode enable */
 252:../../lib/lpc11cx4-library/lpc_chip_11cxx_lib/inc/uart_11xx.h **** #define UART_ICR_IRDAINV        (1 << 1)			/*!< IrDA serial input inverted */
 253:../../lib/lpc11cx4-library/lpc_chip_11cxx_lib/inc/uart_11xx.h **** #define UART_ICR_FIXPULSE_EN    (1 << 2)			/*!< IrDA fixed pulse width mode */
 254:../../lib/lpc11cx4-library/lpc_chip_11cxx_lib/inc/uart_11xx.h **** #define UART_ICR_PULSEDIV(n)    ((n & 0x07) << 3)	/*!< PulseDiv - Configures the pulse when FixPuls
 255:../../lib/lpc11cx4-library/lpc_chip_11cxx_lib/inc/uart_11xx.h **** #define UART_ICR_BITMASK        (0x3F)				/*!< UART IRDA bit mask */
 256:../../lib/lpc11cx4-library/lpc_chip_11cxx_lib/inc/uart_11xx.h **** 
 257:../../lib/lpc11cx4-library/lpc_chip_11cxx_lib/inc/uart_11xx.h **** /**
 258:../../lib/lpc11cx4-library/lpc_chip_11cxx_lib/inc/uart_11xx.h ****  * @brief Macro defines for UART half duplex register - ????
ARM GAS  /var/folders/z0/6xlwn_996xz3mwq1cgzkbq4r0000gp/T//cckgJHwF.s 			page 15


 259:../../lib/lpc11cx4-library/lpc_chip_11cxx_lib/inc/uart_11xx.h ****  */
 260:../../lib/lpc11cx4-library/lpc_chip_11cxx_lib/inc/uart_11xx.h **** #define UART_HDEN_HDEN          ((1 << 0))			/*!< enable half-duplex mode*/
 261:../../lib/lpc11cx4-library/lpc_chip_11cxx_lib/inc/uart_11xx.h **** 
 262:../../lib/lpc11cx4-library/lpc_chip_11cxx_lib/inc/uart_11xx.h **** /**
 263:../../lib/lpc11cx4-library/lpc_chip_11cxx_lib/inc/uart_11xx.h ****  * @brief Macro defines for UART Smart card interface Control Register - valid for 11xx, 18xx/43xx 
 264:../../lib/lpc11cx4-library/lpc_chip_11cxx_lib/inc/uart_11xx.h ****  */
 265:../../lib/lpc11cx4-library/lpc_chip_11cxx_lib/inc/uart_11xx.h **** #define UART_SCICTRL_SCIEN        (1 << 0)			/*!< enable asynchronous half-duplex smart card interf
 266:../../lib/lpc11cx4-library/lpc_chip_11cxx_lib/inc/uart_11xx.h **** #define UART_SCICTRL_NACKDIS      (1 << 1)			/*!< NACK response is inhibited*/
 267:../../lib/lpc11cx4-library/lpc_chip_11cxx_lib/inc/uart_11xx.h **** #define UART_SCICTRL_PROTSEL_T1   (1 << 2)			/*!< ISO7816-3 protocol T1 is selected*/
 268:../../lib/lpc11cx4-library/lpc_chip_11cxx_lib/inc/uart_11xx.h **** #define UART_SCICTRL_TXRETRY(n)   ((n & 0x07) << 5)	/*!< number of retransmission*/
 269:../../lib/lpc11cx4-library/lpc_chip_11cxx_lib/inc/uart_11xx.h **** #define UART_SCICTRL_GUARDTIME(n) ((n & 0xFF) << 8)	/*!< Extra guard time*/
 270:../../lib/lpc11cx4-library/lpc_chip_11cxx_lib/inc/uart_11xx.h **** 
 271:../../lib/lpc11cx4-library/lpc_chip_11cxx_lib/inc/uart_11xx.h **** /**
 272:../../lib/lpc11cx4-library/lpc_chip_11cxx_lib/inc/uart_11xx.h ****  * @brief Macro defines for UART Fractional Divider Register
 273:../../lib/lpc11cx4-library/lpc_chip_11cxx_lib/inc/uart_11xx.h ****  */
 274:../../lib/lpc11cx4-library/lpc_chip_11cxx_lib/inc/uart_11xx.h **** #define UART_FDR_DIVADDVAL(n)   (n & 0x0F)			/*!< Baud-rate generation pre-scaler divisor */
 275:../../lib/lpc11cx4-library/lpc_chip_11cxx_lib/inc/uart_11xx.h **** #define UART_FDR_MULVAL(n)      ((n << 4) & 0xF0)	/*!< Baud-rate pre-scaler multiplier value */
 276:../../lib/lpc11cx4-library/lpc_chip_11cxx_lib/inc/uart_11xx.h **** #define UART_FDR_BITMASK        (0xFF)				/*!< UART Fractional Divider register bit mask */
 277:../../lib/lpc11cx4-library/lpc_chip_11cxx_lib/inc/uart_11xx.h **** 
 278:../../lib/lpc11cx4-library/lpc_chip_11cxx_lib/inc/uart_11xx.h **** /**
 279:../../lib/lpc11cx4-library/lpc_chip_11cxx_lib/inc/uart_11xx.h ****  * @brief Macro defines for UART Tx Enable Register
 280:../../lib/lpc11cx4-library/lpc_chip_11cxx_lib/inc/uart_11xx.h ****  */
 281:../../lib/lpc11cx4-library/lpc_chip_11cxx_lib/inc/uart_11xx.h **** #define UART_TER1_TXEN      (1 << 7)		/*!< Transmit enable bit  - valid for 11xx, 13xx, 17xx/40xx o
 282:../../lib/lpc11cx4-library/lpc_chip_11cxx_lib/inc/uart_11xx.h **** #define UART_TER2_TXEN      (1 << 0)		/*!< Transmit enable bit  - valid for 18xx/43xx only */
 283:../../lib/lpc11cx4-library/lpc_chip_11cxx_lib/inc/uart_11xx.h **** 
 284:../../lib/lpc11cx4-library/lpc_chip_11cxx_lib/inc/uart_11xx.h **** /**
 285:../../lib/lpc11cx4-library/lpc_chip_11cxx_lib/inc/uart_11xx.h ****  * @brief Macro defines for UART Synchronous Control Register - 11xx, 18xx/43xx UART0/2/3 only 
 286:../../lib/lpc11cx4-library/lpc_chip_11cxx_lib/inc/uart_11xx.h ****  */
 287:../../lib/lpc11cx4-library/lpc_chip_11cxx_lib/inc/uart_11xx.h **** #define UART_SYNCCTRL_SYNC             (1 << 0)			/*!< enable synchronous mode*/
 288:../../lib/lpc11cx4-library/lpc_chip_11cxx_lib/inc/uart_11xx.h **** #define UART_SYNCCTRL_CSRC_MASTER      (1 << 1)  		/*!< synchronous master mode*/
 289:../../lib/lpc11cx4-library/lpc_chip_11cxx_lib/inc/uart_11xx.h **** #define UART_SYNCCTRL_FES              (1 << 2)			/*!< sample on falling edge*/
 290:../../lib/lpc11cx4-library/lpc_chip_11cxx_lib/inc/uart_11xx.h **** #define UART_SYNCCTRL_TSBYPASS         (1 << 3)			/*!< to be defined*/
 291:../../lib/lpc11cx4-library/lpc_chip_11cxx_lib/inc/uart_11xx.h **** #define UART_SYNCCTRL_CSCEN            (1 << 4)			/*!< Continuous running clock enable (master mode
 292:../../lib/lpc11cx4-library/lpc_chip_11cxx_lib/inc/uart_11xx.h **** #define UART_SYNCCTRL_STARTSTOPDISABLE (1 << 5)	        /*!< Do not send start/stop bit*/
 293:../../lib/lpc11cx4-library/lpc_chip_11cxx_lib/inc/uart_11xx.h **** #define UART_SYNCCTRL_CCCLR            (1 << 6)			/*!< stop continuous clock*/
 294:../../lib/lpc11cx4-library/lpc_chip_11cxx_lib/inc/uart_11xx.h **** 
 295:../../lib/lpc11cx4-library/lpc_chip_11cxx_lib/inc/uart_11xx.h **** /**
 296:../../lib/lpc11cx4-library/lpc_chip_11cxx_lib/inc/uart_11xx.h ****  * @brief	Enable transmission on UART TxD pin
 297:../../lib/lpc11cx4-library/lpc_chip_11cxx_lib/inc/uart_11xx.h ****  * @param	pUART	: Pointer to selected pUART peripheral
 298:../../lib/lpc11cx4-library/lpc_chip_11cxx_lib/inc/uart_11xx.h ****  * @return Nothing
 299:../../lib/lpc11cx4-library/lpc_chip_11cxx_lib/inc/uart_11xx.h ****  */
 300:../../lib/lpc11cx4-library/lpc_chip_11cxx_lib/inc/uart_11xx.h **** STATIC INLINE void Chip_UART_TXEnable(LPC_USART_T *pUART)
 301:../../lib/lpc11cx4-library/lpc_chip_11cxx_lib/inc/uart_11xx.h **** {
 302:../../lib/lpc11cx4-library/lpc_chip_11cxx_lib/inc/uart_11xx.h **** 	pUART->TER1 = UART_TER1_TXEN;
 303:../../lib/lpc11cx4-library/lpc_chip_11cxx_lib/inc/uart_11xx.h **** }
 304:../../lib/lpc11cx4-library/lpc_chip_11cxx_lib/inc/uart_11xx.h **** 
 305:../../lib/lpc11cx4-library/lpc_chip_11cxx_lib/inc/uart_11xx.h **** /**
 306:../../lib/lpc11cx4-library/lpc_chip_11cxx_lib/inc/uart_11xx.h ****  * @brief	Disable transmission on UART TxD pin
 307:../../lib/lpc11cx4-library/lpc_chip_11cxx_lib/inc/uart_11xx.h ****  * @param	pUART	: Pointer to selected pUART peripheral
 308:../../lib/lpc11cx4-library/lpc_chip_11cxx_lib/inc/uart_11xx.h ****  * @return Nothing
 309:../../lib/lpc11cx4-library/lpc_chip_11cxx_lib/inc/uart_11xx.h ****  */
 310:../../lib/lpc11cx4-library/lpc_chip_11cxx_lib/inc/uart_11xx.h **** STATIC INLINE void Chip_UART_TXDisable(LPC_USART_T *pUART)
 311:../../lib/lpc11cx4-library/lpc_chip_11cxx_lib/inc/uart_11xx.h **** {
 312:../../lib/lpc11cx4-library/lpc_chip_11cxx_lib/inc/uart_11xx.h **** 	pUART->TER1 = 0;
 313:../../lib/lpc11cx4-library/lpc_chip_11cxx_lib/inc/uart_11xx.h **** }
 314:../../lib/lpc11cx4-library/lpc_chip_11cxx_lib/inc/uart_11xx.h **** 
 315:../../lib/lpc11cx4-library/lpc_chip_11cxx_lib/inc/uart_11xx.h **** /**
ARM GAS  /var/folders/z0/6xlwn_996xz3mwq1cgzkbq4r0000gp/T//cckgJHwF.s 			page 16


 316:../../lib/lpc11cx4-library/lpc_chip_11cxx_lib/inc/uart_11xx.h ****  * @brief	Transmit a single data byte through the UART peripheral
 317:../../lib/lpc11cx4-library/lpc_chip_11cxx_lib/inc/uart_11xx.h ****  * @param	pUART	: Pointer to selected UART peripheral
 318:../../lib/lpc11cx4-library/lpc_chip_11cxx_lib/inc/uart_11xx.h ****  * @param	data	: Byte to transmit
 319:../../lib/lpc11cx4-library/lpc_chip_11cxx_lib/inc/uart_11xx.h ****  * @return	Nothing
 320:../../lib/lpc11cx4-library/lpc_chip_11cxx_lib/inc/uart_11xx.h ****  * @note	This function attempts to place a byte into the UART transmit
 321:../../lib/lpc11cx4-library/lpc_chip_11cxx_lib/inc/uart_11xx.h ****  *			FIFO or transmit hold register regard regardless of UART state
 322:../../lib/lpc11cx4-library/lpc_chip_11cxx_lib/inc/uart_11xx.h ****  */
 323:../../lib/lpc11cx4-library/lpc_chip_11cxx_lib/inc/uart_11xx.h **** STATIC INLINE void Chip_UART_SendByte(LPC_USART_T *pUART, uint8_t data)
 324:../../lib/lpc11cx4-library/lpc_chip_11cxx_lib/inc/uart_11xx.h **** {
 325:../../lib/lpc11cx4-library/lpc_chip_11cxx_lib/inc/uart_11xx.h **** 	pUART->THR = (uint32_t) data;
 326:../../lib/lpc11cx4-library/lpc_chip_11cxx_lib/inc/uart_11xx.h **** }
 327:../../lib/lpc11cx4-library/lpc_chip_11cxx_lib/inc/uart_11xx.h **** 
 328:../../lib/lpc11cx4-library/lpc_chip_11cxx_lib/inc/uart_11xx.h **** /**
 329:../../lib/lpc11cx4-library/lpc_chip_11cxx_lib/inc/uart_11xx.h ****  * @brief	Read a single byte data from the UART peripheral
 330:../../lib/lpc11cx4-library/lpc_chip_11cxx_lib/inc/uart_11xx.h ****  * @param	pUART	: Pointer to selected UART peripheral
 331:../../lib/lpc11cx4-library/lpc_chip_11cxx_lib/inc/uart_11xx.h ****  * @return	A single byte of data read
 332:../../lib/lpc11cx4-library/lpc_chip_11cxx_lib/inc/uart_11xx.h ****  * @note	This function reads a byte from the UART receive FIFO or
 333:../../lib/lpc11cx4-library/lpc_chip_11cxx_lib/inc/uart_11xx.h ****  *			receive hold register regard regardless of UART state. The
 334:../../lib/lpc11cx4-library/lpc_chip_11cxx_lib/inc/uart_11xx.h ****  *			FIFO status should be read first prior to using this function
 335:../../lib/lpc11cx4-library/lpc_chip_11cxx_lib/inc/uart_11xx.h ****  */
 336:../../lib/lpc11cx4-library/lpc_chip_11cxx_lib/inc/uart_11xx.h **** STATIC INLINE uint8_t Chip_UART_ReadByte(LPC_USART_T *pUART)
 337:../../lib/lpc11cx4-library/lpc_chip_11cxx_lib/inc/uart_11xx.h **** {
 338:../../lib/lpc11cx4-library/lpc_chip_11cxx_lib/inc/uart_11xx.h **** 	return (uint8_t) (pUART->RBR & UART_RBR_MASKBIT);
 339:../../lib/lpc11cx4-library/lpc_chip_11cxx_lib/inc/uart_11xx.h **** }
 340:../../lib/lpc11cx4-library/lpc_chip_11cxx_lib/inc/uart_11xx.h **** 
 341:../../lib/lpc11cx4-library/lpc_chip_11cxx_lib/inc/uart_11xx.h **** /**
 342:../../lib/lpc11cx4-library/lpc_chip_11cxx_lib/inc/uart_11xx.h ****  * @brief	Enable UART interrupts
 343:../../lib/lpc11cx4-library/lpc_chip_11cxx_lib/inc/uart_11xx.h ****  * @param	pUART	: Pointer to selected UART peripheral
 344:../../lib/lpc11cx4-library/lpc_chip_11cxx_lib/inc/uart_11xx.h ****  * @param	intMask	: OR'ed Interrupts to enable in the Interrupt Enable Register (IER)
 345:../../lib/lpc11cx4-library/lpc_chip_11cxx_lib/inc/uart_11xx.h ****  * @return	Nothing
 346:../../lib/lpc11cx4-library/lpc_chip_11cxx_lib/inc/uart_11xx.h ****  * @note	Use an OR'ed value of UART_IER_* definitions with this function
 347:../../lib/lpc11cx4-library/lpc_chip_11cxx_lib/inc/uart_11xx.h ****  *			to enable specific UART interrupts. The Divisor Latch Access Bit
 348:../../lib/lpc11cx4-library/lpc_chip_11cxx_lib/inc/uart_11xx.h ****  *			(DLAB) in LCR must be cleared in order to access the IER register.
 349:../../lib/lpc11cx4-library/lpc_chip_11cxx_lib/inc/uart_11xx.h ****  *			This function doesn't alter the DLAB state
 350:../../lib/lpc11cx4-library/lpc_chip_11cxx_lib/inc/uart_11xx.h ****  */
 351:../../lib/lpc11cx4-library/lpc_chip_11cxx_lib/inc/uart_11xx.h **** STATIC INLINE void Chip_UART_IntEnable(LPC_USART_T *pUART, uint32_t intMask)
 352:../../lib/lpc11cx4-library/lpc_chip_11cxx_lib/inc/uart_11xx.h **** {
 353:../../lib/lpc11cx4-library/lpc_chip_11cxx_lib/inc/uart_11xx.h **** 	pUART->IER |= intMask;
 354:../../lib/lpc11cx4-library/lpc_chip_11cxx_lib/inc/uart_11xx.h **** }
 355:../../lib/lpc11cx4-library/lpc_chip_11cxx_lib/inc/uart_11xx.h **** 
 356:../../lib/lpc11cx4-library/lpc_chip_11cxx_lib/inc/uart_11xx.h **** /**
 357:../../lib/lpc11cx4-library/lpc_chip_11cxx_lib/inc/uart_11xx.h ****  * @brief	Disable UART interrupts
 358:../../lib/lpc11cx4-library/lpc_chip_11cxx_lib/inc/uart_11xx.h ****  * @param	pUART	: Pointer to selected UART peripheral
 359:../../lib/lpc11cx4-library/lpc_chip_11cxx_lib/inc/uart_11xx.h ****  * @param	intMask	: OR'ed Interrupts to disable in the Interrupt Enable Register (IER)
 360:../../lib/lpc11cx4-library/lpc_chip_11cxx_lib/inc/uart_11xx.h ****  * @return	Nothing
 361:../../lib/lpc11cx4-library/lpc_chip_11cxx_lib/inc/uart_11xx.h ****  * @note	Use an OR'ed value of UART_IER_* definitions with this function
 362:../../lib/lpc11cx4-library/lpc_chip_11cxx_lib/inc/uart_11xx.h ****  *			to disable specific UART interrupts. The Divisor Latch Access Bit
 363:../../lib/lpc11cx4-library/lpc_chip_11cxx_lib/inc/uart_11xx.h ****  *			(DLAB) in LCR must be cleared in order to access the IER register.
 364:../../lib/lpc11cx4-library/lpc_chip_11cxx_lib/inc/uart_11xx.h ****  *			This function doesn't alter the DLAB state
 365:../../lib/lpc11cx4-library/lpc_chip_11cxx_lib/inc/uart_11xx.h ****  */
 366:../../lib/lpc11cx4-library/lpc_chip_11cxx_lib/inc/uart_11xx.h **** STATIC INLINE void Chip_UART_IntDisable(LPC_USART_T *pUART, uint32_t intMask)
 367:../../lib/lpc11cx4-library/lpc_chip_11cxx_lib/inc/uart_11xx.h **** {
 368:../../lib/lpc11cx4-library/lpc_chip_11cxx_lib/inc/uart_11xx.h **** 	pUART->IER &= ~intMask;
 369:../../lib/lpc11cx4-library/lpc_chip_11cxx_lib/inc/uart_11xx.h **** }
 370:../../lib/lpc11cx4-library/lpc_chip_11cxx_lib/inc/uart_11xx.h **** 
 371:../../lib/lpc11cx4-library/lpc_chip_11cxx_lib/inc/uart_11xx.h **** /**
 372:../../lib/lpc11cx4-library/lpc_chip_11cxx_lib/inc/uart_11xx.h ****  * @brief	Returns UART interrupts that are enabled
ARM GAS  /var/folders/z0/6xlwn_996xz3mwq1cgzkbq4r0000gp/T//cckgJHwF.s 			page 17


 373:../../lib/lpc11cx4-library/lpc_chip_11cxx_lib/inc/uart_11xx.h ****  * @param	pUART	: Pointer to selected UART peripheral
 374:../../lib/lpc11cx4-library/lpc_chip_11cxx_lib/inc/uart_11xx.h ****  * @return	Returns the enabled UART interrupts
 375:../../lib/lpc11cx4-library/lpc_chip_11cxx_lib/inc/uart_11xx.h ****  * @note	Use an OR'ed value of UART_IER_* definitions with this function
 376:../../lib/lpc11cx4-library/lpc_chip_11cxx_lib/inc/uart_11xx.h ****  *			to determine which interrupts are enabled. You can check
 377:../../lib/lpc11cx4-library/lpc_chip_11cxx_lib/inc/uart_11xx.h ****  *			for multiple enabled bits if needed.
 378:../../lib/lpc11cx4-library/lpc_chip_11cxx_lib/inc/uart_11xx.h ****  */
 379:../../lib/lpc11cx4-library/lpc_chip_11cxx_lib/inc/uart_11xx.h **** STATIC INLINE uint32_t Chip_UART_GetIntsEnabled(LPC_USART_T *pUART)
 380:../../lib/lpc11cx4-library/lpc_chip_11cxx_lib/inc/uart_11xx.h **** {
 381:../../lib/lpc11cx4-library/lpc_chip_11cxx_lib/inc/uart_11xx.h **** 	return pUART->IER;
 382:../../lib/lpc11cx4-library/lpc_chip_11cxx_lib/inc/uart_11xx.h **** }
 383:../../lib/lpc11cx4-library/lpc_chip_11cxx_lib/inc/uart_11xx.h **** 
 384:../../lib/lpc11cx4-library/lpc_chip_11cxx_lib/inc/uart_11xx.h **** /**
 385:../../lib/lpc11cx4-library/lpc_chip_11cxx_lib/inc/uart_11xx.h ****  * @brief	Read the Interrupt Identification Register (IIR)
 386:../../lib/lpc11cx4-library/lpc_chip_11cxx_lib/inc/uart_11xx.h ****  * @param	pUART	: Pointer to selected UART peripheral
 387:../../lib/lpc11cx4-library/lpc_chip_11cxx_lib/inc/uart_11xx.h ****  * @return	Current pending interrupt status per the IIR register
 388:../../lib/lpc11cx4-library/lpc_chip_11cxx_lib/inc/uart_11xx.h ****  */
 389:../../lib/lpc11cx4-library/lpc_chip_11cxx_lib/inc/uart_11xx.h **** STATIC INLINE uint32_t Chip_UART_ReadIntIDReg(LPC_USART_T *pUART)
 390:../../lib/lpc11cx4-library/lpc_chip_11cxx_lib/inc/uart_11xx.h **** {
 391:../../lib/lpc11cx4-library/lpc_chip_11cxx_lib/inc/uart_11xx.h **** 	return pUART->IIR;
 392:../../lib/lpc11cx4-library/lpc_chip_11cxx_lib/inc/uart_11xx.h **** }
 393:../../lib/lpc11cx4-library/lpc_chip_11cxx_lib/inc/uart_11xx.h **** 
 394:../../lib/lpc11cx4-library/lpc_chip_11cxx_lib/inc/uart_11xx.h **** /**
 395:../../lib/lpc11cx4-library/lpc_chip_11cxx_lib/inc/uart_11xx.h ****  * @brief	Setup the UART FIFOs
 396:../../lib/lpc11cx4-library/lpc_chip_11cxx_lib/inc/uart_11xx.h ****  * @param	pUART	: Pointer to selected UART peripheral
 397:../../lib/lpc11cx4-library/lpc_chip_11cxx_lib/inc/uart_11xx.h ****  * @param	fcr		: FIFO control register setup OR'ed flags
 398:../../lib/lpc11cx4-library/lpc_chip_11cxx_lib/inc/uart_11xx.h ****  * @return	Nothing
 399:../../lib/lpc11cx4-library/lpc_chip_11cxx_lib/inc/uart_11xx.h ****  * @note	Use OR'ed value of UART_FCR_* definitions with this function
 400:../../lib/lpc11cx4-library/lpc_chip_11cxx_lib/inc/uart_11xx.h ****  *			to select specific options. For example, to enable the FIFOs
 401:../../lib/lpc11cx4-library/lpc_chip_11cxx_lib/inc/uart_11xx.h ****  *			with a RX trip level of 8 characters, use something like
 402:../../lib/lpc11cx4-library/lpc_chip_11cxx_lib/inc/uart_11xx.h ****  *			(UART_FCR_FIFO_EN | UART_FCR_TRG_LEV2)
 403:../../lib/lpc11cx4-library/lpc_chip_11cxx_lib/inc/uart_11xx.h ****  */
 404:../../lib/lpc11cx4-library/lpc_chip_11cxx_lib/inc/uart_11xx.h **** STATIC INLINE void Chip_UART_SetupFIFOS(LPC_USART_T *pUART, uint32_t fcr)
 405:../../lib/lpc11cx4-library/lpc_chip_11cxx_lib/inc/uart_11xx.h **** {
 406:../../lib/lpc11cx4-library/lpc_chip_11cxx_lib/inc/uart_11xx.h **** 	pUART->FCR = fcr;
 136              		.loc 3 406 0
 137 0016 0723     		movs	r3, #7	@ tmp121,
 138 0018 8360     		str	r3, [r0, #8]	@ tmp121, pUART_4(D)->D.5099.FCR
 139              	.LVL3:
 140              	.LBE77:
 141              	.LBE76:
 142              	.LBB78:
 143              	.LBB79:
 407:../../lib/lpc11cx4-library/lpc_chip_11cxx_lib/inc/uart_11xx.h **** }
 408:../../lib/lpc11cx4-library/lpc_chip_11cxx_lib/inc/uart_11xx.h **** 
 409:../../lib/lpc11cx4-library/lpc_chip_11cxx_lib/inc/uart_11xx.h **** /**
 410:../../lib/lpc11cx4-library/lpc_chip_11cxx_lib/inc/uart_11xx.h ****  * @brief	Configure data width, parity and stop bits
 411:../../lib/lpc11cx4-library/lpc_chip_11cxx_lib/inc/uart_11xx.h ****  * @param	pUART	: Pointer to selected pUART peripheral
 412:../../lib/lpc11cx4-library/lpc_chip_11cxx_lib/inc/uart_11xx.h ****  * @param	config	: UART configuration, OR'ed values of UART_LCR_* defines
 413:../../lib/lpc11cx4-library/lpc_chip_11cxx_lib/inc/uart_11xx.h ****  * @return	Nothing
 414:../../lib/lpc11cx4-library/lpc_chip_11cxx_lib/inc/uart_11xx.h ****  * @note	Select OR'ed config options for the UART from the UART_LCR_*
 415:../../lib/lpc11cx4-library/lpc_chip_11cxx_lib/inc/uart_11xx.h ****  *			definitions. For example, a configuration of 8 data bits, 1
 416:../../lib/lpc11cx4-library/lpc_chip_11cxx_lib/inc/uart_11xx.h ****  *			stop bit, and even (enabled) parity would be
 417:../../lib/lpc11cx4-library/lpc_chip_11cxx_lib/inc/uart_11xx.h ****  *			(UART_LCR_WLEN8 | UART_LCR_SBS_1BIT | UART_LCR_PARITY_EN | UART_LCR_PARITY_EVEN)
 418:../../lib/lpc11cx4-library/lpc_chip_11cxx_lib/inc/uart_11xx.h ****  */
 419:../../lib/lpc11cx4-library/lpc_chip_11cxx_lib/inc/uart_11xx.h **** STATIC INLINE void Chip_UART_ConfigData(LPC_USART_T *pUART, uint32_t config)
 420:../../lib/lpc11cx4-library/lpc_chip_11cxx_lib/inc/uart_11xx.h **** {
 421:../../lib/lpc11cx4-library/lpc_chip_11cxx_lib/inc/uart_11xx.h **** 	pUART->LCR = config;
ARM GAS  /var/folders/z0/6xlwn_996xz3mwq1cgzkbq4r0000gp/T//cckgJHwF.s 			page 18


 144              		.loc 3 421 0
 145 001a 043B     		subs	r3, r3, #4	@ tmp122,
 146 001c C360     		str	r3, [r0, #12]	@ tmp122, pUART_4(D)->LCR
 147              	.LVL4:
 148              	.LBE79:
 149              	.LBE78:
  63:../../lib/lpc11cx4-library/lpc_chip_11cxx_lib/src/uart_11xx.c **** }
 150              		.loc 1 63 0
 151 001e 0D33     		adds	r3, r3, #13	@ tmp123,
 152 0020 8362     		str	r3, [r0, #40]	@ tmp123, pUART_4(D)->FDR
 153              		.loc 1 64 0
 154 0022 10BD     		pop	{r4, pc}
 155              	.L3:
 156              		.align	2
 157              	.L2:
 158 0024 00800440 		.word	1074036736
 159              		.cfi_endproc
 160              	.LFE198:
 161              		.size	Chip_UART_Init, .-Chip_UART_Init
 162              		.section	.text.Chip_UART_DeInit,"ax",%progbits
 163              		.align	2
 164              		.global	Chip_UART_DeInit
 165              		.code	16
 166              		.thumb_func
 167              		.type	Chip_UART_DeInit, %function
 168              	Chip_UART_DeInit:
 169              	.LFB199:
  65:../../lib/lpc11cx4-library/lpc_chip_11cxx_lib/src/uart_11xx.c **** 
  66:../../lib/lpc11cx4-library/lpc_chip_11cxx_lib/src/uart_11xx.c **** /* De-initializes the pUART peripheral */
  67:../../lib/lpc11cx4-library/lpc_chip_11cxx_lib/src/uart_11xx.c **** void Chip_UART_DeInit(LPC_USART_T *pUART)
  68:../../lib/lpc11cx4-library/lpc_chip_11cxx_lib/src/uart_11xx.c **** {
 170              		.loc 1 68 0
 171              		.cfi_startproc
 172              		@ args = 0, pretend = 0, frame = 0
 173              		@ frame_needed = 0, uses_anonymous_args = 0
 174              		@ link register save eliminated.
 175              	.LVL5:
 176              	.LBB80:
 177              	.LBB81:
 307:../../lib/lpc11cx4-library/lpc_chip_11cxx_lib/inc/clock_11xx.h **** }
 178              		.loc 2 307 0
 179 0000 8022     		movs	r2, #128	@ tmp114,
 180 0002 0349     		ldr	r1, .L5	@ tmp113,
 181 0004 034B     		ldr	r3, .L5+4	@ tmp115,
 182 0006 8858     		ldr	r0, [r1, r2]	@ D.6488, MEM[(struct LPC_SYSCTL_T *)1074036736B].SYSAHBCLKCTRL
 183              	.LVL6:
 184              	.LBE81:
 185              	.LBE80:
  69:../../lib/lpc11cx4-library/lpc_chip_11cxx_lib/src/uart_11xx.c **** 	UNUSED(pUART);
  70:../../lib/lpc11cx4-library/lpc_chip_11cxx_lib/src/uart_11xx.c **** 	Chip_Clock_DisablePeriphClock(SYSCTL_CLOCK_UART0);
  71:../../lib/lpc11cx4-library/lpc_chip_11cxx_lib/src/uart_11xx.c **** }
 186              		.loc 1 71 0
 187              		@ sp needed	@
 188              	.LBB83:
 189              	.LBB82:
 307:../../lib/lpc11cx4-library/lpc_chip_11cxx_lib/inc/clock_11xx.h **** }
 190              		.loc 2 307 0
ARM GAS  /var/folders/z0/6xlwn_996xz3mwq1cgzkbq4r0000gp/T//cckgJHwF.s 			page 19


 191 0008 0340     		ands	r3, r0	@ D.6488, D.6488
 192 000a 8B50     		str	r3, [r1, r2]	@ D.6488, MEM[(struct LPC_SYSCTL_T *)1074036736B].SYSAHBCLKCTRL
 193              	.LVL7:
 194              	.LBE82:
 195              	.LBE83:
 196              		.loc 1 71 0
 197 000c 7047     		bx	lr
 198              	.L6:
 199 000e C046     		.align	2
 200              	.L5:
 201 0010 00800440 		.word	1074036736
 202 0014 FFEFFFFF 		.word	-4097
 203              		.cfi_endproc
 204              	.LFE199:
 205              		.size	Chip_UART_DeInit, .-Chip_UART_DeInit
 206              		.section	.text.Chip_UART_Send,"ax",%progbits
 207              		.align	2
 208              		.global	Chip_UART_Send
 209              		.code	16
 210              		.thumb_func
 211              		.type	Chip_UART_Send, %function
 212              	Chip_UART_Send:
 213              	.LFB200:
  72:../../lib/lpc11cx4-library/lpc_chip_11cxx_lib/src/uart_11xx.c **** 
  73:../../lib/lpc11cx4-library/lpc_chip_11cxx_lib/src/uart_11xx.c **** /* Transmit a byte array through the UART peripheral (non-blocking) */
  74:../../lib/lpc11cx4-library/lpc_chip_11cxx_lib/src/uart_11xx.c **** int Chip_UART_Send(LPC_USART_T *pUART, const void *data, int numBytes)
  75:../../lib/lpc11cx4-library/lpc_chip_11cxx_lib/src/uart_11xx.c **** {
 214              		.loc 1 75 0
 215              		.cfi_startproc
 216              		@ args = 0, pretend = 0, frame = 0
 217              		@ frame_needed = 0, uses_anonymous_args = 0
 218              	.LVL8:
 219 0000 30B5     		push	{r4, r5, lr}	@
 220              		.cfi_def_cfa_offset 12
 221              		.cfi_offset 4, -12
 222              		.cfi_offset 5, -8
 223              		.cfi_offset 14, -4
  76:../../lib/lpc11cx4-library/lpc_chip_11cxx_lib/src/uart_11xx.c **** 	int sent = 0;
  77:../../lib/lpc11cx4-library/lpc_chip_11cxx_lib/src/uart_11xx.c **** 	uint8_t *p8 = (uint8_t *) data;
  78:../../lib/lpc11cx4-library/lpc_chip_11cxx_lib/src/uart_11xx.c **** 
  79:../../lib/lpc11cx4-library/lpc_chip_11cxx_lib/src/uart_11xx.c **** 	/* Send until the transmit FIFO is full or out of bytes */
  80:../../lib/lpc11cx4-library/lpc_chip_11cxx_lib/src/uart_11xx.c **** 	while ((sent < numBytes) &&
 224              		.loc 1 80 0
 225 0002 002A     		cmp	r2, #0	@ numBytes,
 226 0004 11DD     		ble	.L11	@,
 227              	.LVL9:
 228              	.LBB84:
 229              	.LBB85:
 422:../../lib/lpc11cx4-library/lpc_chip_11cxx_lib/inc/uart_11xx.h **** }
 423:../../lib/lpc11cx4-library/lpc_chip_11cxx_lib/inc/uart_11xx.h **** 
 424:../../lib/lpc11cx4-library/lpc_chip_11cxx_lib/inc/uart_11xx.h **** /**
 425:../../lib/lpc11cx4-library/lpc_chip_11cxx_lib/inc/uart_11xx.h ****  * @brief	Enable access to Divisor Latches
 426:../../lib/lpc11cx4-library/lpc_chip_11cxx_lib/inc/uart_11xx.h ****  * @param	pUART	: Pointer to selected UART peripheral
 427:../../lib/lpc11cx4-library/lpc_chip_11cxx_lib/inc/uart_11xx.h ****  * @return	Nothing
 428:../../lib/lpc11cx4-library/lpc_chip_11cxx_lib/inc/uart_11xx.h ****  */
 429:../../lib/lpc11cx4-library/lpc_chip_11cxx_lib/inc/uart_11xx.h **** STATIC INLINE void Chip_UART_EnableDivisorAccess(LPC_USART_T *pUART)
 430:../../lib/lpc11cx4-library/lpc_chip_11cxx_lib/inc/uart_11xx.h **** {
ARM GAS  /var/folders/z0/6xlwn_996xz3mwq1cgzkbq4r0000gp/T//cckgJHwF.s 			page 20


 431:../../lib/lpc11cx4-library/lpc_chip_11cxx_lib/inc/uart_11xx.h **** 	pUART->LCR |= UART_LCR_DLAB_EN;
 432:../../lib/lpc11cx4-library/lpc_chip_11cxx_lib/inc/uart_11xx.h **** }
 433:../../lib/lpc11cx4-library/lpc_chip_11cxx_lib/inc/uart_11xx.h **** 
 434:../../lib/lpc11cx4-library/lpc_chip_11cxx_lib/inc/uart_11xx.h **** /**
 435:../../lib/lpc11cx4-library/lpc_chip_11cxx_lib/inc/uart_11xx.h ****  * @brief	Disable access to Divisor Latches
 436:../../lib/lpc11cx4-library/lpc_chip_11cxx_lib/inc/uart_11xx.h ****  * @param	pUART	: Pointer to selected UART peripheral
 437:../../lib/lpc11cx4-library/lpc_chip_11cxx_lib/inc/uart_11xx.h ****  * @return	Nothing
 438:../../lib/lpc11cx4-library/lpc_chip_11cxx_lib/inc/uart_11xx.h ****  */
 439:../../lib/lpc11cx4-library/lpc_chip_11cxx_lib/inc/uart_11xx.h **** STATIC INLINE void Chip_UART_DisableDivisorAccess(LPC_USART_T *pUART)
 440:../../lib/lpc11cx4-library/lpc_chip_11cxx_lib/inc/uart_11xx.h **** {
 441:../../lib/lpc11cx4-library/lpc_chip_11cxx_lib/inc/uart_11xx.h **** 	pUART->LCR &= ~UART_LCR_DLAB_EN;
 442:../../lib/lpc11cx4-library/lpc_chip_11cxx_lib/inc/uart_11xx.h **** }
 443:../../lib/lpc11cx4-library/lpc_chip_11cxx_lib/inc/uart_11xx.h **** 
 444:../../lib/lpc11cx4-library/lpc_chip_11cxx_lib/inc/uart_11xx.h **** /**
 445:../../lib/lpc11cx4-library/lpc_chip_11cxx_lib/inc/uart_11xx.h ****  * @brief	Set LSB and MSB divisor latch registers
 446:../../lib/lpc11cx4-library/lpc_chip_11cxx_lib/inc/uart_11xx.h ****  * @param	pUART	: Pointer to selected UART peripheral
 447:../../lib/lpc11cx4-library/lpc_chip_11cxx_lib/inc/uart_11xx.h ****  * @param	dll		: Divisor Latch LSB value
 448:../../lib/lpc11cx4-library/lpc_chip_11cxx_lib/inc/uart_11xx.h ****  * @param	dlm		: Divisor Latch MSB value
 449:../../lib/lpc11cx4-library/lpc_chip_11cxx_lib/inc/uart_11xx.h ****  * @return	Nothing
 450:../../lib/lpc11cx4-library/lpc_chip_11cxx_lib/inc/uart_11xx.h ****  * @note	The Divisor Latch Access Bit (DLAB) in LCR must be set in
 451:../../lib/lpc11cx4-library/lpc_chip_11cxx_lib/inc/uart_11xx.h ****  *			order to access the USART Divisor Latches. This function
 452:../../lib/lpc11cx4-library/lpc_chip_11cxx_lib/inc/uart_11xx.h ****  *			doesn't alter the DLAB state.
 453:../../lib/lpc11cx4-library/lpc_chip_11cxx_lib/inc/uart_11xx.h ****  */
 454:../../lib/lpc11cx4-library/lpc_chip_11cxx_lib/inc/uart_11xx.h **** STATIC INLINE void Chip_UART_SetDivisorLatches(LPC_USART_T *pUART, uint8_t dll, uint8_t dlm)
 455:../../lib/lpc11cx4-library/lpc_chip_11cxx_lib/inc/uart_11xx.h **** {
 456:../../lib/lpc11cx4-library/lpc_chip_11cxx_lib/inc/uart_11xx.h **** 	pUART->DLL = (uint32_t) dll;
 457:../../lib/lpc11cx4-library/lpc_chip_11cxx_lib/inc/uart_11xx.h **** 	pUART->DLM = (uint32_t) dlm;
 458:../../lib/lpc11cx4-library/lpc_chip_11cxx_lib/inc/uart_11xx.h **** }
 459:../../lib/lpc11cx4-library/lpc_chip_11cxx_lib/inc/uart_11xx.h **** 
 460:../../lib/lpc11cx4-library/lpc_chip_11cxx_lib/inc/uart_11xx.h **** /**
 461:../../lib/lpc11cx4-library/lpc_chip_11cxx_lib/inc/uart_11xx.h ****  * @brief	Return modem control register/status
 462:../../lib/lpc11cx4-library/lpc_chip_11cxx_lib/inc/uart_11xx.h ****  * @param	pUART	: Pointer to selected UART peripheral
 463:../../lib/lpc11cx4-library/lpc_chip_11cxx_lib/inc/uart_11xx.h ****  * @return	Modem control register (status)
 464:../../lib/lpc11cx4-library/lpc_chip_11cxx_lib/inc/uart_11xx.h ****  * @note	Mask bits of the returned status value with UART_MCR_*
 465:../../lib/lpc11cx4-library/lpc_chip_11cxx_lib/inc/uart_11xx.h ****  *			definitions for specific statuses.
 466:../../lib/lpc11cx4-library/lpc_chip_11cxx_lib/inc/uart_11xx.h ****  */
 467:../../lib/lpc11cx4-library/lpc_chip_11cxx_lib/inc/uart_11xx.h **** STATIC INLINE uint32_t Chip_UART_ReadModemControl(LPC_USART_T *pUART)
 468:../../lib/lpc11cx4-library/lpc_chip_11cxx_lib/inc/uart_11xx.h **** {
 469:../../lib/lpc11cx4-library/lpc_chip_11cxx_lib/inc/uart_11xx.h **** 	return pUART->MCR;
 470:../../lib/lpc11cx4-library/lpc_chip_11cxx_lib/inc/uart_11xx.h **** }
 471:../../lib/lpc11cx4-library/lpc_chip_11cxx_lib/inc/uart_11xx.h **** 
 472:../../lib/lpc11cx4-library/lpc_chip_11cxx_lib/inc/uart_11xx.h **** /**
 473:../../lib/lpc11cx4-library/lpc_chip_11cxx_lib/inc/uart_11xx.h ****  * @brief	Set modem control register/status
 474:../../lib/lpc11cx4-library/lpc_chip_11cxx_lib/inc/uart_11xx.h ****  * @param	pUART	: Pointer to selected UART peripheral
 475:../../lib/lpc11cx4-library/lpc_chip_11cxx_lib/inc/uart_11xx.h ****  * @param	mcr		: Modem control register flags to set
 476:../../lib/lpc11cx4-library/lpc_chip_11cxx_lib/inc/uart_11xx.h ****  * @return	Nothing
 477:../../lib/lpc11cx4-library/lpc_chip_11cxx_lib/inc/uart_11xx.h ****  * @note	Use an Or'ed value of UART_MCR_* definitions with this
 478:../../lib/lpc11cx4-library/lpc_chip_11cxx_lib/inc/uart_11xx.h ****  *			call to set specific options.
 479:../../lib/lpc11cx4-library/lpc_chip_11cxx_lib/inc/uart_11xx.h ****  */
 480:../../lib/lpc11cx4-library/lpc_chip_11cxx_lib/inc/uart_11xx.h **** STATIC INLINE void Chip_UART_SetModemControl(LPC_USART_T *pUART, uint32_t mcr)
 481:../../lib/lpc11cx4-library/lpc_chip_11cxx_lib/inc/uart_11xx.h **** {
 482:../../lib/lpc11cx4-library/lpc_chip_11cxx_lib/inc/uart_11xx.h **** 	pUART->MCR |= mcr;
 483:../../lib/lpc11cx4-library/lpc_chip_11cxx_lib/inc/uart_11xx.h **** }
 484:../../lib/lpc11cx4-library/lpc_chip_11cxx_lib/inc/uart_11xx.h **** 
 485:../../lib/lpc11cx4-library/lpc_chip_11cxx_lib/inc/uart_11xx.h **** /**
 486:../../lib/lpc11cx4-library/lpc_chip_11cxx_lib/inc/uart_11xx.h ****  * @brief	Clear modem control register/status
 487:../../lib/lpc11cx4-library/lpc_chip_11cxx_lib/inc/uart_11xx.h ****  * @param	pUART	: Pointer to selected UART peripheral
ARM GAS  /var/folders/z0/6xlwn_996xz3mwq1cgzkbq4r0000gp/T//cckgJHwF.s 			page 21


 488:../../lib/lpc11cx4-library/lpc_chip_11cxx_lib/inc/uart_11xx.h ****  * @param	mcr		: Modem control register flags to clear
 489:../../lib/lpc11cx4-library/lpc_chip_11cxx_lib/inc/uart_11xx.h ****  * @return	Nothing
 490:../../lib/lpc11cx4-library/lpc_chip_11cxx_lib/inc/uart_11xx.h ****  * @note	Use an Or'ed value of UART_MCR_* definitions with this
 491:../../lib/lpc11cx4-library/lpc_chip_11cxx_lib/inc/uart_11xx.h ****  *			call to clear specific options.
 492:../../lib/lpc11cx4-library/lpc_chip_11cxx_lib/inc/uart_11xx.h ****  */
 493:../../lib/lpc11cx4-library/lpc_chip_11cxx_lib/inc/uart_11xx.h **** STATIC INLINE void Chip_UART_ClearModemControl(LPC_USART_T *pUART, uint32_t mcr)
 494:../../lib/lpc11cx4-library/lpc_chip_11cxx_lib/inc/uart_11xx.h **** {
 495:../../lib/lpc11cx4-library/lpc_chip_11cxx_lib/inc/uart_11xx.h **** 	pUART->MCR &= ~mcr;
 496:../../lib/lpc11cx4-library/lpc_chip_11cxx_lib/inc/uart_11xx.h **** }
 497:../../lib/lpc11cx4-library/lpc_chip_11cxx_lib/inc/uart_11xx.h **** 
 498:../../lib/lpc11cx4-library/lpc_chip_11cxx_lib/inc/uart_11xx.h **** /**
 499:../../lib/lpc11cx4-library/lpc_chip_11cxx_lib/inc/uart_11xx.h ****  * @brief	Return Line Status register/status (LSR)
 500:../../lib/lpc11cx4-library/lpc_chip_11cxx_lib/inc/uart_11xx.h ****  * @param	pUART	: Pointer to selected UART peripheral
 501:../../lib/lpc11cx4-library/lpc_chip_11cxx_lib/inc/uart_11xx.h ****  * @return	Line Status register (status)
 502:../../lib/lpc11cx4-library/lpc_chip_11cxx_lib/inc/uart_11xx.h ****  * @note	Mask bits of the returned status value with UART_LSR_*
 503:../../lib/lpc11cx4-library/lpc_chip_11cxx_lib/inc/uart_11xx.h ****  *			definitions for specific statuses.
 504:../../lib/lpc11cx4-library/lpc_chip_11cxx_lib/inc/uart_11xx.h ****  */
 505:../../lib/lpc11cx4-library/lpc_chip_11cxx_lib/inc/uart_11xx.h **** STATIC INLINE uint32_t Chip_UART_ReadLineStatus(LPC_USART_T *pUART)
 506:../../lib/lpc11cx4-library/lpc_chip_11cxx_lib/inc/uart_11xx.h **** {
 507:../../lib/lpc11cx4-library/lpc_chip_11cxx_lib/inc/uart_11xx.h **** 	return pUART->LSR;
 230              		.loc 3 507 0
 231 0006 4369     		ldr	r3, [r0, #20]	@ D.6501, pUART_7(D)->LSR
 232              	.LVL10:
 233              	.LBE85:
 234              	.LBE84:
 235              		.loc 1 80 0
 236 0008 9B06     		lsls	r3, r3, #26	@ tmp152, D.6501,
 237 000a 0ED5     		bpl	.L11	@,
 238 000c 0023     		movs	r3, #0	@ numBytes,
 239 000e 2025     		movs	r5, #32	@ tmp151,
 240 0010 02E0     		b	.L9	@
 241              	.LVL11:
 242              	.L15:
 243              	.LBB87:
 244              	.LBB86:
 245              		.loc 3 507 0
 246 0012 4469     		ldr	r4, [r0, #20]	@ D.6501, pUART_7(D)->LSR
 247              	.LVL12:
 248              	.LBE86:
 249              	.LBE87:
 250              		.loc 1 80 0
 251 0014 2542     		tst	r5, r4	@ tmp151, D.6501
 252 0016 06D0     		beq	.L14	@,
 253              	.LVL13:
 254              	.L9:
 255              	.LBB88:
 256              	.LBB89:
 325:../../lib/lpc11cx4-library/lpc_chip_11cxx_lib/inc/uart_11xx.h **** }
 257              		.loc 3 325 0
 258 0018 CC5C     		ldrb	r4, [r1, r3]	@ D.6499, MEM[base: data_4(D), index: _3, offset: 0B]
 259              	.LBE89:
 260              	.LBE88:
  81:../../lib/lpc11cx4-library/lpc_chip_11cxx_lib/src/uart_11xx.c **** 		   ((Chip_UART_ReadLineStatus(pUART) & UART_LSR_THRE) != 0)) {
  82:../../lib/lpc11cx4-library/lpc_chip_11cxx_lib/src/uart_11xx.c **** 		Chip_UART_SendByte(pUART, *p8);
  83:../../lib/lpc11cx4-library/lpc_chip_11cxx_lib/src/uart_11xx.c **** 		p8++;
  84:../../lib/lpc11cx4-library/lpc_chip_11cxx_lib/src/uart_11xx.c **** 		sent++;
 261              		.loc 1 84 0
ARM GAS  /var/folders/z0/6xlwn_996xz3mwq1cgzkbq4r0000gp/T//cckgJHwF.s 			page 22


 262 001a 0133     		adds	r3, r3, #1	@ numBytes,
 263              	.LVL14:
 264              	.LBB91:
 265              	.LBB90:
 325:../../lib/lpc11cx4-library/lpc_chip_11cxx_lib/inc/uart_11xx.h **** }
 266              		.loc 3 325 0
 267 001c 0460     		str	r4, [r0]	@ D.6499, pUART_7(D)->D.5091.THR
 268              	.LVL15:
 269              	.LBE90:
 270              	.LBE91:
  80:../../lib/lpc11cx4-library/lpc_chip_11cxx_lib/src/uart_11xx.c **** 		   ((Chip_UART_ReadLineStatus(pUART) & UART_LSR_THRE) != 0)) {
 271              		.loc 1 80 0
 272 001e 9A42     		cmp	r2, r3	@ numBytes, numBytes
 273 0020 F7D1     		bne	.L15	@,
 274              	.LVL16:
 275              	.L8:
  85:../../lib/lpc11cx4-library/lpc_chip_11cxx_lib/src/uart_11xx.c **** 	}
  86:../../lib/lpc11cx4-library/lpc_chip_11cxx_lib/src/uart_11xx.c **** 
  87:../../lib/lpc11cx4-library/lpc_chip_11cxx_lib/src/uart_11xx.c **** 	return sent;
  88:../../lib/lpc11cx4-library/lpc_chip_11cxx_lib/src/uart_11xx.c **** }
 276              		.loc 1 88 0
 277 0022 1000     		movs	r0, r2	@, numBytes
 278              	.LVL17:
 279              		@ sp needed	@
 280 0024 30BD     		pop	{r4, r5, pc}
 281              	.LVL18:
 282              	.L14:
  84:../../lib/lpc11cx4-library/lpc_chip_11cxx_lib/src/uart_11xx.c **** 	}
 283              		.loc 1 84 0
 284 0026 1A00     		movs	r2, r3	@ numBytes, numBytes
 285              	.LVL19:
 286 0028 FBE7     		b	.L8	@
 287              	.LVL20:
 288              	.L11:
  76:../../lib/lpc11cx4-library/lpc_chip_11cxx_lib/src/uart_11xx.c **** 	uint8_t *p8 = (uint8_t *) data;
 289              		.loc 1 76 0
 290 002a 0022     		movs	r2, #0	@ numBytes,
 291              	.LVL21:
 292 002c F9E7     		b	.L8	@
 293              		.cfi_endproc
 294              	.LFE200:
 295              		.size	Chip_UART_Send, .-Chip_UART_Send
 296 002e C046     		.section	.text.Chip_UART_SendBlocking,"ax",%progbits
 297              		.align	2
 298              		.global	Chip_UART_SendBlocking
 299              		.code	16
 300              		.thumb_func
 301              		.type	Chip_UART_SendBlocking, %function
 302              	Chip_UART_SendBlocking:
 303              	.LFB201:
  89:../../lib/lpc11cx4-library/lpc_chip_11cxx_lib/src/uart_11xx.c **** 
  90:../../lib/lpc11cx4-library/lpc_chip_11cxx_lib/src/uart_11xx.c **** /* Transmit a byte array through the UART peripheral (blocking) */
  91:../../lib/lpc11cx4-library/lpc_chip_11cxx_lib/src/uart_11xx.c **** int Chip_UART_SendBlocking(LPC_USART_T *pUART, const void *data, int numBytes)
  92:../../lib/lpc11cx4-library/lpc_chip_11cxx_lib/src/uart_11xx.c **** {
 304              		.loc 1 92 0
 305              		.cfi_startproc
 306              		@ args = 0, pretend = 0, frame = 0
ARM GAS  /var/folders/z0/6xlwn_996xz3mwq1cgzkbq4r0000gp/T//cckgJHwF.s 			page 23


 307              		@ frame_needed = 0, uses_anonymous_args = 0
 308              	.LVL22:
 309 0000 70B5     		push	{r4, r5, r6, lr}	@
 310              		.cfi_def_cfa_offset 16
 311              		.cfi_offset 4, -16
 312              		.cfi_offset 5, -12
 313              		.cfi_offset 6, -8
 314              		.cfi_offset 14, -4
  93:../../lib/lpc11cx4-library/lpc_chip_11cxx_lib/src/uart_11xx.c **** 	int pass, sent = 0;
  94:../../lib/lpc11cx4-library/lpc_chip_11cxx_lib/src/uart_11xx.c **** 	uint8_t *p8 = (uint8_t *) data;
  95:../../lib/lpc11cx4-library/lpc_chip_11cxx_lib/src/uart_11xx.c **** 
  96:../../lib/lpc11cx4-library/lpc_chip_11cxx_lib/src/uart_11xx.c **** 	while (numBytes > 0) {
 315              		.loc 1 96 0
 316 0002 0026     		movs	r6, #0	@ sent,
 317              	.LBB92:
 318              	.LBB93:
  80:../../lib/lpc11cx4-library/lpc_chip_11cxx_lib/src/uart_11xx.c **** 		   ((Chip_UART_ReadLineStatus(pUART) & UART_LSR_THRE) != 0)) {
 319              		.loc 1 80 0
 320 0004 2025     		movs	r5, #32	@ tmp126,
 321              	.LBE93:
 322              	.LBE92:
 323              		.loc 1 96 0
 324 0006 002A     		cmp	r2, #0	@ numBytes,
 325 0008 0DDD     		ble	.L18	@,
 326              	.LVL23:
 327              	.L23:
 328 000a 0023     		movs	r3, #0	@ pass,
 329              	.L19:
 330              	.LVL24:
 331              	.LBB101:
 332              	.LBB100:
 333              	.LBB94:
 334              	.LBB95:
 335              		.loc 3 507 0
 336 000c 4469     		ldr	r4, [r0, #20]	@ D.6511, pUART_9(D)->LSR
 337              	.LVL25:
 338              	.LBE95:
 339              	.LBE94:
  80:../../lib/lpc11cx4-library/lpc_chip_11cxx_lib/src/uart_11xx.c **** 		   ((Chip_UART_ReadLineStatus(pUART) & UART_LSR_THRE) != 0)) {
 340              		.loc 1 80 0
 341 000e 2542     		tst	r5, r4	@ tmp126, D.6511
 342 0010 04D0     		beq	.L20	@,
 343              	.LVL26:
 344              	.LBB96:
 345              	.LBB97:
 325:../../lib/lpc11cx4-library/lpc_chip_11cxx_lib/inc/uart_11xx.h **** }
 346              		.loc 3 325 0
 347 0012 CC5C     		ldrb	r4, [r1, r3]	@ D.6510, MEM[base: data_26, index: _31, offset: 0B]
 348              	.LBE97:
 349              	.LBE96:
  84:../../lib/lpc11cx4-library/lpc_chip_11cxx_lib/src/uart_11xx.c **** 	}
 350              		.loc 1 84 0
 351 0014 0133     		adds	r3, r3, #1	@ pass,
 352              	.LVL27:
 353              	.LBB99:
 354              	.LBB98:
 325:../../lib/lpc11cx4-library/lpc_chip_11cxx_lib/inc/uart_11xx.h **** }
ARM GAS  /var/folders/z0/6xlwn_996xz3mwq1cgzkbq4r0000gp/T//cckgJHwF.s 			page 24


 355              		.loc 3 325 0
 356 0016 0460     		str	r4, [r0]	@ D.6510, pUART_9(D)->D.5091.THR
 357              	.LVL28:
 358              	.LBE98:
 359              	.LBE99:
  80:../../lib/lpc11cx4-library/lpc_chip_11cxx_lib/src/uart_11xx.c **** 		   ((Chip_UART_ReadLineStatus(pUART) & UART_LSR_THRE) != 0)) {
 360              		.loc 1 80 0
 361 0018 9A42     		cmp	r2, r3	@ numBytes, pass
 362 001a F7DC     		bgt	.L19	@,
 363              	.L20:
 364              	.LVL29:
 365              	.LBE100:
 366              	.LBE101:
  97:../../lib/lpc11cx4-library/lpc_chip_11cxx_lib/src/uart_11xx.c **** 		pass = Chip_UART_Send(pUART, p8, numBytes);
  98:../../lib/lpc11cx4-library/lpc_chip_11cxx_lib/src/uart_11xx.c **** 		numBytes -= pass;
 367              		.loc 1 98 0
 368 001c D21A     		subs	r2, r2, r3	@ numBytes, numBytes, pass
 369              	.LVL30:
  99:../../lib/lpc11cx4-library/lpc_chip_11cxx_lib/src/uart_11xx.c **** 		sent += pass;
 370              		.loc 1 99 0
 371 001e F618     		adds	r6, r6, r3	@ sent, sent, pass
 372              	.LVL31:
 100:../../lib/lpc11cx4-library/lpc_chip_11cxx_lib/src/uart_11xx.c **** 		p8 += pass;
 373              		.loc 1 100 0
 374 0020 C918     		adds	r1, r1, r3	@ data, data, pass
 375              	.LVL32:
  96:../../lib/lpc11cx4-library/lpc_chip_11cxx_lib/src/uart_11xx.c **** 		pass = Chip_UART_Send(pUART, p8, numBytes);
 376              		.loc 1 96 0
 377 0022 002A     		cmp	r2, #0	@ numBytes,
 378 0024 F1DC     		bgt	.L23	@,
 379              	.LVL33:
 380              	.L18:
 101:../../lib/lpc11cx4-library/lpc_chip_11cxx_lib/src/uart_11xx.c **** 	}
 102:../../lib/lpc11cx4-library/lpc_chip_11cxx_lib/src/uart_11xx.c **** 
 103:../../lib/lpc11cx4-library/lpc_chip_11cxx_lib/src/uart_11xx.c **** 	return sent;
 104:../../lib/lpc11cx4-library/lpc_chip_11cxx_lib/src/uart_11xx.c **** }
 381              		.loc 1 104 0
 382 0026 3000     		movs	r0, r6	@, sent
 383              	.LVL34:
 384              		@ sp needed	@
 385 0028 70BD     		pop	{r4, r5, r6, pc}
 386              		.cfi_endproc
 387              	.LFE201:
 388              		.size	Chip_UART_SendBlocking, .-Chip_UART_SendBlocking
 389 002a C046     		.section	.text.Chip_UART_Read,"ax",%progbits
 390              		.align	2
 391              		.global	Chip_UART_Read
 392              		.code	16
 393              		.thumb_func
 394              		.type	Chip_UART_Read, %function
 395              	Chip_UART_Read:
 396              	.LFB202:
 105:../../lib/lpc11cx4-library/lpc_chip_11cxx_lib/src/uart_11xx.c **** 
 106:../../lib/lpc11cx4-library/lpc_chip_11cxx_lib/src/uart_11xx.c **** /* Read data through the UART peripheral (non-blocking) */
 107:../../lib/lpc11cx4-library/lpc_chip_11cxx_lib/src/uart_11xx.c **** int Chip_UART_Read(LPC_USART_T *pUART, void *data, int numBytes)
 108:../../lib/lpc11cx4-library/lpc_chip_11cxx_lib/src/uart_11xx.c **** {
 397              		.loc 1 108 0
ARM GAS  /var/folders/z0/6xlwn_996xz3mwq1cgzkbq4r0000gp/T//cckgJHwF.s 			page 25


 398              		.cfi_startproc
 399              		@ args = 0, pretend = 0, frame = 0
 400              		@ frame_needed = 0, uses_anonymous_args = 0
 401              	.LVL35:
 402 0000 30B5     		push	{r4, r5, lr}	@
 403              		.cfi_def_cfa_offset 12
 404              		.cfi_offset 4, -12
 405              		.cfi_offset 5, -8
 406              		.cfi_offset 14, -4
 109:../../lib/lpc11cx4-library/lpc_chip_11cxx_lib/src/uart_11xx.c **** 	int readBytes = 0;
 110:../../lib/lpc11cx4-library/lpc_chip_11cxx_lib/src/uart_11xx.c **** 	uint8_t *p8 = (uint8_t *) data;
 111:../../lib/lpc11cx4-library/lpc_chip_11cxx_lib/src/uart_11xx.c **** 
 112:../../lib/lpc11cx4-library/lpc_chip_11cxx_lib/src/uart_11xx.c **** 	/* Send until the transmit FIFO is full or out of bytes */
 113:../../lib/lpc11cx4-library/lpc_chip_11cxx_lib/src/uart_11xx.c **** 	while ((readBytes < numBytes) &&
 407              		.loc 1 113 0
 408 0002 002A     		cmp	r2, #0	@ numBytes,
 409 0004 11DD     		ble	.L30	@,
 410              	.LVL36:
 411              	.LBB102:
 412              	.LBB103:
 413              		.loc 3 507 0
 414 0006 4369     		ldr	r3, [r0, #20]	@ D.6520, pUART_7(D)->LSR
 415              	.LVL37:
 416              	.LBE103:
 417              	.LBE102:
 418              		.loc 1 113 0
 419 0008 DB07     		lsls	r3, r3, #31	@ tmp129, D.6520,
 420 000a 0ED5     		bpl	.L30	@,
 421 000c 0023     		movs	r3, #0	@ numBytes,
 422 000e 0125     		movs	r5, #1	@ tmp128,
 423 0010 02E0     		b	.L28	@
 424              	.LVL38:
 425              	.L33:
 426              	.LBB105:
 427              	.LBB104:
 428              		.loc 3 507 0
 429 0012 4469     		ldr	r4, [r0, #20]	@ D.6520, pUART_7(D)->LSR
 430              	.LVL39:
 431              	.LBE104:
 432              	.LBE105:
 433              		.loc 1 113 0
 434 0014 2542     		tst	r5, r4	@ tmp128, D.6520
 435 0016 06D0     		beq	.L32	@,
 436              	.LVL40:
 437              	.L28:
 438              	.LBB106:
 439              	.LBB107:
 338:../../lib/lpc11cx4-library/lpc_chip_11cxx_lib/inc/uart_11xx.h **** }
 440              		.loc 3 338 0
 441 0018 0468     		ldr	r4, [r0]	@ D.6519, pUART_7(D)->D.5091.RBR
 442              	.LVL41:
 443              	.LBE107:
 444              	.LBE106:
 114:../../lib/lpc11cx4-library/lpc_chip_11cxx_lib/src/uart_11xx.c **** 		   ((Chip_UART_ReadLineStatus(pUART) & UART_LSR_RDR) != 0)) {
 115:../../lib/lpc11cx4-library/lpc_chip_11cxx_lib/src/uart_11xx.c **** 		*p8 = Chip_UART_ReadByte(pUART);
 445              		.loc 1 115 0
 446 001a CC54     		strb	r4, [r1, r3]	@ D.6519, MEM[base: data_4(D), index: _3, offset: 0B]
ARM GAS  /var/folders/z0/6xlwn_996xz3mwq1cgzkbq4r0000gp/T//cckgJHwF.s 			page 26


 447              	.LVL42:
 116:../../lib/lpc11cx4-library/lpc_chip_11cxx_lib/src/uart_11xx.c **** 		p8++;
 117:../../lib/lpc11cx4-library/lpc_chip_11cxx_lib/src/uart_11xx.c **** 		readBytes++;
 448              		.loc 1 117 0
 449 001c 0133     		adds	r3, r3, #1	@ numBytes,
 450              	.LVL43:
 113:../../lib/lpc11cx4-library/lpc_chip_11cxx_lib/src/uart_11xx.c **** 		   ((Chip_UART_ReadLineStatus(pUART) & UART_LSR_RDR) != 0)) {
 451              		.loc 1 113 0
 452 001e 9A42     		cmp	r2, r3	@ numBytes, numBytes
 453 0020 F7D1     		bne	.L33	@,
 454              	.LVL44:
 455              	.L27:
 118:../../lib/lpc11cx4-library/lpc_chip_11cxx_lib/src/uart_11xx.c **** 	}
 119:../../lib/lpc11cx4-library/lpc_chip_11cxx_lib/src/uart_11xx.c **** 
 120:../../lib/lpc11cx4-library/lpc_chip_11cxx_lib/src/uart_11xx.c **** 	return readBytes;
 121:../../lib/lpc11cx4-library/lpc_chip_11cxx_lib/src/uart_11xx.c **** }
 456              		.loc 1 121 0
 457 0022 1000     		movs	r0, r2	@, numBytes
 458              	.LVL45:
 459              		@ sp needed	@
 460 0024 30BD     		pop	{r4, r5, pc}
 461              	.LVL46:
 462              	.L32:
 117:../../lib/lpc11cx4-library/lpc_chip_11cxx_lib/src/uart_11xx.c **** 	}
 463              		.loc 1 117 0
 464 0026 1A00     		movs	r2, r3	@ numBytes, numBytes
 465              	.LVL47:
 466 0028 FBE7     		b	.L27	@
 467              	.LVL48:
 468              	.L30:
 109:../../lib/lpc11cx4-library/lpc_chip_11cxx_lib/src/uart_11xx.c **** 	uint8_t *p8 = (uint8_t *) data;
 469              		.loc 1 109 0
 470 002a 0022     		movs	r2, #0	@ numBytes,
 471              	.LVL49:
 472 002c F9E7     		b	.L27	@
 473              		.cfi_endproc
 474              	.LFE202:
 475              		.size	Chip_UART_Read, .-Chip_UART_Read
 476 002e C046     		.section	.text.Chip_UART_ReadBlocking,"ax",%progbits
 477              		.align	2
 478              		.global	Chip_UART_ReadBlocking
 479              		.code	16
 480              		.thumb_func
 481              		.type	Chip_UART_ReadBlocking, %function
 482              	Chip_UART_ReadBlocking:
 483              	.LFB203:
 122:../../lib/lpc11cx4-library/lpc_chip_11cxx_lib/src/uart_11xx.c **** 
 123:../../lib/lpc11cx4-library/lpc_chip_11cxx_lib/src/uart_11xx.c **** /* Read data through the UART peripheral (blocking) */
 124:../../lib/lpc11cx4-library/lpc_chip_11cxx_lib/src/uart_11xx.c **** int Chip_UART_ReadBlocking(LPC_USART_T *pUART, void *data, int numBytes)
 125:../../lib/lpc11cx4-library/lpc_chip_11cxx_lib/src/uart_11xx.c **** {
 484              		.loc 1 125 0
 485              		.cfi_startproc
 486              		@ args = 0, pretend = 0, frame = 0
 487              		@ frame_needed = 0, uses_anonymous_args = 0
 488              	.LVL50:
 489 0000 70B5     		push	{r4, r5, r6, lr}	@
 490              		.cfi_def_cfa_offset 16
ARM GAS  /var/folders/z0/6xlwn_996xz3mwq1cgzkbq4r0000gp/T//cckgJHwF.s 			page 27


 491              		.cfi_offset 4, -16
 492              		.cfi_offset 5, -12
 493              		.cfi_offset 6, -8
 494              		.cfi_offset 14, -4
 126:../../lib/lpc11cx4-library/lpc_chip_11cxx_lib/src/uart_11xx.c **** 	int pass, readBytes = 0;
 127:../../lib/lpc11cx4-library/lpc_chip_11cxx_lib/src/uart_11xx.c **** 	uint8_t *p8 = (uint8_t *) data;
 128:../../lib/lpc11cx4-library/lpc_chip_11cxx_lib/src/uart_11xx.c **** 
 129:../../lib/lpc11cx4-library/lpc_chip_11cxx_lib/src/uart_11xx.c **** 	while (readBytes < numBytes) {
 495              		.loc 1 129 0
 496 0002 0026     		movs	r6, #0	@ readBytes,
 497              	.LBB108:
 498              	.LBB109:
 113:../../lib/lpc11cx4-library/lpc_chip_11cxx_lib/src/uart_11xx.c **** 		   ((Chip_UART_ReadLineStatus(pUART) & UART_LSR_RDR) != 0)) {
 499              		.loc 1 113 0
 500 0004 0125     		movs	r5, #1	@ tmp127,
 501              	.LBE109:
 502              	.LBE108:
 503              		.loc 1 129 0
 504 0006 002A     		cmp	r2, #0	@ numBytes,
 505 0008 0DDD     		ble	.L36	@,
 506              	.LVL51:
 507              	.L41:
 508 000a 0023     		movs	r3, #0	@ pass,
 509              	.L37:
 510              	.LVL52:
 511              	.LBB115:
 512              	.LBB114:
 513              	.LBB110:
 514              	.LBB111:
 515              		.loc 3 507 0
 516 000c 4469     		ldr	r4, [r0, #20]	@ D.6531, pUART_9(D)->LSR
 517              	.LVL53:
 518              	.LBE111:
 519              	.LBE110:
 113:../../lib/lpc11cx4-library/lpc_chip_11cxx_lib/src/uart_11xx.c **** 		   ((Chip_UART_ReadLineStatus(pUART) & UART_LSR_RDR) != 0)) {
 520              		.loc 1 113 0
 521 000e 2542     		tst	r5, r4	@ tmp127, D.6531
 522 0010 04D0     		beq	.L38	@,
 523              	.LVL54:
 524              	.LBB112:
 525              	.LBB113:
 338:../../lib/lpc11cx4-library/lpc_chip_11cxx_lib/inc/uart_11xx.h **** }
 526              		.loc 3 338 0
 527 0012 0468     		ldr	r4, [r0]	@ D.6529, pUART_9(D)->D.5091.RBR
 528              	.LVL55:
 529              	.LBE113:
 530              	.LBE112:
 115:../../lib/lpc11cx4-library/lpc_chip_11cxx_lib/src/uart_11xx.c **** 		p8++;
 531              		.loc 1 115 0
 532 0014 CC54     		strb	r4, [r1, r3]	@ D.6529, MEM[base: data_26, index: _31, offset: 0B]
 533              	.LVL56:
 117:../../lib/lpc11cx4-library/lpc_chip_11cxx_lib/src/uart_11xx.c **** 	}
 534              		.loc 1 117 0
 535 0016 0133     		adds	r3, r3, #1	@ pass,
 536              	.LVL57:
 113:../../lib/lpc11cx4-library/lpc_chip_11cxx_lib/src/uart_11xx.c **** 		   ((Chip_UART_ReadLineStatus(pUART) & UART_LSR_RDR) != 0)) {
 537              		.loc 1 113 0
ARM GAS  /var/folders/z0/6xlwn_996xz3mwq1cgzkbq4r0000gp/T//cckgJHwF.s 			page 28


 538 0018 9A42     		cmp	r2, r3	@ numBytes, pass
 539 001a F7DC     		bgt	.L37	@,
 540              	.LVL58:
 541              	.L38:
 542              	.LBE114:
 543              	.LBE115:
 130:../../lib/lpc11cx4-library/lpc_chip_11cxx_lib/src/uart_11xx.c **** 		pass = Chip_UART_Read(pUART, p8, numBytes);
 131:../../lib/lpc11cx4-library/lpc_chip_11cxx_lib/src/uart_11xx.c **** 		numBytes -= pass;
 132:../../lib/lpc11cx4-library/lpc_chip_11cxx_lib/src/uart_11xx.c **** 		readBytes += pass;
 544              		.loc 1 132 0
 545 001c F618     		adds	r6, r6, r3	@ readBytes, readBytes, pass
 546              	.LVL59:
 131:../../lib/lpc11cx4-library/lpc_chip_11cxx_lib/src/uart_11xx.c **** 		readBytes += pass;
 547              		.loc 1 131 0
 548 001e D21A     		subs	r2, r2, r3	@ numBytes, numBytes, pass
 549              	.LVL60:
 133:../../lib/lpc11cx4-library/lpc_chip_11cxx_lib/src/uart_11xx.c **** 		p8 += pass;
 550              		.loc 1 133 0
 551 0020 C918     		adds	r1, r1, r3	@ data, data, pass
 552              	.LVL61:
 129:../../lib/lpc11cx4-library/lpc_chip_11cxx_lib/src/uart_11xx.c **** 		pass = Chip_UART_Read(pUART, p8, numBytes);
 553              		.loc 1 129 0
 554 0022 B242     		cmp	r2, r6	@ numBytes, readBytes
 555 0024 F1DC     		bgt	.L41	@,
 556              	.LVL62:
 557              	.L36:
 134:../../lib/lpc11cx4-library/lpc_chip_11cxx_lib/src/uart_11xx.c **** 	}
 135:../../lib/lpc11cx4-library/lpc_chip_11cxx_lib/src/uart_11xx.c **** 
 136:../../lib/lpc11cx4-library/lpc_chip_11cxx_lib/src/uart_11xx.c **** 	return readBytes;
 137:../../lib/lpc11cx4-library/lpc_chip_11cxx_lib/src/uart_11xx.c **** }
 558              		.loc 1 137 0
 559 0026 3000     		movs	r0, r6	@, readBytes
 560              	.LVL63:
 561              		@ sp needed	@
 562 0028 70BD     		pop	{r4, r5, r6, pc}
 563              		.cfi_endproc
 564              	.LFE203:
 565              		.size	Chip_UART_ReadBlocking, .-Chip_UART_ReadBlocking
 566              		.global	__aeabi_uidiv
 567 002a C046     		.section	.text.Chip_UART_SetBaud,"ax",%progbits
 568              		.align	2
 569              		.global	Chip_UART_SetBaud
 570              		.code	16
 571              		.thumb_func
 572              		.type	Chip_UART_SetBaud, %function
 573              	Chip_UART_SetBaud:
 574              	.LFB204:
 138:../../lib/lpc11cx4-library/lpc_chip_11cxx_lib/src/uart_11xx.c **** 
 139:../../lib/lpc11cx4-library/lpc_chip_11cxx_lib/src/uart_11xx.c **** /* Determines and sets best dividers to get a target bit rate */
 140:../../lib/lpc11cx4-library/lpc_chip_11cxx_lib/src/uart_11xx.c **** uint32_t Chip_UART_SetBaud(LPC_USART_T *pUART, uint32_t baudrate)
 141:../../lib/lpc11cx4-library/lpc_chip_11cxx_lib/src/uart_11xx.c **** {
 575              		.loc 1 141 0
 576              		.cfi_startproc
 577              		@ args = 0, pretend = 0, frame = 0
 578              		@ frame_needed = 0, uses_anonymous_args = 0
 579              	.LVL64:
 580 0000 70B5     		push	{r4, r5, r6, lr}	@
ARM GAS  /var/folders/z0/6xlwn_996xz3mwq1cgzkbq4r0000gp/T//cckgJHwF.s 			page 29


 581              		.cfi_def_cfa_offset 16
 582              		.cfi_offset 4, -16
 583              		.cfi_offset 5, -12
 584              		.cfi_offset 6, -8
 585              		.cfi_offset 14, -4
 586              		.loc 1 141 0
 587 0002 0E00     		movs	r6, r1	@ baudrate, baudrate
 588 0004 0400     		movs	r4, r0	@ pUART, pUART
 142:../../lib/lpc11cx4-library/lpc_chip_11cxx_lib/src/uart_11xx.c **** 	uint32_t div, divh, divl, clkin;
 143:../../lib/lpc11cx4-library/lpc_chip_11cxx_lib/src/uart_11xx.c **** 
 144:../../lib/lpc11cx4-library/lpc_chip_11cxx_lib/src/uart_11xx.c **** 	/* Determine UART clock in rate without FDR */
 145:../../lib/lpc11cx4-library/lpc_chip_11cxx_lib/src/uart_11xx.c **** 	clkin = Chip_Clock_GetMainClockRate();
 589              		.loc 1 145 0
 590 0006 FFF7FEFF 		bl	Chip_Clock_GetMainClockRate	@
 591              	.LVL65:
 146:../../lib/lpc11cx4-library/lpc_chip_11cxx_lib/src/uart_11xx.c **** 	div = clkin / (baudrate * 16);
 592              		.loc 1 146 0
 593 000a 3101     		lsls	r1, r6, #4	@ D.6534, baudrate,
 145:../../lib/lpc11cx4-library/lpc_chip_11cxx_lib/src/uart_11xx.c **** 	div = clkin / (baudrate * 16);
 594              		.loc 1 145 0
 595 000c 0500     		movs	r5, r0	@ clkin,
 596              	.LVL66:
 597              		.loc 1 146 0
 598 000e FFF7FEFF 		bl	__aeabi_uidiv	@
 599              	.LVL67:
 600              	.LBB116:
 601              	.LBB117:
 431:../../lib/lpc11cx4-library/lpc_chip_11cxx_lib/inc/uart_11xx.h **** }
 602              		.loc 3 431 0
 603 0012 8022     		movs	r2, #128	@ tmp130,
 604              	.LBE117:
 605              	.LBE116:
 606              		.loc 1 146 0
 607 0014 0100     		movs	r1, r0	@ tmp129,
 608              	.LVL68:
 609              	.LBB119:
 610              	.LBB118:
 431:../../lib/lpc11cx4-library/lpc_chip_11cxx_lib/inc/uart_11xx.h **** }
 611              		.loc 3 431 0
 612 0016 E368     		ldr	r3, [r4, #12]	@ D.6534, pUART_10(D)->LCR
 613 0018 0E00     		movs	r6, r1	@ D.6535, tmp129
 614              	.LVL69:
 615 001a 1343     		orrs	r3, r2	@ D.6534, tmp130
 616 001c E360     		str	r3, [r4, #12]	@ D.6534, pUART_10(D)->LCR
 617              	.LVL70:
 618 001e 030A     		lsrs	r3, r0, #8	@ divh, tmp129,
 619              	.LVL71:
 620 0020 FF20     		movs	r0, #255	@ tmp133,
 621              	.LVL72:
 622 0022 0640     		ands	r6, r0	@ D.6535, tmp133
 623 0024 0340     		ands	r3, r0	@ D.6535, tmp133
 624              	.LVL73:
 625              	.LBE118:
 626              	.LBE119:
 627              	.LBB120:
 628              	.LBB121:
 456:../../lib/lpc11cx4-library/lpc_chip_11cxx_lib/inc/uart_11xx.h **** 	pUART->DLM = (uint32_t) dlm;
ARM GAS  /var/folders/z0/6xlwn_996xz3mwq1cgzkbq4r0000gp/T//cckgJHwF.s 			page 30


 629              		.loc 3 456 0
 630 0026 2660     		str	r6, [r4]	@ D.6535, pUART_10(D)->D.5091.DLL
 457:../../lib/lpc11cx4-library/lpc_chip_11cxx_lib/inc/uart_11xx.h **** }
 631              		.loc 3 457 0
 632 0028 6360     		str	r3, [r4, #4]	@ D.6535, pUART_10(D)->D.5095.DLM
 633              	.LVL74:
 634              	.LBE121:
 635              	.LBE120:
 636              	.LBB122:
 637              	.LBB123:
 441:../../lib/lpc11cx4-library/lpc_chip_11cxx_lib/inc/uart_11xx.h **** }
 638              		.loc 3 441 0
 639 002a E368     		ldr	r3, [r4, #12]	@ D.6534, pUART_10(D)->LCR
 640              	.LBE123:
 641              	.LBE122:
 147:../../lib/lpc11cx4-library/lpc_chip_11cxx_lib/src/uart_11xx.c **** 
 148:../../lib/lpc11cx4-library/lpc_chip_11cxx_lib/src/uart_11xx.c **** 	/* High and low halves of the divider */
 149:../../lib/lpc11cx4-library/lpc_chip_11cxx_lib/src/uart_11xx.c **** 	divh = div / 256;
 150:../../lib/lpc11cx4-library/lpc_chip_11cxx_lib/src/uart_11xx.c **** 	divl = div - (divh * 256);
 151:../../lib/lpc11cx4-library/lpc_chip_11cxx_lib/src/uart_11xx.c **** 
 152:../../lib/lpc11cx4-library/lpc_chip_11cxx_lib/src/uart_11xx.c **** 	Chip_UART_EnableDivisorAccess(pUART);
 153:../../lib/lpc11cx4-library/lpc_chip_11cxx_lib/src/uart_11xx.c **** 	Chip_UART_SetDivisorLatches(pUART, divl, divh);
 154:../../lib/lpc11cx4-library/lpc_chip_11cxx_lib/src/uart_11xx.c **** 	Chip_UART_DisableDivisorAccess(pUART);
 155:../../lib/lpc11cx4-library/lpc_chip_11cxx_lib/src/uart_11xx.c **** 
 156:../../lib/lpc11cx4-library/lpc_chip_11cxx_lib/src/uart_11xx.c **** 	/* Fractional FDR alreadt setup for 1 in UART init */
 157:../../lib/lpc11cx4-library/lpc_chip_11cxx_lib/src/uart_11xx.c **** 
 158:../../lib/lpc11cx4-library/lpc_chip_11cxx_lib/src/uart_11xx.c **** 	return clkin / div;
 642              		.loc 1 158 0
 643 002c 2800     		movs	r0, r5	@, clkin
 644              	.LBB125:
 645              	.LBB124:
 441:../../lib/lpc11cx4-library/lpc_chip_11cxx_lib/inc/uart_11xx.h **** }
 646              		.loc 3 441 0
 647 002e 9343     		bics	r3, r2	@ D.6534, tmp130
 648 0030 E360     		str	r3, [r4, #12]	@ D.6534, pUART_10(D)->LCR
 649              	.LVL75:
 650              	.LBE124:
 651              	.LBE125:
 652              		.loc 1 158 0
 653 0032 FFF7FEFF 		bl	__aeabi_uidiv	@
 654              	.LVL76:
 159:../../lib/lpc11cx4-library/lpc_chip_11cxx_lib/src/uart_11xx.c **** }
 655              		.loc 1 159 0
 656              		@ sp needed	@
 657              	.LVL77:
 658              	.LVL78:
 659 0036 70BD     		pop	{r4, r5, r6, pc}
 660              		.cfi_endproc
 661              	.LFE204:
 662              		.size	Chip_UART_SetBaud, .-Chip_UART_SetBaud
 663              		.section	.text.Chip_UART_RXIntHandlerRB,"ax",%progbits
 664              		.align	2
 665              		.global	Chip_UART_RXIntHandlerRB
 666              		.code	16
 667              		.thumb_func
 668              		.type	Chip_UART_RXIntHandlerRB, %function
 669              	Chip_UART_RXIntHandlerRB:
ARM GAS  /var/folders/z0/6xlwn_996xz3mwq1cgzkbq4r0000gp/T//cckgJHwF.s 			page 31


 670              	.LFB205:
 160:../../lib/lpc11cx4-library/lpc_chip_11cxx_lib/src/uart_11xx.c **** 
 161:../../lib/lpc11cx4-library/lpc_chip_11cxx_lib/src/uart_11xx.c **** /* UART receive-only interrupt handler for ring buffers */
 162:../../lib/lpc11cx4-library/lpc_chip_11cxx_lib/src/uart_11xx.c **** void Chip_UART_RXIntHandlerRB(LPC_USART_T *pUART, RINGBUFF_T *pRB)
 163:../../lib/lpc11cx4-library/lpc_chip_11cxx_lib/src/uart_11xx.c **** {
 671              		.loc 1 163 0
 672              		.cfi_startproc
 673              		@ args = 0, pretend = 0, frame = 8
 674              		@ frame_needed = 0, uses_anonymous_args = 0
 675              	.LVL79:
 676 0000 F0B5     		push	{r4, r5, r6, r7, lr}	@
 677              		.cfi_def_cfa_offset 20
 678              		.cfi_offset 4, -20
 679              		.cfi_offset 5, -16
 680              		.cfi_offset 6, -12
 681              		.cfi_offset 7, -8
 682              		.cfi_offset 14, -4
 683 0002 83B0     		sub	sp, sp, #12	@,,
 684              		.cfi_def_cfa_offset 32
 685 0004 6A46     		mov	r2, sp	@ tmp128,
 686              	.LBB126:
 687              	.LBB127:
 688              		.loc 3 507 0
 689 0006 4369     		ldr	r3, [r0, #20]	@ D.6539, pUART_3(D)->LSR
 690              	.LVL80:
 691              	.LBE127:
 692              	.LBE126:
 693              		.loc 1 163 0
 694 0008 0400     		movs	r4, r0	@ pUART, pUART
 695 000a 0F00     		movs	r7, r1	@ pRB, pRB
 696 000c D51D     		adds	r5, r2, #7	@ tmp125, tmp128,
 164:../../lib/lpc11cx4-library/lpc_chip_11cxx_lib/src/uart_11xx.c **** 	/* New data will be ignored if data not popped in time */
 165:../../lib/lpc11cx4-library/lpc_chip_11cxx_lib/src/uart_11xx.c **** 	while (Chip_UART_ReadLineStatus(pUART) & UART_LSR_RDR) {
 697              		.loc 1 165 0
 698 000e 0126     		movs	r6, #1	@ tmp126,
 699 0010 DB07     		lsls	r3, r3, #31	@ tmp127, D.6539,
 700 0012 08D5     		bpl	.L45	@,
 701              	.LVL81:
 702              	.L49:
 703              	.LBB129:
 704              	.LBB130:
 705              	.LBB131:
 338:../../lib/lpc11cx4-library/lpc_chip_11cxx_lib/inc/uart_11xx.h **** }
 706              		.loc 3 338 0
 707 0014 2368     		ldr	r3, [r4]	@ D.6538, pUART_3(D)->D.5091.RBR
 708              	.LVL82:
 709              	.LBE131:
 710              	.LBE130:
 166:../../lib/lpc11cx4-library/lpc_chip_11cxx_lib/src/uart_11xx.c **** 		uint8_t ch = Chip_UART_ReadByte(pUART);
 167:../../lib/lpc11cx4-library/lpc_chip_11cxx_lib/src/uart_11xx.c **** 		RingBuffer_Insert(pRB, &ch);
 711              		.loc 1 167 0
 712 0016 2900     		movs	r1, r5	@, tmp125
 713 0018 3800     		movs	r0, r7	@, pRB
 166:../../lib/lpc11cx4-library/lpc_chip_11cxx_lib/src/uart_11xx.c **** 		uint8_t ch = Chip_UART_ReadByte(pUART);
 714              		.loc 1 166 0
 715 001a 2B70     		strb	r3, [r5]	@ D.6538, ch
 716              		.loc 1 167 0
ARM GAS  /var/folders/z0/6xlwn_996xz3mwq1cgzkbq4r0000gp/T//cckgJHwF.s 			page 32


 717 001c FFF7FEFF 		bl	RingBuffer_Insert	@
 718              	.LVL83:
 719              	.LBE129:
 720              	.LBB132:
 721              	.LBB128:
 722              		.loc 3 507 0
 723 0020 6369     		ldr	r3, [r4, #20]	@ D.6539, pUART_3(D)->LSR
 724              	.LVL84:
 725              	.LBE128:
 726              	.LBE132:
 165:../../lib/lpc11cx4-library/lpc_chip_11cxx_lib/src/uart_11xx.c **** 		uint8_t ch = Chip_UART_ReadByte(pUART);
 727              		.loc 1 165 0
 728 0022 1E42     		tst	r6, r3	@ tmp126, D.6539
 729 0024 F6D1     		bne	.L49	@,
 730              	.L45:
 168:../../lib/lpc11cx4-library/lpc_chip_11cxx_lib/src/uart_11xx.c **** 	}
 169:../../lib/lpc11cx4-library/lpc_chip_11cxx_lib/src/uart_11xx.c **** }
 731              		.loc 1 169 0
 732 0026 03B0     		add	sp, sp, #12	@,,
 733              		@ sp needed	@
 734              	.LVL85:
 735              	.LVL86:
 736 0028 F0BD     		pop	{r4, r5, r6, r7, pc}
 737              		.cfi_endproc
 738              	.LFE205:
 739              		.size	Chip_UART_RXIntHandlerRB, .-Chip_UART_RXIntHandlerRB
 740 002a C046     		.section	.text.Chip_UART_TXIntHandlerRB,"ax",%progbits
 741              		.align	2
 742              		.global	Chip_UART_TXIntHandlerRB
 743              		.code	16
 744              		.thumb_func
 745              		.type	Chip_UART_TXIntHandlerRB, %function
 746              	Chip_UART_TXIntHandlerRB:
 747              	.LFB206:
 170:../../lib/lpc11cx4-library/lpc_chip_11cxx_lib/src/uart_11xx.c **** 
 171:../../lib/lpc11cx4-library/lpc_chip_11cxx_lib/src/uart_11xx.c **** /* UART transmit-only interrupt handler for ring buffers */
 172:../../lib/lpc11cx4-library/lpc_chip_11cxx_lib/src/uart_11xx.c **** void Chip_UART_TXIntHandlerRB(LPC_USART_T *pUART, RINGBUFF_T *pRB)
 173:../../lib/lpc11cx4-library/lpc_chip_11cxx_lib/src/uart_11xx.c **** {
 748              		.loc 1 173 0
 749              		.cfi_startproc
 750              		@ args = 0, pretend = 0, frame = 8
 751              		@ frame_needed = 0, uses_anonymous_args = 0
 752              	.LVL87:
 753 0000 F0B5     		push	{r4, r5, r6, r7, lr}	@
 754              		.cfi_def_cfa_offset 20
 755              		.cfi_offset 4, -20
 756              		.cfi_offset 5, -16
 757              		.cfi_offset 6, -12
 758              		.cfi_offset 7, -8
 759              		.cfi_offset 14, -4
 760 0002 83B0     		sub	sp, sp, #12	@,,
 761              		.cfi_def_cfa_offset 32
 762 0004 6A46     		mov	r2, sp	@ tmp128,
 763              	.LBB133:
 764              	.LBB134:
 765              		.loc 3 507 0
 766 0006 4369     		ldr	r3, [r0, #20]	@ D.6546, pUART_4(D)->LSR
ARM GAS  /var/folders/z0/6xlwn_996xz3mwq1cgzkbq4r0000gp/T//cckgJHwF.s 			page 33


 767              	.LVL88:
 768              	.LBE134:
 769              	.LBE133:
 770              		.loc 1 173 0
 771 0008 0400     		movs	r4, r0	@ pUART, pUART
 772 000a 0E00     		movs	r6, r1	@ pRB, pRB
 773 000c D51D     		adds	r5, r2, #7	@ tmp125, tmp128,
 174:../../lib/lpc11cx4-library/lpc_chip_11cxx_lib/src/uart_11xx.c **** 	uint8_t ch;
 175:../../lib/lpc11cx4-library/lpc_chip_11cxx_lib/src/uart_11xx.c **** 
 176:../../lib/lpc11cx4-library/lpc_chip_11cxx_lib/src/uart_11xx.c **** 	/* Fill FIFO until full or until TX ring buffer is empty */
 177:../../lib/lpc11cx4-library/lpc_chip_11cxx_lib/src/uart_11xx.c **** 	while ((Chip_UART_ReadLineStatus(pUART) & UART_LSR_THRE) != 0 &&
 774              		.loc 1 177 0
 775 000e 2027     		movs	r7, #32	@ tmp126,
 776 0010 9B06     		lsls	r3, r3, #26	@ tmp127, D.6546,
 777 0012 05D4     		bmi	.L59	@,
 778 0014 0AE0     		b	.L51	@
 779              	.LVL89:
 780              	.L54:
 781              	.LBB136:
 782              	.LBB137:
 325:../../lib/lpc11cx4-library/lpc_chip_11cxx_lib/inc/uart_11xx.h **** }
 783              		.loc 3 325 0
 784 0016 2B78     		ldrb	r3, [r5]	@ D.6543, ch
 785 0018 2360     		str	r3, [r4]	@ D.6543, pUART_4(D)->D.5091.THR
 786              	.LVL90:
 787              	.LBE137:
 788              	.LBE136:
 789              	.LBB138:
 790              	.LBB135:
 791              		.loc 3 507 0
 792 001a 6369     		ldr	r3, [r4, #20]	@ D.6546, pUART_4(D)->LSR
 793              	.LVL91:
 794              	.LBE135:
 795              	.LBE138:
 796              		.loc 1 177 0
 797 001c 1F42     		tst	r7, r3	@ tmp126, D.6546
 798 001e 05D0     		beq	.L51	@,
 799              	.LVL92:
 800              	.L59:
 178:../../lib/lpc11cx4-library/lpc_chip_11cxx_lib/src/uart_11xx.c **** 		   RingBuffer_Pop(pRB, &ch)) {
 801              		.loc 1 178 0 discriminator 1
 802 0020 2900     		movs	r1, r5	@, tmp125
 803 0022 3000     		movs	r0, r6	@, pRB
 804 0024 FFF7FEFF 		bl	RingBuffer_Pop	@
 805              	.LVL93:
 177:../../lib/lpc11cx4-library/lpc_chip_11cxx_lib/src/uart_11xx.c **** 		   RingBuffer_Pop(pRB, &ch)) {
 806              		.loc 1 177 0 discriminator 1
 807 0028 0028     		cmp	r0, #0	@ D.6544,
 808 002a F4D1     		bne	.L54	@,
 809              	.L51:
 179:../../lib/lpc11cx4-library/lpc_chip_11cxx_lib/src/uart_11xx.c **** 		Chip_UART_SendByte(pUART, ch);
 180:../../lib/lpc11cx4-library/lpc_chip_11cxx_lib/src/uart_11xx.c **** 	}
 181:../../lib/lpc11cx4-library/lpc_chip_11cxx_lib/src/uart_11xx.c **** }
 810              		.loc 1 181 0
 811 002c 03B0     		add	sp, sp, #12	@,,
 812              		@ sp needed	@
 813              	.LVL94:
ARM GAS  /var/folders/z0/6xlwn_996xz3mwq1cgzkbq4r0000gp/T//cckgJHwF.s 			page 34


 814              	.LVL95:
 815 002e F0BD     		pop	{r4, r5, r6, r7, pc}
 816              		.cfi_endproc
 817              	.LFE206:
 818              		.size	Chip_UART_TXIntHandlerRB, .-Chip_UART_TXIntHandlerRB
 819              		.section	.text.Chip_UART_SendRB,"ax",%progbits
 820              		.align	2
 821              		.global	Chip_UART_SendRB
 822              		.code	16
 823              		.thumb_func
 824              		.type	Chip_UART_SendRB, %function
 825              	Chip_UART_SendRB:
 826              	.LFB207:
 182:../../lib/lpc11cx4-library/lpc_chip_11cxx_lib/src/uart_11xx.c **** 
 183:../../lib/lpc11cx4-library/lpc_chip_11cxx_lib/src/uart_11xx.c **** /* Populate a transmit ring buffer and start UART transmit */
 184:../../lib/lpc11cx4-library/lpc_chip_11cxx_lib/src/uart_11xx.c **** uint32_t Chip_UART_SendRB(LPC_USART_T *pUART, RINGBUFF_T *pRB, const void *data, int bytes)
 185:../../lib/lpc11cx4-library/lpc_chip_11cxx_lib/src/uart_11xx.c **** {
 827              		.loc 1 185 0
 828              		.cfi_startproc
 829              		@ args = 0, pretend = 0, frame = 0
 830              		@ frame_needed = 0, uses_anonymous_args = 0
 831              	.LVL96:
 832 0000 F8B5     		push	{r3, r4, r5, r6, r7, lr}	@
 833              		.cfi_def_cfa_offset 24
 834              		.cfi_offset 3, -24
 835              		.cfi_offset 4, -20
 836              		.cfi_offset 5, -16
 837              		.cfi_offset 6, -12
 838              		.cfi_offset 7, -8
 839              		.cfi_offset 14, -4
 840 0002 4F46     		mov	r7, r9	@,
 841 0004 4646     		mov	r6, r8	@,
 842              	.LBB139:
 843              	.LBB140:
 368:../../lib/lpc11cx4-library/lpc_chip_11cxx_lib/inc/uart_11xx.h **** }
 844              		.loc 3 368 0
 845 0006 0225     		movs	r5, #2	@ tmp126,
 846              	.LBE140:
 847              	.LBE139:
 848              		.loc 1 185 0
 849 0008 C0B4     		push	{r6, r7}	@
 850              		.cfi_def_cfa_offset 32
 851              		.cfi_offset 8, -32
 852              		.cfi_offset 9, -28
 853              		.loc 1 185 0
 854 000a 8946     		mov	r9, r1	@ pRB, pRB
 855 000c 1600     		movs	r6, r2	@ data, data
 856              	.LVL97:
 857 000e 1F00     		movs	r7, r3	@ bytes, bytes
 858              	.LBB144:
 859              	.LBB141:
 368:../../lib/lpc11cx4-library/lpc_chip_11cxx_lib/inc/uart_11xx.h **** }
 860              		.loc 3 368 0
 861 0010 4368     		ldr	r3, [r0, #4]	@ D.6550, pUART_3(D)->D.5095.IER
 862              	.LVL98:
 863              	.LBE141:
 864              	.LBE144:
ARM GAS  /var/folders/z0/6xlwn_996xz3mwq1cgzkbq4r0000gp/T//cckgJHwF.s 			page 35


 865              		.loc 1 185 0
 866 0012 0400     		movs	r4, r0	@ pUART, pUART
 867              	.LBB145:
 868              	.LBB142:
 368:../../lib/lpc11cx4-library/lpc_chip_11cxx_lib/inc/uart_11xx.h **** }
 869              		.loc 3 368 0
 870 0014 AB43     		bics	r3, r5	@ D.6550, tmp126
 871              	.LBE142:
 872              	.LBE145:
 186:../../lib/lpc11cx4-library/lpc_chip_11cxx_lib/src/uart_11xx.c **** 	uint32_t ret;
 187:../../lib/lpc11cx4-library/lpc_chip_11cxx_lib/src/uart_11xx.c **** 	uint8_t *p8 = (uint8_t *) data;
 188:../../lib/lpc11cx4-library/lpc_chip_11cxx_lib/src/uart_11xx.c **** 
 189:../../lib/lpc11cx4-library/lpc_chip_11cxx_lib/src/uart_11xx.c **** 	/* Don't let UART transmit ring buffer change in the UART IRQ handler */
 190:../../lib/lpc11cx4-library/lpc_chip_11cxx_lib/src/uart_11xx.c **** 	Chip_UART_IntDisable(pUART, UART_IER_THREINT);
 191:../../lib/lpc11cx4-library/lpc_chip_11cxx_lib/src/uart_11xx.c **** 
 192:../../lib/lpc11cx4-library/lpc_chip_11cxx_lib/src/uart_11xx.c **** 	/* Move as much data as possible into transmit ring buffer */
 193:../../lib/lpc11cx4-library/lpc_chip_11cxx_lib/src/uart_11xx.c **** 	ret = RingBuffer_InsertMult(pRB, p8, bytes);
 873              		.loc 1 193 0
 874 0016 3A00     		movs	r2, r7	@, bytes
 875              	.LVL99:
 876              	.LBB146:
 877              	.LBB143:
 368:../../lib/lpc11cx4-library/lpc_chip_11cxx_lib/inc/uart_11xx.h **** }
 878              		.loc 3 368 0
 879 0018 4360     		str	r3, [r0, #4]	@ D.6550, pUART_3(D)->D.5095.IER
 880              	.LVL100:
 881              	.LBE143:
 882              	.LBE146:
 883              		.loc 1 193 0
 884 001a 3100     		movs	r1, r6	@, data
 885              	.LVL101:
 886 001c 4846     		mov	r0, r9	@, pRB
 887              	.LVL102:
 888 001e FFF7FEFF 		bl	RingBuffer_InsertMult	@
 889              	.LVL103:
 890 0022 8046     		mov	r8, r0	@ ret,
 891              	.LVL104:
 194:../../lib/lpc11cx4-library/lpc_chip_11cxx_lib/src/uart_11xx.c **** 	Chip_UART_TXIntHandlerRB(pUART, pRB);
 892              		.loc 1 194 0
 893 0024 4946     		mov	r1, r9	@, pRB
 894 0026 2000     		movs	r0, r4	@, pUART
 895              	.LVL105:
 896 0028 FFF7FEFF 		bl	Chip_UART_TXIntHandlerRB	@
 897              	.LVL106:
 195:../../lib/lpc11cx4-library/lpc_chip_11cxx_lib/src/uart_11xx.c **** 
 196:../../lib/lpc11cx4-library/lpc_chip_11cxx_lib/src/uart_11xx.c **** 	/* Add additional data to transmit ring buffer if possible */
 197:../../lib/lpc11cx4-library/lpc_chip_11cxx_lib/src/uart_11xx.c **** 	ret += RingBuffer_InsertMult(pRB, (p8 + ret), (bytes - ret));
 898              		.loc 1 197 0
 899 002c 4346     		mov	r3, r8	@ ret, ret
 900 002e 3100     		movs	r1, r6	@ data, data
 901 0030 FA1A     		subs	r2, r7, r3	@ D.6550, bytes, ret
 902 0032 4144     		add	r1, r1, r8	@ data, ret
 903 0034 4846     		mov	r0, r9	@, pRB
 904 0036 FFF7FEFF 		bl	RingBuffer_InsertMult	@
 905              	.LVL107:
 906              	.LBB147:
 907              	.LBB148:
ARM GAS  /var/folders/z0/6xlwn_996xz3mwq1cgzkbq4r0000gp/T//cckgJHwF.s 			page 36


 353:../../lib/lpc11cx4-library/lpc_chip_11cxx_lib/inc/uart_11xx.h **** }
 908              		.loc 3 353 0
 909 003a 6368     		ldr	r3, [r4, #4]	@ D.6550, pUART_3(D)->D.5095.IER
 910              	.LBE148:
 911              	.LBE147:
 198:../../lib/lpc11cx4-library/lpc_chip_11cxx_lib/src/uart_11xx.c **** 
 199:../../lib/lpc11cx4-library/lpc_chip_11cxx_lib/src/uart_11xx.c **** 	/* Enable UART transmit interrupt */
 200:../../lib/lpc11cx4-library/lpc_chip_11cxx_lib/src/uart_11xx.c **** 	Chip_UART_IntEnable(pUART, UART_IER_THREINT);
 201:../../lib/lpc11cx4-library/lpc_chip_11cxx_lib/src/uart_11xx.c **** 
 202:../../lib/lpc11cx4-library/lpc_chip_11cxx_lib/src/uart_11xx.c **** 	return ret;
 912              		.loc 1 202 0
 913 003c 4044     		add	r0, r0, r8	@ ret, ret
 914              	.LVL108:
 915              	.LBB150:
 916              	.LBB149:
 353:../../lib/lpc11cx4-library/lpc_chip_11cxx_lib/inc/uart_11xx.h **** }
 917              		.loc 3 353 0
 918 003e 1D43     		orrs	r5, r3	@ D.6550, D.6550
 919 0040 6560     		str	r5, [r4, #4]	@ D.6550, pUART_3(D)->D.5095.IER
 920              	.LVL109:
 921              	.LBE149:
 922              	.LBE150:
 203:../../lib/lpc11cx4-library/lpc_chip_11cxx_lib/src/uart_11xx.c **** }
 923              		.loc 1 203 0
 924              		@ sp needed	@
 925              	.LVL110:
 926              	.LVL111:
 927              	.LVL112:
 928              	.LVL113:
 929 0042 0CBC     		pop	{r2, r3}
 930 0044 9046     		mov	r8, r2
 931 0046 9946     		mov	r9, r3
 932 0048 F8BD     		pop	{r3, r4, r5, r6, r7, pc}
 933              		.cfi_endproc
 934              	.LFE207:
 935              		.size	Chip_UART_SendRB, .-Chip_UART_SendRB
 936 004a C046     		.section	.text.Chip_UART_ReadRB,"ax",%progbits
 937              		.align	2
 938              		.global	Chip_UART_ReadRB
 939              		.code	16
 940              		.thumb_func
 941              		.type	Chip_UART_ReadRB, %function
 942              	Chip_UART_ReadRB:
 943              	.LFB208:
 204:../../lib/lpc11cx4-library/lpc_chip_11cxx_lib/src/uart_11xx.c **** 
 205:../../lib/lpc11cx4-library/lpc_chip_11cxx_lib/src/uart_11xx.c **** /* Copy data from a receive ring buffer */
 206:../../lib/lpc11cx4-library/lpc_chip_11cxx_lib/src/uart_11xx.c **** int Chip_UART_ReadRB(LPC_USART_T *pUART, RINGBUFF_T *pRB, void *data, int bytes)
 207:../../lib/lpc11cx4-library/lpc_chip_11cxx_lib/src/uart_11xx.c **** {
 944              		.loc 1 207 0
 945              		.cfi_startproc
 946              		@ args = 0, pretend = 0, frame = 0
 947              		@ frame_needed = 0, uses_anonymous_args = 0
 948              	.LVL114:
 949 0000 10B5     		push	{r4, lr}	@
 950              		.cfi_def_cfa_offset 8
 951              		.cfi_offset 4, -8
 952              		.cfi_offset 14, -4
ARM GAS  /var/folders/z0/6xlwn_996xz3mwq1cgzkbq4r0000gp/T//cckgJHwF.s 			page 37


 953              		.loc 1 207 0
 954 0002 0800     		movs	r0, r1	@ pRB, pRB
 955              	.LVL115:
 956 0004 1100     		movs	r1, r2	@ data, data
 957              	.LVL116:
 208:../../lib/lpc11cx4-library/lpc_chip_11cxx_lib/src/uart_11xx.c **** 	(void) pUART;
 209:../../lib/lpc11cx4-library/lpc_chip_11cxx_lib/src/uart_11xx.c **** 
 210:../../lib/lpc11cx4-library/lpc_chip_11cxx_lib/src/uart_11xx.c **** 	return RingBuffer_PopMult(pRB, (uint8_t *) data, bytes);
 958              		.loc 1 210 0
 959 0006 1A00     		movs	r2, r3	@, bytes
 960              	.LVL117:
 961 0008 FFF7FEFF 		bl	RingBuffer_PopMult	@
 962              	.LVL118:
 211:../../lib/lpc11cx4-library/lpc_chip_11cxx_lib/src/uart_11xx.c **** }
 963              		.loc 1 211 0
 964              		@ sp needed	@
 965 000c 10BD     		pop	{r4, pc}
 966              		.cfi_endproc
 967              	.LFE208:
 968              		.size	Chip_UART_ReadRB, .-Chip_UART_ReadRB
 969 000e C046     		.section	.text.Chip_UART_IRQRBHandler,"ax",%progbits
 970              		.align	2
 971              		.global	Chip_UART_IRQRBHandler
 972              		.code	16
 973              		.thumb_func
 974              		.type	Chip_UART_IRQRBHandler, %function
 975              	Chip_UART_IRQRBHandler:
 976              	.LFB209:
 212:../../lib/lpc11cx4-library/lpc_chip_11cxx_lib/src/uart_11xx.c **** 
 213:../../lib/lpc11cx4-library/lpc_chip_11cxx_lib/src/uart_11xx.c **** /* UART receive/transmit interrupt handler for ring buffers */
 214:../../lib/lpc11cx4-library/lpc_chip_11cxx_lib/src/uart_11xx.c **** void Chip_UART_IRQRBHandler(LPC_USART_T *pUART, RINGBUFF_T *pRXRB, RINGBUFF_T *pTXRB)
 215:../../lib/lpc11cx4-library/lpc_chip_11cxx_lib/src/uart_11xx.c **** {
 977              		.loc 1 215 0
 978              		.cfi_startproc
 979              		@ args = 0, pretend = 0, frame = 8
 980              		@ frame_needed = 0, uses_anonymous_args = 0
 981              	.LVL119:
 982 0000 F0B5     		push	{r4, r5, r6, r7, lr}	@
 983              		.cfi_def_cfa_offset 20
 984              		.cfi_offset 4, -20
 985              		.cfi_offset 5, -16
 986              		.cfi_offset 6, -12
 987              		.cfi_offset 7, -8
 988              		.cfi_offset 14, -4
 216:../../lib/lpc11cx4-library/lpc_chip_11cxx_lib/src/uart_11xx.c **** 	/* Handle transmit interrupt if enabled */
 217:../../lib/lpc11cx4-library/lpc_chip_11cxx_lib/src/uart_11xx.c **** 	if (pUART->IER & UART_IER_THREINT) {
 989              		.loc 1 217 0
 990 0002 0225     		movs	r5, #2	@ tmp125,
 991 0004 4368     		ldr	r3, [r0, #4]	@ D.6558, pUART_3(D)->D.5095.IER
 215:../../lib/lpc11cx4-library/lpc_chip_11cxx_lib/src/uart_11xx.c **** 	/* Handle transmit interrupt if enabled */
 992              		.loc 1 215 0
 993 0006 83B0     		sub	sp, sp, #12	@,,
 994              		.cfi_def_cfa_offset 32
 215:../../lib/lpc11cx4-library/lpc_chip_11cxx_lib/src/uart_11xx.c **** 	/* Handle transmit interrupt if enabled */
 995              		.loc 1 215 0
 996 0008 0400     		movs	r4, r0	@ pUART, pUART
 997 000a 0F00     		movs	r7, r1	@ pRXRB, pRXRB
ARM GAS  /var/folders/z0/6xlwn_996xz3mwq1cgzkbq4r0000gp/T//cckgJHwF.s 			page 38


 998 000c 1600     		movs	r6, r2	@ pTXRB, pTXRB
 999              		.loc 1 217 0
 1000 000e 1D42     		tst	r5, r3	@ tmp125, D.6558
 1001 0010 10D1     		bne	.L71	@,
 1002              	.LVL120:
 1003              	.L64:
 1004 0012 6A46     		mov	r2, sp	@ tmp140,
 1005              	.LBB151:
 1006              	.LBB152:
 1007              	.LBB153:
 1008              	.LBB154:
 1009              		.loc 3 507 0
 1010 0014 6369     		ldr	r3, [r4, #20]	@ D.6559, pUART_3(D)->LSR
 1011              	.LVL121:
 1012 0016 D51D     		adds	r5, r2, #7	@ tmp137, tmp140,
 1013              	.LBE154:
 1014              	.LBE153:
 165:../../lib/lpc11cx4-library/lpc_chip_11cxx_lib/src/uart_11xx.c **** 		uint8_t ch = Chip_UART_ReadByte(pUART);
 1015              		.loc 1 165 0
 1016 0018 0126     		movs	r6, #1	@ tmp138,
 1017              	.LVL122:
 1018 001a DB07     		lsls	r3, r3, #31	@ tmp139, D.6559,
 1019 001c 08D5     		bpl	.L62	@,
 1020              	.L69:
 1021              	.LVL123:
 1022              	.LBB156:
 1023              	.LBB157:
 1024              	.LBB158:
 338:../../lib/lpc11cx4-library/lpc_chip_11cxx_lib/inc/uart_11xx.h **** }
 1025              		.loc 3 338 0
 1026 001e 2368     		ldr	r3, [r4]	@ D.6558, pUART_3(D)->D.5091.RBR
 1027              	.LVL124:
 1028              	.LBE158:
 1029              	.LBE157:
 167:../../lib/lpc11cx4-library/lpc_chip_11cxx_lib/src/uart_11xx.c **** 	}
 1030              		.loc 1 167 0
 1031 0020 2900     		movs	r1, r5	@, tmp137
 1032 0022 3800     		movs	r0, r7	@, pRXRB
 166:../../lib/lpc11cx4-library/lpc_chip_11cxx_lib/src/uart_11xx.c **** 		RingBuffer_Insert(pRB, &ch);
 1033              		.loc 1 166 0
 1034 0024 2B70     		strb	r3, [r5]	@ D.6558, ch
 167:../../lib/lpc11cx4-library/lpc_chip_11cxx_lib/src/uart_11xx.c **** 	}
 1035              		.loc 1 167 0
 1036 0026 FFF7FEFF 		bl	RingBuffer_Insert	@
 1037              	.LVL125:
 1038              	.LBE156:
 1039              	.LBB159:
 1040              	.LBB155:
 1041              		.loc 3 507 0
 1042 002a 6369     		ldr	r3, [r4, #20]	@ D.6559, pUART_3(D)->LSR
 1043              	.LVL126:
 1044              	.LBE155:
 1045              	.LBE159:
 165:../../lib/lpc11cx4-library/lpc_chip_11cxx_lib/src/uart_11xx.c **** 		uint8_t ch = Chip_UART_ReadByte(pUART);
 1046              		.loc 1 165 0
 1047 002c 1E42     		tst	r6, r3	@ tmp138, D.6559
 1048 002e F6D1     		bne	.L69	@,
ARM GAS  /var/folders/z0/6xlwn_996xz3mwq1cgzkbq4r0000gp/T//cckgJHwF.s 			page 39


 1049              	.L62:
 1050              	.LBE152:
 1051              	.LBE151:
 218:../../lib/lpc11cx4-library/lpc_chip_11cxx_lib/src/uart_11xx.c **** 		Chip_UART_TXIntHandlerRB(pUART, pTXRB);
 219:../../lib/lpc11cx4-library/lpc_chip_11cxx_lib/src/uart_11xx.c **** 
 220:../../lib/lpc11cx4-library/lpc_chip_11cxx_lib/src/uart_11xx.c **** 		/* Disable transmit interrupt if the ring buffer is empty */
 221:../../lib/lpc11cx4-library/lpc_chip_11cxx_lib/src/uart_11xx.c **** 		if (RingBuffer_IsEmpty(pTXRB)) {
 222:../../lib/lpc11cx4-library/lpc_chip_11cxx_lib/src/uart_11xx.c **** 			Chip_UART_IntDisable(pUART, UART_IER_THREINT);
 223:../../lib/lpc11cx4-library/lpc_chip_11cxx_lib/src/uart_11xx.c **** 		}
 224:../../lib/lpc11cx4-library/lpc_chip_11cxx_lib/src/uart_11xx.c **** 	}
 225:../../lib/lpc11cx4-library/lpc_chip_11cxx_lib/src/uart_11xx.c **** 
 226:../../lib/lpc11cx4-library/lpc_chip_11cxx_lib/src/uart_11xx.c **** 	/* Handle receive interrupt */
 227:../../lib/lpc11cx4-library/lpc_chip_11cxx_lib/src/uart_11xx.c **** 	Chip_UART_RXIntHandlerRB(pUART, pRXRB);
 228:../../lib/lpc11cx4-library/lpc_chip_11cxx_lib/src/uart_11xx.c **** }
 1052              		.loc 1 228 0
 1053 0030 03B0     		add	sp, sp, #12	@,,
 1054              		@ sp needed	@
 1055              	.LVL127:
 1056              	.LVL128:
 1057 0032 F0BD     		pop	{r4, r5, r6, r7, pc}
 1058              	.LVL129:
 1059              	.L71:
 218:../../lib/lpc11cx4-library/lpc_chip_11cxx_lib/src/uart_11xx.c **** 		Chip_UART_TXIntHandlerRB(pUART, pTXRB);
 1060              		.loc 1 218 0
 1061 0034 1100     		movs	r1, r2	@, pTXRB
 1062              	.LVL130:
 1063 0036 FFF7FEFF 		bl	Chip_UART_TXIntHandlerRB	@
 1064              	.LVL131:
 221:../../lib/lpc11cx4-library/lpc_chip_11cxx_lib/src/uart_11xx.c **** 			Chip_UART_IntDisable(pUART, UART_IER_THREINT);
 1065              		.loc 1 221 0
 1066 003a F268     		ldr	r2, [r6, #12]	@ MEM[(long unsigned int *)pTXRB_6(D) + 12B], MEM[(long unsigned int *)pTXRB_6(D
 1067 003c 3369     		ldr	r3, [r6, #16]	@ MEM[(long unsigned int *)pTXRB_6(D) + 16B], MEM[(long unsigned int *)pTXRB_6(D
 1068 003e 9A42     		cmp	r2, r3	@ MEM[(long unsigned int *)pTXRB_6(D) + 12B], MEM[(long unsigned int *)pTXRB_6(D) + 16B
 1069 0040 E7D1     		bne	.L64	@,
 1070              	.LVL132:
 1071              	.LBB160:
 1072              	.LBB161:
 368:../../lib/lpc11cx4-library/lpc_chip_11cxx_lib/inc/uart_11xx.h **** }
 1073              		.loc 3 368 0
 1074 0042 6368     		ldr	r3, [r4, #4]	@ D.6558, pUART_3(D)->D.5095.IER
 1075 0044 AB43     		bics	r3, r5	@ D.6558, tmp125
 1076 0046 6360     		str	r3, [r4, #4]	@ D.6558, pUART_3(D)->D.5095.IER
 1077 0048 E3E7     		b	.L64	@
 1078              	.LBE161:
 1079              	.LBE160:
 1080              		.cfi_endproc
 1081              	.LFE209:
 1082              		.size	Chip_UART_IRQRBHandler, .-Chip_UART_IRQRBHandler
 1083              		.global	__aeabi_uidivmod
 1084 004a C046     		.section	.text.Chip_UART_SetBaudFDR,"ax",%progbits
 1085              		.align	2
 1086              		.global	Chip_UART_SetBaudFDR
 1087              		.code	16
 1088              		.thumb_func
 1089              		.type	Chip_UART_SetBaudFDR, %function
 1090              	Chip_UART_SetBaudFDR:
 1091              	.LFB210:
ARM GAS  /var/folders/z0/6xlwn_996xz3mwq1cgzkbq4r0000gp/T//cckgJHwF.s 			page 40


 229:../../lib/lpc11cx4-library/lpc_chip_11cxx_lib/src/uart_11xx.c **** 
 230:../../lib/lpc11cx4-library/lpc_chip_11cxx_lib/src/uart_11xx.c **** /* Determines and sets best dividers to get a target baud rate */
 231:../../lib/lpc11cx4-library/lpc_chip_11cxx_lib/src/uart_11xx.c **** uint32_t Chip_UART_SetBaudFDR(LPC_USART_T *pUART, uint32_t baudrate)
 232:../../lib/lpc11cx4-library/lpc_chip_11cxx_lib/src/uart_11xx.c **** 
 233:../../lib/lpc11cx4-library/lpc_chip_11cxx_lib/src/uart_11xx.c **** {
 1092              		.loc 1 233 0
 1093              		.cfi_startproc
 1094              		@ args = 0, pretend = 0, frame = 0
 1095              		@ frame_needed = 0, uses_anonymous_args = 0
 1096              	.LVL133:
 1097 0000 F8B5     		push	{r3, r4, r5, r6, r7, lr}	@
 1098              		.cfi_def_cfa_offset 24
 1099              		.cfi_offset 3, -24
 1100              		.cfi_offset 4, -20
 1101              		.cfi_offset 5, -16
 1102              		.cfi_offset 6, -12
 1103              		.cfi_offset 7, -8
 1104              		.cfi_offset 14, -4
 1105 0002 4F46     		mov	r7, r9	@,
 1106 0004 4646     		mov	r6, r8	@,
 1107 0006 C0B4     		push	{r6, r7}	@
 1108              		.cfi_def_cfa_offset 32
 1109              		.cfi_offset 8, -32
 1110              		.cfi_offset 9, -28
 234:../../lib/lpc11cx4-library/lpc_chip_11cxx_lib/src/uart_11xx.c **** 	uint32_t uClk;
 235:../../lib/lpc11cx4-library/lpc_chip_11cxx_lib/src/uart_11xx.c ****     uint32_t dval;
 236:../../lib/lpc11cx4-library/lpc_chip_11cxx_lib/src/uart_11xx.c ****     uint32_t mval = 0;
 237:../../lib/lpc11cx4-library/lpc_chip_11cxx_lib/src/uart_11xx.c ****     uint32_t dl;
 238:../../lib/lpc11cx4-library/lpc_chip_11cxx_lib/src/uart_11xx.c ****     uint32_t rate16 = 16 * baudrate;
 1111              		.loc 1 238 0
 1112 0008 0D01     		lsls	r5, r1, #4	@ rate16, baudrate,
 1113              	.LVL134:
 233:../../lib/lpc11cx4-library/lpc_chip_11cxx_lib/src/uart_11xx.c **** 	uint32_t uClk;
 1114              		.loc 1 233 0
 1115 000a 0400     		movs	r4, r0	@ pUART, pUART
 239:../../lib/lpc11cx4-library/lpc_chip_11cxx_lib/src/uart_11xx.c **** 	uint32_t actualRate = 0;
 240:../../lib/lpc11cx4-library/lpc_chip_11cxx_lib/src/uart_11xx.c **** 
 241:../../lib/lpc11cx4-library/lpc_chip_11cxx_lib/src/uart_11xx.c **** 	/* Get Clock rate */
 242:../../lib/lpc11cx4-library/lpc_chip_11cxx_lib/src/uart_11xx.c **** 	uClk = Chip_Clock_GetMainClockRate();
 1116              		.loc 1 242 0
 1117 000c FFF7FEFF 		bl	Chip_Clock_GetMainClockRate	@
 1118              	.LVL135:
 243:../../lib/lpc11cx4-library/lpc_chip_11cxx_lib/src/uart_11xx.c **** 
 244:../../lib/lpc11cx4-library/lpc_chip_11cxx_lib/src/uart_11xx.c ****     /* The fractional is calculated as (PCLK  % (16 * Baudrate)) / (16 * Baudrate)
 245:../../lib/lpc11cx4-library/lpc_chip_11cxx_lib/src/uart_11xx.c ****      * Let's make it to be the ratio DivVal / MulVal
 246:../../lib/lpc11cx4-library/lpc_chip_11cxx_lib/src/uart_11xx.c ****      */
 247:../../lib/lpc11cx4-library/lpc_chip_11cxx_lib/src/uart_11xx.c **** 	dval = uClk % rate16;
 1119              		.loc 1 247 0
 1120 0010 2900     		movs	r1, r5	@, rate16
 242:../../lib/lpc11cx4-library/lpc_chip_11cxx_lib/src/uart_11xx.c **** 
 1121              		.loc 1 242 0
 1122 0012 0700     		movs	r7, r0	@ uClk,
 1123              	.LVL136:
 1124              		.loc 1 247 0
 1125 0014 FFF7FEFF 		bl	__aeabi_uidivmod	@
 1126              	.LVL137:
 248:../../lib/lpc11cx4-library/lpc_chip_11cxx_lib/src/uart_11xx.c **** 
ARM GAS  /var/folders/z0/6xlwn_996xz3mwq1cgzkbq4r0000gp/T//cckgJHwF.s 			page 41


 249:../../lib/lpc11cx4-library/lpc_chip_11cxx_lib/src/uart_11xx.c ****    /* The PCLK / (16 * Baudrate) is fractional
 250:../../lib/lpc11cx4-library/lpc_chip_11cxx_lib/src/uart_11xx.c ****     * => dval = pclk % rate16
 251:../../lib/lpc11cx4-library/lpc_chip_11cxx_lib/src/uart_11xx.c ****     * mval = rate16;
 252:../../lib/lpc11cx4-library/lpc_chip_11cxx_lib/src/uart_11xx.c ****     * now mormalize the ratio
 253:../../lib/lpc11cx4-library/lpc_chip_11cxx_lib/src/uart_11xx.c ****     * dval / mval = 1 / new_mval
 254:../../lib/lpc11cx4-library/lpc_chip_11cxx_lib/src/uart_11xx.c ****     * new_mval = mval / dval
 255:../../lib/lpc11cx4-library/lpc_chip_11cxx_lib/src/uart_11xx.c ****     * new_dval = 1
 256:../../lib/lpc11cx4-library/lpc_chip_11cxx_lib/src/uart_11xx.c ****     */
 257:../../lib/lpc11cx4-library/lpc_chip_11cxx_lib/src/uart_11xx.c ****     if (dval > 0) {
 1127              		.loc 1 257 0
 1128 0018 0029     		cmp	r1, #0	@ tmp143,
 1129 001a 36D0     		beq	.L75	@,
 258:../../lib/lpc11cx4-library/lpc_chip_11cxx_lib/src/uart_11xx.c ****         mval = rate16 / dval;
 1130              		.loc 1 258 0
 1131 001c 2800     		movs	r0, r5	@, rate16
 1132 001e FFF7FEFF 		bl	__aeabi_uidiv	@
 1133              	.LVL138:
 259:../../lib/lpc11cx4-library/lpc_chip_11cxx_lib/src/uart_11xx.c ****         dval = 1;
 1134              		.loc 1 259 0
 1135 0022 0C22     		movs	r2, #12	@ tmp152,
 258:../../lib/lpc11cx4-library/lpc_chip_11cxx_lib/src/uart_11xx.c ****         mval = rate16 / dval;
 1136              		.loc 1 258 0
 1137 0024 0300     		movs	r3, r0	@ tmp149,
 1138              	.LVL139:
 1139              		.loc 1 259 0
 1140 0026 0020     		movs	r0, #0	@ tmp153,
 1141              	.LVL140:
 1142 0028 9A42     		cmp	r2, r3	@ tmp152, tmp149
 1143 002a 4041     		adcs	r0, r0, r0	@ tmp153, tmp153, tmp153
 1144 002c 0F26     		movs	r6, #15	@ tmp154,
 1145 002e 0200     		movs	r2, r0	@ D.6564, D.6565
 1146 0030 1E40     		ands	r6, r3	@ D.6563, tmp149
 1147 0032 3301     		lsls	r3, r6, #4	@ D.6564, D.6563,
 1148              	.LVL141:
 1149 0034 1A43     		orrs	r2, r3	@ D.6564, D.6564
 1150 0036 8146     		mov	r9, r0	@ D.6565, tmp153
 1151 0038 3100     		movs	r1, r6	@, D.6563
 1152 003a 6843     		muls	r0, r5	@ D.6564, rate16
 1153 003c 9046     		mov	r8, r2	@ D.6564, D.6564
 1154 003e FFF7FEFF 		bl	__aeabi_uidiv	@
 1155              	.LVL142:
 1156 0042 4119     		adds	r1, r0, r5	@ D.6564, D.6564, rate16
 1157 0044 3800     		movs	r0, r7	@, uClk
 1158 0046 FFF7FEFF 		bl	__aeabi_uidiv	@
 1159              	.LVL143:
 1160 004a 4B46     		mov	r3, r9	@ D.6565, D.6565
 1161 004c 0500     		movs	r5, r0	@ D.6563,
 1162              	.LVL144:
 1163 004e 1801     		lsls	r0, r3, #4	@ D.6564, D.6565,
 1164 0050 6843     		muls	r0, r5	@ D.6564, D.6563
 1165 0052 3100     		movs	r1, r6	@, D.6563
 1166 0054 FFF7FEFF 		bl	__aeabi_uidiv	@
 1167              	.LVL145:
 1168              	.L74:
 1169              	.LBB162:
 1170              	.LBB163:
 431:../../lib/lpc11cx4-library/lpc_chip_11cxx_lib/inc/uart_11xx.h **** }
ARM GAS  /var/folders/z0/6xlwn_996xz3mwq1cgzkbq4r0000gp/T//cckgJHwF.s 			page 42


 1171              		.loc 3 431 0
 1172 0058 8022     		movs	r2, #128	@ tmp170,
 1173 005a FF21     		movs	r1, #255	@ tmp171,
 1174 005c E368     		ldr	r3, [r4, #12]	@ D.6564, pUART_18(D)->LCR
 1175              	.LBE163:
 1176              	.LBE162:
 260:../../lib/lpc11cx4-library/lpc_chip_11cxx_lib/src/uart_11xx.c **** 
 261:../../lib/lpc11cx4-library/lpc_chip_11cxx_lib/src/uart_11xx.c ****         /* In case mval still bigger then 4 bits
 262:../../lib/lpc11cx4-library/lpc_chip_11cxx_lib/src/uart_11xx.c ****         * no adjustment require
 263:../../lib/lpc11cx4-library/lpc_chip_11cxx_lib/src/uart_11xx.c ****         */
 264:../../lib/lpc11cx4-library/lpc_chip_11cxx_lib/src/uart_11xx.c ****         if (mval > 12) {
 265:../../lib/lpc11cx4-library/lpc_chip_11cxx_lib/src/uart_11xx.c ****          dval = 0;
 266:../../lib/lpc11cx4-library/lpc_chip_11cxx_lib/src/uart_11xx.c ****       }
 267:../../lib/lpc11cx4-library/lpc_chip_11cxx_lib/src/uart_11xx.c ****     }
 268:../../lib/lpc11cx4-library/lpc_chip_11cxx_lib/src/uart_11xx.c ****     dval &= 0xf;
 269:../../lib/lpc11cx4-library/lpc_chip_11cxx_lib/src/uart_11xx.c ****     mval &= 0xf;
 270:../../lib/lpc11cx4-library/lpc_chip_11cxx_lib/src/uart_11xx.c ****     dl = uClk / (rate16 + rate16 *dval / mval);
 271:../../lib/lpc11cx4-library/lpc_chip_11cxx_lib/src/uart_11xx.c **** 
 272:../../lib/lpc11cx4-library/lpc_chip_11cxx_lib/src/uart_11xx.c ****     /* Update UART registers */
 273:../../lib/lpc11cx4-library/lpc_chip_11cxx_lib/src/uart_11xx.c ****     Chip_UART_EnableDivisorAccess(pUART);
 274:../../lib/lpc11cx4-library/lpc_chip_11cxx_lib/src/uart_11xx.c **** 	Chip_UART_SetDivisorLatches(pUART, UART_LOAD_DLL(dl), UART_LOAD_DLM(dl));
 275:../../lib/lpc11cx4-library/lpc_chip_11cxx_lib/src/uart_11xx.c **** 	Chip_UART_DisableDivisorAccess(pUART);
 276:../../lib/lpc11cx4-library/lpc_chip_11cxx_lib/src/uart_11xx.c **** 
 277:../../lib/lpc11cx4-library/lpc_chip_11cxx_lib/src/uart_11xx.c **** 	/* Set best fractional divider */
 278:../../lib/lpc11cx4-library/lpc_chip_11cxx_lib/src/uart_11xx.c **** 	pUART->FDR = (UART_FDR_MULVAL(mval) | UART_FDR_DIVADDVAL(dval));
 279:../../lib/lpc11cx4-library/lpc_chip_11cxx_lib/src/uart_11xx.c **** 
 280:../../lib/lpc11cx4-library/lpc_chip_11cxx_lib/src/uart_11xx.c **** 	/* Return actual baud rate */
 281:../../lib/lpc11cx4-library/lpc_chip_11cxx_lib/src/uart_11xx.c **** 	actualRate = uClk / (16 * dl + 16 * dl * dval / mval);
 282:../../lib/lpc11cx4-library/lpc_chip_11cxx_lib/src/uart_11xx.c **** 	return actualRate;
 283:../../lib/lpc11cx4-library/lpc_chip_11cxx_lib/src/uart_11xx.c **** }
 1177              		.loc 1 283 0
 1178              		@ sp needed	@
 1179              	.LBB165:
 1180              	.LBB164:
 431:../../lib/lpc11cx4-library/lpc_chip_11cxx_lib/inc/uart_11xx.h **** }
 1181              		.loc 3 431 0
 1182 005e 1343     		orrs	r3, r2	@ D.6564, tmp170
 1183 0060 E360     		str	r3, [r4, #12]	@ D.6564, pUART_18(D)->LCR
 1184              	.LVL146:
 1185 0062 0B00     		movs	r3, r1	@ D.6563, tmp171
 1186 0064 2B40     		ands	r3, r5	@ D.6563, D.6563
 1187              	.LBE164:
 1188              	.LBE165:
 1189              	.LBB166:
 1190              	.LBB167:
 456:../../lib/lpc11cx4-library/lpc_chip_11cxx_lib/inc/uart_11xx.h **** 	pUART->DLM = (uint32_t) dlm;
 1191              		.loc 3 456 0
 1192 0066 2360     		str	r3, [r4]	@ D.6563, pUART_18(D)->D.5091.DLL
 1193 0068 2B0A     		lsrs	r3, r5, #8	@ D.6564, D.6563,
 1194 006a 0B40     		ands	r3, r1	@ D.6564, tmp171
 457:../../lib/lpc11cx4-library/lpc_chip_11cxx_lib/inc/uart_11xx.h **** }
 1195              		.loc 3 457 0
 1196 006c 6360     		str	r3, [r4, #4]	@ D.6564, pUART_18(D)->D.5095.DLM
 1197              	.LVL147:
 1198              	.LBE167:
 1199              	.LBE166:
 1200              	.LBB168:
ARM GAS  /var/folders/z0/6xlwn_996xz3mwq1cgzkbq4r0000gp/T//cckgJHwF.s 			page 43


 1201              	.LBB169:
 441:../../lib/lpc11cx4-library/lpc_chip_11cxx_lib/inc/uart_11xx.h **** }
 1202              		.loc 3 441 0
 1203 006e E368     		ldr	r3, [r4, #12]	@ D.6564, pUART_18(D)->LCR
 1204              	.LBE169:
 1205              	.LBE168:
 282:../../lib/lpc11cx4-library/lpc_chip_11cxx_lib/src/uart_11xx.c **** }
 1206              		.loc 1 282 0
 1207 0070 2901     		lsls	r1, r5, #4	@ D.6564, D.6563,
 1208              	.LBB171:
 1209              	.LBB170:
 441:../../lib/lpc11cx4-library/lpc_chip_11cxx_lib/inc/uart_11xx.h **** }
 1210              		.loc 3 441 0
 1211 0072 9343     		bics	r3, r2	@ D.6564, tmp170
 1212 0074 E360     		str	r3, [r4, #12]	@ D.6564, pUART_18(D)->LCR
 1213              	.LVL148:
 1214              	.LBE170:
 1215              	.LBE171:
 278:../../lib/lpc11cx4-library/lpc_chip_11cxx_lib/src/uart_11xx.c **** 
 1216              		.loc 1 278 0
 1217 0076 4346     		mov	r3, r8	@ D.6564, D.6564
 282:../../lib/lpc11cx4-library/lpc_chip_11cxx_lib/src/uart_11xx.c **** }
 1218              		.loc 1 282 0
 1219 0078 0918     		adds	r1, r1, r0	@ D.6564, D.6564, D.6564
 278:../../lib/lpc11cx4-library/lpc_chip_11cxx_lib/src/uart_11xx.c **** 
 1220              		.loc 1 278 0
 1221 007a A362     		str	r3, [r4, #40]	@ D.6564, pUART_18(D)->FDR
 1222              	.LVL149:
 282:../../lib/lpc11cx4-library/lpc_chip_11cxx_lib/src/uart_11xx.c **** }
 1223              		.loc 1 282 0
 1224 007c 3800     		movs	r0, r7	@, uClk
 1225              	.LVL150:
 1226 007e FFF7FEFF 		bl	__aeabi_uidiv	@
 1227              	.LVL151:
 1228              	.LVL152:
 1229              	.LVL153:
 1230              		.loc 1 283 0
 1231 0082 0CBC     		pop	{r2, r3}
 1232 0084 9046     		mov	r8, r2
 1233 0086 9946     		mov	r9, r3
 1234 0088 F8BD     		pop	{r3, r4, r5, r6, r7, pc}
 1235              	.LVL154:
 1236              	.L75:
 1237 008a 2900     		movs	r1, r5	@, rate16
 1238              	.LVL155:
 1239 008c 3800     		movs	r0, r7	@, uClk
 1240 008e FFF7FEFF 		bl	__aeabi_uidiv	@
 1241              	.LVL156:
 257:../../lib/lpc11cx4-library/lpc_chip_11cxx_lib/src/uart_11xx.c ****         mval = rate16 / dval;
 1242              		.loc 1 257 0
 1243 0092 0023     		movs	r3, #0	@ D.6564,
 1244 0094 0500     		movs	r5, r0	@ D.6563,
 1245              	.LVL157:
 1246 0096 9846     		mov	r8, r3	@ D.6564, D.6564
 1247 0098 0020     		movs	r0, #0	@ D.6564,
 1248 009a DDE7     		b	.L74	@
 1249              		.cfi_endproc
ARM GAS  /var/folders/z0/6xlwn_996xz3mwq1cgzkbq4r0000gp/T//cckgJHwF.s 			page 44


 1250              	.LFE210:
 1251              		.size	Chip_UART_SetBaudFDR, .-Chip_UART_SetBaudFDR
 1252              		.text
 1253              	.Letext0:
 1254              		.file 4 "/usr/local/Cellar/gcc-arm-none-eabi/20160928/arm-none-eabi/include/machine/_default_types
 1255              		.file 5 "/usr/local/Cellar/gcc-arm-none-eabi/20160928/arm-none-eabi/include/sys/_stdint.h"
 1256              		.file 6 "../../lib/lpc11cx4-library/lpc_chip_11cxx_lib/inc/sysctl_11xx.h"
 1257              		.file 7 "../../lib/lpc11cx4-library/lpc_chip_11cxx_lib/inc/ring_buffer.h"
 1258              		.file 8 "../../lib/lpc11cx4-library/lpc_chip_11cxx_lib/inc/chip.h"
 1259              		.section	.debug_info,"",%progbits
 1260              	.Ldebug_info0:
 1261 0000 93130000 		.4byte	0x1393
 1262 0004 0400     		.2byte	0x4
 1263 0006 00000000 		.4byte	.Ldebug_abbrev0
 1264 000a 04       		.byte	0x4
 1265 000b 01       		.uleb128 0x1
 1266 000c 57460000 		.4byte	.LASF1222
 1267 0010 01       		.byte	0x1
 1268 0011 AD030000 		.4byte	.LASF1223
 1269 0015 6C4A0000 		.4byte	.LASF1224
 1270 0019 B0010000 		.4byte	.Ldebug_ranges0+0x1b0
 1271 001d 00000000 		.4byte	0
 1272 0021 00000000 		.4byte	.Ldebug_line0
 1273 0025 00000000 		.4byte	.Ldebug_macro0
 1274 0029 02       		.uleb128 0x2
 1275 002a 04       		.byte	0x4
 1276 002b 07       		.byte	0x7
 1277 002c 4B480000 		.4byte	.LASF1055
 1278 0030 02       		.uleb128 0x2
 1279 0031 01       		.byte	0x1
 1280 0032 06       		.byte	0x6
 1281 0033 D11A0000 		.4byte	.LASF1056
 1282 0037 03       		.uleb128 0x3
 1283 0038 BE0F0000 		.4byte	.LASF1061
 1284 003c 04       		.byte	0x4
 1285 003d 1D       		.byte	0x1d
 1286 003e 42000000 		.4byte	0x42
 1287 0042 02       		.uleb128 0x2
 1288 0043 01       		.byte	0x1
 1289 0044 08       		.byte	0x8
 1290 0045 1D1E0000 		.4byte	.LASF1057
 1291 0049 02       		.uleb128 0x2
 1292 004a 02       		.byte	0x2
 1293 004b 05       		.byte	0x5
 1294 004c F8660000 		.4byte	.LASF1058
 1295 0050 02       		.uleb128 0x2
 1296 0051 02       		.byte	0x2
 1297 0052 07       		.byte	0x7
 1298 0053 1F740000 		.4byte	.LASF1059
 1299 0057 02       		.uleb128 0x2
 1300 0058 04       		.byte	0x4
 1301 0059 05       		.byte	0x5
 1302 005a C9130000 		.4byte	.LASF1060
 1303 005e 03       		.uleb128 0x3
 1304 005f 673F0000 		.4byte	.LASF1062
 1305 0063 04       		.byte	0x4
 1306 0064 41       		.byte	0x41
ARM GAS  /var/folders/z0/6xlwn_996xz3mwq1cgzkbq4r0000gp/T//cckgJHwF.s 			page 45


 1307 0065 69000000 		.4byte	0x69
 1308 0069 02       		.uleb128 0x2
 1309 006a 04       		.byte	0x4
 1310 006b 07       		.byte	0x7
 1311 006c E8360000 		.4byte	.LASF1063
 1312 0070 02       		.uleb128 0x2
 1313 0071 08       		.byte	0x8
 1314 0072 05       		.byte	0x5
 1315 0073 CE3F0000 		.4byte	.LASF1064
 1316 0077 02       		.uleb128 0x2
 1317 0078 08       		.byte	0x8
 1318 0079 07       		.byte	0x7
 1319 007a EB570000 		.4byte	.LASF1065
 1320 007e 04       		.uleb128 0x4
 1321 007f 04       		.byte	0x4
 1322 0080 05       		.byte	0x5
 1323 0081 696E7400 		.ascii	"int\000"
 1324 0085 03       		.uleb128 0x3
 1325 0086 171B0000 		.4byte	.LASF1066
 1326 008a 05       		.byte	0x5
 1327 008b 18       		.byte	0x18
 1328 008c 37000000 		.4byte	0x37
 1329 0090 03       		.uleb128 0x3
 1330 0091 28710000 		.4byte	.LASF1067
 1331 0095 05       		.byte	0x5
 1332 0096 30       		.byte	0x30
 1333 0097 5E000000 		.4byte	0x5e
 1334 009b 02       		.uleb128 0x2
 1335 009c 01       		.byte	0x1
 1336 009d 08       		.byte	0x8
 1337 009e F8220000 		.4byte	.LASF392
 1338 00a2 02       		.uleb128 0x2
 1339 00a3 01       		.byte	0x1
 1340 00a4 02       		.byte	0x2
 1341 00a5 A3210000 		.4byte	.LASF1068
 1342 00a9 02       		.uleb128 0x2
 1343 00aa 04       		.byte	0x4
 1344 00ab 07       		.byte	0x7
 1345 00ac BA010000 		.4byte	.LASF1069
 1346 00b0 05       		.uleb128 0x5
 1347 00b1 90000000 		.4byte	0x90
 1348 00b5 06       		.uleb128 0x6
 1349 00b6 B0000000 		.4byte	0xb0
 1350 00ba C5000000 		.4byte	0xc5
 1351 00be 07       		.uleb128 0x7
 1352 00bf A9000000 		.4byte	0xa9
 1353 00c3 07       		.byte	0x7
 1354 00c4 00       		.byte	0
 1355 00c5 08       		.uleb128 0x8
 1356 00c6 B0000000 		.4byte	0xb0
 1357 00ca 06       		.uleb128 0x6
 1358 00cb C5000000 		.4byte	0xc5
 1359 00cf DA000000 		.4byte	0xda
 1360 00d3 07       		.uleb128 0x7
 1361 00d4 A9000000 		.4byte	0xa9
 1362 00d8 03       		.byte	0x3
 1363 00d9 00       		.byte	0
ARM GAS  /var/folders/z0/6xlwn_996xz3mwq1cgzkbq4r0000gp/T//cckgJHwF.s 			page 46


 1364 00da 06       		.uleb128 0x6
 1365 00db C5000000 		.4byte	0xc5
 1366 00df EA000000 		.4byte	0xea
 1367 00e3 07       		.uleb128 0x7
 1368 00e4 A9000000 		.4byte	0xa9
 1369 00e8 02       		.byte	0x2
 1370 00e9 00       		.byte	0
 1371 00ea 09       		.uleb128 0x9
 1372 00eb F803     		.2byte	0x3f8
 1373 00ed 06       		.byte	0x6
 1374 00ee 2F       		.byte	0x2f
 1375 00ef FF030000 		.4byte	0x3ff
 1376 00f3 0A       		.uleb128 0xa
 1377 00f4 802E0000 		.4byte	.LASF1070
 1378 00f8 06       		.byte	0x6
 1379 00f9 30       		.byte	0x30
 1380 00fa B0000000 		.4byte	0xb0
 1381 00fe 00       		.byte	0
 1382 00ff 0A       		.uleb128 0xa
 1383 0100 BA5C0000 		.4byte	.LASF1071
 1384 0104 06       		.byte	0x6
 1385 0105 31       		.byte	0x31
 1386 0106 B0000000 		.4byte	0xb0
 1387 010a 04       		.byte	0x4
 1388 010b 0A       		.uleb128 0xa
 1389 010c F62D0000 		.4byte	.LASF1072
 1390 0110 06       		.byte	0x6
 1391 0111 32       		.byte	0x32
 1392 0112 B0000000 		.4byte	0xb0
 1393 0116 08       		.byte	0x8
 1394 0117 0A       		.uleb128 0xa
 1395 0118 C26D0000 		.4byte	.LASF1073
 1396 011c 06       		.byte	0x6
 1397 011d 33       		.byte	0x33
 1398 011e C5000000 		.4byte	0xc5
 1399 0122 0C       		.byte	0xc
 1400 0123 0A       		.uleb128 0xa
 1401 0124 A96D0000 		.4byte	.LASF1074
 1402 0128 06       		.byte	0x6
 1403 0129 34       		.byte	0x34
 1404 012a B0000000 		.4byte	0xb0
 1405 012e 10       		.byte	0x10
 1406 012f 0A       		.uleb128 0xa
 1407 0130 70340000 		.4byte	.LASF1075
 1408 0134 06       		.byte	0x6
 1409 0135 35       		.byte	0x35
 1410 0136 C5000000 		.4byte	0xc5
 1411 013a 14       		.byte	0x14
 1412 013b 0A       		.uleb128 0xa
 1413 013c 131E0000 		.4byte	.LASF1076
 1414 0140 06       		.byte	0x6
 1415 0141 36       		.byte	0x36
 1416 0142 14040000 		.4byte	0x414
 1417 0146 18       		.byte	0x18
 1418 0147 0A       		.uleb128 0xa
 1419 0148 46530000 		.4byte	.LASF1077
 1420 014c 06       		.byte	0x6
ARM GAS  /var/folders/z0/6xlwn_996xz3mwq1cgzkbq4r0000gp/T//cckgJHwF.s 			page 47


 1421 014d 37       		.byte	0x37
 1422 014e B0000000 		.4byte	0xb0
 1423 0152 20       		.byte	0x20
 1424 0153 0A       		.uleb128 0xa
 1425 0154 EC720000 		.4byte	.LASF1078
 1426 0158 06       		.byte	0x6
 1427 0159 38       		.byte	0x38
 1428 015a B0000000 		.4byte	0xb0
 1429 015e 24       		.byte	0x24
 1430 015f 0A       		.uleb128 0xa
 1431 0160 D15B0000 		.4byte	.LASF1079
 1432 0164 06       		.byte	0x6
 1433 0165 39       		.byte	0x39
 1434 0166 B0000000 		.4byte	0xb0
 1435 016a 28       		.byte	0x28
 1436 016b 0A       		.uleb128 0xa
 1437 016c E5640000 		.4byte	.LASF1080
 1438 0170 06       		.byte	0x6
 1439 0171 3A       		.byte	0x3a
 1440 0172 B0000000 		.4byte	0xb0
 1441 0176 2C       		.byte	0x2c
 1442 0177 0A       		.uleb128 0xa
 1443 0178 16420000 		.4byte	.LASF1081
 1444 017c 06       		.byte	0x6
 1445 017d 3B       		.byte	0x3b
 1446 017e B0000000 		.4byte	0xb0
 1447 0182 30       		.byte	0x30
 1448 0183 0A       		.uleb128 0xa
 1449 0184 33220000 		.4byte	.LASF1082
 1450 0188 06       		.byte	0x6
 1451 0189 3C       		.byte	0x3c
 1452 018a 1E040000 		.4byte	0x41e
 1453 018e 34       		.byte	0x34
 1454 018f 0A       		.uleb128 0xa
 1455 0190 F3140000 		.4byte	.LASF1083
 1456 0194 06       		.byte	0x6
 1457 0195 3D       		.byte	0x3d
 1458 0196 B0000000 		.4byte	0xb0
 1459 019a 40       		.byte	0x40
 1460 019b 0A       		.uleb128 0xa
 1461 019c 72480000 		.4byte	.LASF1084
 1462 01a0 06       		.byte	0x6
 1463 01a1 3E       		.byte	0x3e
 1464 01a2 B0000000 		.4byte	0xb0
 1465 01a6 44       		.byte	0x44
 1466 01a7 0A       		.uleb128 0xa
 1467 01a8 421B0000 		.4byte	.LASF1085
 1468 01ac 06       		.byte	0x6
 1469 01ad 3F       		.byte	0x3f
 1470 01ae B0000000 		.4byte	0xb0
 1471 01b2 48       		.byte	0x48
 1472 01b3 0A       		.uleb128 0xa
 1473 01b4 B84E0000 		.4byte	.LASF1086
 1474 01b8 06       		.byte	0x6
 1475 01b9 40       		.byte	0x40
 1476 01ba B0000000 		.4byte	0xb0
 1477 01be 4C       		.byte	0x4c
ARM GAS  /var/folders/z0/6xlwn_996xz3mwq1cgzkbq4r0000gp/T//cckgJHwF.s 			page 48


 1478 01bf 0A       		.uleb128 0xa
 1479 01c0 2B1E0000 		.4byte	.LASF1087
 1480 01c4 06       		.byte	0x6
 1481 01c5 41       		.byte	0x41
 1482 01c6 38040000 		.4byte	0x438
 1483 01ca 50       		.byte	0x50
 1484 01cb 0A       		.uleb128 0xa
 1485 01cc 991E0000 		.4byte	.LASF1088
 1486 01d0 06       		.byte	0x6
 1487 01d1 42       		.byte	0x42
 1488 01d2 B0000000 		.4byte	0xb0
 1489 01d6 70       		.byte	0x70
 1490 01d7 0A       		.uleb128 0xa
 1491 01d8 C8510000 		.4byte	.LASF1089
 1492 01dc 06       		.byte	0x6
 1493 01dd 43       		.byte	0x43
 1494 01de B0000000 		.4byte	0xb0
 1495 01e2 74       		.byte	0x74
 1496 01e3 0A       		.uleb128 0xa
 1497 01e4 834B0000 		.4byte	.LASF1090
 1498 01e8 06       		.byte	0x6
 1499 01e9 44       		.byte	0x44
 1500 01ea B0000000 		.4byte	0xb0
 1501 01ee 78       		.byte	0x78
 1502 01ef 0A       		.uleb128 0xa
 1503 01f0 351E0000 		.4byte	.LASF1091
 1504 01f4 06       		.byte	0x6
 1505 01f5 45       		.byte	0x45
 1506 01f6 C5000000 		.4byte	0xc5
 1507 01fa 7C       		.byte	0x7c
 1508 01fb 0A       		.uleb128 0xa
 1509 01fc 8B5B0000 		.4byte	.LASF1092
 1510 0200 06       		.byte	0x6
 1511 0201 46       		.byte	0x46
 1512 0202 B0000000 		.4byte	0xb0
 1513 0206 80       		.byte	0x80
 1514 0207 0A       		.uleb128 0xa
 1515 0208 3F1E0000 		.4byte	.LASF1093
 1516 020c 06       		.byte	0x6
 1517 020d 47       		.byte	0x47
 1518 020e 42040000 		.4byte	0x442
 1519 0212 84       		.byte	0x84
 1520 0213 0A       		.uleb128 0xa
 1521 0214 996E0000 		.4byte	.LASF1094
 1522 0218 06       		.byte	0x6
 1523 0219 48       		.byte	0x48
 1524 021a B0000000 		.4byte	0xb0
 1525 021e 94       		.byte	0x94
 1526 021f 0A       		.uleb128 0xa
 1527 0220 5B230000 		.4byte	.LASF1095
 1528 0224 06       		.byte	0x6
 1529 0225 49       		.byte	0x49
 1530 0226 B0000000 		.4byte	0xb0
 1531 022a 98       		.byte	0x98
 1532 022b 0A       		.uleb128 0xa
 1533 022c C6730000 		.4byte	.LASF1096
 1534 0230 06       		.byte	0x6
ARM GAS  /var/folders/z0/6xlwn_996xz3mwq1cgzkbq4r0000gp/T//cckgJHwF.s 			page 49


 1535 0231 4A       		.byte	0x4a
 1536 0232 B0000000 		.4byte	0xb0
 1537 0236 9C       		.byte	0x9c
 1538 0237 0A       		.uleb128 0xa
 1539 0238 491E0000 		.4byte	.LASF1097
 1540 023c 06       		.byte	0x6
 1541 023d 4B       		.byte	0x4b
 1542 023e 4C040000 		.4byte	0x44c
 1543 0242 A0       		.byte	0xa0
 1544 0243 0A       		.uleb128 0xa
 1545 0244 38780000 		.4byte	.LASF1098
 1546 0248 06       		.byte	0x6
 1547 0249 4C       		.byte	0x4c
 1548 024a B0000000 		.4byte	0xb0
 1549 024e C0       		.byte	0xc0
 1550 024f 0A       		.uleb128 0xa
 1551 0250 46300000 		.4byte	.LASF1099
 1552 0254 06       		.byte	0x6
 1553 0255 4D       		.byte	0x4d
 1554 0256 B0000000 		.4byte	0xb0
 1555 025a C4       		.byte	0xc4
 1556 025b 0A       		.uleb128 0xa
 1557 025c 690A0000 		.4byte	.LASF1100
 1558 0260 06       		.byte	0x6
 1559 0261 4E       		.byte	0x4e
 1560 0262 B0000000 		.4byte	0xb0
 1561 0266 C8       		.byte	0xc8
 1562 0267 0A       		.uleb128 0xa
 1563 0268 531E0000 		.4byte	.LASF1101
 1564 026c 06       		.byte	0x6
 1565 026d 4F       		.byte	0x4f
 1566 026e C5000000 		.4byte	0xc5
 1567 0272 CC       		.byte	0xcc
 1568 0273 0A       		.uleb128 0xa
 1569 0274 285F0000 		.4byte	.LASF1102
 1570 0278 06       		.byte	0x6
 1571 0279 50       		.byte	0x50
 1572 027a B0000000 		.4byte	0xb0
 1573 027e D0       		.byte	0xd0
 1574 027f 0A       		.uleb128 0xa
 1575 0280 10150000 		.4byte	.LASF1103
 1576 0284 06       		.byte	0x6
 1577 0285 51       		.byte	0x51
 1578 0286 B0000000 		.4byte	0xb0
 1579 028a D4       		.byte	0xd4
 1580 028b 0A       		.uleb128 0xa
 1581 028c 106D0000 		.4byte	.LASF1104
 1582 0290 06       		.byte	0x6
 1583 0291 52       		.byte	0x52
 1584 0292 B0000000 		.4byte	0xb0
 1585 0296 D8       		.byte	0xd8
 1586 0297 0A       		.uleb128 0xa
 1587 0298 5D1E0000 		.4byte	.LASF1105
 1588 029c 06       		.byte	0x6
 1589 029d 53       		.byte	0x53
 1590 029e C5000000 		.4byte	0xc5
 1591 02a2 DC       		.byte	0xdc
ARM GAS  /var/folders/z0/6xlwn_996xz3mwq1cgzkbq4r0000gp/T//cckgJHwF.s 			page 50


 1592 02a3 0A       		.uleb128 0xa
 1593 02a4 70660000 		.4byte	.LASF1106
 1594 02a8 06       		.byte	0x6
 1595 02a9 54       		.byte	0x54
 1596 02aa B0000000 		.4byte	0xb0
 1597 02ae E0       		.byte	0xe0
 1598 02af 0A       		.uleb128 0xa
 1599 02b0 F71B0000 		.4byte	.LASF1107
 1600 02b4 06       		.byte	0x6
 1601 02b5 55       		.byte	0x55
 1602 02b6 B0000000 		.4byte	0xb0
 1603 02ba E4       		.byte	0xe4
 1604 02bb 0A       		.uleb128 0xa
 1605 02bc 2C730000 		.4byte	.LASF1108
 1606 02c0 06       		.byte	0x6
 1607 02c1 56       		.byte	0x56
 1608 02c2 B0000000 		.4byte	0xb0
 1609 02c6 E8       		.byte	0xe8
 1610 02c7 0A       		.uleb128 0xa
 1611 02c8 671E0000 		.4byte	.LASF1109
 1612 02cc 06       		.byte	0x6
 1613 02cd 57       		.byte	0x57
 1614 02ce 66040000 		.4byte	0x466
 1615 02d2 EC       		.byte	0xec
 1616 02d3 0B       		.uleb128 0xb
 1617 02d4 65140000 		.4byte	.LASF1110
 1618 02d8 06       		.byte	0x6
 1619 02d9 58       		.byte	0x58
 1620 02da 70040000 		.4byte	0x470
 1621 02de 0001     		.2byte	0x100
 1622 02e0 0B       		.uleb128 0xb
 1623 02e1 585A0000 		.4byte	.LASF1111
 1624 02e5 06       		.byte	0x6
 1625 02e6 59       		.byte	0x59
 1626 02e7 8A040000 		.4byte	0x48a
 1627 02eb 0801     		.2byte	0x108
 1628 02ed 0B       		.uleb128 0xb
 1629 02ee B9060000 		.4byte	.LASF1112
 1630 02f2 06       		.byte	0x6
 1631 02f3 5A       		.byte	0x5a
 1632 02f4 B0000000 		.4byte	0xb0
 1633 02f8 5001     		.2byte	0x150
 1634 02fa 0B       		.uleb128 0xb
 1635 02fb 83770000 		.4byte	.LASF1113
 1636 02ff 06       		.byte	0x6
 1637 0300 5B       		.byte	0x5b
 1638 0301 B0000000 		.4byte	0xb0
 1639 0305 5401     		.2byte	0x154
 1640 0307 0B       		.uleb128 0xb
 1641 0308 635A0000 		.4byte	.LASF1114
 1642 030c 06       		.byte	0x6
 1643 030d 5C       		.byte	0x5c
 1644 030e A4040000 		.4byte	0x4a4
 1645 0312 5801     		.2byte	0x158
 1646 0314 0B       		.uleb128 0xb
 1647 0315 6F3B0000 		.4byte	.LASF1115
 1648 0319 06       		.byte	0x6
ARM GAS  /var/folders/z0/6xlwn_996xz3mwq1cgzkbq4r0000gp/T//cckgJHwF.s 			page 51


 1649 031a 5D       		.byte	0x5d
 1650 031b B0000000 		.4byte	0xb0
 1651 031f 7001     		.2byte	0x170
 1652 0321 0B       		.uleb128 0xb
 1653 0322 5F6B0000 		.4byte	.LASF1116
 1654 0326 06       		.byte	0x6
 1655 0327 5E       		.byte	0x5e
 1656 0328 B0000000 		.4byte	0xb0
 1657 032c 7401     		.2byte	0x174
 1658 032e 0B       		.uleb128 0xb
 1659 032f 9A110000 		.4byte	.LASF1117
 1660 0333 06       		.byte	0x6
 1661 0334 5F       		.byte	0x5f
 1662 0335 A9040000 		.4byte	0x4a9
 1663 0339 7801     		.2byte	0x178
 1664 033b 0B       		.uleb128 0xb
 1665 033c 66310000 		.4byte	.LASF1118
 1666 0340 06       		.byte	0x6
 1667 0341 60       		.byte	0x60
 1668 0342 B0000000 		.4byte	0xb0
 1669 0346 9801     		.2byte	0x198
 1670 0348 0B       		.uleb128 0xb
 1671 0349 B15C0000 		.4byte	.LASF1119
 1672 034d 06       		.byte	0x6
 1673 034e 61       		.byte	0x61
 1674 034f C5000000 		.4byte	0xc5
 1675 0353 9C01     		.2byte	0x19c
 1676 0355 0B       		.uleb128 0xb
 1677 0356 6E5A0000 		.4byte	.LASF1120
 1678 035a 06       		.byte	0x6
 1679 035b 62       		.byte	0x62
 1680 035c C3040000 		.4byte	0x4c3
 1681 0360 A001     		.2byte	0x1a0
 1682 0362 0B       		.uleb128 0xb
 1683 0363 864D0000 		.4byte	.LASF1121
 1684 0367 06       		.byte	0x6
 1685 0368 63       		.byte	0x63
 1686 0369 B0000000 		.4byte	0xb0
 1687 036d 0002     		.2byte	0x200
 1688 036f 0B       		.uleb128 0xb
 1689 0370 1A690000 		.4byte	.LASF1122
 1690 0374 06       		.byte	0x6
 1691 0375 64       		.byte	0x64
 1692 0376 B0000000 		.4byte	0xb0
 1693 037a 0402     		.2byte	0x204
 1694 037c 0B       		.uleb128 0xb
 1695 037d B46D0000 		.4byte	.LASF1123
 1696 0381 06       		.byte	0x6
 1697 0382 65       		.byte	0x65
 1698 0383 B0000000 		.4byte	0xb0
 1699 0387 0802     		.2byte	0x208
 1700 0389 0B       		.uleb128 0xb
 1701 038a 5F710000 		.4byte	.LASF1124
 1702 038e 06       		.byte	0x6
 1703 038f 66       		.byte	0x66
 1704 0390 B0000000 		.4byte	0xb0
 1705 0394 0C02     		.2byte	0x20c
ARM GAS  /var/folders/z0/6xlwn_996xz3mwq1cgzkbq4r0000gp/T//cckgJHwF.s 			page 52


 1706 0396 0B       		.uleb128 0xb
 1707 0397 795A0000 		.4byte	.LASF1125
 1708 039b 06       		.byte	0x6
 1709 039c 67       		.byte	0x67
 1710 039d C5000000 		.4byte	0xc5
 1711 03a1 1002     		.2byte	0x210
 1712 03a3 0B       		.uleb128 0xb
 1713 03a4 24690000 		.4byte	.LASF1126
 1714 03a8 06       		.byte	0x6
 1715 03a9 68       		.byte	0x68
 1716 03aa B0000000 		.4byte	0xb0
 1717 03ae 1402     		.2byte	0x214
 1718 03b0 0B       		.uleb128 0xb
 1719 03b1 845A0000 		.4byte	.LASF1127
 1720 03b5 06       		.byte	0x6
 1721 03b6 69       		.byte	0x69
 1722 03b7 CD040000 		.4byte	0x4cd
 1723 03bb 1802     		.2byte	0x218
 1724 03bd 0B       		.uleb128 0xb
 1725 03be 4C4C0000 		.4byte	.LASF1128
 1726 03c2 06       		.byte	0x6
 1727 03c3 6A       		.byte	0x6a
 1728 03c4 B0000000 		.4byte	0xb0
 1729 03c8 3002     		.2byte	0x230
 1730 03ca 0B       		.uleb128 0xb
 1731 03cb 995C0000 		.4byte	.LASF1129
 1732 03cf 06       		.byte	0x6
 1733 03d0 6B       		.byte	0x6b
 1734 03d1 B0000000 		.4byte	0xb0
 1735 03d5 3402     		.2byte	0x234
 1736 03d7 0B       		.uleb128 0xb
 1737 03d8 E3190000 		.4byte	.LASF1130
 1738 03dc 06       		.byte	0x6
 1739 03dd 6C       		.byte	0x6c
 1740 03de B0000000 		.4byte	0xb0
 1741 03e2 3802     		.2byte	0x238
 1742 03e4 0B       		.uleb128 0xb
 1743 03e5 8F5A0000 		.4byte	.LASF1131
 1744 03e9 06       		.byte	0x6
 1745 03ea 6D       		.byte	0x6d
 1746 03eb E7040000 		.4byte	0x4e7
 1747 03ef 3C02     		.2byte	0x23c
 1748 03f1 0B       		.uleb128 0xb
 1749 03f2 F5650000 		.4byte	.LASF1132
 1750 03f6 06       		.byte	0x6
 1751 03f7 6E       		.byte	0x6e
 1752 03f8 C5000000 		.4byte	0xc5
 1753 03fc F403     		.2byte	0x3f4
 1754 03fe 00       		.byte	0
 1755 03ff 06       		.uleb128 0x6
 1756 0400 C5000000 		.4byte	0xc5
 1757 0404 0F040000 		.4byte	0x40f
 1758 0408 07       		.uleb128 0x7
 1759 0409 A9000000 		.4byte	0xa9
 1760 040d 01       		.byte	0x1
 1761 040e 00       		.byte	0
 1762 040f 05       		.uleb128 0x5
ARM GAS  /var/folders/z0/6xlwn_996xz3mwq1cgzkbq4r0000gp/T//cckgJHwF.s 			page 53


 1763 0410 FF030000 		.4byte	0x3ff
 1764 0414 08       		.uleb128 0x8
 1765 0415 0F040000 		.4byte	0x40f
 1766 0419 05       		.uleb128 0x5
 1767 041a DA000000 		.4byte	0xda
 1768 041e 08       		.uleb128 0x8
 1769 041f 19040000 		.4byte	0x419
 1770 0423 06       		.uleb128 0x6
 1771 0424 C5000000 		.4byte	0xc5
 1772 0428 33040000 		.4byte	0x433
 1773 042c 07       		.uleb128 0x7
 1774 042d A9000000 		.4byte	0xa9
 1775 0431 07       		.byte	0x7
 1776 0432 00       		.byte	0
 1777 0433 05       		.uleb128 0x5
 1778 0434 23040000 		.4byte	0x423
 1779 0438 08       		.uleb128 0x8
 1780 0439 33040000 		.4byte	0x433
 1781 043d 05       		.uleb128 0x5
 1782 043e CA000000 		.4byte	0xca
 1783 0442 08       		.uleb128 0x8
 1784 0443 3D040000 		.4byte	0x43d
 1785 0447 05       		.uleb128 0x5
 1786 0448 23040000 		.4byte	0x423
 1787 044c 08       		.uleb128 0x8
 1788 044d 47040000 		.4byte	0x447
 1789 0451 06       		.uleb128 0x6
 1790 0452 C5000000 		.4byte	0xc5
 1791 0456 61040000 		.4byte	0x461
 1792 045a 07       		.uleb128 0x7
 1793 045b A9000000 		.4byte	0xa9
 1794 045f 04       		.byte	0x4
 1795 0460 00       		.byte	0
 1796 0461 05       		.uleb128 0x5
 1797 0462 51040000 		.4byte	0x451
 1798 0466 08       		.uleb128 0x8
 1799 0467 61040000 		.4byte	0x461
 1800 046b 05       		.uleb128 0x5
 1801 046c FF030000 		.4byte	0x3ff
 1802 0470 08       		.uleb128 0x8
 1803 0471 6B040000 		.4byte	0x46b
 1804 0475 06       		.uleb128 0x6
 1805 0476 C5000000 		.4byte	0xc5
 1806 047a 85040000 		.4byte	0x485
 1807 047e 07       		.uleb128 0x7
 1808 047f A9000000 		.4byte	0xa9
 1809 0483 11       		.byte	0x11
 1810 0484 00       		.byte	0
 1811 0485 05       		.uleb128 0x5
 1812 0486 75040000 		.4byte	0x475
 1813 048a 08       		.uleb128 0x8
 1814 048b 85040000 		.4byte	0x485
 1815 048f 06       		.uleb128 0x6
 1816 0490 C5000000 		.4byte	0xc5
 1817 0494 9F040000 		.4byte	0x49f
 1818 0498 07       		.uleb128 0x7
 1819 0499 A9000000 		.4byte	0xa9
ARM GAS  /var/folders/z0/6xlwn_996xz3mwq1cgzkbq4r0000gp/T//cckgJHwF.s 			page 54


 1820 049d 05       		.byte	0x5
 1821 049e 00       		.byte	0
 1822 049f 05       		.uleb128 0x5
 1823 04a0 8F040000 		.4byte	0x48f
 1824 04a4 08       		.uleb128 0x8
 1825 04a5 9F040000 		.4byte	0x49f
 1826 04a9 05       		.uleb128 0x5
 1827 04aa B5000000 		.4byte	0xb5
 1828 04ae 06       		.uleb128 0x6
 1829 04af C5000000 		.4byte	0xc5
 1830 04b3 BE040000 		.4byte	0x4be
 1831 04b7 07       		.uleb128 0x7
 1832 04b8 A9000000 		.4byte	0xa9
 1833 04bc 17       		.byte	0x17
 1834 04bd 00       		.byte	0
 1835 04be 05       		.uleb128 0x5
 1836 04bf AE040000 		.4byte	0x4ae
 1837 04c3 08       		.uleb128 0x8
 1838 04c4 BE040000 		.4byte	0x4be
 1839 04c8 05       		.uleb128 0x5
 1840 04c9 8F040000 		.4byte	0x48f
 1841 04cd 08       		.uleb128 0x8
 1842 04ce C8040000 		.4byte	0x4c8
 1843 04d2 06       		.uleb128 0x6
 1844 04d3 C5000000 		.4byte	0xc5
 1845 04d7 E2040000 		.4byte	0x4e2
 1846 04db 07       		.uleb128 0x7
 1847 04dc A9000000 		.4byte	0xa9
 1848 04e0 6D       		.byte	0x6d
 1849 04e1 00       		.byte	0
 1850 04e2 05       		.uleb128 0x5
 1851 04e3 D2040000 		.4byte	0x4d2
 1852 04e7 08       		.uleb128 0x8
 1853 04e8 E2040000 		.4byte	0x4e2
 1854 04ec 03       		.uleb128 0x3
 1855 04ed 27100000 		.4byte	.LASF1133
 1856 04f1 06       		.byte	0x6
 1857 04f2 6F       		.byte	0x6f
 1858 04f3 EA000000 		.4byte	0xea
 1859 04f7 0C       		.uleb128 0xc
 1860 04f8 5D3B0000 		.4byte	.LASF1225
 1861 04fc 01       		.byte	0x1
 1862 04fd 42000000 		.4byte	0x42
 1863 0501 02       		.byte	0x2
 1864 0502 E4       		.byte	0xe4
 1865 0503 7A050000 		.4byte	0x57a
 1866 0507 0D       		.uleb128 0xd
 1867 0508 CD000000 		.4byte	.LASF1134
 1868 050c 00       		.byte	0
 1869 050d 0D       		.uleb128 0xd
 1870 050e 5C3D0000 		.4byte	.LASF1135
 1871 0512 01       		.byte	0x1
 1872 0513 0D       		.uleb128 0xd
 1873 0514 97010000 		.4byte	.LASF1136
 1874 0518 02       		.byte	0x2
 1875 0519 0D       		.uleb128 0xd
 1876 051a 1B550000 		.4byte	.LASF1137
ARM GAS  /var/folders/z0/6xlwn_996xz3mwq1cgzkbq4r0000gp/T//cckgJHwF.s 			page 55


 1877 051e 03       		.byte	0x3
 1878 051f 0D       		.uleb128 0xd
 1879 0520 14330000 		.4byte	.LASF1138
 1880 0524 04       		.byte	0x4
 1881 0525 0D       		.uleb128 0xd
 1882 0526 06590000 		.4byte	.LASF1139
 1883 052a 05       		.byte	0x5
 1884 052b 0D       		.uleb128 0xd
 1885 052c B0330000 		.4byte	.LASF1140
 1886 0530 06       		.byte	0x6
 1887 0531 0D       		.uleb128 0xd
 1888 0532 14710000 		.4byte	.LASF1141
 1889 0536 07       		.byte	0x7
 1890 0537 0D       		.uleb128 0xd
 1891 0538 8E070000 		.4byte	.LASF1142
 1892 053c 08       		.byte	0x8
 1893 053d 0D       		.uleb128 0xd
 1894 053e D90D0000 		.4byte	.LASF1143
 1895 0542 09       		.byte	0x9
 1896 0543 0D       		.uleb128 0xd
 1897 0544 ED0D0000 		.4byte	.LASF1144
 1898 0548 0A       		.byte	0xa
 1899 0549 0D       		.uleb128 0xd
 1900 054a B7230000 		.4byte	.LASF1145
 1901 054e 0B       		.byte	0xb
 1902 054f 0D       		.uleb128 0xd
 1903 0550 F3580000 		.4byte	.LASF1146
 1904 0554 0C       		.byte	0xc
 1905 0555 0D       		.uleb128 0xd
 1906 0556 C3560000 		.4byte	.LASF1147
 1907 055a 0D       		.byte	0xd
 1908 055b 0D       		.uleb128 0xd
 1909 055c 52580000 		.4byte	.LASF1148
 1910 0560 0E       		.byte	0xe
 1911 0561 0D       		.uleb128 0xd
 1912 0562 7D0F0000 		.4byte	.LASF1149
 1913 0566 0F       		.byte	0xf
 1914 0567 0D       		.uleb128 0xd
 1915 0568 923B0000 		.4byte	.LASF1150
 1916 056c 10       		.byte	0x10
 1917 056d 0D       		.uleb128 0xd
 1918 056e 4D7B0000 		.4byte	.LASF1151
 1919 0572 11       		.byte	0x11
 1920 0573 0D       		.uleb128 0xd
 1921 0574 C9230000 		.4byte	.LASF1152
 1922 0578 12       		.byte	0x12
 1923 0579 00       		.byte	0
 1924 057a 0E       		.uleb128 0xe
 1925 057b 8F060000 		.4byte	.LASF1153
 1926 057f 02       		.byte	0x2
 1927 0580 2001     		.2byte	0x120
 1928 0582 F7040000 		.4byte	0x4f7
 1929 0586 0F       		.uleb128 0xf
 1930 0587 14       		.byte	0x14
 1931 0588 07       		.byte	0x7
 1932 0589 2D       		.byte	0x2d
 1933 058a CB050000 		.4byte	0x5cb
ARM GAS  /var/folders/z0/6xlwn_996xz3mwq1cgzkbq4r0000gp/T//cckgJHwF.s 			page 56


 1934 058e 0A       		.uleb128 0xa
 1935 058f 2B7A0000 		.4byte	.LASF1154
 1936 0593 07       		.byte	0x7
 1937 0594 2E       		.byte	0x2e
 1938 0595 CB050000 		.4byte	0x5cb
 1939 0599 00       		.byte	0
 1940 059a 0A       		.uleb128 0xa
 1941 059b 30460000 		.4byte	.LASF1155
 1942 059f 07       		.byte	0x7
 1943 05a0 2F       		.byte	0x2f
 1944 05a1 90000000 		.4byte	0x90
 1945 05a5 04       		.byte	0x4
 1946 05a6 0A       		.uleb128 0xa
 1947 05a7 37630000 		.4byte	.LASF1156
 1948 05ab 07       		.byte	0x7
 1949 05ac 30       		.byte	0x30
 1950 05ad 90000000 		.4byte	0x90
 1951 05b1 08       		.byte	0x8
 1952 05b2 0A       		.uleb128 0xa
 1953 05b3 DD170000 		.4byte	.LASF1157
 1954 05b7 07       		.byte	0x7
 1955 05b8 31       		.byte	0x31
 1956 05b9 90000000 		.4byte	0x90
 1957 05bd 0C       		.byte	0xc
 1958 05be 0A       		.uleb128 0xa
 1959 05bf 39030000 		.4byte	.LASF1158
 1960 05c3 07       		.byte	0x7
 1961 05c4 32       		.byte	0x32
 1962 05c5 90000000 		.4byte	0x90
 1963 05c9 10       		.byte	0x10
 1964 05ca 00       		.byte	0
 1965 05cb 10       		.uleb128 0x10
 1966 05cc 04       		.byte	0x4
 1967 05cd 03       		.uleb128 0x3
 1968 05ce 9D510000 		.4byte	.LASF1159
 1969 05d2 07       		.byte	0x7
 1970 05d3 33       		.byte	0x33
 1971 05d4 86050000 		.4byte	0x586
 1972 05d8 11       		.uleb128 0x11
 1973 05d9 04       		.byte	0x4
 1974 05da 03       		.byte	0x3
 1975 05db 33       		.byte	0x33
 1976 05dc 02060000 		.4byte	0x602
 1977 05e0 12       		.uleb128 0x12
 1978 05e1 444C4C00 		.ascii	"DLL\000"
 1979 05e5 03       		.byte	0x3
 1980 05e6 34       		.byte	0x34
 1981 05e7 B0000000 		.4byte	0xb0
 1982 05eb 12       		.uleb128 0x12
 1983 05ec 54485200 		.ascii	"THR\000"
 1984 05f0 03       		.byte	0x3
 1985 05f1 35       		.byte	0x35
 1986 05f2 B0000000 		.4byte	0xb0
 1987 05f6 12       		.uleb128 0x12
 1988 05f7 52425200 		.ascii	"RBR\000"
 1989 05fb 03       		.byte	0x3
 1990 05fc 36       		.byte	0x36
ARM GAS  /var/folders/z0/6xlwn_996xz3mwq1cgzkbq4r0000gp/T//cckgJHwF.s 			page 57


 1991 05fd C5000000 		.4byte	0xc5
 1992 0601 00       		.byte	0
 1993 0602 11       		.uleb128 0x11
 1994 0603 04       		.byte	0x4
 1995 0604 03       		.byte	0x3
 1996 0605 39       		.byte	0x39
 1997 0606 21060000 		.4byte	0x621
 1998 060a 12       		.uleb128 0x12
 1999 060b 49455200 		.ascii	"IER\000"
 2000 060f 03       		.byte	0x3
 2001 0610 3A       		.byte	0x3a
 2002 0611 B0000000 		.4byte	0xb0
 2003 0615 12       		.uleb128 0x12
 2004 0616 444C4D00 		.ascii	"DLM\000"
 2005 061a 03       		.byte	0x3
 2006 061b 3B       		.byte	0x3b
 2007 061c B0000000 		.4byte	0xb0
 2008 0620 00       		.byte	0
 2009 0621 11       		.uleb128 0x11
 2010 0622 04       		.byte	0x4
 2011 0623 03       		.byte	0x3
 2012 0624 3E       		.byte	0x3e
 2013 0625 40060000 		.4byte	0x640
 2014 0629 12       		.uleb128 0x12
 2015 062a 46435200 		.ascii	"FCR\000"
 2016 062e 03       		.byte	0x3
 2017 062f 3F       		.byte	0x3f
 2018 0630 B0000000 		.4byte	0xb0
 2019 0634 12       		.uleb128 0x12
 2020 0635 49495200 		.ascii	"IIR\000"
 2021 0639 03       		.byte	0x3
 2022 063a 40       		.byte	0x40
 2023 063b C5000000 		.4byte	0xc5
 2024 063f 00       		.byte	0
 2025 0640 11       		.uleb128 0x11
 2026 0641 04       		.byte	0x4
 2027 0642 03       		.byte	0x3
 2028 0643 56       		.byte	0x56
 2029 0644 5F060000 		.4byte	0x65f
 2030 0648 13       		.uleb128 0x13
 2031 0649 48560000 		.4byte	.LASF1160
 2032 064d 03       		.byte	0x3
 2033 064e 57       		.byte	0x57
 2034 064f B0000000 		.4byte	0xb0
 2035 0653 13       		.uleb128 0x13
 2036 0654 0A170000 		.4byte	.LASF1161
 2037 0658 03       		.byte	0x3
 2038 0659 58       		.byte	0x58
 2039 065a C5000000 		.4byte	0xc5
 2040 065e 00       		.byte	0
 2041 065f 0F       		.uleb128 0xf
 2042 0660 60       		.byte	0x60
 2043 0661 03       		.byte	0x3
 2044 0662 31       		.byte	0x31
 2045 0663 58070000 		.4byte	0x758
 2046 0667 14       		.uleb128 0x14
 2047 0668 D8050000 		.4byte	0x5d8
ARM GAS  /var/folders/z0/6xlwn_996xz3mwq1cgzkbq4r0000gp/T//cckgJHwF.s 			page 58


 2048 066c 00       		.byte	0
 2049 066d 14       		.uleb128 0x14
 2050 066e 02060000 		.4byte	0x602
 2051 0672 04       		.byte	0x4
 2052 0673 14       		.uleb128 0x14
 2053 0674 21060000 		.4byte	0x621
 2054 0678 08       		.byte	0x8
 2055 0679 15       		.uleb128 0x15
 2056 067a 4C435200 		.ascii	"LCR\000"
 2057 067e 03       		.byte	0x3
 2058 067f 43       		.byte	0x43
 2059 0680 B0000000 		.4byte	0xb0
 2060 0684 0C       		.byte	0xc
 2061 0685 15       		.uleb128 0x15
 2062 0686 4D435200 		.ascii	"MCR\000"
 2063 068a 03       		.byte	0x3
 2064 068b 44       		.byte	0x44
 2065 068c B0000000 		.4byte	0xb0
 2066 0690 10       		.byte	0x10
 2067 0691 15       		.uleb128 0x15
 2068 0692 4C535200 		.ascii	"LSR\000"
 2069 0696 03       		.byte	0x3
 2070 0697 45       		.byte	0x45
 2071 0698 C5000000 		.4byte	0xc5
 2072 069c 14       		.byte	0x14
 2073 069d 15       		.uleb128 0x15
 2074 069e 4D535200 		.ascii	"MSR\000"
 2075 06a2 03       		.byte	0x3
 2076 06a3 46       		.byte	0x46
 2077 06a4 C5000000 		.4byte	0xc5
 2078 06a8 18       		.byte	0x18
 2079 06a9 15       		.uleb128 0x15
 2080 06aa 53435200 		.ascii	"SCR\000"
 2081 06ae 03       		.byte	0x3
 2082 06af 47       		.byte	0x47
 2083 06b0 B0000000 		.4byte	0xb0
 2084 06b4 1C       		.byte	0x1c
 2085 06b5 15       		.uleb128 0x15
 2086 06b6 41435200 		.ascii	"ACR\000"
 2087 06ba 03       		.byte	0x3
 2088 06bb 48       		.byte	0x48
 2089 06bc B0000000 		.4byte	0xb0
 2090 06c0 20       		.byte	0x20
 2091 06c1 15       		.uleb128 0x15
 2092 06c2 49435200 		.ascii	"ICR\000"
 2093 06c6 03       		.byte	0x3
 2094 06c7 49       		.byte	0x49
 2095 06c8 B0000000 		.4byte	0xb0
 2096 06cc 24       		.byte	0x24
 2097 06cd 15       		.uleb128 0x15
 2098 06ce 46445200 		.ascii	"FDR\000"
 2099 06d2 03       		.byte	0x3
 2100 06d3 4A       		.byte	0x4a
 2101 06d4 B0000000 		.4byte	0xb0
 2102 06d8 28       		.byte	0x28
 2103 06d9 15       		.uleb128 0x15
 2104 06da 4F535200 		.ascii	"OSR\000"
ARM GAS  /var/folders/z0/6xlwn_996xz3mwq1cgzkbq4r0000gp/T//cckgJHwF.s 			page 59


 2105 06de 03       		.byte	0x3
 2106 06df 4B       		.byte	0x4b
 2107 06e0 B0000000 		.4byte	0xb0
 2108 06e4 2C       		.byte	0x2c
 2109 06e5 0A       		.uleb128 0xa
 2110 06e6 4B0E0000 		.4byte	.LASF1162
 2111 06ea 03       		.byte	0x3
 2112 06eb 4C       		.byte	0x4c
 2113 06ec B0000000 		.4byte	0xb0
 2114 06f0 30       		.byte	0x30
 2115 06f1 0A       		.uleb128 0xa
 2116 06f2 091E0000 		.4byte	.LASF1163
 2117 06f6 03       		.byte	0x3
 2118 06f7 4D       		.byte	0x4d
 2119 06f8 58070000 		.4byte	0x758
 2120 06fc 34       		.byte	0x34
 2121 06fd 0A       		.uleb128 0xa
 2122 06fe 6B390000 		.4byte	.LASF1164
 2123 0702 03       		.byte	0x3
 2124 0703 4E       		.byte	0x4e
 2125 0704 B0000000 		.4byte	0xb0
 2126 0708 40       		.byte	0x40
 2127 0709 0A       		.uleb128 0xa
 2128 070a 131E0000 		.4byte	.LASF1076
 2129 070e 03       		.byte	0x3
 2130 070f 4F       		.byte	0x4f
 2131 0710 7D070000 		.4byte	0x77d
 2132 0714 44       		.byte	0x44
 2133 0715 0A       		.uleb128 0xa
 2134 0716 C75F0000 		.4byte	.LASF1165
 2135 071a 03       		.byte	0x3
 2136 071b 50       		.byte	0x50
 2137 071c B0000000 		.4byte	0xb0
 2138 0720 48       		.byte	0x48
 2139 0721 0A       		.uleb128 0xa
 2140 0722 09570000 		.4byte	.LASF1166
 2141 0726 03       		.byte	0x3
 2142 0727 52       		.byte	0x52
 2143 0728 B0000000 		.4byte	0xb0
 2144 072c 4C       		.byte	0x4c
 2145 072d 0A       		.uleb128 0xa
 2146 072e 550E0000 		.4byte	.LASF1167
 2147 0732 03       		.byte	0x3
 2148 0733 53       		.byte	0x53
 2149 0734 B0000000 		.4byte	0xb0
 2150 0738 50       		.byte	0x50
 2151 0739 0A       		.uleb128 0xa
 2152 073a 3B2F0000 		.4byte	.LASF1168
 2153 073e 03       		.byte	0x3
 2154 073f 54       		.byte	0x54
 2155 0740 B0000000 		.4byte	0xb0
 2156 0744 54       		.byte	0x54
 2157 0745 14       		.uleb128 0x14
 2158 0746 40060000 		.4byte	0x640
 2159 074a 58       		.byte	0x58
 2160 074b 0A       		.uleb128 0xa
 2161 074c 500E0000 		.4byte	.LASF1169
ARM GAS  /var/folders/z0/6xlwn_996xz3mwq1cgzkbq4r0000gp/T//cckgJHwF.s 			page 60


 2162 0750 03       		.byte	0x3
 2163 0751 5B       		.byte	0x5b
 2164 0752 B0000000 		.4byte	0xb0
 2165 0756 5C       		.byte	0x5c
 2166 0757 00       		.byte	0
 2167 0758 06       		.uleb128 0x6
 2168 0759 90000000 		.4byte	0x90
 2169 075d 68070000 		.4byte	0x768
 2170 0761 07       		.uleb128 0x7
 2171 0762 A9000000 		.4byte	0xa9
 2172 0766 02       		.byte	0x2
 2173 0767 00       		.byte	0
 2174 0768 06       		.uleb128 0x6
 2175 0769 C5000000 		.4byte	0xc5
 2176 076d 78070000 		.4byte	0x778
 2177 0771 07       		.uleb128 0x7
 2178 0772 A9000000 		.4byte	0xa9
 2179 0776 00       		.byte	0
 2180 0777 00       		.byte	0
 2181 0778 05       		.uleb128 0x5
 2182 0779 68070000 		.4byte	0x768
 2183 077d 08       		.uleb128 0x8
 2184 077e 78070000 		.4byte	0x778
 2185 0782 03       		.uleb128 0x3
 2186 0783 D10C0000 		.4byte	.LASF1170
 2187 0787 03       		.byte	0x3
 2188 0788 5C       		.byte	0x5c
 2189 0789 5F060000 		.4byte	0x65f
 2190 078d 08       		.uleb128 0x8
 2191 078e 90000000 		.4byte	0x90
 2192 0792 16       		.uleb128 0x16
 2193 0793 04       		.byte	0x4
 2194 0794 85000000 		.4byte	0x85
 2195 0798 17       		.uleb128 0x17
 2196 0799 854F0000 		.4byte	.LASF1180
 2197 079d 07       		.byte	0x7
 2198 079e 87       		.byte	0x87
 2199 079f 7E000000 		.4byte	0x7e
 2200 07a3 03       		.byte	0x3
 2201 07a4 B4070000 		.4byte	0x7b4
 2202 07a8 18       		.uleb128 0x18
 2203 07a9 A52C0000 		.4byte	.LASF1171
 2204 07ad 07       		.byte	0x7
 2205 07ae 87       		.byte	0x87
 2206 07af B4070000 		.4byte	0x7b4
 2207 07b3 00       		.byte	0
 2208 07b4 16       		.uleb128 0x16
 2209 07b5 04       		.byte	0x4
 2210 07b6 CD050000 		.4byte	0x5cd
 2211 07ba 19       		.uleb128 0x19
 2212 07bb 2B6C0000 		.4byte	.LASF1174
 2213 07bf 03       		.byte	0x3
 2214 07c0 A301     		.2byte	0x1a3
 2215 07c2 03       		.byte	0x3
 2216 07c3 E0070000 		.4byte	0x7e0
 2217 07c7 1A       		.uleb128 0x1a
 2218 07c8 917A0000 		.4byte	.LASF1172
ARM GAS  /var/folders/z0/6xlwn_996xz3mwq1cgzkbq4r0000gp/T//cckgJHwF.s 			page 61


 2219 07cc 03       		.byte	0x3
 2220 07cd A301     		.2byte	0x1a3
 2221 07cf E0070000 		.4byte	0x7e0
 2222 07d3 1A       		.uleb128 0x1a
 2223 07d4 620A0000 		.4byte	.LASF1173
 2224 07d8 03       		.byte	0x3
 2225 07d9 A301     		.2byte	0x1a3
 2226 07db 90000000 		.4byte	0x90
 2227 07df 00       		.byte	0
 2228 07e0 16       		.uleb128 0x16
 2229 07e1 04       		.byte	0x4
 2230 07e2 82070000 		.4byte	0x782
 2231 07e6 19       		.uleb128 0x19
 2232 07e7 55220000 		.4byte	.LASF1175
 2233 07eb 03       		.byte	0x3
 2234 07ec 9401     		.2byte	0x194
 2235 07ee 03       		.byte	0x3
 2236 07ef 0C080000 		.4byte	0x80c
 2237 07f3 1A       		.uleb128 0x1a
 2238 07f4 917A0000 		.4byte	.LASF1172
 2239 07f8 03       		.byte	0x3
 2240 07f9 9401     		.2byte	0x194
 2241 07fb E0070000 		.4byte	0x7e0
 2242 07ff 1B       		.uleb128 0x1b
 2243 0800 66637200 		.ascii	"fcr\000"
 2244 0804 03       		.byte	0x3
 2245 0805 9401     		.2byte	0x194
 2246 0807 90000000 		.4byte	0x90
 2247 080b 00       		.byte	0
 2248 080c 19       		.uleb128 0x19
 2249 080d F3180000 		.4byte	.LASF1176
 2250 0811 02       		.byte	0x2
 2251 0812 5301     		.2byte	0x153
 2252 0814 03       		.byte	0x3
 2253 0815 26080000 		.4byte	0x826
 2254 0819 1B       		.uleb128 0x1b
 2255 081a 64697600 		.ascii	"div\000"
 2256 081e 02       		.byte	0x2
 2257 081f 5301     		.2byte	0x153
 2258 0821 90000000 		.4byte	0x90
 2259 0825 00       		.byte	0
 2260 0826 19       		.uleb128 0x19
 2261 0827 8D580000 		.4byte	.LASF1177
 2262 082b 02       		.byte	0x2
 2263 082c 2701     		.2byte	0x127
 2264 082e 03       		.byte	0x3
 2265 082f 40080000 		.4byte	0x840
 2266 0833 1B       		.uleb128 0x1b
 2267 0834 636C6B00 		.ascii	"clk\000"
 2268 0838 02       		.byte	0x2
 2269 0839 2701     		.2byte	0x127
 2270 083b 7A050000 		.4byte	0x57a
 2271 083f 00       		.byte	0
 2272 0840 19       		.uleb128 0x19
 2273 0841 0F340000 		.4byte	.LASF1178
 2274 0845 02       		.byte	0x2
 2275 0846 3101     		.2byte	0x131
ARM GAS  /var/folders/z0/6xlwn_996xz3mwq1cgzkbq4r0000gp/T//cckgJHwF.s 			page 62


 2276 0848 03       		.byte	0x3
 2277 0849 5A080000 		.4byte	0x85a
 2278 084d 1B       		.uleb128 0x1b
 2279 084e 636C6B00 		.ascii	"clk\000"
 2280 0852 02       		.byte	0x2
 2281 0853 3101     		.2byte	0x131
 2282 0855 7A050000 		.4byte	0x57a
 2283 0859 00       		.byte	0
 2284 085a 19       		.uleb128 0x19
 2285 085b 36790000 		.4byte	.LASF1179
 2286 085f 03       		.byte	0x3
 2287 0860 4301     		.2byte	0x143
 2288 0862 03       		.byte	0x3
 2289 0863 80080000 		.4byte	0x880
 2290 0867 1A       		.uleb128 0x1a
 2291 0868 917A0000 		.4byte	.LASF1172
 2292 086c 03       		.byte	0x3
 2293 086d 4301     		.2byte	0x143
 2294 086f E0070000 		.4byte	0x7e0
 2295 0873 1A       		.uleb128 0x1a
 2296 0874 2B7A0000 		.4byte	.LASF1154
 2297 0878 03       		.byte	0x3
 2298 0879 4301     		.2byte	0x143
 2299 087b 85000000 		.4byte	0x85
 2300 087f 00       		.byte	0
 2301 0880 1C       		.uleb128 0x1c
 2302 0881 B5420000 		.4byte	.LASF1181
 2303 0885 03       		.byte	0x3
 2304 0886 F901     		.2byte	0x1f9
 2305 0888 90000000 		.4byte	0x90
 2306 088c 03       		.byte	0x3
 2307 088d 9E080000 		.4byte	0x89e
 2308 0891 1A       		.uleb128 0x1a
 2309 0892 917A0000 		.4byte	.LASF1172
 2310 0896 03       		.byte	0x3
 2311 0897 F901     		.2byte	0x1f9
 2312 0899 E0070000 		.4byte	0x7e0
 2313 089d 00       		.byte	0
 2314 089e 1D       		.uleb128 0x1d
 2315 089f 65730000 		.4byte	.LASF1185
 2316 08a3 01       		.byte	0x1
 2317 08a4 4A       		.byte	0x4a
 2318 08a5 7E000000 		.4byte	0x7e
 2319 08a9 01       		.byte	0x1
 2320 08aa E5080000 		.4byte	0x8e5
 2321 08ae 18       		.uleb128 0x18
 2322 08af 917A0000 		.4byte	.LASF1172
 2323 08b3 01       		.byte	0x1
 2324 08b4 4A       		.byte	0x4a
 2325 08b5 E0070000 		.4byte	0x7e0
 2326 08b9 18       		.uleb128 0x18
 2327 08ba 2B7A0000 		.4byte	.LASF1154
 2328 08be 01       		.byte	0x1
 2329 08bf 4A       		.byte	0x4a
 2330 08c0 E5080000 		.4byte	0x8e5
 2331 08c4 18       		.uleb128 0x18
 2332 08c5 825B0000 		.4byte	.LASF1182
ARM GAS  /var/folders/z0/6xlwn_996xz3mwq1cgzkbq4r0000gp/T//cckgJHwF.s 			page 63


 2333 08c9 01       		.byte	0x1
 2334 08ca 4A       		.byte	0x4a
 2335 08cb 7E000000 		.4byte	0x7e
 2336 08cf 1E       		.uleb128 0x1e
 2337 08d0 983F0000 		.4byte	.LASF1183
 2338 08d4 01       		.byte	0x1
 2339 08d5 4C       		.byte	0x4c
 2340 08d6 7E000000 		.4byte	0x7e
 2341 08da 1F       		.uleb128 0x1f
 2342 08db 703800   		.ascii	"p8\000"
 2343 08de 01       		.byte	0x1
 2344 08df 4D       		.byte	0x4d
 2345 08e0 92070000 		.4byte	0x792
 2346 08e4 00       		.byte	0
 2347 08e5 16       		.uleb128 0x16
 2348 08e6 04       		.byte	0x4
 2349 08e7 EB080000 		.4byte	0x8eb
 2350 08eb 20       		.uleb128 0x20
 2351 08ec 1C       		.uleb128 0x1c
 2352 08ed A8040000 		.4byte	.LASF1184
 2353 08f1 03       		.byte	0x3
 2354 08f2 5001     		.2byte	0x150
 2355 08f4 85000000 		.4byte	0x85
 2356 08f8 03       		.byte	0x3
 2357 08f9 0A090000 		.4byte	0x90a
 2358 08fd 1A       		.uleb128 0x1a
 2359 08fe 917A0000 		.4byte	.LASF1172
 2360 0902 03       		.byte	0x3
 2361 0903 5001     		.2byte	0x150
 2362 0905 E0070000 		.4byte	0x7e0
 2363 0909 00       		.byte	0
 2364 090a 1D       		.uleb128 0x1d
 2365 090b 727B0000 		.4byte	.LASF1186
 2366 090f 01       		.byte	0x1
 2367 0910 6B       		.byte	0x6b
 2368 0911 7E000000 		.4byte	0x7e
 2369 0915 01       		.byte	0x1
 2370 0916 51090000 		.4byte	0x951
 2371 091a 18       		.uleb128 0x18
 2372 091b 917A0000 		.4byte	.LASF1172
 2373 091f 01       		.byte	0x1
 2374 0920 6B       		.byte	0x6b
 2375 0921 E0070000 		.4byte	0x7e0
 2376 0925 18       		.uleb128 0x18
 2377 0926 2B7A0000 		.4byte	.LASF1154
 2378 092a 01       		.byte	0x1
 2379 092b 6B       		.byte	0x6b
 2380 092c CB050000 		.4byte	0x5cb
 2381 0930 18       		.uleb128 0x18
 2382 0931 825B0000 		.4byte	.LASF1182
 2383 0935 01       		.byte	0x1
 2384 0936 6B       		.byte	0x6b
 2385 0937 7E000000 		.4byte	0x7e
 2386 093b 1E       		.uleb128 0x1e
 2387 093c 41080000 		.4byte	.LASF1187
 2388 0940 01       		.byte	0x1
 2389 0941 6D       		.byte	0x6d
ARM GAS  /var/folders/z0/6xlwn_996xz3mwq1cgzkbq4r0000gp/T//cckgJHwF.s 			page 64


 2390 0942 7E000000 		.4byte	0x7e
 2391 0946 1F       		.uleb128 0x1f
 2392 0947 703800   		.ascii	"p8\000"
 2393 094a 01       		.byte	0x1
 2394 094b 6E       		.byte	0x6e
 2395 094c 92070000 		.4byte	0x792
 2396 0950 00       		.byte	0
 2397 0951 19       		.uleb128 0x19
 2398 0952 4C450000 		.4byte	.LASF1188
 2399 0956 03       		.byte	0x3
 2400 0957 B701     		.2byte	0x1b7
 2401 0959 03       		.byte	0x3
 2402 095a 6B090000 		.4byte	0x96b
 2403 095e 1A       		.uleb128 0x1a
 2404 095f 917A0000 		.4byte	.LASF1172
 2405 0963 03       		.byte	0x3
 2406 0964 B701     		.2byte	0x1b7
 2407 0966 E0070000 		.4byte	0x7e0
 2408 096a 00       		.byte	0
 2409 096b 19       		.uleb128 0x19
 2410 096c FB1A0000 		.4byte	.LASF1189
 2411 0970 03       		.byte	0x3
 2412 0971 C601     		.2byte	0x1c6
 2413 0973 03       		.byte	0x3
 2414 0974 9D090000 		.4byte	0x99d
 2415 0978 1A       		.uleb128 0x1a
 2416 0979 917A0000 		.4byte	.LASF1172
 2417 097d 03       		.byte	0x3
 2418 097e C601     		.2byte	0x1c6
 2419 0980 E0070000 		.4byte	0x7e0
 2420 0984 1B       		.uleb128 0x1b
 2421 0985 646C6C00 		.ascii	"dll\000"
 2422 0989 03       		.byte	0x3
 2423 098a C601     		.2byte	0x1c6
 2424 098c 85000000 		.4byte	0x85
 2425 0990 1B       		.uleb128 0x1b
 2426 0991 646C6D00 		.ascii	"dlm\000"
 2427 0995 03       		.byte	0x3
 2428 0996 C601     		.2byte	0x1c6
 2429 0998 85000000 		.4byte	0x85
 2430 099c 00       		.byte	0
 2431 099d 19       		.uleb128 0x19
 2432 099e 7B6E0000 		.4byte	.LASF1190
 2433 09a2 03       		.byte	0x3
 2434 09a3 AD01     		.2byte	0x1ad
 2435 09a5 03       		.byte	0x3
 2436 09a6 B7090000 		.4byte	0x9b7
 2437 09aa 1A       		.uleb128 0x1a
 2438 09ab 917A0000 		.4byte	.LASF1172
 2439 09af 03       		.byte	0x3
 2440 09b0 AD01     		.2byte	0x1ad
 2441 09b2 E0070000 		.4byte	0x7e0
 2442 09b6 00       		.byte	0
 2443 09b7 19       		.uleb128 0x19
 2444 09b8 7B050000 		.4byte	.LASF1191
 2445 09bc 03       		.byte	0x3
 2446 09bd 5F01     		.2byte	0x15f
ARM GAS  /var/folders/z0/6xlwn_996xz3mwq1cgzkbq4r0000gp/T//cckgJHwF.s 			page 65


 2447 09bf 03       		.byte	0x3
 2448 09c0 DD090000 		.4byte	0x9dd
 2449 09c4 1A       		.uleb128 0x1a
 2450 09c5 917A0000 		.4byte	.LASF1172
 2451 09c9 03       		.byte	0x3
 2452 09ca 5F01     		.2byte	0x15f
 2453 09cc E0070000 		.4byte	0x7e0
 2454 09d0 1A       		.uleb128 0x1a
 2455 09d1 65260000 		.4byte	.LASF1192
 2456 09d5 03       		.byte	0x3
 2457 09d6 5F01     		.2byte	0x15f
 2458 09d8 90000000 		.4byte	0x90
 2459 09dc 00       		.byte	0
 2460 09dd 19       		.uleb128 0x19
 2461 09de CF5F0000 		.4byte	.LASF1193
 2462 09e2 03       		.byte	0x3
 2463 09e3 6E01     		.2byte	0x16e
 2464 09e5 03       		.byte	0x3
 2465 09e6 030A0000 		.4byte	0xa03
 2466 09ea 1A       		.uleb128 0x1a
 2467 09eb 917A0000 		.4byte	.LASF1172
 2468 09ef 03       		.byte	0x3
 2469 09f0 6E01     		.2byte	0x16e
 2470 09f2 E0070000 		.4byte	0x7e0
 2471 09f6 1A       		.uleb128 0x1a
 2472 09f7 65260000 		.4byte	.LASF1192
 2473 09fb 03       		.byte	0x3
 2474 09fc 6E01     		.2byte	0x16e
 2475 09fe 90000000 		.4byte	0x90
 2476 0a02 00       		.byte	0
 2477 0a03 21       		.uleb128 0x21
 2478 0a04 70500000 		.4byte	.LASF1226
 2479 0a08 01       		.byte	0x1
 2480 0a09 A2       		.byte	0xa2
 2481 0a0a 01       		.byte	0x1
 2482 0a0b 320A0000 		.4byte	0xa32
 2483 0a0f 18       		.uleb128 0x18
 2484 0a10 917A0000 		.4byte	.LASF1172
 2485 0a14 01       		.byte	0x1
 2486 0a15 A2       		.byte	0xa2
 2487 0a16 E0070000 		.4byte	0x7e0
 2488 0a1a 22       		.uleb128 0x22
 2489 0a1b 70524200 		.ascii	"pRB\000"
 2490 0a1f 01       		.byte	0x1
 2491 0a20 A2       		.byte	0xa2
 2492 0a21 B4070000 		.4byte	0x7b4
 2493 0a25 23       		.uleb128 0x23
 2494 0a26 1F       		.uleb128 0x1f
 2495 0a27 636800   		.ascii	"ch\000"
 2496 0a2a 01       		.byte	0x1
 2497 0a2b A6       		.byte	0xa6
 2498 0a2c 85000000 		.4byte	0x85
 2499 0a30 00       		.byte	0
 2500 0a31 00       		.byte	0
 2501 0a32 24       		.uleb128 0x24
 2502 0a33 CC430000 		.4byte	.LASF1194
 2503 0a37 01       		.byte	0x1
ARM GAS  /var/folders/z0/6xlwn_996xz3mwq1cgzkbq4r0000gp/T//cckgJHwF.s 			page 66


 2504 0a38 33       		.byte	0x33
 2505 0a39 00000000 		.4byte	.LFB198
 2506 0a3d 28000000 		.4byte	.LFE198-.LFB198
 2507 0a41 01       		.uleb128 0x1
 2508 0a42 9C       		.byte	0x9c
 2509 0a43 D70A0000 		.4byte	0xad7
 2510 0a47 25       		.uleb128 0x25
 2511 0a48 917A0000 		.4byte	.LASF1172
 2512 0a4c 01       		.byte	0x1
 2513 0a4d 33       		.byte	0x33
 2514 0a4e E0070000 		.4byte	0x7e0
 2515 0a52 01       		.uleb128 0x1
 2516 0a53 50       		.byte	0x50
 2517 0a54 26       		.uleb128 0x26
 2518 0a55 26080000 		.4byte	0x826
 2519 0a59 00000000 		.4byte	.LBB68
 2520 0a5d 00000000 		.4byte	.Ldebug_ranges0+0
 2521 0a61 01       		.byte	0x1
 2522 0a62 35       		.byte	0x35
 2523 0a63 710A0000 		.4byte	0xa71
 2524 0a67 27       		.uleb128 0x27
 2525 0a68 33080000 		.4byte	0x833
 2526 0a6c 00000000 		.4byte	.LLST0
 2527 0a70 00       		.byte	0
 2528 0a71 28       		.uleb128 0x28
 2529 0a72 0C080000 		.4byte	0x80c
 2530 0a76 10000000 		.4byte	.LBB74
 2531 0a7a 06000000 		.4byte	.LBE74-.LBB74
 2532 0a7e 01       		.byte	0x1
 2533 0a7f 36       		.byte	0x36
 2534 0a80 8E0A0000 		.4byte	0xa8e
 2535 0a84 27       		.uleb128 0x27
 2536 0a85 19080000 		.4byte	0x819
 2537 0a89 14000000 		.4byte	.LLST1
 2538 0a8d 00       		.byte	0
 2539 0a8e 28       		.uleb128 0x28
 2540 0a8f E6070000 		.4byte	0x7e6
 2541 0a93 16000000 		.4byte	.LBB76
 2542 0a97 04000000 		.4byte	.LBE76-.LBB76
 2543 0a9b 01       		.byte	0x1
 2544 0a9c 39       		.byte	0x39
 2545 0a9d B40A0000 		.4byte	0xab4
 2546 0aa1 27       		.uleb128 0x27
 2547 0aa2 FF070000 		.4byte	0x7ff
 2548 0aa6 28000000 		.4byte	.LLST2
 2549 0aaa 27       		.uleb128 0x27
 2550 0aab F3070000 		.4byte	0x7f3
 2551 0aaf 3C000000 		.4byte	.LLST3
 2552 0ab3 00       		.byte	0
 2553 0ab4 29       		.uleb128 0x29
 2554 0ab5 BA070000 		.4byte	0x7ba
 2555 0ab9 1A000000 		.4byte	.LBB78
 2556 0abd 04000000 		.4byte	.LBE78-.LBB78
 2557 0ac1 01       		.byte	0x1
 2558 0ac2 3C       		.byte	0x3c
 2559 0ac3 27       		.uleb128 0x27
 2560 0ac4 D3070000 		.4byte	0x7d3
ARM GAS  /var/folders/z0/6xlwn_996xz3mwq1cgzkbq4r0000gp/T//cckgJHwF.s 			page 67


 2561 0ac8 4F000000 		.4byte	.LLST4
 2562 0acc 27       		.uleb128 0x27
 2563 0acd C7070000 		.4byte	0x7c7
 2564 0ad1 63000000 		.4byte	.LLST5
 2565 0ad5 00       		.byte	0
 2566 0ad6 00       		.byte	0
 2567 0ad7 24       		.uleb128 0x24
 2568 0ad8 03330000 		.4byte	.LASF1195
 2569 0adc 01       		.byte	0x1
 2570 0add 43       		.byte	0x43
 2571 0ade 00000000 		.4byte	.LFB199
 2572 0ae2 18000000 		.4byte	.LFE199-.LFB199
 2573 0ae6 01       		.uleb128 0x1
 2574 0ae7 9C       		.byte	0x9c
 2575 0ae8 150B0000 		.4byte	0xb15
 2576 0aec 2A       		.uleb128 0x2a
 2577 0aed 917A0000 		.4byte	.LASF1172
 2578 0af1 01       		.byte	0x1
 2579 0af2 43       		.byte	0x43
 2580 0af3 E0070000 		.4byte	0x7e0
 2581 0af7 76000000 		.4byte	.LLST6
 2582 0afb 2B       		.uleb128 0x2b
 2583 0afc 40080000 		.4byte	0x840
 2584 0b00 00000000 		.4byte	.LBB80
 2585 0b04 20000000 		.4byte	.Ldebug_ranges0+0x20
 2586 0b08 01       		.byte	0x1
 2587 0b09 46       		.byte	0x46
 2588 0b0a 27       		.uleb128 0x27
 2589 0b0b 4D080000 		.4byte	0x84d
 2590 0b0f 97000000 		.4byte	.LLST7
 2591 0b13 00       		.byte	0
 2592 0b14 00       		.byte	0
 2593 0b15 2C       		.uleb128 0x2c
 2594 0b16 9E080000 		.4byte	0x89e
 2595 0b1a 00000000 		.4byte	.LFB200
 2596 0b1e 2E000000 		.4byte	.LFE200-.LFB200
 2597 0b22 01       		.uleb128 0x1
 2598 0b23 9C       		.byte	0x9c
 2599 0b24 930B0000 		.4byte	0xb93
 2600 0b28 27       		.uleb128 0x27
 2601 0b29 AE080000 		.4byte	0x8ae
 2602 0b2d AB000000 		.4byte	.LLST8
 2603 0b31 2D       		.uleb128 0x2d
 2604 0b32 B9080000 		.4byte	0x8b9
 2605 0b36 01       		.uleb128 0x1
 2606 0b37 51       		.byte	0x51
 2607 0b38 27       		.uleb128 0x27
 2608 0b39 C4080000 		.4byte	0x8c4
 2609 0b3d D7000000 		.4byte	.LLST9
 2610 0b41 2E       		.uleb128 0x2e
 2611 0b42 CF080000 		.4byte	0x8cf
 2612 0b46 2A010000 		.4byte	.LLST10
 2613 0b4a 2E       		.uleb128 0x2e
 2614 0b4b DA080000 		.4byte	0x8da
 2615 0b4f 78010000 		.4byte	.LLST11
 2616 0b53 26       		.uleb128 0x26
 2617 0b54 80080000 		.4byte	0x880
ARM GAS  /var/folders/z0/6xlwn_996xz3mwq1cgzkbq4r0000gp/T//cckgJHwF.s 			page 68


 2618 0b58 06000000 		.4byte	.LBB84
 2619 0b5c 38000000 		.4byte	.Ldebug_ranges0+0x38
 2620 0b60 01       		.byte	0x1
 2621 0b61 51       		.byte	0x51
 2622 0b62 700B0000 		.4byte	0xb70
 2623 0b66 27       		.uleb128 0x27
 2624 0b67 91080000 		.4byte	0x891
 2625 0b6b B8010000 		.4byte	.LLST12
 2626 0b6f 00       		.byte	0
 2627 0b70 2B       		.uleb128 0x2b
 2628 0b71 5A080000 		.4byte	0x85a
 2629 0b75 18000000 		.4byte	.LBB88
 2630 0b79 50000000 		.4byte	.Ldebug_ranges0+0x50
 2631 0b7d 01       		.byte	0x1
 2632 0b7e 52       		.byte	0x52
 2633 0b7f 27       		.uleb128 0x27
 2634 0b80 73080000 		.4byte	0x873
 2635 0b84 D6010000 		.4byte	.LLST13
 2636 0b88 27       		.uleb128 0x27
 2637 0b89 67080000 		.4byte	0x867
 2638 0b8d FE010000 		.4byte	.LLST14
 2639 0b91 00       		.byte	0
 2640 0b92 00       		.byte	0
 2641 0b93 2F       		.uleb128 0x2f
 2642 0b94 C6520000 		.4byte	.LASF1197
 2643 0b98 01       		.byte	0x1
 2644 0b99 5B       		.byte	0x5b
 2645 0b9a 7E000000 		.4byte	0x7e
 2646 0b9e 00000000 		.4byte	.LFB201
 2647 0ba2 2A000000 		.4byte	.LFE201-.LFB201
 2648 0ba6 01       		.uleb128 0x1
 2649 0ba7 9C       		.byte	0x9c
 2650 0ba8 780C0000 		.4byte	0xc78
 2651 0bac 2A       		.uleb128 0x2a
 2652 0bad 917A0000 		.4byte	.LASF1172
 2653 0bb1 01       		.byte	0x1
 2654 0bb2 5B       		.byte	0x5b
 2655 0bb3 E0070000 		.4byte	0x7e0
 2656 0bb7 11020000 		.4byte	.LLST15
 2657 0bbb 2A       		.uleb128 0x2a
 2658 0bbc 2B7A0000 		.4byte	.LASF1154
 2659 0bc0 01       		.byte	0x1
 2660 0bc1 5B       		.byte	0x5b
 2661 0bc2 E5080000 		.4byte	0x8e5
 2662 0bc6 32020000 		.4byte	.LLST16
 2663 0bca 2A       		.uleb128 0x2a
 2664 0bcb 825B0000 		.4byte	.LASF1182
 2665 0bcf 01       		.byte	0x1
 2666 0bd0 5B       		.byte	0x5b
 2667 0bd1 7E000000 		.4byte	0x7e
 2668 0bd5 53020000 		.4byte	.LLST17
 2669 0bd9 30       		.uleb128 0x30
 2670 0bda F8010000 		.4byte	.LASF1196
 2671 0bde 01       		.byte	0x1
 2672 0bdf 5D       		.byte	0x5d
 2673 0be0 7E000000 		.4byte	0x7e
 2674 0be4 01       		.uleb128 0x1
ARM GAS  /var/folders/z0/6xlwn_996xz3mwq1cgzkbq4r0000gp/T//cckgJHwF.s 			page 69


 2675 0be5 53       		.byte	0x53
 2676 0be6 31       		.uleb128 0x31
 2677 0be7 983F0000 		.4byte	.LASF1183
 2678 0beb 01       		.byte	0x1
 2679 0bec 5D       		.byte	0x5d
 2680 0bed 7E000000 		.4byte	0x7e
 2681 0bf1 71020000 		.4byte	.LLST18
 2682 0bf5 32       		.uleb128 0x32
 2683 0bf6 703800   		.ascii	"p8\000"
 2684 0bf9 01       		.byte	0x1
 2685 0bfa 5E       		.byte	0x5e
 2686 0bfb 92070000 		.4byte	0x792
 2687 0bff 01       		.uleb128 0x1
 2688 0c00 51       		.byte	0x51
 2689 0c01 2B       		.uleb128 0x2b
 2690 0c02 9E080000 		.4byte	0x89e
 2691 0c06 04000000 		.4byte	.LBB92
 2692 0c0a 68000000 		.4byte	.Ldebug_ranges0+0x68
 2693 0c0e 01       		.byte	0x1
 2694 0c0f 61       		.byte	0x61
 2695 0c10 33       		.uleb128 0x33
 2696 0c11 C4080000 		.4byte	0x8c4
 2697 0c15 33       		.uleb128 0x33
 2698 0c16 B9080000 		.4byte	0x8b9
 2699 0c1a 33       		.uleb128 0x33
 2700 0c1b AE080000 		.4byte	0x8ae
 2701 0c1f 34       		.uleb128 0x34
 2702 0c20 68000000 		.4byte	.Ldebug_ranges0+0x68
 2703 0c24 2E       		.uleb128 0x2e
 2704 0c25 CF080000 		.4byte	0x8cf
 2705 0c29 90020000 		.4byte	.LLST19
 2706 0c2d 2E       		.uleb128 0x2e
 2707 0c2e DA080000 		.4byte	0x8da
 2708 0c32 BB020000 		.4byte	.LLST20
 2709 0c36 28       		.uleb128 0x28
 2710 0c37 80080000 		.4byte	0x880
 2711 0c3b 0C000000 		.4byte	.LBB94
 2712 0c3f 02000000 		.4byte	.LBE94-.LBB94
 2713 0c43 01       		.byte	0x1
 2714 0c44 51       		.byte	0x51
 2715 0c45 530C0000 		.4byte	0xc53
 2716 0c49 27       		.uleb128 0x27
 2717 0c4a 91080000 		.4byte	0x891
 2718 0c4e E5020000 		.4byte	.LLST21
 2719 0c52 00       		.byte	0
 2720 0c53 2B       		.uleb128 0x2b
 2721 0c54 5A080000 		.4byte	0x85a
 2722 0c58 12000000 		.4byte	.LBB96
 2723 0c5c 80000000 		.4byte	.Ldebug_ranges0+0x80
 2724 0c60 01       		.byte	0x1
 2725 0c61 52       		.byte	0x52
 2726 0c62 27       		.uleb128 0x27
 2727 0c63 73080000 		.4byte	0x873
 2728 0c67 F8020000 		.4byte	.LLST22
 2729 0c6b 27       		.uleb128 0x27
 2730 0c6c 67080000 		.4byte	0x867
 2731 0c70 20030000 		.4byte	.LLST23
ARM GAS  /var/folders/z0/6xlwn_996xz3mwq1cgzkbq4r0000gp/T//cckgJHwF.s 			page 70


 2732 0c74 00       		.byte	0
 2733 0c75 00       		.byte	0
 2734 0c76 00       		.byte	0
 2735 0c77 00       		.byte	0
 2736 0c78 2C       		.uleb128 0x2c
 2737 0c79 0A090000 		.4byte	0x90a
 2738 0c7d 00000000 		.4byte	.LFB202
 2739 0c81 2E000000 		.4byte	.LFE202-.LFB202
 2740 0c85 01       		.uleb128 0x1
 2741 0c86 9C       		.byte	0x9c
 2742 0c87 ED0C0000 		.4byte	0xced
 2743 0c8b 27       		.uleb128 0x27
 2744 0c8c 1A090000 		.4byte	0x91a
 2745 0c90 33030000 		.4byte	.LLST24
 2746 0c94 2D       		.uleb128 0x2d
 2747 0c95 25090000 		.4byte	0x925
 2748 0c99 01       		.uleb128 0x1
 2749 0c9a 51       		.byte	0x51
 2750 0c9b 27       		.uleb128 0x27
 2751 0c9c 30090000 		.4byte	0x930
 2752 0ca0 5F030000 		.4byte	.LLST25
 2753 0ca4 2E       		.uleb128 0x2e
 2754 0ca5 3B090000 		.4byte	0x93b
 2755 0ca9 B2030000 		.4byte	.LLST26
 2756 0cad 2E       		.uleb128 0x2e
 2757 0cae 46090000 		.4byte	0x946
 2758 0cb2 E8030000 		.4byte	.LLST27
 2759 0cb6 26       		.uleb128 0x26
 2760 0cb7 80080000 		.4byte	0x880
 2761 0cbb 06000000 		.4byte	.LBB102
 2762 0cbf 98000000 		.4byte	.Ldebug_ranges0+0x98
 2763 0cc3 01       		.byte	0x1
 2764 0cc4 72       		.byte	0x72
 2765 0cc5 D30C0000 		.4byte	0xcd3
 2766 0cc9 27       		.uleb128 0x27
 2767 0cca 91080000 		.4byte	0x891
 2768 0cce 48040000 		.4byte	.LLST28
 2769 0cd2 00       		.byte	0
 2770 0cd3 29       		.uleb128 0x29
 2771 0cd4 EC080000 		.4byte	0x8ec
 2772 0cd8 18000000 		.4byte	.LBB106
 2773 0cdc 02000000 		.4byte	.LBE106-.LBB106
 2774 0ce0 01       		.byte	0x1
 2775 0ce1 73       		.byte	0x73
 2776 0ce2 27       		.uleb128 0x27
 2777 0ce3 FD080000 		.4byte	0x8fd
 2778 0ce7 66040000 		.4byte	.LLST29
 2779 0ceb 00       		.byte	0
 2780 0cec 00       		.byte	0
 2781 0ced 2F       		.uleb128 0x2f
 2782 0cee C06E0000 		.4byte	.LASF1198
 2783 0cf2 01       		.byte	0x1
 2784 0cf3 7C       		.byte	0x7c
 2785 0cf4 7E000000 		.4byte	0x7e
 2786 0cf8 00000000 		.4byte	.LFB203
 2787 0cfc 2A000000 		.4byte	.LFE203-.LFB203
 2788 0d00 01       		.uleb128 0x1
ARM GAS  /var/folders/z0/6xlwn_996xz3mwq1cgzkbq4r0000gp/T//cckgJHwF.s 			page 71


 2789 0d01 9C       		.byte	0x9c
 2790 0d02 C90D0000 		.4byte	0xdc9
 2791 0d06 2A       		.uleb128 0x2a
 2792 0d07 917A0000 		.4byte	.LASF1172
 2793 0d0b 01       		.byte	0x1
 2794 0d0c 7C       		.byte	0x7c
 2795 0d0d E0070000 		.4byte	0x7e0
 2796 0d11 79040000 		.4byte	.LLST30
 2797 0d15 2A       		.uleb128 0x2a
 2798 0d16 2B7A0000 		.4byte	.LASF1154
 2799 0d1a 01       		.byte	0x1
 2800 0d1b 7C       		.byte	0x7c
 2801 0d1c CB050000 		.4byte	0x5cb
 2802 0d20 9A040000 		.4byte	.LLST31
 2803 0d24 2A       		.uleb128 0x2a
 2804 0d25 825B0000 		.4byte	.LASF1182
 2805 0d29 01       		.byte	0x1
 2806 0d2a 7C       		.byte	0x7c
 2807 0d2b 7E000000 		.4byte	0x7e
 2808 0d2f BB040000 		.4byte	.LLST32
 2809 0d33 30       		.uleb128 0x30
 2810 0d34 F8010000 		.4byte	.LASF1196
 2811 0d38 01       		.byte	0x1
 2812 0d39 7E       		.byte	0x7e
 2813 0d3a 7E000000 		.4byte	0x7e
 2814 0d3e 01       		.uleb128 0x1
 2815 0d3f 53       		.byte	0x53
 2816 0d40 31       		.uleb128 0x31
 2817 0d41 41080000 		.4byte	.LASF1187
 2818 0d45 01       		.byte	0x1
 2819 0d46 7E       		.byte	0x7e
 2820 0d47 7E000000 		.4byte	0x7e
 2821 0d4b D9040000 		.4byte	.LLST33
 2822 0d4f 32       		.uleb128 0x32
 2823 0d50 703800   		.ascii	"p8\000"
 2824 0d53 01       		.byte	0x1
 2825 0d54 7F       		.byte	0x7f
 2826 0d55 92070000 		.4byte	0x792
 2827 0d59 01       		.uleb128 0x1
 2828 0d5a 51       		.byte	0x51
 2829 0d5b 2B       		.uleb128 0x2b
 2830 0d5c 0A090000 		.4byte	0x90a
 2831 0d60 04000000 		.4byte	.LBB108
 2832 0d64 B0000000 		.4byte	.Ldebug_ranges0+0xb0
 2833 0d68 01       		.byte	0x1
 2834 0d69 82       		.byte	0x82
 2835 0d6a 33       		.uleb128 0x33
 2836 0d6b 30090000 		.4byte	0x930
 2837 0d6f 33       		.uleb128 0x33
 2838 0d70 25090000 		.4byte	0x925
 2839 0d74 33       		.uleb128 0x33
 2840 0d75 1A090000 		.4byte	0x91a
 2841 0d79 34       		.uleb128 0x34
 2842 0d7a B0000000 		.4byte	.Ldebug_ranges0+0xb0
 2843 0d7e 2E       		.uleb128 0x2e
 2844 0d7f 3B090000 		.4byte	0x93b
 2845 0d83 03050000 		.4byte	.LLST34
ARM GAS  /var/folders/z0/6xlwn_996xz3mwq1cgzkbq4r0000gp/T//cckgJHwF.s 			page 72


 2846 0d87 2E       		.uleb128 0x2e
 2847 0d88 46090000 		.4byte	0x946
 2848 0d8c 16050000 		.4byte	.LLST35
 2849 0d90 28       		.uleb128 0x28
 2850 0d91 80080000 		.4byte	0x880
 2851 0d95 0C000000 		.4byte	.LBB110
 2852 0d99 02000000 		.4byte	.LBE110-.LBB110
 2853 0d9d 01       		.byte	0x1
 2854 0d9e 72       		.byte	0x72
 2855 0d9f AD0D0000 		.4byte	0xdad
 2856 0da3 27       		.uleb128 0x27
 2857 0da4 91080000 		.4byte	0x891
 2858 0da8 50050000 		.4byte	.LLST36
 2859 0dac 00       		.byte	0
 2860 0dad 29       		.uleb128 0x29
 2861 0dae EC080000 		.4byte	0x8ec
 2862 0db2 12000000 		.4byte	.LBB112
 2863 0db6 02000000 		.4byte	.LBE112-.LBB112
 2864 0dba 01       		.byte	0x1
 2865 0dbb 73       		.byte	0x73
 2866 0dbc 27       		.uleb128 0x27
 2867 0dbd FD080000 		.4byte	0x8fd
 2868 0dc1 63050000 		.4byte	.LLST37
 2869 0dc5 00       		.byte	0
 2870 0dc6 00       		.byte	0
 2871 0dc7 00       		.byte	0
 2872 0dc8 00       		.byte	0
 2873 0dc9 35       		.uleb128 0x35
 2874 0dca FB170000 		.4byte	.LASF1199
 2875 0dce 01       		.byte	0x1
 2876 0dcf 8C       		.byte	0x8c
 2877 0dd0 90000000 		.4byte	0x90
 2878 0dd4 00000000 		.4byte	.LFB204
 2879 0dd8 38000000 		.4byte	.LFE204-.LFB204
 2880 0ddc 01       		.uleb128 0x1
 2881 0ddd 9C       		.byte	0x9c
 2882 0dde AF0E0000 		.4byte	0xeaf
 2883 0de2 2A       		.uleb128 0x2a
 2884 0de3 917A0000 		.4byte	.LASF1172
 2885 0de7 01       		.byte	0x1
 2886 0de8 8C       		.byte	0x8c
 2887 0de9 E0070000 		.4byte	0x7e0
 2888 0ded 76050000 		.4byte	.LLST38
 2889 0df1 2A       		.uleb128 0x2a
 2890 0df2 6D6C0000 		.4byte	.LASF1200
 2891 0df6 01       		.byte	0x1
 2892 0df7 8C       		.byte	0x8c
 2893 0df8 90000000 		.4byte	0x90
 2894 0dfc A2050000 		.4byte	.LLST39
 2895 0e00 36       		.uleb128 0x36
 2896 0e01 64697600 		.ascii	"div\000"
 2897 0e05 01       		.byte	0x1
 2898 0e06 8E       		.byte	0x8e
 2899 0e07 90000000 		.4byte	0x90
 2900 0e0b CE050000 		.4byte	.LLST40
 2901 0e0f 31       		.uleb128 0x31
 2902 0e10 C3540000 		.4byte	.LASF1201
ARM GAS  /var/folders/z0/6xlwn_996xz3mwq1cgzkbq4r0000gp/T//cckgJHwF.s 			page 73


 2903 0e14 01       		.byte	0x1
 2904 0e15 8E       		.byte	0x8e
 2905 0e16 90000000 		.4byte	0x90
 2906 0e1a EC050000 		.4byte	.LLST41
 2907 0e1e 31       		.uleb128 0x31
 2908 0e1f 16550000 		.4byte	.LASF1202
 2909 0e23 01       		.byte	0x1
 2910 0e24 8E       		.byte	0x8e
 2911 0e25 90000000 		.4byte	0x90
 2912 0e29 1D060000 		.4byte	.LLST42
 2913 0e2d 31       		.uleb128 0x31
 2914 0e2e E96A0000 		.4byte	.LASF1203
 2915 0e32 01       		.byte	0x1
 2916 0e33 8E       		.byte	0x8e
 2917 0e34 90000000 		.4byte	0x90
 2918 0e38 4D060000 		.4byte	.LLST43
 2919 0e3c 26       		.uleb128 0x26
 2920 0e3d 9D090000 		.4byte	0x99d
 2921 0e41 12000000 		.4byte	.LBB116
 2922 0e45 C8000000 		.4byte	.Ldebug_ranges0+0xc8
 2923 0e49 01       		.byte	0x1
 2924 0e4a 98       		.byte	0x98
 2925 0e4b 590E0000 		.4byte	0xe59
 2926 0e4f 27       		.uleb128 0x27
 2927 0e50 AA090000 		.4byte	0x9aa
 2928 0e54 6B060000 		.4byte	.LLST44
 2929 0e58 00       		.byte	0
 2930 0e59 28       		.uleb128 0x28
 2931 0e5a 6B090000 		.4byte	0x96b
 2932 0e5e 26000000 		.4byte	.LBB120
 2933 0e62 04000000 		.4byte	.LBE120-.LBB120
 2934 0e66 01       		.byte	0x1
 2935 0e67 99       		.byte	0x99
 2936 0e68 880E0000 		.4byte	0xe88
 2937 0e6c 27       		.uleb128 0x27
 2938 0e6d 90090000 		.4byte	0x990
 2939 0e71 7E060000 		.4byte	.LLST45
 2940 0e75 27       		.uleb128 0x27
 2941 0e76 84090000 		.4byte	0x984
 2942 0e7a A4060000 		.4byte	.LLST46
 2943 0e7e 27       		.uleb128 0x27
 2944 0e7f 78090000 		.4byte	0x978
 2945 0e83 D4060000 		.4byte	.LLST47
 2946 0e87 00       		.byte	0
 2947 0e88 26       		.uleb128 0x26
 2948 0e89 51090000 		.4byte	0x951
 2949 0e8d 2A000000 		.4byte	.LBB122
 2950 0e91 E0000000 		.4byte	.Ldebug_ranges0+0xe0
 2951 0e95 01       		.byte	0x1
 2952 0e96 9A       		.byte	0x9a
 2953 0e97 A50E0000 		.4byte	0xea5
 2954 0e9b 27       		.uleb128 0x27
 2955 0e9c 5E090000 		.4byte	0x95e
 2956 0ea0 E7060000 		.4byte	.LLST48
 2957 0ea4 00       		.byte	0
 2958 0ea5 37       		.uleb128 0x37
 2959 0ea6 0A000000 		.4byte	.LVL65
ARM GAS  /var/folders/z0/6xlwn_996xz3mwq1cgzkbq4r0000gp/T//cckgJHwF.s 			page 74


 2960 0eaa 5E130000 		.4byte	0x135e
 2961 0eae 00       		.byte	0
 2962 0eaf 2C       		.uleb128 0x2c
 2963 0eb0 030A0000 		.4byte	0xa03
 2964 0eb4 00000000 		.4byte	.LFB205
 2965 0eb8 2A000000 		.4byte	.LFE205-.LFB205
 2966 0ebc 01       		.uleb128 0x1
 2967 0ebd 9C       		.byte	0x9c
 2968 0ebe 370F0000 		.4byte	0xf37
 2969 0ec2 27       		.uleb128 0x27
 2970 0ec3 0F0A0000 		.4byte	0xa0f
 2971 0ec7 FA060000 		.4byte	.LLST49
 2972 0ecb 27       		.uleb128 0x27
 2973 0ecc 1A0A0000 		.4byte	0xa1a
 2974 0ed0 26070000 		.4byte	.LLST50
 2975 0ed4 26       		.uleb128 0x26
 2976 0ed5 80080000 		.4byte	0x880
 2977 0ed9 06000000 		.4byte	.LBB126
 2978 0edd F8000000 		.4byte	.Ldebug_ranges0+0xf8
 2979 0ee1 01       		.byte	0x1
 2980 0ee2 A5       		.byte	0xa5
 2981 0ee3 F10E0000 		.4byte	0xef1
 2982 0ee7 27       		.uleb128 0x27
 2983 0ee8 91080000 		.4byte	0x891
 2984 0eec 52070000 		.4byte	.LLST51
 2985 0ef0 00       		.byte	0
 2986 0ef1 38       		.uleb128 0x38
 2987 0ef2 14000000 		.4byte	.LBB129
 2988 0ef6 0C000000 		.4byte	.LBE129-.LBB129
 2989 0efa 39       		.uleb128 0x39
 2990 0efb 260A0000 		.4byte	0xa26
 2991 0eff 02       		.uleb128 0x2
 2992 0f00 91       		.byte	0x91
 2993 0f01 67       		.sleb128 -25
 2994 0f02 28       		.uleb128 0x28
 2995 0f03 EC080000 		.4byte	0x8ec
 2996 0f07 14000000 		.4byte	.LBB130
 2997 0f0b 02000000 		.4byte	.LBE130-.LBB130
 2998 0f0f 01       		.byte	0x1
 2999 0f10 A6       		.byte	0xa6
 3000 0f11 1F0F0000 		.4byte	0xf1f
 3001 0f15 27       		.uleb128 0x27
 3002 0f16 FD080000 		.4byte	0x8fd
 3003 0f1a 70070000 		.4byte	.LLST52
 3004 0f1e 00       		.byte	0
 3005 0f1f 3A       		.uleb128 0x3a
 3006 0f20 20000000 		.4byte	.LVL83
 3007 0f24 6A130000 		.4byte	0x136a
 3008 0f28 3B       		.uleb128 0x3b
 3009 0f29 01       		.uleb128 0x1
 3010 0f2a 50       		.byte	0x50
 3011 0f2b 02       		.uleb128 0x2
 3012 0f2c 77       		.byte	0x77
 3013 0f2d 00       		.sleb128 0
 3014 0f2e 3B       		.uleb128 0x3b
 3015 0f2f 01       		.uleb128 0x1
 3016 0f30 51       		.byte	0x51
ARM GAS  /var/folders/z0/6xlwn_996xz3mwq1cgzkbq4r0000gp/T//cckgJHwF.s 			page 75


 3017 0f31 02       		.uleb128 0x2
 3018 0f32 75       		.byte	0x75
 3019 0f33 00       		.sleb128 0
 3020 0f34 00       		.byte	0
 3021 0f35 00       		.byte	0
 3022 0f36 00       		.byte	0
 3023 0f37 24       		.uleb128 0x24
 3024 0f38 03160000 		.4byte	.LASF1204
 3025 0f3c 01       		.byte	0x1
 3026 0f3d AC       		.byte	0xac
 3027 0f3e 00000000 		.4byte	.LFB206
 3028 0f42 30000000 		.4byte	.LFE206-.LFB206
 3029 0f46 01       		.uleb128 0x1
 3030 0f47 9C       		.byte	0x9c
 3031 0f48 D10F0000 		.4byte	0xfd1
 3032 0f4c 2A       		.uleb128 0x2a
 3033 0f4d 917A0000 		.4byte	.LASF1172
 3034 0f51 01       		.byte	0x1
 3035 0f52 AC       		.byte	0xac
 3036 0f53 E0070000 		.4byte	0x7e0
 3037 0f57 83070000 		.4byte	.LLST53
 3038 0f5b 3C       		.uleb128 0x3c
 3039 0f5c 70524200 		.ascii	"pRB\000"
 3040 0f60 01       		.byte	0x1
 3041 0f61 AC       		.byte	0xac
 3042 0f62 B4070000 		.4byte	0x7b4
 3043 0f66 AF070000 		.4byte	.LLST54
 3044 0f6a 32       		.uleb128 0x32
 3045 0f6b 636800   		.ascii	"ch\000"
 3046 0f6e 01       		.byte	0x1
 3047 0f6f AE       		.byte	0xae
 3048 0f70 85000000 		.4byte	0x85
 3049 0f74 02       		.uleb128 0x2
 3050 0f75 91       		.byte	0x91
 3051 0f76 67       		.sleb128 -25
 3052 0f77 26       		.uleb128 0x26
 3053 0f78 80080000 		.4byte	0x880
 3054 0f7c 06000000 		.4byte	.LBB133
 3055 0f80 10010000 		.4byte	.Ldebug_ranges0+0x110
 3056 0f84 01       		.byte	0x1
 3057 0f85 B1       		.byte	0xb1
 3058 0f86 940F0000 		.4byte	0xf94
 3059 0f8a 27       		.uleb128 0x27
 3060 0f8b 91080000 		.4byte	0x891
 3061 0f8f DB070000 		.4byte	.LLST55
 3062 0f93 00       		.byte	0
 3063 0f94 28       		.uleb128 0x28
 3064 0f95 5A080000 		.4byte	0x85a
 3065 0f99 16000000 		.4byte	.LBB136
 3066 0f9d 04000000 		.4byte	.LBE136-.LBB136
 3067 0fa1 01       		.byte	0x1
 3068 0fa2 B3       		.byte	0xb3
 3069 0fa3 BA0F0000 		.4byte	0xfba
 3070 0fa7 27       		.uleb128 0x27
 3071 0fa8 73080000 		.4byte	0x873
 3072 0fac F9070000 		.4byte	.LLST56
 3073 0fb0 27       		.uleb128 0x27
ARM GAS  /var/folders/z0/6xlwn_996xz3mwq1cgzkbq4r0000gp/T//cckgJHwF.s 			page 76


 3074 0fb1 67080000 		.4byte	0x867
 3075 0fb5 0D080000 		.4byte	.LLST57
 3076 0fb9 00       		.byte	0
 3077 0fba 3A       		.uleb128 0x3a
 3078 0fbb 28000000 		.4byte	.LVL93
 3079 0fbf 75130000 		.4byte	0x1375
 3080 0fc3 3B       		.uleb128 0x3b
 3081 0fc4 01       		.uleb128 0x1
 3082 0fc5 50       		.byte	0x50
 3083 0fc6 02       		.uleb128 0x2
 3084 0fc7 76       		.byte	0x76
 3085 0fc8 00       		.sleb128 0
 3086 0fc9 3B       		.uleb128 0x3b
 3087 0fca 01       		.uleb128 0x1
 3088 0fcb 51       		.byte	0x51
 3089 0fcc 02       		.uleb128 0x2
 3090 0fcd 75       		.byte	0x75
 3091 0fce 00       		.sleb128 0
 3092 0fcf 00       		.byte	0
 3093 0fd0 00       		.byte	0
 3094 0fd1 2F       		.uleb128 0x2f
 3095 0fd2 715C0000 		.4byte	.LASF1205
 3096 0fd6 01       		.byte	0x1
 3097 0fd7 B8       		.byte	0xb8
 3098 0fd8 90000000 		.4byte	0x90
 3099 0fdc 00000000 		.4byte	.LFB207
 3100 0fe0 4A000000 		.4byte	.LFE207-.LFB207
 3101 0fe4 01       		.uleb128 0x1
 3102 0fe5 9C       		.byte	0x9c
 3103 0fe6 EC100000 		.4byte	0x10ec
 3104 0fea 2A       		.uleb128 0x2a
 3105 0feb 917A0000 		.4byte	.LASF1172
 3106 0fef 01       		.byte	0x1
 3107 0ff0 B8       		.byte	0xb8
 3108 0ff1 E0070000 		.4byte	0x7e0
 3109 0ff5 20080000 		.4byte	.LLST58
 3110 0ff9 3C       		.uleb128 0x3c
 3111 0ffa 70524200 		.ascii	"pRB\000"
 3112 0ffe 01       		.byte	0x1
 3113 0fff B8       		.byte	0xb8
 3114 1000 B4070000 		.4byte	0x7b4
 3115 1004 4C080000 		.4byte	.LLST59
 3116 1008 2A       		.uleb128 0x2a
 3117 1009 2B7A0000 		.4byte	.LASF1154
 3118 100d 01       		.byte	0x1
 3119 100e B8       		.byte	0xb8
 3120 100f E5080000 		.4byte	0x8e5
 3121 1013 78080000 		.4byte	.LLST60
 3122 1017 2A       		.uleb128 0x2a
 3123 1018 C1210000 		.4byte	.LASF1206
 3124 101c 01       		.byte	0x1
 3125 101d B8       		.byte	0xb8
 3126 101e 7E000000 		.4byte	0x7e
 3127 1022 A4080000 		.4byte	.LLST61
 3128 1026 36       		.uleb128 0x36
 3129 1027 72657400 		.ascii	"ret\000"
 3130 102b 01       		.byte	0x1
ARM GAS  /var/folders/z0/6xlwn_996xz3mwq1cgzkbq4r0000gp/T//cckgJHwF.s 			page 77


 3131 102c BA       		.byte	0xba
 3132 102d 90000000 		.4byte	0x90
 3133 1031 D0080000 		.4byte	.LLST62
 3134 1035 36       		.uleb128 0x36
 3135 1036 703800   		.ascii	"p8\000"
 3136 1039 01       		.byte	0x1
 3137 103a BB       		.byte	0xbb
 3138 103b 92070000 		.4byte	0x792
 3139 103f 09090000 		.4byte	.LLST63
 3140 1043 26       		.uleb128 0x26
 3141 1044 DD090000 		.4byte	0x9dd
 3142 1048 06000000 		.4byte	.LBB139
 3143 104c 28010000 		.4byte	.Ldebug_ranges0+0x128
 3144 1050 01       		.byte	0x1
 3145 1051 BE       		.byte	0xbe
 3146 1052 69100000 		.4byte	0x1069
 3147 1056 27       		.uleb128 0x27
 3148 1057 F6090000 		.4byte	0x9f6
 3149 105b 35090000 		.4byte	.LLST64
 3150 105f 27       		.uleb128 0x27
 3151 1060 EA090000 		.4byte	0x9ea
 3152 1064 49090000 		.4byte	.LLST65
 3153 1068 00       		.byte	0
 3154 1069 26       		.uleb128 0x26
 3155 106a B7090000 		.4byte	0x9b7
 3156 106e 3A000000 		.4byte	.LBB147
 3157 1072 50010000 		.4byte	.Ldebug_ranges0+0x150
 3158 1076 01       		.byte	0x1
 3159 1077 C8       		.byte	0xc8
 3160 1078 8F100000 		.4byte	0x108f
 3161 107c 27       		.uleb128 0x27
 3162 107d D0090000 		.4byte	0x9d0
 3163 1081 5C090000 		.4byte	.LLST66
 3164 1085 27       		.uleb128 0x27
 3165 1086 C4090000 		.4byte	0x9c4
 3166 108a 70090000 		.4byte	.LLST67
 3167 108e 00       		.byte	0
 3168 108f 3D       		.uleb128 0x3d
 3169 1090 22000000 		.4byte	.LVL103
 3170 1094 80130000 		.4byte	0x1380
 3171 1098 AF100000 		.4byte	0x10af
 3172 109c 3B       		.uleb128 0x3b
 3173 109d 01       		.uleb128 0x1
 3174 109e 50       		.byte	0x50
 3175 109f 02       		.uleb128 0x2
 3176 10a0 79       		.byte	0x79
 3177 10a1 00       		.sleb128 0
 3178 10a2 3B       		.uleb128 0x3b
 3179 10a3 01       		.uleb128 0x1
 3180 10a4 51       		.byte	0x51
 3181 10a5 02       		.uleb128 0x2
 3182 10a6 76       		.byte	0x76
 3183 10a7 00       		.sleb128 0
 3184 10a8 3B       		.uleb128 0x3b
 3185 10a9 01       		.uleb128 0x1
 3186 10aa 52       		.byte	0x52
 3187 10ab 02       		.uleb128 0x2
ARM GAS  /var/folders/z0/6xlwn_996xz3mwq1cgzkbq4r0000gp/T//cckgJHwF.s 			page 78


 3188 10ac 77       		.byte	0x77
 3189 10ad 00       		.sleb128 0
 3190 10ae 00       		.byte	0
 3191 10af 3D       		.uleb128 0x3d
 3192 10b0 2C000000 		.4byte	.LVL106
 3193 10b4 370F0000 		.4byte	0xf37
 3194 10b8 C9100000 		.4byte	0x10c9
 3195 10bc 3B       		.uleb128 0x3b
 3196 10bd 01       		.uleb128 0x1
 3197 10be 50       		.byte	0x50
 3198 10bf 02       		.uleb128 0x2
 3199 10c0 74       		.byte	0x74
 3200 10c1 00       		.sleb128 0
 3201 10c2 3B       		.uleb128 0x3b
 3202 10c3 01       		.uleb128 0x1
 3203 10c4 51       		.byte	0x51
 3204 10c5 02       		.uleb128 0x2
 3205 10c6 79       		.byte	0x79
 3206 10c7 00       		.sleb128 0
 3207 10c8 00       		.byte	0
 3208 10c9 3A       		.uleb128 0x3a
 3209 10ca 3A000000 		.4byte	.LVL107
 3210 10ce 80130000 		.4byte	0x1380
 3211 10d2 3B       		.uleb128 0x3b
 3212 10d3 01       		.uleb128 0x1
 3213 10d4 50       		.byte	0x50
 3214 10d5 02       		.uleb128 0x2
 3215 10d6 79       		.byte	0x79
 3216 10d7 00       		.sleb128 0
 3217 10d8 3B       		.uleb128 0x3b
 3218 10d9 01       		.uleb128 0x1
 3219 10da 51       		.byte	0x51
 3220 10db 05       		.uleb128 0x5
 3221 10dc 76       		.byte	0x76
 3222 10dd 00       		.sleb128 0
 3223 10de 78       		.byte	0x78
 3224 10df 00       		.sleb128 0
 3225 10e0 22       		.byte	0x22
 3226 10e1 3B       		.uleb128 0x3b
 3227 10e2 01       		.uleb128 0x1
 3228 10e3 52       		.byte	0x52
 3229 10e4 05       		.uleb128 0x5
 3230 10e5 77       		.byte	0x77
 3231 10e6 00       		.sleb128 0
 3232 10e7 78       		.byte	0x78
 3233 10e8 00       		.sleb128 0
 3234 10e9 1C       		.byte	0x1c
 3235 10ea 00       		.byte	0
 3236 10eb 00       		.byte	0
 3237 10ec 2F       		.uleb128 0x2f
 3238 10ed 32770000 		.4byte	.LASF1207
 3239 10f1 01       		.byte	0x1
 3240 10f2 CE       		.byte	0xce
 3241 10f3 7E000000 		.4byte	0x7e
 3242 10f7 00000000 		.4byte	.LFB208
 3243 10fb 0E000000 		.4byte	.LFE208-.LFB208
 3244 10ff 01       		.uleb128 0x1
ARM GAS  /var/folders/z0/6xlwn_996xz3mwq1cgzkbq4r0000gp/T//cckgJHwF.s 			page 79


 3245 1100 9C       		.byte	0x9c
 3246 1101 61110000 		.4byte	0x1161
 3247 1105 2A       		.uleb128 0x2a
 3248 1106 917A0000 		.4byte	.LASF1172
 3249 110a 01       		.byte	0x1
 3250 110b CE       		.byte	0xce
 3251 110c E0070000 		.4byte	0x7e0
 3252 1110 83090000 		.4byte	.LLST68
 3253 1114 3C       		.uleb128 0x3c
 3254 1115 70524200 		.ascii	"pRB\000"
 3255 1119 01       		.byte	0x1
 3256 111a CE       		.byte	0xce
 3257 111b B4070000 		.4byte	0x7b4
 3258 111f A4090000 		.4byte	.LLST69
 3259 1123 2A       		.uleb128 0x2a
 3260 1124 2B7A0000 		.4byte	.LASF1154
 3261 1128 01       		.byte	0x1
 3262 1129 CE       		.byte	0xce
 3263 112a CB050000 		.4byte	0x5cb
 3264 112e D0090000 		.4byte	.LLST70
 3265 1132 2A       		.uleb128 0x2a
 3266 1133 C1210000 		.4byte	.LASF1206
 3267 1137 01       		.byte	0x1
 3268 1138 CE       		.byte	0xce
 3269 1139 7E000000 		.4byte	0x7e
 3270 113d FC090000 		.4byte	.LLST71
 3271 1141 3A       		.uleb128 0x3a
 3272 1142 0C000000 		.4byte	.LVL118
 3273 1146 8B130000 		.4byte	0x138b
 3274 114a 3B       		.uleb128 0x3b
 3275 114b 01       		.uleb128 0x1
 3276 114c 50       		.byte	0x50
 3277 114d 03       		.uleb128 0x3
 3278 114e F3       		.byte	0xf3
 3279 114f 01       		.uleb128 0x1
 3280 1150 51       		.byte	0x51
 3281 1151 3B       		.uleb128 0x3b
 3282 1152 01       		.uleb128 0x1
 3283 1153 51       		.byte	0x51
 3284 1154 03       		.uleb128 0x3
 3285 1155 F3       		.byte	0xf3
 3286 1156 01       		.uleb128 0x1
 3287 1157 52       		.byte	0x52
 3288 1158 3B       		.uleb128 0x3b
 3289 1159 01       		.uleb128 0x1
 3290 115a 52       		.byte	0x52
 3291 115b 03       		.uleb128 0x3
 3292 115c F3       		.byte	0xf3
 3293 115d 01       		.uleb128 0x1
 3294 115e 53       		.byte	0x53
 3295 115f 00       		.byte	0
 3296 1160 00       		.byte	0
 3297 1161 24       		.uleb128 0x24
 3298 1162 22030000 		.4byte	.LASF1208
 3299 1166 01       		.byte	0x1
 3300 1167 D6       		.byte	0xd6
 3301 1168 00000000 		.4byte	.LFB209
ARM GAS  /var/folders/z0/6xlwn_996xz3mwq1cgzkbq4r0000gp/T//cckgJHwF.s 			page 80


 3302 116c 4A000000 		.4byte	.LFE209-.LFB209
 3303 1170 01       		.uleb128 0x1
 3304 1171 9C       		.byte	0x9c
 3305 1172 55120000 		.4byte	0x1255
 3306 1176 2A       		.uleb128 0x2a
 3307 1177 917A0000 		.4byte	.LASF1172
 3308 117b 01       		.byte	0x1
 3309 117c D6       		.byte	0xd6
 3310 117d E0070000 		.4byte	0x7e0
 3311 1181 1D0A0000 		.4byte	.LLST72
 3312 1185 2A       		.uleb128 0x2a
 3313 1186 D00B0000 		.4byte	.LASF1209
 3314 118a 01       		.byte	0x1
 3315 118b D6       		.byte	0xd6
 3316 118c B4070000 		.4byte	0x7b4
 3317 1190 5F0A0000 		.4byte	.LLST73
 3318 1194 2A       		.uleb128 0x2a
 3319 1195 AF0D0000 		.4byte	.LASF1210
 3320 1199 01       		.byte	0x1
 3321 119a D6       		.byte	0xd6
 3322 119b B4070000 		.4byte	0x7b4
 3323 119f A10A0000 		.4byte	.LLST74
 3324 11a3 28       		.uleb128 0x28
 3325 11a4 030A0000 		.4byte	0xa03
 3326 11a8 14000000 		.4byte	.LBB151
 3327 11ac 1C000000 		.4byte	.LBE151-.LBB151
 3328 11b0 01       		.byte	0x1
 3329 11b1 E3       		.byte	0xe3
 3330 11b2 23120000 		.4byte	0x1223
 3331 11b6 33       		.uleb128 0x33
 3332 11b7 1A0A0000 		.4byte	0xa1a
 3333 11bb 33       		.uleb128 0x33
 3334 11bc 0F0A0000 		.4byte	0xa0f
 3335 11c0 26       		.uleb128 0x26
 3336 11c1 80080000 		.4byte	0x880
 3337 11c5 14000000 		.4byte	.LBB153
 3338 11c9 68010000 		.4byte	.Ldebug_ranges0+0x168
 3339 11cd 01       		.byte	0x1
 3340 11ce A5       		.byte	0xa5
 3341 11cf DD110000 		.4byte	0x11dd
 3342 11d3 27       		.uleb128 0x27
 3343 11d4 91080000 		.4byte	0x891
 3344 11d8 E30A0000 		.4byte	.LLST75
 3345 11dc 00       		.byte	0
 3346 11dd 38       		.uleb128 0x38
 3347 11de 1E000000 		.4byte	.LBB156
 3348 11e2 0C000000 		.4byte	.LBE156-.LBB156
 3349 11e6 39       		.uleb128 0x39
 3350 11e7 260A0000 		.4byte	0xa26
 3351 11eb 02       		.uleb128 0x2
 3352 11ec 91       		.byte	0x91
 3353 11ed 67       		.sleb128 -25
 3354 11ee 28       		.uleb128 0x28
 3355 11ef EC080000 		.4byte	0x8ec
 3356 11f3 1E000000 		.4byte	.LBB157
 3357 11f7 02000000 		.4byte	.LBE157-.LBB157
 3358 11fb 01       		.byte	0x1
ARM GAS  /var/folders/z0/6xlwn_996xz3mwq1cgzkbq4r0000gp/T//cckgJHwF.s 			page 81


 3359 11fc A6       		.byte	0xa6
 3360 11fd 0B120000 		.4byte	0x120b
 3361 1201 27       		.uleb128 0x27
 3362 1202 FD080000 		.4byte	0x8fd
 3363 1206 010B0000 		.4byte	.LLST76
 3364 120a 00       		.byte	0
 3365 120b 3A       		.uleb128 0x3a
 3366 120c 2A000000 		.4byte	.LVL125
 3367 1210 6A130000 		.4byte	0x136a
 3368 1214 3B       		.uleb128 0x3b
 3369 1215 01       		.uleb128 0x1
 3370 1216 50       		.byte	0x50
 3371 1217 02       		.uleb128 0x2
 3372 1218 77       		.byte	0x77
 3373 1219 00       		.sleb128 0
 3374 121a 3B       		.uleb128 0x3b
 3375 121b 01       		.uleb128 0x1
 3376 121c 51       		.byte	0x51
 3377 121d 02       		.uleb128 0x2
 3378 121e 75       		.byte	0x75
 3379 121f 00       		.sleb128 0
 3380 1220 00       		.byte	0
 3381 1221 00       		.byte	0
 3382 1222 00       		.byte	0
 3383 1223 28       		.uleb128 0x28
 3384 1224 DD090000 		.4byte	0x9dd
 3385 1228 42000000 		.4byte	.LBB160
 3386 122c 08000000 		.4byte	.LBE160-.LBB160
 3387 1230 01       		.byte	0x1
 3388 1231 DE       		.byte	0xde
 3389 1232 44120000 		.4byte	0x1244
 3390 1236 3E       		.uleb128 0x3e
 3391 1237 F6090000 		.4byte	0x9f6
 3392 123b 02       		.byte	0x2
 3393 123c 2D       		.uleb128 0x2d
 3394 123d EA090000 		.4byte	0x9ea
 3395 1241 01       		.uleb128 0x1
 3396 1242 54       		.byte	0x54
 3397 1243 00       		.byte	0
 3398 1244 3A       		.uleb128 0x3a
 3399 1245 3A000000 		.4byte	.LVL131
 3400 1249 370F0000 		.4byte	0xf37
 3401 124d 3B       		.uleb128 0x3b
 3402 124e 01       		.uleb128 0x1
 3403 124f 51       		.byte	0x51
 3404 1250 02       		.uleb128 0x2
 3405 1251 76       		.byte	0x76
 3406 1252 00       		.sleb128 0
 3407 1253 00       		.byte	0
 3408 1254 00       		.byte	0
 3409 1255 35       		.uleb128 0x35
 3410 1256 831B0000 		.4byte	.LASF1211
 3411 125a 01       		.byte	0x1
 3412 125b E7       		.byte	0xe7
 3413 125c 90000000 		.4byte	0x90
 3414 1260 00000000 		.4byte	.LFB210
 3415 1264 9C000000 		.4byte	.LFE210-.LFB210
ARM GAS  /var/folders/z0/6xlwn_996xz3mwq1cgzkbq4r0000gp/T//cckgJHwF.s 			page 82


 3416 1268 01       		.uleb128 0x1
 3417 1269 9C       		.byte	0x9c
 3418 126a 53130000 		.4byte	0x1353
 3419 126e 2A       		.uleb128 0x2a
 3420 126f 917A0000 		.4byte	.LASF1172
 3421 1273 01       		.byte	0x1
 3422 1274 E7       		.byte	0xe7
 3423 1275 E0070000 		.4byte	0x7e0
 3424 1279 140B0000 		.4byte	.LLST77
 3425 127d 2A       		.uleb128 0x2a
 3426 127e 6D6C0000 		.4byte	.LASF1200
 3427 1282 01       		.byte	0x1
 3428 1283 E7       		.byte	0xe7
 3429 1284 90000000 		.4byte	0x90
 3430 1288 4B0B0000 		.4byte	.LLST78
 3431 128c 31       		.uleb128 0x31
 3432 128d 164B0000 		.4byte	.LASF1212
 3433 1291 01       		.byte	0x1
 3434 1292 EA       		.byte	0xea
 3435 1293 90000000 		.4byte	0x90
 3436 1297 6C0B0000 		.4byte	.LLST79
 3437 129b 31       		.uleb128 0x31
 3438 129c 714C0000 		.4byte	.LASF1213
 3439 12a0 01       		.byte	0x1
 3440 12a1 EB       		.byte	0xeb
 3441 12a2 90000000 		.4byte	0x90
 3442 12a6 950B0000 		.4byte	.LLST80
 3443 12aa 31       		.uleb128 0x31
 3444 12ab F2110000 		.4byte	.LASF1214
 3445 12af 01       		.byte	0x1
 3446 12b0 EC       		.byte	0xec
 3447 12b1 90000000 		.4byte	0x90
 3448 12b5 BF0B0000 		.4byte	.LLST81
 3449 12b9 1F       		.uleb128 0x1f
 3450 12ba 646C00   		.ascii	"dl\000"
 3451 12bd 01       		.byte	0x1
 3452 12be ED       		.byte	0xed
 3453 12bf 90000000 		.4byte	0x90
 3454 12c3 31       		.uleb128 0x31
 3455 12c4 CF080000 		.4byte	.LASF1215
 3456 12c8 01       		.byte	0x1
 3457 12c9 EE       		.byte	0xee
 3458 12ca 90000000 		.4byte	0x90
 3459 12ce F50B0000 		.4byte	.LLST82
 3460 12d2 31       		.uleb128 0x31
 3461 12d3 A40D0000 		.4byte	.LASF1216
 3462 12d7 01       		.byte	0x1
 3463 12d8 EF       		.byte	0xef
 3464 12d9 90000000 		.4byte	0x90
 3465 12dd 330C0000 		.4byte	.LLST83
 3466 12e1 3F       		.uleb128 0x3f
 3467 12e2 9D090000 		.4byte	0x99d
 3468 12e6 58000000 		.4byte	.LBB162
 3469 12ea 80010000 		.4byte	.Ldebug_ranges0+0x180
 3470 12ee 01       		.byte	0x1
 3471 12ef 1101     		.2byte	0x111
 3472 12f1 FF120000 		.4byte	0x12ff
ARM GAS  /var/folders/z0/6xlwn_996xz3mwq1cgzkbq4r0000gp/T//cckgJHwF.s 			page 83


 3473 12f5 27       		.uleb128 0x27
 3474 12f6 AA090000 		.4byte	0x9aa
 3475 12fa 6E0C0000 		.4byte	.LLST84
 3476 12fe 00       		.byte	0
 3477 12ff 40       		.uleb128 0x40
 3478 1300 6B090000 		.4byte	0x96b
 3479 1304 66000000 		.4byte	.LBB166
 3480 1308 08000000 		.4byte	.LBE166-.LBB166
 3481 130c 01       		.byte	0x1
 3482 130d 1201     		.2byte	0x112
 3483 130f 2B130000 		.4byte	0x132b
 3484 1313 27       		.uleb128 0x27
 3485 1314 90090000 		.4byte	0x990
 3486 1318 810C0000 		.4byte	.LLST85
 3487 131c 33       		.uleb128 0x33
 3488 131d 84090000 		.4byte	0x984
 3489 1321 27       		.uleb128 0x27
 3490 1322 78090000 		.4byte	0x978
 3491 1326 980C0000 		.4byte	.LLST86
 3492 132a 00       		.byte	0
 3493 132b 3F       		.uleb128 0x3f
 3494 132c 51090000 		.4byte	0x951
 3495 1330 6E000000 		.4byte	.LBB168
 3496 1334 98010000 		.4byte	.Ldebug_ranges0+0x198
 3497 1338 01       		.byte	0x1
 3498 1339 1301     		.2byte	0x113
 3499 133b 49130000 		.4byte	0x1349
 3500 133f 27       		.uleb128 0x27
 3501 1340 5E090000 		.4byte	0x95e
 3502 1344 AB0C0000 		.4byte	.LLST87
 3503 1348 00       		.byte	0
 3504 1349 37       		.uleb128 0x37
 3505 134a 10000000 		.4byte	.LVL135
 3506 134e 5E130000 		.4byte	0x135e
 3507 1352 00       		.byte	0
 3508 1353 41       		.uleb128 0x41
 3509 1354 96550000 		.4byte	.LASF1227
 3510 1358 08       		.byte	0x8
 3511 1359 D4       		.byte	0xd4
 3512 135a 8D070000 		.4byte	0x78d
 3513 135e 42       		.uleb128 0x42
 3514 135f 9B410000 		.4byte	.LASF1217
 3515 1363 9B410000 		.4byte	.LASF1217
 3516 1367 02       		.byte	0x2
 3517 1368 1302     		.2byte	0x213
 3518 136a 43       		.uleb128 0x43
 3519 136b 3C250000 		.4byte	.LASF1218
 3520 136f 3C250000 		.4byte	.LASF1218
 3521 1373 07       		.byte	0x7
 3522 1374 95       		.byte	0x95
 3523 1375 43       		.uleb128 0x43
 3524 1376 43600000 		.4byte	.LASF1219
 3525 137a 43600000 		.4byte	.LASF1219
 3526 137e 07       		.byte	0x7
 3527 137f AC       		.byte	0xac
 3528 1380 43       		.uleb128 0x43
 3529 1381 E6340000 		.4byte	.LASF1220
ARM GAS  /var/folders/z0/6xlwn_996xz3mwq1cgzkbq4r0000gp/T//cckgJHwF.s 			page 84


 3530 1385 E6340000 		.4byte	.LASF1220
 3531 1389 07       		.byte	0x7
 3532 138a A1       		.byte	0xa1
 3533 138b 43       		.uleb128 0x43
 3534 138c F10C0000 		.4byte	.LASF1221
 3535 1390 F10C0000 		.4byte	.LASF1221
 3536 1394 07       		.byte	0x7
 3537 1395 B7       		.byte	0xb7
 3538 1396 00       		.byte	0
 3539              		.section	.debug_abbrev,"",%progbits
 3540              	.Ldebug_abbrev0:
 3541 0000 01       		.uleb128 0x1
 3542 0001 11       		.uleb128 0x11
 3543 0002 01       		.byte	0x1
 3544 0003 25       		.uleb128 0x25
 3545 0004 0E       		.uleb128 0xe
 3546 0005 13       		.uleb128 0x13
 3547 0006 0B       		.uleb128 0xb
 3548 0007 03       		.uleb128 0x3
 3549 0008 0E       		.uleb128 0xe
 3550 0009 1B       		.uleb128 0x1b
 3551 000a 0E       		.uleb128 0xe
 3552 000b 55       		.uleb128 0x55
 3553 000c 17       		.uleb128 0x17
 3554 000d 11       		.uleb128 0x11
 3555 000e 01       		.uleb128 0x1
 3556 000f 10       		.uleb128 0x10
 3557 0010 17       		.uleb128 0x17
 3558 0011 9942     		.uleb128 0x2119
 3559 0013 17       		.uleb128 0x17
 3560 0014 00       		.byte	0
 3561 0015 00       		.byte	0
 3562 0016 02       		.uleb128 0x2
 3563 0017 24       		.uleb128 0x24
 3564 0018 00       		.byte	0
 3565 0019 0B       		.uleb128 0xb
 3566 001a 0B       		.uleb128 0xb
 3567 001b 3E       		.uleb128 0x3e
 3568 001c 0B       		.uleb128 0xb
 3569 001d 03       		.uleb128 0x3
 3570 001e 0E       		.uleb128 0xe
 3571 001f 00       		.byte	0
 3572 0020 00       		.byte	0
 3573 0021 03       		.uleb128 0x3
 3574 0022 16       		.uleb128 0x16
 3575 0023 00       		.byte	0
 3576 0024 03       		.uleb128 0x3
 3577 0025 0E       		.uleb128 0xe
 3578 0026 3A       		.uleb128 0x3a
 3579 0027 0B       		.uleb128 0xb
 3580 0028 3B       		.uleb128 0x3b
 3581 0029 0B       		.uleb128 0xb
 3582 002a 49       		.uleb128 0x49
 3583 002b 13       		.uleb128 0x13
 3584 002c 00       		.byte	0
 3585 002d 00       		.byte	0
 3586 002e 04       		.uleb128 0x4
ARM GAS  /var/folders/z0/6xlwn_996xz3mwq1cgzkbq4r0000gp/T//cckgJHwF.s 			page 85


 3587 002f 24       		.uleb128 0x24
 3588 0030 00       		.byte	0
 3589 0031 0B       		.uleb128 0xb
 3590 0032 0B       		.uleb128 0xb
 3591 0033 3E       		.uleb128 0x3e
 3592 0034 0B       		.uleb128 0xb
 3593 0035 03       		.uleb128 0x3
 3594 0036 08       		.uleb128 0x8
 3595 0037 00       		.byte	0
 3596 0038 00       		.byte	0
 3597 0039 05       		.uleb128 0x5
 3598 003a 35       		.uleb128 0x35
 3599 003b 00       		.byte	0
 3600 003c 49       		.uleb128 0x49
 3601 003d 13       		.uleb128 0x13
 3602 003e 00       		.byte	0
 3603 003f 00       		.byte	0
 3604 0040 06       		.uleb128 0x6
 3605 0041 01       		.uleb128 0x1
 3606 0042 01       		.byte	0x1
 3607 0043 49       		.uleb128 0x49
 3608 0044 13       		.uleb128 0x13
 3609 0045 01       		.uleb128 0x1
 3610 0046 13       		.uleb128 0x13
 3611 0047 00       		.byte	0
 3612 0048 00       		.byte	0
 3613 0049 07       		.uleb128 0x7
 3614 004a 21       		.uleb128 0x21
 3615 004b 00       		.byte	0
 3616 004c 49       		.uleb128 0x49
 3617 004d 13       		.uleb128 0x13
 3618 004e 2F       		.uleb128 0x2f
 3619 004f 0B       		.uleb128 0xb
 3620 0050 00       		.byte	0
 3621 0051 00       		.byte	0
 3622 0052 08       		.uleb128 0x8
 3623 0053 26       		.uleb128 0x26
 3624 0054 00       		.byte	0
 3625 0055 49       		.uleb128 0x49
 3626 0056 13       		.uleb128 0x13
 3627 0057 00       		.byte	0
 3628 0058 00       		.byte	0
 3629 0059 09       		.uleb128 0x9
 3630 005a 13       		.uleb128 0x13
 3631 005b 01       		.byte	0x1
 3632 005c 0B       		.uleb128 0xb
 3633 005d 05       		.uleb128 0x5
 3634 005e 3A       		.uleb128 0x3a
 3635 005f 0B       		.uleb128 0xb
 3636 0060 3B       		.uleb128 0x3b
 3637 0061 0B       		.uleb128 0xb
 3638 0062 01       		.uleb128 0x1
 3639 0063 13       		.uleb128 0x13
 3640 0064 00       		.byte	0
 3641 0065 00       		.byte	0
 3642 0066 0A       		.uleb128 0xa
 3643 0067 0D       		.uleb128 0xd
ARM GAS  /var/folders/z0/6xlwn_996xz3mwq1cgzkbq4r0000gp/T//cckgJHwF.s 			page 86


 3644 0068 00       		.byte	0
 3645 0069 03       		.uleb128 0x3
 3646 006a 0E       		.uleb128 0xe
 3647 006b 3A       		.uleb128 0x3a
 3648 006c 0B       		.uleb128 0xb
 3649 006d 3B       		.uleb128 0x3b
 3650 006e 0B       		.uleb128 0xb
 3651 006f 49       		.uleb128 0x49
 3652 0070 13       		.uleb128 0x13
 3653 0071 38       		.uleb128 0x38
 3654 0072 0B       		.uleb128 0xb
 3655 0073 00       		.byte	0
 3656 0074 00       		.byte	0
 3657 0075 0B       		.uleb128 0xb
 3658 0076 0D       		.uleb128 0xd
 3659 0077 00       		.byte	0
 3660 0078 03       		.uleb128 0x3
 3661 0079 0E       		.uleb128 0xe
 3662 007a 3A       		.uleb128 0x3a
 3663 007b 0B       		.uleb128 0xb
 3664 007c 3B       		.uleb128 0x3b
 3665 007d 0B       		.uleb128 0xb
 3666 007e 49       		.uleb128 0x49
 3667 007f 13       		.uleb128 0x13
 3668 0080 38       		.uleb128 0x38
 3669 0081 05       		.uleb128 0x5
 3670 0082 00       		.byte	0
 3671 0083 00       		.byte	0
 3672 0084 0C       		.uleb128 0xc
 3673 0085 04       		.uleb128 0x4
 3674 0086 01       		.byte	0x1
 3675 0087 03       		.uleb128 0x3
 3676 0088 0E       		.uleb128 0xe
 3677 0089 0B       		.uleb128 0xb
 3678 008a 0B       		.uleb128 0xb
 3679 008b 49       		.uleb128 0x49
 3680 008c 13       		.uleb128 0x13
 3681 008d 3A       		.uleb128 0x3a
 3682 008e 0B       		.uleb128 0xb
 3683 008f 3B       		.uleb128 0x3b
 3684 0090 0B       		.uleb128 0xb
 3685 0091 01       		.uleb128 0x1
 3686 0092 13       		.uleb128 0x13
 3687 0093 00       		.byte	0
 3688 0094 00       		.byte	0
 3689 0095 0D       		.uleb128 0xd
 3690 0096 28       		.uleb128 0x28
 3691 0097 00       		.byte	0
 3692 0098 03       		.uleb128 0x3
 3693 0099 0E       		.uleb128 0xe
 3694 009a 1C       		.uleb128 0x1c
 3695 009b 0B       		.uleb128 0xb
 3696 009c 00       		.byte	0
 3697 009d 00       		.byte	0
 3698 009e 0E       		.uleb128 0xe
 3699 009f 16       		.uleb128 0x16
 3700 00a0 00       		.byte	0
ARM GAS  /var/folders/z0/6xlwn_996xz3mwq1cgzkbq4r0000gp/T//cckgJHwF.s 			page 87


 3701 00a1 03       		.uleb128 0x3
 3702 00a2 0E       		.uleb128 0xe
 3703 00a3 3A       		.uleb128 0x3a
 3704 00a4 0B       		.uleb128 0xb
 3705 00a5 3B       		.uleb128 0x3b
 3706 00a6 05       		.uleb128 0x5
 3707 00a7 49       		.uleb128 0x49
 3708 00a8 13       		.uleb128 0x13
 3709 00a9 00       		.byte	0
 3710 00aa 00       		.byte	0
 3711 00ab 0F       		.uleb128 0xf
 3712 00ac 13       		.uleb128 0x13
 3713 00ad 01       		.byte	0x1
 3714 00ae 0B       		.uleb128 0xb
 3715 00af 0B       		.uleb128 0xb
 3716 00b0 3A       		.uleb128 0x3a
 3717 00b1 0B       		.uleb128 0xb
 3718 00b2 3B       		.uleb128 0x3b
 3719 00b3 0B       		.uleb128 0xb
 3720 00b4 01       		.uleb128 0x1
 3721 00b5 13       		.uleb128 0x13
 3722 00b6 00       		.byte	0
 3723 00b7 00       		.byte	0
 3724 00b8 10       		.uleb128 0x10
 3725 00b9 0F       		.uleb128 0xf
 3726 00ba 00       		.byte	0
 3727 00bb 0B       		.uleb128 0xb
 3728 00bc 0B       		.uleb128 0xb
 3729 00bd 00       		.byte	0
 3730 00be 00       		.byte	0
 3731 00bf 11       		.uleb128 0x11
 3732 00c0 17       		.uleb128 0x17
 3733 00c1 01       		.byte	0x1
 3734 00c2 0B       		.uleb128 0xb
 3735 00c3 0B       		.uleb128 0xb
 3736 00c4 3A       		.uleb128 0x3a
 3737 00c5 0B       		.uleb128 0xb
 3738 00c6 3B       		.uleb128 0x3b
 3739 00c7 0B       		.uleb128 0xb
 3740 00c8 01       		.uleb128 0x1
 3741 00c9 13       		.uleb128 0x13
 3742 00ca 00       		.byte	0
 3743 00cb 00       		.byte	0
 3744 00cc 12       		.uleb128 0x12
 3745 00cd 0D       		.uleb128 0xd
 3746 00ce 00       		.byte	0
 3747 00cf 03       		.uleb128 0x3
 3748 00d0 08       		.uleb128 0x8
 3749 00d1 3A       		.uleb128 0x3a
 3750 00d2 0B       		.uleb128 0xb
 3751 00d3 3B       		.uleb128 0x3b
 3752 00d4 0B       		.uleb128 0xb
 3753 00d5 49       		.uleb128 0x49
 3754 00d6 13       		.uleb128 0x13
 3755 00d7 00       		.byte	0
 3756 00d8 00       		.byte	0
 3757 00d9 13       		.uleb128 0x13
ARM GAS  /var/folders/z0/6xlwn_996xz3mwq1cgzkbq4r0000gp/T//cckgJHwF.s 			page 88


 3758 00da 0D       		.uleb128 0xd
 3759 00db 00       		.byte	0
 3760 00dc 03       		.uleb128 0x3
 3761 00dd 0E       		.uleb128 0xe
 3762 00de 3A       		.uleb128 0x3a
 3763 00df 0B       		.uleb128 0xb
 3764 00e0 3B       		.uleb128 0x3b
 3765 00e1 0B       		.uleb128 0xb
 3766 00e2 49       		.uleb128 0x49
 3767 00e3 13       		.uleb128 0x13
 3768 00e4 00       		.byte	0
 3769 00e5 00       		.byte	0
 3770 00e6 14       		.uleb128 0x14
 3771 00e7 0D       		.uleb128 0xd
 3772 00e8 00       		.byte	0
 3773 00e9 49       		.uleb128 0x49
 3774 00ea 13       		.uleb128 0x13
 3775 00eb 38       		.uleb128 0x38
 3776 00ec 0B       		.uleb128 0xb
 3777 00ed 00       		.byte	0
 3778 00ee 00       		.byte	0
 3779 00ef 15       		.uleb128 0x15
 3780 00f0 0D       		.uleb128 0xd
 3781 00f1 00       		.byte	0
 3782 00f2 03       		.uleb128 0x3
 3783 00f3 08       		.uleb128 0x8
 3784 00f4 3A       		.uleb128 0x3a
 3785 00f5 0B       		.uleb128 0xb
 3786 00f6 3B       		.uleb128 0x3b
 3787 00f7 0B       		.uleb128 0xb
 3788 00f8 49       		.uleb128 0x49
 3789 00f9 13       		.uleb128 0x13
 3790 00fa 38       		.uleb128 0x38
 3791 00fb 0B       		.uleb128 0xb
 3792 00fc 00       		.byte	0
 3793 00fd 00       		.byte	0
 3794 00fe 16       		.uleb128 0x16
 3795 00ff 0F       		.uleb128 0xf
 3796 0100 00       		.byte	0
 3797 0101 0B       		.uleb128 0xb
 3798 0102 0B       		.uleb128 0xb
 3799 0103 49       		.uleb128 0x49
 3800 0104 13       		.uleb128 0x13
 3801 0105 00       		.byte	0
 3802 0106 00       		.byte	0
 3803 0107 17       		.uleb128 0x17
 3804 0108 2E       		.uleb128 0x2e
 3805 0109 01       		.byte	0x1
 3806 010a 03       		.uleb128 0x3
 3807 010b 0E       		.uleb128 0xe
 3808 010c 3A       		.uleb128 0x3a
 3809 010d 0B       		.uleb128 0xb
 3810 010e 3B       		.uleb128 0x3b
 3811 010f 0B       		.uleb128 0xb
 3812 0110 27       		.uleb128 0x27
 3813 0111 19       		.uleb128 0x19
 3814 0112 49       		.uleb128 0x49
ARM GAS  /var/folders/z0/6xlwn_996xz3mwq1cgzkbq4r0000gp/T//cckgJHwF.s 			page 89


 3815 0113 13       		.uleb128 0x13
 3816 0114 20       		.uleb128 0x20
 3817 0115 0B       		.uleb128 0xb
 3818 0116 01       		.uleb128 0x1
 3819 0117 13       		.uleb128 0x13
 3820 0118 00       		.byte	0
 3821 0119 00       		.byte	0
 3822 011a 18       		.uleb128 0x18
 3823 011b 05       		.uleb128 0x5
 3824 011c 00       		.byte	0
 3825 011d 03       		.uleb128 0x3
 3826 011e 0E       		.uleb128 0xe
 3827 011f 3A       		.uleb128 0x3a
 3828 0120 0B       		.uleb128 0xb
 3829 0121 3B       		.uleb128 0x3b
 3830 0122 0B       		.uleb128 0xb
 3831 0123 49       		.uleb128 0x49
 3832 0124 13       		.uleb128 0x13
 3833 0125 00       		.byte	0
 3834 0126 00       		.byte	0
 3835 0127 19       		.uleb128 0x19
 3836 0128 2E       		.uleb128 0x2e
 3837 0129 01       		.byte	0x1
 3838 012a 03       		.uleb128 0x3
 3839 012b 0E       		.uleb128 0xe
 3840 012c 3A       		.uleb128 0x3a
 3841 012d 0B       		.uleb128 0xb
 3842 012e 3B       		.uleb128 0x3b
 3843 012f 05       		.uleb128 0x5
 3844 0130 27       		.uleb128 0x27
 3845 0131 19       		.uleb128 0x19
 3846 0132 20       		.uleb128 0x20
 3847 0133 0B       		.uleb128 0xb
 3848 0134 01       		.uleb128 0x1
 3849 0135 13       		.uleb128 0x13
 3850 0136 00       		.byte	0
 3851 0137 00       		.byte	0
 3852 0138 1A       		.uleb128 0x1a
 3853 0139 05       		.uleb128 0x5
 3854 013a 00       		.byte	0
 3855 013b 03       		.uleb128 0x3
 3856 013c 0E       		.uleb128 0xe
 3857 013d 3A       		.uleb128 0x3a
 3858 013e 0B       		.uleb128 0xb
 3859 013f 3B       		.uleb128 0x3b
 3860 0140 05       		.uleb128 0x5
 3861 0141 49       		.uleb128 0x49
 3862 0142 13       		.uleb128 0x13
 3863 0143 00       		.byte	0
 3864 0144 00       		.byte	0
 3865 0145 1B       		.uleb128 0x1b
 3866 0146 05       		.uleb128 0x5
 3867 0147 00       		.byte	0
 3868 0148 03       		.uleb128 0x3
 3869 0149 08       		.uleb128 0x8
 3870 014a 3A       		.uleb128 0x3a
 3871 014b 0B       		.uleb128 0xb
ARM GAS  /var/folders/z0/6xlwn_996xz3mwq1cgzkbq4r0000gp/T//cckgJHwF.s 			page 90


 3872 014c 3B       		.uleb128 0x3b
 3873 014d 05       		.uleb128 0x5
 3874 014e 49       		.uleb128 0x49
 3875 014f 13       		.uleb128 0x13
 3876 0150 00       		.byte	0
 3877 0151 00       		.byte	0
 3878 0152 1C       		.uleb128 0x1c
 3879 0153 2E       		.uleb128 0x2e
 3880 0154 01       		.byte	0x1
 3881 0155 03       		.uleb128 0x3
 3882 0156 0E       		.uleb128 0xe
 3883 0157 3A       		.uleb128 0x3a
 3884 0158 0B       		.uleb128 0xb
 3885 0159 3B       		.uleb128 0x3b
 3886 015a 05       		.uleb128 0x5
 3887 015b 27       		.uleb128 0x27
 3888 015c 19       		.uleb128 0x19
 3889 015d 49       		.uleb128 0x49
 3890 015e 13       		.uleb128 0x13
 3891 015f 20       		.uleb128 0x20
 3892 0160 0B       		.uleb128 0xb
 3893 0161 01       		.uleb128 0x1
 3894 0162 13       		.uleb128 0x13
 3895 0163 00       		.byte	0
 3896 0164 00       		.byte	0
 3897 0165 1D       		.uleb128 0x1d
 3898 0166 2E       		.uleb128 0x2e
 3899 0167 01       		.byte	0x1
 3900 0168 3F       		.uleb128 0x3f
 3901 0169 19       		.uleb128 0x19
 3902 016a 03       		.uleb128 0x3
 3903 016b 0E       		.uleb128 0xe
 3904 016c 3A       		.uleb128 0x3a
 3905 016d 0B       		.uleb128 0xb
 3906 016e 3B       		.uleb128 0x3b
 3907 016f 0B       		.uleb128 0xb
 3908 0170 27       		.uleb128 0x27
 3909 0171 19       		.uleb128 0x19
 3910 0172 49       		.uleb128 0x49
 3911 0173 13       		.uleb128 0x13
 3912 0174 20       		.uleb128 0x20
 3913 0175 0B       		.uleb128 0xb
 3914 0176 01       		.uleb128 0x1
 3915 0177 13       		.uleb128 0x13
 3916 0178 00       		.byte	0
 3917 0179 00       		.byte	0
 3918 017a 1E       		.uleb128 0x1e
 3919 017b 34       		.uleb128 0x34
 3920 017c 00       		.byte	0
 3921 017d 03       		.uleb128 0x3
 3922 017e 0E       		.uleb128 0xe
 3923 017f 3A       		.uleb128 0x3a
 3924 0180 0B       		.uleb128 0xb
 3925 0181 3B       		.uleb128 0x3b
 3926 0182 0B       		.uleb128 0xb
 3927 0183 49       		.uleb128 0x49
 3928 0184 13       		.uleb128 0x13
ARM GAS  /var/folders/z0/6xlwn_996xz3mwq1cgzkbq4r0000gp/T//cckgJHwF.s 			page 91


 3929 0185 00       		.byte	0
 3930 0186 00       		.byte	0
 3931 0187 1F       		.uleb128 0x1f
 3932 0188 34       		.uleb128 0x34
 3933 0189 00       		.byte	0
 3934 018a 03       		.uleb128 0x3
 3935 018b 08       		.uleb128 0x8
 3936 018c 3A       		.uleb128 0x3a
 3937 018d 0B       		.uleb128 0xb
 3938 018e 3B       		.uleb128 0x3b
 3939 018f 0B       		.uleb128 0xb
 3940 0190 49       		.uleb128 0x49
 3941 0191 13       		.uleb128 0x13
 3942 0192 00       		.byte	0
 3943 0193 00       		.byte	0
 3944 0194 20       		.uleb128 0x20
 3945 0195 26       		.uleb128 0x26
 3946 0196 00       		.byte	0
 3947 0197 00       		.byte	0
 3948 0198 00       		.byte	0
 3949 0199 21       		.uleb128 0x21
 3950 019a 2E       		.uleb128 0x2e
 3951 019b 01       		.byte	0x1
 3952 019c 3F       		.uleb128 0x3f
 3953 019d 19       		.uleb128 0x19
 3954 019e 03       		.uleb128 0x3
 3955 019f 0E       		.uleb128 0xe
 3956 01a0 3A       		.uleb128 0x3a
 3957 01a1 0B       		.uleb128 0xb
 3958 01a2 3B       		.uleb128 0x3b
 3959 01a3 0B       		.uleb128 0xb
 3960 01a4 27       		.uleb128 0x27
 3961 01a5 19       		.uleb128 0x19
 3962 01a6 20       		.uleb128 0x20
 3963 01a7 0B       		.uleb128 0xb
 3964 01a8 01       		.uleb128 0x1
 3965 01a9 13       		.uleb128 0x13
 3966 01aa 00       		.byte	0
 3967 01ab 00       		.byte	0
 3968 01ac 22       		.uleb128 0x22
 3969 01ad 05       		.uleb128 0x5
 3970 01ae 00       		.byte	0
 3971 01af 03       		.uleb128 0x3
 3972 01b0 08       		.uleb128 0x8
 3973 01b1 3A       		.uleb128 0x3a
 3974 01b2 0B       		.uleb128 0xb
 3975 01b3 3B       		.uleb128 0x3b
 3976 01b4 0B       		.uleb128 0xb
 3977 01b5 49       		.uleb128 0x49
 3978 01b6 13       		.uleb128 0x13
 3979 01b7 00       		.byte	0
 3980 01b8 00       		.byte	0
 3981 01b9 23       		.uleb128 0x23
 3982 01ba 0B       		.uleb128 0xb
 3983 01bb 01       		.byte	0x1
 3984 01bc 00       		.byte	0
 3985 01bd 00       		.byte	0
ARM GAS  /var/folders/z0/6xlwn_996xz3mwq1cgzkbq4r0000gp/T//cckgJHwF.s 			page 92


 3986 01be 24       		.uleb128 0x24
 3987 01bf 2E       		.uleb128 0x2e
 3988 01c0 01       		.byte	0x1
 3989 01c1 3F       		.uleb128 0x3f
 3990 01c2 19       		.uleb128 0x19
 3991 01c3 03       		.uleb128 0x3
 3992 01c4 0E       		.uleb128 0xe
 3993 01c5 3A       		.uleb128 0x3a
 3994 01c6 0B       		.uleb128 0xb
 3995 01c7 3B       		.uleb128 0x3b
 3996 01c8 0B       		.uleb128 0xb
 3997 01c9 27       		.uleb128 0x27
 3998 01ca 19       		.uleb128 0x19
 3999 01cb 11       		.uleb128 0x11
 4000 01cc 01       		.uleb128 0x1
 4001 01cd 12       		.uleb128 0x12
 4002 01ce 06       		.uleb128 0x6
 4003 01cf 40       		.uleb128 0x40
 4004 01d0 18       		.uleb128 0x18
 4005 01d1 9742     		.uleb128 0x2117
 4006 01d3 19       		.uleb128 0x19
 4007 01d4 01       		.uleb128 0x1
 4008 01d5 13       		.uleb128 0x13
 4009 01d6 00       		.byte	0
 4010 01d7 00       		.byte	0
 4011 01d8 25       		.uleb128 0x25
 4012 01d9 05       		.uleb128 0x5
 4013 01da 00       		.byte	0
 4014 01db 03       		.uleb128 0x3
 4015 01dc 0E       		.uleb128 0xe
 4016 01dd 3A       		.uleb128 0x3a
 4017 01de 0B       		.uleb128 0xb
 4018 01df 3B       		.uleb128 0x3b
 4019 01e0 0B       		.uleb128 0xb
 4020 01e1 49       		.uleb128 0x49
 4021 01e2 13       		.uleb128 0x13
 4022 01e3 02       		.uleb128 0x2
 4023 01e4 18       		.uleb128 0x18
 4024 01e5 00       		.byte	0
 4025 01e6 00       		.byte	0
 4026 01e7 26       		.uleb128 0x26
 4027 01e8 1D       		.uleb128 0x1d
 4028 01e9 01       		.byte	0x1
 4029 01ea 31       		.uleb128 0x31
 4030 01eb 13       		.uleb128 0x13
 4031 01ec 52       		.uleb128 0x52
 4032 01ed 01       		.uleb128 0x1
 4033 01ee 55       		.uleb128 0x55
 4034 01ef 17       		.uleb128 0x17
 4035 01f0 58       		.uleb128 0x58
 4036 01f1 0B       		.uleb128 0xb
 4037 01f2 59       		.uleb128 0x59
 4038 01f3 0B       		.uleb128 0xb
 4039 01f4 01       		.uleb128 0x1
 4040 01f5 13       		.uleb128 0x13
 4041 01f6 00       		.byte	0
 4042 01f7 00       		.byte	0
ARM GAS  /var/folders/z0/6xlwn_996xz3mwq1cgzkbq4r0000gp/T//cckgJHwF.s 			page 93


 4043 01f8 27       		.uleb128 0x27
 4044 01f9 05       		.uleb128 0x5
 4045 01fa 00       		.byte	0
 4046 01fb 31       		.uleb128 0x31
 4047 01fc 13       		.uleb128 0x13
 4048 01fd 02       		.uleb128 0x2
 4049 01fe 17       		.uleb128 0x17
 4050 01ff 00       		.byte	0
 4051 0200 00       		.byte	0
 4052 0201 28       		.uleb128 0x28
 4053 0202 1D       		.uleb128 0x1d
 4054 0203 01       		.byte	0x1
 4055 0204 31       		.uleb128 0x31
 4056 0205 13       		.uleb128 0x13
 4057 0206 11       		.uleb128 0x11
 4058 0207 01       		.uleb128 0x1
 4059 0208 12       		.uleb128 0x12
 4060 0209 06       		.uleb128 0x6
 4061 020a 58       		.uleb128 0x58
 4062 020b 0B       		.uleb128 0xb
 4063 020c 59       		.uleb128 0x59
 4064 020d 0B       		.uleb128 0xb
 4065 020e 01       		.uleb128 0x1
 4066 020f 13       		.uleb128 0x13
 4067 0210 00       		.byte	0
 4068 0211 00       		.byte	0
 4069 0212 29       		.uleb128 0x29
 4070 0213 1D       		.uleb128 0x1d
 4071 0214 01       		.byte	0x1
 4072 0215 31       		.uleb128 0x31
 4073 0216 13       		.uleb128 0x13
 4074 0217 11       		.uleb128 0x11
 4075 0218 01       		.uleb128 0x1
 4076 0219 12       		.uleb128 0x12
 4077 021a 06       		.uleb128 0x6
 4078 021b 58       		.uleb128 0x58
 4079 021c 0B       		.uleb128 0xb
 4080 021d 59       		.uleb128 0x59
 4081 021e 0B       		.uleb128 0xb
 4082 021f 00       		.byte	0
 4083 0220 00       		.byte	0
 4084 0221 2A       		.uleb128 0x2a
 4085 0222 05       		.uleb128 0x5
 4086 0223 00       		.byte	0
 4087 0224 03       		.uleb128 0x3
 4088 0225 0E       		.uleb128 0xe
 4089 0226 3A       		.uleb128 0x3a
 4090 0227 0B       		.uleb128 0xb
 4091 0228 3B       		.uleb128 0x3b
 4092 0229 0B       		.uleb128 0xb
 4093 022a 49       		.uleb128 0x49
 4094 022b 13       		.uleb128 0x13
 4095 022c 02       		.uleb128 0x2
 4096 022d 17       		.uleb128 0x17
 4097 022e 00       		.byte	0
 4098 022f 00       		.byte	0
 4099 0230 2B       		.uleb128 0x2b
ARM GAS  /var/folders/z0/6xlwn_996xz3mwq1cgzkbq4r0000gp/T//cckgJHwF.s 			page 94


 4100 0231 1D       		.uleb128 0x1d
 4101 0232 01       		.byte	0x1
 4102 0233 31       		.uleb128 0x31
 4103 0234 13       		.uleb128 0x13
 4104 0235 52       		.uleb128 0x52
 4105 0236 01       		.uleb128 0x1
 4106 0237 55       		.uleb128 0x55
 4107 0238 17       		.uleb128 0x17
 4108 0239 58       		.uleb128 0x58
 4109 023a 0B       		.uleb128 0xb
 4110 023b 59       		.uleb128 0x59
 4111 023c 0B       		.uleb128 0xb
 4112 023d 00       		.byte	0
 4113 023e 00       		.byte	0
 4114 023f 2C       		.uleb128 0x2c
 4115 0240 2E       		.uleb128 0x2e
 4116 0241 01       		.byte	0x1
 4117 0242 31       		.uleb128 0x31
 4118 0243 13       		.uleb128 0x13
 4119 0244 11       		.uleb128 0x11
 4120 0245 01       		.uleb128 0x1
 4121 0246 12       		.uleb128 0x12
 4122 0247 06       		.uleb128 0x6
 4123 0248 40       		.uleb128 0x40
 4124 0249 18       		.uleb128 0x18
 4125 024a 9742     		.uleb128 0x2117
 4126 024c 19       		.uleb128 0x19
 4127 024d 01       		.uleb128 0x1
 4128 024e 13       		.uleb128 0x13
 4129 024f 00       		.byte	0
 4130 0250 00       		.byte	0
 4131 0251 2D       		.uleb128 0x2d
 4132 0252 05       		.uleb128 0x5
 4133 0253 00       		.byte	0
 4134 0254 31       		.uleb128 0x31
 4135 0255 13       		.uleb128 0x13
 4136 0256 02       		.uleb128 0x2
 4137 0257 18       		.uleb128 0x18
 4138 0258 00       		.byte	0
 4139 0259 00       		.byte	0
 4140 025a 2E       		.uleb128 0x2e
 4141 025b 34       		.uleb128 0x34
 4142 025c 00       		.byte	0
 4143 025d 31       		.uleb128 0x31
 4144 025e 13       		.uleb128 0x13
 4145 025f 02       		.uleb128 0x2
 4146 0260 17       		.uleb128 0x17
 4147 0261 00       		.byte	0
 4148 0262 00       		.byte	0
 4149 0263 2F       		.uleb128 0x2f
 4150 0264 2E       		.uleb128 0x2e
 4151 0265 01       		.byte	0x1
 4152 0266 3F       		.uleb128 0x3f
 4153 0267 19       		.uleb128 0x19
 4154 0268 03       		.uleb128 0x3
 4155 0269 0E       		.uleb128 0xe
 4156 026a 3A       		.uleb128 0x3a
ARM GAS  /var/folders/z0/6xlwn_996xz3mwq1cgzkbq4r0000gp/T//cckgJHwF.s 			page 95


 4157 026b 0B       		.uleb128 0xb
 4158 026c 3B       		.uleb128 0x3b
 4159 026d 0B       		.uleb128 0xb
 4160 026e 27       		.uleb128 0x27
 4161 026f 19       		.uleb128 0x19
 4162 0270 49       		.uleb128 0x49
 4163 0271 13       		.uleb128 0x13
 4164 0272 11       		.uleb128 0x11
 4165 0273 01       		.uleb128 0x1
 4166 0274 12       		.uleb128 0x12
 4167 0275 06       		.uleb128 0x6
 4168 0276 40       		.uleb128 0x40
 4169 0277 18       		.uleb128 0x18
 4170 0278 9742     		.uleb128 0x2117
 4171 027a 19       		.uleb128 0x19
 4172 027b 01       		.uleb128 0x1
 4173 027c 13       		.uleb128 0x13
 4174 027d 00       		.byte	0
 4175 027e 00       		.byte	0
 4176 027f 30       		.uleb128 0x30
 4177 0280 34       		.uleb128 0x34
 4178 0281 00       		.byte	0
 4179 0282 03       		.uleb128 0x3
 4180 0283 0E       		.uleb128 0xe
 4181 0284 3A       		.uleb128 0x3a
 4182 0285 0B       		.uleb128 0xb
 4183 0286 3B       		.uleb128 0x3b
 4184 0287 0B       		.uleb128 0xb
 4185 0288 49       		.uleb128 0x49
 4186 0289 13       		.uleb128 0x13
 4187 028a 02       		.uleb128 0x2
 4188 028b 18       		.uleb128 0x18
 4189 028c 00       		.byte	0
 4190 028d 00       		.byte	0
 4191 028e 31       		.uleb128 0x31
 4192 028f 34       		.uleb128 0x34
 4193 0290 00       		.byte	0
 4194 0291 03       		.uleb128 0x3
 4195 0292 0E       		.uleb128 0xe
 4196 0293 3A       		.uleb128 0x3a
 4197 0294 0B       		.uleb128 0xb
 4198 0295 3B       		.uleb128 0x3b
 4199 0296 0B       		.uleb128 0xb
 4200 0297 49       		.uleb128 0x49
 4201 0298 13       		.uleb128 0x13
 4202 0299 02       		.uleb128 0x2
 4203 029a 17       		.uleb128 0x17
 4204 029b 00       		.byte	0
 4205 029c 00       		.byte	0
 4206 029d 32       		.uleb128 0x32
 4207 029e 34       		.uleb128 0x34
 4208 029f 00       		.byte	0
 4209 02a0 03       		.uleb128 0x3
 4210 02a1 08       		.uleb128 0x8
 4211 02a2 3A       		.uleb128 0x3a
 4212 02a3 0B       		.uleb128 0xb
 4213 02a4 3B       		.uleb128 0x3b
ARM GAS  /var/folders/z0/6xlwn_996xz3mwq1cgzkbq4r0000gp/T//cckgJHwF.s 			page 96


 4214 02a5 0B       		.uleb128 0xb
 4215 02a6 49       		.uleb128 0x49
 4216 02a7 13       		.uleb128 0x13
 4217 02a8 02       		.uleb128 0x2
 4218 02a9 18       		.uleb128 0x18
 4219 02aa 00       		.byte	0
 4220 02ab 00       		.byte	0
 4221 02ac 33       		.uleb128 0x33
 4222 02ad 05       		.uleb128 0x5
 4223 02ae 00       		.byte	0
 4224 02af 31       		.uleb128 0x31
 4225 02b0 13       		.uleb128 0x13
 4226 02b1 00       		.byte	0
 4227 02b2 00       		.byte	0
 4228 02b3 34       		.uleb128 0x34
 4229 02b4 0B       		.uleb128 0xb
 4230 02b5 01       		.byte	0x1
 4231 02b6 55       		.uleb128 0x55
 4232 02b7 17       		.uleb128 0x17
 4233 02b8 00       		.byte	0
 4234 02b9 00       		.byte	0
 4235 02ba 35       		.uleb128 0x35
 4236 02bb 2E       		.uleb128 0x2e
 4237 02bc 01       		.byte	0x1
 4238 02bd 3F       		.uleb128 0x3f
 4239 02be 19       		.uleb128 0x19
 4240 02bf 03       		.uleb128 0x3
 4241 02c0 0E       		.uleb128 0xe
 4242 02c1 3A       		.uleb128 0x3a
 4243 02c2 0B       		.uleb128 0xb
 4244 02c3 3B       		.uleb128 0x3b
 4245 02c4 0B       		.uleb128 0xb
 4246 02c5 27       		.uleb128 0x27
 4247 02c6 19       		.uleb128 0x19
 4248 02c7 49       		.uleb128 0x49
 4249 02c8 13       		.uleb128 0x13
 4250 02c9 11       		.uleb128 0x11
 4251 02ca 01       		.uleb128 0x1
 4252 02cb 12       		.uleb128 0x12
 4253 02cc 06       		.uleb128 0x6
 4254 02cd 40       		.uleb128 0x40
 4255 02ce 18       		.uleb128 0x18
 4256 02cf 9642     		.uleb128 0x2116
 4257 02d1 19       		.uleb128 0x19
 4258 02d2 01       		.uleb128 0x1
 4259 02d3 13       		.uleb128 0x13
 4260 02d4 00       		.byte	0
 4261 02d5 00       		.byte	0
 4262 02d6 36       		.uleb128 0x36
 4263 02d7 34       		.uleb128 0x34
 4264 02d8 00       		.byte	0
 4265 02d9 03       		.uleb128 0x3
 4266 02da 08       		.uleb128 0x8
 4267 02db 3A       		.uleb128 0x3a
 4268 02dc 0B       		.uleb128 0xb
 4269 02dd 3B       		.uleb128 0x3b
 4270 02de 0B       		.uleb128 0xb
ARM GAS  /var/folders/z0/6xlwn_996xz3mwq1cgzkbq4r0000gp/T//cckgJHwF.s 			page 97


 4271 02df 49       		.uleb128 0x49
 4272 02e0 13       		.uleb128 0x13
 4273 02e1 02       		.uleb128 0x2
 4274 02e2 17       		.uleb128 0x17
 4275 02e3 00       		.byte	0
 4276 02e4 00       		.byte	0
 4277 02e5 37       		.uleb128 0x37
 4278 02e6 898201   		.uleb128 0x4109
 4279 02e9 00       		.byte	0
 4280 02ea 11       		.uleb128 0x11
 4281 02eb 01       		.uleb128 0x1
 4282 02ec 31       		.uleb128 0x31
 4283 02ed 13       		.uleb128 0x13
 4284 02ee 00       		.byte	0
 4285 02ef 00       		.byte	0
 4286 02f0 38       		.uleb128 0x38
 4287 02f1 0B       		.uleb128 0xb
 4288 02f2 01       		.byte	0x1
 4289 02f3 11       		.uleb128 0x11
 4290 02f4 01       		.uleb128 0x1
 4291 02f5 12       		.uleb128 0x12
 4292 02f6 06       		.uleb128 0x6
 4293 02f7 00       		.byte	0
 4294 02f8 00       		.byte	0
 4295 02f9 39       		.uleb128 0x39
 4296 02fa 34       		.uleb128 0x34
 4297 02fb 00       		.byte	0
 4298 02fc 31       		.uleb128 0x31
 4299 02fd 13       		.uleb128 0x13
 4300 02fe 02       		.uleb128 0x2
 4301 02ff 18       		.uleb128 0x18
 4302 0300 00       		.byte	0
 4303 0301 00       		.byte	0
 4304 0302 3A       		.uleb128 0x3a
 4305 0303 898201   		.uleb128 0x4109
 4306 0306 01       		.byte	0x1
 4307 0307 11       		.uleb128 0x11
 4308 0308 01       		.uleb128 0x1
 4309 0309 31       		.uleb128 0x31
 4310 030a 13       		.uleb128 0x13
 4311 030b 00       		.byte	0
 4312 030c 00       		.byte	0
 4313 030d 3B       		.uleb128 0x3b
 4314 030e 8A8201   		.uleb128 0x410a
 4315 0311 00       		.byte	0
 4316 0312 02       		.uleb128 0x2
 4317 0313 18       		.uleb128 0x18
 4318 0314 9142     		.uleb128 0x2111
 4319 0316 18       		.uleb128 0x18
 4320 0317 00       		.byte	0
 4321 0318 00       		.byte	0
 4322 0319 3C       		.uleb128 0x3c
 4323 031a 05       		.uleb128 0x5
 4324 031b 00       		.byte	0
 4325 031c 03       		.uleb128 0x3
 4326 031d 08       		.uleb128 0x8
 4327 031e 3A       		.uleb128 0x3a
ARM GAS  /var/folders/z0/6xlwn_996xz3mwq1cgzkbq4r0000gp/T//cckgJHwF.s 			page 98


 4328 031f 0B       		.uleb128 0xb
 4329 0320 3B       		.uleb128 0x3b
 4330 0321 0B       		.uleb128 0xb
 4331 0322 49       		.uleb128 0x49
 4332 0323 13       		.uleb128 0x13
 4333 0324 02       		.uleb128 0x2
 4334 0325 17       		.uleb128 0x17
 4335 0326 00       		.byte	0
 4336 0327 00       		.byte	0
 4337 0328 3D       		.uleb128 0x3d
 4338 0329 898201   		.uleb128 0x4109
 4339 032c 01       		.byte	0x1
 4340 032d 11       		.uleb128 0x11
 4341 032e 01       		.uleb128 0x1
 4342 032f 31       		.uleb128 0x31
 4343 0330 13       		.uleb128 0x13
 4344 0331 01       		.uleb128 0x1
 4345 0332 13       		.uleb128 0x13
 4346 0333 00       		.byte	0
 4347 0334 00       		.byte	0
 4348 0335 3E       		.uleb128 0x3e
 4349 0336 05       		.uleb128 0x5
 4350 0337 00       		.byte	0
 4351 0338 31       		.uleb128 0x31
 4352 0339 13       		.uleb128 0x13
 4353 033a 1C       		.uleb128 0x1c
 4354 033b 0B       		.uleb128 0xb
 4355 033c 00       		.byte	0
 4356 033d 00       		.byte	0
 4357 033e 3F       		.uleb128 0x3f
 4358 033f 1D       		.uleb128 0x1d
 4359 0340 01       		.byte	0x1
 4360 0341 31       		.uleb128 0x31
 4361 0342 13       		.uleb128 0x13
 4362 0343 52       		.uleb128 0x52
 4363 0344 01       		.uleb128 0x1
 4364 0345 55       		.uleb128 0x55
 4365 0346 17       		.uleb128 0x17
 4366 0347 58       		.uleb128 0x58
 4367 0348 0B       		.uleb128 0xb
 4368 0349 59       		.uleb128 0x59
 4369 034a 05       		.uleb128 0x5
 4370 034b 01       		.uleb128 0x1
 4371 034c 13       		.uleb128 0x13
 4372 034d 00       		.byte	0
 4373 034e 00       		.byte	0
 4374 034f 40       		.uleb128 0x40
 4375 0350 1D       		.uleb128 0x1d
 4376 0351 01       		.byte	0x1
 4377 0352 31       		.uleb128 0x31
 4378 0353 13       		.uleb128 0x13
 4379 0354 11       		.uleb128 0x11
 4380 0355 01       		.uleb128 0x1
 4381 0356 12       		.uleb128 0x12
 4382 0357 06       		.uleb128 0x6
 4383 0358 58       		.uleb128 0x58
 4384 0359 0B       		.uleb128 0xb
ARM GAS  /var/folders/z0/6xlwn_996xz3mwq1cgzkbq4r0000gp/T//cckgJHwF.s 			page 99


 4385 035a 59       		.uleb128 0x59
 4386 035b 05       		.uleb128 0x5
 4387 035c 01       		.uleb128 0x1
 4388 035d 13       		.uleb128 0x13
 4389 035e 00       		.byte	0
 4390 035f 00       		.byte	0
 4391 0360 41       		.uleb128 0x41
 4392 0361 34       		.uleb128 0x34
 4393 0362 00       		.byte	0
 4394 0363 03       		.uleb128 0x3
 4395 0364 0E       		.uleb128 0xe
 4396 0365 3A       		.uleb128 0x3a
 4397 0366 0B       		.uleb128 0xb
 4398 0367 3B       		.uleb128 0x3b
 4399 0368 0B       		.uleb128 0xb
 4400 0369 49       		.uleb128 0x49
 4401 036a 13       		.uleb128 0x13
 4402 036b 3F       		.uleb128 0x3f
 4403 036c 19       		.uleb128 0x19
 4404 036d 3C       		.uleb128 0x3c
 4405 036e 19       		.uleb128 0x19
 4406 036f 00       		.byte	0
 4407 0370 00       		.byte	0
 4408 0371 42       		.uleb128 0x42
 4409 0372 2E       		.uleb128 0x2e
 4410 0373 00       		.byte	0
 4411 0374 3F       		.uleb128 0x3f
 4412 0375 19       		.uleb128 0x19
 4413 0376 3C       		.uleb128 0x3c
 4414 0377 19       		.uleb128 0x19
 4415 0378 6E       		.uleb128 0x6e
 4416 0379 0E       		.uleb128 0xe
 4417 037a 03       		.uleb128 0x3
 4418 037b 0E       		.uleb128 0xe
 4419 037c 3A       		.uleb128 0x3a
 4420 037d 0B       		.uleb128 0xb
 4421 037e 3B       		.uleb128 0x3b
 4422 037f 05       		.uleb128 0x5
 4423 0380 00       		.byte	0
 4424 0381 00       		.byte	0
 4425 0382 43       		.uleb128 0x43
 4426 0383 2E       		.uleb128 0x2e
 4427 0384 00       		.byte	0
 4428 0385 3F       		.uleb128 0x3f
 4429 0386 19       		.uleb128 0x19
 4430 0387 3C       		.uleb128 0x3c
 4431 0388 19       		.uleb128 0x19
 4432 0389 6E       		.uleb128 0x6e
 4433 038a 0E       		.uleb128 0xe
 4434 038b 03       		.uleb128 0x3
 4435 038c 0E       		.uleb128 0xe
 4436 038d 3A       		.uleb128 0x3a
 4437 038e 0B       		.uleb128 0xb
 4438 038f 3B       		.uleb128 0x3b
 4439 0390 0B       		.uleb128 0xb
 4440 0391 00       		.byte	0
 4441 0392 00       		.byte	0
ARM GAS  /var/folders/z0/6xlwn_996xz3mwq1cgzkbq4r0000gp/T//cckgJHwF.s 			page 100


 4442 0393 00       		.byte	0
 4443              		.section	.debug_loc,"",%progbits
 4444              	.Ldebug_loc0:
 4445              	.LLST0:
 4446 0000 00000000 		.4byte	.LVL0
 4447 0004 10000000 		.4byte	.LVL1
 4448 0008 0200     		.2byte	0x2
 4449 000a 3C       		.byte	0x3c
 4450 000b 9F       		.byte	0x9f
 4451 000c 00000000 		.4byte	0
 4452 0010 00000000 		.4byte	0
 4453              	.LLST1:
 4454 0014 10000000 		.4byte	.LVL1
 4455 0018 16000000 		.4byte	.LVL2
 4456 001c 0200     		.2byte	0x2
 4457 001e 31       		.byte	0x31
 4458 001f 9F       		.byte	0x9f
 4459 0020 00000000 		.4byte	0
 4460 0024 00000000 		.4byte	0
 4461              	.LLST2:
 4462 0028 16000000 		.4byte	.LVL2
 4463 002c 1A000000 		.4byte	.LVL3
 4464 0030 0200     		.2byte	0x2
 4465 0032 37       		.byte	0x37
 4466 0033 9F       		.byte	0x9f
 4467 0034 00000000 		.4byte	0
 4468 0038 00000000 		.4byte	0
 4469              	.LLST3:
 4470 003c 16000000 		.4byte	.LVL2
 4471 0040 1A000000 		.4byte	.LVL3
 4472 0044 0100     		.2byte	0x1
 4473 0046 50       		.byte	0x50
 4474 0047 00000000 		.4byte	0
 4475 004b 00000000 		.4byte	0
 4476              	.LLST4:
 4477 004f 1A000000 		.4byte	.LVL3
 4478 0053 1E000000 		.4byte	.LVL4
 4479 0057 0200     		.2byte	0x2
 4480 0059 33       		.byte	0x33
 4481 005a 9F       		.byte	0x9f
 4482 005b 00000000 		.4byte	0
 4483 005f 00000000 		.4byte	0
 4484              	.LLST5:
 4485 0063 1A000000 		.4byte	.LVL3
 4486 0067 1E000000 		.4byte	.LVL4
 4487 006b 0100     		.2byte	0x1
 4488 006d 50       		.byte	0x50
 4489 006e 00000000 		.4byte	0
 4490 0072 00000000 		.4byte	0
 4491              	.LLST6:
 4492 0076 00000000 		.4byte	.LVL5
 4493 007a 08000000 		.4byte	.LVL6
 4494 007e 0100     		.2byte	0x1
 4495 0080 50       		.byte	0x50
 4496 0081 08000000 		.4byte	.LVL6
 4497 0085 18000000 		.4byte	.LFE199
 4498 0089 0400     		.2byte	0x4
ARM GAS  /var/folders/z0/6xlwn_996xz3mwq1cgzkbq4r0000gp/T//cckgJHwF.s 			page 101


 4499 008b F3       		.byte	0xf3
 4500 008c 01       		.uleb128 0x1
 4501 008d 50       		.byte	0x50
 4502 008e 9F       		.byte	0x9f
 4503 008f 00000000 		.4byte	0
 4504 0093 00000000 		.4byte	0
 4505              	.LLST7:
 4506 0097 00000000 		.4byte	.LVL5
 4507 009b 0C000000 		.4byte	.LVL7
 4508 009f 0200     		.2byte	0x2
 4509 00a1 3C       		.byte	0x3c
 4510 00a2 9F       		.byte	0x9f
 4511 00a3 00000000 		.4byte	0
 4512 00a7 00000000 		.4byte	0
 4513              	.LLST8:
 4514 00ab 00000000 		.4byte	.LVL8
 4515 00af 24000000 		.4byte	.LVL17
 4516 00b3 0100     		.2byte	0x1
 4517 00b5 50       		.byte	0x50
 4518 00b6 24000000 		.4byte	.LVL17
 4519 00ba 26000000 		.4byte	.LVL18
 4520 00be 0400     		.2byte	0x4
 4521 00c0 F3       		.byte	0xf3
 4522 00c1 01       		.uleb128 0x1
 4523 00c2 50       		.byte	0x50
 4524 00c3 9F       		.byte	0x9f
 4525 00c4 26000000 		.4byte	.LVL18
 4526 00c8 2E000000 		.4byte	.LFE200
 4527 00cc 0100     		.2byte	0x1
 4528 00ce 50       		.byte	0x50
 4529 00cf 00000000 		.4byte	0
 4530 00d3 00000000 		.4byte	0
 4531              	.LLST9:
 4532 00d7 00000000 		.4byte	.LVL8
 4533 00db 22000000 		.4byte	.LVL16
 4534 00df 0100     		.2byte	0x1
 4535 00e1 52       		.byte	0x52
 4536 00e2 22000000 		.4byte	.LVL16
 4537 00e6 26000000 		.4byte	.LVL18
 4538 00ea 0400     		.2byte	0x4
 4539 00ec F3       		.byte	0xf3
 4540 00ed 01       		.uleb128 0x1
 4541 00ee 52       		.byte	0x52
 4542 00ef 9F       		.byte	0x9f
 4543 00f0 26000000 		.4byte	.LVL18
 4544 00f4 28000000 		.4byte	.LVL19
 4545 00f8 0100     		.2byte	0x1
 4546 00fa 52       		.byte	0x52
 4547 00fb 28000000 		.4byte	.LVL19
 4548 00ff 2A000000 		.4byte	.LVL20
 4549 0103 0400     		.2byte	0x4
 4550 0105 F3       		.byte	0xf3
 4551 0106 01       		.uleb128 0x1
 4552 0107 52       		.byte	0x52
 4553 0108 9F       		.byte	0x9f
 4554 0109 2A000000 		.4byte	.LVL20
 4555 010d 2C000000 		.4byte	.LVL21
ARM GAS  /var/folders/z0/6xlwn_996xz3mwq1cgzkbq4r0000gp/T//cckgJHwF.s 			page 102


 4556 0111 0100     		.2byte	0x1
 4557 0113 52       		.byte	0x52
 4558 0114 2C000000 		.4byte	.LVL21
 4559 0118 2E000000 		.4byte	.LFE200
 4560 011c 0400     		.2byte	0x4
 4561 011e F3       		.byte	0xf3
 4562 011f 01       		.uleb128 0x1
 4563 0120 52       		.byte	0x52
 4564 0121 9F       		.byte	0x9f
 4565 0122 00000000 		.4byte	0
 4566 0126 00000000 		.4byte	0
 4567              	.LLST10:
 4568 012a 00000000 		.4byte	.LVL8
 4569 012e 12000000 		.4byte	.LVL11
 4570 0132 0200     		.2byte	0x2
 4571 0134 30       		.byte	0x30
 4572 0135 9F       		.byte	0x9f
 4573 0136 12000000 		.4byte	.LVL11
 4574 013a 1C000000 		.4byte	.LVL14
 4575 013e 0100     		.2byte	0x1
 4576 0140 53       		.byte	0x53
 4577 0141 1C000000 		.4byte	.LVL14
 4578 0145 1E000000 		.4byte	.LVL15
 4579 0149 0300     		.2byte	0x3
 4580 014b 73       		.byte	0x73
 4581 014c 7F       		.sleb128 -1
 4582 014d 9F       		.byte	0x9f
 4583 014e 1E000000 		.4byte	.LVL15
 4584 0152 22000000 		.4byte	.LVL16
 4585 0156 0100     		.2byte	0x1
 4586 0158 53       		.byte	0x53
 4587 0159 26000000 		.4byte	.LVL18
 4588 015d 2A000000 		.4byte	.LVL20
 4589 0161 0100     		.2byte	0x1
 4590 0163 53       		.byte	0x53
 4591 0164 2A000000 		.4byte	.LVL20
 4592 0168 2E000000 		.4byte	.LFE200
 4593 016c 0200     		.2byte	0x2
 4594 016e 30       		.byte	0x30
 4595 016f 9F       		.byte	0x9f
 4596 0170 00000000 		.4byte	0
 4597 0174 00000000 		.4byte	0
 4598              	.LLST11:
 4599 0178 00000000 		.4byte	.LVL8
 4600 017c 12000000 		.4byte	.LVL11
 4601 0180 0100     		.2byte	0x1
 4602 0182 51       		.byte	0x51
 4603 0183 18000000 		.4byte	.LVL13
 4604 0187 1C000000 		.4byte	.LVL14
 4605 018b 0600     		.2byte	0x6
 4606 018d 71       		.byte	0x71
 4607 018e 00       		.sleb128 0
 4608 018f 73       		.byte	0x73
 4609 0190 00       		.sleb128 0
 4610 0191 22       		.byte	0x22
 4611 0192 9F       		.byte	0x9f
 4612 0193 1C000000 		.4byte	.LVL14
ARM GAS  /var/folders/z0/6xlwn_996xz3mwq1cgzkbq4r0000gp/T//cckgJHwF.s 			page 103


 4613 0197 1E000000 		.4byte	.LVL15
 4614 019b 0800     		.2byte	0x8
 4615 019d 71       		.byte	0x71
 4616 019e 00       		.sleb128 0
 4617 019f 73       		.byte	0x73
 4618 01a0 00       		.sleb128 0
 4619 01a1 22       		.byte	0x22
 4620 01a2 31       		.byte	0x31
 4621 01a3 1C       		.byte	0x1c
 4622 01a4 9F       		.byte	0x9f
 4623 01a5 2A000000 		.4byte	.LVL20
 4624 01a9 2E000000 		.4byte	.LFE200
 4625 01ad 0100     		.2byte	0x1
 4626 01af 51       		.byte	0x51
 4627 01b0 00000000 		.4byte	0
 4628 01b4 00000000 		.4byte	0
 4629              	.LLST12:
 4630 01b8 06000000 		.4byte	.LVL9
 4631 01bc 08000000 		.4byte	.LVL10
 4632 01c0 0100     		.2byte	0x1
 4633 01c2 50       		.byte	0x50
 4634 01c3 12000000 		.4byte	.LVL11
 4635 01c7 14000000 		.4byte	.LVL12
 4636 01cb 0100     		.2byte	0x1
 4637 01cd 50       		.byte	0x50
 4638 01ce 00000000 		.4byte	0
 4639 01d2 00000000 		.4byte	0
 4640              	.LLST13:
 4641 01d6 18000000 		.4byte	.LVL13
 4642 01da 1C000000 		.4byte	.LVL14
 4643 01de 0500     		.2byte	0x5
 4644 01e0 71       		.byte	0x71
 4645 01e1 00       		.sleb128 0
 4646 01e2 73       		.byte	0x73
 4647 01e3 00       		.sleb128 0
 4648 01e4 22       		.byte	0x22
 4649 01e5 1C000000 		.4byte	.LVL14
 4650 01e9 1E000000 		.4byte	.LVL15
 4651 01ed 0700     		.2byte	0x7
 4652 01ef 71       		.byte	0x71
 4653 01f0 00       		.sleb128 0
 4654 01f1 73       		.byte	0x73
 4655 01f2 00       		.sleb128 0
 4656 01f3 22       		.byte	0x22
 4657 01f4 31       		.byte	0x31
 4658 01f5 1C       		.byte	0x1c
 4659 01f6 00000000 		.4byte	0
 4660 01fa 00000000 		.4byte	0
 4661              	.LLST14:
 4662 01fe 18000000 		.4byte	.LVL13
 4663 0202 1E000000 		.4byte	.LVL15
 4664 0206 0100     		.2byte	0x1
 4665 0208 50       		.byte	0x50
 4666 0209 00000000 		.4byte	0
 4667 020d 00000000 		.4byte	0
 4668              	.LLST15:
 4669 0211 00000000 		.4byte	.LVL22
ARM GAS  /var/folders/z0/6xlwn_996xz3mwq1cgzkbq4r0000gp/T//cckgJHwF.s 			page 104


 4670 0215 28000000 		.4byte	.LVL34
 4671 0219 0100     		.2byte	0x1
 4672 021b 50       		.byte	0x50
 4673 021c 28000000 		.4byte	.LVL34
 4674 0220 2A000000 		.4byte	.LFE201
 4675 0224 0400     		.2byte	0x4
 4676 0226 F3       		.byte	0xf3
 4677 0227 01       		.uleb128 0x1
 4678 0228 50       		.byte	0x50
 4679 0229 9F       		.byte	0x9f
 4680 022a 00000000 		.4byte	0
 4681 022e 00000000 		.4byte	0
 4682              	.LLST16:
 4683 0232 00000000 		.4byte	.LVL22
 4684 0236 0A000000 		.4byte	.LVL23
 4685 023a 0100     		.2byte	0x1
 4686 023c 51       		.byte	0x51
 4687 023d 0A000000 		.4byte	.LVL23
 4688 0241 2A000000 		.4byte	.LFE201
 4689 0245 0400     		.2byte	0x4
 4690 0247 F3       		.byte	0xf3
 4691 0248 01       		.uleb128 0x1
 4692 0249 51       		.byte	0x51
 4693 024a 9F       		.byte	0x9f
 4694 024b 00000000 		.4byte	0
 4695 024f 00000000 		.4byte	0
 4696              	.LLST17:
 4697 0253 00000000 		.4byte	.LVL22
 4698 0257 1E000000 		.4byte	.LVL30
 4699 025b 0100     		.2byte	0x1
 4700 025d 52       		.byte	0x52
 4701 025e 1E000000 		.4byte	.LVL30
 4702 0262 2A000000 		.4byte	.LFE201
 4703 0266 0100     		.2byte	0x1
 4704 0268 52       		.byte	0x52
 4705 0269 00000000 		.4byte	0
 4706 026d 00000000 		.4byte	0
 4707              	.LLST18:
 4708 0271 00000000 		.4byte	.LVL22
 4709 0275 0A000000 		.4byte	.LVL23
 4710 0279 0200     		.2byte	0x2
 4711 027b 30       		.byte	0x30
 4712 027c 9F       		.byte	0x9f
 4713 027d 0A000000 		.4byte	.LVL23
 4714 0281 26000000 		.4byte	.LVL33
 4715 0285 0100     		.2byte	0x1
 4716 0287 56       		.byte	0x56
 4717 0288 00000000 		.4byte	0
 4718 028c 00000000 		.4byte	0
 4719              	.LLST19:
 4720 0290 0C000000 		.4byte	.LVL24
 4721 0294 16000000 		.4byte	.LVL27
 4722 0298 0100     		.2byte	0x1
 4723 029a 53       		.byte	0x53
 4724 029b 16000000 		.4byte	.LVL27
 4725 029f 18000000 		.4byte	.LVL28
 4726 02a3 0300     		.2byte	0x3
ARM GAS  /var/folders/z0/6xlwn_996xz3mwq1cgzkbq4r0000gp/T//cckgJHwF.s 			page 105


 4727 02a5 73       		.byte	0x73
 4728 02a6 7F       		.sleb128 -1
 4729 02a7 9F       		.byte	0x9f
 4730 02a8 18000000 		.4byte	.LVL28
 4731 02ac 1C000000 		.4byte	.LVL29
 4732 02b0 0100     		.2byte	0x1
 4733 02b2 53       		.byte	0x53
 4734 02b3 00000000 		.4byte	0
 4735 02b7 00000000 		.4byte	0
 4736              	.LLST20:
 4737 02bb 0C000000 		.4byte	.LVL24
 4738 02bf 16000000 		.4byte	.LVL27
 4739 02c3 0600     		.2byte	0x6
 4740 02c5 71       		.byte	0x71
 4741 02c6 00       		.sleb128 0
 4742 02c7 73       		.byte	0x73
 4743 02c8 00       		.sleb128 0
 4744 02c9 22       		.byte	0x22
 4745 02ca 9F       		.byte	0x9f
 4746 02cb 16000000 		.4byte	.LVL27
 4747 02cf 18000000 		.4byte	.LVL28
 4748 02d3 0800     		.2byte	0x8
 4749 02d5 71       		.byte	0x71
 4750 02d6 00       		.sleb128 0
 4751 02d7 73       		.byte	0x73
 4752 02d8 00       		.sleb128 0
 4753 02d9 22       		.byte	0x22
 4754 02da 31       		.byte	0x31
 4755 02db 1C       		.byte	0x1c
 4756 02dc 9F       		.byte	0x9f
 4757 02dd 00000000 		.4byte	0
 4758 02e1 00000000 		.4byte	0
 4759              	.LLST21:
 4760 02e5 0C000000 		.4byte	.LVL24
 4761 02e9 0E000000 		.4byte	.LVL25
 4762 02ed 0100     		.2byte	0x1
 4763 02ef 50       		.byte	0x50
 4764 02f0 00000000 		.4byte	0
 4765 02f4 00000000 		.4byte	0
 4766              	.LLST22:
 4767 02f8 12000000 		.4byte	.LVL26
 4768 02fc 16000000 		.4byte	.LVL27
 4769 0300 0500     		.2byte	0x5
 4770 0302 71       		.byte	0x71
 4771 0303 00       		.sleb128 0
 4772 0304 73       		.byte	0x73
 4773 0305 00       		.sleb128 0
 4774 0306 22       		.byte	0x22
 4775 0307 16000000 		.4byte	.LVL27
 4776 030b 18000000 		.4byte	.LVL28
 4777 030f 0700     		.2byte	0x7
 4778 0311 71       		.byte	0x71
 4779 0312 00       		.sleb128 0
 4780 0313 73       		.byte	0x73
 4781 0314 00       		.sleb128 0
 4782 0315 22       		.byte	0x22
 4783 0316 31       		.byte	0x31
ARM GAS  /var/folders/z0/6xlwn_996xz3mwq1cgzkbq4r0000gp/T//cckgJHwF.s 			page 106


 4784 0317 1C       		.byte	0x1c
 4785 0318 00000000 		.4byte	0
 4786 031c 00000000 		.4byte	0
 4787              	.LLST23:
 4788 0320 12000000 		.4byte	.LVL26
 4789 0324 18000000 		.4byte	.LVL28
 4790 0328 0100     		.2byte	0x1
 4791 032a 50       		.byte	0x50
 4792 032b 00000000 		.4byte	0
 4793 032f 00000000 		.4byte	0
 4794              	.LLST24:
 4795 0333 00000000 		.4byte	.LVL35
 4796 0337 24000000 		.4byte	.LVL45
 4797 033b 0100     		.2byte	0x1
 4798 033d 50       		.byte	0x50
 4799 033e 24000000 		.4byte	.LVL45
 4800 0342 26000000 		.4byte	.LVL46
 4801 0346 0400     		.2byte	0x4
 4802 0348 F3       		.byte	0xf3
 4803 0349 01       		.uleb128 0x1
 4804 034a 50       		.byte	0x50
 4805 034b 9F       		.byte	0x9f
 4806 034c 26000000 		.4byte	.LVL46
 4807 0350 2E000000 		.4byte	.LFE202
 4808 0354 0100     		.2byte	0x1
 4809 0356 50       		.byte	0x50
 4810 0357 00000000 		.4byte	0
 4811 035b 00000000 		.4byte	0
 4812              	.LLST25:
 4813 035f 00000000 		.4byte	.LVL35
 4814 0363 22000000 		.4byte	.LVL44
 4815 0367 0100     		.2byte	0x1
 4816 0369 52       		.byte	0x52
 4817 036a 22000000 		.4byte	.LVL44
 4818 036e 26000000 		.4byte	.LVL46
 4819 0372 0400     		.2byte	0x4
 4820 0374 F3       		.byte	0xf3
 4821 0375 01       		.uleb128 0x1
 4822 0376 52       		.byte	0x52
 4823 0377 9F       		.byte	0x9f
 4824 0378 26000000 		.4byte	.LVL46
 4825 037c 28000000 		.4byte	.LVL47
 4826 0380 0100     		.2byte	0x1
 4827 0382 52       		.byte	0x52
 4828 0383 28000000 		.4byte	.LVL47
 4829 0387 2A000000 		.4byte	.LVL48
 4830 038b 0400     		.2byte	0x4
 4831 038d F3       		.byte	0xf3
 4832 038e 01       		.uleb128 0x1
 4833 038f 52       		.byte	0x52
 4834 0390 9F       		.byte	0x9f
 4835 0391 2A000000 		.4byte	.LVL48
 4836 0395 2C000000 		.4byte	.LVL49
 4837 0399 0100     		.2byte	0x1
 4838 039b 52       		.byte	0x52
 4839 039c 2C000000 		.4byte	.LVL49
 4840 03a0 2E000000 		.4byte	.LFE202
ARM GAS  /var/folders/z0/6xlwn_996xz3mwq1cgzkbq4r0000gp/T//cckgJHwF.s 			page 107


 4841 03a4 0400     		.2byte	0x4
 4842 03a6 F3       		.byte	0xf3
 4843 03a7 01       		.uleb128 0x1
 4844 03a8 52       		.byte	0x52
 4845 03a9 9F       		.byte	0x9f
 4846 03aa 00000000 		.4byte	0
 4847 03ae 00000000 		.4byte	0
 4848              	.LLST26:
 4849 03b2 00000000 		.4byte	.LVL35
 4850 03b6 12000000 		.4byte	.LVL38
 4851 03ba 0200     		.2byte	0x2
 4852 03bc 30       		.byte	0x30
 4853 03bd 9F       		.byte	0x9f
 4854 03be 12000000 		.4byte	.LVL38
 4855 03c2 22000000 		.4byte	.LVL44
 4856 03c6 0100     		.2byte	0x1
 4857 03c8 53       		.byte	0x53
 4858 03c9 26000000 		.4byte	.LVL46
 4859 03cd 2A000000 		.4byte	.LVL48
 4860 03d1 0100     		.2byte	0x1
 4861 03d3 53       		.byte	0x53
 4862 03d4 2A000000 		.4byte	.LVL48
 4863 03d8 2E000000 		.4byte	.LFE202
 4864 03dc 0200     		.2byte	0x2
 4865 03de 30       		.byte	0x30
 4866 03df 9F       		.byte	0x9f
 4867 03e0 00000000 		.4byte	0
 4868 03e4 00000000 		.4byte	0
 4869              	.LLST27:
 4870 03e8 00000000 		.4byte	.LVL35
 4871 03ec 12000000 		.4byte	.LVL38
 4872 03f0 0100     		.2byte	0x1
 4873 03f2 51       		.byte	0x51
 4874 03f3 12000000 		.4byte	.LVL38
 4875 03f7 1C000000 		.4byte	.LVL42
 4876 03fb 0600     		.2byte	0x6
 4877 03fd 71       		.byte	0x71
 4878 03fe 00       		.sleb128 0
 4879 03ff 73       		.byte	0x73
 4880 0400 00       		.sleb128 0
 4881 0401 22       		.byte	0x22
 4882 0402 9F       		.byte	0x9f
 4883 0403 1C000000 		.4byte	.LVL42
 4884 0407 1E000000 		.4byte	.LVL43
 4885 040b 0800     		.2byte	0x8
 4886 040d 71       		.byte	0x71
 4887 040e 00       		.sleb128 0
 4888 040f 73       		.byte	0x73
 4889 0410 00       		.sleb128 0
 4890 0411 22       		.byte	0x22
 4891 0412 23       		.byte	0x23
 4892 0413 01       		.uleb128 0x1
 4893 0414 9F       		.byte	0x9f
 4894 0415 1E000000 		.4byte	.LVL43
 4895 0419 22000000 		.4byte	.LVL44
 4896 041d 0600     		.2byte	0x6
 4897 041f 71       		.byte	0x71
ARM GAS  /var/folders/z0/6xlwn_996xz3mwq1cgzkbq4r0000gp/T//cckgJHwF.s 			page 108


 4898 0420 00       		.sleb128 0
 4899 0421 73       		.byte	0x73
 4900 0422 00       		.sleb128 0
 4901 0423 22       		.byte	0x22
 4902 0424 9F       		.byte	0x9f
 4903 0425 26000000 		.4byte	.LVL46
 4904 0429 2A000000 		.4byte	.LVL48
 4905 042d 0600     		.2byte	0x6
 4906 042f 71       		.byte	0x71
 4907 0430 00       		.sleb128 0
 4908 0431 73       		.byte	0x73
 4909 0432 00       		.sleb128 0
 4910 0433 22       		.byte	0x22
 4911 0434 9F       		.byte	0x9f
 4912 0435 2A000000 		.4byte	.LVL48
 4913 0439 2E000000 		.4byte	.LFE202
 4914 043d 0100     		.2byte	0x1
 4915 043f 51       		.byte	0x51
 4916 0440 00000000 		.4byte	0
 4917 0444 00000000 		.4byte	0
 4918              	.LLST28:
 4919 0448 06000000 		.4byte	.LVL36
 4920 044c 08000000 		.4byte	.LVL37
 4921 0450 0100     		.2byte	0x1
 4922 0452 50       		.byte	0x50
 4923 0453 12000000 		.4byte	.LVL38
 4924 0457 14000000 		.4byte	.LVL39
 4925 045b 0100     		.2byte	0x1
 4926 045d 50       		.byte	0x50
 4927 045e 00000000 		.4byte	0
 4928 0462 00000000 		.4byte	0
 4929              	.LLST29:
 4930 0466 18000000 		.4byte	.LVL40
 4931 046a 1A000000 		.4byte	.LVL41
 4932 046e 0100     		.2byte	0x1
 4933 0470 50       		.byte	0x50
 4934 0471 00000000 		.4byte	0
 4935 0475 00000000 		.4byte	0
 4936              	.LLST30:
 4937 0479 00000000 		.4byte	.LVL50
 4938 047d 28000000 		.4byte	.LVL63
 4939 0481 0100     		.2byte	0x1
 4940 0483 50       		.byte	0x50
 4941 0484 28000000 		.4byte	.LVL63
 4942 0488 2A000000 		.4byte	.LFE203
 4943 048c 0400     		.2byte	0x4
 4944 048e F3       		.byte	0xf3
 4945 048f 01       		.uleb128 0x1
 4946 0490 50       		.byte	0x50
 4947 0491 9F       		.byte	0x9f
 4948 0492 00000000 		.4byte	0
 4949 0496 00000000 		.4byte	0
 4950              	.LLST31:
 4951 049a 00000000 		.4byte	.LVL50
 4952 049e 0A000000 		.4byte	.LVL51
 4953 04a2 0100     		.2byte	0x1
 4954 04a4 51       		.byte	0x51
ARM GAS  /var/folders/z0/6xlwn_996xz3mwq1cgzkbq4r0000gp/T//cckgJHwF.s 			page 109


 4955 04a5 0A000000 		.4byte	.LVL51
 4956 04a9 2A000000 		.4byte	.LFE203
 4957 04ad 0400     		.2byte	0x4
 4958 04af F3       		.byte	0xf3
 4959 04b0 01       		.uleb128 0x1
 4960 04b1 51       		.byte	0x51
 4961 04b2 9F       		.byte	0x9f
 4962 04b3 00000000 		.4byte	0
 4963 04b7 00000000 		.4byte	0
 4964              	.LLST32:
 4965 04bb 00000000 		.4byte	.LVL50
 4966 04bf 20000000 		.4byte	.LVL60
 4967 04c3 0100     		.2byte	0x1
 4968 04c5 52       		.byte	0x52
 4969 04c6 20000000 		.4byte	.LVL60
 4970 04ca 2A000000 		.4byte	.LFE203
 4971 04ce 0100     		.2byte	0x1
 4972 04d0 52       		.byte	0x52
 4973 04d1 00000000 		.4byte	0
 4974 04d5 00000000 		.4byte	0
 4975              	.LLST33:
 4976 04d9 00000000 		.4byte	.LVL50
 4977 04dd 0A000000 		.4byte	.LVL51
 4978 04e1 0200     		.2byte	0x2
 4979 04e3 30       		.byte	0x30
 4980 04e4 9F       		.byte	0x9f
 4981 04e5 0A000000 		.4byte	.LVL51
 4982 04e9 1E000000 		.4byte	.LVL59
 4983 04ed 0100     		.2byte	0x1
 4984 04ef 56       		.byte	0x56
 4985 04f0 20000000 		.4byte	.LVL60
 4986 04f4 26000000 		.4byte	.LVL62
 4987 04f8 0100     		.2byte	0x1
 4988 04fa 56       		.byte	0x56
 4989 04fb 00000000 		.4byte	0
 4990 04ff 00000000 		.4byte	0
 4991              	.LLST34:
 4992 0503 0C000000 		.4byte	.LVL52
 4993 0507 1C000000 		.4byte	.LVL58
 4994 050b 0100     		.2byte	0x1
 4995 050d 53       		.byte	0x53
 4996 050e 00000000 		.4byte	0
 4997 0512 00000000 		.4byte	0
 4998              	.LLST35:
 4999 0516 0C000000 		.4byte	.LVL52
 5000 051a 16000000 		.4byte	.LVL56
 5001 051e 0600     		.2byte	0x6
 5002 0520 71       		.byte	0x71
 5003 0521 00       		.sleb128 0
 5004 0522 73       		.byte	0x73
 5005 0523 00       		.sleb128 0
 5006 0524 22       		.byte	0x22
 5007 0525 9F       		.byte	0x9f
 5008 0526 16000000 		.4byte	.LVL56
 5009 052a 18000000 		.4byte	.LVL57
 5010 052e 0800     		.2byte	0x8
 5011 0530 71       		.byte	0x71
ARM GAS  /var/folders/z0/6xlwn_996xz3mwq1cgzkbq4r0000gp/T//cckgJHwF.s 			page 110


 5012 0531 00       		.sleb128 0
 5013 0532 73       		.byte	0x73
 5014 0533 00       		.sleb128 0
 5015 0534 22       		.byte	0x22
 5016 0535 23       		.byte	0x23
 5017 0536 01       		.uleb128 0x1
 5018 0537 9F       		.byte	0x9f
 5019 0538 18000000 		.4byte	.LVL57
 5020 053c 1C000000 		.4byte	.LVL58
 5021 0540 0600     		.2byte	0x6
 5022 0542 71       		.byte	0x71
 5023 0543 00       		.sleb128 0
 5024 0544 73       		.byte	0x73
 5025 0545 00       		.sleb128 0
 5026 0546 22       		.byte	0x22
 5027 0547 9F       		.byte	0x9f
 5028 0548 00000000 		.4byte	0
 5029 054c 00000000 		.4byte	0
 5030              	.LLST36:
 5031 0550 0C000000 		.4byte	.LVL52
 5032 0554 0E000000 		.4byte	.LVL53
 5033 0558 0100     		.2byte	0x1
 5034 055a 50       		.byte	0x50
 5035 055b 00000000 		.4byte	0
 5036 055f 00000000 		.4byte	0
 5037              	.LLST37:
 5038 0563 12000000 		.4byte	.LVL54
 5039 0567 14000000 		.4byte	.LVL55
 5040 056b 0100     		.2byte	0x1
 5041 056d 50       		.byte	0x50
 5042 056e 00000000 		.4byte	0
 5043 0572 00000000 		.4byte	0
 5044              	.LLST38:
 5045 0576 00000000 		.4byte	.LVL64
 5046 057a 09000000 		.4byte	.LVL65-1
 5047 057e 0100     		.2byte	0x1
 5048 0580 50       		.byte	0x50
 5049 0581 09000000 		.4byte	.LVL65-1
 5050 0585 36000000 		.4byte	.LVL77
 5051 0589 0100     		.2byte	0x1
 5052 058b 54       		.byte	0x54
 5053 058c 36000000 		.4byte	.LVL77
 5054 0590 38000000 		.4byte	.LFE204
 5055 0594 0400     		.2byte	0x4
 5056 0596 F3       		.byte	0xf3
 5057 0597 01       		.uleb128 0x1
 5058 0598 50       		.byte	0x50
 5059 0599 9F       		.byte	0x9f
 5060 059a 00000000 		.4byte	0
 5061 059e 00000000 		.4byte	0
 5062              	.LLST39:
 5063 05a2 00000000 		.4byte	.LVL64
 5064 05a6 09000000 		.4byte	.LVL65-1
 5065 05aa 0100     		.2byte	0x1
 5066 05ac 51       		.byte	0x51
 5067 05ad 09000000 		.4byte	.LVL65-1
 5068 05b1 1A000000 		.4byte	.LVL69
ARM GAS  /var/folders/z0/6xlwn_996xz3mwq1cgzkbq4r0000gp/T//cckgJHwF.s 			page 111


 5069 05b5 0100     		.2byte	0x1
 5070 05b7 56       		.byte	0x56
 5071 05b8 1A000000 		.4byte	.LVL69
 5072 05bc 38000000 		.4byte	.LFE204
 5073 05c0 0400     		.2byte	0x4
 5074 05c2 F3       		.byte	0xf3
 5075 05c3 01       		.uleb128 0x1
 5076 05c4 51       		.byte	0x51
 5077 05c5 9F       		.byte	0x9f
 5078 05c6 00000000 		.4byte	0
 5079 05ca 00000000 		.4byte	0
 5080              	.LLST40:
 5081 05ce 16000000 		.4byte	.LVL68
 5082 05d2 22000000 		.4byte	.LVL72
 5083 05d6 0100     		.2byte	0x1
 5084 05d8 50       		.byte	0x50
 5085 05d9 22000000 		.4byte	.LVL72
 5086 05dd 35000000 		.4byte	.LVL76-1
 5087 05e1 0100     		.2byte	0x1
 5088 05e3 51       		.byte	0x51
 5089 05e4 00000000 		.4byte	0
 5090 05e8 00000000 		.4byte	0
 5091              	.LLST41:
 5092 05ec 16000000 		.4byte	.LVL68
 5093 05f0 20000000 		.4byte	.LVL71
 5094 05f4 0500     		.2byte	0x5
 5095 05f6 70       		.byte	0x70
 5096 05f7 00       		.sleb128 0
 5097 05f8 38       		.byte	0x38
 5098 05f9 25       		.byte	0x25
 5099 05fa 9F       		.byte	0x9f
 5100 05fb 20000000 		.4byte	.LVL71
 5101 05ff 26000000 		.4byte	.LVL73
 5102 0603 0100     		.2byte	0x1
 5103 0605 53       		.byte	0x53
 5104 0606 26000000 		.4byte	.LVL73
 5105 060a 35000000 		.4byte	.LVL76-1
 5106 060e 0500     		.2byte	0x5
 5107 0610 71       		.byte	0x71
 5108 0611 00       		.sleb128 0
 5109 0612 38       		.byte	0x38
 5110 0613 25       		.byte	0x25
 5111 0614 9F       		.byte	0x9f
 5112 0615 00000000 		.4byte	0
 5113 0619 00000000 		.4byte	0
 5114              	.LLST42:
 5115 061d 16000000 		.4byte	.LVL68
 5116 0621 22000000 		.4byte	.LVL72
 5117 0625 0A00     		.2byte	0xa
 5118 0627 70       		.byte	0x70
 5119 0628 00       		.sleb128 0
 5120 0629 70       		.byte	0x70
 5121 062a 00       		.sleb128 0
 5122 062b 38       		.byte	0x38
 5123 062c 25       		.byte	0x25
 5124 062d 38       		.byte	0x38
 5125 062e 24       		.byte	0x24
ARM GAS  /var/folders/z0/6xlwn_996xz3mwq1cgzkbq4r0000gp/T//cckgJHwF.s 			page 112


 5126 062f 1C       		.byte	0x1c
 5127 0630 9F       		.byte	0x9f
 5128 0631 22000000 		.4byte	.LVL72
 5129 0635 35000000 		.4byte	.LVL76-1
 5130 0639 0A00     		.2byte	0xa
 5131 063b 71       		.byte	0x71
 5132 063c 00       		.sleb128 0
 5133 063d 71       		.byte	0x71
 5134 063e 00       		.sleb128 0
 5135 063f 38       		.byte	0x38
 5136 0640 25       		.byte	0x25
 5137 0641 38       		.byte	0x38
 5138 0642 24       		.byte	0x24
 5139 0643 1C       		.byte	0x1c
 5140 0644 9F       		.byte	0x9f
 5141 0645 00000000 		.4byte	0
 5142 0649 00000000 		.4byte	0
 5143              	.LLST43:
 5144 064d 0E000000 		.4byte	.LVL66
 5145 0651 11000000 		.4byte	.LVL67-1
 5146 0655 0100     		.2byte	0x1
 5147 0657 50       		.byte	0x50
 5148 0658 11000000 		.4byte	.LVL67-1
 5149 065c 36000000 		.4byte	.LVL78
 5150 0660 0100     		.2byte	0x1
 5151 0662 55       		.byte	0x55
 5152 0663 00000000 		.4byte	0
 5153 0667 00000000 		.4byte	0
 5154              	.LLST44:
 5155 066b 16000000 		.4byte	.LVL68
 5156 066f 1E000000 		.4byte	.LVL70
 5157 0673 0100     		.2byte	0x1
 5158 0675 54       		.byte	0x54
 5159 0676 00000000 		.4byte	0
 5160 067a 00000000 		.4byte	0
 5161              	.LLST45:
 5162 067e 1E000000 		.4byte	.LVL70
 5163 0682 22000000 		.4byte	.LVL72
 5164 0686 0500     		.2byte	0x5
 5165 0688 70       		.byte	0x70
 5166 0689 00       		.sleb128 0
 5167 068a 38       		.byte	0x38
 5168 068b 25       		.byte	0x25
 5169 068c 9F       		.byte	0x9f
 5170 068d 22000000 		.4byte	.LVL72
 5171 0691 2A000000 		.4byte	.LVL74
 5172 0695 0500     		.2byte	0x5
 5173 0697 71       		.byte	0x71
 5174 0698 00       		.sleb128 0
 5175 0699 38       		.byte	0x38
 5176 069a 25       		.byte	0x25
 5177 069b 9F       		.byte	0x9f
 5178 069c 00000000 		.4byte	0
 5179 06a0 00000000 		.4byte	0
 5180              	.LLST46:
 5181 06a4 1E000000 		.4byte	.LVL70
 5182 06a8 22000000 		.4byte	.LVL72
ARM GAS  /var/folders/z0/6xlwn_996xz3mwq1cgzkbq4r0000gp/T//cckgJHwF.s 			page 113


 5183 06ac 0A00     		.2byte	0xa
 5184 06ae 70       		.byte	0x70
 5185 06af 00       		.sleb128 0
 5186 06b0 70       		.byte	0x70
 5187 06b1 00       		.sleb128 0
 5188 06b2 38       		.byte	0x38
 5189 06b3 25       		.byte	0x25
 5190 06b4 38       		.byte	0x38
 5191 06b5 24       		.byte	0x24
 5192 06b6 1C       		.byte	0x1c
 5193 06b7 9F       		.byte	0x9f
 5194 06b8 22000000 		.4byte	.LVL72
 5195 06bc 2A000000 		.4byte	.LVL74
 5196 06c0 0A00     		.2byte	0xa
 5197 06c2 71       		.byte	0x71
 5198 06c3 00       		.sleb128 0
 5199 06c4 71       		.byte	0x71
 5200 06c5 00       		.sleb128 0
 5201 06c6 38       		.byte	0x38
 5202 06c7 25       		.byte	0x25
 5203 06c8 38       		.byte	0x38
 5204 06c9 24       		.byte	0x24
 5205 06ca 1C       		.byte	0x1c
 5206 06cb 9F       		.byte	0x9f
 5207 06cc 00000000 		.4byte	0
 5208 06d0 00000000 		.4byte	0
 5209              	.LLST47:
 5210 06d4 1E000000 		.4byte	.LVL70
 5211 06d8 2A000000 		.4byte	.LVL74
 5212 06dc 0100     		.2byte	0x1
 5213 06de 54       		.byte	0x54
 5214 06df 00000000 		.4byte	0
 5215 06e3 00000000 		.4byte	0
 5216              	.LLST48:
 5217 06e7 2A000000 		.4byte	.LVL74
 5218 06eb 32000000 		.4byte	.LVL75
 5219 06ef 0100     		.2byte	0x1
 5220 06f1 54       		.byte	0x54
 5221 06f2 00000000 		.4byte	0
 5222 06f6 00000000 		.4byte	0
 5223              	.LLST49:
 5224 06fa 00000000 		.4byte	.LVL79
 5225 06fe 14000000 		.4byte	.LVL81
 5226 0702 0100     		.2byte	0x1
 5227 0704 50       		.byte	0x50
 5228 0705 14000000 		.4byte	.LVL81
 5229 0709 28000000 		.4byte	.LVL85
 5230 070d 0100     		.2byte	0x1
 5231 070f 54       		.byte	0x54
 5232 0710 28000000 		.4byte	.LVL85
 5233 0714 2A000000 		.4byte	.LFE205
 5234 0718 0400     		.2byte	0x4
 5235 071a F3       		.byte	0xf3
 5236 071b 01       		.uleb128 0x1
 5237 071c 50       		.byte	0x50
 5238 071d 9F       		.byte	0x9f
 5239 071e 00000000 		.4byte	0
ARM GAS  /var/folders/z0/6xlwn_996xz3mwq1cgzkbq4r0000gp/T//cckgJHwF.s 			page 114


 5240 0722 00000000 		.4byte	0
 5241              	.LLST50:
 5242 0726 00000000 		.4byte	.LVL79
 5243 072a 14000000 		.4byte	.LVL81
 5244 072e 0100     		.2byte	0x1
 5245 0730 51       		.byte	0x51
 5246 0731 14000000 		.4byte	.LVL81
 5247 0735 28000000 		.4byte	.LVL86
 5248 0739 0100     		.2byte	0x1
 5249 073b 57       		.byte	0x57
 5250 073c 28000000 		.4byte	.LVL86
 5251 0740 2A000000 		.4byte	.LFE205
 5252 0744 0400     		.2byte	0x4
 5253 0746 F3       		.byte	0xf3
 5254 0747 01       		.uleb128 0x1
 5255 0748 51       		.byte	0x51
 5256 0749 9F       		.byte	0x9f
 5257 074a 00000000 		.4byte	0
 5258 074e 00000000 		.4byte	0
 5259              	.LLST51:
 5260 0752 00000000 		.4byte	.LVL79
 5261 0756 08000000 		.4byte	.LVL80
 5262 075a 0100     		.2byte	0x1
 5263 075c 50       		.byte	0x50
 5264 075d 20000000 		.4byte	.LVL83
 5265 0761 22000000 		.4byte	.LVL84
 5266 0765 0100     		.2byte	0x1
 5267 0767 54       		.byte	0x54
 5268 0768 00000000 		.4byte	0
 5269 076c 00000000 		.4byte	0
 5270              	.LLST52:
 5271 0770 14000000 		.4byte	.LVL81
 5272 0774 16000000 		.4byte	.LVL82
 5273 0778 0100     		.2byte	0x1
 5274 077a 54       		.byte	0x54
 5275 077b 00000000 		.4byte	0
 5276 077f 00000000 		.4byte	0
 5277              	.LLST53:
 5278 0783 00000000 		.4byte	.LVL87
 5279 0787 16000000 		.4byte	.LVL89
 5280 078b 0100     		.2byte	0x1
 5281 078d 50       		.byte	0x50
 5282 078e 16000000 		.4byte	.LVL89
 5283 0792 2E000000 		.4byte	.LVL94
 5284 0796 0100     		.2byte	0x1
 5285 0798 54       		.byte	0x54
 5286 0799 2E000000 		.4byte	.LVL94
 5287 079d 30000000 		.4byte	.LFE206
 5288 07a1 0400     		.2byte	0x4
 5289 07a3 F3       		.byte	0xf3
 5290 07a4 01       		.uleb128 0x1
 5291 07a5 50       		.byte	0x50
 5292 07a6 9F       		.byte	0x9f
 5293 07a7 00000000 		.4byte	0
 5294 07ab 00000000 		.4byte	0
 5295              	.LLST54:
 5296 07af 00000000 		.4byte	.LVL87
ARM GAS  /var/folders/z0/6xlwn_996xz3mwq1cgzkbq4r0000gp/T//cckgJHwF.s 			page 115


 5297 07b3 16000000 		.4byte	.LVL89
 5298 07b7 0100     		.2byte	0x1
 5299 07b9 51       		.byte	0x51
 5300 07ba 16000000 		.4byte	.LVL89
 5301 07be 2E000000 		.4byte	.LVL95
 5302 07c2 0100     		.2byte	0x1
 5303 07c4 56       		.byte	0x56
 5304 07c5 2E000000 		.4byte	.LVL95
 5305 07c9 30000000 		.4byte	.LFE206
 5306 07cd 0400     		.2byte	0x4
 5307 07cf F3       		.byte	0xf3
 5308 07d0 01       		.uleb128 0x1
 5309 07d1 51       		.byte	0x51
 5310 07d2 9F       		.byte	0x9f
 5311 07d3 00000000 		.4byte	0
 5312 07d7 00000000 		.4byte	0
 5313              	.LLST55:
 5314 07db 00000000 		.4byte	.LVL87
 5315 07df 08000000 		.4byte	.LVL88
 5316 07e3 0100     		.2byte	0x1
 5317 07e5 50       		.byte	0x50
 5318 07e6 1A000000 		.4byte	.LVL90
 5319 07ea 1C000000 		.4byte	.LVL91
 5320 07ee 0100     		.2byte	0x1
 5321 07f0 54       		.byte	0x54
 5322 07f1 00000000 		.4byte	0
 5323 07f5 00000000 		.4byte	0
 5324              	.LLST56:
 5325 07f9 16000000 		.4byte	.LVL89
 5326 07fd 20000000 		.4byte	.LVL92
 5327 0801 0200     		.2byte	0x2
 5328 0803 91       		.byte	0x91
 5329 0804 67       		.sleb128 -25
 5330 0805 00000000 		.4byte	0
 5331 0809 00000000 		.4byte	0
 5332              	.LLST57:
 5333 080d 16000000 		.4byte	.LVL89
 5334 0811 20000000 		.4byte	.LVL92
 5335 0815 0100     		.2byte	0x1
 5336 0817 54       		.byte	0x54
 5337 0818 00000000 		.4byte	0
 5338 081c 00000000 		.4byte	0
 5339              	.LLST58:
 5340 0820 00000000 		.4byte	.LVL96
 5341 0824 1E000000 		.4byte	.LVL102
 5342 0828 0100     		.2byte	0x1
 5343 082a 50       		.byte	0x50
 5344 082b 1E000000 		.4byte	.LVL102
 5345 082f 42000000 		.4byte	.LVL110
 5346 0833 0100     		.2byte	0x1
 5347 0835 54       		.byte	0x54
 5348 0836 42000000 		.4byte	.LVL110
 5349 083a 4A000000 		.4byte	.LFE207
 5350 083e 0400     		.2byte	0x4
 5351 0840 F3       		.byte	0xf3
 5352 0841 01       		.uleb128 0x1
 5353 0842 50       		.byte	0x50
ARM GAS  /var/folders/z0/6xlwn_996xz3mwq1cgzkbq4r0000gp/T//cckgJHwF.s 			page 116


 5354 0843 9F       		.byte	0x9f
 5355 0844 00000000 		.4byte	0
 5356 0848 00000000 		.4byte	0
 5357              	.LLST59:
 5358 084c 00000000 		.4byte	.LVL96
 5359 0850 1C000000 		.4byte	.LVL101
 5360 0854 0100     		.2byte	0x1
 5361 0856 51       		.byte	0x51
 5362 0857 1C000000 		.4byte	.LVL101
 5363 085b 42000000 		.4byte	.LVL113
 5364 085f 0100     		.2byte	0x1
 5365 0861 59       		.byte	0x59
 5366 0862 42000000 		.4byte	.LVL113
 5367 0866 4A000000 		.4byte	.LFE207
 5368 086a 0400     		.2byte	0x4
 5369 086c F3       		.byte	0xf3
 5370 086d 01       		.uleb128 0x1
 5371 086e 51       		.byte	0x51
 5372 086f 9F       		.byte	0x9f
 5373 0870 00000000 		.4byte	0
 5374 0874 00000000 		.4byte	0
 5375              	.LLST60:
 5376 0878 00000000 		.4byte	.LVL96
 5377 087c 18000000 		.4byte	.LVL99
 5378 0880 0100     		.2byte	0x1
 5379 0882 52       		.byte	0x52
 5380 0883 18000000 		.4byte	.LVL99
 5381 0887 42000000 		.4byte	.LVL111
 5382 088b 0100     		.2byte	0x1
 5383 088d 56       		.byte	0x56
 5384 088e 42000000 		.4byte	.LVL111
 5385 0892 4A000000 		.4byte	.LFE207
 5386 0896 0400     		.2byte	0x4
 5387 0898 F3       		.byte	0xf3
 5388 0899 01       		.uleb128 0x1
 5389 089a 52       		.byte	0x52
 5390 089b 9F       		.byte	0x9f
 5391 089c 00000000 		.4byte	0
 5392 08a0 00000000 		.4byte	0
 5393              	.LLST61:
 5394 08a4 00000000 		.4byte	.LVL96
 5395 08a8 12000000 		.4byte	.LVL98
 5396 08ac 0100     		.2byte	0x1
 5397 08ae 53       		.byte	0x53
 5398 08af 12000000 		.4byte	.LVL98
 5399 08b3 42000000 		.4byte	.LVL112
 5400 08b7 0100     		.2byte	0x1
 5401 08b9 57       		.byte	0x57
 5402 08ba 42000000 		.4byte	.LVL112
 5403 08be 4A000000 		.4byte	.LFE207
 5404 08c2 0400     		.2byte	0x4
 5405 08c4 F3       		.byte	0xf3
 5406 08c5 01       		.uleb128 0x1
 5407 08c6 53       		.byte	0x53
 5408 08c7 9F       		.byte	0x9f
 5409 08c8 00000000 		.4byte	0
 5410 08cc 00000000 		.4byte	0
ARM GAS  /var/folders/z0/6xlwn_996xz3mwq1cgzkbq4r0000gp/T//cckgJHwF.s 			page 117


 5411              	.LLST62:
 5412 08d0 24000000 		.4byte	.LVL104
 5413 08d4 28000000 		.4byte	.LVL105
 5414 08d8 0100     		.2byte	0x1
 5415 08da 50       		.byte	0x50
 5416 08db 28000000 		.4byte	.LVL105
 5417 08df 3A000000 		.4byte	.LVL107
 5418 08e3 0100     		.2byte	0x1
 5419 08e5 58       		.byte	0x58
 5420 08e6 3A000000 		.4byte	.LVL107
 5421 08ea 3E000000 		.4byte	.LVL108
 5422 08ee 0600     		.2byte	0x6
 5423 08f0 78       		.byte	0x78
 5424 08f1 00       		.sleb128 0
 5425 08f2 70       		.byte	0x70
 5426 08f3 00       		.sleb128 0
 5427 08f4 22       		.byte	0x22
 5428 08f5 9F       		.byte	0x9f
 5429 08f6 3E000000 		.4byte	.LVL108
 5430 08fa 4A000000 		.4byte	.LFE207
 5431 08fe 0100     		.2byte	0x1
 5432 0900 50       		.byte	0x50
 5433 0901 00000000 		.4byte	0
 5434 0905 00000000 		.4byte	0
 5435              	.LLST63:
 5436 0909 0E000000 		.4byte	.LVL97
 5437 090d 18000000 		.4byte	.LVL99
 5438 0911 0100     		.2byte	0x1
 5439 0913 52       		.byte	0x52
 5440 0914 18000000 		.4byte	.LVL99
 5441 0918 42000000 		.4byte	.LVL111
 5442 091c 0100     		.2byte	0x1
 5443 091e 56       		.byte	0x56
 5444 091f 42000000 		.4byte	.LVL111
 5445 0923 4A000000 		.4byte	.LFE207
 5446 0927 0400     		.2byte	0x4
 5447 0929 F3       		.byte	0xf3
 5448 092a 01       		.uleb128 0x1
 5449 092b 52       		.byte	0x52
 5450 092c 9F       		.byte	0x9f
 5451 092d 00000000 		.4byte	0
 5452 0931 00000000 		.4byte	0
 5453              	.LLST64:
 5454 0935 0E000000 		.4byte	.LVL97
 5455 0939 1A000000 		.4byte	.LVL100
 5456 093d 0200     		.2byte	0x2
 5457 093f 32       		.byte	0x32
 5458 0940 9F       		.byte	0x9f
 5459 0941 00000000 		.4byte	0
 5460 0945 00000000 		.4byte	0
 5461              	.LLST65:
 5462 0949 0E000000 		.4byte	.LVL97
 5463 094d 1A000000 		.4byte	.LVL100
 5464 0951 0100     		.2byte	0x1
 5465 0953 50       		.byte	0x50
 5466 0954 00000000 		.4byte	0
 5467 0958 00000000 		.4byte	0
ARM GAS  /var/folders/z0/6xlwn_996xz3mwq1cgzkbq4r0000gp/T//cckgJHwF.s 			page 118


 5468              	.LLST66:
 5469 095c 3A000000 		.4byte	.LVL107
 5470 0960 42000000 		.4byte	.LVL109
 5471 0964 0200     		.2byte	0x2
 5472 0966 32       		.byte	0x32
 5473 0967 9F       		.byte	0x9f
 5474 0968 00000000 		.4byte	0
 5475 096c 00000000 		.4byte	0
 5476              	.LLST67:
 5477 0970 3A000000 		.4byte	.LVL107
 5478 0974 42000000 		.4byte	.LVL109
 5479 0978 0100     		.2byte	0x1
 5480 097a 54       		.byte	0x54
 5481 097b 00000000 		.4byte	0
 5482 097f 00000000 		.4byte	0
 5483              	.LLST68:
 5484 0983 00000000 		.4byte	.LVL114
 5485 0987 04000000 		.4byte	.LVL115
 5486 098b 0100     		.2byte	0x1
 5487 098d 50       		.byte	0x50
 5488 098e 04000000 		.4byte	.LVL115
 5489 0992 0E000000 		.4byte	.LFE208
 5490 0996 0400     		.2byte	0x4
 5491 0998 F3       		.byte	0xf3
 5492 0999 01       		.uleb128 0x1
 5493 099a 50       		.byte	0x50
 5494 099b 9F       		.byte	0x9f
 5495 099c 00000000 		.4byte	0
 5496 09a0 00000000 		.4byte	0
 5497              	.LLST69:
 5498 09a4 00000000 		.4byte	.LVL114
 5499 09a8 06000000 		.4byte	.LVL116
 5500 09ac 0100     		.2byte	0x1
 5501 09ae 51       		.byte	0x51
 5502 09af 06000000 		.4byte	.LVL116
 5503 09b3 0B000000 		.4byte	.LVL118-1
 5504 09b7 0100     		.2byte	0x1
 5505 09b9 50       		.byte	0x50
 5506 09ba 0B000000 		.4byte	.LVL118-1
 5507 09be 0E000000 		.4byte	.LFE208
 5508 09c2 0400     		.2byte	0x4
 5509 09c4 F3       		.byte	0xf3
 5510 09c5 01       		.uleb128 0x1
 5511 09c6 51       		.byte	0x51
 5512 09c7 9F       		.byte	0x9f
 5513 09c8 00000000 		.4byte	0
 5514 09cc 00000000 		.4byte	0
 5515              	.LLST70:
 5516 09d0 00000000 		.4byte	.LVL114
 5517 09d4 08000000 		.4byte	.LVL117
 5518 09d8 0100     		.2byte	0x1
 5519 09da 52       		.byte	0x52
 5520 09db 08000000 		.4byte	.LVL117
 5521 09df 0B000000 		.4byte	.LVL118-1
 5522 09e3 0100     		.2byte	0x1
 5523 09e5 51       		.byte	0x51
 5524 09e6 0B000000 		.4byte	.LVL118-1
ARM GAS  /var/folders/z0/6xlwn_996xz3mwq1cgzkbq4r0000gp/T//cckgJHwF.s 			page 119


 5525 09ea 0E000000 		.4byte	.LFE208
 5526 09ee 0400     		.2byte	0x4
 5527 09f0 F3       		.byte	0xf3
 5528 09f1 01       		.uleb128 0x1
 5529 09f2 52       		.byte	0x52
 5530 09f3 9F       		.byte	0x9f
 5531 09f4 00000000 		.4byte	0
 5532 09f8 00000000 		.4byte	0
 5533              	.LLST71:
 5534 09fc 00000000 		.4byte	.LVL114
 5535 0a00 0B000000 		.4byte	.LVL118-1
 5536 0a04 0100     		.2byte	0x1
 5537 0a06 53       		.byte	0x53
 5538 0a07 0B000000 		.4byte	.LVL118-1
 5539 0a0b 0E000000 		.4byte	.LFE208
 5540 0a0f 0400     		.2byte	0x4
 5541 0a11 F3       		.byte	0xf3
 5542 0a12 01       		.uleb128 0x1
 5543 0a13 53       		.byte	0x53
 5544 0a14 9F       		.byte	0x9f
 5545 0a15 00000000 		.4byte	0
 5546 0a19 00000000 		.4byte	0
 5547              	.LLST72:
 5548 0a1d 00000000 		.4byte	.LVL119
 5549 0a21 12000000 		.4byte	.LVL120
 5550 0a25 0100     		.2byte	0x1
 5551 0a27 50       		.byte	0x50
 5552 0a28 12000000 		.4byte	.LVL120
 5553 0a2c 32000000 		.4byte	.LVL127
 5554 0a30 0100     		.2byte	0x1
 5555 0a32 54       		.byte	0x54
 5556 0a33 32000000 		.4byte	.LVL127
 5557 0a37 34000000 		.4byte	.LVL129
 5558 0a3b 0400     		.2byte	0x4
 5559 0a3d F3       		.byte	0xf3
 5560 0a3e 01       		.uleb128 0x1
 5561 0a3f 50       		.byte	0x50
 5562 0a40 9F       		.byte	0x9f
 5563 0a41 34000000 		.4byte	.LVL129
 5564 0a45 39000000 		.4byte	.LVL131-1
 5565 0a49 0100     		.2byte	0x1
 5566 0a4b 50       		.byte	0x50
 5567 0a4c 39000000 		.4byte	.LVL131-1
 5568 0a50 4A000000 		.4byte	.LFE209
 5569 0a54 0100     		.2byte	0x1
 5570 0a56 54       		.byte	0x54
 5571 0a57 00000000 		.4byte	0
 5572 0a5b 00000000 		.4byte	0
 5573              	.LLST73:
 5574 0a5f 00000000 		.4byte	.LVL119
 5575 0a63 12000000 		.4byte	.LVL120
 5576 0a67 0100     		.2byte	0x1
 5577 0a69 51       		.byte	0x51
 5578 0a6a 12000000 		.4byte	.LVL120
 5579 0a6e 32000000 		.4byte	.LVL128
 5580 0a72 0100     		.2byte	0x1
 5581 0a74 57       		.byte	0x57
ARM GAS  /var/folders/z0/6xlwn_996xz3mwq1cgzkbq4r0000gp/T//cckgJHwF.s 			page 120


 5582 0a75 32000000 		.4byte	.LVL128
 5583 0a79 34000000 		.4byte	.LVL129
 5584 0a7d 0400     		.2byte	0x4
 5585 0a7f F3       		.byte	0xf3
 5586 0a80 01       		.uleb128 0x1
 5587 0a81 51       		.byte	0x51
 5588 0a82 9F       		.byte	0x9f
 5589 0a83 34000000 		.4byte	.LVL129
 5590 0a87 36000000 		.4byte	.LVL130
 5591 0a8b 0100     		.2byte	0x1
 5592 0a8d 51       		.byte	0x51
 5593 0a8e 36000000 		.4byte	.LVL130
 5594 0a92 4A000000 		.4byte	.LFE209
 5595 0a96 0100     		.2byte	0x1
 5596 0a98 57       		.byte	0x57
 5597 0a99 00000000 		.4byte	0
 5598 0a9d 00000000 		.4byte	0
 5599              	.LLST74:
 5600 0aa1 00000000 		.4byte	.LVL119
 5601 0aa5 12000000 		.4byte	.LVL120
 5602 0aa9 0100     		.2byte	0x1
 5603 0aab 52       		.byte	0x52
 5604 0aac 12000000 		.4byte	.LVL120
 5605 0ab0 1A000000 		.4byte	.LVL122
 5606 0ab4 0100     		.2byte	0x1
 5607 0ab6 56       		.byte	0x56
 5608 0ab7 1A000000 		.4byte	.LVL122
 5609 0abb 34000000 		.4byte	.LVL129
 5610 0abf 0400     		.2byte	0x4
 5611 0ac1 F3       		.byte	0xf3
 5612 0ac2 01       		.uleb128 0x1
 5613 0ac3 52       		.byte	0x52
 5614 0ac4 9F       		.byte	0x9f
 5615 0ac5 34000000 		.4byte	.LVL129
 5616 0ac9 39000000 		.4byte	.LVL131-1
 5617 0acd 0100     		.2byte	0x1
 5618 0acf 52       		.byte	0x52
 5619 0ad0 39000000 		.4byte	.LVL131-1
 5620 0ad4 4A000000 		.4byte	.LFE209
 5621 0ad8 0100     		.2byte	0x1
 5622 0ada 56       		.byte	0x56
 5623 0adb 00000000 		.4byte	0
 5624 0adf 00000000 		.4byte	0
 5625              	.LLST75:
 5626 0ae3 12000000 		.4byte	.LVL120
 5627 0ae7 16000000 		.4byte	.LVL121
 5628 0aeb 0100     		.2byte	0x1
 5629 0aed 54       		.byte	0x54
 5630 0aee 2A000000 		.4byte	.LVL125
 5631 0af2 2C000000 		.4byte	.LVL126
 5632 0af6 0100     		.2byte	0x1
 5633 0af8 54       		.byte	0x54
 5634 0af9 00000000 		.4byte	0
 5635 0afd 00000000 		.4byte	0
 5636              	.LLST76:
 5637 0b01 1E000000 		.4byte	.LVL123
 5638 0b05 20000000 		.4byte	.LVL124
ARM GAS  /var/folders/z0/6xlwn_996xz3mwq1cgzkbq4r0000gp/T//cckgJHwF.s 			page 121


 5639 0b09 0100     		.2byte	0x1
 5640 0b0b 54       		.byte	0x54
 5641 0b0c 00000000 		.4byte	0
 5642 0b10 00000000 		.4byte	0
 5643              	.LLST77:
 5644 0b14 00000000 		.4byte	.LVL133
 5645 0b18 0F000000 		.4byte	.LVL135-1
 5646 0b1c 0100     		.2byte	0x1
 5647 0b1e 50       		.byte	0x50
 5648 0b1f 0F000000 		.4byte	.LVL135-1
 5649 0b23 82000000 		.4byte	.LVL152
 5650 0b27 0100     		.2byte	0x1
 5651 0b29 54       		.byte	0x54
 5652 0b2a 82000000 		.4byte	.LVL152
 5653 0b2e 8A000000 		.4byte	.LVL154
 5654 0b32 0400     		.2byte	0x4
 5655 0b34 F3       		.byte	0xf3
 5656 0b35 01       		.uleb128 0x1
 5657 0b36 50       		.byte	0x50
 5658 0b37 9F       		.byte	0x9f
 5659 0b38 8A000000 		.4byte	.LVL154
 5660 0b3c 9C000000 		.4byte	.LFE210
 5661 0b40 0100     		.2byte	0x1
 5662 0b42 54       		.byte	0x54
 5663 0b43 00000000 		.4byte	0
 5664 0b47 00000000 		.4byte	0
 5665              	.LLST78:
 5666 0b4b 00000000 		.4byte	.LVL133
 5667 0b4f 0F000000 		.4byte	.LVL135-1
 5668 0b53 0100     		.2byte	0x1
 5669 0b55 51       		.byte	0x51
 5670 0b56 0F000000 		.4byte	.LVL135-1
 5671 0b5a 9C000000 		.4byte	.LFE210
 5672 0b5e 0400     		.2byte	0x4
 5673 0b60 F3       		.byte	0xf3
 5674 0b61 01       		.uleb128 0x1
 5675 0b62 51       		.byte	0x51
 5676 0b63 9F       		.byte	0x9f
 5677 0b64 00000000 		.4byte	0
 5678 0b68 00000000 		.4byte	0
 5679              	.LLST79:
 5680 0b6c 14000000 		.4byte	.LVL136
 5681 0b70 17000000 		.4byte	.LVL137-1
 5682 0b74 0100     		.2byte	0x1
 5683 0b76 50       		.byte	0x50
 5684 0b77 17000000 		.4byte	.LVL137-1
 5685 0b7b 82000000 		.4byte	.LVL153
 5686 0b7f 0100     		.2byte	0x1
 5687 0b81 57       		.byte	0x57
 5688 0b82 8A000000 		.4byte	.LVL154
 5689 0b86 9C000000 		.4byte	.LFE210
 5690 0b8a 0100     		.2byte	0x1
 5691 0b8c 57       		.byte	0x57
 5692 0b8d 00000000 		.4byte	0
 5693 0b91 00000000 		.4byte	0
 5694              	.LLST80:
 5695 0b95 18000000 		.4byte	.LVL137
ARM GAS  /var/folders/z0/6xlwn_996xz3mwq1cgzkbq4r0000gp/T//cckgJHwF.s 			page 122


 5696 0b99 21000000 		.4byte	.LVL138-1
 5697 0b9d 0100     		.2byte	0x1
 5698 0b9f 51       		.byte	0x51
 5699 0ba0 26000000 		.4byte	.LVL139
 5700 0ba4 58000000 		.4byte	.LVL145
 5701 0ba8 0200     		.2byte	0x2
 5702 0baa 31       		.byte	0x31
 5703 0bab 9F       		.byte	0x9f
 5704 0bac 8A000000 		.4byte	.LVL154
 5705 0bb0 8C000000 		.4byte	.LVL155
 5706 0bb4 0100     		.2byte	0x1
 5707 0bb6 51       		.byte	0x51
 5708 0bb7 00000000 		.4byte	0
 5709 0bbb 00000000 		.4byte	0
 5710              	.LLST81:
 5711 0bbf 00000000 		.4byte	.LVL133
 5712 0bc3 26000000 		.4byte	.LVL139
 5713 0bc7 0200     		.2byte	0x2
 5714 0bc9 30       		.byte	0x30
 5715 0bca 9F       		.byte	0x9f
 5716 0bcb 26000000 		.4byte	.LVL139
 5717 0bcf 28000000 		.4byte	.LVL140
 5718 0bd3 0100     		.2byte	0x1
 5719 0bd5 50       		.byte	0x50
 5720 0bd6 28000000 		.4byte	.LVL140
 5721 0bda 34000000 		.4byte	.LVL141
 5722 0bde 0100     		.2byte	0x1
 5723 0be0 53       		.byte	0x53
 5724 0be1 8A000000 		.4byte	.LVL154
 5725 0be5 9C000000 		.4byte	.LFE210
 5726 0be9 0200     		.2byte	0x2
 5727 0beb 30       		.byte	0x30
 5728 0bec 9F       		.byte	0x9f
 5729 0bed 00000000 		.4byte	0
 5730 0bf1 00000000 		.4byte	0
 5731              	.LLST82:
 5732 0bf5 0A000000 		.4byte	.LVL134
 5733 0bf9 4E000000 		.4byte	.LVL144
 5734 0bfd 0100     		.2byte	0x1
 5735 0bff 55       		.byte	0x55
 5736 0c00 4E000000 		.4byte	.LVL144
 5737 0c04 8A000000 		.4byte	.LVL154
 5738 0c08 0600     		.2byte	0x6
 5739 0c0a F3       		.byte	0xf3
 5740 0c0b 01       		.uleb128 0x1
 5741 0c0c 51       		.byte	0x51
 5742 0c0d 34       		.byte	0x34
 5743 0c0e 24       		.byte	0x24
 5744 0c0f 9F       		.byte	0x9f
 5745 0c10 8A000000 		.4byte	.LVL154
 5746 0c14 96000000 		.4byte	.LVL157
 5747 0c18 0100     		.2byte	0x1
 5748 0c1a 55       		.byte	0x55
 5749 0c1b 96000000 		.4byte	.LVL157
 5750 0c1f 9C000000 		.4byte	.LFE210
 5751 0c23 0600     		.2byte	0x6
 5752 0c25 F3       		.byte	0xf3
ARM GAS  /var/folders/z0/6xlwn_996xz3mwq1cgzkbq4r0000gp/T//cckgJHwF.s 			page 123


 5753 0c26 01       		.uleb128 0x1
 5754 0c27 51       		.byte	0x51
 5755 0c28 34       		.byte	0x34
 5756 0c29 24       		.byte	0x24
 5757 0c2a 9F       		.byte	0x9f
 5758 0c2b 00000000 		.4byte	0
 5759 0c2f 00000000 		.4byte	0
 5760              	.LLST83:
 5761 0c33 0A000000 		.4byte	.LVL134
 5762 0c37 7C000000 		.4byte	.LVL149
 5763 0c3b 0200     		.2byte	0x2
 5764 0c3d 30       		.byte	0x30
 5765 0c3e 9F       		.byte	0x9f
 5766 0c3f 7C000000 		.4byte	.LVL149
 5767 0c43 7E000000 		.4byte	.LVL150
 5768 0c47 1100     		.2byte	0x11
 5769 0c49 77       		.byte	0x77
 5770 0c4a 00       		.sleb128 0
 5771 0c4b F7       		.byte	0xf7
 5772 0c4c 29       		.uleb128 0x29
 5773 0c4d 75       		.byte	0x75
 5774 0c4e 00       		.sleb128 0
 5775 0c4f 34       		.byte	0x34
 5776 0c50 24       		.byte	0x24
 5777 0c51 70       		.byte	0x70
 5778 0c52 00       		.sleb128 0
 5779 0c53 22       		.byte	0x22
 5780 0c54 F7       		.byte	0xf7
 5781 0c55 29       		.uleb128 0x29
 5782 0c56 1B       		.byte	0x1b
 5783 0c57 F7       		.byte	0xf7
 5784 0c58 00       		.uleb128 0
 5785 0c59 9F       		.byte	0x9f
 5786 0c5a 8A000000 		.4byte	.LVL154
 5787 0c5e 9C000000 		.4byte	.LFE210
 5788 0c62 0200     		.2byte	0x2
 5789 0c64 30       		.byte	0x30
 5790 0c65 9F       		.byte	0x9f
 5791 0c66 00000000 		.4byte	0
 5792 0c6a 00000000 		.4byte	0
 5793              	.LLST84:
 5794 0c6e 58000000 		.4byte	.LVL145
 5795 0c72 62000000 		.4byte	.LVL146
 5796 0c76 0100     		.2byte	0x1
 5797 0c78 54       		.byte	0x54
 5798 0c79 00000000 		.4byte	0
 5799 0c7d 00000000 		.4byte	0
 5800              	.LLST85:
 5801 0c81 62000000 		.4byte	.LVL146
 5802 0c85 6E000000 		.4byte	.LVL147
 5803 0c89 0500     		.2byte	0x5
 5804 0c8b 75       		.byte	0x75
 5805 0c8c 00       		.sleb128 0
 5806 0c8d 38       		.byte	0x38
 5807 0c8e 25       		.byte	0x25
 5808 0c8f 9F       		.byte	0x9f
 5809 0c90 00000000 		.4byte	0
ARM GAS  /var/folders/z0/6xlwn_996xz3mwq1cgzkbq4r0000gp/T//cckgJHwF.s 			page 124


 5810 0c94 00000000 		.4byte	0
 5811              	.LLST86:
 5812 0c98 62000000 		.4byte	.LVL146
 5813 0c9c 6E000000 		.4byte	.LVL147
 5814 0ca0 0100     		.2byte	0x1
 5815 0ca2 54       		.byte	0x54
 5816 0ca3 00000000 		.4byte	0
 5817 0ca7 00000000 		.4byte	0
 5818              	.LLST87:
 5819 0cab 6E000000 		.4byte	.LVL147
 5820 0caf 76000000 		.4byte	.LVL148
 5821 0cb3 0100     		.2byte	0x1
 5822 0cb5 54       		.byte	0x54
 5823 0cb6 00000000 		.4byte	0
 5824 0cba 00000000 		.4byte	0
 5825              		.section	.debug_aranges,"",%progbits
 5826 0000 7C000000 		.4byte	0x7c
 5827 0004 0200     		.2byte	0x2
 5828 0006 00000000 		.4byte	.Ldebug_info0
 5829 000a 04       		.byte	0x4
 5830 000b 00       		.byte	0
 5831 000c 0000     		.2byte	0
 5832 000e 0000     		.2byte	0
 5833 0010 00000000 		.4byte	.LFB198
 5834 0014 28000000 		.4byte	.LFE198-.LFB198
 5835 0018 00000000 		.4byte	.LFB199
 5836 001c 18000000 		.4byte	.LFE199-.LFB199
 5837 0020 00000000 		.4byte	.LFB200
 5838 0024 2E000000 		.4byte	.LFE200-.LFB200
 5839 0028 00000000 		.4byte	.LFB201
 5840 002c 2A000000 		.4byte	.LFE201-.LFB201
 5841 0030 00000000 		.4byte	.LFB202
 5842 0034 2E000000 		.4byte	.LFE202-.LFB202
 5843 0038 00000000 		.4byte	.LFB203
 5844 003c 2A000000 		.4byte	.LFE203-.LFB203
 5845 0040 00000000 		.4byte	.LFB204
 5846 0044 38000000 		.4byte	.LFE204-.LFB204
 5847 0048 00000000 		.4byte	.LFB205
 5848 004c 2A000000 		.4byte	.LFE205-.LFB205
 5849 0050 00000000 		.4byte	.LFB206
 5850 0054 30000000 		.4byte	.LFE206-.LFB206
 5851 0058 00000000 		.4byte	.LFB207
 5852 005c 4A000000 		.4byte	.LFE207-.LFB207
 5853 0060 00000000 		.4byte	.LFB208
 5854 0064 0E000000 		.4byte	.LFE208-.LFB208
 5855 0068 00000000 		.4byte	.LFB209
 5856 006c 4A000000 		.4byte	.LFE209-.LFB209
 5857 0070 00000000 		.4byte	.LFB210
 5858 0074 9C000000 		.4byte	.LFE210-.LFB210
 5859 0078 00000000 		.4byte	0
 5860 007c 00000000 		.4byte	0
 5861              		.section	.debug_ranges,"",%progbits
 5862              	.Ldebug_ranges0:
 5863 0000 00000000 		.4byte	.LBB68
 5864 0004 02000000 		.4byte	.LBE68
 5865 0008 04000000 		.4byte	.LBB72
 5866 000c 0C000000 		.4byte	.LBE72
ARM GAS  /var/folders/z0/6xlwn_996xz3mwq1cgzkbq4r0000gp/T//cckgJHwF.s 			page 125


 5867 0010 0C000000 		.4byte	.LBB73
 5868 0014 10000000 		.4byte	.LBE73
 5869 0018 00000000 		.4byte	0
 5870 001c 00000000 		.4byte	0
 5871 0020 00000000 		.4byte	.LBB80
 5872 0024 08000000 		.4byte	.LBE80
 5873 0028 08000000 		.4byte	.LBB83
 5874 002c 0C000000 		.4byte	.LBE83
 5875 0030 00000000 		.4byte	0
 5876 0034 00000000 		.4byte	0
 5877 0038 06000000 		.4byte	.LBB84
 5878 003c 08000000 		.4byte	.LBE84
 5879 0040 12000000 		.4byte	.LBB87
 5880 0044 14000000 		.4byte	.LBE87
 5881 0048 00000000 		.4byte	0
 5882 004c 00000000 		.4byte	0
 5883 0050 18000000 		.4byte	.LBB88
 5884 0054 1A000000 		.4byte	.LBE88
 5885 0058 1C000000 		.4byte	.LBB91
 5886 005c 1E000000 		.4byte	.LBE91
 5887 0060 00000000 		.4byte	0
 5888 0064 00000000 		.4byte	0
 5889 0068 04000000 		.4byte	.LBB92
 5890 006c 06000000 		.4byte	.LBE92
 5891 0070 0C000000 		.4byte	.LBB101
 5892 0074 1C000000 		.4byte	.LBE101
 5893 0078 00000000 		.4byte	0
 5894 007c 00000000 		.4byte	0
 5895 0080 12000000 		.4byte	.LBB96
 5896 0084 14000000 		.4byte	.LBE96
 5897 0088 16000000 		.4byte	.LBB99
 5898 008c 18000000 		.4byte	.LBE99
 5899 0090 00000000 		.4byte	0
 5900 0094 00000000 		.4byte	0
 5901 0098 06000000 		.4byte	.LBB102
 5902 009c 08000000 		.4byte	.LBE102
 5903 00a0 12000000 		.4byte	.LBB105
 5904 00a4 14000000 		.4byte	.LBE105
 5905 00a8 00000000 		.4byte	0
 5906 00ac 00000000 		.4byte	0
 5907 00b0 04000000 		.4byte	.LBB108
 5908 00b4 06000000 		.4byte	.LBE108
 5909 00b8 0C000000 		.4byte	.LBB115
 5910 00bc 1C000000 		.4byte	.LBE115
 5911 00c0 00000000 		.4byte	0
 5912 00c4 00000000 		.4byte	0
 5913 00c8 12000000 		.4byte	.LBB116
 5914 00cc 14000000 		.4byte	.LBE116
 5915 00d0 16000000 		.4byte	.LBB119
 5916 00d4 26000000 		.4byte	.LBE119
 5917 00d8 00000000 		.4byte	0
 5918 00dc 00000000 		.4byte	0
 5919 00e0 2A000000 		.4byte	.LBB122
 5920 00e4 2C000000 		.4byte	.LBE122
 5921 00e8 2E000000 		.4byte	.LBB125
 5922 00ec 32000000 		.4byte	.LBE125
 5923 00f0 00000000 		.4byte	0
ARM GAS  /var/folders/z0/6xlwn_996xz3mwq1cgzkbq4r0000gp/T//cckgJHwF.s 			page 126


 5924 00f4 00000000 		.4byte	0
 5925 00f8 06000000 		.4byte	.LBB126
 5926 00fc 08000000 		.4byte	.LBE126
 5927 0100 20000000 		.4byte	.LBB132
 5928 0104 22000000 		.4byte	.LBE132
 5929 0108 00000000 		.4byte	0
 5930 010c 00000000 		.4byte	0
 5931 0110 06000000 		.4byte	.LBB133
 5932 0114 08000000 		.4byte	.LBE133
 5933 0118 1A000000 		.4byte	.LBB138
 5934 011c 1C000000 		.4byte	.LBE138
 5935 0120 00000000 		.4byte	0
 5936 0124 00000000 		.4byte	0
 5937 0128 06000000 		.4byte	.LBB139
 5938 012c 08000000 		.4byte	.LBE139
 5939 0130 10000000 		.4byte	.LBB144
 5940 0134 12000000 		.4byte	.LBE144
 5941 0138 14000000 		.4byte	.LBB145
 5942 013c 16000000 		.4byte	.LBE145
 5943 0140 18000000 		.4byte	.LBB146
 5944 0144 1A000000 		.4byte	.LBE146
 5945 0148 00000000 		.4byte	0
 5946 014c 00000000 		.4byte	0
 5947 0150 3A000000 		.4byte	.LBB147
 5948 0154 3C000000 		.4byte	.LBE147
 5949 0158 3E000000 		.4byte	.LBB150
 5950 015c 42000000 		.4byte	.LBE150
 5951 0160 00000000 		.4byte	0
 5952 0164 00000000 		.4byte	0
 5953 0168 14000000 		.4byte	.LBB153
 5954 016c 18000000 		.4byte	.LBE153
 5955 0170 2A000000 		.4byte	.LBB159
 5956 0174 2C000000 		.4byte	.LBE159
 5957 0178 00000000 		.4byte	0
 5958 017c 00000000 		.4byte	0
 5959 0180 58000000 		.4byte	.LBB162
 5960 0184 5E000000 		.4byte	.LBE162
 5961 0188 5E000000 		.4byte	.LBB165
 5962 018c 66000000 		.4byte	.LBE165
 5963 0190 00000000 		.4byte	0
 5964 0194 00000000 		.4byte	0
 5965 0198 6E000000 		.4byte	.LBB168
 5966 019c 70000000 		.4byte	.LBE168
 5967 01a0 72000000 		.4byte	.LBB171
 5968 01a4 76000000 		.4byte	.LBE171
 5969 01a8 00000000 		.4byte	0
 5970 01ac 00000000 		.4byte	0
 5971 01b0 00000000 		.4byte	.LFB198
 5972 01b4 28000000 		.4byte	.LFE198
 5973 01b8 00000000 		.4byte	.LFB199
 5974 01bc 18000000 		.4byte	.LFE199
 5975 01c0 00000000 		.4byte	.LFB200
 5976 01c4 2E000000 		.4byte	.LFE200
 5977 01c8 00000000 		.4byte	.LFB201
 5978 01cc 2A000000 		.4byte	.LFE201
 5979 01d0 00000000 		.4byte	.LFB202
 5980 01d4 2E000000 		.4byte	.LFE202
ARM GAS  /var/folders/z0/6xlwn_996xz3mwq1cgzkbq4r0000gp/T//cckgJHwF.s 			page 127


 5981 01d8 00000000 		.4byte	.LFB203
 5982 01dc 2A000000 		.4byte	.LFE203
 5983 01e0 00000000 		.4byte	.LFB204
 5984 01e4 38000000 		.4byte	.LFE204
 5985 01e8 00000000 		.4byte	.LFB205
 5986 01ec 2A000000 		.4byte	.LFE205
 5987 01f0 00000000 		.4byte	.LFB206
 5988 01f4 30000000 		.4byte	.LFE206
 5989 01f8 00000000 		.4byte	.LFB207
 5990 01fc 4A000000 		.4byte	.LFE207
 5991 0200 00000000 		.4byte	.LFB208
 5992 0204 0E000000 		.4byte	.LFE208
 5993 0208 00000000 		.4byte	.LFB209
 5994 020c 4A000000 		.4byte	.LFE209
 5995 0210 00000000 		.4byte	.LFB210
 5996 0214 9C000000 		.4byte	.LFE210
 5997 0218 00000000 		.4byte	0
 5998 021c 00000000 		.4byte	0
 5999              		.section	.debug_macro,"",%progbits
 6000              	.Ldebug_macro0:
 6001 0000 0400     		.2byte	0x4
 6002 0002 02       		.byte	0x2
 6003 0003 00000000 		.4byte	.Ldebug_line0
 6004 0007 07       		.byte	0x7
 6005 0008 00000000 		.4byte	.Ldebug_macro1
 6006 000c 03       		.byte	0x3
 6007 000d 00       		.uleb128 0
 6008 000e 01       		.uleb128 0x1
 6009 000f 03       		.byte	0x3
 6010 0010 20       		.uleb128 0x20
 6011 0011 08       		.uleb128 0x8
 6012 0012 05       		.byte	0x5
 6013 0013 1E       		.uleb128 0x1e
 6014 0014 067A0000 		.4byte	.LASF347
 6015              		.file 9 "../../lib/lpc11cx4-library/lpc_chip_11cxx_lib/inc/lpc_types.h"
 6016 0018 03       		.byte	0x3
 6017 0019 20       		.uleb128 0x20
 6018 001a 09       		.uleb128 0x9
 6019 001b 05       		.byte	0x5
 6020 001c 21       		.uleb128 0x21
 6021 001d F5210000 		.4byte	.LASF348
 6022              		.file 10 "/usr/local/Cellar/gcc-arm-none-eabi/20160928/lib/gcc/arm-none-eabi/5.4.1/include/stdint.
 6023 0021 03       		.byte	0x3
 6024 0022 23       		.uleb128 0x23
 6025 0023 0A       		.uleb128 0xa
 6026              		.file 11 "/usr/local/Cellar/gcc-arm-none-eabi/20160928/arm-none-eabi/include/stdint.h"
 6027 0024 03       		.byte	0x3
 6028 0025 09       		.uleb128 0x9
 6029 0026 0B       		.uleb128 0xb
 6030 0027 05       		.byte	0x5
 6031 0028 0A       		.uleb128 0xa
 6032 0029 021D0000 		.4byte	.LASF349
 6033 002d 03       		.byte	0x3
 6034 002e 0C       		.uleb128 0xc
 6035 002f 04       		.uleb128 0x4
 6036 0030 05       		.byte	0x5
 6037 0031 06       		.uleb128 0x6
ARM GAS  /var/folders/z0/6xlwn_996xz3mwq1cgzkbq4r0000gp/T//cckgJHwF.s 			page 128


 6038 0032 01510000 		.4byte	.LASF350
 6039              		.file 12 "/usr/local/Cellar/gcc-arm-none-eabi/20160928/arm-none-eabi/include/sys/features.h"
 6040 0036 03       		.byte	0x3
 6041 0037 08       		.uleb128 0x8
 6042 0038 0C       		.uleb128 0xc
 6043 0039 05       		.byte	0x5
 6044 003a 16       		.uleb128 0x16
 6045 003b 05220000 		.4byte	.LASF351
 6046              		.file 13 "/usr/local/Cellar/gcc-arm-none-eabi/20160928/arm-none-eabi/include/_newlib_version.h"
 6047 003f 03       		.byte	0x3
 6048 0040 1C       		.uleb128 0x1c
 6049 0041 0D       		.uleb128 0xd
 6050 0042 07       		.byte	0x7
 6051 0043 00000000 		.4byte	.Ldebug_macro2
 6052 0047 04       		.byte	0x4
 6053 0048 07       		.byte	0x7
 6054 0049 00000000 		.4byte	.Ldebug_macro3
 6055 004d 04       		.byte	0x4
 6056 004e 07       		.byte	0x7
 6057 004f 00000000 		.4byte	.Ldebug_macro4
 6058 0053 04       		.byte	0x4
 6059              		.file 14 "/usr/local/Cellar/gcc-arm-none-eabi/20160928/arm-none-eabi/include/sys/_intsup.h"
 6060 0054 03       		.byte	0x3
 6061 0055 0D       		.uleb128 0xd
 6062 0056 0E       		.uleb128 0xe
 6063 0057 07       		.byte	0x7
 6064 0058 00000000 		.4byte	.Ldebug_macro5
 6065 005c 04       		.byte	0x4
 6066 005d 03       		.byte	0x3
 6067 005e 0E       		.uleb128 0xe
 6068 005f 05       		.uleb128 0x5
 6069 0060 07       		.byte	0x7
 6070 0061 00000000 		.4byte	.Ldebug_macro6
 6071 0065 04       		.byte	0x4
 6072 0066 07       		.byte	0x7
 6073 0067 00000000 		.4byte	.Ldebug_macro7
 6074 006b 04       		.byte	0x4
 6075 006c 05       		.byte	0x5
 6076 006d 0D       		.uleb128 0xd
 6077 006e 44660000 		.4byte	.LASF501
 6078 0072 04       		.byte	0x4
 6079              		.file 15 "/usr/local/Cellar/gcc-arm-none-eabi/20160928/lib/gcc/arm-none-eabi/5.4.1/include/stdbool
 6080 0073 03       		.byte	0x3
 6081 0074 24       		.uleb128 0x24
 6082 0075 0F       		.uleb128 0xf
 6083 0076 07       		.byte	0x7
 6084 0077 00000000 		.4byte	.Ldebug_macro8
 6085 007b 04       		.byte	0x4
 6086 007c 07       		.byte	0x7
 6087 007d 00000000 		.4byte	.Ldebug_macro9
 6088 0081 04       		.byte	0x4
 6089              		.file 16 "../../lib/lpc11cx4-library/lpc_chip_11cxx_lib/inc/sys_config.h"
 6090 0082 03       		.byte	0x3
 6091 0083 21       		.uleb128 0x21
 6092 0084 10       		.uleb128 0x10
 6093 0085 07       		.byte	0x7
 6094 0086 00000000 		.4byte	.Ldebug_macro10
ARM GAS  /var/folders/z0/6xlwn_996xz3mwq1cgzkbq4r0000gp/T//cckgJHwF.s 			page 129


 6095 008a 04       		.byte	0x4
 6096              		.file 17 "../../lib/lpc11cx4-library/lpc_chip_11cxx_lib/inc/cmsis.h"
 6097 008b 03       		.byte	0x3
 6098 008c 22       		.uleb128 0x22
 6099 008d 11       		.uleb128 0x11
 6100 008e 05       		.byte	0x5
 6101 008f 1E       		.uleb128 0x1e
 6102 0090 45500000 		.4byte	.LASF525
 6103              		.file 18 "../../lib/lpc11cx4-library/lpc_chip_11cxx_lib/inc/cmsis_11cxx.h"
 6104 0094 03       		.byte	0x3
 6105 0095 2E       		.uleb128 0x2e
 6106 0096 12       		.uleb128 0x12
 6107 0097 07       		.byte	0x7
 6108 0098 00000000 		.4byte	.Ldebug_macro11
 6109 009c 04       		.byte	0x4
 6110              		.file 19 "../../lib/lpc11cx4-library/lpc_chip_11cxx_lib/inc/core_cm0.h"
 6111 009d 03       		.byte	0x3
 6112 009e 3E       		.uleb128 0x3e
 6113 009f 13       		.uleb128 0x13
 6114 00a0 07       		.byte	0x7
 6115 00a1 00000000 		.4byte	.Ldebug_macro12
 6116              		.file 20 "../../lib/lpc11cx4-library/lpc_chip_11cxx_lib/inc/core_cmInstr.h"
 6117 00a5 03       		.byte	0x3
 6118 00a6 70       		.uleb128 0x70
 6119 00a7 14       		.uleb128 0x14
 6120 00a8 05       		.byte	0x5
 6121 00a9 19       		.uleb128 0x19
 6122 00aa 701D0000 		.4byte	.LASF539
 6123 00ae 04       		.byte	0x4
 6124              		.file 21 "../../lib/lpc11cx4-library/lpc_chip_11cxx_lib/inc/core_cmFunc.h"
 6125 00af 03       		.byte	0x3
 6126 00b0 71       		.uleb128 0x71
 6127 00b1 15       		.uleb128 0x15
 6128 00b2 05       		.byte	0x5
 6129 00b3 19       		.uleb128 0x19
 6130 00b4 140C0000 		.4byte	.LASF540
 6131 00b8 04       		.byte	0x4
 6132 00b9 07       		.byte	0x7
 6133 00ba 00000000 		.4byte	.Ldebug_macro13
 6134 00be 04       		.byte	0x4
 6135 00bf 04       		.byte	0x4
 6136 00c0 07       		.byte	0x7
 6137 00c1 00000000 		.4byte	.Ldebug_macro14
 6138              		.file 22 "../../lib/lpc11cx4-library/lpc_chip_11cxx_lib/inc/pmu_11xx.h"
 6139 00c5 03       		.byte	0x3
 6140 00c6 E901     		.uleb128 0xe9
 6141 00c8 16       		.uleb128 0x16
 6142 00c9 07       		.byte	0x7
 6143 00ca 00000000 		.4byte	.Ldebug_macro15
 6144 00ce 04       		.byte	0x4
 6145              		.file 23 "../../lib/lpc11cx4-library/lpc_chip_11cxx_lib/inc/fmc_11xx.h"
 6146 00cf 03       		.byte	0x3
 6147 00d0 EA01     		.uleb128 0xea
 6148 00d2 17       		.uleb128 0x17
 6149 00d3 05       		.byte	0x5
 6150 00d4 21       		.uleb128 0x21
 6151 00d5 36680000 		.4byte	.LASF670
ARM GAS  /var/folders/z0/6xlwn_996xz3mwq1cgzkbq4r0000gp/T//cckgJHwF.s 			page 130


 6152 00d9 04       		.byte	0x4
 6153 00da 03       		.byte	0x3
 6154 00db EB01     		.uleb128 0xeb
 6155 00dd 06       		.uleb128 0x6
 6156 00de 07       		.byte	0x7
 6157 00df 00000000 		.4byte	.Ldebug_macro16
 6158 00e3 04       		.byte	0x4
 6159 00e4 03       		.byte	0x3
 6160 00e5 EC01     		.uleb128 0xec
 6161 00e7 02       		.uleb128 0x2
 6162 00e8 07       		.byte	0x7
 6163 00e9 00000000 		.4byte	.Ldebug_macro17
 6164 00ed 04       		.byte	0x4
 6165              		.file 24 "../../lib/lpc11cx4-library/lpc_chip_11cxx_lib/inc/iocon_11xx.h"
 6166 00ee 03       		.byte	0x3
 6167 00ef ED01     		.uleb128 0xed
 6168 00f1 18       		.uleb128 0x18
 6169 00f2 07       		.byte	0x7
 6170 00f3 00000000 		.4byte	.Ldebug_macro18
 6171 00f7 04       		.byte	0x4
 6172              		.file 25 "../../lib/lpc11cx4-library/lpc_chip_11cxx_lib/inc/timer_11xx.h"
 6173 00f8 03       		.byte	0x3
 6174 00f9 EE01     		.uleb128 0xee
 6175 00fb 19       		.uleb128 0x19
 6176 00fc 07       		.byte	0x7
 6177 00fd 00000000 		.4byte	.Ldebug_macro19
 6178 0101 04       		.byte	0x4
 6179 0102 03       		.byte	0x3
 6180 0103 EF01     		.uleb128 0xef
 6181 0105 03       		.uleb128 0x3
 6182 0106 05       		.byte	0x5
 6183 0107 21       		.uleb128 0x21
 6184 0108 BF240000 		.4byte	.LASF754
 6185 010c 03       		.byte	0x3
 6186 010d 23       		.uleb128 0x23
 6187 010e 07       		.uleb128 0x7
 6188 010f 07       		.byte	0x7
 6189 0110 00000000 		.4byte	.Ldebug_macro20
 6190 0114 04       		.byte	0x4
 6191 0115 07       		.byte	0x7
 6192 0116 00000000 		.4byte	.Ldebug_macro21
 6193 011a 04       		.byte	0x4
 6194              		.file 26 "../../lib/lpc11cx4-library/lpc_chip_11cxx_lib/inc/wwdt_11xx.h"
 6195 011b 03       		.byte	0x3
 6196 011c F001     		.uleb128 0xf0
 6197 011e 1A       		.uleb128 0x1a
 6198 011f 07       		.byte	0x7
 6199 0120 00000000 		.4byte	.Ldebug_macro22
 6200 0124 04       		.byte	0x4
 6201              		.file 27 "../../lib/lpc11cx4-library/lpc_chip_11cxx_lib/inc/ssp_11xx.h"
 6202 0125 03       		.byte	0x3
 6203 0126 F101     		.uleb128 0xf1
 6204 0128 1B       		.uleb128 0x1b
 6205 0129 07       		.byte	0x7
 6206 012a 00000000 		.4byte	.Ldebug_macro23
 6207 012e 04       		.byte	0x4
 6208              		.file 28 "../../lib/lpc11cx4-library/lpc_chip_11cxx_lib/inc/romapi_11xx.h"
ARM GAS  /var/folders/z0/6xlwn_996xz3mwq1cgzkbq4r0000gp/T//cckgJHwF.s 			page 131


 6209 012f 03       		.byte	0x3
 6210 0130 F201     		.uleb128 0xf2
 6211 0132 1C       		.uleb128 0x1c
 6212 0133 05       		.byte	0x5
 6213 0134 21       		.uleb128 0x21
 6214 0135 E42D0000 		.4byte	.LASF907
 6215              		.file 29 "../../lib/lpc11cx4-library/lpc_chip_11cxx_lib/inc/error.h"
 6216 0139 03       		.byte	0x3
 6217 013a 23       		.uleb128 0x23
 6218 013b 1D       		.uleb128 0x1d
 6219 013c 07       		.byte	0x7
 6220 013d 00000000 		.4byte	.Ldebug_macro24
 6221 0141 04       		.byte	0x4
 6222 0142 04       		.byte	0x4
 6223              		.file 30 "../../lib/lpc11cx4-library/lpc_chip_11cxx_lib/inc/adc_11xx.h"
 6224 0143 03       		.byte	0x3
 6225 0144 F601     		.uleb128 0xf6
 6226 0146 1E       		.uleb128 0x1e
 6227 0147 07       		.byte	0x7
 6228 0148 00000000 		.4byte	.Ldebug_macro25
 6229 014c 04       		.byte	0x4
 6230              		.file 31 "../../lib/lpc11cx4-library/lpc_chip_11cxx_lib/inc/gpio_11xx_2.h"
 6231 014d 03       		.byte	0x3
 6232 014e FF01     		.uleb128 0xff
 6233 0150 1F       		.uleb128 0x1f
 6234 0151 05       		.byte	0x5
 6235 0152 22       		.uleb128 0x22
 6236 0153 4C380000 		.4byte	.LASF930
 6237 0157 04       		.byte	0x4
 6238              		.file 32 "../../lib/lpc11cx4-library/lpc_chip_11cxx_lib/inc/i2c_11xx.h"
 6239 0158 03       		.byte	0x3
 6240 0159 8C02     		.uleb128 0x10c
 6241 015b 20       		.uleb128 0x20
 6242 015c 07       		.byte	0x7
 6243 015d 00000000 		.4byte	.Ldebug_macro26
 6244 0161 04       		.byte	0x4
 6245              		.file 33 "../../lib/lpc11cx4-library/lpc_chip_11cxx_lib/inc/ccand_11xx.h"
 6246 0162 03       		.byte	0x3
 6247 0163 8F02     		.uleb128 0x10f
 6248 0165 21       		.uleb128 0x21
 6249 0166 07       		.byte	0x7
 6250 0167 00000000 		.4byte	.Ldebug_macro27
 6251 016b 04       		.byte	0x4
 6252 016c 04       		.byte	0x4
 6253 016d 04       		.byte	0x4
 6254 016e 00       		.byte	0
 6255              		.section	.debug_macro,"G",%progbits,wm4.0.875846967d3f9b39cda0d496d1540481,comdat
 6256              	.Ldebug_macro1:
 6257 0000 0400     		.2byte	0x4
 6258 0002 00       		.byte	0
 6259 0003 05       		.byte	0x5
 6260 0004 00       		.uleb128 0
 6261 0005 2B4C0000 		.4byte	.LASF0
 6262 0009 05       		.byte	0x5
 6263 000a 00       		.uleb128 0
 6264 000b 130A0000 		.4byte	.LASF1
 6265 000f 05       		.byte	0x5
ARM GAS  /var/folders/z0/6xlwn_996xz3mwq1cgzkbq4r0000gp/T//cckgJHwF.s 			page 132


 6266 0010 00       		.uleb128 0
 6267 0011 37370000 		.4byte	.LASF2
 6268 0015 05       		.byte	0x5
 6269 0016 00       		.uleb128 0
 6270 0017 DF600000 		.4byte	.LASF3
 6271 001b 05       		.byte	0x5
 6272 001c 00       		.uleb128 0
 6273 001d 301C0000 		.4byte	.LASF4
 6274 0021 05       		.byte	0x5
 6275 0022 00       		.uleb128 0
 6276 0023 102E0000 		.4byte	.LASF5
 6277 0027 05       		.byte	0x5
 6278 0028 00       		.uleb128 0
 6279 0029 0B680000 		.4byte	.LASF6
 6280 002d 05       		.byte	0x5
 6281 002e 00       		.uleb128 0
 6282 002f E51E0000 		.4byte	.LASF7
 6283 0033 05       		.byte	0x5
 6284 0034 00       		.uleb128 0
 6285 0035 FC330000 		.4byte	.LASF8
 6286 0039 05       		.byte	0x5
 6287 003a 00       		.uleb128 0
 6288 003b 2A3B0000 		.4byte	.LASF9
 6289 003f 05       		.byte	0x5
 6290 0040 00       		.uleb128 0
 6291 0041 DB790000 		.4byte	.LASF10
 6292 0045 05       		.byte	0x5
 6293 0046 00       		.uleb128 0
 6294 0047 EB030000 		.4byte	.LASF11
 6295 004b 05       		.byte	0x5
 6296 004c 00       		.uleb128 0
 6297 004d E33B0000 		.4byte	.LASF12
 6298 0051 05       		.byte	0x5
 6299 0052 00       		.uleb128 0
 6300 0053 395B0000 		.4byte	.LASF13
 6301 0057 05       		.byte	0x5
 6302 0058 00       		.uleb128 0
 6303 0059 B1700000 		.4byte	.LASF14
 6304 005d 05       		.byte	0x5
 6305 005e 00       		.uleb128 0
 6306 005f AB1D0000 		.4byte	.LASF15
 6307 0063 05       		.byte	0x5
 6308 0064 00       		.uleb128 0
 6309 0065 19050000 		.4byte	.LASF16
 6310 0069 05       		.byte	0x5
 6311 006a 00       		.uleb128 0
 6312 006b 7B210000 		.4byte	.LASF17
 6313 006f 05       		.byte	0x5
 6314 0070 00       		.uleb128 0
 6315 0071 79690000 		.4byte	.LASF18
 6316 0075 05       		.byte	0x5
 6317 0076 00       		.uleb128 0
 6318 0077 24180000 		.4byte	.LASF19
 6319 007b 05       		.byte	0x5
 6320 007c 00       		.uleb128 0
 6321 007d 8D770000 		.4byte	.LASF20
 6322 0081 05       		.byte	0x5
ARM GAS  /var/folders/z0/6xlwn_996xz3mwq1cgzkbq4r0000gp/T//cckgJHwF.s 			page 133


 6323 0082 00       		.uleb128 0
 6324 0083 3A650000 		.4byte	.LASF21
 6325 0087 05       		.byte	0x5
 6326 0088 00       		.uleb128 0
 6327 0089 FE420000 		.4byte	.LASF22
 6328 008d 05       		.byte	0x5
 6329 008e 00       		.uleb128 0
 6330 008f 1C510000 		.4byte	.LASF23
 6331 0093 05       		.byte	0x5
 6332 0094 00       		.uleb128 0
 6333 0095 AE570000 		.4byte	.LASF24
 6334 0099 05       		.byte	0x5
 6335 009a 00       		.uleb128 0
 6336 009b D4530000 		.4byte	.LASF25
 6337 009f 05       		.byte	0x5
 6338 00a0 00       		.uleb128 0
 6339 00a1 75060000 		.4byte	.LASF26
 6340 00a5 05       		.byte	0x5
 6341 00a6 00       		.uleb128 0
 6342 00a7 EF410000 		.4byte	.LASF27
 6343 00ab 05       		.byte	0x5
 6344 00ac 00       		.uleb128 0
 6345 00ad 764C0000 		.4byte	.LASF28
 6346 00b1 05       		.byte	0x5
 6347 00b2 00       		.uleb128 0
 6348 00b3 4D150000 		.4byte	.LASF29
 6349 00b7 05       		.byte	0x5
 6350 00b8 00       		.uleb128 0
 6351 00b9 CB770000 		.4byte	.LASF30
 6352 00bd 05       		.byte	0x5
 6353 00be 00       		.uleb128 0
 6354 00bf 6A580000 		.4byte	.LASF31
 6355 00c3 05       		.byte	0x5
 6356 00c4 00       		.uleb128 0
 6357 00c5 B6220000 		.4byte	.LASF32
 6358 00c9 05       		.byte	0x5
 6359 00ca 00       		.uleb128 0
 6360 00cb F5460000 		.4byte	.LASF33
 6361 00cf 05       		.byte	0x5
 6362 00d0 00       		.uleb128 0
 6363 00d1 27610000 		.4byte	.LASF34
 6364 00d5 05       		.byte	0x5
 6365 00d6 00       		.uleb128 0
 6366 00d7 A2490000 		.4byte	.LASF35
 6367 00db 05       		.byte	0x5
 6368 00dc 00       		.uleb128 0
 6369 00dd 11640000 		.4byte	.LASF36
 6370 00e1 05       		.byte	0x5
 6371 00e2 00       		.uleb128 0
 6372 00e3 12170000 		.4byte	.LASF37
 6373 00e7 05       		.byte	0x5
 6374 00e8 00       		.uleb128 0
 6375 00e9 98390000 		.4byte	.LASF38
 6376 00ed 05       		.byte	0x5
 6377 00ee 00       		.uleb128 0
 6378 00ef 0F070000 		.4byte	.LASF39
 6379 00f3 05       		.byte	0x5
ARM GAS  /var/folders/z0/6xlwn_996xz3mwq1cgzkbq4r0000gp/T//cckgJHwF.s 			page 134


 6380 00f4 00       		.uleb128 0
 6381 00f5 75080000 		.4byte	.LASF40
 6382 00f9 05       		.byte	0x5
 6383 00fa 00       		.uleb128 0
 6384 00fb EE790000 		.4byte	.LASF41
 6385 00ff 05       		.byte	0x5
 6386 0100 00       		.uleb128 0
 6387 0101 CE420000 		.4byte	.LASF42
 6388 0105 05       		.byte	0x5
 6389 0106 00       		.uleb128 0
 6390 0107 C04C0000 		.4byte	.LASF43
 6391 010b 05       		.byte	0x5
 6392 010c 00       		.uleb128 0
 6393 010d 68370000 		.4byte	.LASF44
 6394 0111 05       		.byte	0x5
 6395 0112 00       		.uleb128 0
 6396 0113 6D6F0000 		.4byte	.LASF45
 6397 0117 05       		.byte	0x5
 6398 0118 00       		.uleb128 0
 6399 0119 8D650000 		.4byte	.LASF46
 6400 011d 05       		.byte	0x5
 6401 011e 00       		.uleb128 0
 6402 011f 62150000 		.4byte	.LASF47
 6403 0123 05       		.byte	0x5
 6404 0124 00       		.uleb128 0
 6405 0125 A7730000 		.4byte	.LASF48
 6406 0129 05       		.byte	0x5
 6407 012a 00       		.uleb128 0
 6408 012b A5560000 		.4byte	.LASF49
 6409 012f 05       		.byte	0x5
 6410 0130 00       		.uleb128 0
 6411 0131 B37B0000 		.4byte	.LASF50
 6412 0135 05       		.byte	0x5
 6413 0136 00       		.uleb128 0
 6414 0137 D7120000 		.4byte	.LASF51
 6415 013b 05       		.byte	0x5
 6416 013c 00       		.uleb128 0
 6417 013d E7590000 		.4byte	.LASF52
 6418 0141 05       		.byte	0x5
 6419 0142 00       		.uleb128 0
 6420 0143 F0600000 		.4byte	.LASF53
 6421 0147 05       		.byte	0x5
 6422 0148 00       		.uleb128 0
 6423 0149 3A3A0000 		.4byte	.LASF54
 6424 014d 05       		.byte	0x5
 6425 014e 00       		.uleb128 0
 6426 014f DC140000 		.4byte	.LASF55
 6427 0153 05       		.byte	0x5
 6428 0154 00       		.uleb128 0
 6429 0155 50590000 		.4byte	.LASF56
 6430 0159 05       		.byte	0x5
 6431 015a 00       		.uleb128 0
 6432 015b 7A3B0000 		.4byte	.LASF57
 6433 015f 05       		.byte	0x5
 6434 0160 00       		.uleb128 0
 6435 0161 730A0000 		.4byte	.LASF58
 6436 0165 05       		.byte	0x5
ARM GAS  /var/folders/z0/6xlwn_996xz3mwq1cgzkbq4r0000gp/T//cckgJHwF.s 			page 135


 6437 0166 00       		.uleb128 0
 6438 0167 97380000 		.4byte	.LASF59
 6439 016b 05       		.byte	0x5
 6440 016c 00       		.uleb128 0
 6441 016d 24720000 		.4byte	.LASF60
 6442 0171 05       		.byte	0x5
 6443 0172 00       		.uleb128 0
 6444 0173 17590000 		.4byte	.LASF61
 6445 0177 05       		.byte	0x5
 6446 0178 00       		.uleb128 0
 6447 0179 8B230000 		.4byte	.LASF62
 6448 017d 05       		.byte	0x5
 6449 017e 00       		.uleb128 0
 6450 017f FD630000 		.4byte	.LASF63
 6451 0183 05       		.byte	0x5
 6452 0184 00       		.uleb128 0
 6453 0185 34640000 		.4byte	.LASF64
 6454 0189 05       		.byte	0x5
 6455 018a 00       		.uleb128 0
 6456 018b BE340000 		.4byte	.LASF65
 6457 018f 05       		.byte	0x5
 6458 0190 00       		.uleb128 0
 6459 0191 37290000 		.4byte	.LASF66
 6460 0195 05       		.byte	0x5
 6461 0196 00       		.uleb128 0
 6462 0197 DB230000 		.4byte	.LASF67
 6463 019b 05       		.byte	0x5
 6464 019c 00       		.uleb128 0
 6465 019d 3B4A0000 		.4byte	.LASF68
 6466 01a1 05       		.byte	0x5
 6467 01a2 00       		.uleb128 0
 6468 01a3 3E580000 		.4byte	.LASF69
 6469 01a7 05       		.byte	0x5
 6470 01a8 00       		.uleb128 0
 6471 01a9 9C7B0000 		.4byte	.LASF70
 6472 01ad 05       		.byte	0x5
 6473 01ae 00       		.uleb128 0
 6474 01af 7F760000 		.4byte	.LASF71
 6475 01b3 05       		.byte	0x5
 6476 01b4 00       		.uleb128 0
 6477 01b5 FD520000 		.4byte	.LASF72
 6478 01b9 05       		.byte	0x5
 6479 01ba 00       		.uleb128 0
 6480 01bb 1C040000 		.4byte	.LASF73
 6481 01bf 05       		.byte	0x5
 6482 01c0 00       		.uleb128 0
 6483 01c1 FA3E0000 		.4byte	.LASF74
 6484 01c5 05       		.byte	0x5
 6485 01c6 00       		.uleb128 0
 6486 01c7 8E730000 		.4byte	.LASF75
 6487 01cb 05       		.byte	0x5
 6488 01cc 00       		.uleb128 0
 6489 01cd 36730000 		.4byte	.LASF76
 6490 01d1 05       		.byte	0x5
 6491 01d2 00       		.uleb128 0
 6492 01d3 59020000 		.4byte	.LASF77
 6493 01d7 05       		.byte	0x5
ARM GAS  /var/folders/z0/6xlwn_996xz3mwq1cgzkbq4r0000gp/T//cckgJHwF.s 			page 136


 6494 01d8 00       		.uleb128 0
 6495 01d9 A8750000 		.4byte	.LASF78
 6496 01dd 05       		.byte	0x5
 6497 01de 00       		.uleb128 0
 6498 01df D7020000 		.4byte	.LASF79
 6499 01e3 05       		.byte	0x5
 6500 01e4 00       		.uleb128 0
 6501 01e5 AD020000 		.4byte	.LASF80
 6502 01e9 05       		.byte	0x5
 6503 01ea 00       		.uleb128 0
 6504 01eb 277B0000 		.4byte	.LASF81
 6505 01ef 05       		.byte	0x5
 6506 01f0 00       		.uleb128 0
 6507 01f1 35150000 		.4byte	.LASF82
 6508 01f5 05       		.byte	0x5
 6509 01f6 00       		.uleb128 0
 6510 01f7 8D680000 		.4byte	.LASF83
 6511 01fb 05       		.byte	0x5
 6512 01fc 00       		.uleb128 0
 6513 01fd 31120000 		.4byte	.LASF84
 6514 0201 05       		.byte	0x5
 6515 0202 00       		.uleb128 0
 6516 0203 2F360000 		.4byte	.LASF85
 6517 0207 05       		.byte	0x5
 6518 0208 00       		.uleb128 0
 6519 0209 D46A0000 		.4byte	.LASF86
 6520 020d 05       		.byte	0x5
 6521 020e 00       		.uleb128 0
 6522 020f EE2E0000 		.4byte	.LASF87
 6523 0213 05       		.byte	0x5
 6524 0214 00       		.uleb128 0
 6525 0215 033D0000 		.4byte	.LASF88
 6526 0219 05       		.byte	0x5
 6527 021a 00       		.uleb128 0
 6528 021b 17260000 		.4byte	.LASF89
 6529 021f 05       		.byte	0x5
 6530 0220 00       		.uleb128 0
 6531 0221 7A200000 		.4byte	.LASF90
 6532 0225 05       		.byte	0x5
 6533 0226 00       		.uleb128 0
 6534 0227 2C330000 		.4byte	.LASF91
 6535 022b 05       		.byte	0x5
 6536 022c 00       		.uleb128 0
 6537 022d A4320000 		.4byte	.LASF92
 6538 0231 05       		.byte	0x5
 6539 0232 00       		.uleb128 0
 6540 0233 98330000 		.4byte	.LASF93
 6541 0237 05       		.byte	0x5
 6542 0238 00       		.uleb128 0
 6543 0239 C6530000 		.4byte	.LASF94
 6544 023d 05       		.byte	0x5
 6545 023e 00       		.uleb128 0
 6546 023f 17280000 		.4byte	.LASF95
 6547 0243 05       		.byte	0x5
 6548 0244 00       		.uleb128 0
 6549 0245 0C790000 		.4byte	.LASF96
 6550 0249 05       		.byte	0x5
ARM GAS  /var/folders/z0/6xlwn_996xz3mwq1cgzkbq4r0000gp/T//cckgJHwF.s 			page 137


 6551 024a 00       		.uleb128 0
 6552 024b 686D0000 		.4byte	.LASF97
 6553 024f 05       		.byte	0x5
 6554 0250 00       		.uleb128 0
 6555 0251 B50D0000 		.4byte	.LASF98
 6556 0255 05       		.byte	0x5
 6557 0256 00       		.uleb128 0
 6558 0257 21420000 		.4byte	.LASF99
 6559 025b 05       		.byte	0x5
 6560 025c 00       		.uleb128 0
 6561 025d CD650000 		.4byte	.LASF100
 6562 0261 05       		.byte	0x5
 6563 0262 00       		.uleb128 0
 6564 0263 442F0000 		.4byte	.LASF101
 6565 0267 05       		.byte	0x5
 6566 0268 00       		.uleb128 0
 6567 0269 66080000 		.4byte	.LASF102
 6568 026d 05       		.byte	0x5
 6569 026e 00       		.uleb128 0
 6570 026f 7F1C0000 		.4byte	.LASF103
 6571 0273 05       		.byte	0x5
 6572 0274 00       		.uleb128 0
 6573 0275 89670000 		.4byte	.LASF104
 6574 0279 05       		.byte	0x5
 6575 027a 00       		.uleb128 0
 6576 027b 2A350000 		.4byte	.LASF105
 6577 027f 05       		.byte	0x5
 6578 0280 00       		.uleb128 0
 6579 0281 B6290000 		.4byte	.LASF106
 6580 0285 05       		.byte	0x5
 6581 0286 00       		.uleb128 0
 6582 0287 42780000 		.4byte	.LASF107
 6583 028b 05       		.byte	0x5
 6584 028c 00       		.uleb128 0
 6585 028d 51560000 		.4byte	.LASF108
 6586 0291 05       		.byte	0x5
 6587 0292 00       		.uleb128 0
 6588 0293 0F6E0000 		.4byte	.LASF109
 6589 0297 05       		.byte	0x5
 6590 0298 00       		.uleb128 0
 6591 0299 505B0000 		.4byte	.LASF110
 6592 029d 05       		.byte	0x5
 6593 029e 00       		.uleb128 0
 6594 029f C71E0000 		.4byte	.LASF111
 6595 02a3 05       		.byte	0x5
 6596 02a4 00       		.uleb128 0
 6597 02a5 FF130000 		.4byte	.LASF112
 6598 02a9 05       		.byte	0x5
 6599 02aa 00       		.uleb128 0
 6600 02ab 0F0F0000 		.4byte	.LASF113
 6601 02af 05       		.byte	0x5
 6602 02b0 00       		.uleb128 0
 6603 02b1 C2100000 		.4byte	.LASF114
 6604 02b5 05       		.byte	0x5
 6605 02b6 00       		.uleb128 0
 6606 02b7 A9170000 		.4byte	.LASF115
 6607 02bb 05       		.byte	0x5
ARM GAS  /var/folders/z0/6xlwn_996xz3mwq1cgzkbq4r0000gp/T//cckgJHwF.s 			page 138


 6608 02bc 00       		.uleb128 0
 6609 02bd 13570000 		.4byte	.LASF116
 6610 02c1 05       		.byte	0x5
 6611 02c2 00       		.uleb128 0
 6612 02c3 98100000 		.4byte	.LASF117
 6613 02c7 05       		.byte	0x5
 6614 02c8 00       		.uleb128 0
 6615 02c9 0C3A0000 		.4byte	.LASF118
 6616 02cd 05       		.byte	0x5
 6617 02ce 00       		.uleb128 0
 6618 02cf 891E0000 		.4byte	.LASF119
 6619 02d3 05       		.byte	0x5
 6620 02d4 00       		.uleb128 0
 6621 02d5 1F370000 		.4byte	.LASF120
 6622 02d9 05       		.byte	0x5
 6623 02da 00       		.uleb128 0
 6624 02db 0F4A0000 		.4byte	.LASF121
 6625 02df 05       		.byte	0x5
 6626 02e0 00       		.uleb128 0
 6627 02e1 96480000 		.4byte	.LASF122
 6628 02e5 05       		.byte	0x5
 6629 02e6 00       		.uleb128 0
 6630 02e7 9D3F0000 		.4byte	.LASF123
 6631 02eb 05       		.byte	0x5
 6632 02ec 00       		.uleb128 0
 6633 02ed 493B0000 		.4byte	.LASF124
 6634 02f1 05       		.byte	0x5
 6635 02f2 00       		.uleb128 0
 6636 02f3 94490000 		.4byte	.LASF125
 6637 02f7 05       		.byte	0x5
 6638 02f8 00       		.uleb128 0
 6639 02f9 7F480000 		.4byte	.LASF126
 6640 02fd 05       		.byte	0x5
 6641 02fe 00       		.uleb128 0
 6642 02ff 371A0000 		.4byte	.LASF127
 6643 0303 05       		.byte	0x5
 6644 0304 00       		.uleb128 0
 6645 0305 C9170000 		.4byte	.LASF128
 6646 0309 05       		.byte	0x5
 6647 030a 00       		.uleb128 0
 6648 030b 94600000 		.4byte	.LASF129
 6649 030f 05       		.byte	0x5
 6650 0310 00       		.uleb128 0
 6651 0311 A81A0000 		.4byte	.LASF130
 6652 0315 05       		.byte	0x5
 6653 0316 00       		.uleb128 0
 6654 0317 773E0000 		.4byte	.LASF131
 6655 031b 05       		.byte	0x5
 6656 031c 00       		.uleb128 0
 6657 031d 19240000 		.4byte	.LASF132
 6658 0321 05       		.byte	0x5
 6659 0322 00       		.uleb128 0
 6660 0323 772A0000 		.4byte	.LASF133
 6661 0327 05       		.byte	0x5
 6662 0328 00       		.uleb128 0
 6663 0329 84280000 		.4byte	.LASF134
 6664 032d 05       		.byte	0x5
ARM GAS  /var/folders/z0/6xlwn_996xz3mwq1cgzkbq4r0000gp/T//cckgJHwF.s 			page 139


 6665 032e 00       		.uleb128 0
 6666 032f FA060000 		.4byte	.LASF135
 6667 0333 05       		.byte	0x5
 6668 0334 00       		.uleb128 0
 6669 0335 A6350000 		.4byte	.LASF136
 6670 0339 05       		.byte	0x5
 6671 033a 00       		.uleb128 0
 6672 033b 011C0000 		.4byte	.LASF137
 6673 033f 05       		.byte	0x5
 6674 0340 00       		.uleb128 0
 6675 0341 5E7B0000 		.4byte	.LASF138
 6676 0345 05       		.byte	0x5
 6677 0346 00       		.uleb128 0
 6678 0347 09370000 		.4byte	.LASF139
 6679 034b 05       		.byte	0x5
 6680 034c 00       		.uleb128 0
 6681 034d 8D540000 		.4byte	.LASF140
 6682 0351 05       		.byte	0x5
 6683 0352 00       		.uleb128 0
 6684 0353 117A0000 		.4byte	.LASF141
 6685 0357 05       		.byte	0x5
 6686 0358 00       		.uleb128 0
 6687 0359 073B0000 		.4byte	.LASF142
 6688 035d 05       		.byte	0x5
 6689 035e 00       		.uleb128 0
 6690 035f 30050000 		.4byte	.LASF143
 6691 0363 05       		.byte	0x5
 6692 0364 00       		.uleb128 0
 6693 0365 E4690000 		.4byte	.LASF144
 6694 0369 05       		.byte	0x5
 6695 036a 00       		.uleb128 0
 6696 036b F0730000 		.4byte	.LASF145
 6697 036f 05       		.byte	0x5
 6698 0370 00       		.uleb128 0
 6699 0371 27140000 		.4byte	.LASF146
 6700 0375 05       		.byte	0x5
 6701 0376 00       		.uleb128 0
 6702 0377 74350000 		.4byte	.LASF147
 6703 037b 05       		.byte	0x5
 6704 037c 00       		.uleb128 0
 6705 037d 456E0000 		.4byte	.LASF148
 6706 0381 05       		.byte	0x5
 6707 0382 00       		.uleb128 0
 6708 0383 CD260000 		.4byte	.LASF149
 6709 0387 05       		.byte	0x5
 6710 0388 00       		.uleb128 0
 6711 0389 5E680000 		.4byte	.LASF150
 6712 038d 05       		.byte	0x5
 6713 038e 00       		.uleb128 0
 6714 038f 32620000 		.4byte	.LASF151
 6715 0393 05       		.byte	0x5
 6716 0394 00       		.uleb128 0
 6717 0395 08080000 		.4byte	.LASF152
 6718 0399 05       		.byte	0x5
 6719 039a 00       		.uleb128 0
 6720 039b DC720000 		.4byte	.LASF153
 6721 039f 05       		.byte	0x5
ARM GAS  /var/folders/z0/6xlwn_996xz3mwq1cgzkbq4r0000gp/T//cckgJHwF.s 			page 140


 6722 03a0 00       		.uleb128 0
 6723 03a1 DF070000 		.4byte	.LASF154
 6724 03a5 05       		.byte	0x5
 6725 03a6 00       		.uleb128 0
 6726 03a7 4D4E0000 		.4byte	.LASF155
 6727 03ab 05       		.byte	0x5
 6728 03ac 00       		.uleb128 0
 6729 03ad 3F260000 		.4byte	.LASF156
 6730 03b1 05       		.byte	0x5
 6731 03b2 00       		.uleb128 0
 6732 03b3 99470000 		.4byte	.LASF157
 6733 03b7 05       		.byte	0x5
 6734 03b8 00       		.uleb128 0
 6735 03b9 53000000 		.4byte	.LASF158
 6736 03bd 05       		.byte	0x5
 6737 03be 00       		.uleb128 0
 6738 03bf 723F0000 		.4byte	.LASF159
 6739 03c3 05       		.byte	0x5
 6740 03c4 00       		.uleb128 0
 6741 03c5 7A660000 		.4byte	.LASF160
 6742 03c9 05       		.byte	0x5
 6743 03ca 00       		.uleb128 0
 6744 03cb 9D3A0000 		.4byte	.LASF161
 6745 03cf 05       		.byte	0x5
 6746 03d0 00       		.uleb128 0
 6747 03d1 D63C0000 		.4byte	.LASF162
 6748 03d5 05       		.byte	0x5
 6749 03d6 00       		.uleb128 0
 6750 03d7 D6550000 		.4byte	.LASF163
 6751 03db 05       		.byte	0x5
 6752 03dc 00       		.uleb128 0
 6753 03dd 19480000 		.4byte	.LASF164
 6754 03e1 05       		.byte	0x5
 6755 03e2 00       		.uleb128 0
 6756 03e3 1A400000 		.4byte	.LASF165
 6757 03e7 05       		.byte	0x5
 6758 03e8 00       		.uleb128 0
 6759 03e9 C3500000 		.4byte	.LASF166
 6760 03ed 05       		.byte	0x5
 6761 03ee 00       		.uleb128 0
 6762 03ef 1E410000 		.4byte	.LASF167
 6763 03f3 05       		.byte	0x5
 6764 03f4 00       		.uleb128 0
 6765 03f5 D2370000 		.4byte	.LASF168
 6766 03f9 05       		.byte	0x5
 6767 03fa 00       		.uleb128 0
 6768 03fb 17060000 		.4byte	.LASF169
 6769 03ff 05       		.byte	0x5
 6770 0400 00       		.uleb128 0
 6771 0401 A2110000 		.4byte	.LASF170
 6772 0405 05       		.byte	0x5
 6773 0406 00       		.uleb128 0
 6774 0407 2E0F0000 		.4byte	.LASF171
 6775 040b 05       		.byte	0x5
 6776 040c 00       		.uleb128 0
 6777 040d FB020000 		.4byte	.LASF172
 6778 0411 05       		.byte	0x5
ARM GAS  /var/folders/z0/6xlwn_996xz3mwq1cgzkbq4r0000gp/T//cckgJHwF.s 			page 141


 6779 0412 00       		.uleb128 0
 6780 0413 EA540000 		.4byte	.LASF173
 6781 0417 05       		.byte	0x5
 6782 0418 00       		.uleb128 0
 6783 0419 6A4B0000 		.4byte	.LASF174
 6784 041d 05       		.byte	0x5
 6785 041e 00       		.uleb128 0
 6786 041f A3060000 		.4byte	.LASF175
 6787 0423 05       		.byte	0x5
 6788 0424 00       		.uleb128 0
 6789 0425 A4690000 		.4byte	.LASF176
 6790 0429 05       		.byte	0x5
 6791 042a 00       		.uleb128 0
 6792 042b B0190000 		.4byte	.LASF177
 6793 042f 05       		.byte	0x5
 6794 0430 00       		.uleb128 0
 6795 0431 74730000 		.4byte	.LASF178
 6796 0435 05       		.byte	0x5
 6797 0436 00       		.uleb128 0
 6798 0437 71310000 		.4byte	.LASF179
 6799 043b 05       		.byte	0x5
 6800 043c 00       		.uleb128 0
 6801 043d 914D0000 		.4byte	.LASF180
 6802 0441 05       		.byte	0x5
 6803 0442 00       		.uleb128 0
 6804 0443 A2140000 		.4byte	.LASF181
 6805 0447 05       		.byte	0x5
 6806 0448 00       		.uleb128 0
 6807 0449 711E0000 		.4byte	.LASF182
 6808 044d 05       		.byte	0x5
 6809 044e 00       		.uleb128 0
 6810 044f B4650000 		.4byte	.LASF183
 6811 0453 05       		.byte	0x5
 6812 0454 00       		.uleb128 0
 6813 0455 D2390000 		.4byte	.LASF184
 6814 0459 05       		.byte	0x5
 6815 045a 00       		.uleb128 0
 6816 045b DE000000 		.4byte	.LASF185
 6817 045f 05       		.byte	0x5
 6818 0460 00       		.uleb128 0
 6819 0461 A0640000 		.4byte	.LASF186
 6820 0465 05       		.byte	0x5
 6821 0466 00       		.uleb128 0
 6822 0467 A8010000 		.4byte	.LASF187
 6823 046b 05       		.byte	0x5
 6824 046c 00       		.uleb128 0
 6825 046d E3440000 		.4byte	.LASF188
 6826 0471 05       		.byte	0x5
 6827 0472 00       		.uleb128 0
 6828 0473 CA360000 		.4byte	.LASF189
 6829 0477 05       		.byte	0x5
 6830 0478 00       		.uleb128 0
 6831 0479 6D780000 		.4byte	.LASF190
 6832 047d 05       		.byte	0x5
 6833 047e 00       		.uleb128 0
 6834 047f A46E0000 		.4byte	.LASF191
 6835 0483 05       		.byte	0x5
ARM GAS  /var/folders/z0/6xlwn_996xz3mwq1cgzkbq4r0000gp/T//cckgJHwF.s 			page 142


 6836 0484 00       		.uleb128 0
 6837 0485 1C320000 		.4byte	.LASF192
 6838 0489 05       		.byte	0x5
 6839 048a 00       		.uleb128 0
 6840 048b 4E250000 		.4byte	.LASF193
 6841 048f 05       		.byte	0x5
 6842 0490 00       		.uleb128 0
 6843 0491 D3250000 		.4byte	.LASF194
 6844 0495 05       		.byte	0x5
 6845 0496 00       		.uleb128 0
 6846 0497 6E0B0000 		.4byte	.LASF195
 6847 049b 05       		.byte	0x5
 6848 049c 00       		.uleb128 0
 6849 049d A2310000 		.4byte	.LASF196
 6850 04a1 05       		.byte	0x5
 6851 04a2 00       		.uleb128 0
 6852 04a3 E51B0000 		.4byte	.LASF197
 6853 04a7 05       		.byte	0x5
 6854 04a8 00       		.uleb128 0
 6855 04a9 D6200000 		.4byte	.LASF198
 6856 04ad 05       		.byte	0x5
 6857 04ae 00       		.uleb128 0
 6858 04af 60330000 		.4byte	.LASF199
 6859 04b3 05       		.byte	0x5
 6860 04b4 00       		.uleb128 0
 6861 04b5 58480000 		.4byte	.LASF200
 6862 04b9 05       		.byte	0x5
 6863 04ba 00       		.uleb128 0
 6864 04bb 09390000 		.4byte	.LASF201
 6865 04bf 05       		.byte	0x5
 6866 04c0 00       		.uleb128 0
 6867 04c1 76670000 		.4byte	.LASF202
 6868 04c5 05       		.byte	0x5
 6869 04c6 00       		.uleb128 0
 6870 04c7 7F530000 		.4byte	.LASF203
 6871 04cb 05       		.byte	0x5
 6872 04cc 00       		.uleb128 0
 6873 04cd BE110000 		.4byte	.LASF204
 6874 04d1 05       		.byte	0x5
 6875 04d2 00       		.uleb128 0
 6876 04d3 1A440000 		.4byte	.LASF205
 6877 04d7 05       		.byte	0x5
 6878 04d8 00       		.uleb128 0
 6879 04d9 DD3E0000 		.4byte	.LASF206
 6880 04dd 05       		.byte	0x5
 6881 04de 00       		.uleb128 0
 6882 04df EB420000 		.4byte	.LASF207
 6883 04e3 05       		.byte	0x5
 6884 04e4 00       		.uleb128 0
 6885 04e5 C54E0000 		.4byte	.LASF208
 6886 04e9 05       		.byte	0x5
 6887 04ea 00       		.uleb128 0
 6888 04eb FE030000 		.4byte	.LASF209
 6889 04ef 05       		.byte	0x5
 6890 04f0 00       		.uleb128 0
 6891 04f1 D14B0000 		.4byte	.LASF210
 6892 04f5 05       		.byte	0x5
ARM GAS  /var/folders/z0/6xlwn_996xz3mwq1cgzkbq4r0000gp/T//cckgJHwF.s 			page 143


 6893 04f6 00       		.uleb128 0
 6894 04f7 D74E0000 		.4byte	.LASF211
 6895 04fb 05       		.byte	0x5
 6896 04fc 00       		.uleb128 0
 6897 04fd DD0C0000 		.4byte	.LASF212
 6898 0501 05       		.byte	0x5
 6899 0502 00       		.uleb128 0
 6900 0503 790D0000 		.4byte	.LASF213
 6901 0507 05       		.byte	0x5
 6902 0508 00       		.uleb128 0
 6903 0509 825C0000 		.4byte	.LASF214
 6904 050d 05       		.byte	0x5
 6905 050e 00       		.uleb128 0
 6906 050f C5590000 		.4byte	.LASF215
 6907 0513 05       		.byte	0x5
 6908 0514 00       		.uleb128 0
 6909 0515 EF640000 		.4byte	.LASF216
 6910 0519 05       		.byte	0x5
 6911 051a 00       		.uleb128 0
 6912 051b 32740000 		.4byte	.LASF217
 6913 051f 05       		.byte	0x5
 6914 0520 00       		.uleb128 0
 6915 0521 DF700000 		.4byte	.LASF218
 6916 0525 05       		.byte	0x5
 6917 0526 00       		.uleb128 0
 6918 0527 886D0000 		.4byte	.LASF219
 6919 052b 05       		.byte	0x5
 6920 052c 00       		.uleb128 0
 6921 052d 8D620000 		.4byte	.LASF220
 6922 0531 05       		.byte	0x5
 6923 0532 00       		.uleb128 0
 6924 0533 DA5E0000 		.4byte	.LASF221
 6925 0537 05       		.byte	0x5
 6926 0538 00       		.uleb128 0
 6927 0539 250A0000 		.4byte	.LASF222
 6928 053d 05       		.byte	0x5
 6929 053e 00       		.uleb128 0
 6930 053f 483D0000 		.4byte	.LASF223
 6931 0543 05       		.byte	0x5
 6932 0544 00       		.uleb128 0
 6933 0545 3C700000 		.4byte	.LASF224
 6934 0549 05       		.byte	0x5
 6935 054a 00       		.uleb128 0
 6936 054b 32160000 		.4byte	.LASF225
 6937 054f 05       		.byte	0x5
 6938 0550 00       		.uleb128 0
 6939 0551 EF6C0000 		.4byte	.LASF226
 6940 0555 05       		.byte	0x5
 6941 0556 00       		.uleb128 0
 6942 0557 377C0000 		.4byte	.LASF227
 6943 055b 05       		.byte	0x5
 6944 055c 00       		.uleb128 0
 6945 055d D2580000 		.4byte	.LASF228
 6946 0561 05       		.byte	0x5
 6947 0562 00       		.uleb128 0
 6948 0563 A3590000 		.4byte	.LASF229
 6949 0567 05       		.byte	0x5
ARM GAS  /var/folders/z0/6xlwn_996xz3mwq1cgzkbq4r0000gp/T//cckgJHwF.s 			page 144


 6950 0568 00       		.uleb128 0
 6951 0569 E2630000 		.4byte	.LASF230
 6952 056d 05       		.byte	0x5
 6953 056e 00       		.uleb128 0
 6954 056f 83710000 		.4byte	.LASF231
 6955 0573 05       		.byte	0x5
 6956 0574 00       		.uleb128 0
 6957 0575 922C0000 		.4byte	.LASF232
 6958 0579 05       		.byte	0x5
 6959 057a 00       		.uleb128 0
 6960 057b 37490000 		.4byte	.LASF233
 6961 057f 05       		.byte	0x5
 6962 0580 00       		.uleb128 0
 6963 0581 56510000 		.4byte	.LASF234
 6964 0585 05       		.byte	0x5
 6965 0586 00       		.uleb128 0
 6966 0587 FA050000 		.4byte	.LASF235
 6967 058b 05       		.byte	0x5
 6968 058c 00       		.uleb128 0
 6969 058d 14620000 		.4byte	.LASF236
 6970 0591 05       		.byte	0x5
 6971 0592 00       		.uleb128 0
 6972 0593 28130000 		.4byte	.LASF237
 6973 0597 05       		.byte	0x5
 6974 0598 00       		.uleb128 0
 6975 0599 A0660000 		.4byte	.LASF238
 6976 059d 05       		.byte	0x5
 6977 059e 00       		.uleb128 0
 6978 059f 77040000 		.4byte	.LASF239
 6979 05a3 05       		.byte	0x5
 6980 05a4 00       		.uleb128 0
 6981 05a5 D8350000 		.4byte	.LASF240
 6982 05a9 05       		.byte	0x5
 6983 05aa 00       		.uleb128 0
 6984 05ab A2720000 		.4byte	.LASF241
 6985 05af 05       		.byte	0x5
 6986 05b0 00       		.uleb128 0
 6987 05b1 AC3E0000 		.4byte	.LASF242
 6988 05b5 05       		.byte	0x5
 6989 05b6 00       		.uleb128 0
 6990 05b7 B6130000 		.4byte	.LASF243
 6991 05bb 05       		.byte	0x5
 6992 05bc 00       		.uleb128 0
 6993 05bd 392A0000 		.4byte	.LASF244
 6994 05c1 05       		.byte	0x5
 6995 05c2 00       		.uleb128 0
 6996 05c3 F23B0000 		.4byte	.LASF245
 6997 05c7 05       		.byte	0x5
 6998 05c8 00       		.uleb128 0
 6999 05c9 AA2B0000 		.4byte	.LASF246
 7000 05cd 05       		.byte	0x5
 7001 05ce 00       		.uleb128 0
 7002 05cf 5A2D0000 		.4byte	.LASF247
 7003 05d3 05       		.byte	0x5
 7004 05d4 00       		.uleb128 0
 7005 05d5 E2650000 		.4byte	.LASF248
 7006 05d9 05       		.byte	0x5
ARM GAS  /var/folders/z0/6xlwn_996xz3mwq1cgzkbq4r0000gp/T//cckgJHwF.s 			page 145


 7007 05da 00       		.uleb128 0
 7008 05db CD6D0000 		.4byte	.LASF249
 7009 05df 05       		.byte	0x5
 7010 05e0 00       		.uleb128 0
 7011 05e1 8E360000 		.4byte	.LASF250
 7012 05e5 05       		.byte	0x5
 7013 05e6 00       		.uleb128 0
 7014 05e7 24020000 		.4byte	.LASF251
 7015 05eb 05       		.byte	0x5
 7016 05ec 00       		.uleb128 0
 7017 05ed 4E6A0000 		.4byte	.LASF252
 7018 05f1 05       		.byte	0x5
 7019 05f2 00       		.uleb128 0
 7020 05f3 2A580000 		.4byte	.LASF253
 7021 05f7 05       		.byte	0x5
 7022 05f8 00       		.uleb128 0
 7023 05f9 503F0000 		.4byte	.LASF254
 7024 05fd 05       		.byte	0x5
 7025 05fe 00       		.uleb128 0
 7026 05ff 2E5C0000 		.4byte	.LASF255
 7027 0603 05       		.byte	0x5
 7028 0604 00       		.uleb128 0
 7029 0605 BD720000 		.4byte	.LASF256
 7030 0609 05       		.byte	0x5
 7031 060a 00       		.uleb128 0
 7032 060b 6C600000 		.4byte	.LASF257
 7033 060f 05       		.byte	0x5
 7034 0610 00       		.uleb128 0
 7035 0611 B8380000 		.4byte	.LASF258
 7036 0615 05       		.byte	0x5
 7037 0616 00       		.uleb128 0
 7038 0617 FD010000 		.4byte	.LASF259
 7039 061b 05       		.byte	0x5
 7040 061c 00       		.uleb128 0
 7041 061d 2F320000 		.4byte	.LASF260
 7042 0621 05       		.byte	0x5
 7043 0622 00       		.uleb128 0
 7044 0623 1A5B0000 		.4byte	.LASF261
 7045 0627 05       		.byte	0x5
 7046 0628 00       		.uleb128 0
 7047 0629 8E210000 		.4byte	.LASF262
 7048 062d 05       		.byte	0x5
 7049 062e 00       		.uleb128 0
 7050 062f A76C0000 		.4byte	.LASF263
 7051 0633 05       		.byte	0x5
 7052 0634 00       		.uleb128 0
 7053 0635 497C0000 		.4byte	.LASF264
 7054 0639 05       		.byte	0x5
 7055 063a 00       		.uleb128 0
 7056 063b 8F050000 		.4byte	.LASF265
 7057 063f 05       		.byte	0x5
 7058 0640 00       		.uleb128 0
 7059 0641 D8280000 		.4byte	.LASF266
 7060 0645 05       		.byte	0x5
 7061 0646 00       		.uleb128 0
 7062 0647 996B0000 		.4byte	.LASF267
 7063 064b 05       		.byte	0x5
ARM GAS  /var/folders/z0/6xlwn_996xz3mwq1cgzkbq4r0000gp/T//cckgJHwF.s 			page 146


 7064 064c 00       		.uleb128 0
 7065 064d 3A0A0000 		.4byte	.LASF268
 7066 0651 05       		.byte	0x5
 7067 0652 00       		.uleb128 0
 7068 0653 04750000 		.4byte	.LASF269
 7069 0657 05       		.byte	0x5
 7070 0658 00       		.uleb128 0
 7071 0659 722C0000 		.4byte	.LASF270
 7072 065d 05       		.byte	0x5
 7073 065e 00       		.uleb128 0
 7074 065f 010E0000 		.4byte	.LASF271
 7075 0663 05       		.byte	0x5
 7076 0664 00       		.uleb128 0
 7077 0665 67060000 		.4byte	.LASF272
 7078 0669 05       		.byte	0x5
 7079 066a 00       		.uleb128 0
 7080 066b E4580000 		.4byte	.LASF273
 7081 066f 05       		.byte	0x5
 7082 0670 00       		.uleb128 0
 7083 0671 A35C0000 		.4byte	.LASF274
 7084 0675 05       		.byte	0x5
 7085 0676 00       		.uleb128 0
 7086 0677 A7200000 		.4byte	.LASF275
 7087 067b 05       		.byte	0x5
 7088 067c 00       		.uleb128 0
 7089 067d EC190000 		.4byte	.LASF276
 7090 0681 05       		.byte	0x5
 7091 0682 00       		.uleb128 0
 7092 0683 1B4B0000 		.4byte	.LASF277
 7093 0687 05       		.byte	0x5
 7094 0688 00       		.uleb128 0
 7095 0689 0B3F0000 		.4byte	.LASF278
 7096 068d 05       		.byte	0x5
 7097 068e 00       		.uleb128 0
 7098 068f A40E0000 		.4byte	.LASF279
 7099 0693 05       		.byte	0x5
 7100 0694 00       		.uleb128 0
 7101 0695 18610000 		.4byte	.LASF280
 7102 0699 05       		.byte	0x5
 7103 069a 00       		.uleb128 0
 7104 069b C90D0000 		.4byte	.LASF281
 7105 069f 05       		.byte	0x5
 7106 06a0 00       		.uleb128 0
 7107 06a1 D0600000 		.4byte	.LASF282
 7108 06a5 05       		.byte	0x5
 7109 06a6 00       		.uleb128 0
 7110 06a7 2D470000 		.4byte	.LASF283
 7111 06ab 05       		.byte	0x5
 7112 06ac 00       		.uleb128 0
 7113 06ad A2700000 		.4byte	.LASF284
 7114 06b1 05       		.byte	0x5
 7115 06b2 00       		.uleb128 0
 7116 06b3 A95A0000 		.4byte	.LASF285
 7117 06b7 05       		.byte	0x5
 7118 06b8 00       		.uleb128 0
 7119 06b9 BC5E0000 		.4byte	.LASF286
 7120 06bd 05       		.byte	0x5
ARM GAS  /var/folders/z0/6xlwn_996xz3mwq1cgzkbq4r0000gp/T//cckgJHwF.s 			page 147


 7121 06be 00       		.uleb128 0
 7122 06bf 3D240000 		.4byte	.LASF287
 7123 06c3 05       		.byte	0x5
 7124 06c4 00       		.uleb128 0
 7125 06c5 10410000 		.4byte	.LASF288
 7126 06c9 05       		.byte	0x5
 7127 06ca 00       		.uleb128 0
 7128 06cb CB5E0000 		.4byte	.LASF289
 7129 06cf 05       		.byte	0x5
 7130 06d0 00       		.uleb128 0
 7131 06d1 FA360000 		.4byte	.LASF290
 7132 06d5 05       		.byte	0x5
 7133 06d6 00       		.uleb128 0
 7134 06d7 F6270000 		.4byte	.LASF291
 7135 06db 05       		.byte	0x5
 7136 06dc 00       		.uleb128 0
 7137 06dd D71C0000 		.4byte	.LASF292
 7138 06e1 05       		.byte	0x5
 7139 06e2 00       		.uleb128 0
 7140 06e3 012E0000 		.4byte	.LASF293
 7141 06e7 05       		.byte	0x5
 7142 06e8 00       		.uleb128 0
 7143 06e9 54010000 		.4byte	.LASF294
 7144 06ed 05       		.byte	0x5
 7145 06ee 00       		.uleb128 0
 7146 06ef 85000000 		.4byte	.LASF295
 7147 06f3 05       		.byte	0x5
 7148 06f4 00       		.uleb128 0
 7149 06f5 7D720000 		.4byte	.LASF296
 7150 06f9 05       		.byte	0x5
 7151 06fa 00       		.uleb128 0
 7152 06fb DB4D0000 		.4byte	.LASF297
 7153 06ff 05       		.byte	0x5
 7154 0700 00       		.uleb128 0
 7155 0701 FD220000 		.4byte	.LASF298
 7156 0705 05       		.byte	0x5
 7157 0706 00       		.uleb128 0
 7158 0707 00150000 		.4byte	.LASF299
 7159 070b 05       		.byte	0x5
 7160 070c 00       		.uleb128 0
 7161 070d B3670000 		.4byte	.LASF300
 7162 0711 05       		.byte	0x5
 7163 0712 00       		.uleb128 0
 7164 0713 1F0E0000 		.4byte	.LASF301
 7165 0717 05       		.byte	0x5
 7166 0718 00       		.uleb128 0
 7167 0719 976C0000 		.4byte	.LASF302
 7168 071d 05       		.byte	0x5
 7169 071e 00       		.uleb128 0
 7170 071f 8B640000 		.4byte	.LASF303
 7171 0723 05       		.byte	0x5
 7172 0724 00       		.uleb128 0
 7173 0725 8D320000 		.4byte	.LASF304
 7174 0729 05       		.byte	0x5
 7175 072a 00       		.uleb128 0
 7176 072b 440B0000 		.4byte	.LASF305
 7177 072f 05       		.byte	0x5
ARM GAS  /var/folders/z0/6xlwn_996xz3mwq1cgzkbq4r0000gp/T//cckgJHwF.s 			page 148


 7178 0730 00       		.uleb128 0
 7179 0731 68610000 		.4byte	.LASF306
 7180 0735 05       		.byte	0x5
 7181 0736 00       		.uleb128 0
 7182 0737 82150000 		.4byte	.LASF307
 7183 073b 05       		.byte	0x5
 7184 073c 00       		.uleb128 0
 7185 073d 874E0000 		.4byte	.LASF308
 7186 0741 05       		.byte	0x5
 7187 0742 00       		.uleb128 0
 7188 0743 E53A0000 		.4byte	.LASF309
 7189 0747 05       		.byte	0x5
 7190 0748 00       		.uleb128 0
 7191 0749 C8540000 		.4byte	.LASF310
 7192 074d 05       		.byte	0x5
 7193 074e 00       		.uleb128 0
 7194 074f 33010000 		.4byte	.LASF311
 7195 0753 05       		.byte	0x5
 7196 0754 00       		.uleb128 0
 7197 0755 002C0000 		.4byte	.LASF312
 7198 0759 05       		.byte	0x5
 7199 075a 00       		.uleb128 0
 7200 075b 45610000 		.4byte	.LASF313
 7201 075f 05       		.byte	0x5
 7202 0760 00       		.uleb128 0
 7203 0761 323F0000 		.4byte	.LASF314
 7204 0765 05       		.byte	0x5
 7205 0766 00       		.uleb128 0
 7206 0767 79240000 		.4byte	.LASF315
 7207 076b 05       		.byte	0x5
 7208 076c 00       		.uleb128 0
 7209 076d BC6B0000 		.4byte	.LASF316
 7210 0771 05       		.byte	0x5
 7211 0772 00       		.uleb128 0
 7212 0773 6C540000 		.4byte	.LASF317
 7213 0777 05       		.byte	0x5
 7214 0778 00       		.uleb128 0
 7215 0779 A0150000 		.4byte	.LASF318
 7216 077d 05       		.byte	0x5
 7217 077e 00       		.uleb128 0
 7218 077f 9A220000 		.4byte	.LASF319
 7219 0783 05       		.byte	0x5
 7220 0784 00       		.uleb128 0
 7221 0785 0D430000 		.4byte	.LASF320
 7222 0789 05       		.byte	0x5
 7223 078a 00       		.uleb128 0
 7224 078b 396D0000 		.4byte	.LASF321
 7225 078f 05       		.byte	0x5
 7226 0790 00       		.uleb128 0
 7227 0791 F14B0000 		.4byte	.LASF322
 7228 0795 05       		.byte	0x5
 7229 0796 00       		.uleb128 0
 7230 0797 0E4F0000 		.4byte	.LASF323
 7231 079b 05       		.byte	0x5
 7232 079c 00       		.uleb128 0
 7233 079d 8B340000 		.4byte	.LASF324
 7234 07a1 05       		.byte	0x5
ARM GAS  /var/folders/z0/6xlwn_996xz3mwq1cgzkbq4r0000gp/T//cckgJHwF.s 			page 149


 7235 07a2 00       		.uleb128 0
 7236 07a3 29070000 		.4byte	.LASF325
 7237 07a7 05       		.byte	0x5
 7238 07a8 00       		.uleb128 0
 7239 07a9 984F0000 		.4byte	.LASF326
 7240 07ad 05       		.byte	0x5
 7241 07ae 00       		.uleb128 0
 7242 07af EE5B0000 		.4byte	.LASF327
 7243 07b3 05       		.byte	0x5
 7244 07b4 00       		.uleb128 0
 7245 07b5 7F580000 		.4byte	.LASF328
 7246 07b9 05       		.byte	0x5
 7247 07ba 00       		.uleb128 0
 7248 07bb 86740000 		.4byte	.LASF329
 7249 07bf 05       		.byte	0x5
 7250 07c0 00       		.uleb128 0
 7251 07c1 AF520000 		.4byte	.LASF330
 7252 07c5 05       		.byte	0x5
 7253 07c6 00       		.uleb128 0
 7254 07c7 DB740000 		.4byte	.LASF331
 7255 07cb 05       		.byte	0x5
 7256 07cc 00       		.uleb128 0
 7257 07cd A95F0000 		.4byte	.LASF332
 7258 07d1 05       		.byte	0x5
 7259 07d2 00       		.uleb128 0
 7260 07d3 99370000 		.4byte	.LASF333
 7261 07d7 05       		.byte	0x5
 7262 07d8 00       		.uleb128 0
 7263 07d9 70100000 		.4byte	.LASF334
 7264 07dd 05       		.byte	0x5
 7265 07de 00       		.uleb128 0
 7266 07df 1C160000 		.4byte	.LASF335
 7267 07e3 05       		.byte	0x5
 7268 07e4 00       		.uleb128 0
 7269 07e5 28650000 		.4byte	.LASF336
 7270 07e9 05       		.byte	0x5
 7271 07ea 00       		.uleb128 0
 7272 07eb BD2E0000 		.4byte	.LASF337
 7273 07ef 05       		.byte	0x5
 7274 07f0 00       		.uleb128 0
 7275 07f1 325F0000 		.4byte	.LASF338
 7276 07f5 05       		.byte	0x5
 7277 07f6 00       		.uleb128 0
 7278 07f7 1A000000 		.4byte	.LASF339
 7279 07fb 05       		.byte	0x5
 7280 07fc 00       		.uleb128 0
 7281 07fd 805F0000 		.4byte	.LASF340
 7282 0801 05       		.byte	0x5
 7283 0802 00       		.uleb128 0
 7284 0803 25210000 		.4byte	.LASF341
 7285 0807 05       		.byte	0x5
 7286 0808 00       		.uleb128 0
 7287 0809 C3250000 		.4byte	.LASF342
 7288 080d 05       		.byte	0x5
 7289 080e 00       		.uleb128 0
 7290 080f AF6F0000 		.4byte	.LASF343
 7291 0813 05       		.byte	0x5
ARM GAS  /var/folders/z0/6xlwn_996xz3mwq1cgzkbq4r0000gp/T//cckgJHwF.s 			page 150


 7292 0814 00       		.uleb128 0
 7293 0815 C3300000 		.4byte	.LASF344
 7294 0819 05       		.byte	0x5
 7295 081a 00       		.uleb128 0
 7296 081b 4E2A0000 		.4byte	.LASF345
 7297 081f 05       		.byte	0x5
 7298 0820 00       		.uleb128 0
 7299 0821 68560000 		.4byte	.LASF346
 7300 0825 00       		.byte	0
 7301              		.section	.debug_macro,"G",%progbits,wm4._newlib_version.h.4.ad342815780c8db09778091a421b5b5b,comda
 7302              	.Ldebug_macro2:
 7303 0000 0400     		.2byte	0x4
 7304 0002 00       		.byte	0
 7305 0003 05       		.byte	0x5
 7306 0004 04       		.uleb128 0x4
 7307 0005 8C720000 		.4byte	.LASF352
 7308 0009 05       		.byte	0x5
 7309 000a 06       		.uleb128 0x6
 7310 000b 1A3F0000 		.4byte	.LASF353
 7311 000f 05       		.byte	0x5
 7312 0010 07       		.uleb128 0x7
 7313 0011 D6190000 		.4byte	.LASF354
 7314 0015 05       		.byte	0x5
 7315 0016 08       		.uleb128 0x8
 7316 0017 CE660000 		.4byte	.LASF355
 7317 001b 05       		.byte	0x5
 7318 001c 09       		.uleb128 0x9
 7319 001d 6D570000 		.4byte	.LASF356
 7320 0021 00       		.byte	0
 7321              		.section	.debug_macro,"G",%progbits,wm4.features.h.33.863f3be0b2e521e624fcc7d6fa31d2ca,comdat
 7322              	.Ldebug_macro3:
 7323 0000 0400     		.2byte	0x4
 7324 0002 00       		.byte	0
 7325 0003 05       		.byte	0x5
 7326 0004 21       		.uleb128 0x21
 7327 0005 3A130000 		.4byte	.LASF357
 7328 0009 05       		.byte	0x5
 7329 000a 28       		.uleb128 0x28
 7330 000b 406C0000 		.4byte	.LASF358
 7331 000f 06       		.byte	0x6
 7332 0010 8001     		.uleb128 0x80
 7333 0012 98040000 		.4byte	.LASF359
 7334 0016 05       		.byte	0x5
 7335 0017 8101     		.uleb128 0x81
 7336 0019 C0390000 		.4byte	.LASF360
 7337 001d 06       		.byte	0x6
 7338 001e 8501     		.uleb128 0x85
 7339 0020 8B370000 		.4byte	.LASF361
 7340 0024 05       		.byte	0x5
 7341 0025 8601     		.uleb128 0x86
 7342 0027 01720000 		.4byte	.LASF362
 7343 002b 06       		.byte	0x6
 7344 002c 8701     		.uleb128 0x87
 7345 002e 177B0000 		.4byte	.LASF363
 7346 0032 05       		.byte	0x5
 7347 0033 8801     		.uleb128 0x88
 7348 0035 91170000 		.4byte	.LASF364
ARM GAS  /var/folders/z0/6xlwn_996xz3mwq1cgzkbq4r0000gp/T//cckgJHwF.s 			page 151


 7349 0039 06       		.byte	0x6
 7350 003a 9B01     		.uleb128 0x9b
 7351 003c EA250000 		.4byte	.LASF365
 7352 0040 05       		.byte	0x5
 7353 0041 9C01     		.uleb128 0x9c
 7354 0043 0A450000 		.4byte	.LASF366
 7355 0047 05       		.byte	0x5
 7356 0048 F201     		.uleb128 0xf2
 7357 004a A54E0000 		.4byte	.LASF367
 7358 004e 05       		.byte	0x5
 7359 004f F801     		.uleb128 0xf8
 7360 0051 22430000 		.4byte	.LASF368
 7361 0055 05       		.byte	0x5
 7362 0056 8002     		.uleb128 0x100
 7363 0058 AA580000 		.4byte	.LASF369
 7364 005c 05       		.byte	0x5
 7365 005d 8802     		.uleb128 0x108
 7366 005f 501A0000 		.4byte	.LASF370
 7367 0063 05       		.byte	0x5
 7368 0064 9002     		.uleb128 0x110
 7369 0066 9A190000 		.4byte	.LASF371
 7370 006a 05       		.byte	0x5
 7371 006b 9402     		.uleb128 0x114
 7372 006d 85550000 		.4byte	.LASF372
 7373 0071 05       		.byte	0x5
 7374 0072 9A02     		.uleb128 0x11a
 7375 0074 19460000 		.4byte	.LASF373
 7376 0078 05       		.byte	0x5
 7377 0079 AA02     		.uleb128 0x12a
 7378 007b 94000000 		.4byte	.LASF374
 7379 007f 05       		.byte	0x5
 7380 0080 BA02     		.uleb128 0x13a
 7381 0082 F8070000 		.4byte	.LASF375
 7382 0086 00       		.byte	0
 7383              		.section	.debug_macro,"G",%progbits,wm4._default_types.h.15.933e8edd27a65e0b69af4a865eb623d2,comda
 7384              	.Ldebug_macro4:
 7385 0000 0400     		.2byte	0x4
 7386 0002 00       		.byte	0
 7387 0003 05       		.byte	0x5
 7388 0004 0F       		.uleb128 0xf
 7389 0005 37450000 		.4byte	.LASF376
 7390 0009 05       		.byte	0x5
 7391 000a 21       		.uleb128 0x21
 7392 000b B6360000 		.4byte	.LASF377
 7393 000f 05       		.byte	0x5
 7394 0010 2F       		.uleb128 0x2f
 7395 0011 2A260000 		.4byte	.LASF378
 7396 0015 05       		.byte	0x5
 7397 0016 45       		.uleb128 0x45
 7398 0017 AB740000 		.4byte	.LASF379
 7399 001b 05       		.byte	0x5
 7400 001c 5F       		.uleb128 0x5f
 7401 001d C1550000 		.4byte	.LASF380
 7402 0021 05       		.byte	0x5
 7403 0022 7E       		.uleb128 0x7e
 7404 0023 574C0000 		.4byte	.LASF381
 7405 0027 05       		.byte	0x5
ARM GAS  /var/folders/z0/6xlwn_996xz3mwq1cgzkbq4r0000gp/T//cckgJHwF.s 			page 152


 7406 0028 9801     		.uleb128 0x98
 7407 002a 32280000 		.4byte	.LASF382
 7408 002e 05       		.byte	0x5
 7409 002f AE01     		.uleb128 0xae
 7410 0031 F9610000 		.4byte	.LASF383
 7411 0035 05       		.byte	0x5
 7412 0036 C001     		.uleb128 0xc0
 7413 0038 45440000 		.4byte	.LASF384
 7414 003c 06       		.byte	0x6
 7415 003d D601     		.uleb128 0xd6
 7416 003f A0550000 		.4byte	.LASF385
 7417 0043 00       		.byte	0
 7418              		.section	.debug_macro,"G",%progbits,wm4._intsup.h.10.b82bf99f69d6a5c085fc866de0d3eb9b,comdat
 7419              	.Ldebug_macro5:
 7420 0000 0400     		.2byte	0x4
 7421 0002 00       		.byte	0
 7422 0003 05       		.byte	0x5
 7423 0004 0A       		.uleb128 0xa
 7424 0005 4F710000 		.4byte	.LASF386
 7425 0009 05       		.byte	0x5
 7426 000a 10       		.uleb128 0x10
 7427 000b 1B450000 		.4byte	.LASF387
 7428 000f 05       		.byte	0x5
 7429 0010 1A       		.uleb128 0x1a
 7430 0011 6E5B0000 		.4byte	.LASF388
 7431 0015 05       		.byte	0x5
 7432 0016 21       		.uleb128 0x21
 7433 0017 156A0000 		.4byte	.LASF389
 7434 001b 06       		.byte	0x6
 7435 001c 38       		.uleb128 0x38
 7436 001d 18370000 		.4byte	.LASF390
 7437 0021 06       		.byte	0x6
 7438 0022 39       		.uleb128 0x39
 7439 0023 8E080000 		.4byte	.LASF391
 7440 0027 06       		.byte	0x6
 7441 0028 3A       		.uleb128 0x3a
 7442 0029 F8220000 		.4byte	.LASF392
 7443 002d 06       		.byte	0x6
 7444 002e 3B       		.uleb128 0x3b
 7445 002f 62610000 		.4byte	.LASF393
 7446 0033 02       		.byte	0x2
 7447 0034 3C       		.uleb128 0x3c
 7448 0035 696E7400 		.ascii	"int\000"
 7449 0039 06       		.byte	0x6
 7450 003a 3D       		.uleb128 0x3d
 7451 003b 0C710000 		.4byte	.LASF394
 7452 003f 06       		.byte	0x6
 7453 0040 3E       		.uleb128 0x3e
 7454 0041 41530000 		.4byte	.LASF395
 7455 0045 05       		.byte	0x5
 7456 0046 3F       		.uleb128 0x3f
 7457 0047 EB0A0000 		.4byte	.LASF396
 7458 004b 05       		.byte	0x5
 7459 004c 40       		.uleb128 0x40
 7460 004d 3D3B0000 		.4byte	.LASF397
 7461 0051 05       		.byte	0x5
 7462 0052 41       		.uleb128 0x41
ARM GAS  /var/folders/z0/6xlwn_996xz3mwq1cgzkbq4r0000gp/T//cckgJHwF.s 			page 153


 7463 0053 C94B0000 		.4byte	.LASF398
 7464 0057 05       		.byte	0x5
 7465 0058 42       		.uleb128 0x42
 7466 0059 64790000 		.4byte	.LASF399
 7467 005d 05       		.byte	0x5
 7468 005e 43       		.uleb128 0x43
 7469 005f 803C0000 		.4byte	.LASF400
 7470 0063 05       		.byte	0x5
 7471 0064 44       		.uleb128 0x44
 7472 0065 45380000 		.4byte	.LASF401
 7473 0069 05       		.byte	0x5
 7474 006a 45       		.uleb128 0x45
 7475 006b E94F0000 		.4byte	.LASF402
 7476 006f 05       		.byte	0x5
 7477 0070 4E       		.uleb128 0x4e
 7478 0071 7B340000 		.4byte	.LASF403
 7479 0075 05       		.byte	0x5
 7480 0076 55       		.uleb128 0x55
 7481 0077 5B750000 		.4byte	.LASF404
 7482 007b 05       		.byte	0x5
 7483 007c 5D       		.uleb128 0x5d
 7484 007d D1090000 		.4byte	.LASF405
 7485 0081 05       		.byte	0x5
 7486 0082 68       		.uleb128 0x68
 7487 0083 A84A0000 		.4byte	.LASF406
 7488 0087 05       		.byte	0x5
 7489 0088 73       		.uleb128 0x73
 7490 0089 EF6E0000 		.4byte	.LASF407
 7491 008d 05       		.byte	0x5
 7492 008e 7C       		.uleb128 0x7c
 7493 008f 8B100000 		.4byte	.LASF408
 7494 0093 05       		.byte	0x5
 7495 0094 8301     		.uleb128 0x83
 7496 0096 566B0000 		.4byte	.LASF409
 7497 009a 05       		.byte	0x5
 7498 009b 8C01     		.uleb128 0x8c
 7499 009d 38190000 		.4byte	.LASF410
 7500 00a1 05       		.byte	0x5
 7501 00a2 9301     		.uleb128 0x93
 7502 00a4 763C0000 		.4byte	.LASF411
 7503 00a8 05       		.byte	0x5
 7504 00a9 9E01     		.uleb128 0x9e
 7505 00ab 1C3B0000 		.4byte	.LASF412
 7506 00af 05       		.byte	0x5
 7507 00b0 A201     		.uleb128 0xa2
 7508 00b2 AF280000 		.4byte	.LASF413
 7509 00b6 05       		.byte	0x5
 7510 00b7 AD01     		.uleb128 0xad
 7511 00b9 C3670000 		.4byte	.LASF414
 7512 00bd 05       		.byte	0x5
 7513 00be B801     		.uleb128 0xb8
 7514 00c0 7D100000 		.4byte	.LASF415
 7515 00c4 05       		.byte	0x5
 7516 00c5 C101     		.uleb128 0xc1
 7517 00c7 B9510000 		.4byte	.LASF416
 7518 00cb 06       		.byte	0x6
 7519 00cc C301     		.uleb128 0xc3
ARM GAS  /var/folders/z0/6xlwn_996xz3mwq1cgzkbq4r0000gp/T//cckgJHwF.s 			page 154


 7520 00ce 18370000 		.4byte	.LASF390
 7521 00d2 06       		.byte	0x6
 7522 00d3 C401     		.uleb128 0xc4
 7523 00d5 8E080000 		.4byte	.LASF391
 7524 00d9 06       		.byte	0x6
 7525 00da C501     		.uleb128 0xc5
 7526 00dc F8220000 		.4byte	.LASF392
 7527 00e0 06       		.byte	0x6
 7528 00e1 C601     		.uleb128 0xc6
 7529 00e3 62610000 		.4byte	.LASF393
 7530 00e7 02       		.byte	0x2
 7531 00e8 C701     		.uleb128 0xc7
 7532 00ea 696E7400 		.ascii	"int\000"
 7533 00ee 06       		.byte	0x6
 7534 00ef C801     		.uleb128 0xc8
 7535 00f1 41530000 		.4byte	.LASF395
 7536 00f5 06       		.byte	0x6
 7537 00f6 CD01     		.uleb128 0xcd
 7538 00f8 0C710000 		.4byte	.LASF394
 7539 00fc 00       		.byte	0
 7540              		.section	.debug_macro,"G",%progbits,wm4._stdint.h.10.7a5f60e6741af4a5594a3867d347e1f9,comdat
 7541              	.Ldebug_macro6:
 7542 0000 0400     		.2byte	0x4
 7543 0002 00       		.byte	0
 7544 0003 05       		.byte	0x5
 7545 0004 0A       		.uleb128 0xa
 7546 0005 B0390000 		.4byte	.LASF417
 7547 0009 05       		.byte	0x5
 7548 000a 15       		.uleb128 0x15
 7549 000b 0A6C0000 		.4byte	.LASF418
 7550 000f 05       		.byte	0x5
 7551 0010 19       		.uleb128 0x19
 7552 0011 BE1A0000 		.4byte	.LASF419
 7553 0015 05       		.byte	0x5
 7554 0016 1B       		.uleb128 0x1b
 7555 0017 9E260000 		.4byte	.LASF420
 7556 001b 05       		.byte	0x5
 7557 001c 21       		.uleb128 0x21
 7558 001d 33300000 		.4byte	.LASF421
 7559 0021 05       		.byte	0x5
 7560 0022 25       		.uleb128 0x25
 7561 0023 80600000 		.4byte	.LASF422
 7562 0027 05       		.byte	0x5
 7563 0028 27       		.uleb128 0x27
 7564 0029 98760000 		.4byte	.LASF423
 7565 002d 05       		.byte	0x5
 7566 002e 2D       		.uleb128 0x2d
 7567 002f 3E030000 		.4byte	.LASF424
 7568 0033 05       		.byte	0x5
 7569 0034 31       		.uleb128 0x31
 7570 0035 C3020000 		.4byte	.LASF425
 7571 0039 05       		.byte	0x5
 7572 003a 33       		.uleb128 0x33
 7573 003b A6370000 		.4byte	.LASF426
 7574 003f 05       		.byte	0x5
 7575 0040 39       		.uleb128 0x39
 7576 0041 945D0000 		.4byte	.LASF427
ARM GAS  /var/folders/z0/6xlwn_996xz3mwq1cgzkbq4r0000gp/T//cckgJHwF.s 			page 155


 7577 0045 05       		.byte	0x5
 7578 0046 3D       		.uleb128 0x3d
 7579 0047 F6160000 		.4byte	.LASF428
 7580 004b 05       		.byte	0x5
 7581 004c 3F       		.uleb128 0x3f
 7582 004d C06A0000 		.4byte	.LASF429
 7583 0051 05       		.byte	0x5
 7584 0052 44       		.uleb128 0x44
 7585 0053 1D120000 		.4byte	.LASF430
 7586 0057 05       		.byte	0x5
 7587 0058 49       		.uleb128 0x49
 7588 0059 D95B0000 		.4byte	.LASF431
 7589 005d 00       		.byte	0
 7590              		.section	.debug_macro,"G",%progbits,wm4.stdint.h.23.373a9d32a9e4c2e88fd347156532d281,comdat
 7591              	.Ldebug_macro7:
 7592 0000 0400     		.2byte	0x4
 7593 0002 00       		.byte	0
 7594 0003 05       		.byte	0x5
 7595 0004 17       		.uleb128 0x17
 7596 0005 D0760000 		.4byte	.LASF432
 7597 0009 05       		.byte	0x5
 7598 000a 1D       		.uleb128 0x1d
 7599 000b 902B0000 		.4byte	.LASF433
 7600 000f 05       		.byte	0x5
 7601 0010 23       		.uleb128 0x23
 7602 0011 73320000 		.4byte	.LASF434
 7603 0015 05       		.byte	0x5
 7604 0016 29       		.uleb128 0x29
 7605 0017 1F310000 		.4byte	.LASF435
 7606 001b 05       		.byte	0x5
 7607 001c 35       		.uleb128 0x35
 7608 001d 1B4D0000 		.4byte	.LASF436
 7609 0021 05       		.byte	0x5
 7610 0022 3F       		.uleb128 0x3f
 7611 0023 67470000 		.4byte	.LASF437
 7612 0027 05       		.byte	0x5
 7613 0028 49       		.uleb128 0x49
 7614 0029 250D0000 		.4byte	.LASF438
 7615 002d 05       		.byte	0x5
 7616 002e 53       		.uleb128 0x53
 7617 002f 5E3E0000 		.4byte	.LASF439
 7618 0033 05       		.byte	0x5
 7619 0034 9301     		.uleb128 0x93
 7620 0036 5F2E0000 		.4byte	.LASF440
 7621 003a 05       		.byte	0x5
 7622 003b 9401     		.uleb128 0x94
 7623 003d A84D0000 		.4byte	.LASF441
 7624 0041 05       		.byte	0x5
 7625 0042 9501     		.uleb128 0x95
 7626 0044 E5150000 		.4byte	.LASF442
 7627 0048 05       		.byte	0x5
 7628 0049 AB01     		.uleb128 0xab
 7629 004b 7B330000 		.4byte	.LASF443
 7630 004f 05       		.byte	0x5
 7631 0050 AC01     		.uleb128 0xac
 7632 0052 AF0A0000 		.4byte	.LASF444
 7633 0056 05       		.byte	0x5
ARM GAS  /var/folders/z0/6xlwn_996xz3mwq1cgzkbq4r0000gp/T//cckgJHwF.s 			page 156


 7634 0057 AD01     		.uleb128 0xad
 7635 0059 65760000 		.4byte	.LASF445
 7636 005d 05       		.byte	0x5
 7637 005e B501     		.uleb128 0xb5
 7638 0060 256A0000 		.4byte	.LASF446
 7639 0064 05       		.byte	0x5
 7640 0065 B601     		.uleb128 0xb6
 7641 0067 8E0F0000 		.4byte	.LASF447
 7642 006b 05       		.byte	0x5
 7643 006c B701     		.uleb128 0xb7
 7644 006e AA600000 		.4byte	.LASF448
 7645 0072 05       		.byte	0x5
 7646 0073 C101     		.uleb128 0xc1
 7647 0075 51500000 		.4byte	.LASF449
 7648 0079 05       		.byte	0x5
 7649 007a C201     		.uleb128 0xc2
 7650 007c 9A0C0000 		.4byte	.LASF450
 7651 0080 05       		.byte	0x5
 7652 0081 C301     		.uleb128 0xc3
 7653 0083 A2340000 		.4byte	.LASF451
 7654 0087 05       		.byte	0x5
 7655 0088 CB01     		.uleb128 0xcb
 7656 008a 32430000 		.4byte	.LASF452
 7657 008e 05       		.byte	0x5
 7658 008f CC01     		.uleb128 0xcc
 7659 0091 ED090000 		.4byte	.LASF453
 7660 0095 05       		.byte	0x5
 7661 0096 CD01     		.uleb128 0xcd
 7662 0098 8E290000 		.4byte	.LASF454
 7663 009c 05       		.byte	0x5
 7664 009d D701     		.uleb128 0xd7
 7665 009f 8A5F0000 		.4byte	.LASF455
 7666 00a3 05       		.byte	0x5
 7667 00a4 D801     		.uleb128 0xd8
 7668 00a6 9C270000 		.4byte	.LASF456
 7669 00aa 05       		.byte	0x5
 7670 00ab D901     		.uleb128 0xd9
 7671 00ad E63F0000 		.4byte	.LASF457
 7672 00b1 05       		.byte	0x5
 7673 00b2 E701     		.uleb128 0xe7
 7674 00b4 FE650000 		.4byte	.LASF458
 7675 00b8 05       		.byte	0x5
 7676 00b9 E801     		.uleb128 0xe8
 7677 00bb DA2B0000 		.4byte	.LASF459
 7678 00bf 05       		.byte	0x5
 7679 00c0 E901     		.uleb128 0xe9
 7680 00c2 F7620000 		.4byte	.LASF460
 7681 00c6 05       		.byte	0x5
 7682 00c7 F901     		.uleb128 0xf9
 7683 00c9 EC670000 		.4byte	.LASF461
 7684 00cd 05       		.byte	0x5
 7685 00ce FA01     		.uleb128 0xfa
 7686 00d0 ED470000 		.4byte	.LASF462
 7687 00d4 05       		.byte	0x5
 7688 00d5 FB01     		.uleb128 0xfb
 7689 00d7 AB680000 		.4byte	.LASF463
 7690 00db 05       		.byte	0x5
ARM GAS  /var/folders/z0/6xlwn_996xz3mwq1cgzkbq4r0000gp/T//cckgJHwF.s 			page 157


 7691 00dc 8902     		.uleb128 0x109
 7692 00de E2100000 		.4byte	.LASF464
 7693 00e2 05       		.byte	0x5
 7694 00e3 8A02     		.uleb128 0x10a
 7695 00e5 B40E0000 		.4byte	.LASF465
 7696 00e9 05       		.byte	0x5
 7697 00ea 8B02     		.uleb128 0x10b
 7698 00ec 02580000 		.4byte	.LASF466
 7699 00f0 05       		.byte	0x5
 7700 00f1 9902     		.uleb128 0x119
 7701 00f3 59490000 		.4byte	.LASF467
 7702 00f7 05       		.byte	0x5
 7703 00f8 9A02     		.uleb128 0x11a
 7704 00fa 28200000 		.4byte	.LASF468
 7705 00fe 05       		.byte	0x5
 7706 00ff 9B02     		.uleb128 0x11b
 7707 0101 AC760000 		.4byte	.LASF469
 7708 0105 05       		.byte	0x5
 7709 0106 A902     		.uleb128 0x129
 7710 0108 821D0000 		.4byte	.LASF470
 7711 010c 05       		.byte	0x5
 7712 010d AA02     		.uleb128 0x12a
 7713 010f EB490000 		.4byte	.LASF471
 7714 0113 05       		.byte	0x5
 7715 0114 AB02     		.uleb128 0x12b
 7716 0116 67620000 		.4byte	.LASF472
 7717 011a 05       		.byte	0x5
 7718 011b B902     		.uleb128 0x139
 7719 011d 7D120000 		.4byte	.LASF473
 7720 0121 05       		.byte	0x5
 7721 0122 BA02     		.uleb128 0x13a
 7722 0124 CC7A0000 		.4byte	.LASF474
 7723 0128 05       		.byte	0x5
 7724 0129 BB02     		.uleb128 0x13b
 7725 012b DC240000 		.4byte	.LASF475
 7726 012f 05       		.byte	0x5
 7727 0130 C902     		.uleb128 0x149
 7728 0132 D8500000 		.4byte	.LASF476
 7729 0136 05       		.byte	0x5
 7730 0137 CA02     		.uleb128 0x14a
 7731 0139 C5710000 		.4byte	.LASF477
 7732 013d 05       		.byte	0x5
 7733 013e CB02     		.uleb128 0x14b
 7734 0140 E0400000 		.4byte	.LASF478
 7735 0144 05       		.byte	0x5
 7736 0145 D902     		.uleb128 0x159
 7737 0147 80270000 		.4byte	.LASF479
 7738 014b 05       		.byte	0x5
 7739 014c DA02     		.uleb128 0x15a
 7740 014e A34C0000 		.4byte	.LASF480
 7741 0152 05       		.byte	0x5
 7742 0153 E202     		.uleb128 0x162
 7743 0155 A53B0000 		.4byte	.LASF481
 7744 0159 05       		.byte	0x5
 7745 015a EA02     		.uleb128 0x16a
 7746 015c BA370000 		.4byte	.LASF482
 7747 0160 05       		.byte	0x5
ARM GAS  /var/folders/z0/6xlwn_996xz3mwq1cgzkbq4r0000gp/T//cckgJHwF.s 			page 158


 7748 0161 F002     		.uleb128 0x170
 7749 0163 CB2F0000 		.4byte	.LASF483
 7750 0167 05       		.byte	0x5
 7751 0168 F102     		.uleb128 0x171
 7752 016a 98240000 		.4byte	.LASF484
 7753 016e 05       		.byte	0x5
 7754 016f F502     		.uleb128 0x175
 7755 0171 F50A0000 		.4byte	.LASF485
 7756 0175 05       		.byte	0x5
 7757 0176 F902     		.uleb128 0x179
 7758 0178 27230000 		.4byte	.LASF486
 7759 017c 05       		.byte	0x5
 7760 017d FE02     		.uleb128 0x17e
 7761 017f BA1B0000 		.4byte	.LASF487
 7762 0183 05       		.byte	0x5
 7763 0184 8903     		.uleb128 0x189
 7764 0186 470F0000 		.4byte	.LASF488
 7765 018a 05       		.byte	0x5
 7766 018b 9303     		.uleb128 0x193
 7767 018d 75400000 		.4byte	.LASF489
 7768 0191 05       		.byte	0x5
 7769 0192 9803     		.uleb128 0x198
 7770 0194 3B000000 		.4byte	.LASF490
 7771 0198 05       		.byte	0x5
 7772 0199 9F03     		.uleb128 0x19f
 7773 019b 5E380000 		.4byte	.LASF491
 7774 019f 05       		.byte	0x5
 7775 01a0 A003     		.uleb128 0x1a0
 7776 01a2 8C690000 		.4byte	.LASF492
 7777 01a6 05       		.byte	0x5
 7778 01a7 AB03     		.uleb128 0x1ab
 7779 01a9 8C0D0000 		.4byte	.LASF493
 7780 01ad 05       		.byte	0x5
 7781 01ae AC03     		.uleb128 0x1ac
 7782 01b0 F2700000 		.4byte	.LASF494
 7783 01b4 05       		.byte	0x5
 7784 01b5 B703     		.uleb128 0x1b7
 7785 01b7 4F620000 		.4byte	.LASF495
 7786 01bb 05       		.byte	0x5
 7787 01bc B803     		.uleb128 0x1b8
 7788 01be AC480000 		.4byte	.LASF496
 7789 01c2 05       		.byte	0x5
 7790 01c3 C403     		.uleb128 0x1c4
 7791 01c5 48330000 		.4byte	.LASF497
 7792 01c9 05       		.byte	0x5
 7793 01ca C503     		.uleb128 0x1c5
 7794 01cc 52600000 		.4byte	.LASF498
 7795 01d0 05       		.byte	0x5
 7796 01d1 D403     		.uleb128 0x1d4
 7797 01d3 0D230000 		.4byte	.LASF499
 7798 01d7 05       		.byte	0x5
 7799 01d8 D503     		.uleb128 0x1d5
 7800 01da 69550000 		.4byte	.LASF500
 7801 01de 00       		.byte	0
 7802              		.section	.debug_macro,"G",%progbits,wm4.stdbool.h.29.07dce69c3b78884144b7f7bd19483461,comdat
 7803              	.Ldebug_macro8:
 7804 0000 0400     		.2byte	0x4
ARM GAS  /var/folders/z0/6xlwn_996xz3mwq1cgzkbq4r0000gp/T//cckgJHwF.s 			page 159


 7805 0002 00       		.byte	0
 7806 0003 05       		.byte	0x5
 7807 0004 1D       		.uleb128 0x1d
 7808 0005 4A1D0000 		.4byte	.LASF502
 7809 0009 05       		.byte	0x5
 7810 000a 21       		.uleb128 0x21
 7811 000b C92E0000 		.4byte	.LASF503
 7812 000f 05       		.byte	0x5
 7813 0010 22       		.uleb128 0x22
 7814 0011 C44D0000 		.4byte	.LASF504
 7815 0015 05       		.byte	0x5
 7816 0016 23       		.uleb128 0x23
 7817 0017 1F2C0000 		.4byte	.LASF505
 7818 001b 05       		.byte	0x5
 7819 001c 34       		.uleb128 0x34
 7820 001d 13750000 		.4byte	.LASF506
 7821 0021 00       		.byte	0
 7822              		.section	.debug_macro,"G",%progbits,wm4.lpc_types.h.63.860ba57581a002825766a7c2ac00d549,comdat
 7823              	.Ldebug_macro9:
 7824 0000 0400     		.2byte	0x4
 7825 0002 00       		.byte	0
 7826 0003 05       		.byte	0x5
 7827 0004 3F       		.uleb128 0x3f
 7828 0005 56170000 		.4byte	.LASF507
 7829 0009 05       		.byte	0x5
 7830 000a 45       		.uleb128 0x45
 7831 000b 13090000 		.4byte	.LASF508
 7832 000f 06       		.byte	0x6
 7833 0010 66       		.uleb128 0x66
 7834 0011 4A620000 		.4byte	.LASF509
 7835 0015 05       		.byte	0x5
 7836 0016 68       		.uleb128 0x68
 7837 0017 C72B0000 		.4byte	.LASF510
 7838 001b 06       		.byte	0x6
 7839 001c 6E       		.uleb128 0x6e
 7840 001d 342A0000 		.4byte	.LASF511
 7841 0021 05       		.byte	0x5
 7842 0022 70       		.uleb128 0x70
 7843 0023 191C0000 		.4byte	.LASF512
 7844 0027 06       		.byte	0x6
 7845 0028 7F       		.uleb128 0x7f
 7846 0029 D2310000 		.4byte	.LASF513
 7847 002d 05       		.byte	0x5
 7848 002e 8101     		.uleb128 0x81
 7849 0030 146F0000 		.4byte	.LASF514
 7850 0034 05       		.byte	0x5
 7851 0035 8501     		.uleb128 0x85
 7852 0037 A5540000 		.4byte	.LASF515
 7853 003b 05       		.byte	0x5
 7854 003c 8901     		.uleb128 0x89
 7855 003e AF440000 		.4byte	.LASF516
 7856 0042 05       		.byte	0x5
 7857 0043 8C01     		.uleb128 0x8c
 7858 0045 25220000 		.4byte	.LASF517
 7859 0049 05       		.byte	0x5
 7860 004a 8E01     		.uleb128 0x8e
 7861 004c 24390000 		.4byte	.LASF518
ARM GAS  /var/folders/z0/6xlwn_996xz3mwq1cgzkbq4r0000gp/T//cckgJHwF.s 			page 160


 7862 0050 05       		.byte	0x5
 7863 0051 9101     		.uleb128 0x91
 7864 0053 5A0B0000 		.4byte	.LASF519
 7865 0057 05       		.byte	0x5
 7866 0058 9401     		.uleb128 0x94
 7867 005a 74380000 		.4byte	.LASF520
 7868 005e 05       		.byte	0x5
 7869 005f 9701     		.uleb128 0x97
 7870 0061 084C0000 		.4byte	.LASF521
 7871 0065 05       		.byte	0x5
 7872 0066 D001     		.uleb128 0xd0
 7873 0068 B44A0000 		.4byte	.LASF522
 7874 006c 00       		.byte	0
 7875              		.section	.debug_macro,"G",%progbits,wm4.sys_config.h.31.9f234e9c90333d233c7e647ebe63e928,comdat
 7876              	.Ldebug_macro10:
 7877 0000 0400     		.2byte	0x4
 7878 0002 00       		.byte	0
 7879 0003 05       		.byte	0x5
 7880 0004 1F       		.uleb128 0x1f
 7881 0005 995B0000 		.4byte	.LASF523
 7882 0009 05       		.byte	0x5
 7883 000a 26       		.uleb128 0x26
 7884 000b 4F1B0000 		.4byte	.LASF524
 7885 000f 00       		.byte	0
 7886              		.section	.debug_macro,"G",%progbits,wm4.cmsis_11cxx.h.33.407e9bbb5d170cd1552d3f7dc3fd5c42,comdat
 7887              	.Ldebug_macro11:
 7888 0000 0400     		.2byte	0x4
 7889 0002 00       		.byte	0
 7890 0003 05       		.byte	0x5
 7891 0004 21       		.uleb128 0x21
 7892 0005 C1750000 		.4byte	.LASF526
 7893 0009 05       		.byte	0x5
 7894 000a 8801     		.uleb128 0x88
 7895 000c 88390000 		.4byte	.LASF527
 7896 0010 05       		.byte	0x5
 7897 0011 8901     		.uleb128 0x89
 7898 0013 11720000 		.4byte	.LASF528
 7899 0017 05       		.byte	0x5
 7900 0018 8A01     		.uleb128 0x8a
 7901 001a F8530000 		.4byte	.LASF529
 7902 001e 00       		.byte	0
 7903              		.section	.debug_macro,"G",%progbits,wm4.core_cm0.h.32.192d13cfa8b31e63c86621de62eb153f,comdat
 7904              	.Ldebug_macro12:
 7905 0000 0400     		.2byte	0x4
 7906 0002 00       		.byte	0
 7907 0003 05       		.byte	0x5
 7908 0004 20       		.uleb128 0x20
 7909 0005 C1120000 		.4byte	.LASF530
 7910 0009 05       		.byte	0x5
 7911 000a 38       		.uleb128 0x38
 7912 000b DD520000 		.4byte	.LASF531
 7913 000f 05       		.byte	0x5
 7914 0010 39       		.uleb128 0x39
 7915 0011 1A6D0000 		.4byte	.LASF532
 7916 0015 05       		.byte	0x5
 7917 0016 3A       		.uleb128 0x3a
 7918 0017 3E630000 		.4byte	.LASF533
ARM GAS  /var/folders/z0/6xlwn_996xz3mwq1cgzkbq4r0000gp/T//cckgJHwF.s 			page 161


 7919 001b 05       		.byte	0x5
 7920 001c 3D       		.uleb128 0x3d
 7921 001d 802C0000 		.4byte	.LASF534
 7922 0021 05       		.byte	0x5
 7923 0022 4B       		.uleb128 0x4b
 7924 0023 B20F0000 		.4byte	.LASF535
 7925 0027 05       		.byte	0x5
 7926 0028 4C       		.uleb128 0x4c
 7927 0029 BC7A0000 		.4byte	.LASF536
 7928 002d 05       		.byte	0x5
 7929 002e 4D       		.uleb128 0x4d
 7930 002f 283E0000 		.4byte	.LASF537
 7931 0033 05       		.byte	0x5
 7932 0034 58       		.uleb128 0x58
 7933 0035 BC6C0000 		.4byte	.LASF538
 7934 0039 00       		.byte	0
 7935              		.section	.debug_macro,"G",%progbits,wm4.core_cm0.h.120.f4257ea7d0bce0cbabffe223e23b2fd4,comdat
 7936              	.Ldebug_macro13:
 7937 0000 0400     		.2byte	0x4
 7938 0002 00       		.byte	0
 7939 0003 05       		.byte	0x5
 7940 0004 78       		.uleb128 0x78
 7941 0005 74180000 		.4byte	.LASF541
 7942 0009 05       		.byte	0x5
 7943 000a 9701     		.uleb128 0x97
 7944 000c 126B0000 		.4byte	.LASF542
 7945 0010 05       		.byte	0x5
 7946 0011 9901     		.uleb128 0x99
 7947 0013 932F0000 		.4byte	.LASF543
 7948 0017 05       		.byte	0x5
 7949 0018 9A01     		.uleb128 0x9a
 7950 001a 2E690000 		.4byte	.LASF544
 7951 001e 05       		.byte	0x5
 7952 001f B002     		.uleb128 0x130
 7953 0021 C2700000 		.4byte	.LASF545
 7954 0025 05       		.byte	0x5
 7955 0026 B102     		.uleb128 0x131
 7956 0028 46740000 		.4byte	.LASF546
 7957 002c 05       		.byte	0x5
 7958 002d B302     		.uleb128 0x133
 7959 002f 035D0000 		.4byte	.LASF547
 7960 0033 05       		.byte	0x5
 7961 0034 B402     		.uleb128 0x134
 7962 0036 C6480000 		.4byte	.LASF548
 7963 003a 05       		.byte	0x5
 7964 003b B602     		.uleb128 0x136
 7965 003d 39210000 		.4byte	.LASF549
 7966 0041 05       		.byte	0x5
 7967 0042 B702     		.uleb128 0x137
 7968 0044 36040000 		.4byte	.LASF550
 7969 0048 05       		.byte	0x5
 7970 0049 B902     		.uleb128 0x139
 7971 004b CC290000 		.4byte	.LASF551
 7972 004f 05       		.byte	0x5
 7973 0050 BA02     		.uleb128 0x13a
 7974 0052 E2040000 		.4byte	.LASF552
 7975 0056 05       		.byte	0x5
ARM GAS  /var/folders/z0/6xlwn_996xz3mwq1cgzkbq4r0000gp/T//cckgJHwF.s 			page 162


 7976 0057 BC02     		.uleb128 0x13c
 7977 0059 E2170000 		.4byte	.LASF553
 7978 005d 05       		.byte	0x5
 7979 005e BD02     		.uleb128 0x13d
 7980 0060 33540000 		.4byte	.LASF554
 7981 0064 05       		.byte	0x5
 7982 0065 C002     		.uleb128 0x140
 7983 0067 65520000 		.4byte	.LASF555
 7984 006b 05       		.byte	0x5
 7985 006c C102     		.uleb128 0x141
 7986 006e E3290000 		.4byte	.LASF556
 7987 0072 05       		.byte	0x5
 7988 0073 C302     		.uleb128 0x143
 7989 0075 5D2F0000 		.4byte	.LASF557
 7990 0079 05       		.byte	0x5
 7991 007a C402     		.uleb128 0x144
 7992 007c 90630000 		.4byte	.LASF558
 7993 0080 05       		.byte	0x5
 7994 0081 C602     		.uleb128 0x146
 7995 0083 FB690000 		.4byte	.LASF559
 7996 0087 05       		.byte	0x5
 7997 0088 C702     		.uleb128 0x147
 7998 008a 4D280000 		.4byte	.LASF560
 7999 008e 05       		.byte	0x5
 8000 008f C902     		.uleb128 0x149
 8001 0091 950A0000 		.4byte	.LASF561
 8002 0095 05       		.byte	0x5
 8003 0096 CA02     		.uleb128 0x14a
 8004 0098 57070000 		.4byte	.LASF562
 8005 009c 05       		.byte	0x5
 8006 009d CC02     		.uleb128 0x14c
 8007 009f 31480000 		.4byte	.LASF563
 8008 00a3 05       		.byte	0x5
 8009 00a4 CD02     		.uleb128 0x14d
 8010 00a6 E2450000 		.4byte	.LASF564
 8011 00aa 05       		.byte	0x5
 8012 00ab CF02     		.uleb128 0x14f
 8013 00ad 4A520000 		.4byte	.LASF565
 8014 00b1 05       		.byte	0x5
 8015 00b2 D002     		.uleb128 0x150
 8016 00b4 32390000 		.4byte	.LASF566
 8017 00b8 05       		.byte	0x5
 8018 00b9 D202     		.uleb128 0x152
 8019 00bb 8A250000 		.4byte	.LASF567
 8020 00bf 05       		.byte	0x5
 8021 00c0 D302     		.uleb128 0x153
 8022 00c2 F6350000 		.4byte	.LASF568
 8023 00c6 05       		.byte	0x5
 8024 00c7 D502     		.uleb128 0x155
 8025 00c9 DB430000 		.4byte	.LASF569
 8026 00cd 05       		.byte	0x5
 8027 00ce D602     		.uleb128 0x156
 8028 00d0 D02C0000 		.4byte	.LASF570
 8029 00d4 05       		.byte	0x5
 8030 00d5 D802     		.uleb128 0x158
 8031 00d7 5E0C0000 		.4byte	.LASF571
 8032 00db 05       		.byte	0x5
ARM GAS  /var/folders/z0/6xlwn_996xz3mwq1cgzkbq4r0000gp/T//cckgJHwF.s 			page 163


 8033 00dc D902     		.uleb128 0x159
 8034 00de 0D1D0000 		.4byte	.LASF572
 8035 00e2 05       		.byte	0x5
 8036 00e3 DC02     		.uleb128 0x15c
 8037 00e5 FB6E0000 		.4byte	.LASF573
 8038 00e9 05       		.byte	0x5
 8039 00ea DD02     		.uleb128 0x15d
 8040 00ec C2330000 		.4byte	.LASF574
 8041 00f0 05       		.byte	0x5
 8042 00f1 DF02     		.uleb128 0x15f
 8043 00f3 250C0000 		.4byte	.LASF575
 8044 00f7 05       		.byte	0x5
 8045 00f8 E002     		.uleb128 0x160
 8046 00fa 307A0000 		.4byte	.LASF576
 8047 00fe 05       		.byte	0x5
 8048 00ff E202     		.uleb128 0x162
 8049 0101 626A0000 		.4byte	.LASF577
 8050 0105 05       		.byte	0x5
 8051 0106 E302     		.uleb128 0x163
 8052 0108 461C0000 		.4byte	.LASF578
 8053 010c 05       		.byte	0x5
 8054 010d E502     		.uleb128 0x165
 8055 010f 772F0000 		.4byte	.LASF579
 8056 0113 05       		.byte	0x5
 8057 0114 E602     		.uleb128 0x166
 8058 0116 CC380000 		.4byte	.LASF580
 8059 011a 05       		.byte	0x5
 8060 011b E802     		.uleb128 0x168
 8061 011d 6B750000 		.4byte	.LASF581
 8062 0121 05       		.byte	0x5
 8063 0122 E902     		.uleb128 0x169
 8064 0124 6C030000 		.4byte	.LASF582
 8065 0128 05       		.byte	0x5
 8066 0129 EC02     		.uleb128 0x16c
 8067 012b 6D510000 		.4byte	.LASF583
 8068 012f 05       		.byte	0x5
 8069 0130 ED02     		.uleb128 0x16d
 8070 0132 89790000 		.4byte	.LASF584
 8071 0136 05       		.byte	0x5
 8072 0137 EF02     		.uleb128 0x16f
 8073 0139 6D260000 		.4byte	.LASF585
 8074 013d 05       		.byte	0x5
 8075 013e F002     		.uleb128 0x170
 8076 0140 C7680000 		.4byte	.LASF586
 8077 0144 05       		.byte	0x5
 8078 0145 F202     		.uleb128 0x172
 8079 0147 93020000 		.4byte	.LASF587
 8080 014b 05       		.byte	0x5
 8081 014c F302     		.uleb128 0x173
 8082 014e F81E0000 		.4byte	.LASF588
 8083 0152 05       		.byte	0x5
 8084 0153 F602     		.uleb128 0x176
 8085 0155 39590000 		.4byte	.LASF589
 8086 0159 05       		.byte	0x5
 8087 015a F702     		.uleb128 0x177
 8088 015c 6F140000 		.4byte	.LASF590
 8089 0160 05       		.byte	0x5
ARM GAS  /var/folders/z0/6xlwn_996xz3mwq1cgzkbq4r0000gp/T//cckgJHwF.s 			page 164


 8090 0161 F902     		.uleb128 0x179
 8091 0163 F44E0000 		.4byte	.LASF591
 8092 0167 05       		.byte	0x5
 8093 0168 FA02     		.uleb128 0x17a
 8094 016a C1060000 		.4byte	.LASF592
 8095 016e 05       		.byte	0x5
 8096 016f FD02     		.uleb128 0x17d
 8097 0171 1E670000 		.4byte	.LASF593
 8098 0175 05       		.byte	0x5
 8099 0176 FE02     		.uleb128 0x17e
 8100 0178 464F0000 		.4byte	.LASF594
 8101 017c 05       		.byte	0x5
 8102 017d 9403     		.uleb128 0x194
 8103 017f 722B0000 		.4byte	.LASF595
 8104 0183 05       		.byte	0x5
 8105 0184 9503     		.uleb128 0x195
 8106 0186 5B190000 		.4byte	.LASF596
 8107 018a 05       		.byte	0x5
 8108 018b 9703     		.uleb128 0x197
 8109 018d 890B0000 		.4byte	.LASF597
 8110 0191 05       		.byte	0x5
 8111 0192 9803     		.uleb128 0x198
 8112 0194 BB050000 		.4byte	.LASF598
 8113 0198 05       		.byte	0x5
 8114 0199 9A03     		.uleb128 0x19a
 8115 019b A6120000 		.4byte	.LASF599
 8116 019f 05       		.byte	0x5
 8117 01a0 9B03     		.uleb128 0x19b
 8118 01a2 265E0000 		.4byte	.LASF600
 8119 01a6 05       		.byte	0x5
 8120 01a7 9D03     		.uleb128 0x19d
 8121 01a9 66270000 		.4byte	.LASF601
 8122 01ad 05       		.byte	0x5
 8123 01ae 9E03     		.uleb128 0x19e
 8124 01b0 52640000 		.4byte	.LASF602
 8125 01b4 05       		.byte	0x5
 8126 01b5 A103     		.uleb128 0x1a1
 8127 01b7 69710000 		.4byte	.LASF603
 8128 01bb 05       		.byte	0x5
 8129 01bc A203     		.uleb128 0x1a2
 8130 01be B7620000 		.4byte	.LASF604
 8131 01c2 05       		.byte	0x5
 8132 01c3 A503     		.uleb128 0x1a5
 8133 01c5 EC550000 		.4byte	.LASF605
 8134 01c9 05       		.byte	0x5
 8135 01ca A603     		.uleb128 0x1a6
 8136 01cc 2A4B0000 		.4byte	.LASF606
 8137 01d0 05       		.byte	0x5
 8138 01d1 A903     		.uleb128 0x1a9
 8139 01d3 C7630000 		.4byte	.LASF607
 8140 01d7 05       		.byte	0x5
 8141 01d8 AA03     		.uleb128 0x1aa
 8142 01da EF1F0000 		.4byte	.LASF608
 8143 01de 05       		.byte	0x5
 8144 01df AC03     		.uleb128 0x1ac
 8145 01e1 F50E0000 		.4byte	.LASF609
 8146 01e5 05       		.byte	0x5
ARM GAS  /var/folders/z0/6xlwn_996xz3mwq1cgzkbq4r0000gp/T//cckgJHwF.s 			page 165


 8147 01e6 AD03     		.uleb128 0x1ad
 8148 01e8 46720000 		.4byte	.LASF610
 8149 01ec 05       		.byte	0x5
 8150 01ed AF03     		.uleb128 0x1af
 8151 01ef E7370000 		.4byte	.LASF611
 8152 01f3 05       		.byte	0x5
 8153 01f4 B003     		.uleb128 0x1b0
 8154 01f6 5D430000 		.4byte	.LASF612
 8155 01fa 05       		.byte	0x5
 8156 01fb C603     		.uleb128 0x1c6
 8157 01fd AE530000 		.4byte	.LASF613
 8158 0201 05       		.byte	0x5
 8159 0202 C703     		.uleb128 0x1c7
 8160 0204 0D4E0000 		.4byte	.LASF614
 8161 0208 05       		.byte	0x5
 8162 0209 C803     		.uleb128 0x1c8
 8163 020b 13010000 		.4byte	.LASF615
 8164 020f 05       		.byte	0x5
 8165 0210 C903     		.uleb128 0x1c9
 8166 0212 727A0000 		.4byte	.LASF616
 8167 0216 05       		.byte	0x5
 8168 0217 CB03     		.uleb128 0x1cb
 8169 0219 9F5E0000 		.4byte	.LASF617
 8170 021d 05       		.byte	0x5
 8171 021e CC03     		.uleb128 0x1cc
 8172 0220 BB690000 		.4byte	.LASF618
 8173 0224 05       		.byte	0x5
 8174 0225 CD03     		.uleb128 0x1cd
 8175 0227 CD470000 		.4byte	.LASF619
 8176 022b 05       		.byte	0x5
 8177 022c E903     		.uleb128 0x1e9
 8178 022e 4D410000 		.4byte	.LASF620
 8179 0232 05       		.byte	0x5
 8180 0233 EA03     		.uleb128 0x1ea
 8181 0235 C65D0000 		.4byte	.LASF621
 8182 0239 05       		.byte	0x5
 8183 023a EB03     		.uleb128 0x1eb
 8184 023c 3D470000 		.4byte	.LASF622
 8185 0240 00       		.byte	0
 8186              		.section	.debug_macro,"G",%progbits,wm4.chip.h.116.857da603c399e979152c31968de4baae,comdat
 8187              	.Ldebug_macro14:
 8188 0000 0400     		.2byte	0x4
 8189 0002 00       		.byte	0
 8190 0003 05       		.byte	0x5
 8191 0004 74       		.uleb128 0x74
 8192 0005 17760000 		.4byte	.LASF623
 8193 0009 05       		.byte	0x5
 8194 000a 75       		.uleb128 0x75
 8195 000b DF010000 		.4byte	.LASF624
 8196 000f 05       		.byte	0x5
 8197 0010 76       		.uleb128 0x76
 8198 0011 673A0000 		.4byte	.LASF625
 8199 0015 05       		.byte	0x5
 8200 0016 77       		.uleb128 0x77
 8201 0017 25600000 		.4byte	.LASF626
 8202 001b 05       		.byte	0x5
 8203 001c 78       		.uleb128 0x78
ARM GAS  /var/folders/z0/6xlwn_996xz3mwq1cgzkbq4r0000gp/T//cckgJHwF.s 			page 166


 8204 001d 43770000 		.4byte	.LASF627
 8205 0021 05       		.byte	0x5
 8206 0022 79       		.uleb128 0x79
 8207 0023 D6080000 		.4byte	.LASF628
 8208 0027 05       		.byte	0x5
 8209 0028 7A       		.uleb128 0x7a
 8210 0029 49060000 		.4byte	.LASF629
 8211 002d 05       		.byte	0x5
 8212 002e 7B       		.uleb128 0x7b
 8213 002f 02250000 		.4byte	.LASF630
 8214 0033 05       		.byte	0x5
 8215 0034 7C       		.uleb128 0x7c
 8216 0035 D76E0000 		.4byte	.LASF631
 8217 0039 05       		.byte	0x5
 8218 003a 7D       		.uleb128 0x7d
 8219 003b CC150000 		.4byte	.LASF632
 8220 003f 05       		.byte	0x5
 8221 0040 7E       		.uleb128 0x7e
 8222 0041 463E0000 		.4byte	.LASF633
 8223 0045 05       		.byte	0x5
 8224 0046 7F       		.uleb128 0x7f
 8225 0047 DB310000 		.4byte	.LASF634
 8226 004b 05       		.byte	0x5
 8227 004c 8001     		.uleb128 0x80
 8228 004e D04F0000 		.4byte	.LASF635
 8229 0052 05       		.byte	0x5
 8230 0053 8101     		.uleb128 0x81
 8231 0055 F9000000 		.4byte	.LASF636
 8232 0059 05       		.byte	0x5
 8233 005a 8201     		.uleb128 0x82
 8234 005c 202F0000 		.4byte	.LASF637
 8235 0060 05       		.byte	0x5
 8236 0061 8301     		.uleb128 0x83
 8237 0063 585C0000 		.4byte	.LASF638
 8238 0067 05       		.byte	0x5
 8239 0068 8401     		.uleb128 0x84
 8240 006a 8C2E0000 		.4byte	.LASF639
 8241 006e 05       		.byte	0x5
 8242 006f 8501     		.uleb128 0x85
 8243 0071 3D6B0000 		.4byte	.LASF640
 8244 0075 05       		.byte	0x5
 8245 0076 9001     		.uleb128 0x90
 8246 0078 5E120000 		.4byte	.LASF641
 8247 007c 05       		.byte	0x5
 8248 007d 9101     		.uleb128 0x91
 8249 007f A4300000 		.4byte	.LASF642
 8250 0083 05       		.byte	0x5
 8251 0084 9301     		.uleb128 0x93
 8252 0086 6B450000 		.4byte	.LASF643
 8253 008a 05       		.byte	0x5
 8254 008b 9401     		.uleb128 0x94
 8255 008d C9320000 		.4byte	.LASF644
 8256 0091 05       		.byte	0x5
 8257 0092 9701     		.uleb128 0x97
 8258 0094 F16D0000 		.4byte	.LASF645
 8259 0098 05       		.byte	0x5
 8260 0099 9801     		.uleb128 0x98
ARM GAS  /var/folders/z0/6xlwn_996xz3mwq1cgzkbq4r0000gp/T//cckgJHwF.s 			page 167


 8261 009b 05210000 		.4byte	.LASF646
 8262 009f 05       		.byte	0x5
 8263 00a0 9B01     		.uleb128 0x9b
 8264 00a2 D12A0000 		.4byte	.LASF647
 8265 00a6 05       		.byte	0x5
 8266 00a7 9E01     		.uleb128 0x9e
 8267 00a9 FE5D0000 		.4byte	.LASF648
 8268 00ad 05       		.byte	0x5
 8269 00ae 9F01     		.uleb128 0x9f
 8270 00b0 77700000 		.4byte	.LASF649
 8271 00b4 05       		.byte	0x5
 8272 00b5 A001     		.uleb128 0xa0
 8273 00b7 5B360000 		.4byte	.LASF650
 8274 00bb 05       		.byte	0x5
 8275 00bc A101     		.uleb128 0xa1
 8276 00be 666B0000 		.4byte	.LASF651
 8277 00c2 05       		.byte	0x5
 8278 00c3 A201     		.uleb128 0xa2
 8279 00c5 C3160000 		.4byte	.LASF652
 8280 00c9 05       		.byte	0x5
 8281 00ca A301     		.uleb128 0xa3
 8282 00cc BD1D0000 		.4byte	.LASF653
 8283 00d0 05       		.byte	0x5
 8284 00d1 A401     		.uleb128 0xa4
 8285 00d3 CA1F0000 		.4byte	.LASF654
 8286 00d7 05       		.byte	0x5
 8287 00d8 B101     		.uleb128 0xb1
 8288 00da 977A0000 		.4byte	.LASF655
 8289 00de 05       		.byte	0x5
 8290 00df B201     		.uleb128 0xb2
 8291 00e1 AA5B0000 		.4byte	.LASF656
 8292 00e5 05       		.byte	0x5
 8293 00e6 B301     		.uleb128 0xb3
 8294 00e8 F5310000 		.4byte	.LASF657
 8295 00ec 05       		.byte	0x5
 8296 00ed B401     		.uleb128 0xb4
 8297 00ef A02F0000 		.4byte	.LASF658
 8298 00f3 05       		.byte	0x5
 8299 00f4 B501     		.uleb128 0xb5
 8300 00f6 4B240000 		.4byte	.LASF659
 8301 00fa 05       		.byte	0x5
 8302 00fb B701     		.uleb128 0xb7
 8303 00fd C53D0000 		.4byte	.LASF660
 8304 0101 05       		.byte	0x5
 8305 0102 B801     		.uleb128 0xb8
 8306 0104 8E130000 		.4byte	.LASF661
 8307 0108 05       		.byte	0x5
 8308 0109 BA01     		.uleb128 0xba
 8309 010b D2220000 		.4byte	.LASF662
 8310 010f 05       		.byte	0x5
 8311 0110 C101     		.uleb128 0xc1
 8312 0112 C7210000 		.4byte	.LASF663
 8313 0116 05       		.byte	0x5
 8314 0117 C401     		.uleb128 0xc4
 8315 0119 2D3C0000 		.4byte	.LASF664
 8316 011d 00       		.byte	0
 8317              		.section	.debug_macro,"G",%progbits,wm4.pmu_11xx.h.33.1d6b708881441cb98d19b8bab3caa180,comdat
ARM GAS  /var/folders/z0/6xlwn_996xz3mwq1cgzkbq4r0000gp/T//cckgJHwF.s 			page 168


 8318              	.Ldebug_macro15:
 8319 0000 0400     		.2byte	0x4
 8320 0002 00       		.byte	0
 8321 0003 05       		.byte	0x5
 8322 0004 21       		.uleb128 0x21
 8323 0005 36440000 		.4byte	.LASF665
 8324 0009 05       		.byte	0x5
 8325 000a 4D       		.uleb128 0x4d
 8326 000b 75680000 		.4byte	.LASF666
 8327 000f 05       		.byte	0x5
 8328 0010 53       		.uleb128 0x53
 8329 0011 2D340000 		.4byte	.LASF667
 8330 0015 05       		.byte	0x5
 8331 0016 55       		.uleb128 0x55
 8332 0017 9F710000 		.4byte	.LASF668
 8333 001b 05       		.byte	0x5
 8334 001c 56       		.uleb128 0x56
 8335 001d 4D6D0000 		.4byte	.LASF669
 8336 0021 00       		.byte	0
 8337              		.section	.debug_macro,"G",%progbits,wm4.sysctl_11xx.h.33.ae61a1181e608f8409883008e291930c,comdat
 8338              	.Ldebug_macro16:
 8339 0000 0400     		.2byte	0x4
 8340 0002 00       		.byte	0
 8341 0003 05       		.byte	0x5
 8342 0004 21       		.uleb128 0x21
 8343 0005 5B6F0000 		.4byte	.LASF671
 8344 0009 05       		.byte	0x5
 8345 000a BC01     		.uleb128 0xbc
 8346 000c 41020000 		.4byte	.LASF672
 8347 0010 05       		.byte	0x5
 8348 0011 BD01     		.uleb128 0xbd
 8349 0013 4B080000 		.4byte	.LASF673
 8350 0017 05       		.byte	0x5
 8351 0018 BE01     		.uleb128 0xbe
 8352 001a 082F0000 		.4byte	.LASF674
 8353 001e 05       		.byte	0x5
 8354 001f BF01     		.uleb128 0xbf
 8355 0021 436F0000 		.4byte	.LASF675
 8356 0025 05       		.byte	0x5
 8357 0026 C001     		.uleb128 0xc0
 8358 0028 7C610000 		.4byte	.LASF676
 8359 002c 05       		.byte	0x5
 8360 002d C501     		.uleb128 0xc5
 8361 002f 630E0000 		.4byte	.LASF677
 8362 0033 05       		.byte	0x5
 8363 0034 A904     		.uleb128 0x229
 8364 0036 47270000 		.4byte	.LASF678
 8365 003a 05       		.byte	0x5
 8366 003b AA04     		.uleb128 0x22a
 8367 003d 565D0000 		.4byte	.LASF679
 8368 0041 05       		.byte	0x5
 8369 0042 C904     		.uleb128 0x249
 8370 0044 55700000 		.4byte	.LASF680
 8371 0048 05       		.byte	0x5
 8372 0049 CA04     		.uleb128 0x24a
 8373 004b D1730000 		.4byte	.LASF681
 8374 004f 05       		.byte	0x5
ARM GAS  /var/folders/z0/6xlwn_996xz3mwq1cgzkbq4r0000gp/T//cckgJHwF.s 			page 169


 8375 0050 CB04     		.uleb128 0x24b
 8376 0052 24380000 		.4byte	.LASF682
 8377 0056 05       		.byte	0x5
 8378 0057 CC04     		.uleb128 0x24c
 8379 0059 E00F0000 		.4byte	.LASF683
 8380 005d 05       		.byte	0x5
 8381 005e CD04     		.uleb128 0x24d
 8382 0060 68590000 		.4byte	.LASF684
 8383 0064 05       		.byte	0x5
 8384 0065 CE04     		.uleb128 0x24e
 8385 0067 53400000 		.4byte	.LASF685
 8386 006b 05       		.byte	0x5
 8387 006c CF04     		.uleb128 0x24f
 8388 006e 7D6A0000 		.4byte	.LASF686
 8389 0072 05       		.byte	0x5
 8390 0073 D004     		.uleb128 0x250
 8391 0075 C55C0000 		.4byte	.LASF687
 8392 0079 05       		.byte	0x5
 8393 007a F104     		.uleb128 0x271
 8394 007c FD480000 		.4byte	.LASF688
 8395 0080 05       		.byte	0x5
 8396 0081 F204     		.uleb128 0x272
 8397 0083 766C0000 		.4byte	.LASF689
 8398 0087 05       		.byte	0x5
 8399 0088 F304     		.uleb128 0x273
 8400 008a 1F1B0000 		.4byte	.LASF690
 8401 008e 05       		.byte	0x5
 8402 008f F504     		.uleb128 0x275
 8403 0091 36460000 		.4byte	.LASF691
 8404 0095 05       		.byte	0x5
 8405 0096 F704     		.uleb128 0x277
 8406 0098 9F6A0000 		.4byte	.LASF692
 8407 009c 05       		.byte	0x5
 8408 009d F804     		.uleb128 0x278
 8409 009f C70A0000 		.4byte	.LASF693
 8410 00a3 05       		.byte	0x5
 8411 00a4 F904     		.uleb128 0x279
 8412 00a6 D2270000 		.4byte	.LASF694
 8413 00aa 05       		.byte	0x5
 8414 00ab FA04     		.uleb128 0x27a
 8415 00ad 624D0000 		.4byte	.LASF695
 8416 00b1 00       		.byte	0
 8417              		.section	.debug_macro,"G",%progbits,wm4.clock_11xx.h.33.23290a9e2ed919e3a6958d25130bc848,comdat
 8418              	.Ldebug_macro17:
 8419 0000 0400     		.2byte	0x4
 8420 0002 00       		.byte	0
 8421 0003 05       		.byte	0x5
 8422 0004 21       		.uleb128 0x21
 8423 0005 9B3E0000 		.4byte	.LASF696
 8424 0009 05       		.byte	0x5
 8425 000a 2D       		.uleb128 0x2d
 8426 000b 97610000 		.4byte	.LASF697
 8427 000f 00       		.byte	0
 8428              		.section	.debug_macro,"G",%progbits,wm4.iocon_11xx.h.33.25e2b3cde122df23fb07b984cb4f3a93,comdat
 8429              	.Ldebug_macro18:
 8430 0000 0400     		.2byte	0x4
 8431 0002 00       		.byte	0
ARM GAS  /var/folders/z0/6xlwn_996xz3mwq1cgzkbq4r0000gp/T//cckgJHwF.s 			page 170


 8432 0003 05       		.byte	0x5
 8433 0004 21       		.uleb128 0x21
 8434 0005 892D0000 		.4byte	.LASF698
 8435 0009 05       		.byte	0x5
 8436 000a A601     		.uleb128 0xa6
 8437 000c 64350000 		.4byte	.LASF699
 8438 0010 05       		.byte	0x5
 8439 0011 A701     		.uleb128 0xa7
 8440 0013 DD090000 		.4byte	.LASF700
 8441 0017 05       		.byte	0x5
 8442 0018 A801     		.uleb128 0xa8
 8443 001a 28190000 		.4byte	.LASF701
 8444 001e 05       		.byte	0x5
 8445 001f A901     		.uleb128 0xa9
 8446 0021 B75F0000 		.4byte	.LASF702
 8447 0025 05       		.byte	0x5
 8448 0026 AA01     		.uleb128 0xaa
 8449 0028 CB4D0000 		.4byte	.LASF703
 8450 002c 05       		.byte	0x5
 8451 002d AB01     		.uleb128 0xab
 8452 002f D53A0000 		.4byte	.LASF704
 8453 0033 05       		.byte	0x5
 8454 0034 AC01     		.uleb128 0xac
 8455 0036 55260000 		.4byte	.LASF705
 8456 003a 05       		.byte	0x5
 8457 003b AD01     		.uleb128 0xad
 8458 003d BC150000 		.4byte	.LASF706
 8459 0041 05       		.byte	0x5
 8460 0042 AE01     		.uleb128 0xae
 8461 0044 3C670000 		.4byte	.LASF707
 8462 0048 05       		.byte	0x5
 8463 0049 AF01     		.uleb128 0xaf
 8464 004b A24F0000 		.4byte	.LASF708
 8465 004f 05       		.byte	0x5
 8466 0050 B001     		.uleb128 0xb0
 8467 0052 B2610000 		.4byte	.LASF709
 8468 0056 05       		.byte	0x5
 8469 0057 B101     		.uleb128 0xb1
 8470 0059 46730000 		.4byte	.LASF710
 8471 005d 05       		.byte	0x5
 8472 005e B201     		.uleb128 0xb2
 8473 0060 85510000 		.4byte	.LASF711
 8474 0064 05       		.byte	0x5
 8475 0065 B301     		.uleb128 0xb3
 8476 0067 3D220000 		.4byte	.LASF712
 8477 006b 05       		.byte	0x5
 8478 006c B401     		.uleb128 0xb4
 8479 006e A6550000 		.4byte	.LASF713
 8480 0072 05       		.byte	0x5
 8481 0073 B501     		.uleb128 0xb5
 8482 0075 E75C0000 		.4byte	.LASF714
 8483 0079 05       		.byte	0x5
 8484 007a B601     		.uleb128 0xb6
 8485 007c 8D400000 		.4byte	.LASF715
 8486 0080 05       		.byte	0x5
 8487 0081 B701     		.uleb128 0xb7
 8488 0083 29660000 		.4byte	.LASF716
ARM GAS  /var/folders/z0/6xlwn_996xz3mwq1cgzkbq4r0000gp/T//cckgJHwF.s 			page 171


 8489 0087 05       		.byte	0x5
 8490 0088 B801     		.uleb128 0xb8
 8491 008a 02670000 		.4byte	.LASF717
 8492 008e 05       		.byte	0x5
 8493 008f B901     		.uleb128 0xb9
 8494 0091 99670000 		.4byte	.LASF718
 8495 0095 05       		.byte	0x5
 8496 0096 BA01     		.uleb128 0xba
 8497 0098 BD140000 		.4byte	.LASF719
 8498 009c 05       		.byte	0x5
 8499 009d C001     		.uleb128 0xc0
 8500 009f BE0B0000 		.4byte	.LASF720
 8501 00a3 05       		.byte	0x5
 8502 00a4 C101     		.uleb128 0xc1
 8503 00a6 3C690000 		.4byte	.LASF721
 8504 00aa 05       		.byte	0x5
 8505 00ab C201     		.uleb128 0xc2
 8506 00ad E7610000 		.4byte	.LASF722
 8507 00b1 05       		.byte	0x5
 8508 00b2 C301     		.uleb128 0xc3
 8509 00b4 C0310000 		.4byte	.LASF723
 8510 00b8 05       		.byte	0x5
 8511 00b9 C401     		.uleb128 0xc4
 8512 00bb 311F0000 		.4byte	.LASF724
 8513 00bf 05       		.byte	0x5
 8514 00c0 C501     		.uleb128 0xc5
 8515 00c2 283A0000 		.4byte	.LASF725
 8516 00c6 05       		.byte	0x5
 8517 00c7 C601     		.uleb128 0xc6
 8518 00c9 8C180000 		.4byte	.LASF726
 8519 00cd 05       		.byte	0x5
 8520 00ce C701     		.uleb128 0xc7
 8521 00d0 21490000 		.4byte	.LASF727
 8522 00d4 05       		.byte	0x5
 8523 00d5 C801     		.uleb128 0xc8
 8524 00d7 7F160000 		.4byte	.LASF728
 8525 00db 05       		.byte	0x5
 8526 00dc C901     		.uleb128 0xc9
 8527 00de D4560000 		.4byte	.LASF729
 8528 00e2 05       		.byte	0x5
 8529 00e3 CA01     		.uleb128 0xca
 8530 00e5 80490000 		.4byte	.LASF730
 8531 00e9 05       		.byte	0x5
 8532 00ea CB01     		.uleb128 0xcb
 8533 00ec 46230000 		.4byte	.LASF731
 8534 00f0 05       		.byte	0x5
 8535 00f1 CC01     		.uleb128 0xcc
 8536 00f3 A6450000 		.4byte	.LASF732
 8537 00f7 05       		.byte	0x5
 8538 00f8 CD01     		.uleb128 0xcd
 8539 00fa 2C6E0000 		.4byte	.LASF733
 8540 00fe 05       		.byte	0x5
 8541 00ff CE01     		.uleb128 0xce
 8542 0101 F46F0000 		.4byte	.LASF734
 8543 0105 05       		.byte	0x5
 8544 0106 CF01     		.uleb128 0xcf
 8545 0108 BB710000 		.4byte	.LASF735
ARM GAS  /var/folders/z0/6xlwn_996xz3mwq1cgzkbq4r0000gp/T//cckgJHwF.s 			page 172


 8546 010c 05       		.byte	0x5
 8547 010d D001     		.uleb128 0xd0
 8548 010f 1E5F0000 		.4byte	.LASF736
 8549 0113 05       		.byte	0x5
 8550 0114 D101     		.uleb128 0xd1
 8551 0116 584D0000 		.4byte	.LASF737
 8552 011a 05       		.byte	0x5
 8553 011b D201     		.uleb128 0xd2
 8554 011d DC3F0000 		.4byte	.LASF738
 8555 0121 05       		.byte	0x5
 8556 0122 D301     		.uleb128 0xd3
 8557 0124 C96C0000 		.4byte	.LASF739
 8558 0128 05       		.byte	0x5
 8559 0129 D401     		.uleb128 0xd4
 8560 012b 06410000 		.4byte	.LASF740
 8561 012f 05       		.byte	0x5
 8562 0130 D501     		.uleb128 0xd5
 8563 0132 EE530000 		.4byte	.LASF741
 8564 0136 00       		.byte	0
 8565              		.section	.debug_macro,"G",%progbits,wm4.timer_11xx.h.33.c92f50a9325789ee6a8ffd6248980d70,comdat
 8566              	.Ldebug_macro19:
 8567 0000 0400     		.2byte	0x4
 8568 0002 00       		.byte	0
 8569 0003 05       		.byte	0x5
 8570 0004 21       		.uleb128 0x21
 8571 0005 E36F0000 		.4byte	.LASF742
 8572 0009 05       		.byte	0x5
 8573 000a 40       		.uleb128 0x40
 8574 000b 75090000 		.4byte	.LASF743
 8575 000f 05       		.byte	0x5
 8576 0010 43       		.uleb128 0x43
 8577 0011 42370000 		.4byte	.LASF744
 8578 0015 05       		.byte	0x5
 8579 0016 45       		.uleb128 0x45
 8580 0017 B82D0000 		.4byte	.LASF745
 8581 001b 05       		.byte	0x5
 8582 001c 48       		.uleb128 0x48
 8583 001d 4D100000 		.4byte	.LASF746
 8584 0021 05       		.byte	0x5
 8585 0022 4A       		.uleb128 0x4a
 8586 0023 EB4D0000 		.4byte	.LASF747
 8587 0027 05       		.byte	0x5
 8588 0028 4D       		.uleb128 0x4d
 8589 0029 A5000000 		.4byte	.LASF748
 8590 002d 05       		.byte	0x5
 8591 002e 4F       		.uleb128 0x4f
 8592 002f 2A2D0000 		.4byte	.LASF749
 8593 0033 05       		.byte	0x5
 8594 0034 51       		.uleb128 0x51
 8595 0035 BA5A0000 		.4byte	.LASF750
 8596 0039 05       		.byte	0x5
 8597 003a 54       		.uleb128 0x54
 8598 003b BC450000 		.4byte	.LASF751
 8599 003f 05       		.byte	0x5
 8600 0040 56       		.uleb128 0x56
 8601 0041 82440000 		.4byte	.LASF752
 8602 0045 05       		.byte	0x5
ARM GAS  /var/folders/z0/6xlwn_996xz3mwq1cgzkbq4r0000gp/T//cckgJHwF.s 			page 173


 8603 0046 58       		.uleb128 0x58
 8604 0047 86780000 		.4byte	.LASF753
 8605 004b 00       		.byte	0
 8606              		.section	.debug_macro,"G",%progbits,wm4.ring_buffer.h.33.2f271415f1f27d60350fb4738c5cbee6,comdat
 8607              	.Ldebug_macro20:
 8608 0000 0400     		.2byte	0x4
 8609 0002 00       		.byte	0
 8610 0003 05       		.byte	0x5
 8611 0004 21       		.uleb128 0x21
 8612 0005 9D520000 		.4byte	.LASF755
 8613 0009 05       		.byte	0x5
 8614 000a 3A       		.uleb128 0x3a
 8615 000b C24A0000 		.4byte	.LASF756
 8616 000f 05       		.byte	0x5
 8617 0010 41       		.uleb128 0x41
 8618 0011 39310000 		.4byte	.LASF757
 8619 0015 00       		.byte	0
 8620              		.section	.debug_macro,"G",%progbits,wm4.uart_11xx.h.98.fe68b709973730a4fba3f3ce60c5c312,comdat
 8621              	.Ldebug_macro21:
 8622 0000 0400     		.2byte	0x4
 8623 0002 00       		.byte	0
 8624 0003 05       		.byte	0x5
 8625 0004 62       		.uleb128 0x62
 8626 0005 A52E0000 		.4byte	.LASF758
 8627 0009 05       		.byte	0x5
 8628 000a 67       		.uleb128 0x67
 8629 000b 11540000 		.4byte	.LASF759
 8630 000f 05       		.byte	0x5
 8631 0010 68       		.uleb128 0x68
 8632 0011 E9710000 		.4byte	.LASF760
 8633 0015 05       		.byte	0x5
 8634 0016 6D       		.uleb128 0x6d
 8635 0017 06560000 		.4byte	.LASF761
 8636 001b 05       		.byte	0x5
 8637 001c 6E       		.uleb128 0x6e
 8638 001d 4B2C0000 		.4byte	.LASF762
 8639 0021 05       		.byte	0x5
 8640 0022 73       		.uleb128 0x73
 8641 0023 2F560000 		.4byte	.LASF763
 8642 0027 05       		.byte	0x5
 8643 0028 74       		.uleb128 0x74
 8644 0029 AF4B0000 		.4byte	.LASF764
 8645 002d 05       		.byte	0x5
 8646 002e 75       		.uleb128 0x75
 8647 002f 80470000 		.4byte	.LASF765
 8648 0033 05       		.byte	0x5
 8649 0034 76       		.uleb128 0x76
 8650 0035 BA580000 		.4byte	.LASF766
 8651 0039 05       		.byte	0x5
 8652 003a 77       		.uleb128 0x77
 8653 003b 45680000 		.4byte	.LASF767
 8654 003f 05       		.byte	0x5
 8655 0040 78       		.uleb128 0x78
 8656 0041 5D2A0000 		.4byte	.LASF768
 8657 0045 05       		.byte	0x5
 8658 0046 79       		.uleb128 0x79
 8659 0047 4E690000 		.4byte	.LASF769
ARM GAS  /var/folders/z0/6xlwn_996xz3mwq1cgzkbq4r0000gp/T//cckgJHwF.s 			page 174


 8660 004b 05       		.byte	0x5
 8661 004c 7A       		.uleb128 0x7a
 8662 004d 34100000 		.4byte	.LASF770
 8663 0051 05       		.byte	0x5
 8664 0052 7B       		.uleb128 0x7b
 8665 0053 651A0000 		.4byte	.LASF771
 8666 0057 05       		.byte	0x5
 8667 0058 7C       		.uleb128 0x7c
 8668 0059 480A0000 		.4byte	.LASF772
 8669 005d 05       		.byte	0x5
 8670 005e 8101     		.uleb128 0x81
 8671 0060 A75D0000 		.4byte	.LASF773
 8672 0064 05       		.byte	0x5
 8673 0065 8201     		.uleb128 0x82
 8674 0067 59320000 		.4byte	.LASF774
 8675 006b 05       		.byte	0x5
 8676 006c 8301     		.uleb128 0x83
 8677 006e 0F2D0000 		.4byte	.LASF775
 8678 0072 05       		.byte	0x5
 8679 0073 8401     		.uleb128 0x84
 8680 0075 D67B0000 		.4byte	.LASF776
 8681 0079 05       		.byte	0x5
 8682 007a 8501     		.uleb128 0x85
 8683 007c 85260000 		.4byte	.LASF777
 8684 0080 05       		.byte	0x5
 8685 0081 8801     		.uleb128 0x88
 8686 0083 BE790000 		.4byte	.LASF778
 8687 0087 05       		.byte	0x5
 8688 0088 8901     		.uleb128 0x89
 8689 008a 785D0000 		.4byte	.LASF779
 8690 008e 05       		.byte	0x5
 8691 008f 8A01     		.uleb128 0x8a
 8692 0091 D36C0000 		.4byte	.LASF780
 8693 0095 05       		.byte	0x5
 8694 0096 8B01     		.uleb128 0x8b
 8695 0098 813A0000 		.4byte	.LASF781
 8696 009c 05       		.byte	0x5
 8697 009d 8C01     		.uleb128 0x8c
 8698 009f A6500000 		.4byte	.LASF782
 8699 00a3 05       		.byte	0x5
 8700 00a4 8D01     		.uleb128 0x8d
 8701 00a6 D60B0000 		.4byte	.LASF783
 8702 00aa 05       		.byte	0x5
 8703 00ab 9201     		.uleb128 0x92
 8704 00ad 0E190000 		.4byte	.LASF784
 8705 00b1 05       		.byte	0x5
 8706 00b2 9301     		.uleb128 0x93
 8707 00b4 1E680000 		.4byte	.LASF785
 8708 00b8 05       		.byte	0x5
 8709 00b9 9401     		.uleb128 0x94
 8710 00bb 4C350000 		.4byte	.LASF786
 8711 00bf 05       		.byte	0x5
 8712 00c0 9501     		.uleb128 0x95
 8713 00c2 58670000 		.4byte	.LASF787
 8714 00c6 05       		.byte	0x5
 8715 00c7 9601     		.uleb128 0x96
 8716 00c9 A9210000 		.4byte	.LASF788
ARM GAS  /var/folders/z0/6xlwn_996xz3mwq1cgzkbq4r0000gp/T//cckgJHwF.s 			page 175


 8717 00cd 05       		.byte	0x5
 8718 00ce 9801     		.uleb128 0x98
 8719 00d0 8D0E0000 		.4byte	.LASF789
 8720 00d4 05       		.byte	0x5
 8721 00d5 9B01     		.uleb128 0x9b
 8722 00d7 00550000 		.4byte	.LASF790
 8723 00db 05       		.byte	0x5
 8724 00dc 9C01     		.uleb128 0x9c
 8725 00de 4E110000 		.4byte	.LASF791
 8726 00e2 05       		.byte	0x5
 8727 00e3 9D01     		.uleb128 0x9d
 8728 00e5 172B0000 		.4byte	.LASF792
 8729 00e9 05       		.byte	0x5
 8730 00ea 9E01     		.uleb128 0x9e
 8731 00ec 873D0000 		.4byte	.LASF793
 8732 00f0 05       		.byte	0x5
 8733 00f1 A401     		.uleb128 0xa4
 8734 00f3 B6270000 		.4byte	.LASF794
 8735 00f7 05       		.byte	0x5
 8736 00f8 A501     		.uleb128 0xa5
 8737 00fa CF610000 		.4byte	.LASF795
 8738 00fe 05       		.byte	0x5
 8739 00ff A601     		.uleb128 0xa6
 8740 0101 51530000 		.4byte	.LASF796
 8741 0105 05       		.byte	0x5
 8742 0106 A701     		.uleb128 0xa7
 8743 0108 1C2A0000 		.4byte	.LASF797
 8744 010c 05       		.byte	0x5
 8745 010d A801     		.uleb128 0xa8
 8746 010f 1F630000 		.4byte	.LASF798
 8747 0113 05       		.byte	0x5
 8748 0114 AB01     		.uleb128 0xab
 8749 0116 7F220000 		.4byte	.LASF799
 8750 011a 05       		.byte	0x5
 8751 011b AC01     		.uleb128 0xac
 8752 011d 817B0000 		.4byte	.LASF800
 8753 0121 05       		.byte	0x5
 8754 0122 AD01     		.uleb128 0xad
 8755 0124 123C0000 		.4byte	.LASF801
 8756 0128 05       		.byte	0x5
 8757 0129 B001     		.uleb128 0xb0
 8758 012b 2F0E0000 		.4byte	.LASF802
 8759 012f 05       		.byte	0x5
 8760 0130 B101     		.uleb128 0xb1
 8761 0132 304E0000 		.4byte	.LASF803
 8762 0136 05       		.byte	0x5
 8763 0137 B201     		.uleb128 0xb2
 8764 0139 10470000 		.4byte	.LASF804
 8765 013d 05       		.byte	0x5
 8766 013e B301     		.uleb128 0xb3
 8767 0140 FC680000 		.4byte	.LASF805
 8768 0144 05       		.byte	0x5
 8769 0145 B401     		.uleb128 0xb4
 8770 0147 98420000 		.4byte	.LASF806
 8771 014b 05       		.byte	0x5
 8772 014c B501     		.uleb128 0xb5
 8773 014e 881F0000 		.4byte	.LASF807
ARM GAS  /var/folders/z0/6xlwn_996xz3mwq1cgzkbq4r0000gp/T//cckgJHwF.s 			page 176


 8774 0152 05       		.byte	0x5
 8775 0153 B601     		.uleb128 0xb6
 8776 0155 51030000 		.4byte	.LASF808
 8777 0159 05       		.byte	0x5
 8778 015a B701     		.uleb128 0xb7
 8779 015c 561D0000 		.4byte	.LASF809
 8780 0160 05       		.byte	0x5
 8781 0161 B801     		.uleb128 0xb8
 8782 0163 02400000 		.4byte	.LASF810
 8783 0167 05       		.byte	0x5
 8784 0168 BD01     		.uleb128 0xbd
 8785 016a 60050000 		.4byte	.LASF811
 8786 016e 05       		.byte	0x5
 8787 016f BE01     		.uleb128 0xbe
 8788 0171 1A150000 		.4byte	.LASF812
 8789 0175 05       		.byte	0x5
 8790 0176 BF01     		.uleb128 0xbf
 8791 0178 38180000 		.4byte	.LASF813
 8792 017c 05       		.byte	0x5
 8793 017d C001     		.uleb128 0xc0
 8794 017f 7C110000 		.4byte	.LASF814
 8795 0183 05       		.byte	0x5
 8796 0184 C101     		.uleb128 0xc1
 8797 0186 542B0000 		.4byte	.LASF815
 8798 018a 05       		.byte	0x5
 8799 018b C201     		.uleb128 0xc2
 8800 018d 2C0B0000 		.4byte	.LASF816
 8801 0191 05       		.byte	0x5
 8802 0192 C701     		.uleb128 0xc7
 8803 0194 254A0000 		.4byte	.LASF817
 8804 0198 05       		.byte	0x5
 8805 0199 C801     		.uleb128 0xc8
 8806 019b F7720000 		.4byte	.LASF818
 8807 019f 05       		.byte	0x5
 8808 01a0 C901     		.uleb128 0xc9
 8809 01a2 C21C0000 		.4byte	.LASF819
 8810 01a6 05       		.byte	0x5
 8811 01a7 CA01     		.uleb128 0xca
 8812 01a9 4E650000 		.4byte	.LASF820
 8813 01ad 05       		.byte	0x5
 8814 01ae CB01     		.uleb128 0xcb
 8815 01b0 6A220000 		.4byte	.LASF821
 8816 01b4 05       		.byte	0x5
 8817 01b5 CC01     		.uleb128 0xcc
 8818 01b7 A1180000 		.4byte	.LASF822
 8819 01bb 05       		.byte	0x5
 8820 01bc CD01     		.uleb128 0xcd
 8821 01be 0D180000 		.4byte	.LASF823
 8822 01c2 05       		.byte	0x5
 8823 01c3 CE01     		.uleb128 0xce
 8824 01c5 94160000 		.4byte	.LASF824
 8825 01c9 05       		.byte	0x5
 8826 01ca CF01     		.uleb128 0xcf
 8827 01cc C8070000 		.4byte	.LASF825
 8828 01d0 05       		.byte	0x5
 8829 01d1 D001     		.uleb128 0xd0
 8830 01d3 610D0000 		.4byte	.LASF826
ARM GAS  /var/folders/z0/6xlwn_996xz3mwq1cgzkbq4r0000gp/T//cckgJHwF.s 			page 177


 8831 01d7 05       		.byte	0x5
 8832 01d8 D101     		.uleb128 0xd1
 8833 01da 6D3D0000 		.4byte	.LASF827
 8834 01de 05       		.byte	0x5
 8835 01df D601     		.uleb128 0xd6
 8836 01e1 8A450000 		.4byte	.LASF828
 8837 01e5 05       		.byte	0x5
 8838 01e6 D701     		.uleb128 0xd7
 8839 01e8 20700000 		.4byte	.LASF829
 8840 01ec 05       		.byte	0x5
 8841 01ed D801     		.uleb128 0xd8
 8842 01ef 18300000 		.4byte	.LASF830
 8843 01f3 05       		.byte	0x5
 8844 01f4 D901     		.uleb128 0xd9
 8845 01f6 B7410000 		.4byte	.LASF831
 8846 01fa 05       		.byte	0x5
 8847 01fb DA01     		.uleb128 0xda
 8848 01fd 627C0000 		.4byte	.LASF832
 8849 0201 05       		.byte	0x5
 8850 0202 DB01     		.uleb128 0xdb
 8851 0204 31550000 		.4byte	.LASF833
 8852 0208 05       		.byte	0x5
 8853 0209 DC01     		.uleb128 0xdc
 8854 020b 615E0000 		.4byte	.LASF834
 8855 020f 05       		.byte	0x5
 8856 0210 DD01     		.uleb128 0xdd
 8857 0212 F07A0000 		.4byte	.LASF835
 8858 0216 05       		.byte	0x5
 8859 0217 DE01     		.uleb128 0xde
 8860 0219 83410000 		.4byte	.LASF836
 8861 021d 05       		.byte	0x5
 8862 021e E301     		.uleb128 0xe3
 8863 0220 8C300000 		.4byte	.LASF837
 8864 0224 05       		.byte	0x5
 8865 0225 E401     		.uleb128 0xe4
 8866 0227 E1660000 		.4byte	.LASF838
 8867 022b 05       		.byte	0x5
 8868 022c E501     		.uleb128 0xe5
 8869 022e 615F0000 		.4byte	.LASF839
 8870 0232 05       		.byte	0x5
 8871 0233 E601     		.uleb128 0xe6
 8872 0235 4E4A0000 		.4byte	.LASF840
 8873 0239 05       		.byte	0x5
 8874 023a E701     		.uleb128 0xe7
 8875 023c F9250000 		.4byte	.LASF841
 8876 0240 05       		.byte	0x5
 8877 0241 E801     		.uleb128 0xe8
 8878 0243 47050000 		.4byte	.LASF842
 8879 0247 05       		.byte	0x5
 8880 0248 ED01     		.uleb128 0xed
 8881 024a F4080000 		.4byte	.LASF843
 8882 024e 05       		.byte	0x5
 8883 024f EE01     		.uleb128 0xee
 8884 0251 D3110000 		.4byte	.LASF844
 8885 0255 05       		.byte	0x5
 8886 0256 EF01     		.uleb128 0xef
 8887 0258 DD1A0000 		.4byte	.LASF845
ARM GAS  /var/folders/z0/6xlwn_996xz3mwq1cgzkbq4r0000gp/T//cckgJHwF.s 			page 178


 8888 025c 05       		.byte	0x5
 8889 025d F001     		.uleb128 0xf0
 8890 025f 8F6F0000 		.4byte	.LASF846
 8891 0263 05       		.byte	0x5
 8892 0264 F201     		.uleb128 0xf2
 8893 0266 CA490000 		.4byte	.LASF847
 8894 026a 05       		.byte	0x5
 8895 026b F301     		.uleb128 0xf3
 8896 026d 684E0000 		.4byte	.LASF848
 8897 0271 05       		.byte	0x5
 8898 0272 F601     		.uleb128 0xf6
 8899 0274 F9280000 		.4byte	.LASF849
 8900 0278 05       		.byte	0x5
 8901 0279 FB01     		.uleb128 0xfb
 8902 027b F01D0000 		.4byte	.LASF850
 8903 027f 05       		.byte	0x5
 8904 0280 FC01     		.uleb128 0xfc
 8905 0282 41360000 		.4byte	.LASF851
 8906 0286 05       		.byte	0x5
 8907 0287 FD01     		.uleb128 0xfd
 8908 0289 2F760000 		.4byte	.LASF852
 8909 028d 05       		.byte	0x5
 8910 028e FE01     		.uleb128 0xfe
 8911 0290 9B1C0000 		.4byte	.LASF853
 8912 0294 05       		.byte	0x5
 8913 0295 FF01     		.uleb128 0xff
 8914 0297 A60B0000 		.4byte	.LASF854
 8915 029b 05       		.byte	0x5
 8916 029c 8402     		.uleb128 0x104
 8917 029e 0E3E0000 		.4byte	.LASF855
 8918 02a2 05       		.byte	0x5
 8919 02a3 8902     		.uleb128 0x109
 8920 02a5 D3410000 		.4byte	.LASF856
 8921 02a9 05       		.byte	0x5
 8922 02aa 8A02     		.uleb128 0x10a
 8923 02ac 31710000 		.4byte	.LASF857
 8924 02b0 05       		.byte	0x5
 8925 02b1 8B02     		.uleb128 0x10b
 8926 02b3 D2300000 		.4byte	.LASF858
 8927 02b7 05       		.byte	0x5
 8928 02b8 8C02     		.uleb128 0x10c
 8929 02ba 63650000 		.4byte	.LASF859
 8930 02be 05       		.byte	0x5
 8931 02bf 8D02     		.uleb128 0x10d
 8932 02c1 F3300000 		.4byte	.LASF860
 8933 02c5 05       		.byte	0x5
 8934 02c6 9202     		.uleb128 0x112
 8935 02c8 F62A0000 		.4byte	.LASF861
 8936 02cc 05       		.byte	0x5
 8937 02cd 9302     		.uleb128 0x113
 8938 02cf F95E0000 		.4byte	.LASF862
 8939 02d3 05       		.byte	0x5
 8940 02d4 9402     		.uleb128 0x114
 8941 02d6 256B0000 		.4byte	.LASF863
 8942 02da 05       		.byte	0x5
 8943 02db 9902     		.uleb128 0x119
 8944 02dd C80F0000 		.4byte	.LASF864
ARM GAS  /var/folders/z0/6xlwn_996xz3mwq1cgzkbq4r0000gp/T//cckgJHwF.s 			page 179


 8945 02e1 05       		.byte	0x5
 8946 02e2 9A02     		.uleb128 0x11a
 8947 02e4 3F070000 		.4byte	.LASF865
 8948 02e8 05       		.byte	0x5
 8949 02e9 9F02     		.uleb128 0x11f
 8950 02eb 2A4F0000 		.4byte	.LASF866
 8951 02ef 05       		.byte	0x5
 8952 02f0 A002     		.uleb128 0x120
 8953 02f2 01380000 		.4byte	.LASF867
 8954 02f6 05       		.byte	0x5
 8955 02f7 A102     		.uleb128 0x121
 8956 02f9 C0740000 		.4byte	.LASF868
 8957 02fd 05       		.byte	0x5
 8958 02fe A202     		.uleb128 0x122
 8959 0300 FB5B0000 		.4byte	.LASF869
 8960 0304 05       		.byte	0x5
 8961 0305 A302     		.uleb128 0x123
 8962 0307 24530000 		.4byte	.LASF870
 8963 030b 05       		.byte	0x5
 8964 030c A402     		.uleb128 0x124
 8965 030e 10780000 		.4byte	.LASF871
 8966 0312 05       		.byte	0x5
 8967 0313 A502     		.uleb128 0x125
 8968 0315 E7740000 		.4byte	.LASF872
 8969 0319 00       		.byte	0
 8970              		.section	.debug_macro,"G",%progbits,wm4.wwdt_11xx.h.33.5768344983cb842df69cc91ea86cabb0,comdat
 8971              	.Ldebug_macro22:
 8972 0000 0400     		.2byte	0x4
 8973 0002 00       		.byte	0
 8974 0003 05       		.byte	0x5
 8975 0004 21       		.uleb128 0x21
 8976 0005 B2100000 		.4byte	.LASF873
 8977 0009 05       		.byte	0x5
 8978 000a 4B       		.uleb128 0x4b
 8979 000b A51F0000 		.4byte	.LASF874
 8980 000f 05       		.byte	0x5
 8981 0010 4D       		.uleb128 0x4d
 8982 0011 0D110000 		.4byte	.LASF875
 8983 0015 05       		.byte	0x5
 8984 0016 4F       		.uleb128 0x4f
 8985 0017 85570000 		.4byte	.LASF876
 8986 001b 05       		.byte	0x5
 8987 001c 51       		.uleb128 0x51
 8988 001d 8B3C0000 		.4byte	.LASF877
 8989 0021 05       		.byte	0x5
 8990 0022 53       		.uleb128 0x53
 8991 0023 E9760000 		.4byte	.LASF878
 8992 0027 05       		.byte	0x5
 8993 0028 55       		.uleb128 0x55
 8994 0029 4A420000 		.4byte	.LASF879
 8995 002d 00       		.byte	0
 8996              		.section	.debug_macro,"G",%progbits,wm4.ssp_11xx.h.33.af054d3d65f4cb0c078be40bb872ec37,comdat
 8997              	.Ldebug_macro23:
 8998 0000 0400     		.2byte	0x4
 8999 0002 00       		.byte	0
 9000 0003 05       		.byte	0x5
 9001 0004 21       		.uleb128 0x21
ARM GAS  /var/folders/z0/6xlwn_996xz3mwq1cgzkbq4r0000gp/T//cckgJHwF.s 			page 180


 9002 0005 632C0000 		.4byte	.LASF880
 9003 0009 05       		.byte	0x5
 9004 000a 40       		.uleb128 0x40
 9005 000b F34C0000 		.4byte	.LASF881
 9006 000f 05       		.byte	0x5
 9007 0010 42       		.uleb128 0x42
 9008 0011 A2070000 		.4byte	.LASF882
 9009 0015 05       		.byte	0x5
 9010 0016 44       		.uleb128 0x44
 9011 0017 69290000 		.4byte	.LASF883
 9012 001b 05       		.byte	0x5
 9013 001c 46       		.uleb128 0x46
 9014 001d 1B270000 		.4byte	.LASF884
 9015 0021 05       		.byte	0x5
 9016 0022 49       		.uleb128 0x49
 9017 0023 AD3F0000 		.4byte	.LASF885
 9018 0027 05       		.byte	0x5
 9019 0028 4A       		.uleb128 0x4a
 9020 0029 AB090000 		.4byte	.LASF886
 9021 002d 05       		.byte	0x5
 9022 002e 4D       		.uleb128 0x4d
 9023 002f 57210000 		.4byte	.LASF887
 9024 0033 05       		.byte	0x5
 9025 0034 4E       		.uleb128 0x4e
 9026 0035 B96F0000 		.4byte	.LASF888
 9027 0039 05       		.byte	0x5
 9028 003a 51       		.uleb128 0x51
 9029 003b FC340000 		.4byte	.LASF889
 9030 003f 05       		.byte	0x5
 9031 0040 53       		.uleb128 0x53
 9032 0041 F7110000 		.4byte	.LASF890
 9033 0045 05       		.byte	0x5
 9034 0046 55       		.uleb128 0x55
 9035 0047 F7110000 		.4byte	.LASF890
 9036 004b 05       		.byte	0x5
 9037 004c 58       		.uleb128 0x58
 9038 004d FC340000 		.4byte	.LASF889
 9039 0051 05       		.byte	0x5
 9040 0052 5F       		.uleb128 0x5f
 9041 0053 25520000 		.4byte	.LASF891
 9042 0057 05       		.byte	0x5
 9043 0058 61       		.uleb128 0x61
 9044 0059 5E1B0000 		.4byte	.LASF892
 9045 005d 05       		.byte	0x5
 9046 005e 63       		.uleb128 0x63
 9047 005f F2230000 		.4byte	.LASF893
 9048 0063 05       		.byte	0x5
 9049 0064 64       		.uleb128 0x64
 9050 0065 4D340000 		.4byte	.LASF894
 9051 0069 05       		.byte	0x5
 9052 006a 67       		.uleb128 0x67
 9053 006b 765E0000 		.4byte	.LASF895
 9054 006f 05       		.byte	0x5
 9055 0070 69       		.uleb128 0x69
 9056 0071 CE780000 		.4byte	.LASF896
 9057 0075 05       		.byte	0x5
 9058 0076 6C       		.uleb128 0x6c
ARM GAS  /var/folders/z0/6xlwn_996xz3mwq1cgzkbq4r0000gp/T//cckgJHwF.s 			page 181


 9059 0077 A6770000 		.4byte	.LASF897
 9060 007b 05       		.byte	0x5
 9061 007c 72       		.uleb128 0x72
 9062 007d 431F0000 		.4byte	.LASF898
 9063 0081 05       		.byte	0x5
 9064 0082 79       		.uleb128 0x79
 9065 0083 EF6A0000 		.4byte	.LASF899
 9066 0087 05       		.byte	0x5
 9067 0088 7C       		.uleb128 0x7c
 9068 0089 1D080000 		.4byte	.LASF900
 9069 008d 05       		.byte	0x5
 9070 008e C503     		.uleb128 0x1c5
 9071 0090 263D0000 		.4byte	.LASF901
 9072 0094 05       		.byte	0x5
 9073 0095 C603     		.uleb128 0x1c6
 9074 0097 641F0000 		.4byte	.LASF902
 9075 009b 05       		.byte	0x5
 9076 009c CF03     		.uleb128 0x1cf
 9077 009e 1B1A0000 		.4byte	.LASF903
 9078 00a2 05       		.byte	0x5
 9079 00a3 D003     		.uleb128 0x1d0
 9080 00a5 E61C0000 		.4byte	.LASF904
 9081 00a9 05       		.byte	0x5
 9082 00aa D303     		.uleb128 0x1d3
 9083 00ac 17290000 		.4byte	.LASF905
 9084 00b0 05       		.byte	0x5
 9085 00b1 D403     		.uleb128 0x1d4
 9086 00b3 780C0000 		.4byte	.LASF906
 9087 00b7 00       		.byte	0
 9088              		.section	.debug_macro,"G",%progbits,wm4.error.h.38.ae74fe1dd9d19c80c505f1fda144fce8,comdat
 9089              	.Ldebug_macro24:
 9090 0000 0400     		.2byte	0x4
 9091 0002 00       		.byte	0
 9092 0003 05       		.byte	0x5
 9093 0004 26       		.uleb128 0x26
 9094 0005 A8510000 		.4byte	.LASF908
 9095 0009 05       		.byte	0x5
 9096 000a 8401     		.uleb128 0x84
 9097 000c 97080000 		.4byte	.LASF909
 9098 0010 00       		.byte	0
 9099              		.section	.debug_macro,"G",%progbits,wm4.adc_11xx.h.33.6ce7433ac6b30df70a6993d01dbd513f,comdat
 9100              	.Ldebug_macro25:
 9101 0000 0400     		.2byte	0x4
 9102 0002 00       		.byte	0
 9103 0003 05       		.byte	0x5
 9104 0004 21       		.uleb128 0x21
 9105 0005 9A5A0000 		.4byte	.LASF910
 9106 0009 05       		.byte	0x5
 9107 000a 2F       		.uleb128 0x2f
 9108 000b BD280000 		.4byte	.LASF911
 9109 000f 05       		.byte	0x5
 9110 0010 40       		.uleb128 0x40
 9111 0011 FF0F0000 		.4byte	.LASF912
 9112 0015 05       		.byte	0x5
 9113 0016 41       		.uleb128 0x41
 9114 0017 EF4A0000 		.4byte	.LASF913
 9115 001b 05       		.byte	0x5
ARM GAS  /var/folders/z0/6xlwn_996xz3mwq1cgzkbq4r0000gp/T//cckgJHwF.s 			page 182


 9116 001c 43       		.uleb128 0x43
 9117 001d C3400000 		.4byte	.LASF914
 9118 0021 05       		.byte	0x5
 9119 0022 44       		.uleb128 0x44
 9120 0023 E06B0000 		.4byte	.LASF915
 9121 0027 05       		.byte	0x5
 9122 0028 45       		.uleb128 0x45
 9123 0029 C33B0000 		.4byte	.LASF916
 9124 002d 05       		.byte	0x5
 9125 002e 46       		.uleb128 0x46
 9126 002f F17B0000 		.4byte	.LASF917
 9127 0033 05       		.byte	0x5
 9128 0034 47       		.uleb128 0x47
 9129 0035 33110000 		.4byte	.LASF918
 9130 0039 05       		.byte	0x5
 9131 003a 48       		.uleb128 0x48
 9132 003b 92740000 		.4byte	.LASF919
 9133 003f 05       		.byte	0x5
 9134 0040 49       		.uleb128 0x49
 9135 0041 05600000 		.4byte	.LASF920
 9136 0045 05       		.byte	0x5
 9137 0046 4A       		.uleb128 0x4a
 9138 0047 7F1A0000 		.4byte	.LASF921
 9139 004b 05       		.byte	0x5
 9140 004c 4B       		.uleb128 0x4b
 9141 004d B7200000 		.4byte	.LASF922
 9142 0051 05       		.byte	0x5
 9143 0052 4C       		.uleb128 0x4c
 9144 0053 F7430000 		.4byte	.LASF923
 9145 0057 05       		.byte	0x5
 9146 0058 4D       		.uleb128 0x4d
 9147 0059 10770000 		.4byte	.LASF924
 9148 005d 05       		.byte	0x5
 9149 005e 4E       		.uleb128 0x4e
 9150 005f 272C0000 		.4byte	.LASF925
 9151 0063 05       		.byte	0x5
 9152 0064 4F       		.uleb128 0x4f
 9153 0065 B23C0000 		.4byte	.LASF926
 9154 0069 05       		.byte	0x5
 9155 006a 50       		.uleb128 0x50
 9156 006b E45F0000 		.4byte	.LASF927
 9157 006f 05       		.byte	0x5
 9158 0070 51       		.uleb128 0x51
 9159 0071 F2780000 		.4byte	.LASF928
 9160 0075 05       		.byte	0x5
 9161 0076 52       		.uleb128 0x52
 9162 0077 105A0000 		.4byte	.LASF929
 9163 007b 00       		.byte	0
 9164              		.section	.debug_macro,"G",%progbits,wm4.i2c_11xx.h.33.2b506d1350e00a8c26e8bf006a5f9390,comdat
 9165              	.Ldebug_macro26:
 9166 0000 0400     		.2byte	0x4
 9167 0002 00       		.byte	0
 9168 0003 05       		.byte	0x5
 9169 0004 21       		.uleb128 0x21
 9170 0005 1C6C0000 		.4byte	.LASF931
 9171 0009 05       		.byte	0x5
 9172 000a 46       		.uleb128 0x46
ARM GAS  /var/folders/z0/6xlwn_996xz3mwq1cgzkbq4r0000gp/T//cckgJHwF.s 			page 183


 9173 000b 100E0000 		.4byte	.LASF932
 9174 000f 05       		.byte	0x5
 9175 0010 47       		.uleb128 0x47
 9176 0011 3D570000 		.4byte	.LASF933
 9177 0015 05       		.byte	0x5
 9178 0016 48       		.uleb128 0x48
 9179 0017 D41B0000 		.4byte	.LASF934
 9180 001b 05       		.byte	0x5
 9181 001c 49       		.uleb128 0x49
 9182 001d 68690000 		.4byte	.LASF935
 9183 0021 05       		.byte	0x5
 9184 0022 4E       		.uleb128 0x4e
 9185 0023 364C0000 		.4byte	.LASF936
 9186 0027 05       		.byte	0x5
 9187 0028 53       		.uleb128 0x53
 9188 0029 42190000 		.4byte	.LASF937
 9189 002d 05       		.byte	0x5
 9190 002e 54       		.uleb128 0x54
 9191 002f 130B0000 		.4byte	.LASF938
 9192 0033 05       		.byte	0x5
 9193 0034 55       		.uleb128 0x55
 9194 0035 00000000 		.4byte	.LASF939
 9195 0039 05       		.byte	0x5
 9196 003a 56       		.uleb128 0x56
 9197 003b D42E0000 		.4byte	.LASF940
 9198 003f 05       		.byte	0x5
 9199 0040 57       		.uleb128 0x57
 9200 0041 DA0E0000 		.4byte	.LASF941
 9201 0045 05       		.byte	0x5
 9202 0046 5C       		.uleb128 0x5c
 9203 0047 B1470000 		.4byte	.LASF942
 9204 004b 05       		.byte	0x5
 9205 004c 5D       		.uleb128 0x5d
 9206 004d 420C0000 		.4byte	.LASF943
 9207 0051 05       		.byte	0x5
 9208 0052 5E       		.uleb128 0x5e
 9209 0053 91530000 		.4byte	.LASF944
 9210 0057 05       		.byte	0x5
 9211 0058 5F       		.uleb128 0x5f
 9212 0059 B40C0000 		.4byte	.LASF945
 9213 005d 05       		.byte	0x5
 9214 005e 60       		.uleb128 0x60
 9215 005f A5250000 		.4byte	.LASF946
 9216 0063 05       		.byte	0x5
 9217 0064 65       		.uleb128 0x65
 9218 0065 DD4C0000 		.4byte	.LASF947
 9219 0069 05       		.byte	0x5
 9220 006a 66       		.uleb128 0x66
 9221 006b 69530000 		.4byte	.LASF948
 9222 006f 05       		.byte	0x5
 9223 0070 67       		.uleb128 0x67
 9224 0071 36410000 		.4byte	.LASF949
 9225 0075 05       		.byte	0x5
 9226 0076 68       		.uleb128 0x68
 9227 0077 90200000 		.4byte	.LASF950
 9228 007b 05       		.byte	0x5
 9229 007c 69       		.uleb128 0x69
ARM GAS  /var/folders/z0/6xlwn_996xz3mwq1cgzkbq4r0000gp/T//cckgJHwF.s 			page 184


 9230 007d AB160000 		.4byte	.LASF951
 9231 0081 05       		.byte	0x5
 9232 0082 6E       		.uleb128 0x6e
 9233 0083 187C0000 		.4byte	.LASF952
 9234 0087 05       		.byte	0x5
 9235 0088 6F       		.uleb128 0x6f
 9236 0089 89500000 		.4byte	.LASF953
 9237 008d 05       		.byte	0x5
 9238 008e 74       		.uleb128 0x74
 9239 008f D1670000 		.4byte	.LASF954
 9240 0093 05       		.byte	0x5
 9241 0094 75       		.uleb128 0x75
 9242 0095 8D090000 		.4byte	.LASF955
 9243 0099 05       		.byte	0x5
 9244 009a 7A       		.uleb128 0x7a
 9245 009b 904B0000 		.4byte	.LASF956
 9246 009f 05       		.byte	0x5
 9247 00a0 7B       		.uleb128 0x7b
 9248 00a1 FA190000 		.4byte	.LASF957
 9249 00a5 05       		.byte	0x5
 9250 00a6 7C       		.uleb128 0x7c
 9251 00a7 1A250000 		.4byte	.LASF958
 9252 00ab 05       		.byte	0x5
 9253 00ac 7D       		.uleb128 0x7d
 9254 00ad 75420000 		.4byte	.LASF959
 9255 00b1 05       		.byte	0x5
 9256 00b2 7E       		.uleb128 0x7e
 9257 00b3 F72F0000 		.4byte	.LASF960
 9258 00b7 05       		.byte	0x5
 9259 00b8 7F       		.uleb128 0x7f
 9260 00b9 03520000 		.4byte	.LASF961
 9261 00bd 05       		.byte	0x5
 9262 00be 8001     		.uleb128 0x80
 9263 00c0 981B0000 		.4byte	.LASF962
 9264 00c4 05       		.byte	0x5
 9265 00c5 8501     		.uleb128 0x85
 9266 00c7 74020000 		.4byte	.LASF963
 9267 00cb 05       		.byte	0x5
 9268 00cc 8601     		.uleb128 0x86
 9269 00ce 76010000 		.4byte	.LASF964
 9270 00d2 05       		.byte	0x5
 9271 00d3 8701     		.uleb128 0x87
 9272 00d5 AE2C0000 		.4byte	.LASF965
 9273 00d9 05       		.byte	0x5
 9274 00da 8801     		.uleb128 0x88
 9275 00dc EC3D0000 		.4byte	.LASF966
 9276 00e0 05       		.byte	0x5
 9277 00e1 8901     		.uleb128 0x89
 9278 00e3 A23D0000 		.4byte	.LASF967
 9279 00e7 05       		.byte	0x5
 9280 00e8 8A01     		.uleb128 0x8a
 9281 00ea 040D0000 		.4byte	.LASF968
 9282 00ee 05       		.byte	0x5
 9283 00ef 8B01     		.uleb128 0x8b
 9284 00f1 47550000 		.4byte	.LASF969
 9285 00f5 05       		.byte	0x5
 9286 00f6 9001     		.uleb128 0x90
ARM GAS  /var/folders/z0/6xlwn_996xz3mwq1cgzkbq4r0000gp/T//cckgJHwF.s 			page 185


 9287 00f8 F5750000 		.4byte	.LASF970
 9288 00fc 05       		.byte	0x5
 9289 00fd 9101     		.uleb128 0x91
 9290 00ff 33750000 		.4byte	.LASF971
 9291 0103 05       		.byte	0x5
 9292 0104 9301     		.uleb128 0x93
 9293 0106 334D0000 		.4byte	.LASF972
 9294 010a 05       		.byte	0x5
 9295 010b 9401     		.uleb128 0x94
 9296 010d 19500000 		.4byte	.LASF973
 9297 0111 05       		.byte	0x5
 9298 0112 9601     		.uleb128 0x96
 9299 0114 61250000 		.4byte	.LASF974
 9300 0118 05       		.byte	0x5
 9301 0119 9701     		.uleb128 0x97
 9302 011b E6770000 		.4byte	.LASF975
 9303 011f 05       		.byte	0x5
 9304 0120 9801     		.uleb128 0x98
 9305 0122 D2130000 		.4byte	.LASF976
 9306 0126 05       		.byte	0x5
 9307 0127 9901     		.uleb128 0x99
 9308 0129 FA120000 		.4byte	.LASF977
 9309 012d 05       		.byte	0x5
 9310 012e 9A01     		.uleb128 0x9a
 9311 0130 9D430000 		.4byte	.LASF978
 9312 0134 05       		.byte	0x5
 9313 0135 A001     		.uleb128 0xa0
 9314 0137 61770000 		.4byte	.LASF979
 9315 013b 05       		.byte	0x5
 9316 013c A101     		.uleb128 0xa1
 9317 013e F14F0000 		.4byte	.LASF980
 9318 0142 05       		.byte	0x5
 9319 0143 A301     		.uleb128 0xa3
 9320 0145 53180000 		.4byte	.LASF981
 9321 0149 05       		.byte	0x5
 9322 014a A401     		.uleb128 0xa4
 9323 014c 34510000 		.4byte	.LASF982
 9324 0150 05       		.byte	0x5
 9325 0151 A501     		.uleb128 0xa5
 9326 0153 7F560000 		.4byte	.LASF983
 9327 0157 05       		.byte	0x5
 9328 0158 A601     		.uleb128 0xa6
 9329 015a 6C300000 		.4byte	.LASF984
 9330 015e 05       		.byte	0x5
 9331 015f AB01     		.uleb128 0xab
 9332 0161 E8320000 		.4byte	.LASF985
 9333 0165 05       		.byte	0x5
 9334 0166 AC01     		.uleb128 0xac
 9335 0168 49790000 		.4byte	.LASF986
 9336 016c 05       		.byte	0x5
 9337 016d B201     		.uleb128 0xb2
 9338 016f 66000000 		.4byte	.LASF987
 9339 0173 05       		.byte	0x5
 9340 0174 B301     		.uleb128 0xb3
 9341 0176 0C730000 		.4byte	.LASF988
 9342 017a 05       		.byte	0x5
 9343 017b B401     		.uleb128 0xb4
ARM GAS  /var/folders/z0/6xlwn_996xz3mwq1cgzkbq4r0000gp/T//cckgJHwF.s 			page 186


 9344 017d 60440000 		.4byte	.LASF989
 9345 0181 05       		.byte	0x5
 9346 0182 B501     		.uleb128 0xb5
 9347 0184 9A2D0000 		.4byte	.LASF990
 9348 0188 05       		.byte	0x5
 9349 0189 BA01     		.uleb128 0xba
 9350 018b 89750000 		.4byte	.LASF991
 9351 018f 05       		.byte	0x5
 9352 0190 BF01     		.uleb128 0xbf
 9353 0192 58660000 		.4byte	.LASF992
 9354 0196 05       		.byte	0x5
 9355 0197 C001     		.uleb128 0xc0
 9356 0199 BD350000 		.4byte	.LASF993
 9357 019d 05       		.byte	0x5
 9358 019e C501     		.uleb128 0xc5
 9359 01a0 CB570000 		.4byte	.LASF994
 9360 01a4 05       		.byte	0x5
 9361 01a5 CA01     		.uleb128 0xca
 9362 01a7 BF3E0000 		.4byte	.LASF995
 9363 01ab 05       		.byte	0x5
 9364 01ac CF01     		.uleb128 0xcf
 9365 01ae 1C5D0000 		.4byte	.LASF996
 9366 01b2 05       		.byte	0x5
 9367 01b3 D401     		.uleb128 0xd4
 9368 01b5 FB5A0000 		.4byte	.LASF997
 9369 01b9 05       		.byte	0x5
 9370 01ba D501     		.uleb128 0xd5
 9371 01bc 787C0000 		.4byte	.LASF998
 9372 01c0 05       		.byte	0x5
 9373 01c1 D601     		.uleb128 0xd6
 9374 01c3 33400000 		.4byte	.LASF999
 9375 01c7 05       		.byte	0x5
 9376 01c8 DB01     		.uleb128 0xdb
 9377 01ca B7540000 		.4byte	.LASF1000
 9378 01ce 05       		.byte	0x5
 9379 01cf DC01     		.uleb128 0xdc
 9380 01d1 1B5C0000 		.4byte	.LASF1001
 9381 01d5 05       		.byte	0x5
 9382 01d6 DD01     		.uleb128 0xdd
 9383 01d8 63010000 		.4byte	.LASF1002
 9384 01dc 05       		.byte	0x5
 9385 01dd DE01     		.uleb128 0xde
 9386 01df 70390000 		.4byte	.LASF1003
 9387 01e3 05       		.byte	0x5
 9388 01e4 DF01     		.uleb128 0xdf
 9389 01e6 E95A0000 		.4byte	.LASF1004
 9390 01ea 05       		.byte	0x5
 9391 01eb E001     		.uleb128 0xe0
 9392 01ed 05280000 		.4byte	.LASF1005
 9393 01f1 05       		.byte	0x5
 9394 01f2 E101     		.uleb128 0xe1
 9395 01f4 364C0000 		.4byte	.LASF936
 9396 01f8 05       		.byte	0x5
 9397 01f9 E301     		.uleb128 0xe3
 9398 01fb A76B0000 		.4byte	.LASF1006
 9399 01ff 05       		.byte	0x5
 9400 0200 E401     		.uleb128 0xe4
ARM GAS  /var/folders/z0/6xlwn_996xz3mwq1cgzkbq4r0000gp/T//cckgJHwF.s 			page 187


 9401 0202 5E160000 		.4byte	.LASF1007
 9402 0206 05       		.byte	0x5
 9403 0207 E601     		.uleb128 0xe6
 9404 0209 9E2A0000 		.4byte	.LASF1008
 9405 020d 05       		.byte	0x5
 9406 020e EB01     		.uleb128 0xeb
 9407 0210 D3510000 		.4byte	.LASF1009
 9408 0214 05       		.byte	0x5
 9409 0215 EC01     		.uleb128 0xec
 9410 0217 4A200000 		.4byte	.LASF1010
 9411 021b 00       		.byte	0
 9412              		.section	.debug_macro,"G",%progbits,wm4.ccand_11xx.h.33.99627f4b529fecdc77b0877ab6fe5266,comdat
 9413              	.Ldebug_macro27:
 9414 0000 0400     		.2byte	0x4
 9415 0002 00       		.byte	0
 9416 0003 05       		.byte	0x5
 9417 0004 21       		.uleb128 0x21
 9418 0005 067B0000 		.4byte	.LASF1011
 9419 0009 05       		.byte	0x5
 9420 000a 6E       		.uleb128 0x6e
 9421 000b 6D2D0000 		.4byte	.LASF1012
 9422 000f 05       		.byte	0x5
 9423 0010 6F       		.uleb128 0x6f
 9424 0011 C3010000 		.4byte	.LASF1013
 9425 0015 05       		.byte	0x5
 9426 0016 70       		.uleb128 0x70
 9427 0017 A7400000 		.4byte	.LASF1014
 9428 001b 05       		.byte	0x5
 9429 001c 71       		.uleb128 0x71
 9430 001d B2780000 		.4byte	.LASF1015
 9431 0021 05       		.byte	0x5
 9432 0022 72       		.uleb128 0x72
 9433 0023 D7180000 		.4byte	.LASF1016
 9434 0027 05       		.byte	0x5
 9435 0028 73       		.uleb128 0x73
 9436 0029 610F0000 		.4byte	.LASF1017
 9437 002d 05       		.byte	0x5
 9438 002e 74       		.uleb128 0x74
 9439 002f 5A090000 		.4byte	.LASF1018
 9440 0033 05       		.byte	0x5
 9441 0034 75       		.uleb128 0x75
 9442 0035 3A5D0000 		.4byte	.LASF1019
 9443 0039 05       		.byte	0x5
 9444 003a 76       		.uleb128 0x76
 9445 003b B2660000 		.4byte	.LASF1020
 9446 003f 05       		.byte	0x5
 9447 0040 77       		.uleb128 0x77
 9448 0041 1B790000 		.4byte	.LASF1021
 9449 0045 05       		.byte	0x5
 9450 0046 7C       		.uleb128 0x7c
 9451 0047 2D060000 		.4byte	.LASF1022
 9452 004b 05       		.byte	0x5
 9453 004c 7D       		.uleb128 0x7d
 9454 004d B1260000 		.4byte	.LASF1023
 9455 0051 05       		.byte	0x5
 9456 0052 7E       		.uleb128 0x7e
 9457 0053 50300000 		.4byte	.LASF1024
ARM GAS  /var/folders/z0/6xlwn_996xz3mwq1cgzkbq4r0000gp/T//cckgJHwF.s 			page 188


 9458 0057 05       		.byte	0x5
 9459 0058 7F       		.uleb128 0x7f
 9460 0059 6D790000 		.4byte	.LASF1025
 9461 005d 05       		.byte	0x5
 9462 005e 9101     		.uleb128 0x91
 9463 0060 E7200000 		.4byte	.LASF1026
 9464 0064 05       		.byte	0x5
 9465 0065 9201     		.uleb128 0x92
 9466 0067 FE6F0000 		.4byte	.LASF1027
 9467 006b 05       		.byte	0x5
 9468 006c 9301     		.uleb128 0x93
 9469 006e BB040000 		.4byte	.LASF1028
 9470 0072 05       		.byte	0x5
 9471 0073 9401     		.uleb128 0x94
 9472 0075 3E0D0000 		.4byte	.LASF1029
 9473 0079 05       		.byte	0x5
 9474 007a 9501     		.uleb128 0x95
 9475 007c 4C570000 		.4byte	.LASF1030
 9476 0080 05       		.byte	0x5
 9477 0081 9601     		.uleb128 0x96
 9478 0083 415F0000 		.4byte	.LASF1031
 9479 0087 05       		.byte	0x5
 9480 0088 9701     		.uleb128 0x97
 9481 008a D3750000 		.4byte	.LASF1032
 9482 008e 05       		.byte	0x5
 9483 008f 9801     		.uleb128 0x98
 9484 0091 322B0000 		.4byte	.LASF1033
 9485 0095 05       		.byte	0x5
 9486 0096 9901     		.uleb128 0x99
 9487 0098 E8560000 		.4byte	.LASF1034
 9488 009c 05       		.byte	0x5
 9489 009d 9A01     		.uleb128 0x9a
 9490 009f 67230000 		.4byte	.LASF1035
 9491 00a3 05       		.byte	0x5
 9492 00a4 9B01     		.uleb128 0x9b
 9493 00a6 34170000 		.4byte	.LASF1036
 9494 00aa 05       		.byte	0x5
 9495 00ab 9C01     		.uleb128 0x9c
 9496 00ad A41E0000 		.4byte	.LASF1037
 9497 00b1 05       		.byte	0x5
 9498 00b2 9D01     		.uleb128 0x9d
 9499 00b4 F40B0000 		.4byte	.LASF1038
 9500 00b8 05       		.byte	0x5
 9501 00b9 9E01     		.uleb128 0x9e
 9502 00bb 80520000 		.4byte	.LASF1039
 9503 00bf 05       		.byte	0x5
 9504 00c0 9F01     		.uleb128 0x9f
 9505 00c2 B8180000 		.4byte	.LASF1040
 9506 00c6 05       		.byte	0x5
 9507 00c7 A901     		.uleb128 0xa9
 9508 00c9 CF240000 		.4byte	.LASF1041
 9509 00cd 05       		.byte	0x5
 9510 00ce AA01     		.uleb128 0xaa
 9511 00d0 56140000 		.4byte	.LASF1042
 9512 00d4 05       		.byte	0x5
 9513 00d5 AB01     		.uleb128 0xab
 9514 00d7 16220000 		.4byte	.LASF1043
ARM GAS  /var/folders/z0/6xlwn_996xz3mwq1cgzkbq4r0000gp/T//cckgJHwF.s 			page 189


 9515 00db 05       		.byte	0x5
 9516 00dc AC01     		.uleb128 0xac
 9517 00de C14F0000 		.4byte	.LASF1044
 9518 00e2 05       		.byte	0x5
 9519 00e3 AD01     		.uleb128 0xad
 9520 00e5 673C0000 		.4byte	.LASF1045
 9521 00e9 05       		.byte	0x5
 9522 00ea AE01     		.uleb128 0xae
 9523 00ec C63A0000 		.4byte	.LASF1046
 9524 00f0 05       		.byte	0x5
 9525 00f1 AF01     		.uleb128 0xaf
 9526 00f3 4A490000 		.4byte	.LASF1047
 9527 00f7 05       		.byte	0x5
 9528 00f8 C401     		.uleb128 0xc4
 9529 00fa 4D760000 		.4byte	.LASF1048
 9530 00fe 05       		.byte	0x5
 9531 00ff C501     		.uleb128 0xc5
 9532 0101 0E650000 		.4byte	.LASF1049
 9533 0105 05       		.byte	0x5
 9534 0106 C601     		.uleb128 0xc6
 9535 0108 87590000 		.4byte	.LASF1050
 9536 010c 05       		.byte	0x5
 9537 010d C901     		.uleb128 0xc9
 9538 010f F5440000 		.4byte	.LASF1051
 9539 0113 05       		.byte	0x5
 9540 0114 CA01     		.uleb128 0xca
 9541 0116 07480000 		.4byte	.LASF1052
 9542 011a 05       		.byte	0x5
 9543 011b CB01     		.uleb128 0xcb
 9544 011d 69110000 		.4byte	.LASF1053
 9545 0121 05       		.byte	0x5
 9546 0122 E501     		.uleb128 0xe5
 9547 0124 E2260000 		.4byte	.LASF1054
 9548 0128 00       		.byte	0
 9549              		.section	.debug_line,"",%progbits
 9550              	.Ldebug_line0:
 9551 0000 AD060000 		.section	.debug_str,"MS",%progbits,1
 9551      02008B03 
 9551      00000201 
 9551      FB0E0D00 
 9551      01010101 
 9552              	.LASF939:
 9553 0000 4932435F 		.ascii	"I2C_I2CONSET_STO ((0x10))\000"
 9553      4932434F 
 9553      4E534554 
 9553      5F53544F 
 9553      20282830 
 9554              	.LASF339:
 9555 001a 5F5F4758 		.ascii	"__GXX_TYPEINFO_EQUALITY_INLINE 0\000"
 9555      585F5459 
 9555      5045494E 
 9555      464F5F45 
 9555      5155414C 
 9556              	.LASF490:
 9557 003b 57494E54 		.ascii	"WINT_MIN (__WINT_MIN__)\000"
 9557      5F4D494E 
 9557      20285F5F 
ARM GAS  /var/folders/z0/6xlwn_996xz3mwq1cgzkbq4r0000gp/T//cckgJHwF.s 			page 190


 9557      57494E54 
 9557      5F4D494E 
 9558              	.LASF158:
 9559 0053 5F5F4445 		.ascii	"__DECIMAL_DIG__ 17\000"
 9559      43494D41 
 9559      4C5F4449 
 9559      475F5F20 
 9559      313700
 9560              	.LASF987:
 9561 0066 4932435F 		.ascii	"I2C_I2MMCTRL_MM_ENA ((1 << 0))\000"
 9561      49324D4D 
 9561      4354524C 
 9561      5F4D4D5F 
 9561      454E4120 
 9562              	.LASF295:
 9563 0085 5F5F5548 		.ascii	"__UHA_FBIT__ 8\000"
 9563      415F4642 
 9563      49545F5F 
 9563      203800
 9564              	.LASF374:
 9565 0094 5F5F5356 		.ascii	"__SVID_VISIBLE 1\000"
 9565      49445F56 
 9565      49534942 
 9565      4C452031 
 9565      00
 9566              	.LASF748:
 9567 00a5 54494D45 		.ascii	"TIMER_INT_ON_MATCH(n) (_BIT(((n) * 3)))\000"
 9567      525F494E 
 9567      545F4F4E 
 9567      5F4D4154 
 9567      4348286E 
 9568              	.LASF1134:
 9569 00cd 53595343 		.ascii	"SYSCTL_CLOCK_SYS\000"
 9569      544C5F43 
 9569      4C4F434B 
 9569      5F535953 
 9569      00
 9570              	.LASF185:
 9571 00de 5F5F4445 		.ascii	"__DEC128_EPSILON__ 1E-33DL\000"
 9571      43313238 
 9571      5F455053 
 9571      494C4F4E 
 9571      5F5F2031 
 9572              	.LASF636:
 9573 00f9 4C50435F 		.ascii	"LPC_IOCON_BASE 0x40044000\000"
 9573      494F434F 
 9573      4E5F4241 
 9573      53452030 
 9573      78343030 
 9574              	.LASF615:
 9575 0113 4E564943 		.ascii	"NVIC_BASE (SCS_BASE + 0x0100UL)\000"
 9575      5F424153 
 9575      45202853 
 9575      43535F42 
 9575      41534520 
 9576              	.LASF311:
 9577 0133 5F5F4743 		.ascii	"__GCC_ATOMIC_WCHAR_T_LOCK_FREE 1\000"
ARM GAS  /var/folders/z0/6xlwn_996xz3mwq1cgzkbq4r0000gp/T//cckgJHwF.s 			page 191


 9577      435F4154 
 9577      4F4D4943 
 9577      5F574348 
 9577      41525F54 
 9578              	.LASF294:
 9579 0154 5F5F5441 		.ascii	"__TA_IBIT__ 64\000"
 9579      5F494249 
 9579      545F5F20 
 9579      363400
 9580              	.LASF1002:
 9581 0163 4932435F 		.ascii	"I2C_BYTE_RECV 0x02\000"
 9581      42595445 
 9581      5F524543 
 9581      56203078 
 9581      303200
 9582              	.LASF964:
 9583 0176 4932435F 		.ascii	"I2C_I2STAT_M_RX_RESTART ((0x10))\000"
 9583      49325354 
 9583      41545F4D 
 9583      5F52585F 
 9583      52455354 
 9584              	.LASF1136:
 9585 0197 53595343 		.ascii	"SYSCTL_CLOCK_RAM\000"
 9585      544C5F43 
 9585      4C4F434B 
 9585      5F52414D 
 9585      00
 9586              	.LASF187:
 9587 01a8 5F5F5346 		.ascii	"__SFRACT_FBIT__ 7\000"
 9587      52414354 
 9587      5F464249 
 9587      545F5F20 
 9587      3700
 9588              	.LASF1069:
 9589 01ba 73697A65 		.ascii	"sizetype\000"
 9589      74797065 
 9589      00
 9590              	.LASF1013:
 9591 01c3 43414E5F 		.ascii	"CAN_ERROR_PASS 0x00000001UL\000"
 9591      4552524F 
 9591      525F5041 
 9591      53532030 
 9591      78303030 
 9592              	.LASF624:
 9593 01df 4C50435F 		.ascii	"LPC_WWDT_BASE 0x40004000\000"
 9593      57574454 
 9593      5F424153 
 9593      45203078 
 9593      34303030 
 9594              	.LASF1196:
 9595 01f8 70617373 		.ascii	"pass\000"
 9595      00
 9596              	.LASF259:
 9597 01fd 5F5F4C4C 		.ascii	"__LLACCUM_MIN__ (-0X1P31LLK-0X1P31LLK)\000"
 9597      41434355 
 9597      4D5F4D49 
 9597      4E5F5F20 
ARM GAS  /var/folders/z0/6xlwn_996xz3mwq1cgzkbq4r0000gp/T//cckgJHwF.s 			page 192


 9597      282D3058 
 9598              	.LASF251:
 9599 0224 5F5F4C41 		.ascii	"__LACCUM_EPSILON__ 0x1P-31LK\000"
 9599      4343554D 
 9599      5F455053 
 9599      494C4F4E 
 9599      5F5F2030 
 9600              	.LASF672:
 9601 0241 53595343 		.ascii	"SYSCTL_RST_POR (1 << 0)\000"
 9601      544C5F52 
 9601      53545F50 
 9601      4F522028 
 9601      31203C3C 
 9602              	.LASF77:
 9603 0259 5F5F5054 		.ascii	"__PTRDIFF_MAX__ 0x7fffffff\000"
 9603      52444946 
 9603      465F4D41 
 9603      585F5F20 
 9603      30783766 
 9604              	.LASF963:
 9605 0274 4932435F 		.ascii	"I2C_I2STAT_M_RX_START ((0x08))\000"
 9605      49325354 
 9605      41545F4D 
 9605      5F52585F 
 9605      53544152 
 9606              	.LASF587:
 9607 0293 5343425F 		.ascii	"SCB_SCR_SLEEPONEXIT_Pos 1\000"
 9607      5343525F 
 9607      534C4545 
 9607      504F4E45 
 9607      5849545F 
 9608              	.LASF80:
 9609 02ad 5F5F494E 		.ascii	"__INTMAX_C(c) c ## LL\000"
 9609      544D4158 
 9609      5F432863 
 9609      29206320 
 9609      2323204C 
 9610              	.LASF425:
 9611 02c3 5F55494E 		.ascii	"_UINT32_T_DECLARED \000"
 9611      5433325F 
 9611      545F4445 
 9611      434C4152 
 9611      45442000 
 9612              	.LASF79:
 9613 02d7 5F5F494E 		.ascii	"__INTMAX_MAX__ 0x7fffffffffffffffLL\000"
 9613      544D4158 
 9613      5F4D4158 
 9613      5F5F2030 
 9613      78376666 
 9614              	.LASF172:
 9615 02fb 5F5F4445 		.ascii	"__DEC32_SUBNORMAL_MIN__ 0.000001E-95DF\000"
 9615      4333325F 
 9615      5355424E 
 9615      4F524D41 
 9615      4C5F4D49 
 9616              	.LASF1208:
 9617 0322 43686970 		.ascii	"Chip_UART_IRQRBHandler\000"
ARM GAS  /var/folders/z0/6xlwn_996xz3mwq1cgzkbq4r0000gp/T//cckgJHwF.s 			page 193


 9617      5F554152 
 9617      545F4952 
 9617      51524248 
 9617      616E646C 
 9618              	.LASF1158:
 9619 0339 7461696C 		.ascii	"tail\000"
 9619      00
 9620              	.LASF424:
 9621 033e 5F494E54 		.ascii	"_INT32_T_DECLARED \000"
 9621      33325F54 
 9621      5F444543 
 9621      4C415245 
 9621      442000
 9622              	.LASF808:
 9623 0351 55415254 		.ascii	"UART_LCR_BREAK_EN (1 << 6)\000"
 9623      5F4C4352 
 9623      5F425245 
 9623      414B5F45 
 9623      4E202831 
 9624              	.LASF582:
 9625 036c 5343425F 		.ascii	"SCB_AIRCR_VECTCLRACTIVE_Msk (1UL << SCB_AIRCR_VECTC"
 9625      41495243 
 9625      525F5645 
 9625      4354434C 
 9625      52414354 
 9626 039f 4C524143 		.ascii	"LRACTIVE_Pos)\000"
 9626      54495645 
 9626      5F506F73 
 9626      2900
 9627              	.LASF1223:
 9628 03ad 2E2E2F2E 		.ascii	"../../lib/lpc11cx4-library/lpc_chip_11cxx_lib/src/u"
 9628      2E2F6C69 
 9628      622F6C70 
 9628      63313163 
 9628      78342D6C 
 9629 03e0 6172745F 		.ascii	"art_11xx.c\000"
 9629      31317878 
 9629      2E6300
 9630              	.LASF11:
 9631 03eb 5F5F4154 		.ascii	"__ATOMIC_CONSUME 1\000"
 9631      4F4D4943 
 9631      5F434F4E 
 9631      53554D45 
 9631      203100
 9632              	.LASF209:
 9633 03fe 5F5F4C46 		.ascii	"__LFRACT_MIN__ (-0.5LR-0.5LR)\000"
 9633      52414354 
 9633      5F4D494E 
 9633      5F5F2028 
 9633      2D302E35 
 9634              	.LASF73:
 9635 041c 5F5F5743 		.ascii	"__WCHAR_MAX__ 0xffffffffU\000"
 9635      4841525F 
 9635      4D41585F 
 9635      5F203078 
 9635      66666666 
 9636              	.LASF550:
ARM GAS  /var/folders/z0/6xlwn_996xz3mwq1cgzkbq4r0000gp/T//cckgJHwF.s 			page 194


 9637 0436 5343425F 		.ascii	"SCB_CPUID_ARCHITECTURE_Msk (0xFUL << SCB_CPUID_ARCH"
 9637      43505549 
 9637      445F4152 
 9637      43484954 
 9637      45435455 
 9638 0469 49544543 		.ascii	"ITECTURE_Pos)\000"
 9638      54555245 
 9638      5F506F73 
 9638      2900
 9639              	.LASF239:
 9640 0477 5F5F4143 		.ascii	"__ACCUM_MIN__ (-0X1P15K-0X1P15K)\000"
 9640      43554D5F 
 9640      4D494E5F 
 9640      5F20282D 
 9640      30583150 
 9641              	.LASF359:
 9642 0498 5F444546 		.ascii	"_DEFAULT_SOURCE\000"
 9642      41554C54 
 9642      5F534F55 
 9642      52434500 
 9643              	.LASF1184:
 9644 04a8 43686970 		.ascii	"Chip_UART_ReadByte\000"
 9644      5F554152 
 9644      545F5265 
 9644      61644279 
 9644      746500
 9645              	.LASF1028:
 9646 04bb 53444F5F 		.ascii	"SDO_ABORT_UNKNOWN_COMMAND 0x05040001UL\000"
 9646      41424F52 
 9646      545F554E 
 9646      4B4E4F57 
 9646      4E5F434F 
 9647              	.LASF552:
 9648 04e2 5343425F 		.ascii	"SCB_CPUID_PARTNO_Msk (0xFFFUL << SCB_CPUID_PARTNO_P"
 9648      43505549 
 9648      445F5041 
 9648      52544E4F 
 9648      5F4D736B 
 9649 0515 6F732900 		.ascii	"os)\000"
 9650              	.LASF16:
 9651 0519 5F5F5349 		.ascii	"__SIZEOF_LONG_LONG__ 8\000"
 9651      5A454F46 
 9651      5F4C4F4E 
 9651      475F4C4F 
 9651      4E475F5F 
 9652              	.LASF143:
 9653 0530 5F5F4442 		.ascii	"__DBL_MAX_10_EXP__ 308\000"
 9653      4C5F4D41 
 9653      585F3130 
 9653      5F455850 
 9653      5F5F2033 
 9654              	.LASF842:
 9655 0547 55415254 		.ascii	"UART_ACR_BITMASK (0x307)\000"
 9655      5F414352 
 9655      5F424954 
 9655      4D41534B 
 9655      20283078 
ARM GAS  /var/folders/z0/6xlwn_996xz3mwq1cgzkbq4r0000gp/T//cckgJHwF.s 			page 195


 9656              	.LASF811:
 9657 0560 55415254 		.ascii	"UART_MCR_DTR_CTRL (1 << 0)\000"
 9657      5F4D4352 
 9657      5F445452 
 9657      5F435452 
 9657      4C202831 
 9658              	.LASF1191:
 9659 057b 43686970 		.ascii	"Chip_UART_IntEnable\000"
 9659      5F554152 
 9659      545F496E 
 9659      74456E61 
 9659      626C6500 
 9660              	.LASF265:
 9661 058f 5F5F554C 		.ascii	"__ULLACCUM_MAX__ 0XFFFFFFFFFFFFFFFFP-32ULLK\000"
 9661      4C414343 
 9661      554D5F4D 
 9661      41585F5F 
 9661      20305846 
 9662              	.LASF598:
 9663 05bb 53797354 		.ascii	"SysTick_CTRL_CLKSOURCE_Msk (1UL << SysTick_CTRL_CLK"
 9663      69636B5F 
 9663      4354524C 
 9663      5F434C4B 
 9663      534F5552 
 9664 05ee 534F5552 		.ascii	"SOURCE_Pos)\000"
 9664      43455F50 
 9664      6F732900 
 9665              	.LASF235:
 9666 05fa 5F5F5553 		.ascii	"__USACCUM_MAX__ 0XFFFFP-8UHK\000"
 9666      41434355 
 9666      4D5F4D41 
 9666      585F5F20 
 9666      30584646 
 9667              	.LASF169:
 9668 0617 5F5F4445 		.ascii	"__DEC32_MIN__ 1E-95DF\000"
 9668      4333325F 
 9668      4D494E5F 
 9668      5F203145 
 9668      2D393544 
 9669              	.LASF1022:
 9670 062d 43414E5F 		.ascii	"CAN_MSGOBJ_STD 0x00000000UL\000"
 9670      4D53474F 
 9670      424A5F53 
 9670      54442030 
 9670      78303030 
 9671              	.LASF629:
 9672 0649 4C50435F 		.ascii	"LPC_TIMER32_1_BASE 0x40018000\000"
 9672      54494D45 
 9672      5233325F 
 9672      315F4241 
 9672      53452030 
 9673              	.LASF272:
 9674 0667 5F5F5351 		.ascii	"__SQ_IBIT__ 0\000"
 9674      5F494249 
 9674      545F5F20 
 9674      3000
 9675              	.LASF26:
ARM GAS  /var/folders/z0/6xlwn_996xz3mwq1cgzkbq4r0000gp/T//cckgJHwF.s 			page 196


 9676 0675 5F5F4F52 		.ascii	"__ORDER_PDP_ENDIAN__ 3412\000"
 9676      4445525F 
 9676      5044505F 
 9676      454E4449 
 9676      414E5F5F 
 9677              	.LASF1153:
 9678 068f 43484950 		.ascii	"CHIP_SYSCTL_CLOCK_T\000"
 9678      5F535953 
 9678      43544C5F 
 9678      434C4F43 
 9678      4B5F5400 
 9679              	.LASF175:
 9680 06a3 5F5F4445 		.ascii	"__DEC64_MAX_EXP__ 385\000"
 9680      4336345F 
 9680      4D41585F 
 9680      4558505F 
 9680      5F203338 
 9681              	.LASF1112:
 9682 06b9 424F4443 		.ascii	"BODCTRL\000"
 9682      54524C00 
 9683              	.LASF592:
 9684 06c1 5343425F 		.ascii	"SCB_CCR_UNALIGN_TRP_Msk (1UL << SCB_CCR_UNALIGN_TRP"
 9684      4343525F 
 9684      554E414C 
 9684      49474E5F 
 9684      5452505F 
 9685 06f4 5F506F73 		.ascii	"_Pos)\000"
 9685      2900
 9686              	.LASF135:
 9687 06fa 5F5F464C 		.ascii	"__FLT_HAS_DENORM__ 1\000"
 9687      545F4841 
 9687      535F4445 
 9687      4E4F524D 
 9687      5F5F2031 
 9688              	.LASF39:
 9689 070f 5F5F494E 		.ascii	"__INT8_TYPE__ signed char\000"
 9689      54385F54 
 9689      5950455F 
 9689      5F207369 
 9689      676E6564 
 9690              	.LASF325:
 9691 0729 5F5F4152 		.ascii	"__ARM_ARCH_PROFILE 77\000"
 9691      4D5F4152 
 9691      43485F50 
 9691      524F4649 
 9691      4C452037 
 9692              	.LASF865:
 9693 073f 55415254 		.ascii	"UART_TER2_TXEN (1 << 0)\000"
 9693      5F544552 
 9693      325F5458 
 9693      454E2028 
 9693      31203C3C 
 9694              	.LASF562:
 9695 0757 5343425F 		.ascii	"SCB_ICSR_PENDSTSET_Msk (1UL << SCB_ICSR_PENDSTSET_P"
 9695      49435352 
 9695      5F50454E 
 9695      44535453 
ARM GAS  /var/folders/z0/6xlwn_996xz3mwq1cgzkbq4r0000gp/T//cckgJHwF.s 			page 197


 9695      45545F4D 
 9696 078a 6F732900 		.ascii	"os)\000"
 9697              	.LASF1142:
 9698 078e 53595343 		.ascii	"SYSCTL_CLOCK_CT16B1\000"
 9698      544C5F43 
 9698      4C4F434B 
 9698      5F435431 
 9698      36423100 
 9699              	.LASF882:
 9700 07a2 5353505F 		.ascii	"SSP_CR0_FRF_SPI ((uint32_t) (0 << 4))\000"
 9700      4352305F 
 9700      4652465F 
 9700      53504920 
 9700      28287569 
 9701              	.LASF825:
 9702 07c8 55415254 		.ascii	"UART_LSR_TXFE (1 << 8)\000"
 9702      5F4C5352 
 9702      5F545846 
 9702      45202831 
 9702      203C3C20 
 9703              	.LASF154:
 9704 07df 5F5F4C44 		.ascii	"__LDBL_MIN_EXP__ (-1021)\000"
 9704      424C5F4D 
 9704      494E5F45 
 9704      58505F5F 
 9704      20282D31 
 9705              	.LASF375:
 9706 07f8 5F5F5853 		.ascii	"__XSI_VISIBLE 0\000"
 9706      495F5649 
 9706      5349424C 
 9706      45203000 
 9707              	.LASF152:
 9708 0808 5F5F4C44 		.ascii	"__LDBL_MANT_DIG__ 53\000"
 9708      424C5F4D 
 9708      414E545F 
 9708      4449475F 
 9708      5F203533 
 9709              	.LASF900:
 9710 081d 5353505F 		.ascii	"SSP_ICR_BITMASK ((uint32_t) (0x03))\000"
 9710      4943525F 
 9710      4249544D 
 9710      41534B20 
 9710      28287569 
 9711              	.LASF1187:
 9712 0841 72656164 		.ascii	"readBytes\000"
 9712      42797465 
 9712      7300
 9713              	.LASF673:
 9714 084b 53595343 		.ascii	"SYSCTL_RST_EXTRST (1 << 1)\000"
 9714      544C5F52 
 9714      53545F45 
 9714      58545253 
 9714      54202831 
 9715              	.LASF102:
 9716 0866 5F5F5549 		.ascii	"__UINT8_C(c) c\000"
 9716      4E54385F 
 9716      43286329 
ARM GAS  /var/folders/z0/6xlwn_996xz3mwq1cgzkbq4r0000gp/T//cckgJHwF.s 			page 198


 9716      206300
 9717              	.LASF40:
 9718 0875 5F5F494E 		.ascii	"__INT16_TYPE__ short int\000"
 9718      5431365F 
 9718      54595045 
 9718      5F5F2073 
 9718      686F7274 
 9719              	.LASF391:
 9720 088e 756E7369 		.ascii	"unsigned\000"
 9720      676E6564 
 9720      00
 9721              	.LASF909:
 9722 0897 434F4D50 		.ascii	"COMPILE_TIME_ASSERT(pred) switch(0){case 0:case pre"
 9722      494C455F 
 9722      54494D45 
 9722      5F415353 
 9722      45525428 
 9723 08ca 643A3B7D 		.ascii	"d:;}\000"
 9723      00
 9724              	.LASF1215:
 9725 08cf 72617465 		.ascii	"rate16\000"
 9725      313600
 9726              	.LASF628:
 9727 08d6 4C50435F 		.ascii	"LPC_TIMER32_0_BASE 0x40014000\000"
 9727      54494D45 
 9727      5233325F 
 9727      305F4241 
 9727      53452030 
 9728              	.LASF843:
 9729 08f4 55415254 		.ascii	"UART_RS485CTRL_NMM_EN (1 << 0)\000"
 9729      5F525334 
 9729      38354354 
 9729      524C5F4E 
 9729      4D4D5F45 
 9730              	.LASF508:
 9731 0913 50415241 		.ascii	"PARAM_FUNCTIONALSTATE(State) ((State == DISABLE) ||"
 9731      4D5F4655 
 9731      4E435449 
 9731      4F4E414C 
 9731      53544154 
 9732 0946 20285374 		.ascii	" (State == ENABLE))\000"
 9732      61746520 
 9732      3D3D2045 
 9732      4E41424C 
 9732      45292900 
 9733              	.LASF1018:
 9734 095a 43414E5F 		.ascii	"CAN_ERROR_ACK 0x00000020UL\000"
 9734      4552524F 
 9734      525F4143 
 9734      4B203078 
 9734      30303030 
 9735              	.LASF743:
 9736 0975 54494D45 		.ascii	"TIMER_IR_CLR(n) _BIT(n)\000"
 9736      525F4952 
 9736      5F434C52 
 9736      286E2920 
 9736      5F424954 
ARM GAS  /var/folders/z0/6xlwn_996xz3mwq1cgzkbq4r0000gp/T//cckgJHwF.s 			page 199


 9737              	.LASF955:
 9738 098d 4932435F 		.ascii	"I2C_I2STAT_BUS_ERROR ((0x00))\000"
 9738      49325354 
 9738      41545F42 
 9738      55535F45 
 9738      52524F52 
 9739              	.LASF886:
 9740 09ab 5353505F 		.ascii	"SSP_CR0_CPOL_HI ((uint32_t) (1 << 6))\000"
 9740      4352305F 
 9740      43504F4C 
 9740      5F484920 
 9740      28287569 
 9741              	.LASF405:
 9742 09d1 5F5F494E 		.ascii	"__INT8 \"hh\"\000"
 9742      54382022 
 9742      68682200 
 9743              	.LASF700:
 9744 09dd 494F434F 		.ascii	"IOCON_FUNC1 0x1\000"
 9744      4E5F4655 
 9744      4E433120 
 9744      30783100 
 9745              	.LASF453:
 9746 09ed 494E545F 		.ascii	"INT_LEAST16_MAX (__INT_LEAST16_MAX__)\000"
 9746      4C454153 
 9746      5431365F 
 9746      4D415820 
 9746      285F5F49 
 9747              	.LASF1:
 9748 0a13 5F5F5354 		.ascii	"__STDC_HOSTED__ 1\000"
 9748      44435F48 
 9748      4F535445 
 9748      445F5F20 
 9748      3100
 9749              	.LASF222:
 9750 0a25 5F5F554C 		.ascii	"__ULLFRACT_FBIT__ 64\000"
 9750      4C465241 
 9750      43545F46 
 9750      4249545F 
 9750      5F203634 
 9751              	.LASF268:
 9752 0a3a 5F5F5151 		.ascii	"__QQ_IBIT__ 0\000"
 9752      5F494249 
 9752      545F5F20 
 9752      3000
 9753              	.LASF772:
 9754 0a48 55415254 		.ascii	"UART2_IER_BITMASK (0x38F)\000"
 9754      325F4945 
 9754      525F4249 
 9754      544D4153 
 9754      4B202830 
 9755              	.LASF1173:
 9756 0a62 636F6E66 		.ascii	"config\000"
 9756      696700
 9757              	.LASF1100:
 9758 0a69 55534243 		.ascii	"USBCLKDIV\000"
 9758      4C4B4449 
 9758      5600
ARM GAS  /var/folders/z0/6xlwn_996xz3mwq1cgzkbq4r0000gp/T//cckgJHwF.s 			page 200


 9759              	.LASF58:
 9760 0a73 5F5F494E 		.ascii	"__INT_FAST64_TYPE__ long long int\000"
 9760      545F4641 
 9760      53543634 
 9760      5F545950 
 9760      455F5F20 
 9761              	.LASF561:
 9762 0a95 5343425F 		.ascii	"SCB_ICSR_PENDSTSET_Pos 26\000"
 9762      49435352 
 9762      5F50454E 
 9762      44535453 
 9762      45545F50 
 9763              	.LASF444:
 9764 0aaf 494E5438 		.ascii	"INT8_MAX (__INT8_MAX__)\000"
 9764      5F4D4158 
 9764      20285F5F 
 9764      494E5438 
 9764      5F4D4158 
 9765              	.LASF693:
 9766 0ac7 53595343 		.ascii	"SYSCTL_POWERDOWN_SYSOSC_PD (1 << 5)\000"
 9766      544C5F50 
 9766      4F574552 
 9766      444F574E 
 9766      5F535953 
 9767              	.LASF396:
 9768 0aeb 7369676E 		.ascii	"signed +0\000"
 9768      6564202B 
 9768      3000
 9769              	.LASF485:
 9770 0af5 50545244 		.ascii	"PTRDIFF_MAX (__PTRDIFF_MAX__)\000"
 9770      4946465F 
 9770      4D415820 
 9770      285F5F50 
 9770      54524449 
 9771              	.LASF938:
 9772 0b13 4932435F 		.ascii	"I2C_I2CONSET_SI ((0x08))\000"
 9772      4932434F 
 9772      4E534554 
 9772      5F534920 
 9772      28283078 
 9773              	.LASF816:
 9774 0b2c 55415254 		.ascii	"UART_MCR_BITMASK (0xD3)\000"
 9774      5F4D4352 
 9774      5F424954 
 9774      4D41534B 
 9774      20283078 
 9775              	.LASF305:
 9776 0b44 5F5F474E 		.ascii	"__GNUC_GNU_INLINE__ 1\000"
 9776      55435F47 
 9776      4E555F49 
 9776      4E4C494E 
 9776      455F5F20 
 9777              	.LASF519:
 9778 0b5a 554E5553 		.ascii	"UNUSED(x) (void)(x)\000"
 9778      45442878 
 9778      29202876 
 9778      6F696429 
ARM GAS  /var/folders/z0/6xlwn_996xz3mwq1cgzkbq4r0000gp/T//cckgJHwF.s 			page 201


 9778      28782900 
 9779              	.LASF195:
 9780 0b6e 5F5F5553 		.ascii	"__USFRACT_MAX__ 0XFFP-8UHR\000"
 9780      46524143 
 9780      545F4D41 
 9780      585F5F20 
 9780      30584646 
 9781              	.LASF597:
 9782 0b89 53797354 		.ascii	"SysTick_CTRL_CLKSOURCE_Pos 2\000"
 9782      69636B5F 
 9782      4354524C 
 9782      5F434C4B 
 9782      534F5552 
 9783              	.LASF854:
 9784 0ba6 55415254 		.ascii	"UART_ICR_BITMASK (0x3F)\000"
 9784      5F494352 
 9784      5F424954 
 9784      4D41534B 
 9784      20283078 
 9785              	.LASF720:
 9786 0bbe 4D445F50 		.ascii	"MD_PLN (0x0 << 3)\000"
 9786      4C4E2028 
 9786      30783020 
 9786      3C3C2033 
 9786      2900
 9787              	.LASF1209:
 9788 0bd0 70525852 		.ascii	"pRXRB\000"
 9788      4200
 9789              	.LASF783:
 9790 0bd6 55415254 		.ascii	"UART_IIR_INTID_MODEM (0 << 1)\000"
 9790      5F494952 
 9790      5F494E54 
 9790      49445F4D 
 9790      4F44454D 
 9791              	.LASF1038:
 9792 0bf4 53444F5F 		.ascii	"SDO_ABORT_TRANSFER 0x08000020UL\000"
 9792      41424F52 
 9792      545F5452 
 9792      414E5346 
 9792      45522030 
 9793              	.LASF540:
 9794 0c14 5F5F434F 		.ascii	"__CORE_CMFUNC_H \000"
 9794      52455F43 
 9794      4D46554E 
 9794      435F4820 
 9794      00
 9795              	.LASF575:
 9796 0c25 5343425F 		.ascii	"SCB_AIRCR_VECTKEYSTAT_Pos 16\000"
 9796      41495243 
 9796      525F5645 
 9796      43544B45 
 9796      59535441 
 9797              	.LASF943:
 9798 0c42 4932435F 		.ascii	"I2C_I2CONCLR_SIC ((1 << 3))\000"
 9798      4932434F 
 9798      4E434C52 
 9798      5F534943 
ARM GAS  /var/folders/z0/6xlwn_996xz3mwq1cgzkbq4r0000gp/T//cckgJHwF.s 			page 202


 9798      20282831 
 9799              	.LASF571:
 9800 0c5e 5343425F 		.ascii	"SCB_ICSR_VECTACTIVE_Pos 0\000"
 9800      49435352 
 9800      5F564543 
 9800      54414354 
 9800      4956455F 
 9801              	.LASF906:
 9802 0c78 5353505F 		.ascii	"SSP_MASTER_MODE SSP_CR1_MASTER_EN\000"
 9802      4D415354 
 9802      45525F4D 
 9802      4F444520 
 9802      5353505F 
 9803              	.LASF450:
 9804 0c9a 494E5431 		.ascii	"INT16_MAX (__INT16_MAX__)\000"
 9804      365F4D41 
 9804      5820285F 
 9804      5F494E54 
 9804      31365F4D 
 9805              	.LASF945:
 9806 0cb4 4932435F 		.ascii	"I2C_I2CONCLR_STAC ((1 << 5))\000"
 9806      4932434F 
 9806      4E434C52 
 9806      5F535441 
 9806      43202828 
 9807              	.LASF1170:
 9808 0cd1 4C50435F 		.ascii	"LPC_USART_T\000"
 9808      55534152 
 9808      545F5400 
 9809              	.LASF212:
 9810 0cdd 5F5F554C 		.ascii	"__ULFRACT_FBIT__ 32\000"
 9810      46524143 
 9810      545F4642 
 9810      49545F5F 
 9810      20333200 
 9811              	.LASF1221:
 9812 0cf1 52696E67 		.ascii	"RingBuffer_PopMult\000"
 9812      42756666 
 9812      65725F50 
 9812      6F704D75 
 9812      6C7400
 9813              	.LASF968:
 9814 0d04 4932435F 		.ascii	"I2C_I2STAT_M_RX_DAT_ACK ((0x50))\000"
 9814      49325354 
 9814      41545F4D 
 9814      5F52585F 
 9814      4441545F 
 9815              	.LASF438:
 9816 0d25 5F5F696E 		.ascii	"__int_fast32_t_defined 1\000"
 9816      745F6661 
 9816      73743332 
 9816      5F745F64 
 9816      6566696E 
 9817              	.LASF1029:
 9818 0d3e 53444F5F 		.ascii	"SDO_ABORT_UNSUPPORTED 0x06010000UL\000"
 9818      41424F52 
 9818      545F554E 
ARM GAS  /var/folders/z0/6xlwn_996xz3mwq1cgzkbq4r0000gp/T//cckgJHwF.s 			page 203


 9818      53555050 
 9818      4F525445 
 9819              	.LASF826:
 9820 0d61 55415254 		.ascii	"UART_LSR_BITMASK (0xFF)\000"
 9820      5F4C5352 
 9820      5F424954 
 9820      4D41534B 
 9820      20283078 
 9821              	.LASF213:
 9822 0d79 5F5F554C 		.ascii	"__ULFRACT_IBIT__ 0\000"
 9822      46524143 
 9822      545F4942 
 9822      49545F5F 
 9822      203000
 9823              	.LASF493:
 9824 0d8c 494E5431 		.ascii	"INT16_C(x) __INT16_C(x)\000"
 9824      365F4328 
 9824      7829205F 
 9824      5F494E54 
 9824      31365F43 
 9825              	.LASF1216:
 9826 0da4 61637475 		.ascii	"actualRate\000"
 9826      616C5261 
 9826      746500
 9827              	.LASF1210:
 9828 0daf 70545852 		.ascii	"pTXRB\000"
 9828      4200
 9829              	.LASF98:
 9830 0db5 5F5F494E 		.ascii	"__INT32_C(c) c ## L\000"
 9830      5433325F 
 9830      43286329 
 9830      20632023 
 9830      23204C00 
 9831              	.LASF281:
 9832 0dc9 5F5F5553 		.ascii	"__USQ_FBIT__ 32\000"
 9832      515F4642 
 9832      49545F5F 
 9832      20333200 
 9833              	.LASF1143:
 9834 0dd9 53595343 		.ascii	"SYSCTL_CLOCK_CT32B0\000"
 9834      544C5F43 
 9834      4C4F434B 
 9834      5F435433 
 9834      32423000 
 9835              	.LASF1144:
 9836 0ded 53595343 		.ascii	"SYSCTL_CLOCK_CT32B1\000"
 9836      544C5F43 
 9836      4C4F434B 
 9836      5F435433 
 9836      32423100 
 9837              	.LASF271:
 9838 0e01 5F5F5351 		.ascii	"__SQ_FBIT__ 31\000"
 9838      5F464249 
 9838      545F5F20 
 9838      333100
 9839              	.LASF932:
 9840 0e10 5245545F 		.ascii	"RET_SLAVE_TX 6\000"
ARM GAS  /var/folders/z0/6xlwn_996xz3mwq1cgzkbq4r0000gp/T//cckgJHwF.s 			page 204


 9840      534C4156 
 9840      455F5458 
 9840      203600
 9841              	.LASF301:
 9842 0e1f 5F5F5554 		.ascii	"__UTA_FBIT__ 64\000"
 9842      415F4642 
 9842      49545F5F 
 9842      20363400 
 9843              	.LASF802:
 9844 0e2f 55415254 		.ascii	"UART_LCR_PARITY_EN (1 << 3)\000"
 9844      5F4C4352 
 9844      5F504152 
 9844      4954595F 
 9844      454E2028 
 9845              	.LASF1162:
 9846 0e4b 54455231 		.ascii	"TER1\000"
 9846      00
 9847              	.LASF1169:
 9848 0e50 54455232 		.ascii	"TER2\000"
 9848      00
 9849              	.LASF1167:
 9850 0e55 52533438 		.ascii	"RS485ADRMATCH\000"
 9850      35414452 
 9850      4D415443 
 9850      4800
 9851              	.LASF677:
 9852 0e63 53595343 		.ascii	"SYSCTL_NMISRC_ENABLE ((uint32_t) 1 << 31)\000"
 9852      544C5F4E 
 9852      4D495352 
 9852      435F454E 
 9852      41424C45 
 9853              	.LASF789:
 9854 0e8d 55415254 		.ascii	"UART_TX_FIFO_SIZE (16)\000"
 9854      5F54585F 
 9854      4649464F 
 9854      5F53495A 
 9854      45202831 
 9855              	.LASF279:
 9856 0ea4 5F5F5548 		.ascii	"__UHQ_FBIT__ 16\000"
 9856      515F4642 
 9856      49545F5F 
 9856      20313600 
 9857              	.LASF465:
 9858 0eb4 494E545F 		.ascii	"INT_LEAST64_MAX (__INT_LEAST64_MAX__)\000"
 9858      4C454153 
 9858      5436345F 
 9858      4D415820 
 9858      285F5F49 
 9859              	.LASF941:
 9860 0eda 4932435F 		.ascii	"I2C_I2CONSET_I2EN ((0x40))\000"
 9860      4932434F 
 9860      4E534554 
 9860      5F493245 
 9860      4E202828 
 9861              	.LASF609:
 9862 0ef5 53797354 		.ascii	"SysTick_CALIB_SKEW_Pos 30\000"
 9862      69636B5F 
ARM GAS  /var/folders/z0/6xlwn_996xz3mwq1cgzkbq4r0000gp/T//cckgJHwF.s 			page 205


 9862      43414C49 
 9862      425F534B 
 9862      45575F50 
 9863              	.LASF113:
 9864 0f0f 5F5F5549 		.ascii	"__UINT_FAST8_MAX__ 0xffffffffU\000"
 9864      4E545F46 
 9864      41535438 
 9864      5F4D4158 
 9864      5F5F2030 
 9865              	.LASF171:
 9866 0f2e 5F5F4445 		.ascii	"__DEC32_EPSILON__ 1E-6DF\000"
 9866      4333325F 
 9866      45505349 
 9866      4C4F4E5F 
 9866      5F203145 
 9867              	.LASF488:
 9868 0f47 57434841 		.ascii	"WCHAR_MAX (__WCHAR_MAX__)\000"
 9868      525F4D41 
 9868      5820285F 
 9868      5F574348 
 9868      41525F4D 
 9869              	.LASF1017:
 9870 0f61 43414E5F 		.ascii	"CAN_ERROR_FORM 0x00000010UL\000"
 9870      4552524F 
 9870      525F464F 
 9870      524D2030 
 9870      78303030 
 9871              	.LASF1149:
 9872 0f7d 53595343 		.ascii	"SYSCTL_CLOCK_WDT\000"
 9872      544C5F43 
 9872      4C4F434B 
 9872      5F574454 
 9872      00
 9873              	.LASF447:
 9874 0f8e 494E545F 		.ascii	"INT_LEAST8_MAX (__INT_LEAST8_MAX__)\000"
 9874      4C454153 
 9874      54385F4D 
 9874      41582028 
 9874      5F5F494E 
 9875              	.LASF535:
 9876 0fb2 5F5F4153 		.ascii	"__ASM __asm\000"
 9876      4D205F5F 
 9876      61736D00 
 9877              	.LASF1061:
 9878 0fbe 5F5F7569 		.ascii	"__uint8_t\000"
 9878      6E74385F 
 9878      7400
 9879              	.LASF864:
 9880 0fc8 55415254 		.ascii	"UART_TER1_TXEN (1 << 7)\000"
 9880      5F544552 
 9880      315F5458 
 9880      454E2028 
 9880      31203C3C 
 9881              	.LASF683:
 9882 0fe0 53595343 		.ascii	"SYSCTL_SLPWAKE_BOD_PD (1 << 3)\000"
 9882      544C5F53 
 9882      4C505741 
ARM GAS  /var/folders/z0/6xlwn_996xz3mwq1cgzkbq4r0000gp/T//cckgJHwF.s 			page 206


 9882      4B455F42 
 9882      4F445F50 
 9883              	.LASF912:
 9884 0fff 4144435F 		.ascii	"ADC_DR_RESULT(n) ((((n) >> 6) & 0x3FF))\000"
 9884      44525F52 
 9884      4553554C 
 9884      54286E29 
 9884      20282828 
 9885              	.LASF1133:
 9886 1027 4C50435F 		.ascii	"LPC_SYSCTL_T\000"
 9886      53595343 
 9886      544C5F54 
 9886      00
 9887              	.LASF770:
 9888 1034 55415254 		.ascii	"UART_IER_BITMASK (0x307)\000"
 9888      5F494552 
 9888      5F424954 
 9888      4D41534B 
 9888      20283078 
 9889              	.LASF746:
 9890 104d 54494D45 		.ascii	"TIMER_ENABLE ((uint32_t) (1 << 0))\000"
 9890      525F454E 
 9890      41424C45 
 9890      20282875 
 9890      696E7433 
 9891              	.LASF334:
 9892 1070 5F5F5646 		.ascii	"__VFP_FP__ 1\000"
 9892      505F4650 
 9892      5F5F2031 
 9892      00
 9893              	.LASF415:
 9894 107d 5F5F4C45 		.ascii	"__LEAST32 \"l\"\000"
 9894      41535433 
 9894      3220226C 
 9894      2200
 9895              	.LASF408:
 9896 108b 5F5F494E 		.ascii	"__INT64 \"ll\"\000"
 9896      54363420 
 9896      226C6C22 
 9896      00
 9897              	.LASF117:
 9898 1098 5F5F494E 		.ascii	"__INTPTR_MAX__ 0x7fffffff\000"
 9898      54505452 
 9898      5F4D4158 
 9898      5F5F2030 
 9898      78376666 
 9899              	.LASF873:
 9900 10b2 5F5F5757 		.ascii	"__WWDT_11XX_H_ \000"
 9900      44545F31 
 9900      3158585F 
 9900      485F2000 
 9901              	.LASF114:
 9902 10c2 5F5F5549 		.ascii	"__UINT_FAST16_MAX__ 0xffffffffU\000"
 9902      4E545F46 
 9902      41535431 
 9902      365F4D41 
 9902      585F5F20 
ARM GAS  /var/folders/z0/6xlwn_996xz3mwq1cgzkbq4r0000gp/T//cckgJHwF.s 			page 207


 9903              	.LASF464:
 9904 10e2 494E545F 		.ascii	"INT_LEAST64_MIN (-__INT_LEAST64_MAX__ - 1)\000"
 9904      4C454153 
 9904      5436345F 
 9904      4D494E20 
 9904      282D5F5F 
 9905              	.LASF875:
 9906 110d 57574454 		.ascii	"WWDT_WDMOD_WDEN ((uint32_t) (1 << 0))\000"
 9906      5F57444D 
 9906      4F445F57 
 9906      44454E20 
 9906      28287569 
 9907              	.LASF918:
 9908 1133 4144435F 		.ascii	"ADC_CR_BURST ((1UL << 16))\000"
 9908      43525F42 
 9908      55525354 
 9908      20282831 
 9908      554C203C 
 9909              	.LASF791:
 9910 114e 55415254 		.ascii	"UART_FCR_TRG_LEV1 (1 << 6)\000"
 9910      5F464352 
 9910      5F545247 
 9910      5F4C4556 
 9910      31202831 
 9911              	.LASF1053:
 9912 1169 43414E5F 		.ascii	"CAN_SDOSEG_CLOSE 2\000"
 9912      53444F53 
 9912      45475F43 
 9912      4C4F5345 
 9912      203200
 9913              	.LASF814:
 9914 117c 55415254 		.ascii	"UART_MCR_AUTO_RTS_EN (1 << 6)\000"
 9914      5F4D4352 
 9914      5F415554 
 9914      4F5F5254 
 9914      535F454E 
 9915              	.LASF1117:
 9916 119a 50494E54 		.ascii	"PINTSEL\000"
 9916      53454C00 
 9917              	.LASF170:
 9918 11a2 5F5F4445 		.ascii	"__DEC32_MAX__ 9.999999E96DF\000"
 9918      4333325F 
 9918      4D41585F 
 9918      5F20392E 
 9918      39393939 
 9919              	.LASF204:
 9920 11be 5F5F5546 		.ascii	"__UFRACT_MIN__ 0.0UR\000"
 9920      52414354 
 9920      5F4D494E 
 9920      5F5F2030 
 9920      2E305552 
 9921              	.LASF844:
 9922 11d3 55415254 		.ascii	"UART_RS485CTRL_RX_DIS (1 << 1)\000"
 9922      5F525334 
 9922      38354354 
 9922      524C5F52 
 9922      585F4449 
ARM GAS  /var/folders/z0/6xlwn_996xz3mwq1cgzkbq4r0000gp/T//cckgJHwF.s 			page 208


 9923              	.LASF1214:
 9924 11f2 6D76616C 		.ascii	"mval\000"
 9924      00
 9925              	.LASF890:
 9926 11f7 5353505F 		.ascii	"SSP_CR0_BITMASK ((uint32_t) (0xFFFF))\000"
 9926      4352305F 
 9926      4249544D 
 9926      41534B20 
 9926      28287569 
 9927              	.LASF430:
 9928 121d 5F494E54 		.ascii	"_INTPTR_T_DECLARED \000"
 9928      5054525F 
 9928      545F4445 
 9928      434C4152 
 9928      45442000 
 9929              	.LASF84:
 9930 1231 5F5F5349 		.ascii	"__SIG_ATOMIC_MIN__ (-__SIG_ATOMIC_MAX__ - 1)\000"
 9930      475F4154 
 9930      4F4D4943 
 9930      5F4D494E 
 9930      5F5F2028 
 9931              	.LASF641:
 9932 125e 4C50435F 		.ascii	"LPC_GPIO_PORT0_BASE 0x50000000\000"
 9932      4750494F 
 9932      5F504F52 
 9932      54305F42 
 9932      41534520 
 9933              	.LASF473:
 9934 127d 494E545F 		.ascii	"INT_FAST32_MIN (-__INT_FAST32_MAX__ - 1)\000"
 9934      46415354 
 9934      33325F4D 
 9934      494E2028 
 9934      2D5F5F49 
 9935              	.LASF599:
 9936 12a6 53797354 		.ascii	"SysTick_CTRL_TICKINT_Pos 1\000"
 9936      69636B5F 
 9936      4354524C 
 9936      5F544943 
 9936      4B494E54 
 9937              	.LASF530:
 9938 12c1 5F5F434F 		.ascii	"__CORE_CM0_H_GENERIC \000"
 9938      52455F43 
 9938      4D305F48 
 9938      5F47454E 
 9938      45524943 
 9939              	.LASF51:
 9940 12d7 5F5F5549 		.ascii	"__UINT_LEAST8_TYPE__ unsigned char\000"
 9940      4E545F4C 
 9940      45415354 
 9940      385F5459 
 9940      50455F5F 
 9941              	.LASF977:
 9942 12fa 4932435F 		.ascii	"I2C_I2STAT_S_RX_PRE_GENCALL_DAT_NACK ((0x98))\000"
 9942      49325354 
 9942      41545F53 
 9942      5F52585F 
 9942      5052455F 
ARM GAS  /var/folders/z0/6xlwn_996xz3mwq1cgzkbq4r0000gp/T//cckgJHwF.s 			page 209


 9943              	.LASF237:
 9944 1328 5F5F4143 		.ascii	"__ACCUM_FBIT__ 15\000"
 9944      43554D5F 
 9944      46424954 
 9944      5F5F2031 
 9944      3500
 9945              	.LASF357:
 9946 133a 5F5F474E 		.ascii	"__GNUC_PREREQ(maj,min) ((__GNUC__ << 16) + __GNUC_M"
 9946      55435F50 
 9946      52455245 
 9946      51286D61 
 9946      6A2C6D69 
 9947 136d 494E4F52 		.ascii	"INOR__ >= ((maj) << 16) + (min))\000"
 9947      5F5F203E 
 9947      3D202828 
 9947      6D616A29 
 9947      203C3C20 
 9948              	.LASF661:
 9949 138e 4C50435F 		.ascii	"LPC_CCAN ((LPC_CCAN_T *) LPC_CAN0_BASE)\000"
 9949      4343414E 
 9949      2028284C 
 9949      50435F43 
 9949      43414E5F 
 9950              	.LASF243:
 9951 13b6 5F5F5541 		.ascii	"__UACCUM_IBIT__ 16\000"
 9951      4343554D 
 9951      5F494249 
 9951      545F5F20 
 9951      313600
 9952              	.LASF1060:
 9953 13c9 6C6F6E67 		.ascii	"long int\000"
 9953      20696E74 
 9953      00
 9954              	.LASF976:
 9955 13d2 4932435F 		.ascii	"I2C_I2STAT_S_RX_PRE_GENCALL_DAT_ACK ((0x90))\000"
 9955      49325354 
 9955      41545F53 
 9955      5F52585F 
 9955      5052455F 
 9956              	.LASF112:
 9957 13ff 5F5F494E 		.ascii	"__INT_FAST64_MAX__ 0x7fffffffffffffffLL\000"
 9957      545F4641 
 9957      53543634 
 9957      5F4D4158 
 9957      5F5F2030 
 9958              	.LASF146:
 9959 1427 5F5F4442 		.ascii	"__DBL_MIN__ ((double)2.2250738585072014e-308L)\000"
 9959      4C5F4D49 
 9959      4E5F5F20 
 9959      2828646F 
 9959      75626C65 
 9960              	.LASF1042:
 9961 1456 4F445F45 		.ascii	"OD_EXP_RO 0x10\000"
 9961      58505F52 
 9961      4F203078 
 9961      313000
 9962              	.LASF1110:
ARM GAS  /var/folders/z0/6xlwn_996xz3mwq1cgzkbq4r0000gp/T//cckgJHwF.s 			page 210


 9963 1465 50494F50 		.ascii	"PIOPORCAP\000"
 9963      4F524341 
 9963      5000
 9964              	.LASF590:
 9965 146f 5343425F 		.ascii	"SCB_CCR_STKALIGN_Msk (1UL << SCB_CCR_STKALIGN_Pos)\000"
 9965      4343525F 
 9965      53544B41 
 9965      4C49474E 
 9965      5F4D736B 
 9966              	.LASF181:
 9967 14a2 5F5F4445 		.ascii	"__DEC128_MIN_EXP__ (-6142)\000"
 9967      43313238 
 9967      5F4D494E 
 9967      5F455850 
 9967      5F5F2028 
 9968              	.LASF719:
 9969 14bd 494F434F 		.ascii	"IOCON_OPENDRAIN_EN (0x1 << 10)\000"
 9969      4E5F4F50 
 9969      454E4452 
 9969      41494E5F 
 9969      454E2028 
 9970              	.LASF55:
 9971 14dc 5F5F494E 		.ascii	"__INT_FAST8_TYPE__ int\000"
 9971      545F4641 
 9971      5354385F 
 9971      54595045 
 9971      5F5F2069 
 9972              	.LASF1083:
 9973 14f3 53595350 		.ascii	"SYSPLLCLKSEL\000"
 9973      4C4C434C 
 9973      4B53454C 
 9973      00
 9974              	.LASF299:
 9975 1500 5F5F5544 		.ascii	"__UDA_FBIT__ 32\000"
 9975      415F4642 
 9975      49545F5F 
 9975      20333200 
 9976              	.LASF1103:
 9977 1510 57445443 		.ascii	"WDTCLKUEN\000"
 9977      4C4B5545 
 9977      4E00
 9978              	.LASF812:
 9979 151a 55415254 		.ascii	"UART_MCR_RTS_CTRL (1 << 1)\000"
 9979      5F4D4352 
 9979      5F525453 
 9979      5F435452 
 9979      4C202831 
 9980              	.LASF82:
 9981 1535 5F5F5549 		.ascii	"__UINTMAX_C(c) c ## ULL\000"
 9981      4E544D41 
 9981      585F4328 
 9981      63292063 
 9981      20232320 
 9982              	.LASF29:
 9983 154d 5F5F5349 		.ascii	"__SIZEOF_POINTER__ 4\000"
 9983      5A454F46 
 9983      5F504F49 
ARM GAS  /var/folders/z0/6xlwn_996xz3mwq1cgzkbq4r0000gp/T//cckgJHwF.s 			page 211


 9983      4E544552 
 9983      5F5F2034 
 9984              	.LASF47:
 9985 1562 5F5F494E 		.ascii	"__INT_LEAST8_TYPE__ signed char\000"
 9985      545F4C45 
 9985      41535438 
 9985      5F545950 
 9985      455F5F20 
 9986              	.LASF307:
 9987 1582 5F5F4743 		.ascii	"__GCC_ATOMIC_BOOL_LOCK_FREE 1\000"
 9987      435F4154 
 9987      4F4D4943 
 9987      5F424F4F 
 9987      4C5F4C4F 
 9988              	.LASF318:
 9989 15a0 5F5F4743 		.ascii	"__GCC_HAVE_DWARF2_CFI_ASM 1\000"
 9989      435F4841 
 9989      56455F44 
 9989      57415246 
 9989      325F4346 
 9990              	.LASF706:
 9991 15bc 494F434F 		.ascii	"IOCON_FUNC7 0x7\000"
 9991      4E5F4655 
 9991      4E433720 
 9991      30783700 
 9992              	.LASF632:
 9993 15cc 4C50435F 		.ascii	"LPC_ACMP_BASE 0x40028000\000"
 9993      41434D50 
 9993      5F424153 
 9993      45203078 
 9993      34303032 
 9994              	.LASF442:
 9995 15e5 55494E54 		.ascii	"UINTPTR_MAX (__UINTPTR_MAX__)\000"
 9995      5054525F 
 9995      4D415820 
 9995      285F5F55 
 9995      494E5450 
 9996              	.LASF1204:
 9997 1603 43686970 		.ascii	"Chip_UART_TXIntHandlerRB\000"
 9997      5F554152 
 9997      545F5458 
 9997      496E7448 
 9997      616E646C 
 9998              	.LASF335:
 9999 161c 5F5F5448 		.ascii	"__THUMB_INTERWORK__ 1\000"
 9999      554D425F 
 9999      494E5445 
 9999      52574F52 
 9999      4B5F5F20 
 10000              	.LASF225:
 10001 1632 5F5F554C 		.ascii	"__ULLFRACT_MAX__ 0XFFFFFFFFFFFFFFFFP-64ULLR\000"
 10001      4C465241 
 10001      43545F4D 
 10001      41585F5F 
 10001      20305846 
 10002              	.LASF1007:
 10003 165e 4932435F 		.ascii	"I2C_NAK_RECV (0x10000000 | 0x01)\000"
ARM GAS  /var/folders/z0/6xlwn_996xz3mwq1cgzkbq4r0000gp/T//cckgJHwF.s 			page 212


 10003      4E414B5F 
 10003      52454356 
 10003      20283078 
 10003      31303030 
 10004              	.LASF728:
 10005 167f 4D445F44 		.ascii	"MD_DISFIL (0x0 << 8)\000"
 10005      49534649 
 10005      4C202830 
 10005      7830203C 
 10005      3C203829 
 10006              	.LASF824:
 10007 1694 55415254 		.ascii	"UART_LSR_RXFE (1 << 7)\000"
 10007      5F4C5352 
 10007      5F525846 
 10007      45202831 
 10007      203C3C20 
 10008              	.LASF951:
 10009 16ab 4932435F 		.ascii	"I2C_CON_I2EN (1UL << 6)\000"
 10009      434F4E5F 
 10009      4932454E 
 10009      20283155 
 10009      4C203C3C 
 10010              	.LASF652:
 10011 16c3 4C50435F 		.ascii	"LPC_TIMER32_0 ((LPC_TIMER_T *) LPC_TIMER32_0_BASE)\000"
 10011      54494D45 
 10011      5233325F 
 10011      30202828 
 10011      4C50435F 
 10012              	.LASF428:
 10013 16f6 5F55494E 		.ascii	"_UINT64_T_DECLARED \000"
 10013      5436345F 
 10013      545F4445 
 10013      434C4152 
 10013      45442000 
 10014              	.LASF1161:
 10015 170a 4649464F 		.ascii	"FIFOLVL\000"
 10015      4C564C00 
 10016              	.LASF37:
 10017 1712 5F5F4348 		.ascii	"__CHAR32_TYPE__ long unsigned int\000"
 10017      41523332 
 10017      5F545950 
 10017      455F5F20 
 10017      6C6F6E67 
 10018              	.LASF1036:
 10019 1734 53444F5F 		.ascii	"SDO_ABORT_UNKNOWNSUB 0x06090011UL\000"
 10019      41424F52 
 10019      545F554E 
 10019      4B4E4F57 
 10019      4E535542 
 10020              	.LASF507:
 10021 1756 50415241 		.ascii	"PARAM_SETSTATE(State) ((State == RESET) || (State ="
 10021      4D5F5345 
 10021      54535441 
 10021      54452853 
 10021      74617465 
 10022 1789 3D205345 		.ascii	"= SET))\000"
 10022      54292900 
ARM GAS  /var/folders/z0/6xlwn_996xz3mwq1cgzkbq4r0000gp/T//cckgJHwF.s 			page 213


 10023              	.LASF364:
 10024 1791 5F504F53 		.ascii	"_POSIX_C_SOURCE 200809L\000"
 10024      49585F43 
 10024      5F534F55 
 10024      52434520 
 10024      32303038 
 10025              	.LASF115:
 10026 17a9 5F5F5549 		.ascii	"__UINT_FAST32_MAX__ 0xffffffffU\000"
 10026      4E545F46 
 10026      41535433 
 10026      325F4D41 
 10026      585F5F20 
 10027              	.LASF128:
 10028 17c9 5F5F464C 		.ascii	"__FLT_MAX_EXP__ 128\000"
 10028      545F4D41 
 10028      585F4558 
 10028      505F5F20 
 10028      31323800 
 10029              	.LASF1157:
 10030 17dd 68656164 		.ascii	"head\000"
 10030      00
 10031              	.LASF553:
 10032 17e2 5343425F 		.ascii	"SCB_CPUID_REVISION_Pos 0\000"
 10032      43505549 
 10032      445F5245 
 10032      56495349 
 10032      4F4E5F50 
 10033              	.LASF1199:
 10034 17fb 43686970 		.ascii	"Chip_UART_SetBaud\000"
 10034      5F554152 
 10034      545F5365 
 10034      74426175 
 10034      6400
 10035              	.LASF823:
 10036 180d 55415254 		.ascii	"UART_LSR_TEMT (1 << 6)\000"
 10036      5F4C5352 
 10036      5F54454D 
 10036      54202831 
 10036      203C3C20 
 10037              	.LASF19:
 10038 1824 5F5F5349 		.ascii	"__SIZEOF_DOUBLE__ 8\000"
 10038      5A454F46 
 10038      5F444F55 
 10038      424C455F 
 10038      5F203800 
 10039              	.LASF813:
 10040 1838 55415254 		.ascii	"UART_MCR_LOOPB_EN (1 << 4)\000"
 10040      5F4D4352 
 10040      5F4C4F4F 
 10040      50425F45 
 10040      4E202831 
 10041              	.LASF981:
 10042 1853 4932435F 		.ascii	"I2C_I2STAT_S_TX_DAT_ACK ((0xB8))\000"
 10042      49325354 
 10042      41545F53 
 10042      5F54585F 
 10042      4441545F 
ARM GAS  /var/folders/z0/6xlwn_996xz3mwq1cgzkbq4r0000gp/T//cckgJHwF.s 			page 214


 10043              	.LASF541:
 10044 1874 5F5F434F 		.ascii	"__CORE_CM0_H_DEPENDANT \000"
 10044      52455F43 
 10044      4D305F48 
 10044      5F444550 
 10044      454E4441 
 10045              	.LASF726:
 10046 188c 4D445F41 		.ascii	"MD_ADMODE (0x0 << 7)\000"
 10046      444D4F44 
 10046      45202830 
 10046      7830203C 
 10046      3C203729 
 10047              	.LASF822:
 10048 18a1 55415254 		.ascii	"UART_LSR_THRE (1 << 5)\000"
 10048      5F4C5352 
 10048      5F544852 
 10048      45202831 
 10048      203C3C20 
 10049              	.LASF1040:
 10050 18b8 53444F5F 		.ascii	"SDO_ABORT_DEVSTAT 0x08000022UL\000"
 10050      41424F52 
 10050      545F4445 
 10050      56535441 
 10050      54203078 
 10051              	.LASF1016:
 10052 18d7 43414E5F 		.ascii	"CAN_ERROR_STUF 0x00000008UL\000"
 10052      4552524F 
 10052      525F5354 
 10052      55462030 
 10052      78303030 
 10053              	.LASF1176:
 10054 18f3 43686970 		.ascii	"Chip_Clock_SetUARTClockDiv\000"
 10054      5F436C6F 
 10054      636B5F53 
 10054      65745541 
 10054      5254436C 
 10055              	.LASF784:
 10056 190e 55415254 		.ascii	"UART_FCR_FIFO_EN (1 << 0)\000"
 10056      5F464352 
 10056      5F464946 
 10056      4F5F454E 
 10056      20283120 
 10057              	.LASF701:
 10058 1928 494F434F 		.ascii	"IOCON_FUNC2 0x2\000"
 10058      4E5F4655 
 10058      4E433220 
 10058      30783200 
 10059              	.LASF410:
 10060 1938 5F5F4641 		.ascii	"__FAST16 \000"
 10060      53543136 
 10060      2000
 10061              	.LASF937:
 10062 1942 4932435F 		.ascii	"I2C_I2CONSET_AA ((0x04))\000"
 10062      4932434F 
 10062      4E534554 
 10062      5F414120 
 10062      28283078 
ARM GAS  /var/folders/z0/6xlwn_996xz3mwq1cgzkbq4r0000gp/T//cckgJHwF.s 			page 215


 10063              	.LASF596:
 10064 195b 53797354 		.ascii	"SysTick_CTRL_COUNTFLAG_Msk (1UL << SysTick_CTRL_COU"
 10064      69636B5F 
 10064      4354524C 
 10064      5F434F55 
 10064      4E54464C 
 10065 198e 4E54464C 		.ascii	"NTFLAG_Pos)\000"
 10065      41475F50 
 10065      6F732900 
 10066              	.LASF371:
 10067 199a 5F5F4C41 		.ascii	"__LARGEFILE_VISIBLE 0\000"
 10067      52474546 
 10067      494C455F 
 10067      56495349 
 10067      424C4520 
 10068              	.LASF177:
 10069 19b0 5F5F4445 		.ascii	"__DEC64_MAX__ 9.999999999999999E384DD\000"
 10069      4336345F 
 10069      4D41585F 
 10069      5F20392E 
 10069      39393939 
 10070              	.LASF354:
 10071 19d6 5F5F4E45 		.ascii	"__NEWLIB__ 2\000"
 10071      574C4942 
 10071      5F5F2032 
 10071      00
 10072              	.LASF1130:
 10073 19e3 50445255 		.ascii	"PDRUNCFG\000"
 10073      4E434647 
 10073      00
 10074              	.LASF276:
 10075 19ec 5F5F5451 		.ascii	"__TQ_IBIT__ 0\000"
 10075      5F494249 
 10075      545F5F20 
 10075      3000
 10076              	.LASF957:
 10077 19fa 4932435F 		.ascii	"I2C_I2STAT_M_TX_RESTART ((0x10))\000"
 10077      49325354 
 10077      41545F4D 
 10077      5F54585F 
 10077      52455354 
 10078              	.LASF903:
 10079 1a1b 5353505F 		.ascii	"SSP_CPOL_HI SSP_CR0_CPOL_LO\000"
 10079      43504F4C 
 10079      5F484920 
 10079      5353505F 
 10079      4352305F 
 10080              	.LASF127:
 10081 1a37 5F5F464C 		.ascii	"__FLT_MIN_10_EXP__ (-37)\000"
 10081      545F4D49 
 10081      4E5F3130 
 10081      5F455850 
 10081      5F5F2028 
 10082              	.LASF370:
 10083 1a50 5F5F4953 		.ascii	"__ISO_C_VISIBLE 1999\000"
 10083      4F5F435F 
 10083      56495349 
ARM GAS  /var/folders/z0/6xlwn_996xz3mwq1cgzkbq4r0000gp/T//cckgJHwF.s 			page 216


 10083      424C4520 
 10083      31393939 
 10084              	.LASF771:
 10085 1a65 55415254 		.ascii	"UART1_IER_BITMASK (0x30F)\000"
 10085      315F4945 
 10085      525F4249 
 10085      544D4153 
 10085      4B202830 
 10086              	.LASF921:
 10087 1a7f 4144435F 		.ascii	"ADC_CR_START_MODE_SEL(SEL) ((SEL << 24))\000"
 10087      43525F53 
 10087      54415254 
 10087      5F4D4F44 
 10087      455F5345 
 10088              	.LASF130:
 10089 1aa8 5F5F464C 		.ascii	"__FLT_DECIMAL_DIG__ 9\000"
 10089      545F4445 
 10089      43494D41 
 10089      4C5F4449 
 10089      475F5F20 
 10090              	.LASF419:
 10091 1abe 5F55494E 		.ascii	"_UINT8_T_DECLARED \000"
 10091      54385F54 
 10091      5F444543 
 10091      4C415245 
 10091      442000
 10092              	.LASF1056:
 10093 1ad1 7369676E 		.ascii	"signed char\000"
 10093      65642063 
 10093      68617200 
 10094              	.LASF845:
 10095 1add 55415254 		.ascii	"UART_RS485CTRL_AADEN (1 << 2)\000"
 10095      5F525334 
 10095      38354354 
 10095      524C5F41 
 10095      4144454E 
 10096              	.LASF1189:
 10097 1afb 43686970 		.ascii	"Chip_UART_SetDivisorLatches\000"
 10097      5F554152 
 10097      545F5365 
 10097      74446976 
 10097      69736F72 
 10098              	.LASF1066:
 10099 1b17 75696E74 		.ascii	"uint8_t\000"
 10099      385F7400 
 10100              	.LASF690:
 10101 1b1f 53595343 		.ascii	"SYSCTL_POWERDOWN_FLASH_PD (1 << 2)\000"
 10101      544C5F50 
 10101      4F574552 
 10101      444F574E 
 10101      5F464C41 
 10102              	.LASF1085:
 10103 1b42 55534250 		.ascii	"USBPLLCLKSEL\000"
 10103      4C4C434C 
 10103      4B53454C 
 10103      00
 10104              	.LASF524:
ARM GAS  /var/folders/z0/6xlwn_996xz3mwq1cgzkbq4r0000gp/T//cckgJHwF.s 			page 217


 10105 1b4f 43484950 		.ascii	"CHIP_LPC11CXX \000"
 10105      5F4C5043 
 10105      31314358 
 10105      582000
 10106              	.LASF892:
 10107 1b5e 5353505F 		.ascii	"SSP_CR1_SSP_EN ((uint32_t) (1 << 1))\000"
 10107      4352315F 
 10107      5353505F 
 10107      454E2028 
 10107      2875696E 
 10108              	.LASF1211:
 10109 1b83 43686970 		.ascii	"Chip_UART_SetBaudFDR\000"
 10109      5F554152 
 10109      545F5365 
 10109      74426175 
 10109      64464452 
 10110              	.LASF962:
 10111 1b98 4932435F 		.ascii	"I2C_I2STAT_M_TX_ARB_LOST ((0x38))\000"
 10111      49325354 
 10111      41545F4D 
 10111      5F54585F 
 10111      4152425F 
 10112              	.LASF487:
 10113 1bba 57434841 		.ascii	"WCHAR_MIN (__WCHAR_MIN__)\000"
 10113      525F4D49 
 10113      4E20285F 
 10113      5F574348 
 10113      41525F4D 
 10114              	.LASF934:
 10115 1bd4 5245545F 		.ascii	"RET_SLAVE_IDLE 2\000"
 10115      534C4156 
 10115      455F4944 
 10115      4C452032 
 10115      00
 10116              	.LASF197:
 10117 1be5 5F5F4652 		.ascii	"__FRACT_FBIT__ 15\000"
 10117      4143545F 
 10117      46424954 
 10117      5F5F2031 
 10117      3500
 10118              	.LASF1107:
 10119 1bf7 434C4B4F 		.ascii	"CLKOUTUEN\000"
 10119      55545545 
 10119      4E00
 10120              	.LASF137:
 10121 1c01 5F5F464C 		.ascii	"__FLT_HAS_QUIET_NAN__ 1\000"
 10121      545F4841 
 10121      535F5155 
 10121      4945545F 
 10121      4E414E5F 
 10122              	.LASF512:
 10123 1c19 5F534246 		.ascii	"_SBF(f,v) ((v) << (f))\000"
 10123      28662C76 
 10123      29202828 
 10123      7629203C 
 10123      3C202866 
 10124              	.LASF4:
ARM GAS  /var/folders/z0/6xlwn_996xz3mwq1cgzkbq4r0000gp/T//cckgJHwF.s 			page 218


 10125 1c30 5F5F474E 		.ascii	"__GNUC_PATCHLEVEL__ 1\000"
 10125      55435F50 
 10125      41544348 
 10125      4C455645 
 10125      4C5F5F20 
 10126              	.LASF578:
 10127 1c46 5343425F 		.ascii	"SCB_AIRCR_ENDIANESS_Msk (1UL << SCB_AIRCR_ENDIANESS"
 10127      41495243 
 10127      525F454E 
 10127      4449414E 
 10127      4553535F 
 10128 1c79 5F506F73 		.ascii	"_Pos)\000"
 10128      2900
 10129              	.LASF103:
 10130 1c7f 5F5F5549 		.ascii	"__UINT_LEAST16_MAX__ 0xffff\000"
 10130      4E545F4C 
 10130      45415354 
 10130      31365F4D 
 10130      41585F5F 
 10131              	.LASF853:
 10132 1c9b 55415254 		.ascii	"UART_ICR_PULSEDIV(n) ((n & 0x07) << 3)\000"
 10132      5F494352 
 10132      5F50554C 
 10132      53454449 
 10132      56286E29 
 10133              	.LASF819:
 10134 1cc2 55415254 		.ascii	"UART_LSR_PE (1 << 2)\000"
 10134      5F4C5352 
 10134      5F504520 
 10134      2831203C 
 10134      3C203229 
 10135              	.LASF292:
 10136 1cd7 5F5F4441 		.ascii	"__DA_IBIT__ 32\000"
 10136      5F494249 
 10136      545F5F20 
 10136      333200
 10137              	.LASF904:
 10138 1ce6 5353505F 		.ascii	"SSP_CPOL_LO SSP_CR0_CPOL_HI\000"
 10138      43504F4C 
 10138      5F4C4F20 
 10138      5353505F 
 10138      4352305F 
 10139              	.LASF349:
 10140 1d02 5F535444 		.ascii	"_STDINT_H \000"
 10140      494E545F 
 10140      482000
 10141              	.LASF572:
 10142 1d0d 5343425F 		.ascii	"SCB_ICSR_VECTACTIVE_Msk (0x1FFUL << SCB_ICSR_VECTAC"
 10142      49435352 
 10142      5F564543 
 10142      54414354 
 10142      4956455F 
 10143 1d40 54495645 		.ascii	"TIVE_Pos)\000"
 10143      5F506F73 
 10143      2900
 10144              	.LASF502:
 10145 1d4a 5F535444 		.ascii	"_STDBOOL_H \000"
ARM GAS  /var/folders/z0/6xlwn_996xz3mwq1cgzkbq4r0000gp/T//cckgJHwF.s 			page 219


 10145      424F4F4C 
 10145      5F482000 
 10146              	.LASF809:
 10147 1d56 55415254 		.ascii	"UART_LCR_DLAB_EN (1 << 7)\000"
 10147      5F4C4352 
 10147      5F444C41 
 10147      425F454E 
 10147      20283120 
 10148              	.LASF539:
 10149 1d70 5F5F434F 		.ascii	"__CORE_CMINSTR_H \000"
 10149      52455F43 
 10149      4D494E53 
 10149      54525F48 
 10149      2000
 10150              	.LASF470:
 10151 1d82 494E545F 		.ascii	"INT_FAST16_MIN (-__INT_FAST16_MAX__ - 1)\000"
 10151      46415354 
 10151      31365F4D 
 10151      494E2028 
 10151      2D5F5F49 
 10152              	.LASF15:
 10153 1dab 5F5F5349 		.ascii	"__SIZEOF_LONG__ 4\000"
 10153      5A454F46 
 10153      5F4C4F4E 
 10153      475F5F20 
 10153      3400
 10154              	.LASF653:
 10155 1dbd 4C50435F 		.ascii	"LPC_TIMER32_1 ((LPC_TIMER_T *) LPC_TIMER32_1_BASE)\000"
 10155      54494D45 
 10155      5233325F 
 10155      31202828 
 10155      4C50435F 
 10156              	.LASF850:
 10157 1df0 55415254 		.ascii	"UART_ICR_IRDAEN (1 << 0)\000"
 10157      5F494352 
 10157      5F495244 
 10157      41454E20 
 10157      2831203C 
 10158              	.LASF1163:
 10159 1e09 52455345 		.ascii	"RESERVED0\000"
 10159      52564544 
 10159      3000
 10160              	.LASF1076:
 10161 1e13 52455345 		.ascii	"RESERVED1\000"
 10161      52564544 
 10161      3100
 10162              	.LASF1057:
 10163 1e1d 756E7369 		.ascii	"unsigned char\000"
 10163      676E6564 
 10163      20636861 
 10163      7200
 10164              	.LASF1087:
 10165 1e2b 52455345 		.ascii	"RESERVED3\000"
 10165      52564544 
 10165      3300
 10166              	.LASF1091:
 10167 1e35 52455345 		.ascii	"RESERVED4\000"
ARM GAS  /var/folders/z0/6xlwn_996xz3mwq1cgzkbq4r0000gp/T//cckgJHwF.s 			page 220


 10167      52564544 
 10167      3400
 10168              	.LASF1093:
 10169 1e3f 52455345 		.ascii	"RESERVED5\000"
 10169      52564544 
 10169      3500
 10170              	.LASF1097:
 10171 1e49 52455345 		.ascii	"RESERVED6\000"
 10171      52564544 
 10171      3600
 10172              	.LASF1101:
 10173 1e53 52455345 		.ascii	"RESERVED7\000"
 10173      52564544 
 10173      3700
 10174              	.LASF1105:
 10175 1e5d 52455345 		.ascii	"RESERVED8\000"
 10175      52564544 
 10175      3800
 10176              	.LASF1109:
 10177 1e67 52455345 		.ascii	"RESERVED9\000"
 10177      52564544 
 10177      3900
 10178              	.LASF182:
 10179 1e71 5F5F4445 		.ascii	"__DEC128_MAX_EXP__ 6145\000"
 10179      43313238 
 10179      5F4D4158 
 10179      5F455850 
 10179      5F5F2036 
 10180              	.LASF119:
 10181 1e89 5F5F4743 		.ascii	"__GCC_IEC_559 0\000"
 10181      435F4945 
 10181      435F3535 
 10181      39203000 
 10182              	.LASF1088:
 10183 1e99 4D41494E 		.ascii	"MAINCLKSEL\000"
 10183      434C4B53 
 10183      454C00
 10184              	.LASF1037:
 10185 1ea4 53444F5F 		.ascii	"SDO_ABORT_VALUE_RANGE 0x06090030UL\000"
 10185      41424F52 
 10185      545F5641 
 10185      4C55455F 
 10185      52414E47 
 10186              	.LASF111:
 10187 1ec7 5F5F494E 		.ascii	"__INT_FAST32_MAX__ 0x7fffffff\000"
 10187      545F4641 
 10187      53543332 
 10187      5F4D4158 
 10187      5F5F2030 
 10188              	.LASF7:
 10189 1ee5 5F5F4154 		.ascii	"__ATOMIC_SEQ_CST 5\000"
 10189      4F4D4943 
 10189      5F534551 
 10189      5F435354 
 10189      203500
 10190              	.LASF588:
 10191 1ef8 5343425F 		.ascii	"SCB_SCR_SLEEPONEXIT_Msk (1UL << SCB_SCR_SLEEPONEXIT"
ARM GAS  /var/folders/z0/6xlwn_996xz3mwq1cgzkbq4r0000gp/T//cckgJHwF.s 			page 221


 10191      5343525F 
 10191      534C4545 
 10191      504F4E45 
 10191      5849545F 
 10192 1f2b 5F506F73 		.ascii	"_Pos)\000"
 10192      2900
 10193              	.LASF724:
 10194 1f31 4D445F48 		.ascii	"MD_HYS (0x1 << 5)\000"
 10194      59532028 
 10194      30783120 
 10194      3C3C2035 
 10194      2900
 10195              	.LASF898:
 10196 1f43 5353505F 		.ascii	"SSP_DR_BITMASK(n) ((n) & 0xFFFF)\000"
 10196      44525F42 
 10196      49544D41 
 10196      534B286E 
 10196      29202828 
 10197              	.LASF902:
 10198 1f64 5353505F 		.ascii	"SSP_CPHA_SECOND SSP_CR0_CPHA_SECOND\000"
 10198      43504841 
 10198      5F534543 
 10198      4F4E4420 
 10198      5353505F 
 10199              	.LASF807:
 10200 1f88 55415254 		.ascii	"UART_LCR_PARITY_F_0 (3 << 4)\000"
 10200      5F4C4352 
 10200      5F504152 
 10200      4954595F 
 10200      465F3020 
 10201              	.LASF874:
 10202 1fa5 57574454 		.ascii	"WWDT_WDMOD_BITMASK ((uint32_t) 0x1F)\000"
 10202      5F57444D 
 10202      4F445F42 
 10202      49544D41 
 10202      534B2028 
 10203              	.LASF654:
 10204 1fca 4C50435F 		.ascii	"LPC_ADC ((LPC_ADC_T *) LPC_ADC_BASE)\000"
 10204      41444320 
 10204      28284C50 
 10204      435F4144 
 10204      435F5420 
 10205              	.LASF608:
 10206 1fef 53797354 		.ascii	"SysTick_CALIB_NOREF_Msk (1UL << SysTick_CALIB_NOREF"
 10206      69636B5F 
 10206      43414C49 
 10206      425F4E4F 
 10206      5245465F 
 10207 2022 5F506F73 		.ascii	"_Pos)\000"
 10207      2900
 10208              	.LASF468:
 10209 2028 494E545F 		.ascii	"INT_FAST8_MAX (__INT_FAST8_MAX__)\000"
 10209      46415354 
 10209      385F4D41 
 10209      5820285F 
 10209      5F494E54 
 10210              	.LASF1010:
ARM GAS  /var/folders/z0/6xlwn_996xz3mwq1cgzkbq4r0000gp/T//cckgJHwF.s 			page 222


 10211 204a 4932435F 		.ascii	"I2C_MONITOR_CFG_MATCHALL I2C_I2MMCTRL_MATCH_ALL\000"
 10211      4D4F4E49 
 10211      544F525F 
 10211      4346475F 
 10211      4D415443 
 10212              	.LASF90:
 10213 207a 5F5F5549 		.ascii	"__UINT16_MAX__ 0xffff\000"
 10213      4E543136 
 10213      5F4D4158 
 10213      5F5F2030 
 10213      78666666 
 10214              	.LASF950:
 10215 2090 4932435F 		.ascii	"I2C_CON_STA (1UL << 5)\000"
 10215      434F4E5F 
 10215      53544120 
 10215      2831554C 
 10215      203C3C20 
 10216              	.LASF275:
 10217 20a7 5F5F5451 		.ascii	"__TQ_FBIT__ 127\000"
 10217      5F464249 
 10217      545F5F20 
 10217      31323700 
 10218              	.LASF922:
 10219 20b7 4144435F 		.ascii	"ADC_CR_START_NOW ((1UL << 24))\000"
 10219      43525F53 
 10219      54415254 
 10219      5F4E4F57 
 10219      20282831 
 10220              	.LASF198:
 10221 20d6 5F5F4652 		.ascii	"__FRACT_IBIT__ 0\000"
 10221      4143545F 
 10221      49424954 
 10221      5F5F2030 
 10221      00
 10222              	.LASF1026:
 10223 20e7 53444F5F 		.ascii	"SDO_ABORT_TOGGLE 0x05030000UL\000"
 10223      41424F52 
 10223      545F544F 
 10223      47474C45 
 10223      20307830 
 10224              	.LASF646:
 10225 2105 4C50435F 		.ascii	"LPC_ROM_API_BASE_LOC 0x1FFF1FF8\000"
 10225      524F4D5F 
 10225      4150495F 
 10225      42415345 
 10225      5F4C4F43 
 10226              	.LASF341:
 10227 2125 5F5F5553 		.ascii	"__USES_INITFINI__ 1\000"
 10227      45535F49 
 10227      4E495446 
 10227      494E495F 
 10227      5F203100 
 10228              	.LASF549:
 10229 2139 5343425F 		.ascii	"SCB_CPUID_ARCHITECTURE_Pos 16\000"
 10229      43505549 
 10229      445F4152 
 10229      43484954 
ARM GAS  /var/folders/z0/6xlwn_996xz3mwq1cgzkbq4r0000gp/T//cckgJHwF.s 			page 223


 10229      45435455 
 10230              	.LASF887:
 10231 2157 5353505F 		.ascii	"SSP_CR0_CPHA_FIRST ((uint32_t) (0))\000"
 10231      4352305F 
 10231      43504841 
 10231      5F464952 
 10231      53542028 
 10232              	.LASF17:
 10233 217b 5F5F5349 		.ascii	"__SIZEOF_SHORT__ 2\000"
 10233      5A454F46 
 10233      5F53484F 
 10233      52545F5F 
 10233      203200
 10234              	.LASF262:
 10235 218e 5F5F554C 		.ascii	"__ULLACCUM_FBIT__ 32\000"
 10235      4C414343 
 10235      554D5F46 
 10235      4249545F 
 10235      5F203332 
 10236              	.LASF1068:
 10237 21a3 5F426F6F 		.ascii	"_Bool\000"
 10237      6C00
 10238              	.LASF788:
 10239 21a9 55415254 		.ascii	"UART_FCR_BITMASK (0xCF)\000"
 10239      5F464352 
 10239      5F424954 
 10239      4D41534B 
 10239      20283078 
 10240              	.LASF1206:
 10241 21c1 62797465 		.ascii	"bytes\000"
 10241      7300
 10242              	.LASF663:
 10243 21c7 4C50435F 		.ascii	"LPC_GPIO ((LPC_GPIO_T *) LPC_GPIO_PORT0_BASE)\000"
 10243      4750494F 
 10243      2028284C 
 10243      50435F47 
 10243      50494F5F 
 10244              	.LASF348:
 10245 21f5 5F5F4C50 		.ascii	"__LPC_TYPES_H_ \000"
 10245      435F5459 
 10245      5045535F 
 10245      485F2000 
 10246              	.LASF351:
 10247 2205 5F535953 		.ascii	"_SYS_FEATURES_H \000"
 10247      5F464541 
 10247      54555245 
 10247      535F4820 
 10247      00
 10248              	.LASF1043:
 10249 2216 4F445F45 		.ascii	"OD_EXP_WO 0x20\000"
 10249      58505F57 
 10249      4F203078 
 10249      323000
 10250              	.LASF517:
 10251 2225 53544154 		.ascii	"STATIC static\000"
 10251      49432073 
 10251      74617469 
ARM GAS  /var/folders/z0/6xlwn_996xz3mwq1cgzkbq4r0000gp/T//cckgJHwF.s 			page 224


 10251      6300
 10252              	.LASF1082:
 10253 2233 52455345 		.ascii	"RESERVED2\000"
 10253      52564544 
 10253      3200
 10254              	.LASF712:
 10255 223d 494F434F 		.ascii	"IOCON_INV_EN (0x1 << 6)\000"
 10255      4E5F494E 
 10255      565F454E 
 10255      20283078 
 10255      31203C3C 
 10256              	.LASF1175:
 10257 2255 43686970 		.ascii	"Chip_UART_SetupFIFOS\000"
 10257      5F554152 
 10257      545F5365 
 10257      74757046 
 10257      49464F53 
 10258              	.LASF821:
 10259 226a 55415254 		.ascii	"UART_LSR_BI (1 << 4)\000"
 10259      5F4C5352 
 10259      5F424920 
 10259      2831203C 
 10259      3C203429 
 10260              	.LASF799:
 10261 227f 55415254 		.ascii	"UART_LCR_SBS_MASK (1 << 2)\000"
 10261      5F4C4352 
 10261      5F534253 
 10261      5F4D4153 
 10261      4B202831 
 10262              	.LASF319:
 10263 229a 5F5F5052 		.ascii	"__PRAGMA_REDEFINE_EXTNAME 1\000"
 10263      41474D41 
 10263      5F524544 
 10263      4546494E 
 10263      455F4558 
 10264              	.LASF32:
 10265 22b6 5F5F5743 		.ascii	"__WCHAR_TYPE__ unsigned int\000"
 10265      4841525F 
 10265      54595045 
 10265      5F5F2075 
 10265      6E736967 
 10266              	.LASF662:
 10267 22d2 4C50435F 		.ascii	"LPC_USB ((LPC_USB_T *) LPC_USB0_BASE)\000"
 10267      55534220 
 10267      28284C50 
 10267      435F5553 
 10267      425F5420 
 10268              	.LASF392:
 10269 22f8 63686172 		.ascii	"char\000"
 10269      00
 10270              	.LASF298:
 10271 22fd 5F5F5553 		.ascii	"__USA_IBIT__ 16\000"
 10271      415F4942 
 10271      49545F5F 
 10271      20313600 
 10272              	.LASF499:
 10273 230d 494E544D 		.ascii	"INTMAX_C(x) __INTMAX_C(x)\000"
ARM GAS  /var/folders/z0/6xlwn_996xz3mwq1cgzkbq4r0000gp/T//cckgJHwF.s 			page 225


 10273      41585F43 
 10273      28782920 
 10273      5F5F494E 
 10273      544D4158 
 10274              	.LASF486:
 10275 2327 50545244 		.ascii	"PTRDIFF_MIN (-PTRDIFF_MAX - 1)\000"
 10275      4946465F 
 10275      4D494E20 
 10275      282D5054 
 10275      52444946 
 10276              	.LASF731:
 10277 2346 4D445F53 		.ascii	"MD_STDI2C (0x1 << 8)\000"
 10277      54444932 
 10277      43202830 
 10277      7831203C 
 10277      3C203829 
 10278              	.LASF1095:
 10279 235b 55534152 		.ascii	"USARTCLKDIV\000"
 10279      54434C4B 
 10279      44495600 
 10280              	.LASF1035:
 10281 2367 53444F5F 		.ascii	"SDO_ABORT_TYPEMISMATCH 0x06070010UL\000"
 10281      41424F52 
 10281      545F5459 
 10281      50454D49 
 10281      534D4154 
 10282              	.LASF62:
 10283 238b 5F5F5549 		.ascii	"__UINT_FAST64_TYPE__ long long unsigned int\000"
 10283      4E545F46 
 10283      41535436 
 10283      345F5459 
 10283      50455F5F 
 10284              	.LASF1145:
 10285 23b7 53595343 		.ascii	"SYSCTL_CLOCK_SSP0\000"
 10285      544C5F43 
 10285      4C4F434B 
 10285      5F535350 
 10285      3000
 10286              	.LASF1152:
 10287 23c9 53595343 		.ascii	"SYSCTL_CLOCK_SSP1\000"
 10287      544C5F43 
 10287      4C4F434B 
 10287      5F535350 
 10287      3100
 10288              	.LASF67:
 10289 23db 5F5F4758 		.ascii	"__GXX_ABI_VERSION 1009\000"
 10289      585F4142 
 10289      495F5645 
 10289      5253494F 
 10289      4E203130 
 10290              	.LASF893:
 10291 23f2 5353505F 		.ascii	"SSP_CR1_SLAVE_EN ((uint32_t) (1 << 2))\000"
 10291      4352315F 
 10291      534C4156 
 10291      455F454E 
 10291      20282875 
 10292              	.LASF132:
ARM GAS  /var/folders/z0/6xlwn_996xz3mwq1cgzkbq4r0000gp/T//cckgJHwF.s 			page 226


 10293 2419 5F5F464C 		.ascii	"__FLT_MIN__ 1.1754943508222875e-38F\000"
 10293      545F4D49 
 10293      4E5F5F20 
 10293      312E3137 
 10293      35343934 
 10294              	.LASF287:
 10295 243d 5F5F4841 		.ascii	"__HA_FBIT__ 7\000"
 10295      5F464249 
 10295      545F5F20 
 10295      3700
 10296              	.LASF659:
 10297 244b 4C50435F 		.ascii	"LPC_SYSCTL ((LPC_SYSCTL_T *) LPC_SYSCTL_BASE)\000"
 10297      53595343 
 10297      544C2028 
 10297      284C5043 
 10297      5F535953 
 10298              	.LASF315:
 10299 2479 5F5F4743 		.ascii	"__GCC_ATOMIC_LLONG_LOCK_FREE 1\000"
 10299      435F4154 
 10299      4F4D4943 
 10299      5F4C4C4F 
 10299      4E475F4C 
 10300              	.LASF484:
 10301 2498 5349475F 		.ascii	"SIG_ATOMIC_MAX (__STDINT_EXP(INT_MAX))\000"
 10301      41544F4D 
 10301      49435F4D 
 10301      41582028 
 10301      5F5F5354 
 10302              	.LASF754:
 10303 24bf 5F5F5541 		.ascii	"__UART_11XX_H_ \000"
 10303      52545F31 
 10303      3158585F 
 10303      485F2000 
 10304              	.LASF1041:
 10305 24cf 4F445F4E 		.ascii	"OD_NONE 0x00\000"
 10305      4F4E4520 
 10305      30783030 
 10305      00
 10306              	.LASF475:
 10307 24dc 55494E54 		.ascii	"UINT_FAST32_MAX (__UINT_FAST32_MAX__)\000"
 10307      5F464153 
 10307      5433325F 
 10307      4D415820 
 10307      285F5F55 
 10308              	.LASF630:
 10309 2502 4C50435F 		.ascii	"LPC_ADC_BASE 0x4001C000\000"
 10309      4144435F 
 10309      42415345 
 10309      20307834 
 10309      30303143 
 10310              	.LASF958:
 10311 251a 4932435F 		.ascii	"I2C_I2STAT_M_TX_SLAW_ACK ((0x18))\000"
 10311      49325354 
 10311      41545F4D 
 10311      5F54585F 
 10311      534C4157 
 10312              	.LASF1218:
ARM GAS  /var/folders/z0/6xlwn_996xz3mwq1cgzkbq4r0000gp/T//cckgJHwF.s 			page 227


 10313 253c 52696E67 		.ascii	"RingBuffer_Insert\000"
 10313      42756666 
 10313      65725F49 
 10313      6E736572 
 10313      7400
 10314              	.LASF193:
 10315 254e 5F5F5553 		.ascii	"__USFRACT_IBIT__ 0\000"
 10315      46524143 
 10315      545F4942 
 10315      49545F5F 
 10315      203000
 10316              	.LASF974:
 10317 2561 4932435F 		.ascii	"I2C_I2STAT_S_RX_PRE_SLA_DAT_ACK ((0x80))\000"
 10317      49325354 
 10317      41545F53 
 10317      5F52585F 
 10317      5052455F 
 10318              	.LASF567:
 10319 258a 5343425F 		.ascii	"SCB_ICSR_ISRPENDING_Pos 22\000"
 10319      49435352 
 10319      5F495352 
 10319      50454E44 
 10319      494E475F 
 10320              	.LASF946:
 10321 25a5 4932435F 		.ascii	"I2C_I2CONCLR_I2ENC ((1 << 6))\000"
 10321      4932434F 
 10321      4E434C52 
 10321      5F493245 
 10321      4E432028 
 10322              	.LASF342:
 10323 25c3 55415254 		.ascii	"UART_BAUD 57600\000"
 10323      5F424155 
 10323      44203537 
 10323      36303000 
 10324              	.LASF194:
 10325 25d3 5F5F5553 		.ascii	"__USFRACT_MIN__ 0.0UHR\000"
 10325      46524143 
 10325      545F4D49 
 10325      4E5F5F20 
 10325      302E3055 
 10326              	.LASF365:
 10327 25ea 5F415446 		.ascii	"_ATFILE_SOURCE\000"
 10327      494C455F 
 10327      534F5552 
 10327      434500
 10328              	.LASF841:
 10329 25f9 55415254 		.ascii	"UART_ACR_ABTOINT_CLR (1 << 9)\000"
 10329      5F414352 
 10329      5F414254 
 10329      4F494E54 
 10329      5F434C52 
 10330              	.LASF89:
 10331 2617 5F5F5549 		.ascii	"__UINT8_MAX__ 0xff\000"
 10331      4E54385F 
 10331      4D41585F 
 10331      5F203078 
 10331      666600
ARM GAS  /var/folders/z0/6xlwn_996xz3mwq1cgzkbq4r0000gp/T//cckgJHwF.s 			page 228


 10332              	.LASF378:
 10333 262a 5F5F5F69 		.ascii	"___int16_t_defined 1\000"
 10333      6E743136 
 10333      5F745F64 
 10333      6566696E 
 10333      65642031 
 10334              	.LASF156:
 10335 263f 5F5F4C44 		.ascii	"__LDBL_MAX_EXP__ 1024\000"
 10335      424C5F4D 
 10335      41585F45 
 10335      58505F5F 
 10335      20313032 
 10336              	.LASF705:
 10337 2655 494F434F 		.ascii	"IOCON_FUNC6 0x6\000"
 10337      4E5F4655 
 10337      4E433620 
 10337      30783600 
 10338              	.LASF1192:
 10339 2665 696E744D 		.ascii	"intMask\000"
 10339      61736B00 
 10340              	.LASF585:
 10341 266d 5343425F 		.ascii	"SCB_SCR_SLEEPDEEP_Pos 2\000"
 10341      5343525F 
 10341      534C4545 
 10341      50444545 
 10341      505F506F 
 10342              	.LASF777:
 10343 2685 55415254 		.ascii	"UART_IIR_BITMASK (0x3CF)\000"
 10343      5F494952 
 10343      5F424954 
 10343      4D41534B 
 10343      20283078 
 10344              	.LASF420:
 10345 269e 5F5F696E 		.ascii	"__int8_t_defined 1\000"
 10345      74385F74 
 10345      5F646566 
 10345      696E6564 
 10345      203100
 10346              	.LASF1023:
 10347 26b1 43414E5F 		.ascii	"CAN_MSGOBJ_EXT 0x20000000UL\000"
 10347      4D53474F 
 10347      424A5F45 
 10347      58542030 
 10347      78323030 
 10348              	.LASF149:
 10349 26cd 5F5F4442 		.ascii	"__DBL_HAS_DENORM__ 1\000"
 10349      4C5F4841 
 10349      535F4445 
 10349      4E4F524D 
 10349      5F5F2031 
 10350              	.LASF1054:
 10351 26e2 4C50435F 		.ascii	"LPC_CCAN_API ((CCAN_API_T *) (LPC_ROM_API->candApiB"
 10351      4343414E 
 10351      5F415049 
 10351      20282843 
 10351      43414E5F 
 10352 2715 61736529 		.ascii	"ase))\000"
ARM GAS  /var/folders/z0/6xlwn_996xz3mwq1cgzkbq4r0000gp/T//cckgJHwF.s 			page 229


 10352      2900
 10353              	.LASF884:
 10354 271b 5353505F 		.ascii	"SSP_CR0_FRF_MICROWIRE ((uint32_t) (2 << 4))\000"
 10354      4352305F 
 10354      4652465F 
 10354      4D494352 
 10354      4F574952 
 10355              	.LASF678:
 10356 2747 53595343 		.ascii	"SYSCTL_DEEPSLP_BOD_PD (1 << 3)\000"
 10356      544C5F44 
 10356      45455053 
 10356      4C505F42 
 10356      4F445F50 
 10357              	.LASF601:
 10358 2766 53797354 		.ascii	"SysTick_CTRL_ENABLE_Pos 0\000"
 10358      69636B5F 
 10358      4354524C 
 10358      5F454E41 
 10358      424C455F 
 10359              	.LASF479:
 10360 2780 494E544D 		.ascii	"INTMAX_MAX (__INTMAX_MAX__)\000"
 10360      41585F4D 
 10360      41582028 
 10360      5F5F494E 
 10360      544D4158 
 10361              	.LASF456:
 10362 279c 494E5433 		.ascii	"INT32_MAX (__INT32_MAX__)\000"
 10362      325F4D41 
 10362      5820285F 
 10362      5F494E54 
 10362      33325F4D 
 10363              	.LASF794:
 10364 27b6 55415254 		.ascii	"UART_LCR_WLEN_MASK (3 << 0)\000"
 10364      5F4C4352 
 10364      5F574C45 
 10364      4E5F4D41 
 10364      534B2028 
 10365              	.LASF694:
 10366 27d2 53595343 		.ascii	"SYSCTL_POWERDOWN_WDTOSC_PD (1 << 6)\000"
 10366      544C5F50 
 10366      4F574552 
 10366      444F574E 
 10366      5F574454 
 10367              	.LASF291:
 10368 27f6 5F5F4441 		.ascii	"__DA_FBIT__ 31\000"
 10368      5F464249 
 10368      545F5F20 
 10368      333100
 10369              	.LASF1005:
 10370 2805 4932435F 		.ascii	"I2C_RECV_END 0x10\000"
 10370      52454356 
 10370      5F454E44 
 10370      20307831 
 10370      3000
 10371              	.LASF95:
 10372 2817 5F5F494E 		.ascii	"__INT_LEAST16_MAX__ 0x7fff\000"
 10372      545F4C45 
ARM GAS  /var/folders/z0/6xlwn_996xz3mwq1cgzkbq4r0000gp/T//cckgJHwF.s 			page 230


 10372      41535431 
 10372      365F4D41 
 10372      585F5F20 
 10373              	.LASF382:
 10374 2832 5F5F5F69 		.ascii	"___int_least16_t_defined 1\000"
 10374      6E745F6C 
 10374      65617374 
 10374      31365F74 
 10374      5F646566 
 10375              	.LASF560:
 10376 284d 5343425F 		.ascii	"SCB_ICSR_PENDSVCLR_Msk (1UL << SCB_ICSR_PENDSVCLR_P"
 10376      49435352 
 10376      5F50454E 
 10376      44535643 
 10376      4C525F4D 
 10377 2880 6F732900 		.ascii	"os)\000"
 10378              	.LASF134:
 10379 2884 5F5F464C 		.ascii	"__FLT_DENORM_MIN__ 1.4012984643248171e-45F\000"
 10379      545F4445 
 10379      4E4F524D 
 10379      5F4D494E 
 10379      5F5F2031 
 10380              	.LASF413:
 10381 28af 5F5F4C45 		.ascii	"__LEAST8 \"hh\"\000"
 10381      41535438 
 10381      20226868 
 10381      2200
 10382              	.LASF911:
 10383 28bd 4144435F 		.ascii	"ADC_MAX_SAMPLE_RATE 400000\000"
 10383      4D41585F 
 10383      53414D50 
 10383      4C455F52 
 10383      41544520 
 10384              	.LASF266:
 10385 28d8 5F5F554C 		.ascii	"__ULLACCUM_EPSILON__ 0x1P-32ULLK\000"
 10385      4C414343 
 10385      554D5F45 
 10385      5053494C 
 10385      4F4E5F5F 
 10386              	.LASF849:
 10387 28f9 55415254 		.ascii	"UART_RS485CTRL_BITMASK (0x3F)\000"
 10387      5F525334 
 10387      38354354 
 10387      524C5F42 
 10387      49544D41 
 10388              	.LASF905:
 10389 2917 5353505F 		.ascii	"SSP_SLAVE_MODE SSP_CR1_SLAVE_EN\000"
 10389      534C4156 
 10389      455F4D4F 
 10389      44452053 
 10389      53505F43 
 10390              	.LASF66:
 10391 2937 5F5F6861 		.ascii	"__has_include_next(STR) __has_include_next__(STR)\000"
 10391      735F696E 
 10391      636C7564 
 10391      655F6E65 
 10391      78742853 
ARM GAS  /var/folders/z0/6xlwn_996xz3mwq1cgzkbq4r0000gp/T//cckgJHwF.s 			page 231


 10392              	.LASF883:
 10393 2969 5353505F 		.ascii	"SSP_CR0_FRF_TI ((uint32_t) (1 << 4))\000"
 10393      4352305F 
 10393      4652465F 
 10393      54492028 
 10393      2875696E 
 10394              	.LASF454:
 10395 298e 55494E54 		.ascii	"UINT_LEAST16_MAX (__UINT_LEAST16_MAX__)\000"
 10395      5F4C4541 
 10395      53543136 
 10395      5F4D4158 
 10395      20285F5F 
 10396              	.LASF106:
 10397 29b6 5F5F5549 		.ascii	"__UINT32_C(c) c ## UL\000"
 10397      4E543332 
 10397      5F432863 
 10397      29206320 
 10397      23232055 
 10398              	.LASF551:
 10399 29cc 5343425F 		.ascii	"SCB_CPUID_PARTNO_Pos 4\000"
 10399      43505549 
 10399      445F5041 
 10399      52544E4F 
 10399      5F506F73 
 10400              	.LASF556:
 10401 29e3 5343425F 		.ascii	"SCB_ICSR_NMIPENDSET_Msk (1UL << SCB_ICSR_NMIPENDSET"
 10401      49435352 
 10401      5F4E4D49 
 10401      50454E44 
 10401      5345545F 
 10402 2a16 5F506F73 		.ascii	"_Pos)\000"
 10402      2900
 10403              	.LASF797:
 10404 2a1c 55415254 		.ascii	"UART_LCR_WLEN7 (2 << 0)\000"
 10404      5F4C4352 
 10404      5F574C45 
 10404      4E372028 
 10404      32203C3C 
 10405              	.LASF511:
 10406 2a34 5F534246 		.ascii	"_SBF\000"
 10406      00
 10407              	.LASF244:
 10408 2a39 5F5F5541 		.ascii	"__UACCUM_MIN__ 0.0UK\000"
 10408      4343554D 
 10408      5F4D494E 
 10408      5F5F2030 
 10408      2E30554B 
 10409              	.LASF345:
 10410 2a4e 46534145 		.ascii	"FSAE_DRIVERS 1\000"
 10410      5F445249 
 10410      56455253 
 10410      203100
 10411              	.LASF768:
 10412 2a5d 55415254 		.ascii	"UART_IER_ABEOINT (1 << 8)\000"
 10412      5F494552 
 10412      5F414245 
 10412      4F494E54 
ARM GAS  /var/folders/z0/6xlwn_996xz3mwq1cgzkbq4r0000gp/T//cckgJHwF.s 			page 232


 10412      20283120 
 10413              	.LASF133:
 10414 2a77 5F5F464C 		.ascii	"__FLT_EPSILON__ 1.1920928955078125e-7F\000"
 10414      545F4550 
 10414      53494C4F 
 10414      4E5F5F20 
 10414      312E3139 
 10415              	.LASF1008:
 10416 2a9e 4932435F 		.ascii	"I2C_CheckError(ErrorCode) (ErrorCode & 0x10000000)\000"
 10416      43686563 
 10416      6B457272 
 10416      6F722845 
 10416      72726F72 
 10417              	.LASF647:
 10418 2ad1 4C50435F 		.ascii	"LPC_I2C ((LPC_I2C_T *) LPC_I2C_BASE)\000"
 10418      49324320 
 10418      28284C50 
 10418      435F4932 
 10418      435F5420 
 10419              	.LASF861:
 10420 2af6 55415254 		.ascii	"UART_FDR_DIVADDVAL(n) (n & 0x0F)\000"
 10420      5F464452 
 10420      5F444956 
 10420      41444456 
 10420      414C286E 
 10421              	.LASF792:
 10422 2b17 55415254 		.ascii	"UART_FCR_TRG_LEV2 (2 << 6)\000"
 10422      5F464352 
 10422      5F545247 
 10422      5F4C4556 
 10422      32202832 
 10423              	.LASF1033:
 10424 2b32 53444F5F 		.ascii	"SDO_ABORT_PARAINCOMP 0x06040043UL\000"
 10424      41424F52 
 10424      545F5041 
 10424      5241494E 
 10424      434F4D50 
 10425              	.LASF815:
 10426 2b54 55415254 		.ascii	"UART_MCR_AUTO_CTS_EN (1 << 7)\000"
 10426      5F4D4352 
 10426      5F415554 
 10426      4F5F4354 
 10426      535F454E 
 10427              	.LASF595:
 10428 2b72 53797354 		.ascii	"SysTick_CTRL_COUNTFLAG_Pos 16\000"
 10428      69636B5F 
 10428      4354524C 
 10428      5F434F55 
 10428      4E54464C 
 10429              	.LASF433:
 10430 2b90 5F5F696E 		.ascii	"__int_least16_t_defined 1\000"
 10430      745F6C65 
 10430      61737431 
 10430      365F745F 
 10430      64656669 
 10431              	.LASF246:
 10432 2baa 5F5F5541 		.ascii	"__UACCUM_EPSILON__ 0x1P-16UK\000"
ARM GAS  /var/folders/z0/6xlwn_996xz3mwq1cgzkbq4r0000gp/T//cckgJHwF.s 			page 233


 10432      4343554D 
 10432      5F455053 
 10432      494C4F4E 
 10432      5F5F2030 
 10433              	.LASF510:
 10434 2bc7 5F424954 		.ascii	"_BIT(n) (1 << (n))\000"
 10434      286E2920 
 10434      2831203C 
 10434      3C20286E 
 10434      292900
 10435              	.LASF459:
 10436 2bda 494E545F 		.ascii	"INT_LEAST32_MAX (__INT_LEAST32_MAX__)\000"
 10436      4C454153 
 10436      5433325F 
 10436      4D415820 
 10436      285F5F49 
 10437              	.LASF312:
 10438 2c00 5F5F4743 		.ascii	"__GCC_ATOMIC_SHORT_LOCK_FREE 1\000"
 10438      435F4154 
 10438      4F4D4943 
 10438      5F53484F 
 10438      52545F4C 
 10439              	.LASF505:
 10440 2c1f 66616C73 		.ascii	"false 0\000"
 10440      65203000 
 10441              	.LASF925:
 10442 2c27 4144435F 		.ascii	"ADC_CR_START_ADCTRIG0 ((4UL << 24))\000"
 10442      43525F53 
 10442      54415254 
 10442      5F414443 
 10442      54524947 
 10443              	.LASF762:
 10444 2c4b 55415254 		.ascii	"UART_DLM_MASKBIT (0xFF)\000"
 10444      5F444C4D 
 10444      5F4D4153 
 10444      4B424954 
 10444      20283078 
 10445              	.LASF880:
 10446 2c63 5F5F5353 		.ascii	"__SSP_11XX_H_ \000"
 10446      505F3131 
 10446      58585F48 
 10446      5F2000
 10447              	.LASF270:
 10448 2c72 5F5F4851 		.ascii	"__HQ_IBIT__ 0\000"
 10448      5F494249 
 10448      545F5F20 
 10448      3000
 10449              	.LASF534:
 10450 2c80 5F5F434F 		.ascii	"__CORTEX_M (0x00)\000"
 10450      52544558 
 10450      5F4D2028 
 10450      30783030 
 10450      2900
 10451              	.LASF232:
 10452 2c92 5F5F5553 		.ascii	"__USACCUM_FBIT__ 8\000"
 10452      41434355 
 10452      4D5F4642 
ARM GAS  /var/folders/z0/6xlwn_996xz3mwq1cgzkbq4r0000gp/T//cckgJHwF.s 			page 234


 10452      49545F5F 
 10452      203800
 10453              	.LASF1171:
 10454 2ca5 52696E67 		.ascii	"RingBuff\000"
 10454      42756666 
 10454      00
 10455              	.LASF965:
 10456 2cae 4932435F 		.ascii	"I2C_I2STAT_M_RX_ARB_LOST ((0x38))\000"
 10456      49325354 
 10456      41545F4D 
 10456      5F52585F 
 10456      4152425F 
 10457              	.LASF570:
 10458 2cd0 5343425F 		.ascii	"SCB_ICSR_VECTPENDING_Msk (0x1FFUL << SCB_ICSR_VECTP"
 10458      49435352 
 10458      5F564543 
 10458      5450454E 
 10458      44494E47 
 10459 2d03 454E4449 		.ascii	"ENDING_Pos)\000"
 10459      4E475F50 
 10459      6F732900 
 10460              	.LASF775:
 10461 2d0f 55415254 		.ascii	"UART_IIR_ABEO_INT (1 << 8)\000"
 10461      5F494952 
 10461      5F414245 
 10461      4F5F494E 
 10461      54202831 
 10462              	.LASF749:
 10463 2d2a 54494D45 		.ascii	"TIMER_RESET_ON_MATCH(n) (_BIT((((n) * 3) + 1)))\000"
 10463      525F5245 
 10463      5345545F 
 10463      4F4E5F4D 
 10463      41544348 
 10464              	.LASF247:
 10465 2d5a 5F5F4C41 		.ascii	"__LACCUM_FBIT__ 31\000"
 10465      4343554D 
 10465      5F464249 
 10465      545F5F20 
 10465      333100
 10466              	.LASF1012:
 10467 2d6d 43414E5F 		.ascii	"CAN_ERROR_NONE 0x00000000UL\000"
 10467      4552524F 
 10467      525F4E4F 
 10467      4E452030 
 10467      78303030 
 10468              	.LASF698:
 10469 2d89 5F5F494F 		.ascii	"__IOCON_11XX_H_ \000"
 10469      434F4E5F 
 10469      31315858 
 10469      5F485F20 
 10469      00
 10470              	.LASF990:
 10471 2d9a 4932435F 		.ascii	"I2C_I2MMCTRL_BITMASK ((0x07))\000"
 10471      49324D4D 
 10471      4354524C 
 10471      5F424954 
 10471      4D41534B 
ARM GAS  /var/folders/z0/6xlwn_996xz3mwq1cgzkbq4r0000gp/T//cckgJHwF.s 			page 235


 10472              	.LASF745:
 10473 2db8 54494D45 		.ascii	"TIMER_CAP_INT(n) (_BIT((((n) & 0x0F) + 4)))\000"
 10473      525F4341 
 10473      505F494E 
 10473      54286E29 
 10473      20285F42 
 10474              	.LASF907:
 10475 2de4 5F5F524F 		.ascii	"__ROMAPI_11XX_H_ \000"
 10475      4D415049 
 10475      5F313158 
 10475      585F485F 
 10475      2000
 10476              	.LASF1072:
 10477 2df6 53595350 		.ascii	"SYSPLLCTRL\000"
 10477      4C4C4354 
 10477      524C00
 10478              	.LASF293:
 10479 2e01 5F5F5441 		.ascii	"__TA_FBIT__ 63\000"
 10479      5F464249 
 10479      545F5F20 
 10479      363300
 10480              	.LASF5:
 10481 2e10 5F5F5645 		.ascii	"__VERSION__ \"5.4.1 20160919 (release) [ARM/embedde"
 10481      5253494F 
 10481      4E5F5F20 
 10481      22352E34 
 10481      2E312032 
 10482 2e42 642D352D 		.ascii	"d-5-branch revision 240496]\"\000"
 10482      6272616E 
 10482      63682072 
 10482      65766973 
 10482      696F6E20 
 10483              	.LASF440:
 10484 2e5f 494E5450 		.ascii	"INTPTR_MIN (-__INTPTR_MAX__ - 1)\000"
 10484      54525F4D 
 10484      494E2028 
 10484      2D5F5F49 
 10484      4E545054 
 10485              	.LASF1070:
 10486 2e80 5359534D 		.ascii	"SYSMEMREMAP\000"
 10486      454D5245 
 10486      4D415000 
 10487              	.LASF639:
 10488 2e8c 4C50435F 		.ascii	"LPC_CAN0_BASE 0x40050000\000"
 10488      43414E30 
 10488      5F424153 
 10488      45203078 
 10488      34303035 
 10489              	.LASF758:
 10490 2ea5 55415254 		.ascii	"UART_RBR_MASKBIT (0xFF)\000"
 10490      5F524252 
 10490      5F4D4153 
 10490      4B424954 
 10490      20283078 
 10491              	.LASF337:
 10492 2ebd 5F5F4152 		.ascii	"__ARM_PCS 1\000"
 10492      4D5F5043 
ARM GAS  /var/folders/z0/6xlwn_996xz3mwq1cgzkbq4r0000gp/T//cckgJHwF.s 			page 236


 10492      53203100 
 10493              	.LASF503:
 10494 2ec9 626F6F6C 		.ascii	"bool _Bool\000"
 10494      205F426F 
 10494      6F6C00
 10495              	.LASF940:
 10496 2ed4 4932435F 		.ascii	"I2C_I2CONSET_STA ((0x20))\000"
 10496      4932434F 
 10496      4E534554 
 10496      5F535441 
 10496      20282830 
 10497              	.LASF87:
 10498 2eee 5F5F494E 		.ascii	"__INT32_MAX__ 0x7fffffffL\000"
 10498      5433325F 
 10498      4D41585F 
 10498      5F203078 
 10498      37666666 
 10499              	.LASF674:
 10500 2f08 53595343 		.ascii	"SYSCTL_RST_WDT (1 << 2)\000"
 10500      544C5F52 
 10500      53545F57 
 10500      44542028 
 10500      31203C3C 
 10501              	.LASF637:
 10502 2f20 4C50435F 		.ascii	"LPC_SYSCTL_BASE 0x40048000\000"
 10502      53595343 
 10502      544C5F42 
 10502      41534520 
 10502      30783430 
 10503              	.LASF1168:
 10504 2f3b 52533438 		.ascii	"RS485DLY\000"
 10504      35444C59 
 10504      00
 10505              	.LASF101:
 10506 2f44 5F5F5549 		.ascii	"__UINT_LEAST8_MAX__ 0xff\000"
 10506      4E545F4C 
 10506      45415354 
 10506      385F4D41 
 10506      585F5F20 
 10507              	.LASF557:
 10508 2f5d 5343425F 		.ascii	"SCB_ICSR_PENDSVSET_Pos 28\000"
 10508      49435352 
 10508      5F50454E 
 10508      44535653 
 10508      45545F50 
 10509              	.LASF579:
 10510 2f77 5343425F 		.ascii	"SCB_AIRCR_SYSRESETREQ_Pos 2\000"
 10510      41495243 
 10510      525F5359 
 10510      53524553 
 10510      45545245 
 10511              	.LASF543:
 10512 2f93 5F5F4F20 		.ascii	"__O volatile\000"
 10512      766F6C61 
 10512      74696C65 
 10512      00
 10513              	.LASF658:
ARM GAS  /var/folders/z0/6xlwn_996xz3mwq1cgzkbq4r0000gp/T//cckgJHwF.s 			page 237


 10514 2fa0 4C50435F 		.ascii	"LPC_IOCON ((LPC_IOCON_T *) LPC_IOCON_BASE)\000"
 10514      494F434F 
 10514      4E202828 
 10514      4C50435F 
 10514      494F434F 
 10515              	.LASF483:
 10516 2fcb 5349475F 		.ascii	"SIG_ATOMIC_MIN (-__STDINT_EXP(INT_MAX) - 1)\000"
 10516      41544F4D 
 10516      49435F4D 
 10516      494E2028 
 10516      2D5F5F53 
 10517              	.LASF960:
 10518 2ff7 4932435F 		.ascii	"I2C_I2STAT_M_TX_DAT_ACK ((0x28))\000"
 10518      49325354 
 10518      41545F4D 
 10518      5F54585F 
 10518      4441545F 
 10519              	.LASF830:
 10520 3018 55415254 		.ascii	"UART_MSR_LO2HI_RI (1 << 2)\000"
 10520      5F4D5352 
 10520      5F4C4F32 
 10520      48495F52 
 10520      49202831 
 10521              	.LASF421:
 10522 3033 5F494E54 		.ascii	"_INT16_T_DECLARED \000"
 10522      31365F54 
 10522      5F444543 
 10522      4C415245 
 10522      442000
 10523              	.LASF1099:
 10524 3046 55534243 		.ascii	"USBCLKUEN\000"
 10524      4C4B5545 
 10524      4E00
 10525              	.LASF1024:
 10526 3050 43414E5F 		.ascii	"CAN_MSGOBJ_DAT 0x00000000UL\000"
 10526      4D53474F 
 10526      424A5F44 
 10526      41542030 
 10526      78303030 
 10527              	.LASF984:
 10528 306c 4932435F 		.ascii	"I2C_SLAVE_TIME_OUT 0x10000000UL\000"
 10528      534C4156 
 10528      455F5449 
 10528      4D455F4F 
 10528      55542030 
 10529              	.LASF837:
 10530 308c 55415254 		.ascii	"UART_ACR_START (1 << 0)\000"
 10530      5F414352 
 10530      5F535441 
 10530      52542028 
 10530      31203C3C 
 10531              	.LASF642:
 10532 30a4 4C50435F 		.ascii	"LPC_GPIO_PORT1_BASE 0x50010000\000"
 10532      4750494F 
 10532      5F504F52 
 10532      54315F42 
 10532      41534520 
ARM GAS  /var/folders/z0/6xlwn_996xz3mwq1cgzkbq4r0000gp/T//cckgJHwF.s 			page 238


 10533              	.LASF344:
 10534 30c3 44454255 		.ascii	"DEBUG_ENABLE 1\000"
 10534      475F454E 
 10534      41424C45 
 10534      203100
 10535              	.LASF858:
 10536 30d2 55415254 		.ascii	"UART_SCICTRL_PROTSEL_T1 (1 << 2)\000"
 10536      5F534349 
 10536      4354524C 
 10536      5F50524F 
 10536      5453454C 
 10537              	.LASF860:
 10538 30f3 55415254 		.ascii	"UART_SCICTRL_GUARDTIME(n) ((n & 0xFF) << 8)\000"
 10538      5F534349 
 10538      4354524C 
 10538      5F475541 
 10538      52445449 
 10539              	.LASF435:
 10540 311f 5F5F696E 		.ascii	"__int_least64_t_defined 1\000"
 10540      745F6C65 
 10540      61737436 
 10540      345F745F 
 10540      64656669 
 10541              	.LASF757:
 10542 3139 52425F56 		.ascii	"RB_VTAIL(rb) ((volatile uint32_t)(rb->tail))\000"
 10542      5441494C 
 10542      28726229 
 10542      20282876 
 10542      6F6C6174 
 10543              	.LASF1118:
 10544 3166 55534243 		.ascii	"USBCLKCTRL\000"
 10544      4C4B4354 
 10544      524C00
 10545              	.LASF179:
 10546 3171 5F5F4445 		.ascii	"__DEC64_SUBNORMAL_MIN__ 0.000000000000001E-383DD\000"
 10546      4336345F 
 10546      5355424E 
 10546      4F524D41 
 10546      4C5F4D49 
 10547              	.LASF196:
 10548 31a2 5F5F5553 		.ascii	"__USFRACT_EPSILON__ 0x1P-8UHR\000"
 10548      46524143 
 10548      545F4550 
 10548      53494C4F 
 10548      4E5F5F20 
 10549              	.LASF723:
 10550 31c0 4D445F42 		.ascii	"MD_BUK (0x3 << 3)\000"
 10550      554B2028 
 10550      30783320 
 10550      3C3C2033 
 10550      2900
 10551              	.LASF513:
 10552 31d2 5F424954 		.ascii	"_BITMASK\000"
 10552      4D41534B 
 10552      00
 10553              	.LASF634:
 10554 31db 4C50435F 		.ascii	"LPC_FLASH_BASE 0x4003C000\000"
ARM GAS  /var/folders/z0/6xlwn_996xz3mwq1cgzkbq4r0000gp/T//cckgJHwF.s 			page 239


 10554      464C4153 
 10554      485F4241 
 10554      53452030 
 10554      78343030 
 10555              	.LASF657:
 10556 31f5 4C50435F 		.ascii	"LPC_SSP0 ((LPC_SSP_T *) LPC_SSP0_BASE)\000"
 10556      53535030 
 10556      2028284C 
 10556      50435F53 
 10556      53505F54 
 10557              	.LASF192:
 10558 321c 5F5F5553 		.ascii	"__USFRACT_FBIT__ 8\000"
 10558      46524143 
 10558      545F4642 
 10558      49545F5F 
 10558      203800
 10559              	.LASF260:
 10560 322f 5F5F4C4C 		.ascii	"__LLACCUM_MAX__ 0X7FFFFFFFFFFFFFFFP-31LLK\000"
 10560      41434355 
 10560      4D5F4D41 
 10560      585F5F20 
 10560      30583746 
 10561              	.LASF774:
 10562 3259 55415254 		.ascii	"UART_IIR_FIFO_EN (3 << 6)\000"
 10562      5F494952 
 10562      5F464946 
 10562      4F5F454E 
 10562      20283320 
 10563              	.LASF434:
 10564 3273 5F5F696E 		.ascii	"__int_least32_t_defined 1\000"
 10564      745F6C65 
 10564      61737433 
 10564      325F745F 
 10564      64656669 
 10565              	.LASF304:
 10566 328d 5F5F5553 		.ascii	"__USER_LABEL_PREFIX__ \000"
 10566      45525F4C 
 10566      4142454C 
 10566      5F505245 
 10566      4649585F 
 10567              	.LASF92:
 10568 32a4 5F5F5549 		.ascii	"__UINT64_MAX__ 0xffffffffffffffffULL\000"
 10568      4E543634 
 10568      5F4D4158 
 10568      5F5F2030 
 10568      78666666 
 10569              	.LASF644:
 10570 32c9 4C50435F 		.ascii	"LPC_GPIO_PORT3_BASE 0x50030000\000"
 10570      4750494F 
 10570      5F504F52 
 10570      54335F42 
 10570      41534520 
 10571              	.LASF985:
 10572 32e8 4932435F 		.ascii	"I2C_I2DAT_BITMASK ((0xFF))\000"
 10572      49324441 
 10572      545F4249 
 10572      544D4153 
ARM GAS  /var/folders/z0/6xlwn_996xz3mwq1cgzkbq4r0000gp/T//cckgJHwF.s 			page 240


 10572      4B202828 
 10573              	.LASF1195:
 10574 3303 43686970 		.ascii	"Chip_UART_DeInit\000"
 10574      5F554152 
 10574      545F4465 
 10574      496E6974 
 10574      00
 10575              	.LASF1138:
 10576 3314 53595343 		.ascii	"SYSCTL_CLOCK_FLASHARRAY\000"
 10576      544C5F43 
 10576      4C4F434B 
 10576      5F464C41 
 10576      53484152 
 10577              	.LASF91:
 10578 332c 5F5F5549 		.ascii	"__UINT32_MAX__ 0xffffffffUL\000"
 10578      4E543332 
 10578      5F4D4158 
 10578      5F5F2030 
 10578      78666666 
 10579              	.LASF497:
 10580 3348 494E5436 		.ascii	"INT64_C(x) __INT64_C(x)\000"
 10580      345F4328 
 10580      7829205F 
 10580      5F494E54 
 10580      36345F43 
 10581              	.LASF199:
 10582 3360 5F5F4652 		.ascii	"__FRACT_MIN__ (-0.5R-0.5R)\000"
 10582      4143545F 
 10582      4D494E5F 
 10582      5F20282D 
 10582      302E3552 
 10583              	.LASF443:
 10584 337b 494E5438 		.ascii	"INT8_MIN (-__INT8_MAX__ - 1)\000"
 10584      5F4D494E 
 10584      20282D5F 
 10584      5F494E54 
 10584      385F4D41 
 10585              	.LASF93:
 10586 3398 5F5F494E 		.ascii	"__INT_LEAST8_MAX__ 0x7f\000"
 10586      545F4C45 
 10586      41535438 
 10586      5F4D4158 
 10586      5F5F2030 
 10587              	.LASF1140:
 10588 33b0 53595343 		.ascii	"SYSCTL_CLOCK_GPIO\000"
 10588      544C5F43 
 10588      4C4F434B 
 10588      5F475049 
 10588      4F00
 10589              	.LASF574:
 10590 33c2 5343425F 		.ascii	"SCB_AIRCR_VECTKEY_Msk (0xFFFFUL << SCB_AIRCR_VECTKE"
 10590      41495243 
 10590      525F5645 
 10590      43544B45 
 10590      595F4D73 
 10591 33f5 595F506F 		.ascii	"Y_Pos)\000"
 10591      732900
ARM GAS  /var/folders/z0/6xlwn_996xz3mwq1cgzkbq4r0000gp/T//cckgJHwF.s 			page 241


 10592              	.LASF8:
 10593 33fc 5F5F4154 		.ascii	"__ATOMIC_ACQUIRE 2\000"
 10593      4F4D4943 
 10593      5F414351 
 10593      55495245 
 10593      203200
 10594              	.LASF1178:
 10595 340f 43686970 		.ascii	"Chip_Clock_DisablePeriphClock\000"
 10595      5F436C6F 
 10595      636B5F44 
 10595      69736162 
 10595      6C655065 
 10596              	.LASF667:
 10597 342d 504D555F 		.ascii	"PMU_PCON_PM_DEEPPOWERDOWN (0x2)\000"
 10597      50434F4E 
 10597      5F504D5F 
 10597      44454550 
 10597      504F5745 
 10598              	.LASF894:
 10599 344d 5353505F 		.ascii	"SSP_CR1_MASTER_EN ((uint32_t) (0))\000"
 10599      4352315F 
 10599      4D415354 
 10599      45525F45 
 10599      4E202828 
 10600              	.LASF1075:
 10601 3470 55534250 		.ascii	"USBPLLSTAT\000"
 10601      4C4C5354 
 10601      415400
 10602              	.LASF403:
 10603 347b 5F494E54 		.ascii	"_INTPTR_EQ_INT \000"
 10603      5054525F 
 10603      45515F49 
 10603      4E542000 
 10604              	.LASF324:
 10605 348b 5F5F4152 		.ascii	"__ARM_SIZEOF_WCHAR_T 4\000"
 10605      4D5F5349 
 10605      5A454F46 
 10605      5F574348 
 10605      41525F54 
 10606              	.LASF451:
 10607 34a2 55494E54 		.ascii	"UINT16_MAX (__UINT16_MAX__)\000"
 10607      31365F4D 
 10607      41582028 
 10607      5F5F5549 
 10607      4E543136 
 10608              	.LASF65:
 10609 34be 5F5F6861 		.ascii	"__has_include(STR) __has_include__(STR)\000"
 10609      735F696E 
 10609      636C7564 
 10609      65285354 
 10609      5229205F 
 10610              	.LASF1220:
 10611 34e6 52696E67 		.ascii	"RingBuffer_InsertMult\000"
 10611      42756666 
 10611      65725F49 
 10611      6E736572 
 10611      744D756C 
ARM GAS  /var/folders/z0/6xlwn_996xz3mwq1cgzkbq4r0000gp/T//cckgJHwF.s 			page 242


 10612              	.LASF889:
 10613 34fc 5353505F 		.ascii	"SSP_CR0_SCR(n) ((uint32_t) ((n & 0xFF) << 8))\000"
 10613      4352305F 
 10613      53435228 
 10613      6E292028 
 10613      2875696E 
 10614              	.LASF105:
 10615 352a 5F5F5549 		.ascii	"__UINT_LEAST32_MAX__ 0xffffffffUL\000"
 10615      4E545F4C 
 10615      45415354 
 10615      33325F4D 
 10615      41585F5F 
 10616              	.LASF786:
 10617 354c 55415254 		.ascii	"UART_FCR_TX_RS (1 << 2)\000"
 10617      5F464352 
 10617      5F54585F 
 10617      52532028 
 10617      31203C3C 
 10618              	.LASF699:
 10619 3564 494F434F 		.ascii	"IOCON_FUNC0 0x0\000"
 10619      4E5F4655 
 10619      4E433020 
 10619      30783000 
 10620              	.LASF147:
 10621 3574 5F5F4442 		.ascii	"__DBL_EPSILON__ ((double)2.2204460492503131e-16L)\000"
 10621      4C5F4550 
 10621      53494C4F 
 10621      4E5F5F20 
 10621      2828646F 
 10622              	.LASF136:
 10623 35a6 5F5F464C 		.ascii	"__FLT_HAS_INFINITY__ 1\000"
 10623      545F4841 
 10623      535F494E 
 10623      46494E49 
 10623      54595F5F 
 10624              	.LASF993:
 10625 35bd 4932435F 		.ascii	"I2C_I2ADR_BITMASK ((0xFF))\000"
 10625      49324144 
 10625      525F4249 
 10625      544D4153 
 10625      4B202828 
 10626              	.LASF240:
 10627 35d8 5F5F4143 		.ascii	"__ACCUM_MAX__ 0X7FFFFFFFP-15K\000"
 10627      43554D5F 
 10627      4D41585F 
 10627      5F203058 
 10627      37464646 
 10628              	.LASF568:
 10629 35f6 5343425F 		.ascii	"SCB_ICSR_ISRPENDING_Msk (1UL << SCB_ICSR_ISRPENDING"
 10629      49435352 
 10629      5F495352 
 10629      50454E44 
 10629      494E475F 
 10630 3629 5F506F73 		.ascii	"_Pos)\000"
 10630      2900
 10631              	.LASF85:
 10632 362f 5F5F494E 		.ascii	"__INT8_MAX__ 0x7f\000"
ARM GAS  /var/folders/z0/6xlwn_996xz3mwq1cgzkbq4r0000gp/T//cckgJHwF.s 			page 243


 10632      54385F4D 
 10632      41585F5F 
 10632      20307837 
 10632      6600
 10633              	.LASF851:
 10634 3641 55415254 		.ascii	"UART_ICR_IRDAINV (1 << 1)\000"
 10634      5F494352 
 10634      5F495244 
 10634      41494E56 
 10634      20283120 
 10635              	.LASF650:
 10636 365b 4C50435F 		.ascii	"LPC_TIMER16_0 ((LPC_TIMER_T *) LPC_TIMER16_0_BASE)\000"
 10636      54494D45 
 10636      5231365F 
 10636      30202828 
 10636      4C50435F 
 10637              	.LASF250:
 10638 368e 5F5F4C41 		.ascii	"__LACCUM_MAX__ 0X7FFFFFFFFFFFFFFFP-31LK\000"
 10638      4343554D 
 10638      5F4D4158 
 10638      5F5F2030 
 10638      58374646 
 10639              	.LASF377:
 10640 36b6 5F5F5F69 		.ascii	"___int8_t_defined 1\000"
 10640      6E74385F 
 10640      745F6465 
 10640      66696E65 
 10640      64203100 
 10641              	.LASF189:
 10642 36ca 5F5F5346 		.ascii	"__SFRACT_MIN__ (-0.5HR-0.5HR)\000"
 10642      52414354 
 10642      5F4D494E 
 10642      5F5F2028 
 10642      2D302E35 
 10643              	.LASF1063:
 10644 36e8 6C6F6E67 		.ascii	"long unsigned int\000"
 10644      20756E73 
 10644      69676E65 
 10644      6420696E 
 10644      7400
 10645              	.LASF290:
 10646 36fa 5F5F5341 		.ascii	"__SA_IBIT__ 16\000"
 10646      5F494249 
 10646      545F5F20 
 10646      313600
 10647              	.LASF139:
 10648 3709 5F5F4442 		.ascii	"__DBL_DIG__ 15\000"
 10648      4C5F4449 
 10648      475F5F20 
 10648      313500
 10649              	.LASF390:
 10650 3718 7369676E 		.ascii	"signed\000"
 10650      656400
 10651              	.LASF120:
 10652 371f 5F5F4743 		.ascii	"__GCC_IEC_559_COMPLEX 0\000"
 10652      435F4945 
 10652      435F3535 
ARM GAS  /var/folders/z0/6xlwn_996xz3mwq1cgzkbq4r0000gp/T//cckgJHwF.s 			page 244


 10652      395F434F 
 10652      4D504C45 
 10653              	.LASF2:
 10654 3737 5F5F474E 		.ascii	"__GNUC__ 5\000"
 10654      55435F5F 
 10654      203500
 10655              	.LASF744:
 10656 3742 54494D45 		.ascii	"TIMER_MATCH_INT(n) (_BIT((n) & 0x0F))\000"
 10656      525F4D41 
 10656      5443485F 
 10656      494E5428 
 10656      6E292028 
 10657              	.LASF44:
 10658 3768 5F5F5549 		.ascii	"__UINT16_TYPE__ short unsigned int\000"
 10658      4E543136 
 10658      5F545950 
 10658      455F5F20 
 10658      73686F72 
 10659              	.LASF361:
 10660 378b 5F504F53 		.ascii	"_POSIX_SOURCE\000"
 10660      49585F53 
 10660      4F555243 
 10660      4500
 10661              	.LASF333:
 10662 3799 5F5F534F 		.ascii	"__SOFTFP__ 1\000"
 10662      46544650 
 10662      5F5F2031 
 10662      00
 10663              	.LASF426:
 10664 37a6 5F5F696E 		.ascii	"__int32_t_defined 1\000"
 10664      7433325F 
 10664      745F6465 
 10664      66696E65 
 10664      64203100 
 10665              	.LASF482:
 10666 37ba 53495A45 		.ascii	"SIZE_MAX (__SIZE_MAX__)\000"
 10666      5F4D4158 
 10666      20285F5F 
 10666      53495A45 
 10666      5F4D4158 
 10667              	.LASF168:
 10668 37d2 5F5F4445 		.ascii	"__DEC32_MAX_EXP__ 97\000"
 10668      4333325F 
 10668      4D41585F 
 10668      4558505F 
 10668      5F203937 
 10669              	.LASF611:
 10670 37e7 53797354 		.ascii	"SysTick_CALIB_TENMS_Pos 0\000"
 10670      69636B5F 
 10670      43414C49 
 10670      425F5445 
 10670      4E4D535F 
 10671              	.LASF867:
 10672 3801 55415254 		.ascii	"UART_SYNCCTRL_CSRC_MASTER (1 << 1)\000"
 10672      5F53594E 
 10672      43435452 
 10672      4C5F4353 
ARM GAS  /var/folders/z0/6xlwn_996xz3mwq1cgzkbq4r0000gp/T//cckgJHwF.s 			page 245


 10672      52435F4D 
 10673              	.LASF682:
 10674 3824 53595343 		.ascii	"SYSCTL_SLPWAKE_FLASH_PD (1 << 2)\000"
 10674      544C5F53 
 10674      4C505741 
 10674      4B455F46 
 10674      4C415348 
 10675              	.LASF401:
 10676 3845 696E7420 		.ascii	"int +2\000"
 10676      2B3200
 10677              	.LASF930:
 10678 384c 5F5F4750 		.ascii	"__GPIO_11XX_2_H_ \000"
 10678      494F5F31 
 10678      3158585F 
 10678      325F485F 
 10678      2000
 10679              	.LASF491:
 10680 385e 494E5438 		.ascii	"INT8_C(x) __INT8_C(x)\000"
 10680      5F432878 
 10680      29205F5F 
 10680      494E5438 
 10680      5F432878 
 10681              	.LASF520:
 10682 3874 4D415828 		.ascii	"MAX(a,b) (((a) > (b)) ? (a) : (b))\000"
 10682      612C6229 
 10682      20282828 
 10682      6129203E 
 10682      20286229 
 10683              	.LASF59:
 10684 3897 5F5F5549 		.ascii	"__UINT_FAST8_TYPE__ unsigned int\000"
 10684      4E545F46 
 10684      41535438 
 10684      5F545950 
 10684      455F5F20 
 10685              	.LASF258:
 10686 38b8 5F5F4C4C 		.ascii	"__LLACCUM_IBIT__ 32\000"
 10686      41434355 
 10686      4D5F4942 
 10686      49545F5F 
 10686      20333200 
 10687              	.LASF580:
 10688 38cc 5343425F 		.ascii	"SCB_AIRCR_SYSRESETREQ_Msk (1UL << SCB_AIRCR_SYSRESE"
 10688      41495243 
 10688      525F5359 
 10688      53524553 
 10688      45545245 
 10689 38ff 54524551 		.ascii	"TREQ_Pos)\000"
 10689      5F506F73 
 10689      2900
 10690              	.LASF201:
 10691 3909 5F5F4652 		.ascii	"__FRACT_EPSILON__ 0x1P-15R\000"
 10691      4143545F 
 10691      45505349 
 10691      4C4F4E5F 
 10691      5F203078 
 10692              	.LASF518:
 10693 3924 45585445 		.ascii	"EXTERN extern\000"
ARM GAS  /var/folders/z0/6xlwn_996xz3mwq1cgzkbq4r0000gp/T//cckgJHwF.s 			page 246


 10693      524E2065 
 10693      78746572 
 10693      6E00
 10694              	.LASF566:
 10695 3932 5343425F 		.ascii	"SCB_ICSR_ISRPREEMPT_Msk (1UL << SCB_ICSR_ISRPREEMPT"
 10695      49435352 
 10695      5F495352 
 10695      50524545 
 10695      4D50545F 
 10696 3965 5F506F73 		.ascii	"_Pos)\000"
 10696      2900
 10697              	.LASF1164:
 10698 396b 4844454E 		.ascii	"HDEN\000"
 10698      00
 10699              	.LASF1003:
 10700 3970 4932435F 		.ascii	"I2C_LAST_BYTE_RECV 0x04\000"
 10700      4C415354 
 10700      5F425954 
 10700      455F5245 
 10700      43562030 
 10701              	.LASF527:
 10702 3988 5F5F4D50 		.ascii	"__MPU_PRESENT 0\000"
 10702      555F5052 
 10702      4553454E 
 10702      54203000 
 10703              	.LASF38:
 10704 3998 5F5F5349 		.ascii	"__SIG_ATOMIC_TYPE__ int\000"
 10704      475F4154 
 10704      4F4D4943 
 10704      5F545950 
 10704      455F5F20 
 10705              	.LASF417:
 10706 39b0 5F535953 		.ascii	"_SYS__STDINT_H \000"
 10706      5F5F5354 
 10706      44494E54 
 10706      5F482000 
 10707              	.LASF360:
 10708 39c0 5F444546 		.ascii	"_DEFAULT_SOURCE 1\000"
 10708      41554C54 
 10708      5F534F55 
 10708      52434520 
 10708      3100
 10709              	.LASF184:
 10710 39d2 5F5F4445 		.ascii	"__DEC128_MAX__ 9.999999999999999999999999999999999E"
 10710      43313238 
 10710      5F4D4158 
 10710      5F5F2039 
 10710      2E393939 
 10711 3a05 36313434 		.ascii	"6144DL\000"
 10711      444C00
 10712              	.LASF118:
 10713 3a0c 5F5F5549 		.ascii	"__UINTPTR_MAX__ 0xffffffffU\000"
 10713      4E545054 
 10713      525F4D41 
 10713      585F5F20 
 10713      30786666 
 10714              	.LASF725:
ARM GAS  /var/folders/z0/6xlwn_996xz3mwq1cgzkbq4r0000gp/T//cckgJHwF.s 			page 247


 10715 3a28 4D445F49 		.ascii	"MD_INV (0x1 << 6)\000"
 10715      4E562028 
 10715      30783120 
 10715      3C3C2036 
 10715      2900
 10716              	.LASF54:
 10717 3a3a 5F5F5549 		.ascii	"__UINT_LEAST64_TYPE__ long long unsigned int\000"
 10717      4E545F4C 
 10717      45415354 
 10717      36345F54 
 10717      5950455F 
 10718              	.LASF625:
 10719 3a67 4C50435F 		.ascii	"LPC_USART_BASE 0x40008000\000"
 10719      55534152 
 10719      545F4241 
 10719      53452030 
 10719      78343030 
 10720              	.LASF781:
 10721 3a81 55415254 		.ascii	"UART_IIR_INTID_CTI (6 << 1)\000"
 10721      5F494952 
 10721      5F494E54 
 10721      49445F43 
 10721      54492028 
 10722              	.LASF161:
 10723 3a9d 5F5F4C44 		.ascii	"__LDBL_EPSILON__ 2.2204460492503131e-16L\000"
 10723      424C5F45 
 10723      5053494C 
 10723      4F4E5F5F 
 10723      20322E32 
 10724              	.LASF1046:
 10725 3ac6 4F445F53 		.ascii	"OD_SEG_WO 0x50\000"
 10725      45475F57 
 10725      4F203078 
 10725      353000
 10726              	.LASF704:
 10727 3ad5 494F434F 		.ascii	"IOCON_FUNC5 0x5\000"
 10727      4E5F4655 
 10727      4E433520 
 10727      30783500 
 10728              	.LASF309:
 10729 3ae5 5F5F4743 		.ascii	"__GCC_ATOMIC_CHAR16_T_LOCK_FREE 1\000"
 10729      435F4154 
 10729      4F4D4943 
 10729      5F434841 
 10729      5231365F 
 10730              	.LASF142:
 10731 3b07 5F5F4442 		.ascii	"__DBL_MAX_EXP__ 1024\000"
 10731      4C5F4D41 
 10731      585F4558 
 10731      505F5F20 
 10731      31303234 
 10732              	.LASF412:
 10733 3b1c 5F5F4641 		.ascii	"__FAST64 \"ll\"\000"
 10733      53543634 
 10733      20226C6C 
 10733      2200
 10734              	.LASF9:
ARM GAS  /var/folders/z0/6xlwn_996xz3mwq1cgzkbq4r0000gp/T//cckgJHwF.s 			page 248


 10735 3b2a 5F5F4154 		.ascii	"__ATOMIC_RELEASE 3\000"
 10735      4F4D4943 
 10735      5F52454C 
 10735      45415345 
 10735      203300
 10736              	.LASF397:
 10737 3b3d 756E7369 		.ascii	"unsigned +0\000"
 10737      676E6564 
 10737      202B3000 
 10738              	.LASF124:
 10739 3b49 5F5F464C 		.ascii	"__FLT_MANT_DIG__ 24\000"
 10739      545F4D41 
 10739      4E545F44 
 10739      49475F5F 
 10739      20323400 
 10740              	.LASF1225:
 10741 3b5d 43484950 		.ascii	"CHIP_SYSCTL_CLOCK\000"
 10741      5F535953 
 10741      43544C5F 
 10741      434C4F43 
 10741      4B00
 10742              	.LASF1115:
 10743 3b6f 4952514C 		.ascii	"IRQLATENCY\000"
 10743      4154454E 
 10743      435900
 10744              	.LASF57:
 10745 3b7a 5F5F494E 		.ascii	"__INT_FAST32_TYPE__ int\000"
 10745      545F4641 
 10745      53543332 
 10745      5F545950 
 10745      455F5F20 
 10746              	.LASF1150:
 10747 3b92 53595343 		.ascii	"SYSCTL_CLOCK_IOCON\000"
 10747      544C5F43 
 10747      4C4F434B 
 10747      5F494F43 
 10747      4F4E00
 10748              	.LASF481:
 10749 3ba5 55494E54 		.ascii	"UINTMAX_MAX (__UINTMAX_MAX__)\000"
 10749      4D41585F 
 10749      4D415820 
 10749      285F5F55 
 10749      494E544D 
 10750              	.LASF916:
 10751 3bc3 4144435F 		.ascii	"ADC_CR_CH_SEL(n) ((1UL << (n)))\000"
 10751      43525F43 
 10751      485F5345 
 10751      4C286E29 
 10751      20282831 
 10752              	.LASF12:
 10753 3be3 5F5F4F50 		.ascii	"__OPTIMIZE__ 1\000"
 10753      54494D49 
 10753      5A455F5F 
 10753      203100
 10754              	.LASF245:
 10755 3bf2 5F5F5541 		.ascii	"__UACCUM_MAX__ 0XFFFFFFFFP-16UK\000"
 10755      4343554D 
ARM GAS  /var/folders/z0/6xlwn_996xz3mwq1cgzkbq4r0000gp/T//cckgJHwF.s 			page 249


 10755      5F4D4158 
 10755      5F5F2030 
 10755      58464646 
 10756              	.LASF801:
 10757 3c12 55415254 		.ascii	"UART_LCR_SBS_2BIT (1 << 2)\000"
 10757      5F4C4352 
 10757      5F534253 
 10757      5F324249 
 10757      54202831 
 10758              	.LASF664:
 10759 3c2d 4C50435F 		.ascii	"LPC_ROM_API (*((LPC_ROM_API_T * *) LPC_ROM_API_BASE"
 10759      524F4D5F 
 10759      41504920 
 10759      282A2828 
 10759      4C50435F 
 10760 3c60 5F4C4F43 		.ascii	"_LOC))\000"
 10760      292900
 10761              	.LASF1045:
 10762 3c67 4F445F53 		.ascii	"OD_SEG_RO 0x40\000"
 10762      45475F52 
 10762      4F203078 
 10762      343000
 10763              	.LASF411:
 10764 3c76 5F5F4641 		.ascii	"__FAST32 \000"
 10764      53543332 
 10764      2000
 10765              	.LASF400:
 10766 3c80 5F5F696E 		.ascii	"__int20 +2\000"
 10766      74323020 
 10766      2B3200
 10767              	.LASF877:
 10768 3c8b 57574454 		.ascii	"WWDT_WDMOD_WDTOF ((uint32_t) (1 << 2))\000"
 10768      5F57444D 
 10768      4F445F57 
 10768      44544F46 
 10768      20282875 
 10769              	.LASF926:
 10770 3cb2 4144435F 		.ascii	"ADC_CR_START_ADCTRIG1 ((5UL << 24))\000"
 10770      43525F53 
 10770      54415254 
 10770      5F414443 
 10770      54524947 
 10771              	.LASF162:
 10772 3cd6 5F5F4C44 		.ascii	"__LDBL_DENORM_MIN__ 4.9406564584124654e-324L\000"
 10772      424C5F44 
 10772      454E4F52 
 10772      4D5F4D49 
 10772      4E5F5F20 
 10773              	.LASF88:
 10774 3d03 5F5F494E 		.ascii	"__INT64_MAX__ 0x7fffffffffffffffLL\000"
 10774      5436345F 
 10774      4D41585F 
 10774      5F203078 
 10774      37666666 
 10775              	.LASF901:
 10776 3d26 5353505F 		.ascii	"SSP_CPHA_FIRST SSP_CR0_CPHA_FIRST\000"
 10776      43504841 
ARM GAS  /var/folders/z0/6xlwn_996xz3mwq1cgzkbq4r0000gp/T//cckgJHwF.s 			page 250


 10776      5F464952 
 10776      53542053 
 10776      53505F43 
 10777              	.LASF223:
 10778 3d48 5F5F554C 		.ascii	"__ULLFRACT_IBIT__ 0\000"
 10778      4C465241 
 10778      43545F49 
 10778      4249545F 
 10778      5F203000 
 10779              	.LASF1135:
 10780 3d5c 53595343 		.ascii	"SYSCTL_CLOCK_ROM\000"
 10780      544C5F43 
 10780      4C4F434B 
 10780      5F524F4D 
 10780      00
 10781              	.LASF827:
 10782 3d6d 55415254 		.ascii	"UART1_LSR_BITMASK (0x1FF)\000"
 10782      315F4C53 
 10782      525F4249 
 10782      544D4153 
 10782      4B202830 
 10783              	.LASF793:
 10784 3d87 55415254 		.ascii	"UART_FCR_TRG_LEV3 (3 << 6)\000"
 10784      5F464352 
 10784      5F545247 
 10784      5F4C4556 
 10784      33202833 
 10785              	.LASF967:
 10786 3da2 4932435F 		.ascii	"I2C_I2STAT_M_RX_SLAR_NACK ((0x48))\000"
 10786      49325354 
 10786      41545F4D 
 10786      5F52585F 
 10786      534C4152 
 10787              	.LASF660:
 10788 3dc5 4C50435F 		.ascii	"LPC_SSP1 ((LPC_SSP_T *) LPC_SSP1_BASE)\000"
 10788      53535031 
 10788      2028284C 
 10788      50435F53 
 10788      53505F54 
 10789              	.LASF966:
 10790 3dec 4932435F 		.ascii	"I2C_I2STAT_M_RX_SLAR_ACK ((0x40))\000"
 10790      49325354 
 10790      41545F4D 
 10790      5F52585F 
 10790      534C4152 
 10791              	.LASF855:
 10792 3e0e 55415254 		.ascii	"UART_HDEN_HDEN ((1 << 0))\000"
 10792      5F484445 
 10792      4E5F4844 
 10792      454E2028 
 10792      2831203C 
 10793              	.LASF537:
 10794 3e28 5F5F5354 		.ascii	"__STATIC_INLINE static inline\000"
 10794      41544943 
 10794      5F494E4C 
 10794      494E4520 
 10794      73746174 
ARM GAS  /var/folders/z0/6xlwn_996xz3mwq1cgzkbq4r0000gp/T//cckgJHwF.s 			page 251


 10795              	.LASF633:
 10796 3e46 4C50435F 		.ascii	"LPC_PMU_BASE 0x40038000\000"
 10796      504D555F 
 10796      42415345 
 10796      20307834 
 10796      30303338 
 10797              	.LASF439:
 10798 3e5e 5F5F696E 		.ascii	"__int_fast64_t_defined 1\000"
 10798      745F6661 
 10798      73743634 
 10798      5F745F64 
 10798      6566696E 
 10799              	.LASF131:
 10800 3e77 5F5F464C 		.ascii	"__FLT_MAX__ 3.4028234663852886e+38F\000"
 10800      545F4D41 
 10800      585F5F20 
 10800      332E3430 
 10800      32383233 
 10801              	.LASF696:
 10802 3e9b 5F5F434C 		.ascii	"__CLOCK_11XX_H_ \000"
 10802      4F434B5F 
 10802      31315858 
 10802      5F485F20 
 10802      00
 10803              	.LASF242:
 10804 3eac 5F5F5541 		.ascii	"__UACCUM_FBIT__ 16\000"
 10804      4343554D 
 10804      5F464249 
 10804      545F5F20 
 10804      313600
 10805              	.LASF995:
 10806 3ebf 4932435F 		.ascii	"I2C_I2SCLH_BITMASK ((0xFFFF))\000"
 10806      49325343 
 10806      4C485F42 
 10806      49544D41 
 10806      534B2028 
 10807              	.LASF206:
 10808 3edd 5F5F5546 		.ascii	"__UFRACT_EPSILON__ 0x1P-16UR\000"
 10808      52414354 
 10808      5F455053 
 10808      494C4F4E 
 10808      5F5F2030 
 10809              	.LASF74:
 10810 3efa 5F5F5743 		.ascii	"__WCHAR_MIN__ 0U\000"
 10810      4841525F 
 10810      4D494E5F 
 10810      5F203055 
 10810      00
 10811              	.LASF278:
 10812 3f0b 5F5F5551 		.ascii	"__UQQ_IBIT__ 0\000"
 10812      515F4942 
 10812      49545F5F 
 10812      203000
 10813              	.LASF353:
 10814 3f1a 5F4E4557 		.ascii	"_NEWLIB_VERSION \"2.4.0\"\000"
 10814      4C49425F 
 10814      56455253 
ARM GAS  /var/folders/z0/6xlwn_996xz3mwq1cgzkbq4r0000gp/T//cckgJHwF.s 			page 252


 10814      494F4E20 
 10814      22322E34 
 10815              	.LASF314:
 10816 3f32 5F5F4743 		.ascii	"__GCC_ATOMIC_LONG_LOCK_FREE 1\000"
 10816      435F4154 
 10816      4F4D4943 
 10816      5F4C4F4E 
 10816      475F4C4F 
 10817              	.LASF254:
 10818 3f50 5F5F554C 		.ascii	"__ULACCUM_MIN__ 0.0ULK\000"
 10818      41434355 
 10818      4D5F4D49 
 10818      4E5F5F20 
 10818      302E3055 
 10819              	.LASF1062:
 10820 3f67 5F5F7569 		.ascii	"__uint32_t\000"
 10820      6E743332 
 10820      5F7400
 10821              	.LASF159:
 10822 3f72 5F5F4C44 		.ascii	"__LDBL_MAX__ 1.7976931348623157e+308L\000"
 10822      424C5F4D 
 10822      41585F5F 
 10822      20312E37 
 10822      39373639 
 10823              	.LASF1183:
 10824 3f98 73656E74 		.ascii	"sent\000"
 10824      00
 10825              	.LASF123:
 10826 3f9d 5F5F464C 		.ascii	"__FLT_RADIX__ 2\000"
 10826      545F5241 
 10826      4449585F 
 10826      5F203200 
 10827              	.LASF885:
 10828 3fad 5353505F 		.ascii	"SSP_CR0_CPOL_LO ((uint32_t) (0))\000"
 10828      4352305F 
 10828      43504F4C 
 10828      5F4C4F20 
 10828      28287569 
 10829              	.LASF1064:
 10830 3fce 6C6F6E67 		.ascii	"long long int\000"
 10830      206C6F6E 
 10830      6720696E 
 10830      7400
 10831              	.LASF738:
 10832 3fdc 46554E43 		.ascii	"FUNC4 0x4\000"
 10832      34203078 
 10832      3400
 10833              	.LASF457:
 10834 3fe6 55494E54 		.ascii	"UINT32_MAX (__UINT32_MAX__)\000"
 10834      33325F4D 
 10834      41582028 
 10834      5F5F5549 
 10834      4E543332 
 10835              	.LASF810:
 10836 4002 55415254 		.ascii	"UART_LCR_BITMASK (0xFF)\000"
 10836      5F4C4352 
 10836      5F424954 
ARM GAS  /var/folders/z0/6xlwn_996xz3mwq1cgzkbq4r0000gp/T//cckgJHwF.s 			page 253


 10836      4D41534B 
 10836      20283078 
 10837              	.LASF165:
 10838 401a 5F5F4C44 		.ascii	"__LDBL_HAS_QUIET_NAN__ 1\000"
 10838      424C5F48 
 10838      41535F51 
 10838      55494554 
 10838      5F4E414E 
 10839              	.LASF999:
 10840 4033 4932435F 		.ascii	"I2C_SETUP_STATUS_DONE (1 << 10)\000"
 10840      53455455 
 10840      505F5354 
 10840      41545553 
 10840      5F444F4E 
 10841              	.LASF685:
 10842 4053 53595343 		.ascii	"SYSCTL_SLPWAKE_SYSOSC_PD (1 << 5)\000"
 10842      544C5F53 
 10842      4C505741 
 10842      4B455F53 
 10842      59534F53 
 10843              	.LASF489:
 10844 4075 57494E54 		.ascii	"WINT_MAX (__WINT_MAX__)\000"
 10844      5F4D4158 
 10844      20285F5F 
 10844      57494E54 
 10844      5F4D4158 
 10845              	.LASF715:
 10846 408d 494F434F 		.ascii	"IOCON_SFI2C_EN (0x0 << 8)\000"
 10846      4E5F5346 
 10846      4932435F 
 10846      454E2028 
 10846      30783020 
 10847              	.LASF1014:
 10848 40a7 43414E5F 		.ascii	"CAN_ERROR_WARN 0x00000002UL\000"
 10848      4552524F 
 10848      525F5741 
 10848      524E2030 
 10848      78303030 
 10849              	.LASF914:
 10850 40c3 4144435F 		.ascii	"ADC_DR_DONE(n) (((n) >> 31))\000"
 10850      44525F44 
 10850      4F4E4528 
 10850      6E292028 
 10850      28286E29 
 10851              	.LASF478:
 10852 40e0 55494E54 		.ascii	"UINT_FAST64_MAX (__UINT_FAST64_MAX__)\000"
 10852      5F464153 
 10852      5436345F 
 10852      4D415820 
 10852      285F5F55 
 10853              	.LASF740:
 10854 4106 46554E43 		.ascii	"FUNC6 0x6\000"
 10854      36203078 
 10854      3600
 10855              	.LASF288:
 10856 4110 5F5F4841 		.ascii	"__HA_IBIT__ 8\000"
 10856      5F494249 
ARM GAS  /var/folders/z0/6xlwn_996xz3mwq1cgzkbq4r0000gp/T//cckgJHwF.s 			page 254


 10856      545F5F20 
 10856      3800
 10857              	.LASF167:
 10858 411e 5F5F4445 		.ascii	"__DEC32_MIN_EXP__ (-94)\000"
 10858      4333325F 
 10858      4D494E5F 
 10858      4558505F 
 10858      5F20282D 
 10859              	.LASF949:
 10860 4136 4932435F 		.ascii	"I2C_CON_STO (1UL << 4)\000"
 10860      434F4E5F 
 10860      53544F20 
 10860      2831554C 
 10860      203C3C20 
 10861              	.LASF620:
 10862 414d 5F424954 		.ascii	"_BIT_SHIFT(IRQn) ( (((uint32_t)(IRQn) ) & 0x03) * 8"
 10862      5F534849 
 10862      46542849 
 10862      52516E29 
 10862      20282028 
 10863 4180 202900   		.ascii	" )\000"
 10864              	.LASF836:
 10865 4183 55415254 		.ascii	"UART_MSR_BITMASK (0xFF)\000"
 10865      5F4D5352 
 10865      5F424954 
 10865      4D41534B 
 10865      20283078 
 10866              	.LASF1217:
 10867 419b 43686970 		.ascii	"Chip_Clock_GetMainClockRate\000"
 10867      5F436C6F 
 10867      636B5F47 
 10867      65744D61 
 10867      696E436C 
 10868              	.LASF831:
 10869 41b7 55415254 		.ascii	"UART_MSR_DELTA_DCD (1 << 3)\000"
 10869      5F4D5352 
 10869      5F44454C 
 10869      54415F44 
 10869      43442028 
 10870              	.LASF856:
 10871 41d3 55415254 		.ascii	"UART_SCICTRL_SCIEN (1 << 0)\000"
 10871      5F534349 
 10871      4354524C 
 10871      5F534349 
 10871      454E2028 
 10872              	.LASF27:
 10873 41ef 5F5F4259 		.ascii	"__BYTE_ORDER__ __ORDER_LITTLE_ENDIAN__\000"
 10873      54455F4F 
 10873      52444552 
 10873      5F5F205F 
 10873      5F4F5244 
 10874              	.LASF1081:
 10875 4216 53595352 		.ascii	"SYSRSTSTAT\000"
 10875      53545354 
 10875      415400
 10876              	.LASF99:
 10877 4221 5F5F494E 		.ascii	"__INT_LEAST64_MAX__ 0x7fffffffffffffffLL\000"
ARM GAS  /var/folders/z0/6xlwn_996xz3mwq1cgzkbq4r0000gp/T//cckgJHwF.s 			page 255


 10877      545F4C45 
 10877      41535436 
 10877      345F4D41 
 10877      585F5F20 
 10878              	.LASF879:
 10879 424a 57574454 		.ascii	"WWDT_WDMOD_WDPROTECT ((uint32_t) (1 << 4))\000"
 10879      5F57444D 
 10879      4F445F57 
 10879      4450524F 
 10879      54454354 
 10880              	.LASF959:
 10881 4275 4932435F 		.ascii	"I2C_I2STAT_M_TX_SLAW_NACK ((0x20))\000"
 10881      49325354 
 10881      41545F4D 
 10881      5F54585F 
 10881      534C4157 
 10882              	.LASF806:
 10883 4298 55415254 		.ascii	"UART_LCR_PARITY_F_1 (2 << 4)\000"
 10883      5F4C4352 
 10883      5F504152 
 10883      4954595F 
 10883      465F3120 
 10884              	.LASF1181:
 10885 42b5 43686970 		.ascii	"Chip_UART_ReadLineStatus\000"
 10885      5F554152 
 10885      545F5265 
 10885      61644C69 
 10885      6E655374 
 10886              	.LASF42:
 10887 42ce 5F5F494E 		.ascii	"__INT64_TYPE__ long long int\000"
 10887      5436345F 
 10887      54595045 
 10887      5F5F206C 
 10887      6F6E6720 
 10888              	.LASF207:
 10889 42eb 5F5F4C46 		.ascii	"__LFRACT_FBIT__ 31\000"
 10889      52414354 
 10889      5F464249 
 10889      545F5F20 
 10889      333100
 10890              	.LASF22:
 10891 42fe 5F5F4348 		.ascii	"__CHAR_BIT__ 8\000"
 10891      41525F42 
 10891      49545F5F 
 10891      203800
 10892              	.LASF320:
 10893 430d 5F5F5349 		.ascii	"__SIZEOF_WCHAR_T__ 4\000"
 10893      5A454F46 
 10893      5F574348 
 10893      41525F54 
 10893      5F5F2034 
 10894              	.LASF368:
 10895 4322 5F5F4253 		.ascii	"__BSD_VISIBLE 1\000"
 10895      445F5649 
 10895      5349424C 
 10895      45203100 
 10896              	.LASF452:
ARM GAS  /var/folders/z0/6xlwn_996xz3mwq1cgzkbq4r0000gp/T//cckgJHwF.s 			page 256


 10897 4332 494E545F 		.ascii	"INT_LEAST16_MIN (-__INT_LEAST16_MAX__ - 1)\000"
 10897      4C454153 
 10897      5431365F 
 10897      4D494E20 
 10897      282D5F5F 
 10898              	.LASF612:
 10899 435d 53797354 		.ascii	"SysTick_CALIB_TENMS_Msk (0xFFFFFFUL << SysTick_VAL_"
 10899      69636B5F 
 10899      43414C49 
 10899      425F5445 
 10899      4E4D535F 
 10900 4390 43555252 		.ascii	"CURRENT_Pos)\000"
 10900      454E545F 
 10900      506F7329 
 10900      00
 10901              	.LASF978:
 10902 439d 4932435F 		.ascii	"I2C_I2STAT_S_RX_STA_STO_SLVREC_SLVTRX ((0xA0))\000"
 10902      49325354 
 10902      41545F53 
 10902      5F52585F 
 10902      5354415F 
 10903              	.LASF1194:
 10904 43cc 43686970 		.ascii	"Chip_UART_Init\000"
 10904      5F554152 
 10904      545F496E 
 10904      697400
 10905              	.LASF569:
 10906 43db 5343425F 		.ascii	"SCB_ICSR_VECTPENDING_Pos 12\000"
 10906      49435352 
 10906      5F564543 
 10906      5450454E 
 10906      44494E47 
 10907              	.LASF923:
 10908 43f7 4144435F 		.ascii	"ADC_CR_START_CTOUT15 ((2UL << 24))\000"
 10908      43525F53 
 10908      54415254 
 10908      5F43544F 
 10908      55543135 
 10909              	.LASF205:
 10910 441a 5F5F5546 		.ascii	"__UFRACT_MAX__ 0XFFFFP-16UR\000"
 10910      52414354 
 10910      5F4D4158 
 10910      5F5F2030 
 10910      58464646 
 10911              	.LASF665:
 10912 4436 5F5F504D 		.ascii	"__PMU_11XX_H_ \000"
 10912      555F3131 
 10912      58585F48 
 10912      5F2000
 10913              	.LASF384:
 10914 4445 5F5F5F69 		.ascii	"___int_least64_t_defined 1\000"
 10914      6E745F6C 
 10914      65617374 
 10914      36345F74 
 10914      5F646566 
 10915              	.LASF989:
 10916 4460 4932435F 		.ascii	"I2C_I2MMCTRL_MATCH_ALL ((1 << 2))\000"
ARM GAS  /var/folders/z0/6xlwn_996xz3mwq1cgzkbq4r0000gp/T//cckgJHwF.s 			page 257


 10916      49324D4D 
 10916      4354524C 
 10916      5F4D4154 
 10916      43485F41 
 10917              	.LASF752:
 10918 4482 54494D45 		.ascii	"TIMER_CAP_FALLING(n) (_BIT((((n) * 3) + 1)))\000"
 10918      525F4341 
 10918      505F4641 
 10918      4C4C494E 
 10918      47286E29 
 10919              	.LASF516:
 10920 44af 4E454C45 		.ascii	"NELEMENTS(array) (sizeof(array) / sizeof(array[0]))"
 10920      4D454E54 
 10920      53286172 
 10920      72617929 
 10920      20287369 
 10921 44e2 00       		.ascii	"\000"
 10922              	.LASF188:
 10923 44e3 5F5F5346 		.ascii	"__SFRACT_IBIT__ 0\000"
 10923      52414354 
 10923      5F494249 
 10923      545F5F20 
 10923      3000
 10924              	.LASF1051:
 10925 44f5 43414E5F 		.ascii	"CAN_SDOSEG_SEGMENT 0\000"
 10925      53444F53 
 10925      45475F53 
 10925      45474D45 
 10925      4E542030 
 10926              	.LASF366:
 10927 450a 5F415446 		.ascii	"_ATFILE_SOURCE 1\000"
 10927      494C455F 
 10927      534F5552 
 10927      43452031 
 10927      00
 10928              	.LASF387:
 10929 451b 5F5F5354 		.ascii	"__STDINT_EXP(x) __ ##x ##__\000"
 10929      44494E54 
 10929      5F455850 
 10929      28782920 
 10929      5F5F2023 
 10930              	.LASF376:
 10931 4537 5F5F4558 		.ascii	"__EXP(x) __ ##x ##__\000"
 10931      50287829 
 10931      205F5F20 
 10931      23237820 
 10931      23235F5F 
 10932              	.LASF1188:
 10933 454c 43686970 		.ascii	"Chip_UART_DisableDivisorAccess\000"
 10933      5F554152 
 10933      545F4469 
 10933      7361626C 
 10933      65446976 
 10934              	.LASF643:
 10935 456b 4C50435F 		.ascii	"LPC_GPIO_PORT2_BASE 0x50020000\000"
 10935      4750494F 
 10935      5F504F52 
ARM GAS  /var/folders/z0/6xlwn_996xz3mwq1cgzkbq4r0000gp/T//cckgJHwF.s 			page 258


 10935      54325F42 
 10935      41534520 
 10936              	.LASF828:
 10937 458a 55415254 		.ascii	"UART_MSR_DELTA_CTS (1 << 0)\000"
 10937      5F4D5352 
 10937      5F44454C 
 10937      54415F43 
 10937      54532028 
 10938              	.LASF732:
 10939 45a6 4D445F46 		.ascii	"MD_FASTI2C (0x2 << 8)\000"
 10939      41535449 
 10939      32432028 
 10939      30783220 
 10939      3C3C2038 
 10940              	.LASF751:
 10941 45bc 54494D45 		.ascii	"TIMER_CAP_RISING(n) (_BIT(((n) * 3)))\000"
 10941      525F4341 
 10941      505F5249 
 10941      53494E47 
 10941      286E2920 
 10942              	.LASF564:
 10943 45e2 5343425F 		.ascii	"SCB_ICSR_PENDSTCLR_Msk (1UL << SCB_ICSR_PENDSTCLR_P"
 10943      49435352 
 10943      5F50454E 
 10943      44535443 
 10943      4C525F4D 
 10944 4615 6F732900 		.ascii	"os)\000"
 10945              	.LASF373:
 10946 4619 5F5F504F 		.ascii	"__POSIX_VISIBLE 200809\000"
 10946      5349585F 
 10946      56495349 
 10946      424C4520 
 10946      32303038 
 10947              	.LASF1155:
 10948 4630 636F756E 		.ascii	"count\000"
 10948      7400
 10949              	.LASF691:
 10950 4636 53595343 		.ascii	"SYSCTL_POWERDOWN_BOD_PD (1 << 3)\000"
 10950      544C5F50 
 10950      4F574552 
 10950      444F574E 
 10950      5F424F44 
 10951              	.LASF1222:
 10952 4657 474E5520 		.ascii	"GNU C89 5.4.1 20160919 (release) [ARM/embedded-5-br"
 10952      43383920 
 10952      352E342E 
 10952      31203230 
 10952      31363039 
 10953 468a 616E6368 		.ascii	"anch revision 240496] -mcpu=cortex-m0 -mthumb -g -g"
 10953      20726576 
 10953      6973696F 
 10953      6E203234 
 10953      30343936 
 10954 46bd 67646233 		.ascii	"gdb3 -O2 -std=gnu90 -ffunction-sections -fdata-sect"
 10954      202D4F32 
 10954      202D7374 
 10954      643D676E 
ARM GAS  /var/folders/z0/6xlwn_996xz3mwq1cgzkbq4r0000gp/T//cckgJHwF.s 			page 259


 10954      75393020 
 10955 46f0 696F6E73 		.ascii	"ions\000"
 10955      00
 10956              	.LASF33:
 10957 46f5 5F5F5749 		.ascii	"__WINT_TYPE__ unsigned int\000"
 10957      4E545F54 
 10957      5950455F 
 10957      5F20756E 
 10957      7369676E 
 10958              	.LASF804:
 10959 4710 55415254 		.ascii	"UART_LCR_PARITY_ODD (0 << 4)\000"
 10959      5F4C4352 
 10959      5F504152 
 10959      4954595F 
 10959      4F444420 
 10960              	.LASF283:
 10961 472d 5F5F5544 		.ascii	"__UDQ_FBIT__ 64\000"
 10961      515F4642 
 10961      49545F5F 
 10961      20363400 
 10962              	.LASF622:
 10963 473d 5F49505F 		.ascii	"_IP_IDX(IRQn) ( ((uint32_t)(IRQn) >> 2) )\000"
 10963      49445828 
 10963      4952516E 
 10963      29202820 
 10963      28287569 
 10964              	.LASF437:
 10965 4767 5F5F696E 		.ascii	"__int_fast16_t_defined 1\000"
 10965      745F6661 
 10965      73743136 
 10965      5F745F64 
 10965      6566696E 
 10966              	.LASF765:
 10967 4780 55415254 		.ascii	"UART_IER_RLSINT (1 << 2)\000"
 10967      5F494552 
 10967      5F524C53 
 10967      494E5420 
 10967      2831203C 
 10968              	.LASF157:
 10969 4799 5F5F4C44 		.ascii	"__LDBL_MAX_10_EXP__ 308\000"
 10969      424C5F4D 
 10969      41585F31 
 10969      305F4558 
 10969      505F5F20 
 10970              	.LASF942:
 10971 47b1 4932435F 		.ascii	"I2C_I2CONCLR_AAC ((1 << 2))\000"
 10971      4932434F 
 10971      4E434C52 
 10971      5F414143 
 10971      20282831 
 10972              	.LASF619:
 10973 47cd 4E564943 		.ascii	"NVIC ((NVIC_Type *) NVIC_BASE )\000"
 10973      2028284E 
 10973      5649435F 
 10973      54797065 
 10973      202A2920 
 10974              	.LASF462:
ARM GAS  /var/folders/z0/6xlwn_996xz3mwq1cgzkbq4r0000gp/T//cckgJHwF.s 			page 260


 10975 47ed 494E5436 		.ascii	"INT64_MAX (__INT64_MAX__)\000"
 10975      345F4D41 
 10975      5820285F 
 10975      5F494E54 
 10975      36345F4D 
 10976              	.LASF1052:
 10977 4807 43414E5F 		.ascii	"CAN_SDOSEG_OPEN 1\000"
 10977      53444F53 
 10977      45475F4F 
 10977      50454E20 
 10977      3100
 10978              	.LASF164:
 10979 4819 5F5F4C44 		.ascii	"__LDBL_HAS_INFINITY__ 1\000"
 10979      424C5F48 
 10979      41535F49 
 10979      4E46494E 
 10979      4954595F 
 10980              	.LASF563:
 10981 4831 5343425F 		.ascii	"SCB_ICSR_PENDSTCLR_Pos 25\000"
 10981      49435352 
 10981      5F50454E 
 10981      44535443 
 10981      4C525F50 
 10982              	.LASF1055:
 10983 484b 756E7369 		.ascii	"unsigned int\000"
 10983      676E6564 
 10983      20696E74 
 10983      00
 10984              	.LASF200:
 10985 4858 5F5F4652 		.ascii	"__FRACT_MAX__ 0X7FFFP-15R\000"
 10985      4143545F 
 10985      4D41585F 
 10985      5F203058 
 10985      37464646 
 10986              	.LASF1084:
 10987 4872 53595350 		.ascii	"SYSPLLCLKUEN\000"
 10987      4C4C434C 
 10987      4B55454E 
 10987      00
 10988              	.LASF126:
 10989 487f 5F5F464C 		.ascii	"__FLT_MIN_EXP__ (-125)\000"
 10989      545F4D49 
 10989      4E5F4558 
 10989      505F5F20 
 10989      282D3132 
 10990              	.LASF122:
 10991 4896 5F5F4445 		.ascii	"__DEC_EVAL_METHOD__ 2\000"
 10991      435F4556 
 10991      414C5F4D 
 10991      4554484F 
 10991      445F5F20 
 10992              	.LASF496:
 10993 48ac 55494E54 		.ascii	"UINT32_C(x) __UINT32_C(x)\000"
 10993      33325F43 
 10993      28782920 
 10993      5F5F5549 
 10993      4E543332 
ARM GAS  /var/folders/z0/6xlwn_996xz3mwq1cgzkbq4r0000gp/T//cckgJHwF.s 			page 261


 10994              	.LASF548:
 10995 48c6 5343425F 		.ascii	"SCB_CPUID_VARIANT_Msk (0xFUL << SCB_CPUID_VARIANT_P"
 10995      43505549 
 10995      445F5641 
 10995      5249414E 
 10995      545F4D73 
 10996 48f9 6F732900 		.ascii	"os)\000"
 10997              	.LASF688:
 10998 48fd 53595343 		.ascii	"SYSCTL_POWERDOWN_IRCOUT_PD (1 << 0)\000"
 10998      544C5F50 
 10998      4F574552 
 10998      444F574E 
 10998      5F495243 
 10999              	.LASF727:
 11000 4921 4D445F44 		.ascii	"MD_DIGMODE (0x1 << 7)\000"
 11000      49474D4F 
 11000      44452028 
 11000      30783120 
 11000      3C3C2037 
 11001              	.LASF233:
 11002 4937 5F5F5553 		.ascii	"__USACCUM_IBIT__ 8\000"
 11002      41434355 
 11002      4D5F4942 
 11002      49545F5F 
 11002      203800
 11003              	.LASF1047:
 11004 494a 4F445F53 		.ascii	"OD_SEG_RW 0x60\000"
 11004      45475F52 
 11004      57203078 
 11004      363000
 11005              	.LASF467:
 11006 4959 494E545F 		.ascii	"INT_FAST8_MIN (-__INT_FAST8_MAX__ - 1)\000"
 11006      46415354 
 11006      385F4D49 
 11006      4E20282D 
 11006      5F5F494E 
 11007              	.LASF730:
 11008 4980 4D445F53 		.ascii	"MD_SFI2C (0x0 << 8)\000"
 11008      46493243 
 11008      20283078 
 11008      30203C3C 
 11008      20382900 
 11009              	.LASF125:
 11010 4994 5F5F464C 		.ascii	"__FLT_DIG__ 6\000"
 11010      545F4449 
 11010      475F5F20 
 11010      3600
 11011              	.LASF35:
 11012 49a2 5F5F5549 		.ascii	"__UINTMAX_TYPE__ long long unsigned int\000"
 11012      4E544D41 
 11012      585F5459 
 11012      50455F5F 
 11012      206C6F6E 
 11013              	.LASF847:
 11014 49ca 55415254 		.ascii	"UART_RS485CTRL_DCTRL_EN (1 << 4)\000"
 11014      5F525334 
 11014      38354354 
ARM GAS  /var/folders/z0/6xlwn_996xz3mwq1cgzkbq4r0000gp/T//cckgJHwF.s 			page 262


 11014      524C5F44 
 11014      4354524C 
 11015              	.LASF471:
 11016 49eb 494E545F 		.ascii	"INT_FAST16_MAX (__INT_FAST16_MAX__)\000"
 11016      46415354 
 11016      31365F4D 
 11016      41582028 
 11016      5F5F494E 
 11017              	.LASF121:
 11018 4a0f 5F5F464C 		.ascii	"__FLT_EVAL_METHOD__ 0\000"
 11018      545F4556 
 11018      414C5F4D 
 11018      4554484F 
 11018      445F5F20 
 11019              	.LASF817:
 11020 4a25 55415254 		.ascii	"UART_LSR_RDR (1 << 0)\000"
 11020      5F4C5352 
 11020      5F524452 
 11020      20283120 
 11020      3C3C2030 
 11021              	.LASF68:
 11022 4a3b 5F5F5343 		.ascii	"__SCHAR_MAX__ 0x7f\000"
 11022      4841525F 
 11022      4D41585F 
 11022      5F203078 
 11022      376600
 11023              	.LASF840:
 11024 4a4e 55415254 		.ascii	"UART_ACR_ABEOINT_CLR (1 << 8)\000"
 11024      5F414352 
 11024      5F414245 
 11024      4F494E54 
 11024      5F434C52 
 11025              	.LASF1224:
 11026 4a6c 2F557365 		.ascii	"/Users/tukyab/Documents/MIT/FSAE/csb/charger_shutdo"
 11026      72732F74 
 11026      756B7961 
 11026      622F446F 
 11026      63756D65 
 11027 4a9f 776E5F62 		.ascii	"wn_board\000"
 11027      6F617264 
 11027      00
 11028              	.LASF406:
 11029 4aa8 5F5F494E 		.ascii	"__INT16 \"h\"\000"
 11029      54313620 
 11029      22682200 
 11030              	.LASF522:
 11031 4ab4 494E4C49 		.ascii	"INLINE inline\000"
 11031      4E452069 
 11031      6E6C696E 
 11031      6500
 11032              	.LASF756:
 11033 4ac2 52425F56 		.ascii	"RB_VHEAD(rb) ((volatile uint32_t)(rb->head))\000"
 11033      48454144 
 11033      28726229 
 11033      20282876 
 11033      6F6C6174 
 11034              	.LASF913:
ARM GAS  /var/folders/z0/6xlwn_996xz3mwq1cgzkbq4r0000gp/T//cckgJHwF.s 			page 263


 11035 4aef 4144435F 		.ascii	"ADC_CR_BITACC(n) ((((n) & 0x7) << 17))\000"
 11035      43525F42 
 11035      49544143 
 11035      43286E29 
 11035      20282828 
 11036              	.LASF1212:
 11037 4b16 75436C6B 		.ascii	"uClk\000"
 11037      00
 11038              	.LASF277:
 11039 4b1b 5F5F5551 		.ascii	"__UQQ_FBIT__ 8\000"
 11039      515F4642 
 11039      49545F5F 
 11039      203800
 11040              	.LASF606:
 11041 4b2a 53797354 		.ascii	"SysTick_VAL_CURRENT_Msk (0xFFFFFFUL << SysTick_VAL_"
 11041      69636B5F 
 11041      56414C5F 
 11041      43555252 
 11041      454E545F 
 11042 4b5d 43555252 		.ascii	"CURRENT_Pos)\000"
 11042      454E545F 
 11042      506F7329 
 11042      00
 11043              	.LASF174:
 11044 4b6a 5F5F4445 		.ascii	"__DEC64_MIN_EXP__ (-382)\000"
 11044      4336345F 
 11044      4D494E5F 
 11044      4558505F 
 11044      5F20282D 
 11045              	.LASF1090:
 11046 4b83 53595341 		.ascii	"SYSAHBCLKDIV\000"
 11046      4842434C 
 11046      4B444956 
 11046      00
 11047              	.LASF956:
 11048 4b90 4932435F 		.ascii	"I2C_I2STAT_M_TX_START ((0x08))\000"
 11048      49325354 
 11048      41545F4D 
 11048      5F54585F 
 11048      53544152 
 11049              	.LASF764:
 11050 4baf 55415254 		.ascii	"UART_IER_THREINT (1 << 1)\000"
 11050      5F494552 
 11050      5F544852 
 11050      45494E54 
 11050      20283120 
 11051              	.LASF398:
 11052 4bc9 63686172 		.ascii	"char +0\000"
 11052      202B3000 
 11053              	.LASF210:
 11054 4bd1 5F5F4C46 		.ascii	"__LFRACT_MAX__ 0X7FFFFFFFP-31LR\000"
 11054      52414354 
 11054      5F4D4158 
 11054      5F5F2030 
 11054      58374646 
 11055              	.LASF322:
 11056 4bf1 5F5F5349 		.ascii	"__SIZEOF_PTRDIFF_T__ 4\000"
ARM GAS  /var/folders/z0/6xlwn_996xz3mwq1cgzkbq4r0000gp/T//cckgJHwF.s 			page 264


 11056      5A454F46 
 11056      5F505452 
 11056      44494646 
 11056      5F545F5F 
 11057              	.LASF521:
 11058 4c08 4D494E28 		.ascii	"MIN(a,b) (((a) < (b)) ? (a) : (b))\000"
 11058      612C6229 
 11058      20282828 
 11058      6129203C 
 11058      20286229 
 11059              	.LASF0:
 11060 4c2b 5F5F5354 		.ascii	"__STDC__ 1\000"
 11060      44435F5F 
 11060      203100
 11061              	.LASF936:
 11062 4c36 4932435F 		.ascii	"I2C_STA_STO_RECV 0x20\000"
 11062      5354415F 
 11062      53544F5F 
 11062      52454356 
 11062      20307832 
 11063              	.LASF1128:
 11064 4c4c 5044534C 		.ascii	"PDSLEEPCFG\000"
 11064      45455043 
 11064      464700
 11065              	.LASF381:
 11066 4c57 5F5F5F69 		.ascii	"___int_least8_t_defined 1\000"
 11066      6E745F6C 
 11066      65617374 
 11066      385F745F 
 11066      64656669 
 11067              	.LASF1213:
 11068 4c71 6476616C 		.ascii	"dval\000"
 11068      00
 11069              	.LASF28:
 11070 4c76 5F5F464C 		.ascii	"__FLOAT_WORD_ORDER__ __ORDER_LITTLE_ENDIAN__\000"
 11070      4F41545F 
 11070      574F5244 
 11070      5F4F5244 
 11070      45525F5F 
 11071              	.LASF480:
 11072 4ca3 494E544D 		.ascii	"INTMAX_MIN (-INTMAX_MAX - 1)\000"
 11072      41585F4D 
 11072      494E2028 
 11072      2D494E54 
 11072      4D41585F 
 11073              	.LASF43:
 11074 4cc0 5F5F5549 		.ascii	"__UINT8_TYPE__ unsigned char\000"
 11074      4E54385F 
 11074      54595045 
 11074      5F5F2075 
 11074      6E736967 
 11075              	.LASF947:
 11076 4cdd 4932435F 		.ascii	"I2C_CON_AA (1UL << 2)\000"
 11076      434F4E5F 
 11076      41412028 
 11076      31554C20 
 11076      3C3C2032 
ARM GAS  /var/folders/z0/6xlwn_996xz3mwq1cgzkbq4r0000gp/T//cckgJHwF.s 			page 265


 11077              	.LASF881:
 11078 4cf3 5353505F 		.ascii	"SSP_CR0_DSS(n) ((uint32_t) ((n) & 0xF))\000"
 11078      4352305F 
 11078      44535328 
 11078      6E292028 
 11078      2875696E 
 11079              	.LASF436:
 11080 4d1b 5F5F696E 		.ascii	"__int_fast8_t_defined 1\000"
 11080      745F6661 
 11080      7374385F 
 11080      745F6465 
 11080      66696E65 
 11081              	.LASF972:
 11082 4d33 4932435F 		.ascii	"I2C_I2STAT_S_RX_GENCALL_ACK ((0x70))\000"
 11082      49325354 
 11082      41545F53 
 11082      5F52585F 
 11082      47454E43 
 11083              	.LASF737:
 11084 4d58 46554E43 		.ascii	"FUNC3 0x3\000"
 11084      33203078 
 11084      3300
 11085              	.LASF695:
 11086 4d62 53595343 		.ascii	"SYSCTL_POWERDOWN_SYSPLL_PD (1 << 7)\000"
 11086      544C5F50 
 11086      4F574552 
 11086      444F574E 
 11086      5F535953 
 11087              	.LASF1121:
 11088 4d86 53544152 		.ascii	"STARTAPRP0\000"
 11088      54415052 
 11088      503000
 11089              	.LASF180:
 11090 4d91 5F5F4445 		.ascii	"__DEC128_MANT_DIG__ 34\000"
 11090      43313238 
 11090      5F4D414E 
 11090      545F4449 
 11090      475F5F20 
 11091              	.LASF441:
 11092 4da8 494E5450 		.ascii	"INTPTR_MAX (__INTPTR_MAX__)\000"
 11092      54525F4D 
 11092      41582028 
 11092      5F5F494E 
 11092      54505452 
 11093              	.LASF504:
 11094 4dc4 74727565 		.ascii	"true 1\000"
 11094      203100
 11095              	.LASF703:
 11096 4dcb 494F434F 		.ascii	"IOCON_FUNC4 0x4\000"
 11096      4E5F4655 
 11096      4E433420 
 11096      30783400 
 11097              	.LASF297:
 11098 4ddb 5F5F5553 		.ascii	"__USA_FBIT__ 16\000"
 11098      415F4642 
 11098      49545F5F 
 11098      20313600 
ARM GAS  /var/folders/z0/6xlwn_996xz3mwq1cgzkbq4r0000gp/T//cckgJHwF.s 			page 266


 11099              	.LASF747:
 11100 4deb 54494D45 		.ascii	"TIMER_RESET ((uint32_t) (1 << 1))\000"
 11100      525F5245 
 11100      53455420 
 11100      28287569 
 11100      6E743332 
 11101              	.LASF614:
 11102 4e0d 53797354 		.ascii	"SysTick_BASE (SCS_BASE + 0x0010UL)\000"
 11102      69636B5F 
 11102      42415345 
 11102      20285343 
 11102      535F4241 
 11103              	.LASF803:
 11104 4e30 55415254 		.ascii	"UART_LCR_PARITY_DIS (0 << 3)\000"
 11104      5F4C4352 
 11104      5F504152 
 11104      4954595F 
 11104      44495320 
 11105              	.LASF155:
 11106 4e4d 5F5F4C44 		.ascii	"__LDBL_MIN_10_EXP__ (-307)\000"
 11106      424C5F4D 
 11106      494E5F31 
 11106      305F4558 
 11106      505F5F20 
 11107              	.LASF848:
 11108 4e68 55415254 		.ascii	"UART_RS485CTRL_OINV_1 (1 << 5)\000"
 11108      5F525334 
 11108      38354354 
 11108      524C5F4F 
 11108      494E565F 
 11109              	.LASF308:
 11110 4e87 5F5F4743 		.ascii	"__GCC_ATOMIC_CHAR_LOCK_FREE 1\000"
 11110      435F4154 
 11110      4F4D4943 
 11110      5F434841 
 11110      525F4C4F 
 11111              	.LASF367:
 11112 4ea5 5F5F4154 		.ascii	"__ATFILE_VISIBLE 1\000"
 11112      46494C45 
 11112      5F564953 
 11112      49424C45 
 11112      203100
 11113              	.LASF1086:
 11114 4eb8 55534250 		.ascii	"USBPLLCLKUEN\000"
 11114      4C4C434C 
 11114      4B55454E 
 11114      00
 11115              	.LASF208:
 11116 4ec5 5F5F4C46 		.ascii	"__LFRACT_IBIT__ 0\000"
 11116      52414354 
 11116      5F494249 
 11116      545F5F20 
 11116      3000
 11117              	.LASF211:
 11118 4ed7 5F5F4C46 		.ascii	"__LFRACT_EPSILON__ 0x1P-31LR\000"
 11118      52414354 
 11118      5F455053 
ARM GAS  /var/folders/z0/6xlwn_996xz3mwq1cgzkbq4r0000gp/T//cckgJHwF.s 			page 267


 11118      494C4F4E 
 11118      5F5F2030 
 11119              	.LASF591:
 11120 4ef4 5343425F 		.ascii	"SCB_CCR_UNALIGN_TRP_Pos 3\000"
 11120      4343525F 
 11120      554E414C 
 11120      49474E5F 
 11120      5452505F 
 11121              	.LASF323:
 11122 4f0e 5F5F4152 		.ascii	"__ARM_SIZEOF_MINIMAL_ENUM 1\000"
 11122      4D5F5349 
 11122      5A454F46 
 11122      5F4D494E 
 11122      494D414C 
 11123              	.LASF866:
 11124 4f2a 55415254 		.ascii	"UART_SYNCCTRL_SYNC (1 << 0)\000"
 11124      5F53594E 
 11124      43435452 
 11124      4C5F5359 
 11124      4E432028 
 11125              	.LASF594:
 11126 4f46 5343425F 		.ascii	"SCB_SHCSR_SVCALLPENDED_Msk (1UL << SCB_SHCSR_SVCALL"
 11126      53484353 
 11126      525F5356 
 11126      43414C4C 
 11126      50454E44 
 11127 4f79 50454E44 		.ascii	"PENDED_Pos)\000"
 11127      45445F50 
 11127      6F732900 
 11128              	.LASF1180:
 11129 4f85 52696E67 		.ascii	"RingBuffer_IsEmpty\000"
 11129      42756666 
 11129      65725F49 
 11129      73456D70 
 11129      747900
 11130              	.LASF326:
 11131 4f98 5F5F6172 		.ascii	"__arm__ 1\000"
 11131      6D5F5F20 
 11131      3100
 11132              	.LASF708:
 11133 4fa2 494F434F 		.ascii	"IOCON_MODE_PULLDOWN (0x1 << 3)\000"
 11133      4E5F4D4F 
 11133      44455F50 
 11133      554C4C44 
 11133      4F574E20 
 11134              	.LASF1044:
 11135 4fc1 4F445F45 		.ascii	"OD_EXP_RW 0x30\000"
 11135      58505F52 
 11135      57203078 
 11135      333000
 11136              	.LASF635:
 11137 4fd0 4C50435F 		.ascii	"LPC_SSP0_BASE 0x40040000\000"
 11137      53535030 
 11137      5F424153 
 11137      45203078 
 11137      34303034 
 11138              	.LASF402:
ARM GAS  /var/folders/z0/6xlwn_996xz3mwq1cgzkbq4r0000gp/T//cckgJHwF.s 			page 268


 11139 4fe9 6C6F6E67 		.ascii	"long +4\000"
 11139      202B3400 
 11140              	.LASF980:
 11141 4ff1 4932435F 		.ascii	"I2C_I2STAT_S_TX_ARB_LOST_M_SLA ((0xB0))\000"
 11141      49325354 
 11141      41545F53 
 11141      5F54585F 
 11141      4152425F 
 11142              	.LASF973:
 11143 5019 4932435F 		.ascii	"I2C_I2STAT_S_RX_ARB_LOST_M_GENCALL ((0x78))\000"
 11143      49325354 
 11143      41545F53 
 11143      5F52585F 
 11143      4152425F 
 11144              	.LASF525:
 11145 5045 5F5F434D 		.ascii	"__CMSIS_H_ \000"
 11145      5349535F 
 11145      485F2000 
 11146              	.LASF449:
 11147 5051 494E5431 		.ascii	"INT16_MIN (-__INT16_MAX__ - 1)\000"
 11147      365F4D49 
 11147      4E20282D 
 11147      5F5F494E 
 11147      5431365F 
 11148              	.LASF1226:
 11149 5070 43686970 		.ascii	"Chip_UART_RXIntHandlerRB\000"
 11149      5F554152 
 11149      545F5258 
 11149      496E7448 
 11149      616E646C 
 11150              	.LASF953:
 11151 5089 4932435F 		.ascii	"I2C_STAT_CODE_ERROR ((0xFF))\000"
 11151      53544154 
 11151      5F434F44 
 11151      455F4552 
 11151      524F5220 
 11152              	.LASF782:
 11153 50a6 55415254 		.ascii	"UART_IIR_INTID_THRE (1 << 1)\000"
 11153      5F494952 
 11153      5F494E54 
 11153      49445F54 
 11153      48524520 
 11154              	.LASF166:
 11155 50c3 5F5F4445 		.ascii	"__DEC32_MANT_DIG__ 7\000"
 11155      4333325F 
 11155      4D414E54 
 11155      5F444947 
 11155      5F5F2037 
 11156              	.LASF476:
 11157 50d8 494E545F 		.ascii	"INT_FAST64_MIN (-__INT_FAST64_MAX__ - 1)\000"
 11157      46415354 
 11157      36345F4D 
 11157      494E2028 
 11157      2D5F5F49 
 11158              	.LASF350:
 11159 5101 5F4D4143 		.ascii	"_MACHINE__DEFAULT_TYPES_H \000"
 11159      48494E45 
ARM GAS  /var/folders/z0/6xlwn_996xz3mwq1cgzkbq4r0000gp/T//cckgJHwF.s 			page 269


 11159      5F5F4445 
 11159      4641554C 
 11159      545F5459 
 11160              	.LASF23:
 11161 511c 5F5F4249 		.ascii	"__BIGGEST_ALIGNMENT__ 8\000"
 11161      47474553 
 11161      545F414C 
 11161      49474E4D 
 11161      454E545F 
 11162              	.LASF982:
 11163 5134 4932435F 		.ascii	"I2C_I2STAT_S_TX_DAT_NACK ((0xC0))\000"
 11163      49325354 
 11163      41545F53 
 11163      5F54585F 
 11163      4441545F 
 11164              	.LASF234:
 11165 5156 5F5F5553 		.ascii	"__USACCUM_MIN__ 0.0UHK\000"
 11165      41434355 
 11165      4D5F4D49 
 11165      4E5F5F20 
 11165      302E3055 
 11166              	.LASF583:
 11167 516d 5343425F 		.ascii	"SCB_SCR_SEVONPEND_Pos 4\000"
 11167      5343525F 
 11167      5345564F 
 11167      4E50454E 
 11167      445F506F 
 11168              	.LASF711:
 11169 5185 494F434F 		.ascii	"IOCON_HYS_EN (0x1 << 5)\000"
 11169      4E5F4859 
 11169      535F454E 
 11169      20283078 
 11169      31203C3C 
 11170              	.LASF1159:
 11171 519d 52494E47 		.ascii	"RINGBUFF_T\000"
 11171      42554646 
 11171      5F5400
 11172              	.LASF908:
 11173 51a8 5F5F4C50 		.ascii	"__LPC_ERROR_H__ \000"
 11173      435F4552 
 11173      524F525F 
 11173      485F5F20 
 11173      00
 11174              	.LASF416:
 11175 51b9 5F5F4C45 		.ascii	"__LEAST64 \"ll\"\000"
 11175      41535436 
 11175      3420226C 
 11175      6C2200
 11176              	.LASF1089:
 11177 51c8 4D41494E 		.ascii	"MAINCLKUEN\000"
 11177      434C4B55 
 11177      454E00
 11178              	.LASF1009:
 11179 51d3 4932435F 		.ascii	"I2C_MONITOR_CFG_SCL_OUTPUT I2C_I2MMCTRL_ENA_SCL\000"
 11179      4D4F4E49 
 11179      544F525F 
 11179      4346475F 
ARM GAS  /var/folders/z0/6xlwn_996xz3mwq1cgzkbq4r0000gp/T//cckgJHwF.s 			page 270


 11179      53434C5F 
 11180              	.LASF961:
 11181 5203 4932435F 		.ascii	"I2C_I2STAT_M_TX_DAT_NACK ((0x30))\000"
 11181      49325354 
 11181      41545F4D 
 11181      5F54585F 
 11181      4441545F 
 11182              	.LASF891:
 11183 5225 5353505F 		.ascii	"SSP_CR1_LBM_EN ((uint32_t) (1 << 0))\000"
 11183      4352315F 
 11183      4C424D5F 
 11183      454E2028 
 11183      2875696E 
 11184              	.LASF565:
 11185 524a 5343425F 		.ascii	"SCB_ICSR_ISRPREEMPT_Pos 23\000"
 11185      49435352 
 11185      5F495352 
 11185      50524545 
 11185      4D50545F 
 11186              	.LASF555:
 11187 5265 5343425F 		.ascii	"SCB_ICSR_NMIPENDSET_Pos 31\000"
 11187      49435352 
 11187      5F4E4D49 
 11187      50454E44 
 11187      5345545F 
 11188              	.LASF1039:
 11189 5280 53444F5F 		.ascii	"SDO_ABORT_LOCAL 0x08000021UL\000"
 11189      41424F52 
 11189      545F4C4F 
 11189      43414C20 
 11189      30783038 
 11190              	.LASF755:
 11191 529d 5F5F5249 		.ascii	"__RING_BUFFER_H_ \000"
 11191      4E475F42 
 11191      55464645 
 11191      525F485F 
 11191      2000
 11192              	.LASF330:
 11193 52af 5F5F4152 		.ascii	"__ARM_ARCH_ISA_THUMB 1\000"
 11193      4D5F4152 
 11193      43485F49 
 11193      53415F54 
 11193      48554D42 
 11194              	.LASF1197:
 11195 52c6 43686970 		.ascii	"Chip_UART_SendBlocking\000"
 11195      5F554152 
 11195      545F5365 
 11195      6E64426C 
 11195      6F636B69 
 11196              	.LASF531:
 11197 52dd 5F5F434D 		.ascii	"__CM0_CMSIS_VERSION_MAIN (0x03)\000"
 11197      305F434D 
 11197      5349535F 
 11197      56455253 
 11197      494F4E5F 
 11198              	.LASF72:
 11199 52fd 5F5F4C4F 		.ascii	"__LONG_LONG_MAX__ 0x7fffffffffffffffLL\000"
ARM GAS  /var/folders/z0/6xlwn_996xz3mwq1cgzkbq4r0000gp/T//cckgJHwF.s 			page 271


 11199      4E475F4C 
 11199      4F4E475F 
 11199      4D41585F 
 11199      5F203078 
 11200              	.LASF870:
 11201 5324 55415254 		.ascii	"UART_SYNCCTRL_CSCEN (1 << 4)\000"
 11201      5F53594E 
 11201      43435452 
 11201      4C5F4353 
 11201      43454E20 
 11202              	.LASF395:
 11203 5341 6C6F6E67 		.ascii	"long\000"
 11203      00
 11204              	.LASF1077:
 11205 5346 5359534F 		.ascii	"SYSOSCCTRL\000"
 11205      53434354 
 11205      524C00
 11206              	.LASF796:
 11207 5351 55415254 		.ascii	"UART_LCR_WLEN6 (1 << 0)\000"
 11207      5F4C4352 
 11207      5F574C45 
 11207      4E362028 
 11207      31203C3C 
 11208              	.LASF948:
 11209 5369 4932435F 		.ascii	"I2C_CON_SI (1UL << 3)\000"
 11209      434F4E5F 
 11209      53492028 
 11209      31554C20 
 11209      3C3C2033 
 11210              	.LASF203:
 11211 537f 5F5F5546 		.ascii	"__UFRACT_IBIT__ 0\000"
 11211      52414354 
 11211      5F494249 
 11211      545F5F20 
 11211      3000
 11212              	.LASF944:
 11213 5391 4932435F 		.ascii	"I2C_I2CONCLR_STOC ((1 << 4))\000"
 11213      4932434F 
 11213      4E434C52 
 11213      5F53544F 
 11213      43202828 
 11214              	.LASF613:
 11215 53ae 5343535F 		.ascii	"SCS_BASE (0xE000E000UL)\000"
 11215      42415345 
 11215      20283078 
 11215      45303030 
 11215      45303030 
 11216              	.LASF94:
 11217 53c6 5F5F494E 		.ascii	"__INT8_C(c) c\000"
 11217      54385F43 
 11217      28632920 
 11217      6300
 11218              	.LASF25:
 11219 53d4 5F5F4F52 		.ascii	"__ORDER_BIG_ENDIAN__ 4321\000"
 11219      4445525F 
 11219      4249475F 
 11219      454E4449 
ARM GAS  /var/folders/z0/6xlwn_996xz3mwq1cgzkbq4r0000gp/T//cckgJHwF.s 			page 272


 11219      414E5F5F 
 11220              	.LASF741:
 11221 53ee 46554E43 		.ascii	"FUNC7 0x7\000"
 11221      37203078 
 11221      3700
 11222              	.LASF529:
 11223 53f8 5F5F5665 		.ascii	"__Vendor_SysTickConfig 0\000"
 11223      6E646F72 
 11223      5F537973 
 11223      5469636B 
 11223      436F6E66 
 11224              	.LASF759:
 11225 5411 55415254 		.ascii	"UART_LOAD_DLL(div) ((div) & 0xFF)\000"
 11225      5F4C4F41 
 11225      445F444C 
 11225      4C286469 
 11225      76292028 
 11226              	.LASF554:
 11227 5433 5343425F 		.ascii	"SCB_CPUID_REVISION_Msk (0xFUL << SCB_CPUID_REVISION"
 11227      43505549 
 11227      445F5245 
 11227      56495349 
 11227      4F4E5F4D 
 11228 5466 5F506F73 		.ascii	"_Pos)\000"
 11228      2900
 11229              	.LASF317:
 11230 546c 5F5F4743 		.ascii	"__GCC_ATOMIC_POINTER_LOCK_FREE 1\000"
 11230      435F4154 
 11230      4F4D4943 
 11230      5F504F49 
 11230      4E544552 
 11231              	.LASF140:
 11232 548d 5F5F4442 		.ascii	"__DBL_MIN_EXP__ (-1021)\000"
 11232      4C5F4D49 
 11232      4E5F4558 
 11232      505F5F20 
 11232      282D3130 
 11233              	.LASF515:
 11234 54a5 4E554C4C 		.ascii	"NULL ((void *) 0)\000"
 11234      20282876 
 11234      6F696420 
 11234      2A292030 
 11234      2900
 11235              	.LASF1000:
 11236 54b7 4932435F 		.ascii	"I2C_OK 0x00\000"
 11236      4F4B2030 
 11236      78303000 
 11237              	.LASF1201:
 11238 54c3 64697668 		.ascii	"divh\000"
 11238      00
 11239              	.LASF310:
 11240 54c8 5F5F4743 		.ascii	"__GCC_ATOMIC_CHAR32_T_LOCK_FREE 1\000"
 11240      435F4154 
 11240      4F4D4943 
 11240      5F434841 
 11240      5233325F 
 11241              	.LASF173:
ARM GAS  /var/folders/z0/6xlwn_996xz3mwq1cgzkbq4r0000gp/T//cckgJHwF.s 			page 273


 11242 54ea 5F5F4445 		.ascii	"__DEC64_MANT_DIG__ 16\000"
 11242      4336345F 
 11242      4D414E54 
 11242      5F444947 
 11242      5F5F2031 
 11243              	.LASF790:
 11244 5500 55415254 		.ascii	"UART_FCR_TRG_LEV0 (0)\000"
 11244      5F464352 
 11244      5F545247 
 11244      5F4C4556 
 11244      30202830 
 11245              	.LASF1202:
 11246 5516 6469766C 		.ascii	"divl\000"
 11246      00
 11247              	.LASF1137:
 11248 551b 53595343 		.ascii	"SYSCTL_CLOCK_FLASHREG\000"
 11248      544C5F43 
 11248      4C4F434B 
 11248      5F464C41 
 11248      53485245 
 11249              	.LASF833:
 11250 5531 55415254 		.ascii	"UART_MSR_DSR (1 << 5)\000"
 11250      5F4D5352 
 11250      5F445352 
 11250      20283120 
 11250      3C3C2035 
 11251              	.LASF969:
 11252 5547 4932435F 		.ascii	"I2C_I2STAT_M_RX_DAT_NACK ((0x58))\000"
 11252      49325354 
 11252      41545F4D 
 11252      5F52585F 
 11252      4441545F 
 11253              	.LASF500:
 11254 5569 55494E54 		.ascii	"UINTMAX_C(x) __UINTMAX_C(x)\000"
 11254      4D41585F 
 11254      43287829 
 11254      205F5F55 
 11254      494E544D 
 11255              	.LASF372:
 11256 5585 5F5F4D49 		.ascii	"__MISC_VISIBLE 1\000"
 11256      53435F56 
 11256      49534942 
 11256      4C452031 
 11256      00
 11257              	.LASF1227:
 11258 5596 4F736352 		.ascii	"OscRateIn\000"
 11258      61746549 
 11258      6E00
 11259              	.LASF385:
 11260 55a0 5F5F4558 		.ascii	"__EXP\000"
 11260      5000
 11261              	.LASF713:
 11262 55a6 494F434F 		.ascii	"IOCON_ADMODE_EN (0x0 << 7)\000"
 11262      4E5F4144 
 11262      4D4F4445 
 11262      5F454E20 
 11262      28307830 
ARM GAS  /var/folders/z0/6xlwn_996xz3mwq1cgzkbq4r0000gp/T//cckgJHwF.s 			page 274


 11263              	.LASF380:
 11264 55c1 5F5F5F69 		.ascii	"___int64_t_defined 1\000"
 11264      6E743634 
 11264      5F745F64 
 11264      6566696E 
 11264      65642031 
 11265              	.LASF163:
 11266 55d6 5F5F4C44 		.ascii	"__LDBL_HAS_DENORM__ 1\000"
 11266      424C5F48 
 11266      41535F44 
 11266      454E4F52 
 11266      4D5F5F20 
 11267              	.LASF605:
 11268 55ec 53797354 		.ascii	"SysTick_VAL_CURRENT_Pos 0\000"
 11268      69636B5F 
 11268      56414C5F 
 11268      43555252 
 11268      454E545F 
 11269              	.LASF761:
 11270 5606 55415254 		.ascii	"UART_LOAD_DLM(div) (((div) >> 8) & 0xFF)\000"
 11270      5F4C4F41 
 11270      445F444C 
 11270      4D286469 
 11270      76292028 
 11271              	.LASF763:
 11272 562f 55415254 		.ascii	"UART_IER_RBRINT (1 << 0)\000"
 11272      5F494552 
 11272      5F524252 
 11272      494E5420 
 11272      2831203C 
 11273              	.LASF1160:
 11274 5648 53594E43 		.ascii	"SYNCCTRL\000"
 11274      4354524C 
 11274      00
 11275              	.LASF108:
 11276 5651 5F5F5549 		.ascii	"__UINT64_C(c) c ## ULL\000"
 11276      4E543634 
 11276      5F432863 
 11276      29206320 
 11276      23232055 
 11277              	.LASF346:
 11278 5668 43414E5F 		.ascii	"CAN_ARCHITECTURE_ARM 1\000"
 11278      41524348 
 11278      49544543 
 11278      54555245 
 11278      5F41524D 
 11279              	.LASF983:
 11280 567f 4932435F 		.ascii	"I2C_I2STAT_S_TX_LAST_DAT_ACK ((0xC8))\000"
 11280      49325354 
 11280      41545F53 
 11280      5F54585F 
 11280      4C415354 
 11281              	.LASF49:
 11282 56a5 5F5F494E 		.ascii	"__INT_LEAST32_TYPE__ long int\000"
 11282      545F4C45 
 11282      41535433 
 11282      325F5459 
ARM GAS  /var/folders/z0/6xlwn_996xz3mwq1cgzkbq4r0000gp/T//cckgJHwF.s 			page 275


 11282      50455F5F 
 11283              	.LASF1147:
 11284 56c3 53595343 		.ascii	"SYSCTL_CLOCK_ADC\000"
 11284      544C5F43 
 11284      4C4F434B 
 11284      5F414443 
 11284      00
 11285              	.LASF729:
 11286 56d4 4D445F45 		.ascii	"MD_ENFIL (0x1 << 8)\000"
 11286      4E46494C 
 11286      20283078 
 11286      31203C3C 
 11286      20382900 
 11287              	.LASF1034:
 11288 56e8 53444F5F 		.ascii	"SDO_ABORT_ACCINCOMP 0x06040047UL\000"
 11288      41424F52 
 11288      545F4143 
 11288      43494E43 
 11288      4F4D5020 
 11289              	.LASF1166:
 11290 5709 52533438 		.ascii	"RS485CTRL\000"
 11290      35435452 
 11290      4C00
 11291              	.LASF116:
 11292 5713 5F5F5549 		.ascii	"__UINT_FAST64_MAX__ 0xffffffffffffffffULL\000"
 11292      4E545F46 
 11292      41535436 
 11292      345F4D41 
 11292      585F5F20 
 11293              	.LASF933:
 11294 573d 5245545F 		.ascii	"RET_SLAVE_RX 5\000"
 11294      534C4156 
 11294      455F5258 
 11294      203500
 11295              	.LASF1030:
 11296 574c 53444F5F 		.ascii	"SDO_ABORT_WRITEONLY 0x06010001UL\000"
 11296      41424F52 
 11296      545F5752 
 11296      4954454F 
 11296      4E4C5920 
 11297              	.LASF356:
 11298 576d 5F5F4E45 		.ascii	"__NEWLIB_PATCHLEVEL__ 0\000"
 11298      574C4942 
 11298      5F504154 
 11298      43484C45 
 11298      56454C5F 
 11299              	.LASF876:
 11300 5785 57574454 		.ascii	"WWDT_WDMOD_WDRESET ((uint32_t) (1 << 1))\000"
 11300      5F57444D 
 11300      4F445F57 
 11300      44524553 
 11300      45542028 
 11301              	.LASF24:
 11302 57ae 5F5F4F52 		.ascii	"__ORDER_LITTLE_ENDIAN__ 1234\000"
 11302      4445525F 
 11302      4C495454 
 11302      4C455F45 
ARM GAS  /var/folders/z0/6xlwn_996xz3mwq1cgzkbq4r0000gp/T//cckgJHwF.s 			page 276


 11302      4E444941 
 11303              	.LASF994:
 11304 57cb 4932435F 		.ascii	"I2C_I2MASK_MASK(n) ((n & 0xFE))\000"
 11304      49324D41 
 11304      534B5F4D 
 11304      41534B28 
 11304      6E292028 
 11305              	.LASF1065:
 11306 57eb 6C6F6E67 		.ascii	"long long unsigned int\000"
 11306      206C6F6E 
 11306      6720756E 
 11306      7369676E 
 11306      65642069 
 11307              	.LASF466:
 11308 5802 55494E54 		.ascii	"UINT_LEAST64_MAX (__UINT_LEAST64_MAX__)\000"
 11308      5F4C4541 
 11308      53543634 
 11308      5F4D4158 
 11308      20285F5F 
 11309              	.LASF253:
 11310 582a 5F5F554C 		.ascii	"__ULACCUM_IBIT__ 32\000"
 11310      41434355 
 11310      4D5F4942 
 11310      49545F5F 
 11310      20333200 
 11311              	.LASF69:
 11312 583e 5F5F5348 		.ascii	"__SHRT_MAX__ 0x7fff\000"
 11312      52545F4D 
 11312      41585F5F 
 11312      20307837 
 11312      66666600 
 11313              	.LASF1148:
 11314 5852 53595343 		.ascii	"SYSCTL_CLOCK_RESERVED14\000"
 11314      544C5F43 
 11314      4C4F434B 
 11314      5F524553 
 11314      45525645 
 11315              	.LASF31:
 11316 586a 5F5F5054 		.ascii	"__PTRDIFF_TYPE__ int\000"
 11316      52444946 
 11316      465F5459 
 11316      50455F5F 
 11316      20696E74 
 11317              	.LASF328:
 11318 587f 5F5F4150 		.ascii	"__APCS_32__ 1\000"
 11318      43535F33 
 11318      325F5F20 
 11318      3100
 11319              	.LASF1177:
 11320 588d 43686970 		.ascii	"Chip_Clock_EnablePeriphClock\000"
 11320      5F436C6F 
 11320      636B5F45 
 11320      6E61626C 
 11320      65506572 
 11321              	.LASF369:
 11322 58aa 5F5F474E 		.ascii	"__GNU_VISIBLE 0\000"
 11322      555F5649 
ARM GAS  /var/folders/z0/6xlwn_996xz3mwq1cgzkbq4r0000gp/T//cckgJHwF.s 			page 277


 11322      5349424C 
 11322      45203000 
 11323              	.LASF766:
 11324 58ba 55415254 		.ascii	"UART_IER_MSINT (1 << 3)\000"
 11324      5F494552 
 11324      5F4D5349 
 11324      4E542028 
 11324      31203C3C 
 11325              	.LASF228:
 11326 58d2 5F5F5341 		.ascii	"__SACCUM_IBIT__ 8\000"
 11326      4343554D 
 11326      5F494249 
 11326      545F5F20 
 11326      3800
 11327              	.LASF273:
 11328 58e4 5F5F4451 		.ascii	"__DQ_FBIT__ 63\000"
 11328      5F464249 
 11328      545F5F20 
 11328      363300
 11329              	.LASF1146:
 11330 58f3 53595343 		.ascii	"SYSCTL_CLOCK_UART0\000"
 11330      544C5F43 
 11330      4C4F434B 
 11330      5F554152 
 11330      543000
 11331              	.LASF1139:
 11332 5906 53595343 		.ascii	"SYSCTL_CLOCK_I2C\000"
 11332      544C5F43 
 11332      4C4F434B 
 11332      5F493243 
 11332      00
 11333              	.LASF61:
 11334 5917 5F5F5549 		.ascii	"__UINT_FAST32_TYPE__ unsigned int\000"
 11334      4E545F46 
 11334      41535433 
 11334      325F5459 
 11334      50455F5F 
 11335              	.LASF589:
 11336 5939 5343425F 		.ascii	"SCB_CCR_STKALIGN_Pos 9\000"
 11336      4343525F 
 11336      53544B41 
 11336      4C49474E 
 11336      5F506F73 
 11337              	.LASF56:
 11338 5950 5F5F494E 		.ascii	"__INT_FAST16_TYPE__ int\000"
 11338      545F4641 
 11338      53543136 
 11338      5F545950 
 11338      455F5F20 
 11339              	.LASF684:
 11340 5968 53595343 		.ascii	"SYSCTL_SLPWAKE_ADC_PD (1 << 4)\000"
 11340      544C5F53 
 11340      4C505741 
 11340      4B455F41 
 11340      44435F50 
 11341              	.LASF1050:
 11342 5987 43414E5F 		.ascii	"CAN_SDOREQ_HANDLED_NOSEND 2\000"
ARM GAS  /var/folders/z0/6xlwn_996xz3mwq1cgzkbq4r0000gp/T//cckgJHwF.s 			page 278


 11342      53444F52 
 11342      45515F48 
 11342      414E444C 
 11342      45445F4E 
 11343              	.LASF229:
 11344 59a3 5F5F5341 		.ascii	"__SACCUM_MIN__ (-0X1P7HK-0X1P7HK)\000"
 11344      4343554D 
 11344      5F4D494E 
 11344      5F5F2028 
 11344      2D305831 
 11345              	.LASF215:
 11346 59c5 5F5F554C 		.ascii	"__ULFRACT_MAX__ 0XFFFFFFFFP-32ULR\000"
 11346      46524143 
 11346      545F4D41 
 11346      585F5F20 
 11346      30584646 
 11347              	.LASF52:
 11348 59e7 5F5F5549 		.ascii	"__UINT_LEAST16_TYPE__ short unsigned int\000"
 11348      4E545F4C 
 11348      45415354 
 11348      31365F54 
 11348      5950455F 
 11349              	.LASF929:
 11350 5a10 4144435F 		.ascii	"ADC_SAMPLE_RATE_CONFIG_MASK (ADC_CR_CLKDIV(0xFF) | "
 11350      53414D50 
 11350      4C455F52 
 11350      4154455F 
 11350      434F4E46 
 11351 5a43 4144435F 		.ascii	"ADC_CR_BITACC(0x07))\000"
 11351      43525F42 
 11351      49544143 
 11351      43283078 
 11351      30372929 
 11352              	.LASF1111:
 11353 5a58 52455345 		.ascii	"RESERVED10\000"
 11353      52564544 
 11353      313000
 11354              	.LASF1114:
 11355 5a63 52455345 		.ascii	"RESERVED11\000"
 11355      52564544 
 11355      313100
 11356              	.LASF1120:
 11357 5a6e 52455345 		.ascii	"RESERVED12\000"
 11357      52564544 
 11357      313200
 11358              	.LASF1125:
 11359 5a79 52455345 		.ascii	"RESERVED13\000"
 11359      52564544 
 11359      313300
 11360              	.LASF1127:
 11361 5a84 52455345 		.ascii	"RESERVED14\000"
 11361      52564544 
 11361      313400
 11362              	.LASF1131:
 11363 5a8f 52455345 		.ascii	"RESERVED15\000"
 11363      52564544 
 11363      313500
ARM GAS  /var/folders/z0/6xlwn_996xz3mwq1cgzkbq4r0000gp/T//cckgJHwF.s 			page 279


 11364              	.LASF910:
 11365 5a9a 5F5F4144 		.ascii	"__ADC_11XX_H_ \000"
 11365      435F3131 
 11365      58585F48 
 11365      5F2000
 11366              	.LASF285:
 11367 5aa9 5F5F5554 		.ascii	"__UTQ_FBIT__ 128\000"
 11367      515F4642 
 11367      49545F5F 
 11367      20313238 
 11367      00
 11368              	.LASF750:
 11369 5aba 54494D45 		.ascii	"TIMER_STOP_ON_MATCH(n) (_BIT((((n) * 3) + 2)))\000"
 11369      525F5354 
 11369      4F505F4F 
 11369      4E5F4D41 
 11369      54434828 
 11370              	.LASF1004:
 11371 5ae9 4932435F 		.ascii	"I2C_SEND_END 0x08\000"
 11371      53454E44 
 11371      5F454E44 
 11371      20307830 
 11371      3800
 11372              	.LASF997:
 11373 5afb 4932435F 		.ascii	"I2C_SETUP_STATUS_ARBF (1 << 8)\000"
 11373      53455455 
 11373      505F5354 
 11373      41545553 
 11373      5F415242 
 11374              	.LASF261:
 11375 5b1a 5F5F4C4C 		.ascii	"__LLACCUM_EPSILON__ 0x1P-31LLK\000"
 11375      41434355 
 11375      4D5F4550 
 11375      53494C4F 
 11375      4E5F5F20 
 11376              	.LASF13:
 11377 5b39 5F5F4649 		.ascii	"__FINITE_MATH_ONLY__ 0\000"
 11377      4E495445 
 11377      5F4D4154 
 11377      485F4F4E 
 11377      4C595F5F 
 11378              	.LASF110:
 11379 5b50 5F5F494E 		.ascii	"__INT_FAST16_MAX__ 0x7fffffff\000"
 11379      545F4641 
 11379      53543136 
 11379      5F4D4158 
 11379      5F5F2030 
 11380              	.LASF388:
 11381 5b6e 5F5F6861 		.ascii	"__have_longlong64 1\000"
 11381      76655F6C 
 11381      6F6E676C 
 11381      6F6E6736 
 11381      34203100 
 11382              	.LASF1182:
 11383 5b82 6E756D42 		.ascii	"numBytes\000"
 11383      79746573 
 11383      00
ARM GAS  /var/folders/z0/6xlwn_996xz3mwq1cgzkbq4r0000gp/T//cckgJHwF.s 			page 280


 11384              	.LASF1092:
 11385 5b8b 53595341 		.ascii	"SYSAHBCLKCTRL\000"
 11385      4842434C 
 11385      4B435452 
 11385      4C00
 11386              	.LASF523:
 11387 5b99 5F5F5359 		.ascii	"__SYS_CONFIG_H_ \000"
 11387      535F434F 
 11387      4E464947 
 11387      5F485F20 
 11387      00
 11388              	.LASF656:
 11389 5baa 4C50435F 		.ascii	"LPC_FMC ((LPC_FMC_T *) LPC_FLASH_BASE)\000"
 11389      464D4320 
 11389      28284C50 
 11389      435F464D 
 11389      435F5420 
 11390              	.LASF1079:
 11391 5bd1 49524343 		.ascii	"IRCCTRL\000"
 11391      54524C00 
 11392              	.LASF431:
 11393 5bd9 5F55494E 		.ascii	"_UINTPTR_T_DECLARED \000"
 11393      54505452 
 11393      5F545F44 
 11393      45434C41 
 11393      52454420 
 11394              	.LASF327:
 11395 5bee 5F5F4152 		.ascii	"__ARM_ARCH 6\000"
 11395      4D5F4152 
 11395      43482036 
 11395      00
 11396              	.LASF869:
 11397 5bfb 55415254 		.ascii	"UART_SYNCCTRL_TSBYPASS (1 << 3)\000"
 11397      5F53594E 
 11397      43435452 
 11397      4C5F5453 
 11397      42595041 
 11398              	.LASF1001:
 11399 5c1b 4932435F 		.ascii	"I2C_BYTE_SENT 0x01\000"
 11399      42595445 
 11399      5F53454E 
 11399      54203078 
 11399      303100
 11400              	.LASF255:
 11401 5c2e 5F5F554C 		.ascii	"__ULACCUM_MAX__ 0XFFFFFFFFFFFFFFFFP-32ULK\000"
 11401      41434355 
 11401      4D5F4D41 
 11401      585F5F20 
 11401      30584646 
 11402              	.LASF638:
 11403 5c58 4C50435F 		.ascii	"LPC_USB0_BASE 0x40080000\000"
 11403      55534230 
 11403      5F424153 
 11403      45203078 
 11403      34303038 
 11404              	.LASF1205:
 11405 5c71 43686970 		.ascii	"Chip_UART_SendRB\000"
ARM GAS  /var/folders/z0/6xlwn_996xz3mwq1cgzkbq4r0000gp/T//cckgJHwF.s 			page 281


 11405      5F554152 
 11405      545F5365 
 11405      6E645242 
 11405      00
 11406              	.LASF214:
 11407 5c82 5F5F554C 		.ascii	"__ULFRACT_MIN__ 0.0ULR\000"
 11407      46524143 
 11407      545F4D49 
 11407      4E5F5F20 
 11407      302E3055 
 11408              	.LASF1129:
 11409 5c99 50445741 		.ascii	"PDWAKECFG\000"
 11409      4B454346 
 11409      4700
 11410              	.LASF274:
 11411 5ca3 5F5F4451 		.ascii	"__DQ_IBIT__ 0\000"
 11411      5F494249 
 11411      545F5F20 
 11411      3000
 11412              	.LASF1119:
 11413 5cb1 55534243 		.ascii	"USBCLKST\000"
 11413      4C4B5354 
 11413      00
 11414              	.LASF1071:
 11415 5cba 50524553 		.ascii	"PRESETCTRL\000"
 11415      45544354 
 11415      524C00
 11416              	.LASF687:
 11417 5cc5 53595343 		.ascii	"SYSCTL_SLPWAKE_SYSPLL_PD (1 << 7)\000"
 11417      544C5F53 
 11417      4C505741 
 11417      4B455F53 
 11417      5953504C 
 11418              	.LASF714:
 11419 5ce7 494F434F 		.ascii	"IOCON_DIGMODE_EN (0x1 << 7)\000"
 11419      4E5F4449 
 11419      474D4F44 
 11419      455F454E 
 11419      20283078 
 11420              	.LASF547:
 11421 5d03 5343425F 		.ascii	"SCB_CPUID_VARIANT_Pos 20\000"
 11421      43505549 
 11421      445F5641 
 11421      5249414E 
 11421      545F506F 
 11422              	.LASF996:
 11423 5d1c 4932435F 		.ascii	"I2C_I2SCLL_BITMASK ((0xFFFF))\000"
 11423      49325343 
 11423      4C4C5F42 
 11423      49544D41 
 11423      534B2028 
 11424              	.LASF1019:
 11425 5d3a 43414E5F 		.ascii	"CAN_ERROR_BIT1 0x00000040UL\000"
 11425      4552524F 
 11425      525F4249 
 11425      54312030 
 11425      78303030 
ARM GAS  /var/folders/z0/6xlwn_996xz3mwq1cgzkbq4r0000gp/T//cckgJHwF.s 			page 282


 11426              	.LASF679:
 11427 5d56 53595343 		.ascii	"SYSCTL_DEEPSLP_WDTOSC_PD (1 << 6)\000"
 11427      544C5F44 
 11427      45455053 
 11427      4C505F57 
 11427      44544F53 
 11428              	.LASF779:
 11429 5d78 55415254 		.ascii	"UART_IIR_INTID_RLS (3 << 1)\000"
 11429      5F494952 
 11429      5F494E54 
 11429      49445F52 
 11429      4C532028 
 11430              	.LASF427:
 11431 5d94 5F494E54 		.ascii	"_INT64_T_DECLARED \000"
 11431      36345F54 
 11431      5F444543 
 11431      4C415245 
 11431      442000
 11432              	.LASF773:
 11433 5da7 55415254 		.ascii	"UART_IIR_INTSTAT_PEND (1 << 0)\000"
 11433      5F494952 
 11433      5F494E54 
 11433      53544154 
 11433      5F50454E 
 11434              	.LASF621:
 11435 5dc6 5F534850 		.ascii	"_SHP_IDX(IRQn) ( ((((uint32_t)(IRQn) & 0x0F)-8) >> "
 11435      5F494458 
 11435      28495251 
 11435      6E292028 
 11435      20282828 
 11436 5df9 32292029 		.ascii	"2) )\000"
 11436      00
 11437              	.LASF648:
 11438 5dfe 4C50435F 		.ascii	"LPC_WWDT ((LPC_WWDT_T *) LPC_WWDT_BASE)\000"
 11438      57574454 
 11438      2028284C 
 11438      50435F57 
 11438      5744545F 
 11439              	.LASF600:
 11440 5e26 53797354 		.ascii	"SysTick_CTRL_TICKINT_Msk (1UL << SysTick_CTRL_TICKI"
 11440      69636B5F 
 11440      4354524C 
 11440      5F544943 
 11440      4B494E54 
 11441 5e59 4E545F50 		.ascii	"NT_Pos)\000"
 11441      6F732900 
 11442              	.LASF834:
 11443 5e61 55415254 		.ascii	"UART_MSR_RI (1 << 6)\000"
 11443      5F4D5352 
 11443      5F524920 
 11443      2831203C 
 11443      3C203629 
 11444              	.LASF895:
 11445 5e76 5353505F 		.ascii	"SSP_CR1_SO_DISABLE ((uint32_t) (1 << 3))\000"
 11445      4352315F 
 11445      534F5F44 
 11445      49534142 
ARM GAS  /var/folders/z0/6xlwn_996xz3mwq1cgzkbq4r0000gp/T//cckgJHwF.s 			page 283


 11445      4C452028 
 11446              	.LASF617:
 11447 5e9f 53434220 		.ascii	"SCB ((SCB_Type *) SCB_BASE )\000"
 11447      28285343 
 11447      425F5479 
 11447      7065202A 
 11447      29205343 
 11448              	.LASF286:
 11449 5ebc 5F5F5554 		.ascii	"__UTQ_IBIT__ 0\000"
 11449      515F4942 
 11449      49545F5F 
 11449      203000
 11450              	.LASF289:
 11451 5ecb 5F5F5341 		.ascii	"__SA_FBIT__ 15\000"
 11451      5F464249 
 11451      545F5F20 
 11451      313500
 11452              	.LASF221:
 11453 5eda 5F5F4C4C 		.ascii	"__LLFRACT_EPSILON__ 0x1P-63LLR\000"
 11453      46524143 
 11453      545F4550 
 11453      53494C4F 
 11453      4E5F5F20 
 11454              	.LASF862:
 11455 5ef9 55415254 		.ascii	"UART_FDR_MULVAL(n) ((n << 4) & 0xF0)\000"
 11455      5F464452 
 11455      5F4D554C 
 11455      56414C28 
 11455      6E292028 
 11456              	.LASF736:
 11457 5f1e 46554E43 		.ascii	"FUNC2 0x2\000"
 11457      32203078 
 11457      3200
 11458              	.LASF1102:
 11459 5f28 57445443 		.ascii	"WDTCLKSEL\000"
 11459      4C4B5345 
 11459      4C00
 11460              	.LASF338:
 11461 5f32 5F5F4152 		.ascii	"__ARM_EABI__ 1\000"
 11461      4D5F4541 
 11461      42495F5F 
 11461      203100
 11462              	.LASF1031:
 11463 5f41 53444F5F 		.ascii	"SDO_ABORT_READONLY 0x06010002UL\000"
 11463      41424F52 
 11463      545F5245 
 11463      41444F4E 
 11463      4C592030 
 11464              	.LASF839:
 11465 5f61 55415254 		.ascii	"UART_ACR_AUTO_RESTART (1 << 2)\000"
 11465      5F414352 
 11465      5F415554 
 11465      4F5F5245 
 11465      53544152 
 11466              	.LASF340:
 11467 5f80 5F5F454C 		.ascii	"__ELF__ 1\000"
 11467      465F5F20 
ARM GAS  /var/folders/z0/6xlwn_996xz3mwq1cgzkbq4r0000gp/T//cckgJHwF.s 			page 284


 11467      3100
 11468              	.LASF455:
 11469 5f8a 494E5433 		.ascii	"INT32_MIN (-__INT32_MAX__ - 1)\000"
 11469      325F4D49 
 11469      4E20282D 
 11469      5F5F494E 
 11469      5433325F 
 11470              	.LASF332:
 11471 5fa9 5F5F5448 		.ascii	"__THUMBEL__ 1\000"
 11471      554D4245 
 11471      4C5F5F20 
 11471      3100
 11472              	.LASF702:
 11473 5fb7 494F434F 		.ascii	"IOCON_FUNC3 0x3\000"
 11473      4E5F4655 
 11473      4E433320 
 11473      30783300 
 11474              	.LASF1165:
 11475 5fc7 53434943 		.ascii	"SCICTRL\000"
 11475      54524C00 
 11476              	.LASF1193:
 11477 5fcf 43686970 		.ascii	"Chip_UART_IntDisable\000"
 11477      5F554152 
 11477      545F496E 
 11477      74446973 
 11477      61626C65 
 11478              	.LASF927:
 11479 5fe4 4144435F 		.ascii	"ADC_CR_START_MCOA2 ((6UL << 24))\000"
 11479      43525F53 
 11479      54415254 
 11479      5F4D434F 
 11479      41322028 
 11480              	.LASF920:
 11481 6005 4144435F 		.ascii	"ADC_CR_START_MASK ((7UL << 24))\000"
 11481      43525F53 
 11481      54415254 
 11481      5F4D4153 
 11481      4B202828 
 11482              	.LASF626:
 11483 6025 4C50435F 		.ascii	"LPC_TIMER16_0_BASE 0x4000C000\000"
 11483      54494D45 
 11483      5231365F 
 11483      305F4241 
 11483      53452030 
 11484              	.LASF1219:
 11485 6043 52696E67 		.ascii	"RingBuffer_Pop\000"
 11485      42756666 
 11485      65725F50 
 11485      6F7000
 11486              	.LASF498:
 11487 6052 55494E54 		.ascii	"UINT64_C(x) __UINT64_C(x)\000"
 11487      36345F43 
 11487      28782920 
 11487      5F5F5549 
 11487      4E543634 
 11488              	.LASF257:
 11489 606c 5F5F4C4C 		.ascii	"__LLACCUM_FBIT__ 31\000"
ARM GAS  /var/folders/z0/6xlwn_996xz3mwq1cgzkbq4r0000gp/T//cckgJHwF.s 			page 285


 11489      41434355 
 11489      4D5F4642 
 11489      49545F5F 
 11489      20333100 
 11490              	.LASF422:
 11491 6080 5F55494E 		.ascii	"_UINT16_T_DECLARED \000"
 11491      5431365F 
 11491      545F4445 
 11491      434C4152 
 11491      45442000 
 11492              	.LASF129:
 11493 6094 5F5F464C 		.ascii	"__FLT_MAX_10_EXP__ 38\000"
 11493      545F4D41 
 11493      585F3130 
 11493      5F455850 
 11493      5F5F2033 
 11494              	.LASF448:
 11495 60aa 55494E54 		.ascii	"UINT_LEAST8_MAX (__UINT_LEAST8_MAX__)\000"
 11495      5F4C4541 
 11495      5354385F 
 11495      4D415820 
 11495      285F5F55 
 11496              	.LASF282:
 11497 60d0 5F5F5553 		.ascii	"__USQ_IBIT__ 0\000"
 11497      515F4942 
 11497      49545F5F 
 11497      203000
 11498              	.LASF3:
 11499 60df 5F5F474E 		.ascii	"__GNUC_MINOR__ 4\000"
 11499      55435F4D 
 11499      494E4F52 
 11499      5F5F2034 
 11499      00
 11500              	.LASF53:
 11501 60f0 5F5F5549 		.ascii	"__UINT_LEAST32_TYPE__ long unsigned int\000"
 11501      4E545F4C 
 11501      45415354 
 11501      33325F54 
 11501      5950455F 
 11502              	.LASF280:
 11503 6118 5F5F5548 		.ascii	"__UHQ_IBIT__ 0\000"
 11503      515F4942 
 11503      49545F5F 
 11503      203000
 11504              	.LASF34:
 11505 6127 5F5F494E 		.ascii	"__INTMAX_TYPE__ long long int\000"
 11505      544D4158 
 11505      5F545950 
 11505      455F5F20 
 11505      6C6F6E67 
 11506              	.LASF313:
 11507 6145 5F5F4743 		.ascii	"__GCC_ATOMIC_INT_LOCK_FREE 1\000"
 11507      435F4154 
 11507      4F4D4943 
 11507      5F494E54 
 11507      5F4C4F43 
 11508              	.LASF393:
ARM GAS  /var/folders/z0/6xlwn_996xz3mwq1cgzkbq4r0000gp/T//cckgJHwF.s 			page 286


 11509 6162 73686F72 		.ascii	"short\000"
 11509      7400
 11510              	.LASF306:
 11511 6168 5F5F4348 		.ascii	"__CHAR_UNSIGNED__ 1\000"
 11511      41525F55 
 11511      4E534947 
 11511      4E45445F 
 11511      5F203100 
 11512              	.LASF676:
 11513 617c 53595343 		.ascii	"SYSCTL_RST_SYSRST (1 << 4)\000"
 11513      544C5F52 
 11513      53545F53 
 11513      59535253 
 11513      54202831 
 11514              	.LASF697:
 11515 6197 53595343 		.ascii	"SYSCTL_IRC_FREQ (12000000)\000"
 11515      544C5F49 
 11515      52435F46 
 11515      52455120 
 11515      28313230 
 11516              	.LASF709:
 11517 61b2 494F434F 		.ascii	"IOCON_MODE_PULLUP (0x2 << 3)\000"
 11517      4E5F4D4F 
 11517      44455F50 
 11517      554C4C55 
 11517      50202830 
 11518              	.LASF795:
 11519 61cf 55415254 		.ascii	"UART_LCR_WLEN5 (0 << 0)\000"
 11519      5F4C4352 
 11519      5F574C45 
 11519      4E352028 
 11519      30203C3C 
 11520              	.LASF722:
 11521 61e7 4D445F50 		.ascii	"MD_PUP (0x2 << 3)\000"
 11521      55502028 
 11521      30783220 
 11521      3C3C2033 
 11521      2900
 11522              	.LASF383:
 11523 61f9 5F5F5F69 		.ascii	"___int_least32_t_defined 1\000"
 11523      6E745F6C 
 11523      65617374 
 11523      33325F74 
 11523      5F646566 
 11524              	.LASF236:
 11525 6214 5F5F5553 		.ascii	"__USACCUM_EPSILON__ 0x1P-8UHK\000"
 11525      41434355 
 11525      4D5F4550 
 11525      53494C4F 
 11525      4E5F5F20 
 11526              	.LASF151:
 11527 6232 5F5F4442 		.ascii	"__DBL_HAS_QUIET_NAN__ 1\000"
 11527      4C5F4841 
 11527      535F5155 
 11527      4945545F 
 11527      4E414E5F 
 11528              	.LASF509:
ARM GAS  /var/folders/z0/6xlwn_996xz3mwq1cgzkbq4r0000gp/T//cckgJHwF.s 			page 287


 11529 624a 5F424954 		.ascii	"_BIT\000"
 11529      00
 11530              	.LASF495:
 11531 624f 494E5433 		.ascii	"INT32_C(x) __INT32_C(x)\000"
 11531      325F4328 
 11531      7829205F 
 11531      5F494E54 
 11531      33325F43 
 11532              	.LASF472:
 11533 6267 55494E54 		.ascii	"UINT_FAST16_MAX (__UINT_FAST16_MAX__)\000"
 11533      5F464153 
 11533      5431365F 
 11533      4D415820 
 11533      285F5F55 
 11534              	.LASF220:
 11535 628d 5F5F4C4C 		.ascii	"__LLFRACT_MAX__ 0X7FFFFFFFFFFFFFFFP-63LLR\000"
 11535      46524143 
 11535      545F4D41 
 11535      585F5F20 
 11535      30583746 
 11536              	.LASF604:
 11537 62b7 53797354 		.ascii	"SysTick_LOAD_RELOAD_Msk (0xFFFFFFUL << SysTick_LOAD"
 11537      69636B5F 
 11537      4C4F4144 
 11537      5F52454C 
 11537      4F41445F 
 11538 62ea 5F52454C 		.ascii	"_RELOAD_Pos)\000"
 11538      4F41445F 
 11538      506F7329 
 11538      00
 11539              	.LASF460:
 11540 62f7 55494E54 		.ascii	"UINT_LEAST32_MAX (__UINT_LEAST32_MAX__)\000"
 11540      5F4C4541 
 11540      53543332 
 11540      5F4D4158 
 11540      20285F5F 
 11541              	.LASF798:
 11542 631f 55415254 		.ascii	"UART_LCR_WLEN8 (3 << 0)\000"
 11542      5F4C4352 
 11542      5F574C45 
 11542      4E382028 
 11542      33203C3C 
 11543              	.LASF1156:
 11544 6337 6974656D 		.ascii	"itemSz\000"
 11544      537A00
 11545              	.LASF533:
 11546 633e 5F5F434D 		.ascii	"__CM0_CMSIS_VERSION ((__CM0_CMSIS_VERSION_MAIN << 1"
 11546      305F434D 
 11546      5349535F 
 11546      56455253 
 11546      494F4E20 
 11547 6371 3629207C 		.ascii	"6) | __CM0_CMSIS_VERSION_SUB )\000"
 11547      205F5F43 
 11547      4D305F43 
 11547      4D534953 
 11547      5F564552 
 11548              	.LASF558:
ARM GAS  /var/folders/z0/6xlwn_996xz3mwq1cgzkbq4r0000gp/T//cckgJHwF.s 			page 288


 11549 6390 5343425F 		.ascii	"SCB_ICSR_PENDSVSET_Msk (1UL << SCB_ICSR_PENDSVSET_P"
 11549      49435352 
 11549      5F50454E 
 11549      44535653 
 11549      45545F4D 
 11550 63c3 6F732900 		.ascii	"os)\000"
 11551              	.LASF607:
 11552 63c7 53797354 		.ascii	"SysTick_CALIB_NOREF_Pos 31\000"
 11552      69636B5F 
 11552      43414C49 
 11552      425F4E4F 
 11552      5245465F 
 11553              	.LASF230:
 11554 63e2 5F5F5341 		.ascii	"__SACCUM_MAX__ 0X7FFFP-7HK\000"
 11554      4343554D 
 11554      5F4D4158 
 11554      5F5F2030 
 11554      58374646 
 11555              	.LASF63:
 11556 63fd 5F5F494E 		.ascii	"__INTPTR_TYPE__ int\000"
 11556      54505452 
 11556      5F545950 
 11556      455F5F20 
 11556      696E7400 
 11557              	.LASF36:
 11558 6411 5F5F4348 		.ascii	"__CHAR16_TYPE__ short unsigned int\000"
 11558      41523136 
 11558      5F545950 
 11558      455F5F20 
 11558      73686F72 
 11559              	.LASF64:
 11560 6434 5F5F5549 		.ascii	"__UINTPTR_TYPE__ unsigned int\000"
 11560      4E545054 
 11560      525F5459 
 11560      50455F5F 
 11560      20756E73 
 11561              	.LASF602:
 11562 6452 53797354 		.ascii	"SysTick_CTRL_ENABLE_Msk (1UL << SysTick_CTRL_ENABLE"
 11562      69636B5F 
 11562      4354524C 
 11562      5F454E41 
 11562      424C455F 
 11563 6485 5F506F73 		.ascii	"_Pos)\000"
 11563      2900
 11564              	.LASF303:
 11565 648b 5F5F5245 		.ascii	"__REGISTER_PREFIX__ \000"
 11565      47495354 
 11565      45525F50 
 11565      52454649 
 11565      585F5F20 
 11566              	.LASF186:
 11567 64a0 5F5F4445 		.ascii	"__DEC128_SUBNORMAL_MIN__ 0.000000000000000000000000"
 11567      43313238 
 11567      5F535542 
 11567      4E4F524D 
 11567      414C5F4D 
 11568 64d3 30303030 		.ascii	"000000001E-6143DL\000"
ARM GAS  /var/folders/z0/6xlwn_996xz3mwq1cgzkbq4r0000gp/T//cckgJHwF.s 			page 289


 11568      30303030 
 11568      31452D36 
 11568      31343344 
 11568      4C00
 11569              	.LASF1080:
 11570 64e5 4C464F53 		.ascii	"LFOSCCTRL\000"
 11570      43435452 
 11570      4C00
 11571              	.LASF216:
 11572 64ef 5F5F554C 		.ascii	"__ULFRACT_EPSILON__ 0x1P-32ULR\000"
 11572      46524143 
 11572      545F4550 
 11572      53494C4F 
 11572      4E5F5F20 
 11573              	.LASF1049:
 11574 650e 43414E5F 		.ascii	"CAN_SDOREQ_HANDLED_SEND 1\000"
 11574      53444F52 
 11574      45515F48 
 11574      414E444C 
 11574      45445F53 
 11575              	.LASF336:
 11576 6528 5F5F4152 		.ascii	"__ARM_ARCH_6M__ 1\000"
 11576      4D5F4152 
 11576      43485F36 
 11576      4D5F5F20 
 11576      3100
 11577              	.LASF21:
 11578 653a 5F5F5349 		.ascii	"__SIZEOF_SIZE_T__ 4\000"
 11578      5A454F46 
 11578      5F53495A 
 11578      455F545F 
 11578      5F203400 
 11579              	.LASF820:
 11580 654e 55415254 		.ascii	"UART_LSR_FE (1 << 3)\000"
 11580      5F4C5352 
 11580      5F464520 
 11580      2831203C 
 11580      3C203329 
 11581              	.LASF859:
 11582 6563 55415254 		.ascii	"UART_SCICTRL_TXRETRY(n) ((n & 0x07) << 5)\000"
 11582      5F534349 
 11582      4354524C 
 11582      5F545852 
 11582      45545259 
 11583              	.LASF46:
 11584 658d 5F5F5549 		.ascii	"__UINT64_TYPE__ long long unsigned int\000"
 11584      4E543634 
 11584      5F545950 
 11584      455F5F20 
 11584      6C6F6E67 
 11585              	.LASF183:
 11586 65b4 5F5F4445 		.ascii	"__DEC128_MIN__ 1E-6143DL\000"
 11586      43313238 
 11586      5F4D494E 
 11586      5F5F2031 
 11586      452D3631 
 11587              	.LASF100:
ARM GAS  /var/folders/z0/6xlwn_996xz3mwq1cgzkbq4r0000gp/T//cckgJHwF.s 			page 290


 11588 65cd 5F5F494E 		.ascii	"__INT64_C(c) c ## LL\000"
 11588      5436345F 
 11588      43286329 
 11588      20632023 
 11588      23204C4C 
 11589              	.LASF248:
 11590 65e2 5F5F4C41 		.ascii	"__LACCUM_IBIT__ 32\000"
 11590      4343554D 
 11590      5F494249 
 11590      545F5F20 
 11590      333200
 11591              	.LASF1132:
 11592 65f5 44455649 		.ascii	"DEVICEID\000"
 11592      43454944 
 11592      00
 11593              	.LASF458:
 11594 65fe 494E545F 		.ascii	"INT_LEAST32_MIN (-__INT_LEAST32_MAX__ - 1)\000"
 11594      4C454153 
 11594      5433325F 
 11594      4D494E20 
 11594      282D5F5F 
 11595              	.LASF716:
 11596 6629 494F434F 		.ascii	"IOCON_STDI2C_EN (0x1 << 8)\000"
 11596      4E5F5354 
 11596      44493243 
 11596      5F454E20 
 11596      28307831 
 11597              	.LASF501:
 11598 6644 5F474343 		.ascii	"_GCC_WRAP_STDINT_H \000"
 11598      5F575241 
 11598      505F5354 
 11598      44494E54 
 11598      5F482000 
 11599              	.LASF992:
 11600 6658 4932435F 		.ascii	"I2C_I2ADR_GC ((1 << 0))\000"
 11600      49324144 
 11600      525F4743 
 11600      20282831 
 11600      203C3C20 
 11601              	.LASF1106:
 11602 6670 434C4B4F 		.ascii	"CLKOUTSEL\000"
 11602      55545345 
 11602      4C00
 11603              	.LASF160:
 11604 667a 5F5F4C44 		.ascii	"__LDBL_MIN__ 2.2250738585072014e-308L\000"
 11604      424C5F4D 
 11604      494E5F5F 
 11604      20322E32 
 11604      32353037 
 11605              	.LASF238:
 11606 66a0 5F5F4143 		.ascii	"__ACCUM_IBIT__ 16\000"
 11606      43554D5F 
 11606      49424954 
 11606      5F5F2031 
 11606      3600
 11607              	.LASF1020:
 11608 66b2 43414E5F 		.ascii	"CAN_ERROR_BIT0 0x00000080UL\000"
ARM GAS  /var/folders/z0/6xlwn_996xz3mwq1cgzkbq4r0000gp/T//cckgJHwF.s 			page 291


 11608      4552524F 
 11608      525F4249 
 11608      54302030 
 11608      78303030 
 11609              	.LASF355:
 11610 66ce 5F5F4E45 		.ascii	"__NEWLIB_MINOR__ 4\000"
 11610      574C4942 
 11610      5F4D494E 
 11610      4F525F5F 
 11610      203400
 11611              	.LASF838:
 11612 66e1 55415254 		.ascii	"UART_ACR_MODE (1 << 1)\000"
 11612      5F414352 
 11612      5F4D4F44 
 11612      45202831 
 11612      203C3C20 
 11613              	.LASF1058:
 11614 66f8 73686F72 		.ascii	"short int\000"
 11614      7420696E 
 11614      7400
 11615              	.LASF717:
 11616 6702 494F434F 		.ascii	"IOCON_FASTI2C_EN (0x2 << 8)\000"
 11616      4E5F4641 
 11616      53544932 
 11616      435F454E 
 11616      20283078 
 11617              	.LASF593:
 11618 671e 5343425F 		.ascii	"SCB_SHCSR_SVCALLPENDED_Pos 15\000"
 11618      53484353 
 11618      525F5356 
 11618      43414C4C 
 11618      50454E44 
 11619              	.LASF707:
 11620 673c 494F434F 		.ascii	"IOCON_MODE_INACT (0x0 << 3)\000"
 11620      4E5F4D4F 
 11620      44455F49 
 11620      4E414354 
 11620      20283078 
 11621              	.LASF787:
 11622 6758 55415254 		.ascii	"UART_FCR_DMAMODE_SEL (1 << 3)\000"
 11622      5F464352 
 11622      5F444D41 
 11622      4D4F4445 
 11622      5F53454C 
 11623              	.LASF202:
 11624 6776 5F5F5546 		.ascii	"__UFRACT_FBIT__ 16\000"
 11624      52414354 
 11624      5F464249 
 11624      545F5F20 
 11624      313600
 11625              	.LASF104:
 11626 6789 5F5F5549 		.ascii	"__UINT16_C(c) c\000"
 11626      4E543136 
 11626      5F432863 
 11626      29206300 
 11627              	.LASF718:
 11628 6799 494F434F 		.ascii	"IOCON_FILT_DIS (0x1 << 8)\000"
ARM GAS  /var/folders/z0/6xlwn_996xz3mwq1cgzkbq4r0000gp/T//cckgJHwF.s 			page 292


 11628      4E5F4649 
 11628      4C545F44 
 11628      49532028 
 11628      30783120 
 11629              	.LASF300:
 11630 67b3 5F5F5544 		.ascii	"__UDA_IBIT__ 32\000"
 11630      415F4942 
 11630      49545F5F 
 11630      20333200 
 11631              	.LASF414:
 11632 67c3 5F5F4C45 		.ascii	"__LEAST16 \"h\"\000"
 11632      41535431 
 11632      36202268 
 11632      2200
 11633              	.LASF954:
 11634 67d1 4932435F 		.ascii	"I2C_I2STAT_NO_INF ((0xF8))\000"
 11634      49325354 
 11634      41545F4E 
 11634      4F5F494E 
 11634      46202828 
 11635              	.LASF461:
 11636 67ec 494E5436 		.ascii	"INT64_MIN (-__INT64_MAX__ - 1)\000"
 11636      345F4D49 
 11636      4E20282D 
 11636      5F5F494E 
 11636      5436345F 
 11637              	.LASF6:
 11638 680b 5F5F4154 		.ascii	"__ATOMIC_RELAXED 0\000"
 11638      4F4D4943 
 11638      5F52454C 
 11638      41584544 
 11638      203000
 11639              	.LASF785:
 11640 681e 55415254 		.ascii	"UART_FCR_RX_RS (1 << 1)\000"
 11640      5F464352 
 11640      5F52585F 
 11640      52532028 
 11640      31203C3C 
 11641              	.LASF670:
 11642 6836 5F5F464D 		.ascii	"__FMC_11XX_H_ \000"
 11642      435F3131 
 11642      58585F48 
 11642      5F2000
 11643              	.LASF767:
 11644 6845 55415254 		.ascii	"UART_IER_CTSINT (1 << 7)\000"
 11644      5F494552 
 11644      5F435453 
 11644      494E5420 
 11644      2831203C 
 11645              	.LASF150:
 11646 685e 5F5F4442 		.ascii	"__DBL_HAS_INFINITY__ 1\000"
 11646      4C5F4841 
 11646      535F494E 
 11646      46494E49 
 11646      54595F5F 
 11647              	.LASF666:
 11648 6875 504D555F 		.ascii	"PMU_PCON_PM_SLEEP (0x0)\000"
ARM GAS  /var/folders/z0/6xlwn_996xz3mwq1cgzkbq4r0000gp/T//cckgJHwF.s 			page 293


 11648      50434F4E 
 11648      5F504D5F 
 11648      534C4545 
 11648      50202830 
 11649              	.LASF83:
 11650 688d 5F5F5349 		.ascii	"__SIG_ATOMIC_MAX__ 0x7fffffff\000"
 11650      475F4154 
 11650      4F4D4943 
 11650      5F4D4158 
 11650      5F5F2030 
 11651              	.LASF463:
 11652 68ab 55494E54 		.ascii	"UINT64_MAX (__UINT64_MAX__)\000"
 11652      36345F4D 
 11652      41582028 
 11652      5F5F5549 
 11652      4E543634 
 11653              	.LASF586:
 11654 68c7 5343425F 		.ascii	"SCB_SCR_SLEEPDEEP_Msk (1UL << SCB_SCR_SLEEPDEEP_Pos"
 11654      5343525F 
 11654      534C4545 
 11654      50444545 
 11654      505F4D73 
 11655 68fa 2900     		.ascii	")\000"
 11656              	.LASF805:
 11657 68fc 55415254 		.ascii	"UART_LCR_PARITY_EVEN (1 << 4)\000"
 11657      5F4C4352 
 11657      5F504152 
 11657      4954595F 
 11657      4556454E 
 11658              	.LASF1122:
 11659 691a 53544152 		.ascii	"STARTERP0\000"
 11659      54455250 
 11659      3000
 11660              	.LASF1126:
 11661 6924 53544152 		.ascii	"STARTERP1\000"
 11661      54455250 
 11661      3100
 11662              	.LASF544:
 11663 692e 5F5F494F 		.ascii	"__IO volatile\000"
 11663      20766F6C 
 11663      6174696C 
 11663      6500
 11664              	.LASF721:
 11665 693c 4D445F50 		.ascii	"MD_PDN (0x1 << 3)\000"
 11665      444E2028 
 11665      30783120 
 11665      3C3C2033 
 11665      2900
 11666              	.LASF769:
 11667 694e 55415254 		.ascii	"UART_IER_ABTOINT (1 << 9)\000"
 11667      5F494552 
 11667      5F414254 
 11667      4F494E54 
 11667      20283120 
 11668              	.LASF935:
 11669 6968 5245545F 		.ascii	"RET_SLAVE_BUSY 0\000"
 11669      534C4156 
ARM GAS  /var/folders/z0/6xlwn_996xz3mwq1cgzkbq4r0000gp/T//cckgJHwF.s 			page 294


 11669      455F4255 
 11669      53592030 
 11669      00
 11670              	.LASF18:
 11671 6979 5F5F5349 		.ascii	"__SIZEOF_FLOAT__ 4\000"
 11671      5A454F46 
 11671      5F464C4F 
 11671      41545F5F 
 11671      203400
 11672              	.LASF492:
 11673 698c 55494E54 		.ascii	"UINT8_C(x) __UINT8_C(x)\000"
 11673      385F4328 
 11673      7829205F 
 11673      5F55494E 
 11673      54385F43 
 11674              	.LASF176:
 11675 69a4 5F5F4445 		.ascii	"__DEC64_MIN__ 1E-383DD\000"
 11675      4336345F 
 11675      4D494E5F 
 11675      5F203145 
 11675      2D333833 
 11676              	.LASF618:
 11677 69bb 53797354 		.ascii	"SysTick ((SysTick_Type *) SysTick_BASE )\000"
 11677      69636B20 
 11677      28285379 
 11677      73546963 
 11677      6B5F5479 
 11678              	.LASF144:
 11679 69e4 5F5F4442 		.ascii	"__DBL_DECIMAL_DIG__ 17\000"
 11679      4C5F4445 
 11679      43494D41 
 11679      4C5F4449 
 11679      475F5F20 
 11680              	.LASF559:
 11681 69fb 5343425F 		.ascii	"SCB_ICSR_PENDSVCLR_Pos 27\000"
 11681      49435352 
 11681      5F50454E 
 11681      44535643 
 11681      4C525F50 
 11682              	.LASF389:
 11683 6a15 5F5F6861 		.ascii	"__have_long32 1\000"
 11683      76655F6C 
 11683      6F6E6733 
 11683      32203100 
 11684              	.LASF446:
 11685 6a25 494E545F 		.ascii	"INT_LEAST8_MIN (-__INT_LEAST8_MAX__ - 1)\000"
 11685      4C454153 
 11685      54385F4D 
 11685      494E2028 
 11685      2D5F5F49 
 11686              	.LASF252:
 11687 6a4e 5F5F554C 		.ascii	"__ULACCUM_FBIT__ 32\000"
 11687      41434355 
 11687      4D5F4642 
 11687      49545F5F 
 11687      20333200 
 11688              	.LASF577:
ARM GAS  /var/folders/z0/6xlwn_996xz3mwq1cgzkbq4r0000gp/T//cckgJHwF.s 			page 295


 11689 6a62 5343425F 		.ascii	"SCB_AIRCR_ENDIANESS_Pos 15\000"
 11689      41495243 
 11689      525F454E 
 11689      4449414E 
 11689      4553535F 
 11690              	.LASF686:
 11691 6a7d 53595343 		.ascii	"SYSCTL_SLPWAKE_WDTOSC_PD (1 << 6)\000"
 11691      544C5F53 
 11691      4C505741 
 11691      4B455F57 
 11691      44544F53 
 11692              	.LASF692:
 11693 6a9f 53595343 		.ascii	"SYSCTL_POWERDOWN_ADC_PD (1 << 4)\000"
 11693      544C5F50 
 11693      4F574552 
 11693      444F574E 
 11693      5F414443 
 11694              	.LASF429:
 11695 6ac0 5F5F696E 		.ascii	"__int64_t_defined 1\000"
 11695      7436345F 
 11695      745F6465 
 11695      66696E65 
 11695      64203100 
 11696              	.LASF86:
 11697 6ad4 5F5F494E 		.ascii	"__INT16_MAX__ 0x7fff\000"
 11697      5431365F 
 11697      4D41585F 
 11697      5F203078 
 11697      37666666 
 11698              	.LASF1203:
 11699 6ae9 636C6B69 		.ascii	"clkin\000"
 11699      6E00
 11700              	.LASF899:
 11701 6aef 5353505F 		.ascii	"SSP_SR_BITMASK ((uint32_t) (0x1F))\000"
 11701      53525F42 
 11701      49544D41 
 11701      534B2028 
 11701      2875696E 
 11702              	.LASF542:
 11703 6b12 5F5F4920 		.ascii	"__I volatile const\000"
 11703      766F6C61 
 11703      74696C65 
 11703      20636F6E 
 11703      737400
 11704              	.LASF863:
 11705 6b25 55415254 		.ascii	"UART_FDR_BITMASK (0xFF)\000"
 11705      5F464452 
 11705      5F424954 
 11705      4D41534B 
 11705      20283078 
 11706              	.LASF640:
 11707 6b3d 4C50435F 		.ascii	"LPC_SSP1_BASE 0x40058000\000"
 11707      53535031 
 11707      5F424153 
 11707      45203078 
 11707      34303035 
 11708              	.LASF409:
ARM GAS  /var/folders/z0/6xlwn_996xz3mwq1cgzkbq4r0000gp/T//cckgJHwF.s 			page 296


 11709 6b56 5F5F4641 		.ascii	"__FAST8 \000"
 11709      53543820 
 11709      00
 11710              	.LASF1116:
 11711 6b5f 4E4D4953 		.ascii	"NMISRC\000"
 11711      524300
 11712              	.LASF651:
 11713 6b66 4C50435F 		.ascii	"LPC_TIMER16_1 ((LPC_TIMER_T *) LPC_TIMER16_1_BASE)\000"
 11713      54494D45 
 11713      5231365F 
 11713      31202828 
 11713      4C50435F 
 11714              	.LASF267:
 11715 6b99 5F5F5151 		.ascii	"__QQ_FBIT__ 7\000"
 11715      5F464249 
 11715      545F5F20 
 11715      3700
 11716              	.LASF1006:
 11717 6ba7 4932435F 		.ascii	"I2C_ERR (0x10000000)\000"
 11717      45525220 
 11717      28307831 
 11717      30303030 
 11717      30303029 
 11718              	.LASF316:
 11719 6bbc 5F5F4743 		.ascii	"__GCC_ATOMIC_TEST_AND_SET_TRUEVAL 1\000"
 11719      435F4154 
 11719      4F4D4943 
 11719      5F544553 
 11719      545F414E 
 11720              	.LASF915:
 11721 6be0 4144435F 		.ascii	"ADC_DR_OVERRUN(n) ((((n) >> 30) & (1UL)))\000"
 11721      44525F4F 
 11721      56455252 
 11721      554E286E 
 11721      29202828 
 11722              	.LASF418:
 11723 6c0a 5F494E54 		.ascii	"_INT8_T_DECLARED \000"
 11723      385F545F 
 11723      4445434C 
 11723      41524544 
 11723      2000
 11724              	.LASF931:
 11725 6c1c 5F5F4932 		.ascii	"__I2C_11XX_H_ \000"
 11725      435F3131 
 11725      58585F48 
 11725      5F2000
 11726              	.LASF1174:
 11727 6c2b 43686970 		.ascii	"Chip_UART_ConfigData\000"
 11727      5F554152 
 11727      545F436F 
 11727      6E666967 
 11727      44617461 
 11728              	.LASF358:
 11729 6c40 5F5F474E 		.ascii	"__GNUC_PREREQ__(ma,mi) __GNUC_PREREQ(ma, mi)\000"
 11729      55435F50 
 11729      52455245 
 11729      515F5F28 
ARM GAS  /var/folders/z0/6xlwn_996xz3mwq1cgzkbq4r0000gp/T//cckgJHwF.s 			page 297


 11729      6D612C6D 
 11730              	.LASF1200:
 11731 6c6d 62617564 		.ascii	"baudrate\000"
 11731      72617465 
 11731      00
 11732              	.LASF689:
 11733 6c76 53595343 		.ascii	"SYSCTL_POWERDOWN_IRC_PD (1 << 1)\000"
 11733      544C5F50 
 11733      4F574552 
 11733      444F574E 
 11733      5F495243 
 11734              	.LASF302:
 11735 6c97 5F5F5554 		.ascii	"__UTA_IBIT__ 64\000"
 11735      415F4942 
 11735      49545F5F 
 11735      20363400 
 11736              	.LASF263:
 11737 6ca7 5F5F554C 		.ascii	"__ULLACCUM_IBIT__ 32\000"
 11737      4C414343 
 11737      554D5F49 
 11737      4249545F 
 11737      5F203332 
 11738              	.LASF538:
 11739 6cbc 5F5F4650 		.ascii	"__FPU_USED 0\000"
 11739      555F5553 
 11739      45442030 
 11739      00
 11740              	.LASF739:
 11741 6cc9 46554E43 		.ascii	"FUNC5 0x5\000"
 11741      35203078 
 11741      3500
 11742              	.LASF780:
 11743 6cd3 55415254 		.ascii	"UART_IIR_INTID_RDA (2 << 1)\000"
 11743      5F494952 
 11743      5F494E54 
 11743      49445F52 
 11743      44412028 
 11744              	.LASF226:
 11745 6cef 5F5F554C 		.ascii	"__ULLFRACT_EPSILON__ 0x1P-64ULLR\000"
 11745      4C465241 
 11745      43545F45 
 11745      5053494C 
 11745      4F4E5F5F 
 11746              	.LASF1104:
 11747 6d10 57445443 		.ascii	"WDTCLKDIV\000"
 11747      4C4B4449 
 11747      5600
 11748              	.LASF532:
 11749 6d1a 5F5F434D 		.ascii	"__CM0_CMSIS_VERSION_SUB (0x01)\000"
 11749      305F434D 
 11749      5349535F 
 11749      56455253 
 11749      494F4E5F 
 11750              	.LASF321:
 11751 6d39 5F5F5349 		.ascii	"__SIZEOF_WINT_T__ 4\000"
 11751      5A454F46 
 11751      5F57494E 
ARM GAS  /var/folders/z0/6xlwn_996xz3mwq1cgzkbq4r0000gp/T//cckgJHwF.s 			page 298


 11751      545F545F 
 11751      5F203400 
 11752              	.LASF669:
 11753 6d4d 504D555F 		.ascii	"PMU_PCON_DPDFLAG (1 << 11)\000"
 11753      50434F4E 
 11753      5F445044 
 11753      464C4147 
 11753      20283120 
 11754              	.LASF97:
 11755 6d68 5F5F494E 		.ascii	"__INT_LEAST32_MAX__ 0x7fffffffL\000"
 11755      545F4C45 
 11755      41535433 
 11755      325F4D41 
 11755      585F5F20 
 11756              	.LASF219:
 11757 6d88 5F5F4C4C 		.ascii	"__LLFRACT_MIN__ (-0.5LLR-0.5LLR)\000"
 11757      46524143 
 11757      545F4D49 
 11757      4E5F5F20 
 11757      282D302E 
 11758              	.LASF1074:
 11759 6da9 55534250 		.ascii	"USBPLLCTRL\000"
 11759      4C4C4354 
 11759      524C00
 11760              	.LASF1123:
 11761 6db4 53544152 		.ascii	"STARTRSRP0CLR\000"
 11761      54525352 
 11761      5030434C 
 11761      5200
 11762              	.LASF1073:
 11763 6dc2 53595350 		.ascii	"SYSPLLSTAT\000"
 11763      4C4C5354 
 11763      415400
 11764              	.LASF249:
 11765 6dcd 5F5F4C41 		.ascii	"__LACCUM_MIN__ (-0X1P31LK-0X1P31LK)\000"
 11765      4343554D 
 11765      5F4D494E 
 11765      5F5F2028 
 11765      2D305831 
 11766              	.LASF645:
 11767 6df1 4941505F 		.ascii	"IAP_ENTRY_LOCATION 0X1FFF1FF1\000"
 11767      454E5452 
 11767      595F4C4F 
 11767      43415449 
 11767      4F4E2030 
 11768              	.LASF109:
 11769 6e0f 5F5F494E 		.ascii	"__INT_FAST8_MAX__ 0x7fffffff\000"
 11769      545F4641 
 11769      5354385F 
 11769      4D41585F 
 11769      5F203078 
 11770              	.LASF733:
 11771 6e2c 4D445F4F 		.ascii	"MD_OPENDRAIN (0x1 << 10)\000"
 11771      50454E44 
 11771      5241494E 
 11771      20283078 
 11771      31203C3C 
ARM GAS  /var/folders/z0/6xlwn_996xz3mwq1cgzkbq4r0000gp/T//cckgJHwF.s 			page 299


 11772              	.LASF148:
 11773 6e45 5F5F4442 		.ascii	"__DBL_DENORM_MIN__ ((double)4.9406564584124654e-324"
 11773      4C5F4445 
 11773      4E4F524D 
 11773      5F4D494E 
 11773      5F5F2028 
 11774 6e78 4C2900   		.ascii	"L)\000"
 11775              	.LASF1190:
 11776 6e7b 43686970 		.ascii	"Chip_UART_EnableDivisorAccess\000"
 11776      5F554152 
 11776      545F456E 
 11776      61626C65 
 11776      44697669 
 11777              	.LASF1094:
 11778 6e99 53535030 		.ascii	"SSP0CLKDIV\000"
 11778      434C4B44 
 11778      495600
 11779              	.LASF191:
 11780 6ea4 5F5F5346 		.ascii	"__SFRACT_EPSILON__ 0x1P-7HR\000"
 11780      52414354 
 11780      5F455053 
 11780      494C4F4E 
 11780      5F5F2030 
 11781              	.LASF1198:
 11782 6ec0 43686970 		.ascii	"Chip_UART_ReadBlocking\000"
 11782      5F554152 
 11782      545F5265 
 11782      6164426C 
 11782      6F636B69 
 11783              	.LASF631:
 11784 6ed7 4C50435F 		.ascii	"LPC_DAC_BASE 0x40024000\000"
 11784      4441435F 
 11784      42415345 
 11784      20307834 
 11784      30303234 
 11785              	.LASF407:
 11786 6eef 5F5F494E 		.ascii	"__INT32 \"l\"\000"
 11786      54333220 
 11786      226C2200 
 11787              	.LASF573:
 11788 6efb 5343425F 		.ascii	"SCB_AIRCR_VECTKEY_Pos 16\000"
 11788      41495243 
 11788      525F5645 
 11788      43544B45 
 11788      595F506F 
 11789              	.LASF514:
 11790 6f14 5F424954 		.ascii	"_BITMASK(field_width) ( _BIT(field_width) - 1)\000"
 11790      4D41534B 
 11790      28666965 
 11790      6C645F77 
 11790      69647468 
 11791              	.LASF675:
 11792 6f43 53595343 		.ascii	"SYSCTL_RST_BOD (1 << 3)\000"
 11792      544C5F52 
 11792      53545F42 
 11792      4F442028 
 11792      31203C3C 
ARM GAS  /var/folders/z0/6xlwn_996xz3mwq1cgzkbq4r0000gp/T//cckgJHwF.s 			page 300


 11793              	.LASF671:
 11794 6f5b 5F5F5359 		.ascii	"__SYSCTL_11XX_H_ \000"
 11794      5343544C 
 11794      5F313158 
 11794      585F485F 
 11794      2000
 11795              	.LASF45:
 11796 6f6d 5F5F5549 		.ascii	"__UINT32_TYPE__ long unsigned int\000"
 11796      4E543332 
 11796      5F545950 
 11796      455F5F20 
 11796      6C6F6E67 
 11797              	.LASF846:
 11798 6f8f 55415254 		.ascii	"UART_RS485CTRL_SEL_DTR (1 << 3)\000"
 11798      5F525334 
 11798      38354354 
 11798      524C5F53 
 11798      454C5F44 
 11799              	.LASF343:
 11800 6faf 434F5245 		.ascii	"CORE_M0 1\000"
 11800      5F4D3020 
 11800      3100
 11801              	.LASF888:
 11802 6fb9 5353505F 		.ascii	"SSP_CR0_CPHA_SECOND ((uint32_t) (1 << 7))\000"
 11802      4352305F 
 11802      43504841 
 11802      5F534543 
 11802      4F4E4420 
 11803              	.LASF742:
 11804 6fe3 5F5F5449 		.ascii	"__TIMER_11XX_H_ \000"
 11804      4D45525F 
 11804      31315858 
 11804      5F485F20 
 11804      00
 11805              	.LASF734:
 11806 6ff4 46554E43 		.ascii	"FUNC0 0x0\000"
 11806      30203078 
 11806      3000
 11807              	.LASF1027:
 11808 6ffe 53444F5F 		.ascii	"SDO_ABORT_SDOTIMEOUT 0x05040000UL\000"
 11808      41424F52 
 11808      545F5344 
 11808      4F54494D 
 11808      454F5554 
 11809              	.LASF829:
 11810 7020 55415254 		.ascii	"UART_MSR_DELTA_DSR (1 << 1)\000"
 11810      5F4D5352 
 11810      5F44454C 
 11810      54415F44 
 11810      53522028 
 11811              	.LASF224:
 11812 703c 5F5F554C 		.ascii	"__ULLFRACT_MIN__ 0.0ULLR\000"
 11812      4C465241 
 11812      43545F4D 
 11812      494E5F5F 
 11812      20302E30 
 11813              	.LASF680:
ARM GAS  /var/folders/z0/6xlwn_996xz3mwq1cgzkbq4r0000gp/T//cckgJHwF.s 			page 301


 11814 7055 53595343 		.ascii	"SYSCTL_SLPWAKE_IRCOUT_PD (1 << 0)\000"
 11814      544C5F53 
 11814      4C505741 
 11814      4B455F49 
 11814      52434F55 
 11815              	.LASF649:
 11816 7077 4C50435F 		.ascii	"LPC_USART ((LPC_USART_T *) LPC_USART_BASE)\000"
 11816      55534152 
 11816      54202828 
 11816      4C50435F 
 11816      55534152 
 11817              	.LASF284:
 11818 70a2 5F5F5544 		.ascii	"__UDQ_IBIT__ 0\000"
 11818      515F4942 
 11818      49545F5F 
 11818      203000
 11819              	.LASF14:
 11820 70b1 5F5F5349 		.ascii	"__SIZEOF_INT__ 4\000"
 11820      5A454F46 
 11820      5F494E54 
 11820      5F5F2034 
 11820      00
 11821              	.LASF545:
 11822 70c2 5343425F 		.ascii	"SCB_CPUID_IMPLEMENTER_Pos 24\000"
 11822      43505549 
 11822      445F494D 
 11822      504C454D 
 11822      454E5445 
 11823              	.LASF218:
 11824 70df 5F5F4C4C 		.ascii	"__LLFRACT_IBIT__ 0\000"
 11824      46524143 
 11824      545F4942 
 11824      49545F5F 
 11824      203000
 11825              	.LASF494:
 11826 70f2 55494E54 		.ascii	"UINT16_C(x) __UINT16_C(x)\000"
 11826      31365F43 
 11826      28782920 
 11826      5F5F5549 
 11826      4E543136 
 11827              	.LASF394:
 11828 710c 5F5F696E 		.ascii	"__int20\000"
 11828      74323000 
 11829              	.LASF1141:
 11830 7114 53595343 		.ascii	"SYSCTL_CLOCK_CT16B0\000"
 11830      544C5F43 
 11830      4C4F434B 
 11830      5F435431 
 11830      36423000 
 11831              	.LASF1067:
 11832 7128 75696E74 		.ascii	"uint32_t\000"
 11832      33325F74 
 11832      00
 11833              	.LASF857:
 11834 7131 55415254 		.ascii	"UART_SCICTRL_NACKDIS (1 << 1)\000"
 11834      5F534349 
 11834      4354524C 
ARM GAS  /var/folders/z0/6xlwn_996xz3mwq1cgzkbq4r0000gp/T//cckgJHwF.s 			page 302


 11834      5F4E4143 
 11834      4B444953 
 11835              	.LASF386:
 11836 714f 5F535953 		.ascii	"_SYS__INTSUP_H \000"
 11836      5F5F494E 
 11836      54535550 
 11836      5F482000 
 11837              	.LASF1124:
 11838 715f 53544152 		.ascii	"STARTSRP0\000"
 11838      54535250 
 11838      3000
 11839              	.LASF603:
 11840 7169 53797354 		.ascii	"SysTick_LOAD_RELOAD_Pos 0\000"
 11840      69636B5F 
 11840      4C4F4144 
 11840      5F52454C 
 11840      4F41445F 
 11841              	.LASF231:
 11842 7183 5F5F5341 		.ascii	"__SACCUM_EPSILON__ 0x1P-7HK\000"
 11842      4343554D 
 11842      5F455053 
 11842      494C4F4E 
 11842      5F5F2030 
 11843              	.LASF668:
 11844 719f 504D555F 		.ascii	"PMU_PCON_SLEEPFLAG (1 << 8)\000"
 11844      50434F4E 
 11844      5F534C45 
 11844      4550464C 
 11844      41472028 
 11845              	.LASF735:
 11846 71bb 46554E43 		.ascii	"FUNC1 0x1\000"
 11846      31203078 
 11846      3100
 11847              	.LASF477:
 11848 71c5 494E545F 		.ascii	"INT_FAST64_MAX (__INT_FAST64_MAX__)\000"
 11848      46415354 
 11848      36345F4D 
 11848      41582028 
 11848      5F5F494E 
 11849              	.LASF760:
 11850 71e9 55415254 		.ascii	"UART_DLL_MASKBIT (0xFF)\000"
 11850      5F444C4C 
 11850      5F4D4153 
 11850      4B424954 
 11850      20283078 
 11851              	.LASF362:
 11852 7201 5F504F53 		.ascii	"_POSIX_SOURCE 1\000"
 11852      49585F53 
 11852      4F555243 
 11852      45203100 
 11853              	.LASF528:
 11854 7211 5F5F4E56 		.ascii	"__NVIC_PRIO_BITS 2\000"
 11854      49435F50 
 11854      52494F5F 
 11854      42495453 
 11854      203200
 11855              	.LASF60:
ARM GAS  /var/folders/z0/6xlwn_996xz3mwq1cgzkbq4r0000gp/T//cckgJHwF.s 			page 303


 11856 7224 5F5F5549 		.ascii	"__UINT_FAST16_TYPE__ unsigned int\000"
 11856      4E545F46 
 11856      41535431 
 11856      365F5459 
 11856      50455F5F 
 11857              	.LASF610:
 11858 7246 53797354 		.ascii	"SysTick_CALIB_SKEW_Msk (1UL << SysTick_CALIB_SKEW_P"
 11858      69636B5F 
 11858      43414C49 
 11858      425F534B 
 11858      45575F4D 
 11859 7279 6F732900 		.ascii	"os)\000"
 11860              	.LASF296:
 11861 727d 5F5F5548 		.ascii	"__UHA_IBIT__ 8\000"
 11861      415F4942 
 11861      49545F5F 
 11861      203800
 11862              	.LASF352:
 11863 728c 5F4E4557 		.ascii	"_NEWLIB_VERSION_H__ 1\000"
 11863      4C49425F 
 11863      56455253 
 11863      494F4E5F 
 11863      485F5F20 
 11864              	.LASF241:
 11865 72a2 5F5F4143 		.ascii	"__ACCUM_EPSILON__ 0x1P-15K\000"
 11865      43554D5F 
 11865      45505349 
 11865      4C4F4E5F 
 11865      5F203078 
 11866              	.LASF256:
 11867 72bd 5F5F554C 		.ascii	"__ULACCUM_EPSILON__ 0x1P-32ULK\000"
 11867      41434355 
 11867      4D5F4550 
 11867      53494C4F 
 11867      4E5F5F20 
 11868              	.LASF153:
 11869 72dc 5F5F4C44 		.ascii	"__LDBL_DIG__ 15\000"
 11869      424C5F44 
 11869      49475F5F 
 11869      20313500 
 11870              	.LASF1078:
 11871 72ec 5744544F 		.ascii	"WDTOSCCTRL\000"
 11871      53434354 
 11871      524C00
 11872              	.LASF818:
 11873 72f7 55415254 		.ascii	"UART_LSR_OE (1 << 1)\000"
 11873      5F4C5352 
 11873      5F4F4520 
 11873      2831203C 
 11873      3C203129 
 11874              	.LASF988:
 11875 730c 4932435F 		.ascii	"I2C_I2MMCTRL_ENA_SCL ((1 << 1))\000"
 11875      49324D4D 
 11875      4354524C 
 11875      5F454E41 
 11875      5F53434C 
 11876              	.LASF1108:
ARM GAS  /var/folders/z0/6xlwn_996xz3mwq1cgzkbq4r0000gp/T//cckgJHwF.s 			page 304


 11877 732c 434C4B4F 		.ascii	"CLKOUTDIV\000"
 11877      55544449 
 11877      5600
 11878              	.LASF76:
 11879 7336 5F5F5749 		.ascii	"__WINT_MIN__ 0U\000"
 11879      4E545F4D 
 11879      494E5F5F 
 11879      20305500 
 11880              	.LASF710:
 11881 7346 494F434F 		.ascii	"IOCON_MODE_REPEATER (0x3 << 3)\000"
 11881      4E5F4D4F 
 11881      44455F52 
 11881      45504541 
 11881      54455220 
 11882              	.LASF1185:
 11883 7365 43686970 		.ascii	"Chip_UART_Send\000"
 11883      5F554152 
 11883      545F5365 
 11883      6E6400
 11884              	.LASF178:
 11885 7374 5F5F4445 		.ascii	"__DEC64_EPSILON__ 1E-15DD\000"
 11885      4336345F 
 11885      45505349 
 11885      4C4F4E5F 
 11885      5F203145 
 11886              	.LASF75:
 11887 738e 5F5F5749 		.ascii	"__WINT_MAX__ 0xffffffffU\000"
 11887      4E545F4D 
 11887      41585F5F 
 11887      20307866 
 11887      66666666 
 11888              	.LASF48:
 11889 73a7 5F5F494E 		.ascii	"__INT_LEAST16_TYPE__ short int\000"
 11889      545F4C45 
 11889      41535431 
 11889      365F5459 
 11889      50455F5F 
 11890              	.LASF1096:
 11891 73c6 53535031 		.ascii	"SSP1CLKDIV\000"
 11891      434C4B44 
 11891      495600
 11892              	.LASF681:
 11893 73d1 53595343 		.ascii	"SYSCTL_SLPWAKE_IRC_PD (1 << 1)\000"
 11893      544C5F53 
 11893      4C505741 
 11893      4B455F49 
 11893      52435F50 
 11894              	.LASF145:
 11895 73f0 5F5F4442 		.ascii	"__DBL_MAX__ ((double)1.7976931348623157e+308L)\000"
 11895      4C5F4D41 
 11895      585F5F20 
 11895      2828646F 
 11895      75626C65 
 11896              	.LASF1059:
 11897 741f 73686F72 		.ascii	"short unsigned int\000"
 11897      7420756E 
 11897      7369676E 
ARM GAS  /var/folders/z0/6xlwn_996xz3mwq1cgzkbq4r0000gp/T//cckgJHwF.s 			page 305


 11897      65642069 
 11897      6E7400
 11898              	.LASF217:
 11899 7432 5F5F4C4C 		.ascii	"__LLFRACT_FBIT__ 63\000"
 11899      46524143 
 11899      545F4642 
 11899      49545F5F 
 11899      20363300 
 11900              	.LASF546:
 11901 7446 5343425F 		.ascii	"SCB_CPUID_IMPLEMENTER_Msk (0xFFUL << SCB_CPUID_IMPL"
 11901      43505549 
 11901      445F494D 
 11901      504C454D 
 11901      454E5445 
 11902 7479 454D454E 		.ascii	"EMENTER_Pos)\000"
 11902      5445525F 
 11902      506F7329 
 11902      00
 11903              	.LASF329:
 11904 7486 5F5F7468 		.ascii	"__thumb__ 1\000"
 11904      756D625F 
 11904      5F203100 
 11905              	.LASF919:
 11906 7492 4144435F 		.ascii	"ADC_CR_PDN ((1UL << 21))\000"
 11906      43525F50 
 11906      444E2028 
 11906      2831554C 
 11906      203C3C20 
 11907              	.LASF379:
 11908 74ab 5F5F5F69 		.ascii	"___int32_t_defined 1\000"
 11908      6E743332 
 11908      5F745F64 
 11908      6566696E 
 11908      65642031 
 11909              	.LASF868:
 11910 74c0 55415254 		.ascii	"UART_SYNCCTRL_FES (1 << 2)\000"
 11910      5F53594E 
 11910      43435452 
 11910      4C5F4645 
 11910      53202831 
 11911              	.LASF331:
 11912 74db 5F5F4152 		.ascii	"__ARMEL__ 1\000"
 11912      4D454C5F 
 11912      5F203100 
 11913              	.LASF872:
 11914 74e7 55415254 		.ascii	"UART_SYNCCTRL_CCCLR (1 << 6)\000"
 11914      5F53594E 
 11914      43435452 
 11914      4C5F4343 
 11914      434C5220 
 11915              	.LASF269:
 11916 7504 5F5F4851 		.ascii	"__HQ_FBIT__ 15\000"
 11916      5F464249 
 11916      545F5F20 
 11916      313500
 11917              	.LASF506:
 11918 7513 5F5F626F 		.ascii	"__bool_true_false_are_defined 1\000"
ARM GAS  /var/folders/z0/6xlwn_996xz3mwq1cgzkbq4r0000gp/T//cckgJHwF.s 			page 306


 11918      6F6C5F74 
 11918      7275655F 
 11918      66616C73 
 11918      655F6172 
 11919              	.LASF971:
 11920 7533 4932435F 		.ascii	"I2C_I2STAT_S_RX_ARB_LOST_M_SLA ((0x68))\000"
 11920      49325354 
 11920      41545F53 
 11920      5F52585F 
 11920      4152425F 
 11921              	.LASF404:
 11922 755b 5F494E54 		.ascii	"_INT32_EQ_LONG \000"
 11922      33325F45 
 11922      515F4C4F 
 11922      4E472000 
 11923              	.LASF581:
 11924 756b 5343425F 		.ascii	"SCB_AIRCR_VECTCLRACTIVE_Pos 1\000"
 11924      41495243 
 11924      525F5645 
 11924      4354434C 
 11924      52414354 
 11925              	.LASF991:
 11926 7589 49324441 		.ascii	"I2DATA_BUFFER_BITMASK ((0xFF))\000"
 11926      54415F42 
 11926      55464645 
 11926      525F4249 
 11926      544D4153 
 11927              	.LASF78:
 11928 75a8 5F5F5349 		.ascii	"__SIZE_MAX__ 0xffffffffU\000"
 11928      5A455F4D 
 11928      41585F5F 
 11928      20307866 
 11928      66666666 
 11929              	.LASF526:
 11930 75c1 5F5F434D 		.ascii	"__CMSIS_11CXX_H_ \000"
 11930      5349535F 
 11930      31314358 
 11930      585F485F 
 11930      2000
 11931              	.LASF1032:
 11932 75d3 53444F5F 		.ascii	"SDO_ABORT_NOT_EXISTS 0x06020000UL\000"
 11932      41424F52 
 11932      545F4E4F 
 11932      545F4558 
 11932      49535453 
 11933              	.LASF970:
 11934 75f5 4932435F 		.ascii	"I2C_I2STAT_S_RX_SLAW_ACK ((0x60))\000"
 11934      49325354 
 11934      41545F53 
 11934      5F52585F 
 11934      534C4157 
 11935              	.LASF623:
 11936 7617 4C50435F 		.ascii	"LPC_I2C_BASE 0x40000000\000"
 11936      4932435F 
 11936      42415345 
 11936      20307834 
 11936      30303030 
ARM GAS  /var/folders/z0/6xlwn_996xz3mwq1cgzkbq4r0000gp/T//cckgJHwF.s 			page 307


 11937              	.LASF852:
 11938 762f 55415254 		.ascii	"UART_ICR_FIXPULSE_EN (1 << 2)\000"
 11938      5F494352 
 11938      5F464958 
 11938      50554C53 
 11938      455F454E 
 11939              	.LASF1048:
 11940 764d 43414E5F 		.ascii	"CAN_SDOREQ_NOTHANDLED 0\000"
 11940      53444F52 
 11940      45515F4E 
 11940      4F544841 
 11940      4E444C45 
 11941              	.LASF445:
 11942 7665 55494E54 		.ascii	"UINT8_MAX (__UINT8_MAX__)\000"
 11942      385F4D41 
 11942      5820285F 
 11942      5F55494E 
 11942      54385F4D 
 11943              	.LASF71:
 11944 767f 5F5F4C4F 		.ascii	"__LONG_MAX__ 0x7fffffffL\000"
 11944      4E475F4D 
 11944      41585F5F 
 11944      20307837 
 11944      66666666 
 11945              	.LASF423:
 11946 7698 5F5F696E 		.ascii	"__int16_t_defined 1\000"
 11946      7431365F 
 11946      745F6465 
 11946      66696E65 
 11946      64203100 
 11947              	.LASF469:
 11948 76ac 55494E54 		.ascii	"UINT_FAST8_MAX (__UINT_FAST8_MAX__)\000"
 11948      5F464153 
 11948      54385F4D 
 11948      41582028 
 11948      5F5F5549 
 11949              	.LASF432:
 11950 76d0 5F5F696E 		.ascii	"__int_least8_t_defined 1\000"
 11950      745F6C65 
 11950      61737438 
 11950      5F745F64 
 11950      6566696E 
 11951              	.LASF878:
 11952 76e9 57574454 		.ascii	"WWDT_WDMOD_WDINT ((uint32_t) (1 << 3))\000"
 11952      5F57444D 
 11952      4F445F57 
 11952      44494E54 
 11952      20282875 
 11953              	.LASF924:
 11954 7710 4144435F 		.ascii	"ADC_CR_START_CTOUT8 ((3UL << 24))\000"
 11954      43525F53 
 11954      54415254 
 11954      5F43544F 
 11954      55543820 
 11955              	.LASF1207:
 11956 7732 43686970 		.ascii	"Chip_UART_ReadRB\000"
 11956      5F554152 
ARM GAS  /var/folders/z0/6xlwn_996xz3mwq1cgzkbq4r0000gp/T//cckgJHwF.s 			page 308


 11956      545F5265 
 11956      61645242 
 11956      00
 11957              	.LASF627:
 11958 7743 4C50435F 		.ascii	"LPC_TIMER16_1_BASE 0x40010000\000"
 11958      54494D45 
 11958      5231365F 
 11958      315F4241 
 11958      53452030 
 11959              	.LASF979:
 11960 7761 4932435F 		.ascii	"I2C_I2STAT_S_TX_SLAR_ACK ((0xA8))\000"
 11960      49325354 
 11960      41545F53 
 11960      5F54585F 
 11960      534C4152 
 11961              	.LASF1113:
 11962 7783 53595354 		.ascii	"SYSTCKCAL\000"
 11962      434B4341 
 11962      4C00
 11963              	.LASF20:
 11964 778d 5F5F5349 		.ascii	"__SIZEOF_LONG_DOUBLE__ 8\000"
 11964      5A454F46 
 11964      5F4C4F4E 
 11964      475F444F 
 11964      55424C45 
 11965              	.LASF897:
 11966 77a6 5353505F 		.ascii	"SSP_CPSR_BITMASK ((uint32_t) (0xFF))\000"
 11966      43505352 
 11966      5F424954 
 11966      4D41534B 
 11966      20282875 
 11967              	.LASF30:
 11968 77cb 5F5F5349 		.ascii	"__SIZE_TYPE__ unsigned int\000"
 11968      5A455F54 
 11968      5950455F 
 11968      5F20756E 
 11968      7369676E 
 11969              	.LASF975:
 11970 77e6 4932435F 		.ascii	"I2C_I2STAT_S_RX_PRE_SLA_DAT_NACK ((0x88))\000"
 11970      49325354 
 11970      41545F53 
 11970      5F52585F 
 11970      5052455F 
 11971              	.LASF871:
 11972 7810 55415254 		.ascii	"UART_SYNCCTRL_STARTSTOPDISABLE (1 << 5)\000"
 11972      5F53594E 
 11972      43435452 
 11972      4C5F5354 
 11972      41525453 
 11973              	.LASF1098:
 11974 7838 55534243 		.ascii	"USBCLKSEL\000"
 11974      4C4B5345 
 11974      4C00
 11975              	.LASF107:
 11976 7842 5F5F5549 		.ascii	"__UINT_LEAST64_MAX__ 0xffffffffffffffffULL\000"
 11976      4E545F4C 
 11976      45415354 
ARM GAS  /var/folders/z0/6xlwn_996xz3mwq1cgzkbq4r0000gp/T//cckgJHwF.s 			page 309


 11976      36345F4D 
 11976      41585F5F 
 11977              	.LASF190:
 11978 786d 5F5F5346 		.ascii	"__SFRACT_MAX__ 0X7FP-7HR\000"
 11978      52414354 
 11978      5F4D4158 
 11978      5F5F2030 
 11978      58374650 
 11979              	.LASF753:
 11980 7886 54494D45 		.ascii	"TIMER_INT_ON_CAP(n) (_BIT((((n) * 3) + 2)))\000"
 11980      525F494E 
 11980      545F4F4E 
 11980      5F434150 
 11980      286E2920 
 11981              	.LASF1015:
 11982 78b2 43414E5F 		.ascii	"CAN_ERROR_BOFF 0x00000004UL\000"
 11982      4552524F 
 11982      525F424F 
 11982      46462030 
 11982      78303030 
 11983              	.LASF896:
 11984 78ce 5353505F 		.ascii	"SSP_CR1_BITMASK ((uint32_t) (0x0F))\000"
 11984      4352315F 
 11984      4249544D 
 11984      41534B20 
 11984      28287569 
 11985              	.LASF928:
 11986 78f2 4144435F 		.ascii	"ADC_CR_EDGE ((1UL << 27))\000"
 11986      43525F45 
 11986      44474520 
 11986      28283155 
 11986      4C203C3C 
 11987              	.LASF96:
 11988 790c 5F5F494E 		.ascii	"__INT16_C(c) c\000"
 11988      5431365F 
 11988      43286329 
 11988      206300
 11989              	.LASF1021:
 11990 791b 43414E5F 		.ascii	"CAN_ERROR_CRC 0x00000100UL\000"
 11990      4552524F 
 11990      525F4352 
 11990      43203078 
 11990      30303030 
 11991              	.LASF1179:
 11992 7936 43686970 		.ascii	"Chip_UART_SendByte\000"
 11992      5F554152 
 11992      545F5365 
 11992      6E644279 
 11992      746500
 11993              	.LASF986:
 11994 7949 4932435F 		.ascii	"I2C_I2DAT_IDLE_CHAR (0xFF)\000"
 11994      49324441 
 11994      545F4944 
 11994      4C455F43 
 11994      48415220 
 11995              	.LASF399:
 11996 7964 73686F72 		.ascii	"short +1\000"
ARM GAS  /var/folders/z0/6xlwn_996xz3mwq1cgzkbq4r0000gp/T//cckgJHwF.s 			page 310


 11996      74202B31 
 11996      00
 11997              	.LASF1025:
 11998 796d 43414E5F 		.ascii	"CAN_MSGOBJ_RTR 0x40000000UL\000"
 11998      4D53474F 
 11998      424A5F52 
 11998      54522030 
 11998      78343030 
 11999              	.LASF584:
 12000 7989 5343425F 		.ascii	"SCB_SCR_SEVONPEND_Msk (1UL << SCB_SCR_SEVONPEND_Pos"
 12000      5343525F 
 12000      5345564F 
 12000      4E50454E 
 12000      445F4D73 
 12001 79bc 2900     		.ascii	")\000"
 12002              	.LASF778:
 12003 79be 55415254 		.ascii	"UART_IIR_INTID_MASK (7 << 1)\000"
 12003      5F494952 
 12003      5F494E54 
 12003      49445F4D 
 12003      41534B20 
 12004              	.LASF10:
 12005 79db 5F5F4154 		.ascii	"__ATOMIC_ACQ_REL 4\000"
 12005      4F4D4943 
 12005      5F414351 
 12005      5F52454C 
 12005      203400
 12006              	.LASF41:
 12007 79ee 5F5F494E 		.ascii	"__INT32_TYPE__ long int\000"
 12007      5433325F 
 12007      54595045 
 12007      5F5F206C 
 12007      6F6E6720 
 12008              	.LASF347:
 12009 7a06 5F5F4348 		.ascii	"__CHIP_H_ \000"
 12009      49505F48 
 12009      5F2000
 12010              	.LASF141:
 12011 7a11 5F5F4442 		.ascii	"__DBL_MIN_10_EXP__ (-307)\000"
 12011      4C5F4D49 
 12011      4E5F3130 
 12011      5F455850 
 12011      5F5F2028 
 12012              	.LASF1154:
 12013 7a2b 64617461 		.ascii	"data\000"
 12013      00
 12014              	.LASF576:
 12015 7a30 5343425F 		.ascii	"SCB_AIRCR_VECTKEYSTAT_Msk (0xFFFFUL << SCB_AIRCR_VE"
 12015      41495243 
 12015      525F5645 
 12015      43544B45 
 12015      59535441 
 12016 7a63 43544B45 		.ascii	"CTKEYSTAT_Pos)\000"
 12016      59535441 
 12016      545F506F 
 12016      732900
 12017              	.LASF616:
ARM GAS  /var/folders/z0/6xlwn_996xz3mwq1cgzkbq4r0000gp/T//cckgJHwF.s 			page 311


 12018 7a72 5343425F 		.ascii	"SCB_BASE (SCS_BASE + 0x0D00UL)\000"
 12018      42415345 
 12018      20285343 
 12018      535F4241 
 12018      5345202B 
 12019              	.LASF1172:
 12020 7a91 70554152 		.ascii	"pUART\000"
 12020      5400
 12021              	.LASF655:
 12022 7a97 4C50435F 		.ascii	"LPC_PMU ((LPC_PMU_T *) LPC_PMU_BASE)\000"
 12022      504D5520 
 12022      28284C50 
 12022      435F504D 
 12022      555F5420 
 12023              	.LASF536:
 12024 7abc 5F5F494E 		.ascii	"__INLINE inline\000"
 12024      4C494E45 
 12024      20696E6C 
 12024      696E6500 
 12025              	.LASF474:
 12026 7acc 494E545F 		.ascii	"INT_FAST32_MAX (__INT_FAST32_MAX__)\000"
 12026      46415354 
 12026      33325F4D 
 12026      41582028 
 12026      5F5F494E 
 12027              	.LASF835:
 12028 7af0 55415254 		.ascii	"UART_MSR_DCD (1 << 7)\000"
 12028      5F4D5352 
 12028      5F444344 
 12028      20283120 
 12028      3C3C2037 
 12029              	.LASF1011:
 12030 7b06 5F5F4343 		.ascii	"__CCAND_11XX_H_ \000"
 12030      414E445F 
 12030      31315858 
 12030      5F485F20 
 12030      00
 12031              	.LASF363:
 12032 7b17 5F504F53 		.ascii	"_POSIX_C_SOURCE\000"
 12032      49585F43 
 12032      5F534F55 
 12032      52434500 
 12033              	.LASF81:
 12034 7b27 5F5F5549 		.ascii	"__UINTMAX_MAX__ 0xffffffffffffffffULL\000"
 12034      4E544D41 
 12034      585F4D41 
 12034      585F5F20 
 12034      30786666 
 12035              	.LASF1151:
 12036 7b4d 53595343 		.ascii	"SYSCTL_CLOCK_CAN\000"
 12036      544C5F43 
 12036      4C4F434B 
 12036      5F43414E 
 12036      00
 12037              	.LASF138:
 12038 7b5e 5F5F4442 		.ascii	"__DBL_MANT_DIG__ 53\000"
 12038      4C5F4D41 
ARM GAS  /var/folders/z0/6xlwn_996xz3mwq1cgzkbq4r0000gp/T//cckgJHwF.s 			page 312


 12038      4E545F44 
 12038      49475F5F 
 12038      20353300 
 12039              	.LASF1186:
 12040 7b72 43686970 		.ascii	"Chip_UART_Read\000"
 12040      5F554152 
 12040      545F5265 
 12040      616400
 12041              	.LASF800:
 12042 7b81 55415254 		.ascii	"UART_LCR_SBS_1BIT (0 << 2)\000"
 12042      5F4C4352 
 12042      5F534253 
 12042      5F314249 
 12042      54202830 
 12043              	.LASF70:
 12044 7b9c 5F5F494E 		.ascii	"__INT_MAX__ 0x7fffffff\000"
 12044      545F4D41 
 12044      585F5F20 
 12044      30783766 
 12044      66666666 
 12045              	.LASF50:
 12046 7bb3 5F5F494E 		.ascii	"__INT_LEAST64_TYPE__ long long int\000"
 12046      545F4C45 
 12046      41535436 
 12046      345F5459 
 12046      50455F5F 
 12047              	.LASF776:
 12048 7bd6 55415254 		.ascii	"UART_IIR_ABTO_INT (1 << 9)\000"
 12048      5F494952 
 12048      5F414254 
 12048      4F5F494E 
 12048      54202831 
 12049              	.LASF917:
 12050 7bf1 4144435F 		.ascii	"ADC_CR_CLKDIV(n) ((((n) & 0xFF) << 8))\000"
 12050      43525F43 
 12050      4C4B4449 
 12050      56286E29 
 12050      20282828 
 12051              	.LASF952:
 12052 7c18 4932435F 		.ascii	"I2C_STAT_CODE_BITMASK ((0xF8))\000"
 12052      53544154 
 12052      5F434F44 
 12052      455F4249 
 12052      544D4153 
 12053              	.LASF227:
 12054 7c37 5F5F5341 		.ascii	"__SACCUM_FBIT__ 7\000"
 12054      4343554D 
 12054      5F464249 
 12054      545F5F20 
 12054      3700
 12055              	.LASF264:
 12056 7c49 5F5F554C 		.ascii	"__ULLACCUM_MIN__ 0.0ULLK\000"
 12056      4C414343 
 12056      554D5F4D 
 12056      494E5F5F 
 12056      20302E30 
 12057              	.LASF832:
ARM GAS  /var/folders/z0/6xlwn_996xz3mwq1cgzkbq4r0000gp/T//cckgJHwF.s 			page 313


 12058 7c62 55415254 		.ascii	"UART_MSR_CTS (1 << 4)\000"
 12058      5F4D5352 
 12058      5F435453 
 12058      20283120 
 12058      3C3C2034 
 12059              	.LASF998:
 12060 7c78 4932435F 		.ascii	"I2C_SETUP_STATUS_NOACKF (1 << 9)\000"
 12060      53455455 
 12060      505F5354 
 12060      41545553 
 12060      5F4E4F41 
 12061              		.ident	"GCC: (GNU Tools for ARM Embedded Processors) 5.4.1 20160919 (release) [ARM/embedded-5-bran
ARM GAS  /var/folders/z0/6xlwn_996xz3mwq1cgzkbq4r0000gp/T//cckgJHwF.s 			page 314


DEFINED SYMBOLS
                            *ABS*:0000000000000000 uart_11xx.c
/var/folders/z0/6xlwn_996xz3mwq1cgzkbq4r0000gp/T//cckgJHwF.s:80     .text.Chip_UART_Init:0000000000000000 $t
/var/folders/z0/6xlwn_996xz3mwq1cgzkbq4r0000gp/T//cckgJHwF.s:85     .text.Chip_UART_Init:0000000000000000 Chip_UART_Init
/var/folders/z0/6xlwn_996xz3mwq1cgzkbq4r0000gp/T//cckgJHwF.s:158    .text.Chip_UART_Init:0000000000000024 $d
/var/folders/z0/6xlwn_996xz3mwq1cgzkbq4r0000gp/T//cckgJHwF.s:163    .text.Chip_UART_DeInit:0000000000000000 $t
/var/folders/z0/6xlwn_996xz3mwq1cgzkbq4r0000gp/T//cckgJHwF.s:168    .text.Chip_UART_DeInit:0000000000000000 Chip_UART_DeInit
/var/folders/z0/6xlwn_996xz3mwq1cgzkbq4r0000gp/T//cckgJHwF.s:201    .text.Chip_UART_DeInit:0000000000000010 $d
/var/folders/z0/6xlwn_996xz3mwq1cgzkbq4r0000gp/T//cckgJHwF.s:207    .text.Chip_UART_Send:0000000000000000 $t
/var/folders/z0/6xlwn_996xz3mwq1cgzkbq4r0000gp/T//cckgJHwF.s:212    .text.Chip_UART_Send:0000000000000000 Chip_UART_Send
/var/folders/z0/6xlwn_996xz3mwq1cgzkbq4r0000gp/T//cckgJHwF.s:297    .text.Chip_UART_SendBlocking:0000000000000000 $t
/var/folders/z0/6xlwn_996xz3mwq1cgzkbq4r0000gp/T//cckgJHwF.s:302    .text.Chip_UART_SendBlocking:0000000000000000 Chip_UART_SendBlocking
/var/folders/z0/6xlwn_996xz3mwq1cgzkbq4r0000gp/T//cckgJHwF.s:390    .text.Chip_UART_Read:0000000000000000 $t
/var/folders/z0/6xlwn_996xz3mwq1cgzkbq4r0000gp/T//cckgJHwF.s:395    .text.Chip_UART_Read:0000000000000000 Chip_UART_Read
/var/folders/z0/6xlwn_996xz3mwq1cgzkbq4r0000gp/T//cckgJHwF.s:477    .text.Chip_UART_ReadBlocking:0000000000000000 $t
/var/folders/z0/6xlwn_996xz3mwq1cgzkbq4r0000gp/T//cckgJHwF.s:482    .text.Chip_UART_ReadBlocking:0000000000000000 Chip_UART_ReadBlocking
/var/folders/z0/6xlwn_996xz3mwq1cgzkbq4r0000gp/T//cckgJHwF.s:568    .text.Chip_UART_SetBaud:0000000000000000 $t
/var/folders/z0/6xlwn_996xz3mwq1cgzkbq4r0000gp/T//cckgJHwF.s:573    .text.Chip_UART_SetBaud:0000000000000000 Chip_UART_SetBaud
/var/folders/z0/6xlwn_996xz3mwq1cgzkbq4r0000gp/T//cckgJHwF.s:664    .text.Chip_UART_RXIntHandlerRB:0000000000000000 $t
/var/folders/z0/6xlwn_996xz3mwq1cgzkbq4r0000gp/T//cckgJHwF.s:669    .text.Chip_UART_RXIntHandlerRB:0000000000000000 Chip_UART_RXIntHandlerRB
/var/folders/z0/6xlwn_996xz3mwq1cgzkbq4r0000gp/T//cckgJHwF.s:741    .text.Chip_UART_TXIntHandlerRB:0000000000000000 $t
/var/folders/z0/6xlwn_996xz3mwq1cgzkbq4r0000gp/T//cckgJHwF.s:746    .text.Chip_UART_TXIntHandlerRB:0000000000000000 Chip_UART_TXIntHandlerRB
/var/folders/z0/6xlwn_996xz3mwq1cgzkbq4r0000gp/T//cckgJHwF.s:820    .text.Chip_UART_SendRB:0000000000000000 $t
/var/folders/z0/6xlwn_996xz3mwq1cgzkbq4r0000gp/T//cckgJHwF.s:825    .text.Chip_UART_SendRB:0000000000000000 Chip_UART_SendRB
/var/folders/z0/6xlwn_996xz3mwq1cgzkbq4r0000gp/T//cckgJHwF.s:937    .text.Chip_UART_ReadRB:0000000000000000 $t
/var/folders/z0/6xlwn_996xz3mwq1cgzkbq4r0000gp/T//cckgJHwF.s:942    .text.Chip_UART_ReadRB:0000000000000000 Chip_UART_ReadRB
/var/folders/z0/6xlwn_996xz3mwq1cgzkbq4r0000gp/T//cckgJHwF.s:970    .text.Chip_UART_IRQRBHandler:0000000000000000 $t
/var/folders/z0/6xlwn_996xz3mwq1cgzkbq4r0000gp/T//cckgJHwF.s:975    .text.Chip_UART_IRQRBHandler:0000000000000000 Chip_UART_IRQRBHandler
/var/folders/z0/6xlwn_996xz3mwq1cgzkbq4r0000gp/T//cckgJHwF.s:1085   .text.Chip_UART_SetBaudFDR:0000000000000000 $t
/var/folders/z0/6xlwn_996xz3mwq1cgzkbq4r0000gp/T//cckgJHwF.s:1090   .text.Chip_UART_SetBaudFDR:0000000000000000 Chip_UART_SetBaudFDR
                     .debug_frame:0000000000000010 $d
                           .group:0000000000000000 wm4.0.875846967d3f9b39cda0d496d1540481
                           .group:0000000000000000 wm4._newlib_version.h.4.ad342815780c8db09778091a421b5b5b
                           .group:0000000000000000 wm4.features.h.33.863f3be0b2e521e624fcc7d6fa31d2ca
                           .group:0000000000000000 wm4._default_types.h.15.933e8edd27a65e0b69af4a865eb623d2
                           .group:0000000000000000 wm4._intsup.h.10.b82bf99f69d6a5c085fc866de0d3eb9b
                           .group:0000000000000000 wm4._stdint.h.10.7a5f60e6741af4a5594a3867d347e1f9
                           .group:0000000000000000 wm4.stdint.h.23.373a9d32a9e4c2e88fd347156532d281
                           .group:0000000000000000 wm4.stdbool.h.29.07dce69c3b78884144b7f7bd19483461
                           .group:0000000000000000 wm4.lpc_types.h.63.860ba57581a002825766a7c2ac00d549
                           .group:0000000000000000 wm4.sys_config.h.31.9f234e9c90333d233c7e647ebe63e928
                           .group:0000000000000000 wm4.cmsis_11cxx.h.33.407e9bbb5d170cd1552d3f7dc3fd5c42
                           .group:0000000000000000 wm4.core_cm0.h.32.192d13cfa8b31e63c86621de62eb153f
                           .group:0000000000000000 wm4.core_cm0.h.120.f4257ea7d0bce0cbabffe223e23b2fd4
                           .group:0000000000000000 wm4.chip.h.116.857da603c399e979152c31968de4baae
                           .group:0000000000000000 wm4.pmu_11xx.h.33.1d6b708881441cb98d19b8bab3caa180
                           .group:0000000000000000 wm4.sysctl_11xx.h.33.ae61a1181e608f8409883008e291930c
                           .group:0000000000000000 wm4.clock_11xx.h.33.23290a9e2ed919e3a6958d25130bc848
                           .group:0000000000000000 wm4.iocon_11xx.h.33.25e2b3cde122df23fb07b984cb4f3a93
                           .group:0000000000000000 wm4.timer_11xx.h.33.c92f50a9325789ee6a8ffd6248980d70
                           .group:0000000000000000 wm4.ring_buffer.h.33.2f271415f1f27d60350fb4738c5cbee6
                           .group:0000000000000000 wm4.uart_11xx.h.98.fe68b709973730a4fba3f3ce60c5c312
                           .group:0000000000000000 wm4.wwdt_11xx.h.33.5768344983cb842df69cc91ea86cabb0
                           .group:0000000000000000 wm4.ssp_11xx.h.33.af054d3d65f4cb0c078be40bb872ec37
                           .group:0000000000000000 wm4.error.h.38.ae74fe1dd9d19c80c505f1fda144fce8
                           .group:0000000000000000 wm4.adc_11xx.h.33.6ce7433ac6b30df70a6993d01dbd513f
                           .group:0000000000000000 wm4.i2c_11xx.h.33.2b506d1350e00a8c26e8bf006a5f9390
ARM GAS  /var/folders/z0/6xlwn_996xz3mwq1cgzkbq4r0000gp/T//cckgJHwF.s 			page 315


                           .group:0000000000000000 wm4.ccand_11xx.h.33.99627f4b529fecdc77b0877ab6fe5266

UNDEFINED SYMBOLS
__aeabi_uidiv
Chip_Clock_GetMainClockRate
RingBuffer_Insert
RingBuffer_Pop
RingBuffer_InsertMult
RingBuffer_PopMult
__aeabi_uidivmod
