ARM GAS  /var/folders/z0/6xlwn_996xz3mwq1cgzkbq4r0000gp/T//ccF2sUVk.s 			page 1


   1              		.syntax unified
   2              		.cpu cortex-m0
   3              		.fpu softvfp
   4              		.eabi_attribute 20, 1	@ Tag_ABI_FP_denormal
   5              		.eabi_attribute 21, 1	@ Tag_ABI_FP_exceptions
   6              		.eabi_attribute 23, 3	@ Tag_ABI_FP_number_model
   7              		.eabi_attribute 24, 1	@ Tag_ABI_align8_needed
   8              		.eabi_attribute 25, 1	@ Tag_ABI_align8_preserved
   9              		.eabi_attribute 26, 1	@ Tag_ABI_enum_size
  10              		.eabi_attribute 30, 2	@ Tag_ABI_optimization_goals
  11              		.eabi_attribute 34, 0	@ Tag_CPU_unaligned_access
  12              		.eabi_attribute 18, 4	@ Tag_ABI_PCS_wchar_t
  13              		.file	"util.c"
  14              	@ GNU C89 (GNU Tools for ARM Embedded Processors) version 5.4.1 20160919 (release) [ARM/embedded-5-
  15              	@	compiled by GNU C version 4.2.1 (Based on Apple Inc. build 5658) (LLVM build 2336.9.00), GMP vers
  16              	@ GGC heuristics: --param ggc-min-expand=100 --param ggc-min-heapsize=131072
  17              	@ options passed:  -I . -I inc/
  18              	@ -I ../../lib/lpc11cx4-library/lpc_chip_11cxx_lib/inc
  19              	@ -I ../../lib/lpc11cx4-library/evt_lib/inc/ -I ../../lib/CANlib
  20              	@ -imultilib armv6-m
  21              	@ -iprefix /usr/local/Cellar/gcc-arm-none-eabi/20160928/bin/../lib/gcc/arm-none-eabi/5.4.1/
  22              	@ -isysroot /usr/local/Cellar/gcc-arm-none-eabi/20160928/bin/../arm-none-eabi
  23              	@ -MD bin/util.d -MF bin/util.d -MP -MQ bin/util.o -D__USES_INITFINI__
  24              	@ -D UART_BAUD=57600 -D CORE_M0 -D DEBUG_ENABLE -D FSAE_DRIVERS
  25              	@ -D CAN_ARCHITECTURE_ARM ../../lib/lpc11cx4-library/evt_lib/src/util.c
  26              	@ -mcpu=cortex-m0 -mthumb -auxbase-strip bin/util.o -g -ggdb3 -O2 -Wall
  27              	@ -Wstrict-prototypes -Wextra -std=gnu90 -ffunction-sections
  28              	@ -fdata-sections -fdiagnostics-color=always -fverbose-asm
  29              	@ options enabled:  -faggressive-loop-optimizations -falign-functions
  30              	@ -falign-jumps -falign-labels -falign-loops -fauto-inc-dec
  31              	@ -fbranch-count-reg -fcaller-saves -fchkp-check-incomplete-type
  32              	@ -fchkp-check-read -fchkp-check-write -fchkp-instrument-calls
  33              	@ -fchkp-narrow-bounds -fchkp-optimize -fchkp-store-bounds
  34              	@ -fchkp-use-static-bounds -fchkp-use-static-const-bounds
  35              	@ -fchkp-use-wrappers -fcombine-stack-adjustments -fcommon -fcompare-elim
  36              	@ -fcprop-registers -fcrossjumping -fcse-follow-jumps -fdata-sections
  37              	@ -fdefer-pop -fdelete-null-pointer-checks -fdevirtualize
  38              	@ -fdevirtualize-speculatively -fdwarf2-cfi-asm -fearly-inlining
  39              	@ -feliminate-unused-debug-types -fexpensive-optimizations
  40              	@ -fforward-propagate -ffunction-cse -ffunction-sections -fgcse -fgcse-lm
  41              	@ -fgnu-runtime -fgnu-unique -fguess-branch-probability
  42              	@ -fhoist-adjacent-loads -fident -fif-conversion -fif-conversion2
  43              	@ -findirect-inlining -finline -finline-atomics
  44              	@ -finline-functions-called-once -finline-small-functions -fipa-cp
  45              	@ -fipa-cp-alignment -fipa-icf -fipa-icf-functions -fipa-icf-variables
  46              	@ -fipa-profile -fipa-pure-const -fipa-reference -fipa-sra
  47              	@ -fira-hoist-pressure -fira-share-save-slots -fira-share-spill-slots
  48              	@ -fisolate-erroneous-paths-dereference -fivopts -fkeep-static-consts
  49              	@ -fleading-underscore -flifetime-dse -flra-remat -flto-odr-type-merging
  50              	@ -fmath-errno -fmerge-constants -fmerge-debug-strings
  51              	@ -fmove-loop-invariants -fomit-frame-pointer -foptimize-sibling-calls
  52              	@ -foptimize-strlen -fpartial-inlining -fpeephole -fpeephole2
  53              	@ -fprefetch-loop-arrays -freg-struct-return -freorder-blocks
  54              	@ -freorder-functions -frerun-cse-after-loop
  55              	@ -fsched-critical-path-heuristic -fsched-dep-count-heuristic
  56              	@ -fsched-group-heuristic -fsched-interblock -fsched-last-insn-heuristic
  57              	@ -fsched-pressure -fsched-rank-heuristic -fsched-spec
ARM GAS  /var/folders/z0/6xlwn_996xz3mwq1cgzkbq4r0000gp/T//ccF2sUVk.s 			page 2


  58              	@ -fsched-spec-insn-heuristic -fsched-stalled-insns-dep -fschedule-insns2
  59              	@ -fsection-anchors -fsemantic-interposition -fshow-column -fshrink-wrap
  60              	@ -fsigned-zeros -fsplit-ivs-in-unroller -fsplit-wide-types -fssa-phiopt
  61              	@ -fstdarg-opt -fstrict-aliasing -fstrict-overflow
  62              	@ -fstrict-volatile-bitfields -fsync-libcalls -fthread-jumps
  63              	@ -ftoplevel-reorder -ftrapping-math -ftree-bit-ccp -ftree-builtin-call-dce
  64              	@ -ftree-ccp -ftree-ch -ftree-coalesce-vars -ftree-copy-prop
  65              	@ -ftree-copyrename -ftree-cselim -ftree-dce -ftree-dominator-opts
  66              	@ -ftree-dse -ftree-forwprop -ftree-fre -ftree-loop-if-convert
  67              	@ -ftree-loop-im -ftree-loop-ivcanon -ftree-loop-optimize
  68              	@ -ftree-parallelize-loops= -ftree-phiprop -ftree-pre -ftree-pta
  69              	@ -ftree-reassoc -ftree-scev-cprop -ftree-sink -ftree-slsr -ftree-sra
  70              	@ -ftree-switch-conversion -ftree-tail-merge -ftree-ter -ftree-vrp
  71              	@ -funit-at-a-time -fvar-tracking -fvar-tracking-assignments -fverbose-asm
  72              	@ -fzero-initialized-in-bss -mlittle-endian -mpic-data-is-text-relative
  73              	@ -msched-prolog -mthumb -mvectorize-with-neon-quad
  74              	
  75              		.text
  76              	.Ltext0:
  77              		.cfi_sections	.debug_frame
  78              		.section	.text.__reverse,"ax",%progbits
  79              		.align	2
  80              		.global	__reverse
  81              		.code	16
  82              		.thumb_func
  83              		.type	__reverse, %function
  84              	__reverse:
  85              	.LFB0:
  86              		.file 1 "../../lib/lpc11cx4-library/evt_lib/src/util.c"
   1:../../lib/lpc11cx4-library/evt_lib/src/util.c **** #include "util.h"
   2:../../lib/lpc11cx4-library/evt_lib/src/util.c **** 
   3:../../lib/lpc11cx4-library/evt_lib/src/util.c **** void __reverse(char* begin,char* end) {
  87              		.loc 1 3 0
  88              		.cfi_startproc
  89              		@ args = 0, pretend = 0, frame = 0
  90              		@ frame_needed = 0, uses_anonymous_args = 0
  91              		@ link register save eliminated.
  92              	.LVL0:
  93 0000 06E0     		b	.L7	@
  94              	.L5:
   4:../../lib/lpc11cx4-library/evt_lib/src/util.c **** 	char temp;
   5:../../lib/lpc11cx4-library/evt_lib/src/util.c **** 
   6:../../lib/lpc11cx4-library/evt_lib/src/util.c **** 	while (end  >begin)
   7:../../lib/lpc11cx4-library/evt_lib/src/util.c **** 	{
   8:../../lib/lpc11cx4-library/evt_lib/src/util.c **** 		temp = *end;
   9:../../lib/lpc11cx4-library/evt_lib/src/util.c **** 		*end-- = *begin;
  95              		.loc 1 9 0
  96 0002 0378     		ldrb	r3, [r0]	@ D.4273, MEM[base: begin_14, offset: 0B]
   8:../../lib/lpc11cx4-library/evt_lib/src/util.c **** 		*end-- = *begin;
  97              		.loc 1 8 0
  98 0004 0A78     		ldrb	r2, [r1]	@ temp, MEM[base: end_17, offset: 0B]
  99              	.LVL1:
  10:../../lib/lpc11cx4-library/evt_lib/src/util.c **** 		*begin++ = temp;
 100              		.loc 1 10 0
 101 0006 0130     		adds	r0, r0, #1	@ begin,
 102              	.LVL2:
   9:../../lib/lpc11cx4-library/evt_lib/src/util.c **** 		*begin++ = temp;
ARM GAS  /var/folders/z0/6xlwn_996xz3mwq1cgzkbq4r0000gp/T//ccF2sUVk.s 			page 3


 103              		.loc 1 9 0
 104 0008 0139     		subs	r1, r1, #1	@ end,
 105              	.LVL3:
 106 000a 4B70     		strb	r3, [r1, #1]	@ D.4273, MEM[base: end_8, offset: 1B]
 107              		.loc 1 10 0
 108 000c 431E     		subs	r3, r0, #1	@ D.4274, begin,
 109 000e 1A70     		strb	r2, [r3]	@ temp, MEM[base: _19, offset: 0B]
 110              	.LVL4:
 111              	.L7:
   6:../../lib/lpc11cx4-library/evt_lib/src/util.c **** 	{
 112              		.loc 1 6 0
 113 0010 8142     		cmp	r1, r0	@ end, begin
 114 0012 F6D8     		bhi	.L5	@,
  11:../../lib/lpc11cx4-library/evt_lib/src/util.c **** 	}
  12:../../lib/lpc11cx4-library/evt_lib/src/util.c **** }
 115              		.loc 1 12 0
 116              		@ sp needed	@
 117 0014 7047     		bx	lr
 118              		.cfi_endproc
 119              	.LFE0:
 120              		.size	__reverse, .-__reverse
 121 0016 C046     		.text
 122              	.Letext0:
 123              		.section	.debug_info,"",%progbits
 124              	.Ldebug_info0:
 125 0000 C3000000 		.4byte	0xc3
 126 0004 0400     		.2byte	0x4
 127 0006 00000000 		.4byte	.Ldebug_abbrev0
 128 000a 04       		.byte	0x4
 129 000b 01       		.uleb128 0x1
 130 000c 36260000 		.4byte	.LASF535
 131 0010 01       		.byte	0x1
 132 0011 220A0000 		.4byte	.LASF536
 133 0015 D4260000 		.4byte	.LASF537
 134 0019 00000000 		.4byte	.Ldebug_ranges0+0
 135 001d 00000000 		.4byte	0
 136 0021 00000000 		.4byte	.Ldebug_line0
 137 0025 00000000 		.4byte	.Ldebug_macro0
 138 0029 02       		.uleb128 0x2
 139 002a 01       		.byte	0x1
 140 002b 06       		.byte	0x6
 141 002c A30A0000 		.4byte	.LASF524
 142 0030 02       		.uleb128 0x2
 143 0031 01       		.byte	0x1
 144 0032 08       		.byte	0x8
 145 0033 A62C0000 		.4byte	.LASF525
 146 0037 02       		.uleb128 0x2
 147 0038 02       		.byte	0x2
 148 0039 05       		.byte	0x5
 149 003a EE230000 		.4byte	.LASF526
 150 003e 02       		.uleb128 0x2
 151 003f 02       		.byte	0x2
 152 0040 07       		.byte	0x7
 153 0041 98300000 		.4byte	.LASF527
 154 0045 02       		.uleb128 0x2
 155 0046 04       		.byte	0x4
 156 0047 05       		.byte	0x5
ARM GAS  /var/folders/z0/6xlwn_996xz3mwq1cgzkbq4r0000gp/T//ccF2sUVk.s 			page 4


 157 0048 76240000 		.4byte	.LASF528
 158 004c 02       		.uleb128 0x2
 159 004d 04       		.byte	0x4
 160 004e 07       		.byte	0x7
 161 004f 092A0000 		.4byte	.LASF529
 162 0053 02       		.uleb128 0x2
 163 0054 08       		.byte	0x8
 164 0055 05       		.byte	0x5
 165 0056 831A0000 		.4byte	.LASF530
 166 005a 02       		.uleb128 0x2
 167 005b 08       		.byte	0x8
 168 005c 07       		.byte	0x7
 169 005d 8E0D0000 		.4byte	.LASF531
 170 0061 03       		.uleb128 0x3
 171 0062 04       		.byte	0x4
 172 0063 05       		.byte	0x5
 173 0064 696E7400 		.ascii	"int\000"
 174 0068 02       		.uleb128 0x2
 175 0069 04       		.byte	0x4
 176 006a 07       		.byte	0x7
 177 006b 29040000 		.4byte	.LASF532
 178 006f 02       		.uleb128 0x2
 179 0070 01       		.byte	0x1
 180 0071 08       		.byte	0x8
 181 0072 60010000 		.4byte	.LASF392
 182 0076 02       		.uleb128 0x2
 183 0077 01       		.byte	0x1
 184 0078 02       		.byte	0x2
 185 0079 D8120000 		.4byte	.LASF533
 186 007d 04       		.uleb128 0x4
 187 007e 56190000 		.4byte	.LASF538
 188 0082 01       		.byte	0x1
 189 0083 03       		.byte	0x3
 190 0084 00000000 		.4byte	.LFB0
 191 0088 16000000 		.4byte	.LFE0-.LFB0
 192 008c 01       		.uleb128 0x1
 193 008d 9C       		.byte	0x9c
 194 008e C0000000 		.4byte	0xc0
 195 0092 05       		.uleb128 0x5
 196 0093 AB300000 		.4byte	.LASF534
 197 0097 01       		.byte	0x1
 198 0098 03       		.byte	0x3
 199 0099 C0000000 		.4byte	0xc0
 200 009d 00000000 		.4byte	.LLST0
 201 00a1 06       		.uleb128 0x6
 202 00a2 656E6400 		.ascii	"end\000"
 203 00a6 01       		.byte	0x1
 204 00a7 03       		.byte	0x3
 205 00a8 C0000000 		.4byte	0xc0
 206 00ac 2B000000 		.4byte	.LLST1
 207 00b0 07       		.uleb128 0x7
 208 00b1 D6010000 		.4byte	.LASF539
 209 00b5 01       		.byte	0x1
 210 00b6 04       		.byte	0x4
 211 00b7 6F000000 		.4byte	0x6f
 212 00bb 49000000 		.4byte	.LLST2
 213 00bf 00       		.byte	0
ARM GAS  /var/folders/z0/6xlwn_996xz3mwq1cgzkbq4r0000gp/T//ccF2sUVk.s 			page 5


 214 00c0 08       		.uleb128 0x8
 215 00c1 04       		.byte	0x4
 216 00c2 6F000000 		.4byte	0x6f
 217 00c6 00       		.byte	0
 218              		.section	.debug_abbrev,"",%progbits
 219              	.Ldebug_abbrev0:
 220 0000 01       		.uleb128 0x1
 221 0001 11       		.uleb128 0x11
 222 0002 01       		.byte	0x1
 223 0003 25       		.uleb128 0x25
 224 0004 0E       		.uleb128 0xe
 225 0005 13       		.uleb128 0x13
 226 0006 0B       		.uleb128 0xb
 227 0007 03       		.uleb128 0x3
 228 0008 0E       		.uleb128 0xe
 229 0009 1B       		.uleb128 0x1b
 230 000a 0E       		.uleb128 0xe
 231 000b 55       		.uleb128 0x55
 232 000c 17       		.uleb128 0x17
 233 000d 11       		.uleb128 0x11
 234 000e 01       		.uleb128 0x1
 235 000f 10       		.uleb128 0x10
 236 0010 17       		.uleb128 0x17
 237 0011 9942     		.uleb128 0x2119
 238 0013 17       		.uleb128 0x17
 239 0014 00       		.byte	0
 240 0015 00       		.byte	0
 241 0016 02       		.uleb128 0x2
 242 0017 24       		.uleb128 0x24
 243 0018 00       		.byte	0
 244 0019 0B       		.uleb128 0xb
 245 001a 0B       		.uleb128 0xb
 246 001b 3E       		.uleb128 0x3e
 247 001c 0B       		.uleb128 0xb
 248 001d 03       		.uleb128 0x3
 249 001e 0E       		.uleb128 0xe
 250 001f 00       		.byte	0
 251 0020 00       		.byte	0
 252 0021 03       		.uleb128 0x3
 253 0022 24       		.uleb128 0x24
 254 0023 00       		.byte	0
 255 0024 0B       		.uleb128 0xb
 256 0025 0B       		.uleb128 0xb
 257 0026 3E       		.uleb128 0x3e
 258 0027 0B       		.uleb128 0xb
 259 0028 03       		.uleb128 0x3
 260 0029 08       		.uleb128 0x8
 261 002a 00       		.byte	0
 262 002b 00       		.byte	0
 263 002c 04       		.uleb128 0x4
 264 002d 2E       		.uleb128 0x2e
 265 002e 01       		.byte	0x1
 266 002f 3F       		.uleb128 0x3f
 267 0030 19       		.uleb128 0x19
 268 0031 03       		.uleb128 0x3
 269 0032 0E       		.uleb128 0xe
 270 0033 3A       		.uleb128 0x3a
ARM GAS  /var/folders/z0/6xlwn_996xz3mwq1cgzkbq4r0000gp/T//ccF2sUVk.s 			page 6


 271 0034 0B       		.uleb128 0xb
 272 0035 3B       		.uleb128 0x3b
 273 0036 0B       		.uleb128 0xb
 274 0037 27       		.uleb128 0x27
 275 0038 19       		.uleb128 0x19
 276 0039 11       		.uleb128 0x11
 277 003a 01       		.uleb128 0x1
 278 003b 12       		.uleb128 0x12
 279 003c 06       		.uleb128 0x6
 280 003d 40       		.uleb128 0x40
 281 003e 18       		.uleb128 0x18
 282 003f 9742     		.uleb128 0x2117
 283 0041 19       		.uleb128 0x19
 284 0042 01       		.uleb128 0x1
 285 0043 13       		.uleb128 0x13
 286 0044 00       		.byte	0
 287 0045 00       		.byte	0
 288 0046 05       		.uleb128 0x5
 289 0047 05       		.uleb128 0x5
 290 0048 00       		.byte	0
 291 0049 03       		.uleb128 0x3
 292 004a 0E       		.uleb128 0xe
 293 004b 3A       		.uleb128 0x3a
 294 004c 0B       		.uleb128 0xb
 295 004d 3B       		.uleb128 0x3b
 296 004e 0B       		.uleb128 0xb
 297 004f 49       		.uleb128 0x49
 298 0050 13       		.uleb128 0x13
 299 0051 02       		.uleb128 0x2
 300 0052 17       		.uleb128 0x17
 301 0053 00       		.byte	0
 302 0054 00       		.byte	0
 303 0055 06       		.uleb128 0x6
 304 0056 05       		.uleb128 0x5
 305 0057 00       		.byte	0
 306 0058 03       		.uleb128 0x3
 307 0059 08       		.uleb128 0x8
 308 005a 3A       		.uleb128 0x3a
 309 005b 0B       		.uleb128 0xb
 310 005c 3B       		.uleb128 0x3b
 311 005d 0B       		.uleb128 0xb
 312 005e 49       		.uleb128 0x49
 313 005f 13       		.uleb128 0x13
 314 0060 02       		.uleb128 0x2
 315 0061 17       		.uleb128 0x17
 316 0062 00       		.byte	0
 317 0063 00       		.byte	0
 318 0064 07       		.uleb128 0x7
 319 0065 34       		.uleb128 0x34
 320 0066 00       		.byte	0
 321 0067 03       		.uleb128 0x3
 322 0068 0E       		.uleb128 0xe
 323 0069 3A       		.uleb128 0x3a
 324 006a 0B       		.uleb128 0xb
 325 006b 3B       		.uleb128 0x3b
 326 006c 0B       		.uleb128 0xb
 327 006d 49       		.uleb128 0x49
ARM GAS  /var/folders/z0/6xlwn_996xz3mwq1cgzkbq4r0000gp/T//ccF2sUVk.s 			page 7


 328 006e 13       		.uleb128 0x13
 329 006f 02       		.uleb128 0x2
 330 0070 17       		.uleb128 0x17
 331 0071 00       		.byte	0
 332 0072 00       		.byte	0
 333 0073 08       		.uleb128 0x8
 334 0074 0F       		.uleb128 0xf
 335 0075 00       		.byte	0
 336 0076 0B       		.uleb128 0xb
 337 0077 0B       		.uleb128 0xb
 338 0078 49       		.uleb128 0x49
 339 0079 13       		.uleb128 0x13
 340 007a 00       		.byte	0
 341 007b 00       		.byte	0
 342 007c 00       		.byte	0
 343              		.section	.debug_loc,"",%progbits
 344              	.Ldebug_loc0:
 345              	.LLST0:
 346 0000 00000000 		.4byte	.LVL0
 347 0004 08000000 		.4byte	.LVL2
 348 0008 0100     		.2byte	0x1
 349 000a 50       		.byte	0x50
 350 000b 08000000 		.4byte	.LVL2
 351 000f 0A000000 		.4byte	.LVL3
 352 0013 0300     		.2byte	0x3
 353 0015 70       		.byte	0x70
 354 0016 7F       		.sleb128 -1
 355 0017 9F       		.byte	0x9f
 356 0018 0A000000 		.4byte	.LVL3
 357 001c 16000000 		.4byte	.LFE0
 358 0020 0100     		.2byte	0x1
 359 0022 50       		.byte	0x50
 360 0023 00000000 		.4byte	0
 361 0027 00000000 		.4byte	0
 362              	.LLST1:
 363 002b 00000000 		.4byte	.LVL0
 364 002f 0A000000 		.4byte	.LVL3
 365 0033 0100     		.2byte	0x1
 366 0035 51       		.byte	0x51
 367 0036 0A000000 		.4byte	.LVL3
 368 003a 16000000 		.4byte	.LFE0
 369 003e 0100     		.2byte	0x1
 370 0040 51       		.byte	0x51
 371 0041 00000000 		.4byte	0
 372 0045 00000000 		.4byte	0
 373              	.LLST2:
 374 0049 06000000 		.4byte	.LVL1
 375 004d 10000000 		.4byte	.LVL4
 376 0051 0100     		.2byte	0x1
 377 0053 52       		.byte	0x52
 378 0054 00000000 		.4byte	0
 379 0058 00000000 		.4byte	0
 380              		.section	.debug_aranges,"",%progbits
 381 0000 1C000000 		.4byte	0x1c
 382 0004 0200     		.2byte	0x2
 383 0006 00000000 		.4byte	.Ldebug_info0
 384 000a 04       		.byte	0x4
ARM GAS  /var/folders/z0/6xlwn_996xz3mwq1cgzkbq4r0000gp/T//ccF2sUVk.s 			page 8


 385 000b 00       		.byte	0
 386 000c 0000     		.2byte	0
 387 000e 0000     		.2byte	0
 388 0010 00000000 		.4byte	.LFB0
 389 0014 16000000 		.4byte	.LFE0-.LFB0
 390 0018 00000000 		.4byte	0
 391 001c 00000000 		.4byte	0
 392              		.section	.debug_ranges,"",%progbits
 393              	.Ldebug_ranges0:
 394 0000 00000000 		.4byte	.LFB0
 395 0004 16000000 		.4byte	.LFE0
 396 0008 00000000 		.4byte	0
 397 000c 00000000 		.4byte	0
 398              		.section	.debug_macro,"",%progbits
 399              	.Ldebug_macro0:
 400 0000 0400     		.2byte	0x4
 401 0002 02       		.byte	0x2
 402 0003 00000000 		.4byte	.Ldebug_line0
 403 0007 07       		.byte	0x7
 404 0008 00000000 		.4byte	.Ldebug_macro1
 405 000c 03       		.byte	0x3
 406 000d 00       		.uleb128 0
 407 000e 01       		.uleb128 0x1
 408              		.file 2 "../../lib/lpc11cx4-library/evt_lib/inc/util.h"
 409 000f 03       		.byte	0x3
 410 0010 01       		.uleb128 0x1
 411 0011 02       		.uleb128 0x2
 412 0012 05       		.byte	0x5
 413 0013 02       		.uleb128 0x2
 414 0014 24120000 		.4byte	.LASF347
 415              		.file 3 "../../lib/lpc11cx4-library/lpc_chip_11cxx_lib/inc/lpc_types.h"
 416 0018 03       		.byte	0x3
 417 0019 04       		.uleb128 0x4
 418 001a 03       		.uleb128 0x3
 419 001b 05       		.byte	0x5
 420 001c 21       		.uleb128 0x21
 421 001d F9290000 		.4byte	.LASF348
 422              		.file 4 "/usr/local/Cellar/gcc-arm-none-eabi/20160928/lib/gcc/arm-none-eabi/5.4.1/include/stdint.h
 423 0021 03       		.byte	0x3
 424 0022 23       		.uleb128 0x23
 425 0023 04       		.uleb128 0x4
 426              		.file 5 "/usr/local/Cellar/gcc-arm-none-eabi/20160928/arm-none-eabi/include/stdint.h"
 427 0024 03       		.byte	0x3
 428 0025 09       		.uleb128 0x9
 429 0026 05       		.uleb128 0x5
 430 0027 05       		.byte	0x5
 431 0028 0A       		.uleb128 0xa
 432 0029 6C110000 		.4byte	.LASF349
 433              		.file 6 "/usr/local/Cellar/gcc-arm-none-eabi/20160928/arm-none-eabi/include/machine/_default_types
 434 002d 03       		.byte	0x3
 435 002e 0C       		.uleb128 0xc
 436 002f 06       		.uleb128 0x6
 437 0030 05       		.byte	0x5
 438 0031 06       		.uleb128 0x6
 439 0032 181A0000 		.4byte	.LASF350
 440              		.file 7 "/usr/local/Cellar/gcc-arm-none-eabi/20160928/arm-none-eabi/include/sys/features.h"
 441 0036 03       		.byte	0x3
ARM GAS  /var/folders/z0/6xlwn_996xz3mwq1cgzkbq4r0000gp/T//ccF2sUVk.s 			page 9


 442 0037 08       		.uleb128 0x8
 443 0038 07       		.uleb128 0x7
 444 0039 05       		.byte	0x5
 445 003a 16       		.uleb128 0x16
 446 003b 7D0D0000 		.4byte	.LASF351
 447              		.file 8 "/usr/local/Cellar/gcc-arm-none-eabi/20160928/arm-none-eabi/include/_newlib_version.h"
 448 003f 03       		.byte	0x3
 449 0040 1C       		.uleb128 0x1c
 450 0041 08       		.uleb128 0x8
 451 0042 07       		.byte	0x7
 452 0043 00000000 		.4byte	.Ldebug_macro2
 453 0047 04       		.byte	0x4
 454 0048 07       		.byte	0x7
 455 0049 00000000 		.4byte	.Ldebug_macro3
 456 004d 04       		.byte	0x4
 457 004e 07       		.byte	0x7
 458 004f 00000000 		.4byte	.Ldebug_macro4
 459 0053 04       		.byte	0x4
 460              		.file 9 "/usr/local/Cellar/gcc-arm-none-eabi/20160928/arm-none-eabi/include/sys/_intsup.h"
 461 0054 03       		.byte	0x3
 462 0055 0D       		.uleb128 0xd
 463 0056 09       		.uleb128 0x9
 464 0057 07       		.byte	0x7
 465 0058 00000000 		.4byte	.Ldebug_macro5
 466 005c 04       		.byte	0x4
 467              		.file 10 "/usr/local/Cellar/gcc-arm-none-eabi/20160928/arm-none-eabi/include/sys/_stdint.h"
 468 005d 03       		.byte	0x3
 469 005e 0E       		.uleb128 0xe
 470 005f 0A       		.uleb128 0xa
 471 0060 07       		.byte	0x7
 472 0061 00000000 		.4byte	.Ldebug_macro6
 473 0065 04       		.byte	0x4
 474 0066 07       		.byte	0x7
 475 0067 00000000 		.4byte	.Ldebug_macro7
 476 006b 04       		.byte	0x4
 477 006c 05       		.byte	0x5
 478 006d 0D       		.uleb128 0xd
 479 006e 000B0000 		.4byte	.LASF501
 480 0072 04       		.byte	0x4
 481              		.file 11 "/usr/local/Cellar/gcc-arm-none-eabi/20160928/lib/gcc/arm-none-eabi/5.4.1/include/stdbool
 482 0073 03       		.byte	0x3
 483 0074 24       		.uleb128 0x24
 484 0075 0B       		.uleb128 0xb
 485 0076 07       		.byte	0x7
 486 0077 00000000 		.4byte	.Ldebug_macro8
 487 007b 04       		.byte	0x4
 488 007c 07       		.byte	0x7
 489 007d 00000000 		.4byte	.Ldebug_macro9
 490 0081 04       		.byte	0x4
 491 0082 05       		.byte	0x5
 492 0083 05       		.uleb128 0x5
 493 0084 8D1C0000 		.4byte	.LASF523
 494 0088 04       		.byte	0x4
 495 0089 04       		.byte	0x4
 496 008a 00       		.byte	0
 497              		.section	.debug_macro,"G",%progbits,wm4.0.875846967d3f9b39cda0d496d1540481,comdat
 498              	.Ldebug_macro1:
ARM GAS  /var/folders/z0/6xlwn_996xz3mwq1cgzkbq4r0000gp/T//ccF2sUVk.s 			page 10


 499 0000 0400     		.2byte	0x4
 500 0002 00       		.byte	0
 501 0003 05       		.byte	0x5
 502 0004 00       		.uleb128 0
 503 0005 1F1D0000 		.4byte	.LASF0
 504 0009 05       		.byte	0x5
 505 000a 00       		.uleb128 0
 506 000b 122B0000 		.4byte	.LASF1
 507 000f 05       		.byte	0x5
 508 0010 00       		.uleb128 0
 509 0011 19120000 		.4byte	.LASF2
 510 0015 05       		.byte	0x5
 511 0016 00       		.uleb128 0
 512 0017 18040000 		.4byte	.LASF3
 513 001b 05       		.byte	0x5
 514 001c 00       		.uleb128 0
 515 001d C41E0000 		.4byte	.LASF4
 516 0021 05       		.byte	0x5
 517 0022 00       		.uleb128 0
 518 0023 A8150000 		.4byte	.LASF5
 519 0027 05       		.byte	0x5
 520 0028 00       		.uleb128 0
 521 0029 0E090000 		.4byte	.LASF6
 522 002d 05       		.byte	0x5
 523 002e 00       		.uleb128 0
 524 002f BD060000 		.4byte	.LASF7
 525 0033 05       		.byte	0x5
 526 0034 00       		.uleb128 0
 527 0035 BA1C0000 		.4byte	.LASF8
 528 0039 05       		.byte	0x5
 529 003a 00       		.uleb128 0
 530 003b E1050000 		.4byte	.LASF9
 531 003f 05       		.byte	0x5
 532 0040 00       		.uleb128 0
 533 0041 672C0000 		.4byte	.LASF10
 534 0045 05       		.byte	0x5
 535 0046 00       		.uleb128 0
 536 0047 9D1D0000 		.4byte	.LASF11
 537 004b 05       		.byte	0x5
 538 004c 00       		.uleb128 0
 539 004d 41130000 		.4byte	.LASF12
 540 0051 05       		.byte	0x5
 541 0052 00       		.uleb128 0
 542 0053 411B0000 		.4byte	.LASF13
 543 0057 05       		.byte	0x5
 544 0058 00       		.uleb128 0
 545 0059 332F0000 		.4byte	.LASF14
 546 005d 05       		.byte	0x5
 547 005e 00       		.uleb128 0
 548 005f 8E060000 		.4byte	.LASF15
 549 0063 05       		.byte	0x5
 550 0064 00       		.uleb128 0
 551 0065 BC270000 		.4byte	.LASF16
 552 0069 05       		.byte	0x5
 553 006a 00       		.uleb128 0
 554 006b 1A070000 		.4byte	.LASF17
 555 006f 05       		.byte	0x5
ARM GAS  /var/folders/z0/6xlwn_996xz3mwq1cgzkbq4r0000gp/T//ccF2sUVk.s 			page 11


 556 0070 00       		.uleb128 0
 557 0071 8F110000 		.4byte	.LASF18
 558 0075 05       		.byte	0x5
 559 0076 00       		.uleb128 0
 560 0077 B01E0000 		.4byte	.LASF19
 561 007b 05       		.byte	0x5
 562 007c 00       		.uleb128 0
 563 007d DB040000 		.4byte	.LASF20
 564 0081 05       		.byte	0x5
 565 0082 00       		.uleb128 0
 566 0083 95040000 		.4byte	.LASF21
 567 0087 05       		.byte	0x5
 568 0088 00       		.uleb128 0
 569 0089 911A0000 		.4byte	.LASF22
 570 008d 05       		.byte	0x5
 571 008e 00       		.uleb128 0
 572 008f AD120000 		.4byte	.LASF23
 573 0093 05       		.byte	0x5
 574 0094 00       		.uleb128 0
 575 0095 FD120000 		.4byte	.LASF24
 576 0099 05       		.byte	0x5
 577 009a 00       		.uleb128 0
 578 009b 11050000 		.4byte	.LASF25
 579 009f 05       		.byte	0x5
 580 00a0 00       		.uleb128 0
 581 00a1 1D230000 		.4byte	.LASF26
 582 00a5 05       		.byte	0x5
 583 00a6 00       		.uleb128 0
 584 00a7 A0070000 		.4byte	.LASF27
 585 00ab 05       		.byte	0x5
 586 00ac 00       		.uleb128 0
 587 00ad AE200000 		.4byte	.LASF28
 588 00b1 05       		.byte	0x5
 589 00b2 00       		.uleb128 0
 590 00b3 E9280000 		.4byte	.LASF29
 591 00b7 05       		.byte	0x5
 592 00b8 00       		.uleb128 0
 593 00b9 FB2D0000 		.4byte	.LASF30
 594 00bd 05       		.byte	0x5
 595 00be 00       		.uleb128 0
 596 00bf F4050000 		.4byte	.LASF31
 597 00c3 05       		.byte	0x5
 598 00c4 00       		.uleb128 0
 599 00c5 501E0000 		.4byte	.LASF32
 600 00c9 05       		.byte	0x5
 601 00ca 00       		.uleb128 0
 602 00cb F31D0000 		.4byte	.LASF33
 603 00cf 05       		.byte	0x5
 604 00d0 00       		.uleb128 0
 605 00d1 442F0000 		.4byte	.LASF34
 606 00d5 05       		.byte	0x5
 607 00d6 00       		.uleb128 0
 608 00d7 38010000 		.4byte	.LASF35
 609 00db 05       		.byte	0x5
 610 00dc 00       		.uleb128 0
 611 00dd A9040000 		.4byte	.LASF36
 612 00e1 05       		.byte	0x5
ARM GAS  /var/folders/z0/6xlwn_996xz3mwq1cgzkbq4r0000gp/T//ccF2sUVk.s 			page 12


 613 00e2 00       		.uleb128 0
 614 00e3 A4210000 		.4byte	.LASF37
 615 00e7 05       		.byte	0x5
 616 00e8 00       		.uleb128 0
 617 00e9 A0330000 		.4byte	.LASF38
 618 00ed 05       		.byte	0x5
 619 00ee 00       		.uleb128 0
 620 00ef 81250000 		.4byte	.LASF39
 621 00f3 05       		.byte	0x5
 622 00f4 00       		.uleb128 0
 623 00f5 45060000 		.4byte	.LASF40
 624 00f9 05       		.byte	0x5
 625 00fa 00       		.uleb128 0
 626 00fb 3E240000 		.4byte	.LASF41
 627 00ff 05       		.byte	0x5
 628 0100 00       		.uleb128 0
 629 0101 151F0000 		.4byte	.LASF42
 630 0105 05       		.byte	0x5
 631 0106 00       		.uleb128 0
 632 0107 D3270000 		.4byte	.LASF43
 633 010b 05       		.byte	0x5
 634 010c 00       		.uleb128 0
 635 010d 1C140000 		.4byte	.LASF44
 636 0111 05       		.byte	0x5
 637 0112 00       		.uleb128 0
 638 0113 AC280000 		.4byte	.LASF45
 639 0117 05       		.byte	0x5
 640 0118 00       		.uleb128 0
 641 0119 27300000 		.4byte	.LASF46
 642 011d 05       		.byte	0x5
 643 011e 00       		.uleb128 0
 644 011f A01A0000 		.4byte	.LASF47
 645 0123 05       		.byte	0x5
 646 0124 00       		.uleb128 0
 647 0125 24190000 		.4byte	.LASF48
 648 0129 05       		.byte	0x5
 649 012a 00       		.uleb128 0
 650 012b 0D0E0000 		.4byte	.LASF49
 651 012f 05       		.byte	0x5
 652 0130 00       		.uleb128 0
 653 0131 6D280000 		.4byte	.LASF50
 654 0135 05       		.byte	0x5
 655 0136 00       		.uleb128 0
 656 0137 F81A0000 		.4byte	.LASF51
 657 013b 05       		.byte	0x5
 658 013c 00       		.uleb128 0
 659 013d DF140000 		.4byte	.LASF52
 660 0141 05       		.byte	0x5
 661 0142 00       		.uleb128 0
 662 0143 4D220000 		.4byte	.LASF53
 663 0147 05       		.byte	0x5
 664 0148 00       		.uleb128 0
 665 0149 9D050000 		.4byte	.LASF54
 666 014d 05       		.byte	0x5
 667 014e 00       		.uleb128 0
 668 014f F80E0000 		.4byte	.LASF55
 669 0153 05       		.byte	0x5
ARM GAS  /var/folders/z0/6xlwn_996xz3mwq1cgzkbq4r0000gp/T//ccF2sUVk.s 			page 13


 670 0154 00       		.uleb128 0
 671 0155 B9130000 		.4byte	.LASF56
 672 0159 05       		.byte	0x5
 673 015a 00       		.uleb128 0
 674 015b 032F0000 		.4byte	.LASF57
 675 015f 05       		.byte	0x5
 676 0160 00       		.uleb128 0
 677 0161 730A0000 		.4byte	.LASF58
 678 0165 05       		.byte	0x5
 679 0166 00       		.uleb128 0
 680 0167 8D000000 		.4byte	.LASF59
 681 016b 05       		.byte	0x5
 682 016c 00       		.uleb128 0
 683 016d 4D0F0000 		.4byte	.LASF60
 684 0171 05       		.byte	0x5
 685 0172 00       		.uleb128 0
 686 0173 BD2D0000 		.4byte	.LASF61
 687 0177 05       		.byte	0x5
 688 0178 00       		.uleb128 0
 689 0179 7A2C0000 		.4byte	.LASF62
 690 017d 05       		.byte	0x5
 691 017e 00       		.uleb128 0
 692 017f 1B2D0000 		.4byte	.LASF63
 693 0183 05       		.byte	0x5
 694 0184 00       		.uleb128 0
 695 0185 360B0000 		.4byte	.LASF64
 696 0189 05       		.byte	0x5
 697 018a 00       		.uleb128 0
 698 018b 772B0000 		.4byte	.LASF65
 699 018f 05       		.byte	0x5
 700 0190 00       		.uleb128 0
 701 0191 64020000 		.4byte	.LASF66
 702 0195 05       		.byte	0x5
 703 0196 00       		.uleb128 0
 704 0197 5F130000 		.4byte	.LASF67
 705 019b 05       		.byte	0x5
 706 019c 00       		.uleb128 0
 707 019d 70080000 		.4byte	.LASF68
 708 01a1 05       		.byte	0x5
 709 01a2 00       		.uleb128 0
 710 01a3 09230000 		.4byte	.LASF69
 711 01a7 05       		.byte	0x5
 712 01a8 00       		.uleb128 0
 713 01a9 CA050000 		.4byte	.LASF70
 714 01ad 05       		.byte	0x5
 715 01ae 00       		.uleb128 0
 716 01af 0E1E0000 		.4byte	.LASF71
 717 01b3 05       		.byte	0x5
 718 01b4 00       		.uleb128 0
 719 01b5 AA140000 		.4byte	.LASF72
 720 01b9 05       		.byte	0x5
 721 01ba 00       		.uleb128 0
 722 01bb 9D270000 		.4byte	.LASF73
 723 01bf 05       		.byte	0x5
 724 01c0 00       		.uleb128 0
 725 01c1 DB2E0000 		.4byte	.LASF74
 726 01c5 05       		.byte	0x5
ARM GAS  /var/folders/z0/6xlwn_996xz3mwq1cgzkbq4r0000gp/T//ccF2sUVk.s 			page 14


 727 01c6 00       		.uleb128 0
 728 01c7 9B250000 		.4byte	.LASF75
 729 01cb 05       		.byte	0x5
 730 01cc 00       		.uleb128 0
 731 01cd C9030000 		.4byte	.LASF76
 732 01d1 05       		.byte	0x5
 733 01d2 00       		.uleb128 0
 734 01d3 D80C0000 		.4byte	.LASF77
 735 01d7 05       		.byte	0x5
 736 01d8 00       		.uleb128 0
 737 01d9 49090000 		.4byte	.LASF78
 738 01dd 05       		.byte	0x5
 739 01de 00       		.uleb128 0
 740 01df 2A100000 		.4byte	.LASF79
 741 01e3 05       		.byte	0x5
 742 01e4 00       		.uleb128 0
 743 01e5 942F0000 		.4byte	.LASF80
 744 01e9 05       		.byte	0x5
 745 01ea 00       		.uleb128 0
 746 01eb B72A0000 		.4byte	.LASF81
 747 01ef 05       		.byte	0x5
 748 01f0 00       		.uleb128 0
 749 01f1 70070000 		.4byte	.LASF82
 750 01f5 05       		.byte	0x5
 751 01f6 00       		.uleb128 0
 752 01f7 00000000 		.4byte	.LASF83
 753 01fb 05       		.byte	0x5
 754 01fc 00       		.uleb128 0
 755 01fd 2E210000 		.4byte	.LASF84
 756 0201 05       		.byte	0x5
 757 0202 00       		.uleb128 0
 758 0203 DC0D0000 		.4byte	.LASF85
 759 0207 05       		.byte	0x5
 760 0208 00       		.uleb128 0
 761 0209 271E0000 		.4byte	.LASF86
 762 020d 05       		.byte	0x5
 763 020e 00       		.uleb128 0
 764 020f 83230000 		.4byte	.LASF87
 765 0213 05       		.byte	0x5
 766 0214 00       		.uleb128 0
 767 0215 B90D0000 		.4byte	.LASF88
 768 0219 05       		.byte	0x5
 769 021a 00       		.uleb128 0
 770 021b 47180000 		.4byte	.LASF89
 771 021f 05       		.byte	0x5
 772 0220 00       		.uleb128 0
 773 0221 5A180000 		.4byte	.LASF90
 774 0225 05       		.byte	0x5
 775 0226 00       		.uleb128 0
 776 0227 19200000 		.4byte	.LASF91
 777 022b 05       		.byte	0x5
 778 022c 00       		.uleb128 0
 779 022d 221C0000 		.4byte	.LASF92
 780 0231 05       		.byte	0x5
 781 0232 00       		.uleb128 0
 782 0233 43070000 		.4byte	.LASF93
 783 0237 05       		.byte	0x5
ARM GAS  /var/folders/z0/6xlwn_996xz3mwq1cgzkbq4r0000gp/T//ccF2sUVk.s 			page 15


 784 0238 00       		.uleb128 0
 785 0239 950A0000 		.4byte	.LASF94
 786 023d 05       		.byte	0x5
 787 023e 00       		.uleb128 0
 788 023f 39080000 		.4byte	.LASF95
 789 0243 05       		.byte	0x5
 790 0244 00       		.uleb128 0
 791 0245 D0060000 		.4byte	.LASF96
 792 0249 05       		.byte	0x5
 793 024a 00       		.uleb128 0
 794 024b 18330000 		.4byte	.LASF97
 795 024f 05       		.byte	0x5
 796 0250 00       		.uleb128 0
 797 0251 FB310000 		.4byte	.LASF98
 798 0255 05       		.byte	0x5
 799 0256 00       		.uleb128 0
 800 0257 72170000 		.4byte	.LASF99
 801 025b 05       		.byte	0x5
 802 025c 00       		.uleb128 0
 803 025d 79270000 		.4byte	.LASF100
 804 0261 05       		.byte	0x5
 805 0262 00       		.uleb128 0
 806 0263 FF030000 		.4byte	.LASF101
 807 0267 05       		.byte	0x5
 808 0268 00       		.uleb128 0
 809 0269 90010000 		.4byte	.LASF102
 810 026d 05       		.byte	0x5
 811 026e 00       		.uleb128 0
 812 026f 10340000 		.4byte	.LASF103
 813 0273 05       		.byte	0x5
 814 0274 00       		.uleb128 0
 815 0275 77040000 		.4byte	.LASF104
 816 0279 05       		.byte	0x5
 817 027a 00       		.uleb128 0
 818 027b 33250000 		.4byte	.LASF105
 819 027f 05       		.byte	0x5
 820 0280 00       		.uleb128 0
 821 0281 BF110000 		.4byte	.LASF106
 822 0285 05       		.byte	0x5
 823 0286 00       		.uleb128 0
 824 0287 5A0E0000 		.4byte	.LASF107
 825 028b 05       		.byte	0x5
 826 028c 00       		.uleb128 0
 827 028d 8A290000 		.4byte	.LASF108
 828 0291 05       		.byte	0x5
 829 0292 00       		.uleb128 0
 830 0293 F4040000 		.4byte	.LASF109
 831 0297 05       		.byte	0x5
 832 0298 00       		.uleb128 0
 833 0299 010C0000 		.4byte	.LASF110
 834 029d 05       		.byte	0x5
 835 029e 00       		.uleb128 0
 836 029f 6F1C0000 		.4byte	.LASF111
 837 02a3 05       		.byte	0x5
 838 02a4 00       		.uleb128 0
 839 02a5 CB0B0000 		.4byte	.LASF112
 840 02a9 05       		.byte	0x5
ARM GAS  /var/folders/z0/6xlwn_996xz3mwq1cgzkbq4r0000gp/T//ccF2sUVk.s 			page 16


 841 02aa 00       		.uleb128 0
 842 02ab DE120000 		.4byte	.LASF113
 843 02af 05       		.byte	0x5
 844 02b0 00       		.uleb128 0
 845 02b1 78160000 		.4byte	.LASF114
 846 02b5 05       		.byte	0x5
 847 02b6 00       		.uleb128 0
 848 02b7 3A270000 		.4byte	.LASF115
 849 02bb 05       		.byte	0x5
 850 02bc 00       		.uleb128 0
 851 02bd 10270000 		.4byte	.LASF116
 852 02c1 05       		.byte	0x5
 853 02c2 00       		.uleb128 0
 854 02c3 5D2B0000 		.4byte	.LASF117
 855 02c7 05       		.byte	0x5
 856 02c8 00       		.uleb128 0
 857 02c9 22320000 		.4byte	.LASF118
 858 02cd 05       		.byte	0x5
 859 02ce 00       		.uleb128 0
 860 02cf EE180000 		.4byte	.LASF119
 861 02d3 05       		.byte	0x5
 862 02d4 00       		.uleb128 0
 863 02d5 01200000 		.4byte	.LASF120
 864 02d9 05       		.byte	0x5
 865 02da 00       		.uleb128 0
 866 02db 2E170000 		.4byte	.LASF121
 867 02df 05       		.byte	0x5
 868 02e0 00       		.uleb128 0
 869 02e1 2F2D0000 		.4byte	.LASF122
 870 02e5 05       		.byte	0x5
 871 02e6 00       		.uleb128 0
 872 02e7 850E0000 		.4byte	.LASF123
 873 02eb 05       		.byte	0x5
 874 02ec 00       		.uleb128 0
 875 02ed 0E160000 		.4byte	.LASF124
 876 02f1 05       		.byte	0x5
 877 02f2 00       		.uleb128 0
 878 02f3 F30B0000 		.4byte	.LASF125
 879 02f7 05       		.byte	0x5
 880 02f8 00       		.uleb128 0
 881 02f9 7F310000 		.4byte	.LASF126
 882 02fd 05       		.byte	0x5
 883 02fe 00       		.uleb128 0
 884 02ff C22E0000 		.4byte	.LASF127
 885 0303 05       		.byte	0x5
 886 0304 00       		.uleb128 0
 887 0305 242C0000 		.4byte	.LASF128
 888 0309 05       		.byte	0x5
 889 030a 00       		.uleb128 0
 890 030b 08150000 		.4byte	.LASF129
 891 030f 05       		.byte	0x5
 892 0310 00       		.uleb128 0
 893 0311 5A230000 		.4byte	.LASF130
 894 0315 05       		.byte	0x5
 895 0316 00       		.uleb128 0
 896 0317 F6010000 		.4byte	.LASF131
 897 031b 05       		.byte	0x5
ARM GAS  /var/folders/z0/6xlwn_996xz3mwq1cgzkbq4r0000gp/T//ccF2sUVk.s 			page 17


 898 031c 00       		.uleb128 0
 899 031d 8A200000 		.4byte	.LASF132
 900 0321 05       		.byte	0x5
 901 0322 00       		.uleb128 0
 902 0323 2E280000 		.4byte	.LASF133
 903 0327 05       		.byte	0x5
 904 0328 00       		.uleb128 0
 905 0329 22220000 		.4byte	.LASF134
 906 032d 05       		.byte	0x5
 907 032e 00       		.uleb128 0
 908 032f 63340000 		.4byte	.LASF135
 909 0333 05       		.byte	0x5
 910 0334 00       		.uleb128 0
 911 0335 DD090000 		.4byte	.LASF136
 912 0339 05       		.byte	0x5
 913 033a 00       		.uleb128 0
 914 033b 1B2F0000 		.4byte	.LASF137
 915 033f 05       		.byte	0x5
 916 0340 00       		.uleb128 0
 917 0341 89050000 		.4byte	.LASF138
 918 0345 05       		.byte	0x5
 919 0346 00       		.uleb128 0
 920 0347 60190000 		.4byte	.LASF139
 921 034b 05       		.byte	0x5
 922 034c 00       		.uleb128 0
 923 034d 2A020000 		.4byte	.LASF140
 924 0351 05       		.byte	0x5
 925 0352 00       		.uleb128 0
 926 0353 98160000 		.4byte	.LASF141
 927 0357 05       		.byte	0x5
 928 0358 00       		.uleb128 0
 929 0359 5C1D0000 		.4byte	.LASF142
 930 035d 05       		.byte	0x5
 931 035e 00       		.uleb128 0
 932 035f 81300000 		.4byte	.LASF143
 933 0363 05       		.byte	0x5
 934 0364 00       		.uleb128 0
 935 0365 5E000000 		.4byte	.LASF144
 936 0369 05       		.byte	0x5
 937 036a 00       		.uleb128 0
 938 036b 4A030000 		.4byte	.LASF145
 939 036f 05       		.byte	0x5
 940 0370 00       		.uleb128 0
 941 0371 AC2B0000 		.4byte	.LASF146
 942 0375 05       		.byte	0x5
 943 0376 00       		.uleb128 0
 944 0377 622F0000 		.4byte	.LASF147
 945 037b 05       		.byte	0x5
 946 037c 00       		.uleb128 0
 947 037d F12F0000 		.4byte	.LASF148
 948 0381 05       		.byte	0x5
 949 0382 00       		.uleb128 0
 950 0383 3E320000 		.4byte	.LASF149
 951 0387 05       		.byte	0x5
 952 0388 00       		.uleb128 0
 953 0389 EC2E0000 		.4byte	.LASF150
 954 038d 05       		.byte	0x5
ARM GAS  /var/folders/z0/6xlwn_996xz3mwq1cgzkbq4r0000gp/T//ccF2sUVk.s 			page 18


 955 038e 00       		.uleb128 0
 956 038f AE0E0000 		.4byte	.LASF151
 957 0393 05       		.byte	0x5
 958 0394 00       		.uleb128 0
 959 0395 7D1B0000 		.4byte	.LASF152
 960 0399 05       		.byte	0x5
 961 039a 00       		.uleb128 0
 962 039b 7E060000 		.4byte	.LASF153
 963 039f 05       		.byte	0x5
 964 03a0 00       		.uleb128 0
 965 03a1 47200000 		.4byte	.LASF154
 966 03a5 05       		.byte	0x5
 967 03a6 00       		.uleb128 0
 968 03a7 CE280000 		.4byte	.LASF155
 969 03ab 05       		.byte	0x5
 970 03ac 00       		.uleb128 0
 971 03ad 93240000 		.4byte	.LASF156
 972 03b1 05       		.byte	0x5
 973 03b2 00       		.uleb128 0
 974 03b3 7A210000 		.4byte	.LASF157
 975 03b7 05       		.byte	0x5
 976 03b8 00       		.uleb128 0
 977 03b9 E8310000 		.4byte	.LASF158
 978 03bd 05       		.byte	0x5
 979 03be 00       		.uleb128 0
 980 03bf 1B1B0000 		.4byte	.LASF159
 981 03c3 05       		.byte	0x5
 982 03c4 00       		.uleb128 0
 983 03c5 C31F0000 		.4byte	.LASF160
 984 03c9 05       		.byte	0x5
 985 03ca 00       		.uleb128 0
 986 03cb F22C0000 		.4byte	.LASF161
 987 03cf 05       		.byte	0x5
 988 03d0 00       		.uleb128 0
 989 03d1 91100000 		.4byte	.LASF162
 990 03d5 05       		.byte	0x5
 991 03d6 00       		.uleb128 0
 992 03d7 FA330000 		.4byte	.LASF163
 993 03db 05       		.byte	0x5
 994 03dc 00       		.uleb128 0
 995 03dd E91F0000 		.4byte	.LASF164
 996 03e1 05       		.byte	0x5
 997 03e2 00       		.uleb128 0
 998 03e3 68250000 		.4byte	.LASF165
 999 03e7 05       		.byte	0x5
 1000 03e8 00       		.uleb128 0
 1001 03e9 0B210000 		.4byte	.LASF166
 1002 03ed 05       		.byte	0x5
 1003 03ee 00       		.uleb128 0
 1004 03ef B42C0000 		.4byte	.LASF167
 1005 03f3 05       		.byte	0x5
 1006 03f4 00       		.uleb128 0
 1007 03f5 CC2C0000 		.4byte	.LASF168
 1008 03f9 05       		.byte	0x5
 1009 03fa 00       		.uleb128 0
 1010 03fb 860C0000 		.4byte	.LASF169
 1011 03ff 05       		.byte	0x5
ARM GAS  /var/folders/z0/6xlwn_996xz3mwq1cgzkbq4r0000gp/T//ccF2sUVk.s 			page 19


 1012 0400 00       		.uleb128 0
 1013 0401 D2180000 		.4byte	.LASF170
 1014 0405 05       		.byte	0x5
 1015 0406 00       		.uleb128 0
 1016 0407 0E250000 		.4byte	.LASF171
 1017 040b 05       		.byte	0x5
 1018 040c 00       		.uleb128 0
 1019 040d C7070000 		.4byte	.LASF172
 1020 0411 05       		.byte	0x5
 1021 0412 00       		.uleb128 0
 1022 0413 4D340000 		.4byte	.LASF173
 1023 0417 05       		.byte	0x5
 1024 0418 00       		.uleb128 0
 1025 0419 CE170000 		.4byte	.LASF174
 1026 041d 05       		.byte	0x5
 1027 041e 00       		.uleb128 0
 1028 041f 18240000 		.4byte	.LASF175
 1029 0423 05       		.byte	0x5
 1030 0424 00       		.uleb128 0
 1031 0425 4C330000 		.4byte	.LASF176
 1032 0429 05       		.byte	0x5
 1033 042a 00       		.uleb128 0
 1034 042b CC0F0000 		.4byte	.LASF177
 1035 042f 05       		.byte	0x5
 1036 0430 00       		.uleb128 0
 1037 0431 FF000000 		.4byte	.LASF178
 1038 0435 05       		.byte	0x5
 1039 0436 00       		.uleb128 0
 1040 0437 2D000000 		.4byte	.LASF179
 1041 043b 05       		.byte	0x5
 1042 043c 00       		.uleb128 0
 1043 043d 3D110000 		.4byte	.LASF180
 1044 0441 05       		.byte	0x5
 1045 0442 00       		.uleb128 0
 1046 0443 8D150000 		.4byte	.LASF181
 1047 0447 05       		.byte	0x5
 1048 0448 00       		.uleb128 0
 1049 0449 F6240000 		.4byte	.LASF182
 1050 044d 05       		.byte	0x5
 1051 044e 00       		.uleb128 0
 1052 044f 57050000 		.4byte	.LASF183
 1053 0453 05       		.byte	0x5
 1054 0454 00       		.uleb128 0
 1055 0455 96310000 		.4byte	.LASF184
 1056 0459 05       		.byte	0x5
 1057 045a 00       		.uleb128 0
 1058 045b 9D230000 		.4byte	.LASF185
 1059 045f 05       		.byte	0x5
 1060 0460 00       		.uleb128 0
 1061 0461 98080000 		.4byte	.LASF186
 1062 0465 05       		.byte	0x5
 1063 0466 00       		.uleb128 0
 1064 0467 92210000 		.4byte	.LASF187
 1065 046b 05       		.byte	0x5
 1066 046c 00       		.uleb128 0
 1067 046d C6210000 		.4byte	.LASF188
 1068 0471 05       		.byte	0x5
ARM GAS  /var/folders/z0/6xlwn_996xz3mwq1cgzkbq4r0000gp/T//ccF2sUVk.s 			page 20


 1069 0472 00       		.uleb128 0
 1070 0473 E7100000 		.4byte	.LASF189
 1071 0477 05       		.byte	0x5
 1072 0478 00       		.uleb128 0
 1073 0479 550D0000 		.4byte	.LASF190
 1074 047d 05       		.byte	0x5
 1075 047e 00       		.uleb128 0
 1076 047f BE290000 		.4byte	.LASF191
 1077 0483 05       		.byte	0x5
 1078 0484 00       		.uleb128 0
 1079 0485 66270000 		.4byte	.LASF192
 1080 0489 05       		.byte	0x5
 1081 048a 00       		.uleb128 0
 1082 048b 822D0000 		.4byte	.LASF193
 1083 048f 05       		.byte	0x5
 1084 0490 00       		.uleb128 0
 1085 0491 89030000 		.4byte	.LASF194
 1086 0495 05       		.byte	0x5
 1087 0496 00       		.uleb128 0
 1088 0497 DB010000 		.4byte	.LASF195
 1089 049b 05       		.byte	0x5
 1090 049c 00       		.uleb128 0
 1091 049d 18260000 		.4byte	.LASF196
 1092 04a1 05       		.byte	0x5
 1093 04a2 00       		.uleb128 0
 1094 04a3 01170000 		.4byte	.LASF197
 1095 04a7 05       		.byte	0x5
 1096 04a8 00       		.uleb128 0
 1097 04a9 B21F0000 		.4byte	.LASF198
 1098 04ad 05       		.byte	0x5
 1099 04ae 00       		.uleb128 0
 1100 04af F20F0000 		.4byte	.LASF199
 1101 04b3 05       		.byte	0x5
 1102 04b4 00       		.uleb128 0
 1103 04b5 FB1E0000 		.4byte	.LASF200
 1104 04b9 05       		.byte	0x5
 1105 04ba 00       		.uleb128 0
 1106 04bb F72A0000 		.4byte	.LASF201
 1107 04bf 05       		.byte	0x5
 1108 04c0 00       		.uleb128 0
 1109 04c1 6C140000 		.4byte	.LASF202
 1110 04c5 05       		.byte	0x5
 1111 04c6 00       		.uleb128 0
 1112 04c7 F9200000 		.4byte	.LASF203
 1113 04cb 05       		.byte	0x5
 1114 04cc 00       		.uleb128 0
 1115 04cd 641F0000 		.4byte	.LASF204
 1116 04d1 05       		.byte	0x5
 1117 04d2 00       		.uleb128 0
 1118 04d3 390D0000 		.4byte	.LASF205
 1119 04d7 05       		.byte	0x5
 1120 04d8 00       		.uleb128 0
 1121 04d9 B2190000 		.4byte	.LASF206
 1122 04dd 05       		.byte	0x5
 1123 04de 00       		.uleb128 0
 1124 04df 43190000 		.4byte	.LASF207
 1125 04e3 05       		.byte	0x5
ARM GAS  /var/folders/z0/6xlwn_996xz3mwq1cgzkbq4r0000gp/T//ccF2sUVk.s 			page 21


 1126 04e4 00       		.uleb128 0
 1127 04e5 F6070000 		.4byte	.LASF208
 1128 04e9 05       		.byte	0x5
 1129 04ea 00       		.uleb128 0
 1130 04eb 96020000 		.4byte	.LASF209
 1131 04ef 05       		.byte	0x5
 1132 04f0 00       		.uleb128 0
 1133 04f1 CA320000 		.4byte	.LASF210
 1134 04f5 05       		.byte	0x5
 1135 04f6 00       		.uleb128 0
 1136 04f7 DB0E0000 		.4byte	.LASF211
 1137 04fb 05       		.byte	0x5
 1138 04fc 00       		.uleb128 0
 1139 04fd 3C1E0000 		.4byte	.LASF212
 1140 0501 05       		.byte	0x5
 1141 0502 00       		.uleb128 0
 1142 0503 2B0E0000 		.4byte	.LASF213
 1143 0507 05       		.byte	0x5
 1144 0508 00       		.uleb128 0
 1145 0509 F7150000 		.4byte	.LASF214
 1146 050d 05       		.byte	0x5
 1147 050e 00       		.uleb128 0
 1148 050f 53320000 		.4byte	.LASF215
 1149 0513 05       		.byte	0x5
 1150 0514 00       		.uleb128 0
 1151 0515 EE0D0000 		.4byte	.LASF216
 1152 0519 05       		.byte	0x5
 1153 051a 00       		.uleb128 0
 1154 051b 15180000 		.4byte	.LASF217
 1155 051f 05       		.byte	0x5
 1156 0520 00       		.uleb128 0
 1157 0521 15110000 		.4byte	.LASF218
 1158 0525 05       		.byte	0x5
 1159 0526 00       		.uleb128 0
 1160 0527 B8330000 		.4byte	.LASF219
 1161 052b 05       		.byte	0x5
 1162 052c 00       		.uleb128 0
 1163 052d 7A0B0000 		.4byte	.LASF220
 1164 0531 05       		.byte	0x5
 1165 0532 00       		.uleb128 0
 1166 0533 5B210000 		.4byte	.LASF221
 1167 0537 05       		.byte	0x5
 1168 0538 00       		.uleb128 0
 1169 0539 60200000 		.4byte	.LASF222
 1170 053d 05       		.byte	0x5
 1171 053e 00       		.uleb128 0
 1172 053f DD080000 		.4byte	.LASF223
 1173 0543 05       		.byte	0x5
 1174 0544 00       		.uleb128 0
 1175 0545 950E0000 		.4byte	.LASF224
 1176 0549 05       		.byte	0x5
 1177 054a 00       		.uleb128 0
 1178 054b 2B050000 		.4byte	.LASF225
 1179 054f 05       		.byte	0x5
 1180 0550 00       		.uleb128 0
 1181 0551 D9330000 		.4byte	.LASF226
 1182 0555 05       		.byte	0x5
ARM GAS  /var/folders/z0/6xlwn_996xz3mwq1cgzkbq4r0000gp/T//ccF2sUVk.s 			page 22


 1183 0556 00       		.uleb128 0
 1184 0557 780F0000 		.4byte	.LASF227
 1185 055b 05       		.byte	0x5
 1186 055c 00       		.uleb128 0
 1187 055d BE100000 		.4byte	.LASF228
 1188 0561 05       		.byte	0x5
 1189 0562 00       		.uleb128 0
 1190 0563 2D290000 		.4byte	.LASF229
 1191 0567 05       		.byte	0x5
 1192 0568 00       		.uleb128 0
 1193 0569 581B0000 		.4byte	.LASF230
 1194 056d 05       		.byte	0x5
 1195 056e 00       		.uleb128 0
 1196 056f 88130000 		.4byte	.LASF231
 1197 0573 05       		.byte	0x5
 1198 0574 00       		.uleb128 0
 1199 0575 CD240000 		.4byte	.LASF232
 1200 0579 05       		.byte	0x5
 1201 057a 00       		.uleb128 0
 1202 057b B2160000 		.4byte	.LASF233
 1203 057f 05       		.byte	0x5
 1204 0580 00       		.uleb128 0
 1205 0581 452D0000 		.4byte	.LASF234
 1206 0585 05       		.byte	0x5
 1207 0586 00       		.uleb128 0
 1208 0587 A2110000 		.4byte	.LASF235
 1209 058b 05       		.byte	0x5
 1210 058c 00       		.uleb128 0
 1211 058d A60C0000 		.4byte	.LASF236
 1212 0591 05       		.byte	0x5
 1213 0592 00       		.uleb128 0
 1214 0593 9B170000 		.4byte	.LASF237
 1215 0597 05       		.byte	0x5
 1216 0598 00       		.uleb128 0
 1217 0599 7F100000 		.4byte	.LASF238
 1218 059d 05       		.byte	0x5
 1219 059e 00       		.uleb128 0
 1220 059f 8F1E0000 		.4byte	.LASF239
 1221 05a3 05       		.byte	0x5
 1222 05a4 00       		.uleb128 0
 1223 05a5 DB200000 		.4byte	.LASF240
 1224 05a9 05       		.byte	0x5
 1225 05aa 00       		.uleb128 0
 1226 05ab ED190000 		.4byte	.LASF241
 1227 05af 05       		.byte	0x5
 1228 05b0 00       		.uleb128 0
 1229 05b1 3E1D0000 		.4byte	.LASF242
 1230 05b5 05       		.byte	0x5
 1231 05b6 00       		.uleb128 0
 1232 05b7 65160000 		.4byte	.LASF243
 1233 05bb 05       		.byte	0x5
 1234 05bc 00       		.uleb128 0
 1235 05bd C60E0000 		.4byte	.LASF244
 1236 05c1 05       		.byte	0x5
 1237 05c2 00       		.uleb128 0
 1238 05c3 F8230000 		.4byte	.LASF245
 1239 05c7 05       		.byte	0x5
ARM GAS  /var/folders/z0/6xlwn_996xz3mwq1cgzkbq4r0000gp/T//ccF2sUVk.s 			page 23


 1240 05c8 00       		.uleb128 0
 1241 05c9 62100000 		.4byte	.LASF246
 1242 05cd 05       		.byte	0x5
 1243 05ce 00       		.uleb128 0
 1244 05cf 8A190000 		.4byte	.LASF247
 1245 05d3 05       		.byte	0x5
 1246 05d4 00       		.uleb128 0
 1247 05d5 C5120000 		.4byte	.LASF248
 1248 05d9 05       		.byte	0x5
 1249 05da 00       		.uleb128 0
 1250 05db 76090000 		.4byte	.LASF249
 1251 05df 05       		.byte	0x5
 1252 05e0 00       		.uleb128 0
 1253 05e1 471C0000 		.4byte	.LASF250
 1254 05e5 05       		.byte	0x5
 1255 05e6 00       		.uleb128 0
 1256 05e7 A1290000 		.4byte	.LASF251
 1257 05eb 05       		.byte	0x5
 1258 05ec 00       		.uleb128 0
 1259 05ed 321F0000 		.4byte	.LASF252
 1260 05f1 05       		.byte	0x5
 1261 05f2 00       		.uleb128 0
 1262 05f3 E7170000 		.4byte	.LASF253
 1263 05f7 05       		.byte	0x5
 1264 05f8 00       		.uleb128 0
 1265 05f9 C6090000 		.4byte	.LASF254
 1266 05fd 05       		.byte	0x5
 1267 05fe 00       		.uleb128 0
 1268 05ff 0F0D0000 		.4byte	.LASF255
 1269 0603 05       		.byte	0x5
 1270 0604 00       		.uleb128 0
 1271 0605 19010000 		.4byte	.LASF256
 1272 0609 05       		.byte	0x5
 1273 060a 00       		.uleb128 0
 1274 060b 38330000 		.4byte	.LASF257
 1275 060f 05       		.byte	0x5
 1276 0610 00       		.uleb128 0
 1277 0611 A9060000 		.4byte	.LASF258
 1278 0615 05       		.byte	0x5
 1279 0616 00       		.uleb128 0
 1280 0617 1A130000 		.4byte	.LASF259
 1281 061b 05       		.byte	0x5
 1282 061c 00       		.uleb128 0
 1283 061d 28150000 		.4byte	.LASF260
 1284 0621 05       		.byte	0x5
 1285 0622 00       		.uleb128 0
 1286 0623 52150000 		.4byte	.LASF261
 1287 0627 05       		.byte	0x5
 1288 0628 00       		.uleb128 0
 1289 0629 162E0000 		.4byte	.LASF262
 1290 062d 05       		.byte	0x5
 1291 062e 00       		.uleb128 0
 1292 062f 83080000 		.4byte	.LASF263
 1293 0633 05       		.byte	0x5
 1294 0634 00       		.uleb128 0
 1295 0635 E70A0000 		.4byte	.LASF264
 1296 0639 05       		.byte	0x5
ARM GAS  /var/folders/z0/6xlwn_996xz3mwq1cgzkbq4r0000gp/T//ccF2sUVk.s 			page 24


 1297 063a 00       		.uleb128 0
 1298 063b 9A090000 		.4byte	.LASF265
 1299 063f 05       		.byte	0x5
 1300 0640 00       		.uleb128 0
 1301 0641 2C340000 		.4byte	.LASF266
 1302 0645 05       		.byte	0x5
 1303 0646 00       		.uleb128 0
 1304 0647 BC320000 		.4byte	.LASF267
 1305 064b 05       		.byte	0x5
 1306 064c 00       		.uleb128 0
 1307 064d 9F010000 		.4byte	.LASF268
 1308 0651 05       		.byte	0x5
 1309 0652 00       		.uleb128 0
 1310 0653 8E270000 		.4byte	.LASF269
 1311 0657 05       		.byte	0x5
 1312 0658 00       		.uleb128 0
 1313 0659 E4210000 		.4byte	.LASF270
 1314 065d 05       		.byte	0x5
 1315 065e 00       		.uleb128 0
 1316 065f A9240000 		.4byte	.LASF271
 1317 0663 05       		.byte	0x5
 1318 0664 00       		.uleb128 0
 1319 0665 4C230000 		.4byte	.LASF272
 1320 0669 05       		.byte	0x5
 1321 066a 00       		.uleb128 0
 1322 066b 75220000 		.4byte	.LASF273
 1323 066f 05       		.byte	0x5
 1324 0670 00       		.uleb128 0
 1325 0671 ED2D0000 		.4byte	.LASF274
 1326 0675 05       		.byte	0x5
 1327 0676 00       		.uleb128 0
 1328 0677 08260000 		.4byte	.LASF275
 1329 067b 05       		.byte	0x5
 1330 067c 00       		.uleb128 0
 1331 067d 921B0000 		.4byte	.LASF276
 1332 0681 05       		.byte	0x5
 1333 0682 00       		.uleb128 0
 1334 0683 B8230000 		.4byte	.LASF277
 1335 0687 05       		.byte	0x5
 1336 0688 00       		.uleb128 0
 1337 0689 DA290000 		.4byte	.LASF278
 1338 068d 05       		.byte	0x5
 1339 068e 00       		.uleb128 0
 1340 068f 2E240000 		.4byte	.LASF279
 1341 0693 05       		.byte	0x5
 1342 0694 00       		.uleb128 0
 1343 0695 5D140000 		.4byte	.LASF280
 1344 0699 05       		.byte	0x5
 1345 069a 00       		.uleb128 0
 1346 069b E9290000 		.4byte	.LASF281
 1347 069f 05       		.byte	0x5
 1348 06a0 00       		.uleb128 0
 1349 06a1 2F160000 		.4byte	.LASF282
 1350 06a5 05       		.byte	0x5
 1351 06a6 00       		.uleb128 0
 1352 06a7 081A0000 		.4byte	.LASF283
 1353 06ab 05       		.byte	0x5
ARM GAS  /var/folders/z0/6xlwn_996xz3mwq1cgzkbq4r0000gp/T//ccF2sUVk.s 			page 25


 1354 06ac 00       		.uleb128 0
 1355 06ad AD010000 		.4byte	.LASF284
 1356 06b1 05       		.byte	0x5
 1357 06b2 00       		.uleb128 0
 1358 06b3 721A0000 		.4byte	.LASF285
 1359 06b7 05       		.byte	0x5
 1360 06b8 00       		.uleb128 0
 1361 06b9 3E0E0000 		.4byte	.LASF286
 1362 06bd 05       		.byte	0x5
 1363 06be 00       		.uleb128 0
 1364 06bf 70060000 		.4byte	.LASF287
 1365 06c3 05       		.byte	0x5
 1366 06c4 00       		.uleb128 0
 1367 06c5 331A0000 		.4byte	.LASF288
 1368 06c9 05       		.byte	0x5
 1369 06ca 00       		.uleb128 0
 1370 06cb 50130000 		.4byte	.LASF289
 1371 06cf 05       		.byte	0x5
 1372 06d0 00       		.uleb128 0
 1373 06d1 6B0B0000 		.4byte	.LASF290
 1374 06d5 05       		.byte	0x5
 1375 06d6 00       		.uleb128 0
 1376 06d7 470C0000 		.4byte	.LASF291
 1377 06db 05       		.byte	0x5
 1378 06dc 00       		.uleb128 0
 1379 06dd 9E120000 		.4byte	.LASF292
 1380 06e1 05       		.byte	0x5
 1381 06e2 00       		.uleb128 0
 1382 06e3 1E000000 		.4byte	.LASF293
 1383 06e7 05       		.byte	0x5
 1384 06e8 00       		.uleb128 0
 1385 06e9 B1300000 		.4byte	.LASF294
 1386 06ed 05       		.byte	0x5
 1387 06ee 00       		.uleb128 0
 1388 06ef A01B0000 		.4byte	.LASF295
 1389 06f3 05       		.byte	0x5
 1390 06f4 00       		.uleb128 0
 1391 06f5 84220000 		.4byte	.LASF296
 1392 06f9 05       		.byte	0x5
 1393 06fa 00       		.uleb128 0
 1394 06fb 37180000 		.4byte	.LASF297
 1395 06ff 05       		.byte	0x5
 1396 0700 00       		.uleb128 0
 1397 0701 05110000 		.4byte	.LASF298
 1398 0705 05       		.byte	0x5
 1399 0706 00       		.uleb128 0
 1400 0707 D5110000 		.4byte	.LASF299
 1401 070b 05       		.byte	0x5
 1402 070c 00       		.uleb128 0
 1403 070d 500A0000 		.4byte	.LASF300
 1404 0711 05       		.byte	0x5
 1405 0712 00       		.uleb128 0
 1406 0713 79050000 		.4byte	.LASF301
 1407 0717 05       		.byte	0x5
 1408 0718 00       		.uleb128 0
 1409 0719 8F320000 		.4byte	.LASF302
 1410 071d 05       		.byte	0x5
ARM GAS  /var/folders/z0/6xlwn_996xz3mwq1cgzkbq4r0000gp/T//ccF2sUVk.s 			page 26


 1411 071e 00       		.uleb128 0
 1412 071f 5B070000 		.4byte	.LASF303
 1413 0723 05       		.byte	0x5
 1414 0724 00       		.uleb128 0
 1415 0725 0B220000 		.4byte	.LASF304
 1416 0729 05       		.byte	0x5
 1417 072a 00       		.uleb128 0
 1418 072b E0240000 		.4byte	.LASF305
 1419 072f 05       		.byte	0x5
 1420 0730 00       		.uleb128 0
 1421 0731 09060000 		.4byte	.LASF306
 1422 0735 05       		.byte	0x5
 1423 0736 00       		.uleb128 0
 1424 0737 DA1A0000 		.4byte	.LASF307
 1425 073b 05       		.byte	0x5
 1426 073c 00       		.uleb128 0
 1427 073d 3F140000 		.4byte	.LASF308
 1428 0741 05       		.byte	0x5
 1429 0742 00       		.uleb128 0
 1430 0743 42020000 		.4byte	.LASF309
 1431 0747 05       		.byte	0x5
 1432 0748 00       		.uleb128 0
 1433 0749 392A0000 		.4byte	.LASF310
 1434 074d 05       		.byte	0x5
 1435 074e 00       		.uleb128 0
 1436 074f AD170000 		.4byte	.LASF311
 1437 0753 05       		.byte	0x5
 1438 0754 00       		.uleb128 0
 1439 0755 492E0000 		.4byte	.LASF312
 1440 0759 05       		.byte	0x5
 1441 075a 00       		.uleb128 0
 1442 075b 0D100000 		.4byte	.LASF313
 1443 075f 05       		.byte	0x5
 1444 0760 00       		.uleb128 0
 1445 0761 CF190000 		.4byte	.LASF314
 1446 0765 05       		.byte	0x5
 1447 0766 00       		.uleb128 0
 1448 0767 052C0000 		.4byte	.LASF315
 1449 076b 05       		.byte	0x5
 1450 076c 00       		.uleb128 0
 1451 076d E21B0000 		.4byte	.LASF316
 1452 0771 05       		.byte	0x5
 1453 0772 00       		.uleb128 0
 1454 0773 69290000 		.4byte	.LASF317
 1455 0777 05       		.byte	0x5
 1456 0778 00       		.uleb128 0
 1457 0779 061C0000 		.4byte	.LASF318
 1458 077d 05       		.byte	0x5
 1459 077e 00       		.uleb128 0
 1460 077f 84330000 		.4byte	.LASF319
 1461 0783 05       		.byte	0x5
 1462 0784 00       		.uleb128 0
 1463 0785 75200000 		.4byte	.LASF320
 1464 0789 05       		.byte	0x5
 1465 078a 00       		.uleb128 0
 1466 078b E2020000 		.4byte	.LASF321
 1467 078f 05       		.byte	0x5
ARM GAS  /var/folders/z0/6xlwn_996xz3mwq1cgzkbq4r0000gp/T//ccF2sUVk.s 			page 27


 1468 0790 00       		.uleb128 0
 1469 0791 D0100000 		.4byte	.LASF322
 1470 0795 05       		.byte	0x5
 1471 0796 00       		.uleb128 0
 1472 0797 560C0000 		.4byte	.LASF323
 1473 079b 05       		.byte	0x5
 1474 079c 00       		.uleb128 0
 1475 079d B4020000 		.4byte	.LASF324
 1476 07a1 05       		.byte	0x5
 1477 07a2 00       		.uleb128 0
 1478 07a3 A80F0000 		.4byte	.LASF325
 1479 07a7 05       		.byte	0x5
 1480 07a8 00       		.uleb128 0
 1481 07a9 731B0000 		.4byte	.LASF326
 1482 07ad 05       		.byte	0x5
 1483 07ae 00       		.uleb128 0
 1484 07af 18080000 		.4byte	.LASF327
 1485 07b3 05       		.byte	0x5
 1486 07b4 00       		.uleb128 0
 1487 07b5 AA2F0000 		.4byte	.LASF328
 1488 07b9 05       		.byte	0x5
 1489 07ba 00       		.uleb128 0
 1490 07bb 55250000 		.4byte	.LASF329
 1491 07bf 05       		.byte	0x5
 1492 07c0 00       		.uleb128 0
 1493 07c1 411A0000 		.4byte	.LASF330
 1494 07c5 05       		.byte	0x5
 1495 07c6 00       		.uleb128 0
 1496 07c7 160A0000 		.4byte	.LASF331
 1497 07cb 05       		.byte	0x5
 1498 07cc 00       		.uleb128 0
 1499 07cd 56120000 		.4byte	.LASF332
 1500 07d1 05       		.byte	0x5
 1501 07d2 00       		.uleb128 0
 1502 07d3 9F2B0000 		.4byte	.LASF333
 1503 07d7 05       		.byte	0x5
 1504 07d8 00       		.uleb128 0
 1505 07d9 FE280000 		.4byte	.LASF334
 1506 07dd 05       		.byte	0x5
 1507 07de 00       		.uleb128 0
 1508 07df EB160000 		.4byte	.LASF335
 1509 07e3 05       		.byte	0x5
 1510 07e4 00       		.uleb128 0
 1511 07e5 0B290000 		.4byte	.LASF336
 1512 07e9 05       		.byte	0x5
 1513 07ea 00       		.uleb128 0
 1514 07eb D8210000 		.4byte	.LASF337
 1515 07ef 05       		.byte	0x5
 1516 07f0 00       		.uleb128 0
 1517 07f1 6E0D0000 		.4byte	.LASF338
 1518 07f5 05       		.byte	0x5
 1519 07f6 00       		.uleb128 0
 1520 07f7 DA1E0000 		.4byte	.LASF339
 1521 07fb 05       		.byte	0x5
 1522 07fc 00       		.uleb128 0
 1523 07fd D81B0000 		.4byte	.LASF340
 1524 0801 05       		.byte	0x5
ARM GAS  /var/folders/z0/6xlwn_996xz3mwq1cgzkbq4r0000gp/T//ccF2sUVk.s 			page 28


 1525 0802 00       		.uleb128 0
 1526 0803 720C0000 		.4byte	.LASF341
 1527 0807 05       		.byte	0x5
 1528 0808 00       		.uleb128 0
 1529 0809 1F0C0000 		.4byte	.LASF342
 1530 080d 05       		.byte	0x5
 1531 080e 00       		.uleb128 0
 1532 080f C0300000 		.4byte	.LASF343
 1533 0813 05       		.byte	0x5
 1534 0814 00       		.uleb128 0
 1535 0815 CC040000 		.4byte	.LASF344
 1536 0819 05       		.byte	0x5
 1537 081a 00       		.uleb128 0
 1538 081b 01330000 		.4byte	.LASF345
 1539 081f 05       		.byte	0x5
 1540 0820 00       		.uleb128 0
 1541 0821 EA320000 		.4byte	.LASF346
 1542 0825 00       		.byte	0
 1543              		.section	.debug_macro,"G",%progbits,wm4._newlib_version.h.4.ad342815780c8db09778091a421b5b5b,comda
 1544              	.Ldebug_macro2:
 1545 0000 0400     		.2byte	0x4
 1546 0002 00       		.byte	0
 1547 0003 05       		.byte	0x5
 1548 0004 04       		.uleb128 0x4
 1549 0005 2D070000 		.4byte	.LASF352
 1550 0009 05       		.byte	0x5
 1551 000a 06       		.uleb128 0x6
 1552 000b 0F0F0000 		.4byte	.LASF353
 1553 000f 05       		.byte	0x5
 1554 0010 07       		.uleb128 0x7
 1555 0011 4D0E0000 		.4byte	.LASF354
 1556 0015 05       		.byte	0x5
 1557 0016 08       		.uleb128 0x8
 1558 0017 030A0000 		.4byte	.LASF355
 1559 001b 05       		.byte	0x5
 1560 001c 09       		.uleb128 0x9
 1561 001d C5160000 		.4byte	.LASF356
 1562 0021 00       		.byte	0
 1563              		.section	.debug_macro,"G",%progbits,wm4.features.h.33.863f3be0b2e521e624fcc7d6fa31d2ca,comdat
 1564              	.Ldebug_macro3:
 1565 0000 0400     		.2byte	0x4
 1566 0002 00       		.byte	0
 1567 0003 05       		.byte	0x5
 1568 0004 21       		.uleb128 0x21
 1569 0005 F6020000 		.4byte	.LASF357
 1570 0009 05       		.byte	0x5
 1571 000a 28       		.uleb128 0x28
 1572 000b D3220000 		.4byte	.LASF358
 1573 000f 06       		.byte	0x6
 1574 0010 8001     		.uleb128 0x80
 1575 0012 1D290000 		.4byte	.LASF359
 1576 0016 05       		.byte	0x5
 1577 0017 8101     		.uleb128 0x81
 1578 0019 76130000 		.4byte	.LASF360
 1579 001d 06       		.byte	0x6
 1580 001e 8501     		.uleb128 0x85
 1581 0020 87040000 		.4byte	.LASF361
ARM GAS  /var/folders/z0/6xlwn_996xz3mwq1cgzkbq4r0000gp/T//ccF2sUVk.s 			page 29


 1582 0024 05       		.byte	0x5
 1583 0025 8601     		.uleb128 0x86
 1584 0027 682E0000 		.4byte	.LASF362
 1585 002b 06       		.byte	0x6
 1586 002c 8701     		.uleb128 0x87
 1587 002e 79030000 		.4byte	.LASF363
 1588 0032 05       		.byte	0x5
 1589 0033 8801     		.uleb128 0x88
 1590 0035 77110000 		.4byte	.LASF364
 1591 0039 06       		.byte	0x6
 1592 003a 9B01     		.uleb128 0x9b
 1593 003c F4090000 		.4byte	.LASF365
 1594 0040 05       		.byte	0x5
 1595 0041 9C01     		.uleb128 0x9c
 1596 0043 AF0A0000 		.4byte	.LASF366
 1597 0047 05       		.byte	0x5
 1598 0048 F201     		.uleb128 0xf2
 1599 004a C7230000 		.4byte	.LASF367
 1600 004e 05       		.byte	0x5
 1601 004f F801     		.uleb128 0xf8
 1602 0051 08080000 		.4byte	.LASF368
 1603 0055 05       		.byte	0x5
 1604 0056 8002     		.uleb128 0x100
 1605 0058 D1130000 		.4byte	.LASF369
 1606 005c 05       		.byte	0x5
 1607 005d 8802     		.uleb128 0x108
 1608 005f 37230000 		.4byte	.LASF370
 1609 0063 05       		.byte	0x5
 1610 0064 9002     		.uleb128 0x110
 1611 0066 CE250000 		.4byte	.LASF371
 1612 006a 05       		.byte	0x5
 1613 006b 9402     		.uleb128 0x114
 1614 006d E12C0000 		.4byte	.LASF372
 1615 0071 05       		.byte	0x5
 1616 0072 9A02     		.uleb128 0x11a
 1617 0074 CB020000 		.4byte	.LASF373
 1618 0078 05       		.byte	0x5
 1619 0079 AA02     		.uleb128 0x12a
 1620 007b AF1B0000 		.4byte	.LASF374
 1621 007f 05       		.byte	0x5
 1622 0080 BA02     		.uleb128 0x13a
 1623 0082 1A020000 		.4byte	.LASF375
 1624 0086 00       		.byte	0
 1625              		.section	.debug_macro,"G",%progbits,wm4._default_types.h.15.933e8edd27a65e0b69af4a865eb623d2,comda
 1626              	.Ldebug_macro4:
 1627 0000 0400     		.2byte	0x4
 1628 0002 00       		.byte	0
 1629 0003 05       		.byte	0x5
 1630 0004 0F       		.uleb128 0xf
 1631 0005 B8240000 		.4byte	.LASF376
 1632 0009 05       		.byte	0x5
 1633 000a 21       		.uleb128 0x21
 1634 000b C40C0000 		.4byte	.LASF377
 1635 000f 05       		.byte	0x5
 1636 0010 2F       		.uleb128 0x2f
 1637 0011 9D190000 		.4byte	.LASF378
 1638 0015 05       		.byte	0x5
ARM GAS  /var/folders/z0/6xlwn_996xz3mwq1cgzkbq4r0000gp/T//ccF2sUVk.s 			page 30


 1639 0016 45       		.uleb128 0x45
 1640 0017 A4130000 		.4byte	.LASF379
 1641 001b 05       		.byte	0x5
 1642 001c 5F       		.uleb128 0x5f
 1643 001d 28110000 		.4byte	.LASF380
 1644 0021 05       		.byte	0x5
 1645 0022 7E       		.uleb128 0x7e
 1646 0023 782E0000 		.4byte	.LASF381
 1647 0027 05       		.byte	0x5
 1648 0028 9801     		.uleb128 0x98
 1649 002a B7180000 		.4byte	.LASF382
 1650 002e 05       		.byte	0x5
 1651 002f AE01     		.uleb128 0xae
 1652 0031 6F190000 		.4byte	.LASF383
 1653 0035 05       		.byte	0x5
 1654 0036 C001     		.uleb128 0xc0
 1655 0038 13170000 		.4byte	.LASF384
 1656 003c 06       		.byte	0x6
 1657 003d D601     		.uleb128 0xd6
 1658 003f 2B2E0000 		.4byte	.LASF385
 1659 0043 00       		.byte	0
 1660              		.section	.debug_macro,"G",%progbits,wm4._intsup.h.10.b82bf99f69d6a5c085fc866de0d3eb9b,comdat
 1661              	.Ldebug_macro5:
 1662 0000 0400     		.2byte	0x4
 1663 0002 00       		.byte	0
 1664 0003 05       		.byte	0x5
 1665 0004 0A       		.uleb128 0xa
 1666 0005 812A0000 		.4byte	.LASF386
 1667 0009 05       		.byte	0x5
 1668 000a 10       		.uleb128 0x10
 1669 000b DB2B0000 		.4byte	.LASF387
 1670 000f 05       		.byte	0x5
 1671 0010 1A       		.uleb128 0x1a
 1672 0011 2A1D0000 		.4byte	.LASF388
 1673 0015 05       		.byte	0x5
 1674 0016 21       		.uleb128 0x21
 1675 0017 D2000000 		.4byte	.LASF389
 1676 001b 06       		.byte	0x6
 1677 001c 38       		.uleb128 0x38
 1678 001d 61250000 		.4byte	.LASF390
 1679 0021 06       		.byte	0x6
 1680 0022 39       		.uleb128 0x39
 1681 0023 A0060000 		.4byte	.LASF391
 1682 0027 06       		.byte	0x6
 1683 0028 3A       		.uleb128 0x3a
 1684 0029 60010000 		.4byte	.LASF392
 1685 002d 06       		.byte	0x6
 1686 002e 3B       		.uleb128 0x3b
 1687 002f 71150000 		.4byte	.LASF393
 1688 0033 02       		.byte	0x2
 1689 0034 3C       		.uleb128 0x3c
 1690 0035 696E7400 		.ascii	"int\000"
 1691 0039 06       		.byte	0x6
 1692 003a 3D       		.uleb128 0x3d
 1693 003b EE070000 		.4byte	.LASF394
 1694 003f 06       		.byte	0x6
 1695 0040 3E       		.uleb128 0x3e
ARM GAS  /var/folders/z0/6xlwn_996xz3mwq1cgzkbq4r0000gp/T//ccF2sUVk.s 			page 31


 1696 0041 420C0000 		.4byte	.LASF395
 1697 0045 05       		.byte	0x5
 1698 0046 3F       		.uleb128 0x3f
 1699 0047 9C0C0000 		.4byte	.LASF396
 1700 004b 05       		.byte	0x5
 1701 004c 40       		.uleb128 0x40
 1702 004d B62E0000 		.4byte	.LASF397
 1703 0051 05       		.byte	0x5
 1704 0052 41       		.uleb128 0x41
 1705 0053 D00A0000 		.4byte	.LASF398
 1706 0057 05       		.byte	0x5
 1707 0058 42       		.uleb128 0x42
 1708 0059 70050000 		.4byte	.LASF399
 1709 005d 05       		.byte	0x5
 1710 005e 43       		.uleb128 0x43
 1711 005f 511D0000 		.4byte	.LASF400
 1712 0063 05       		.byte	0x5
 1713 0064 44       		.uleb128 0x44
 1714 0065 240B0000 		.4byte	.LASF401
 1715 0069 05       		.byte	0x5
 1716 006a 45       		.uleb128 0x45
 1717 006b 63330000 		.4byte	.LASF402
 1718 006f 05       		.byte	0x5
 1719 0070 4E       		.uleb128 0x4e
 1720 0071 C00A0000 		.4byte	.LASF403
 1721 0075 05       		.byte	0x5
 1722 0076 55       		.uleb128 0x55
 1723 0077 140B0000 		.4byte	.LASF404
 1724 007b 05       		.byte	0x5
 1725 007c 5D       		.uleb128 0x5d
 1726 007d 791F0000 		.4byte	.LASF405
 1727 0081 05       		.byte	0x5
 1728 0082 68       		.uleb128 0x68
 1729 0083 5A270000 		.4byte	.LASF406
 1730 0087 05       		.byte	0x5
 1731 0088 73       		.uleb128 0x73
 1732 0089 27250000 		.4byte	.LASF407
 1733 008d 05       		.byte	0x5
 1734 008e 7C       		.uleb128 0x7c
 1735 008f 22160000 		.4byte	.LASF408
 1736 0093 05       		.byte	0x5
 1737 0094 8301     		.uleb128 0x83
 1738 0096 00230000 		.4byte	.LASF409
 1739 009a 05       		.byte	0x5
 1740 009b 8C01     		.uleb128 0x8c
 1741 009d 1E150000 		.4byte	.LASF410
 1742 00a1 05       		.byte	0x5
 1743 00a2 9301     		.uleb128 0x93
 1744 00a4 04090000 		.4byte	.LASF411
 1745 00a8 05       		.byte	0x5
 1746 00a9 9E01     		.uleb128 0x9e
 1747 00ab D1140000 		.4byte	.LASF412
 1748 00af 05       		.byte	0x5
 1749 00b0 A201     		.uleb128 0xa2
 1750 00b2 20210000 		.4byte	.LASF413
 1751 00b6 05       		.byte	0x5
 1752 00b7 AD01     		.uleb128 0xad
ARM GAS  /var/folders/z0/6xlwn_996xz3mwq1cgzkbq4r0000gp/T//ccF2sUVk.s 			page 32


 1753 00b9 29180000 		.4byte	.LASF414
 1754 00bd 05       		.byte	0x5
 1755 00be B801     		.uleb128 0xb8
 1756 00c0 DF2D0000 		.4byte	.LASF415
 1757 00c4 05       		.byte	0x5
 1758 00c5 C101     		.uleb128 0xc1
 1759 00c7 D80A0000 		.4byte	.LASF416
 1760 00cb 06       		.byte	0x6
 1761 00cc C301     		.uleb128 0xc3
 1762 00ce 61250000 		.4byte	.LASF390
 1763 00d2 06       		.byte	0x6
 1764 00d3 C401     		.uleb128 0xc4
 1765 00d5 A0060000 		.4byte	.LASF391
 1766 00d9 06       		.byte	0x6
 1767 00da C501     		.uleb128 0xc5
 1768 00dc 60010000 		.4byte	.LASF392
 1769 00e0 06       		.byte	0x6
 1770 00e1 C601     		.uleb128 0xc6
 1771 00e3 71150000 		.4byte	.LASF393
 1772 00e7 02       		.byte	0x2
 1773 00e8 C701     		.uleb128 0xc7
 1774 00ea 696E7400 		.ascii	"int\000"
 1775 00ee 06       		.byte	0x6
 1776 00ef C801     		.uleb128 0xc8
 1777 00f1 420C0000 		.4byte	.LASF395
 1778 00f5 06       		.byte	0x6
 1779 00f6 CD01     		.uleb128 0xcd
 1780 00f8 EE070000 		.4byte	.LASF394
 1781 00fc 00       		.byte	0
 1782              		.section	.debug_macro,"G",%progbits,wm4._stdint.h.10.7a5f60e6741af4a5594a3867d347e1f9,comdat
 1783              	.Ldebug_macro6:
 1784 0000 0400     		.2byte	0x4
 1785 0002 00       		.byte	0
 1786 0003 05       		.byte	0x5
 1787 0004 0A       		.uleb128 0xa
 1788 0005 540B0000 		.4byte	.LASF417
 1789 0009 05       		.byte	0x5
 1790 000a 15       		.uleb128 0x15
 1791 000b 5E060000 		.4byte	.LASF418
 1792 000f 05       		.byte	0x5
 1793 0010 19       		.uleb128 0x19
 1794 0011 600A0000 		.4byte	.LASF419
 1795 0015 05       		.byte	0x5
 1796 0016 1B       		.uleb128 0x1b
 1797 0017 70230000 		.4byte	.LASF420
 1798 001b 05       		.byte	0x5
 1799 001c 21       		.uleb128 0x21
 1800 001d 851F0000 		.4byte	.LASF421
 1801 0021 05       		.byte	0x5
 1802 0022 25       		.uleb128 0x25
 1803 0023 25080000 		.4byte	.LASF422
 1804 0027 05       		.byte	0x5
 1805 0028 27       		.uleb128 0x27
 1806 0029 DA230000 		.4byte	.LASF423
 1807 002d 05       		.byte	0x5
 1808 002e 2D       		.uleb128 0x2d
 1809 002f F1080000 		.4byte	.LASF424
ARM GAS  /var/folders/z0/6xlwn_996xz3mwq1cgzkbq4r0000gp/T//ccF2sUVk.s 			page 33


 1810 0033 05       		.byte	0x5
 1811 0034 31       		.uleb128 0x31
 1812 0035 62090000 		.4byte	.LASF425
 1813 0039 05       		.byte	0x5
 1814 003a 33       		.uleb128 0x33
 1815 003b 7F240000 		.4byte	.LASF426
 1816 003f 05       		.byte	0x5
 1817 0040 39       		.uleb128 0x39
 1818 0041 0F320000 		.4byte	.LASF427
 1819 0045 05       		.byte	0x5
 1820 0046 3D       		.uleb128 0x3d
 1821 0047 4E100000 		.4byte	.LASF428
 1822 004b 05       		.byte	0x5
 1823 004c 3F       		.uleb128 0x3f
 1824 004d 64120000 		.4byte	.LASF429
 1825 0051 05       		.byte	0x5
 1826 0052 44       		.uleb128 0x44
 1827 0053 2A310000 		.4byte	.LASF430
 1828 0057 05       		.byte	0x5
 1829 0058 49       		.uleb128 0x49
 1830 0059 242B0000 		.4byte	.LASF431
 1831 005d 00       		.byte	0
 1832              		.section	.debug_macro,"G",%progbits,wm4.stdint.h.23.373a9d32a9e4c2e88fd347156532d281,comdat
 1833              	.Ldebug_macro7:
 1834 0000 0400     		.2byte	0x4
 1835 0002 00       		.byte	0
 1836 0003 05       		.byte	0x5
 1837 0004 17       		.uleb128 0x17
 1838 0005 6B330000 		.4byte	.LASF432
 1839 0009 05       		.byte	0x5
 1840 000a 1D       		.uleb128 0x1d
 1841 000b CD1C0000 		.4byte	.LASF433
 1842 000f 05       		.byte	0x5
 1843 0010 23       		.uleb128 0x23
 1844 0011 B01D0000 		.4byte	.LASF434
 1845 0015 05       		.byte	0x5
 1846 0016 29       		.uleb128 0x29
 1847 0017 C01A0000 		.4byte	.LASF435
 1848 001b 05       		.byte	0x5
 1849 001c 35       		.uleb128 0x35
 1850 001d 75000000 		.4byte	.LASF436
 1851 0021 05       		.byte	0x5
 1852 0022 3F       		.uleb128 0x3f
 1853 0023 F2210000 		.4byte	.LASF437
 1854 0027 05       		.byte	0x5
 1855 0028 49       		.uleb128 0x49
 1856 0029 061D0000 		.4byte	.LASF438
 1857 002d 05       		.byte	0x5
 1858 002e 53       		.uleb128 0x53
 1859 002f 11310000 		.4byte	.LASF439
 1860 0033 05       		.byte	0x5
 1861 0034 9301     		.uleb128 0x93
 1862 0036 B2220000 		.4byte	.LASF440
 1863 003a 05       		.byte	0x5
 1864 003b 9401     		.uleb128 0x94
 1865 003d 54080000 		.4byte	.LASF441
 1866 0041 05       		.byte	0x5
ARM GAS  /var/folders/z0/6xlwn_996xz3mwq1cgzkbq4r0000gp/T//ccF2sUVk.s 			page 34


 1867 0042 9501     		.uleb128 0x95
 1868 0044 461F0000 		.4byte	.LASF442
 1869 0048 05       		.byte	0x5
 1870 0049 AB01     		.uleb128 0xab
 1871 004b 9F320000 		.4byte	.LASF443
 1872 004f 05       		.byte	0x5
 1873 0050 AC01     		.uleb128 0xac
 1874 0052 E1130000 		.4byte	.LASF444
 1875 0056 05       		.byte	0x5
 1876 0057 AD01     		.uleb128 0xad
 1877 0059 75320000 		.4byte	.LASF445
 1878 005d 05       		.byte	0x5
 1879 005e B501     		.uleb128 0xb5
 1880 0060 36040000 		.4byte	.LASF446
 1881 0064 05       		.byte	0x5
 1882 0065 B601     		.uleb128 0xb6
 1883 0067 AE000000 		.4byte	.LASF447
 1884 006b 05       		.byte	0x5
 1885 006c B701     		.uleb128 0xb7
 1886 006e FE180000 		.4byte	.LASF448
 1887 0072 05       		.byte	0x5
 1888 0073 C101     		.uleb128 0xc1
 1889 0075 93220000 		.4byte	.LASF449
 1890 0079 05       		.byte	0x5
 1891 007a C201     		.uleb128 0xc2
 1892 007c 4F290000 		.4byte	.LASF450
 1893 0080 05       		.byte	0x5
 1894 0081 C301     		.uleb128 0xc3
 1895 0083 3A120000 		.4byte	.LASF451
 1896 0087 05       		.byte	0x5
 1897 0088 CB01     		.uleb128 0xcb
 1898 008a 7F140000 		.4byte	.LASF452
 1899 008e 05       		.byte	0x5
 1900 008f CC01     		.uleb128 0xcc
 1901 0091 270F0000 		.4byte	.LASF453
 1902 0095 05       		.byte	0x5
 1903 0096 CD01     		.uleb128 0xcd
 1904 0098 952D0000 		.4byte	.LASF454
 1905 009c 05       		.byte	0x5
 1906 009d D701     		.uleb128 0xd7
 1907 009f E71C0000 		.4byte	.LASF455
 1908 00a3 05       		.byte	0x5
 1909 00a4 D801     		.uleb128 0xd8
 1910 00a6 B4250000 		.4byte	.LASF456
 1911 00aa 05       		.byte	0x5
 1912 00ab D901     		.uleb128 0xd9
 1913 00ad F30C0000 		.4byte	.LASF457
 1914 00b1 05       		.byte	0x5
 1915 00b2 E701     		.uleb128 0xe7
 1916 00b4 70180000 		.4byte	.LASF458
 1917 00b8 05       		.byte	0x5
 1918 00b9 E801     		.uleb128 0xe8
 1919 00bb 78120000 		.4byte	.LASF459
 1920 00bf 05       		.byte	0x5
 1921 00c0 E901     		.uleb128 0xe9
 1922 00c2 1D060000 		.4byte	.LASF460
 1923 00c6 05       		.byte	0x5
ARM GAS  /var/folders/z0/6xlwn_996xz3mwq1cgzkbq4r0000gp/T//ccF2sUVk.s 			page 35


 1924 00c7 F901     		.uleb128 0xf9
 1925 00c9 B82F0000 		.4byte	.LASF461
 1926 00cd 05       		.byte	0x5
 1927 00ce FA01     		.uleb128 0xfa
 1928 00d0 14280000 		.4byte	.LASF462
 1929 00d4 05       		.byte	0x5
 1930 00d5 FB01     		.uleb128 0xfb
 1931 00d7 9B180000 		.4byte	.LASF463
 1932 00db 05       		.byte	0x5
 1933 00dc 8902     		.uleb128 0x109
 1934 00de 65010000 		.4byte	.LASF464
 1935 00e2 05       		.byte	0x5
 1936 00e3 8A02     		.uleb128 0x10a
 1937 00e5 912A0000 		.4byte	.LASF465
 1938 00e9 05       		.byte	0x5
 1939 00ea 8B02     		.uleb128 0x10b
 1940 00ec 21090000 		.4byte	.LASF466
 1941 00f0 05       		.byte	0x5
 1942 00f1 9902     		.uleb128 0x119
 1943 00f3 3E160000 		.4byte	.LASF467
 1944 00f7 05       		.byte	0x5
 1945 00f8 9A02     		.uleb128 0x11a
 1946 00fa 3E310000 		.4byte	.LASF468
 1947 00fe 05       		.byte	0x5
 1948 00ff 9B02     		.uleb128 0x11b
 1949 0101 392B0000 		.4byte	.LASF469
 1950 0105 05       		.byte	0x5
 1951 0106 A902     		.uleb128 0x129
 1952 0108 CA1D0000 		.4byte	.LASF470
 1953 010c 05       		.byte	0x5
 1954 010d AA02     		.uleb128 0x12a
 1955 010f F0270000 		.4byte	.LASF471
 1956 0113 05       		.byte	0x5
 1957 0114 AB02     		.uleb128 0x12b
 1958 0116 D9030000 		.4byte	.LASF472
 1959 011a 05       		.byte	0x5
 1960 011b B902     		.uleb128 0x139
 1961 011d 44170000 		.4byte	.LASF473
 1962 0121 05       		.byte	0x5
 1963 0122 BA02     		.uleb128 0x13a
 1964 0124 922E0000 		.4byte	.LASF474
 1965 0128 05       		.byte	0x5
 1966 0129 BB02     		.uleb128 0x13b
 1967 012b 5B2A0000 		.4byte	.LASF475
 1968 012f 05       		.byte	0x5
 1969 0130 C902     		.uleb128 0x149
 1970 0132 A0030000 		.4byte	.LASF476
 1971 0136 05       		.byte	0x5
 1972 0137 CA02     		.uleb128 0x14a
 1973 0139 E4250000 		.4byte	.LASF477
 1974 013d 05       		.byte	0x5
 1975 013e CB02     		.uleb128 0x14b
 1976 0140 5C2D0000 		.4byte	.LASF478
 1977 0144 05       		.byte	0x5
 1978 0145 D902     		.uleb128 0x159
 1979 0147 4E300000 		.4byte	.LASF479
 1980 014b 05       		.byte	0x5
ARM GAS  /var/folders/z0/6xlwn_996xz3mwq1cgzkbq4r0000gp/T//ccF2sUVk.s 			page 36


 1981 014c DA02     		.uleb128 0x15a
 1982 014e E2000000 		.4byte	.LASF480
 1983 0152 05       		.byte	0x5
 1984 0153 E202     		.uleb128 0x162
 1985 0155 8A0F0000 		.4byte	.LASF481
 1986 0159 05       		.byte	0x5
 1987 015a EA02     		.uleb128 0x16a
 1988 015c 55280000 		.4byte	.LASF482
 1989 0160 05       		.byte	0x5
 1990 0161 F002     		.uleb128 0x170
 1991 0163 711D0000 		.4byte	.LASF483
 1992 0167 05       		.byte	0x5
 1993 0168 F102     		.uleb128 0x171
 1994 016a A40B0000 		.4byte	.LASF484
 1995 016e 05       		.byte	0x5
 1996 016f F502     		.uleb128 0x175
 1997 0171 1B2A0000 		.4byte	.LASF485
 1998 0175 05       		.byte	0x5
 1999 0176 F902     		.uleb128 0x179
 2000 0178 60310000 		.4byte	.LASF486
 2001 017c 05       		.byte	0x5
 2002 017d FE02     		.uleb128 0x17e
 2003 017f DD2A0000 		.4byte	.LASF487
 2004 0183 05       		.byte	0x5
 2005 0184 8903     		.uleb128 0x189
 2006 0186 FB170000 		.4byte	.LASF488
 2007 018a 05       		.byte	0x5
 2008 018b 9303     		.uleb128 0x193
 2009 018d D0310000 		.4byte	.LASF489
 2010 0191 05       		.byte	0x5
 2011 0192 9803     		.uleb128 0x198
 2012 0194 5F040000 		.4byte	.LASF490
 2013 0198 05       		.byte	0x5
 2014 0199 9F03     		.uleb128 0x19f
 2015 019b 77150000 		.4byte	.LASF491
 2016 019f 05       		.byte	0x5
 2017 01a0 A003     		.uleb128 0x1a0
 2018 01a2 C01B0000 		.4byte	.LASF492
 2019 01a6 05       		.byte	0x5
 2020 01a7 AB03     		.uleb128 0x1ab
 2021 01a9 54110000 		.4byte	.LASF493
 2022 01ad 05       		.byte	0x5
 2023 01ae AC03     		.uleb128 0x1ac
 2024 01b0 581A0000 		.4byte	.LASF494
 2025 01b4 05       		.byte	0x5
 2026 01b5 B703     		.uleb128 0x1b7
 2027 01b7 88070000 		.4byte	.LASF495
 2028 01bb 05       		.byte	0x5
 2029 01bc B803     		.uleb128 0x1b8
 2030 01be 981F0000 		.4byte	.LASF496
 2031 01c2 05       		.byte	0x5
 2032 01c3 C403     		.uleb128 0x1c4
 2033 01c5 312E0000 		.4byte	.LASF497
 2034 01c9 05       		.byte	0x5
 2035 01ca C503     		.uleb128 0x1c5
 2036 01cc BC010000 		.4byte	.LASF498
 2037 01d0 05       		.byte	0x5
ARM GAS  /var/folders/z0/6xlwn_996xz3mwq1cgzkbq4r0000gp/T//ccF2sUVk.s 			page 37


 2038 01d1 D403     		.uleb128 0x1d4
 2039 01d3 D72F0000 		.4byte	.LASF499
 2040 01d7 05       		.byte	0x5
 2041 01d8 D503     		.uleb128 0x1d5
 2042 01da 90280000 		.4byte	.LASF500
 2043 01de 00       		.byte	0
 2044              		.section	.debug_macro,"G",%progbits,wm4.stdbool.h.29.07dce69c3b78884144b7f7bd19483461,comdat
 2045              	.Ldebug_macro8:
 2046 0000 0400     		.2byte	0x4
 2047 0002 00       		.byte	0
 2048 0003 05       		.byte	0x5
 2049 0004 1D       		.uleb128 0x1d
 2050 0005 2E120000 		.4byte	.LASF502
 2051 0009 05       		.byte	0x5
 2052 000a 21       		.uleb128 0x21
 2053 000b 2B0B0000 		.4byte	.LASF503
 2054 000f 05       		.byte	0x5
 2055 0010 22       		.uleb128 0x22
 2056 0011 640B0000 		.4byte	.LASF504
 2057 0015 05       		.byte	0x5
 2058 0016 23       		.uleb128 0x23
 2059 0017 10330000 		.4byte	.LASF505
 2060 001b 05       		.byte	0x5
 2061 001c 34       		.uleb128 0x34
 2062 001d 56240000 		.4byte	.LASF506
 2063 0021 00       		.byte	0
 2064              		.section	.debug_macro,"G",%progbits,wm4.lpc_types.h.63.860ba57581a002825766a7c2ac00d549,comdat
 2065              	.Ldebug_macro9:
 2066 0000 0400     		.2byte	0x4
 2067 0002 00       		.byte	0
 2068 0003 05       		.byte	0x5
 2069 0004 3F       		.uleb128 0x3f
 2070 0005 DF060000 		.4byte	.LASF507
 2071 0009 05       		.byte	0x5
 2072 000a 45       		.uleb128 0x45
 2073 000b CA300000 		.4byte	.LASF508
 2074 000f 06       		.byte	0x6
 2075 0010 66       		.uleb128 0x66
 2076 0011 6D170000 		.4byte	.LASF509
 2077 0015 05       		.byte	0x5
 2078 0016 68       		.uleb128 0x68
 2079 0017 2F0C0000 		.4byte	.LASF510
 2080 001b 06       		.byte	0x6
 2081 001c 6E       		.uleb128 0x6e
 2082 001d B7270000 		.4byte	.LASF511
 2083 0021 05       		.byte	0x5
 2084 0022 70       		.uleb128 0x70
 2085 0023 6A300000 		.4byte	.LASF512
 2086 0027 06       		.byte	0x6
 2087 0028 7F       		.uleb128 0x7f
 2088 0029 6F0F0000 		.4byte	.LASF513
 2089 002d 05       		.byte	0x5
 2090 002e 8101     		.uleb128 0x81
 2091 0030 382C0000 		.4byte	.LASF514
 2092 0034 05       		.byte	0x5
 2093 0035 8501     		.uleb128 0x85
 2094 0037 35200000 		.4byte	.LASF515
ARM GAS  /var/folders/z0/6xlwn_996xz3mwq1cgzkbq4r0000gp/T//ccF2sUVk.s 			page 38


 2095 003b 05       		.byte	0x5
 2096 003c 8901     		.uleb128 0x89
 2097 003e E5110000 		.4byte	.LASF516
 2098 0042 05       		.byte	0x5
 2099 0043 8C01     		.uleb128 0x8c
 2100 0045 F72B0000 		.4byte	.LASF517
 2101 0049 05       		.byte	0x5
 2102 004a 8E01     		.uleb128 0x8e
 2103 004c DD160000 		.4byte	.LASF518
 2104 0050 05       		.byte	0x5
 2105 0051 9101     		.uleb128 0x91
 2106 0053 A50D0000 		.4byte	.LASF519
 2107 0057 05       		.byte	0x5
 2108 0058 9401     		.uleb128 0x94
 2109 005a 6C1E0000 		.4byte	.LASF520
 2110 005e 05       		.byte	0x5
 2111 005f 9701     		.uleb128 0x97
 2112 0061 F9130000 		.4byte	.LASF521
 2113 0065 05       		.byte	0x5
 2114 0066 D001     		.uleb128 0xd0
 2115 0068 BE0F0000 		.4byte	.LASF522
 2116 006c 00       		.byte	0
 2117              		.section	.debug_line,"",%progbits
 2118              	.Ldebug_line0:
 2119 0000 6C020000 		.section	.debug_str,"MS",%progbits,1
 2119      02005202 
 2119      00000201 
 2119      FB0E0D00 
 2119      01010101 
 2120              	.LASF83:
 2121 0000 5F5F5349 		.ascii	"__SIG_ATOMIC_MAX__ 0x7fffffff\000"
 2121      475F4154 
 2121      4F4D4943 
 2121      5F4D4158 
 2121      5F5F2030 
 2122              	.LASF293:
 2123 001e 5F5F5441 		.ascii	"__TA_FBIT__ 63\000"
 2123      5F464249 
 2123      545F5F20 
 2123      363300
 2124              	.LASF179:
 2125 002d 5F5F4445 		.ascii	"__DEC64_SUBNORMAL_MIN__ 0.000000000000001E-383DD\000"
 2125      4336345F 
 2125      5355424E 
 2125      4F524D41 
 2125      4C5F4D49 
 2126              	.LASF144:
 2127 005e 5F5F4442 		.ascii	"__DBL_DECIMAL_DIG__ 17\000"
 2127      4C5F4445 
 2127      43494D41 
 2127      4C5F4449 
 2127      475F5F20 
 2128              	.LASF436:
 2129 0075 5F5F696E 		.ascii	"__int_fast8_t_defined 1\000"
 2129      745F6661 
 2129      7374385F 
 2129      745F6465 
ARM GAS  /var/folders/z0/6xlwn_996xz3mwq1cgzkbq4r0000gp/T//ccF2sUVk.s 			page 39


 2129      66696E65 
 2130              	.LASF59:
 2131 008d 5F5F5549 		.ascii	"__UINT_FAST8_TYPE__ unsigned int\000"
 2131      4E545F46 
 2131      41535438 
 2131      5F545950 
 2131      455F5F20 
 2132              	.LASF447:
 2133 00ae 494E545F 		.ascii	"INT_LEAST8_MAX (__INT_LEAST8_MAX__)\000"
 2133      4C454153 
 2133      54385F4D 
 2133      41582028 
 2133      5F5F494E 
 2134              	.LASF389:
 2135 00d2 5F5F6861 		.ascii	"__have_long32 1\000"
 2135      76655F6C 
 2135      6F6E6733 
 2135      32203100 
 2136              	.LASF480:
 2137 00e2 494E544D 		.ascii	"INTMAX_MIN (-INTMAX_MAX - 1)\000"
 2137      41585F4D 
 2137      494E2028 
 2137      2D494E54 
 2137      4D41585F 
 2138              	.LASF178:
 2139 00ff 5F5F4445 		.ascii	"__DEC64_EPSILON__ 1E-15DD\000"
 2139      4336345F 
 2139      45505349 
 2139      4C4F4E5F 
 2139      5F203145 
 2140              	.LASF256:
 2141 0119 5F5F554C 		.ascii	"__ULACCUM_EPSILON__ 0x1P-32ULK\000"
 2141      41434355 
 2141      4D5F4550 
 2141      53494C4F 
 2141      4E5F5F20 
 2142              	.LASF35:
 2143 0138 5F5F5549 		.ascii	"__UINTMAX_TYPE__ long long unsigned int\000"
 2143      4E544D41 
 2143      585F5459 
 2143      50455F5F 
 2143      206C6F6E 
 2144              	.LASF392:
 2145 0160 63686172 		.ascii	"char\000"
 2145      00
 2146              	.LASF464:
 2147 0165 494E545F 		.ascii	"INT_LEAST64_MIN (-__INT_LEAST64_MAX__ - 1)\000"
 2147      4C454153 
 2147      5436345F 
 2147      4D494E20 
 2147      282D5F5F 
 2148              	.LASF102:
 2149 0190 5F5F5549 		.ascii	"__UINT8_C(c) c\000"
 2149      4E54385F 
 2149      43286329 
 2149      206300
 2150              	.LASF268:
ARM GAS  /var/folders/z0/6xlwn_996xz3mwq1cgzkbq4r0000gp/T//ccF2sUVk.s 			page 40


 2151 019f 5F5F5151 		.ascii	"__QQ_IBIT__ 0\000"
 2151      5F494249 
 2151      545F5F20 
 2151      3000
 2152              	.LASF284:
 2153 01ad 5F5F5544 		.ascii	"__UDQ_IBIT__ 0\000"
 2153      515F4942 
 2153      49545F5F 
 2153      203000
 2154              	.LASF498:
 2155 01bc 55494E54 		.ascii	"UINT64_C(x) __UINT64_C(x)\000"
 2155      36345F43 
 2155      28782920 
 2155      5F5F5549 
 2155      4E543634 
 2156              	.LASF539:
 2157 01d6 74656D70 		.ascii	"temp\000"
 2157      00
 2158              	.LASF195:
 2159 01db 5F5F5553 		.ascii	"__USFRACT_MAX__ 0XFFP-8UHR\000"
 2159      46524143 
 2159      545F4D41 
 2159      585F5F20 
 2159      30584646 
 2160              	.LASF131:
 2161 01f6 5F5F464C 		.ascii	"__FLT_MAX__ 3.4028234663852886e+38F\000"
 2161      545F4D41 
 2161      585F5F20 
 2161      332E3430 
 2161      32383233 
 2162              	.LASF375:
 2163 021a 5F5F5853 		.ascii	"__XSI_VISIBLE 0\000"
 2163      495F5649 
 2163      5349424C 
 2163      45203000 
 2164              	.LASF140:
 2165 022a 5F5F4442 		.ascii	"__DBL_MIN_EXP__ (-1021)\000"
 2165      4C5F4D49 
 2165      4E5F4558 
 2165      505F5F20 
 2165      282D3130 
 2166              	.LASF309:
 2167 0242 5F5F4743 		.ascii	"__GCC_ATOMIC_CHAR16_T_LOCK_FREE 1\000"
 2167      435F4154 
 2167      4F4D4943 
 2167      5F434841 
 2167      5231365F 
 2168              	.LASF66:
 2169 0264 5F5F6861 		.ascii	"__has_include_next(STR) __has_include_next__(STR)\000"
 2169      735F696E 
 2169      636C7564 
 2169      655F6E65 
 2169      78742853 
 2170              	.LASF209:
 2171 0296 5F5F4C46 		.ascii	"__LFRACT_MIN__ (-0.5LR-0.5LR)\000"
 2171      52414354 
 2171      5F4D494E 
ARM GAS  /var/folders/z0/6xlwn_996xz3mwq1cgzkbq4r0000gp/T//ccF2sUVk.s 			page 41


 2171      5F5F2028 
 2171      2D302E35 
 2172              	.LASF324:
 2173 02b4 5F5F4152 		.ascii	"__ARM_SIZEOF_WCHAR_T 4\000"
 2173      4D5F5349 
 2173      5A454F46 
 2173      5F574348 
 2173      41525F54 
 2174              	.LASF373:
 2175 02cb 5F5F504F 		.ascii	"__POSIX_VISIBLE 200809\000"
 2175      5349585F 
 2175      56495349 
 2175      424C4520 
 2175      32303038 
 2176              	.LASF321:
 2177 02e2 5F5F5349 		.ascii	"__SIZEOF_WINT_T__ 4\000"
 2177      5A454F46 
 2177      5F57494E 
 2177      545F545F 
 2177      5F203400 
 2178              	.LASF357:
 2179 02f6 5F5F474E 		.ascii	"__GNUC_PREREQ(maj,min) ((__GNUC__ << 16) + __GNUC_M"
 2179      55435F50 
 2179      52455245 
 2179      51286D61 
 2179      6A2C6D69 
 2180 0329 494E4F52 		.ascii	"INOR__ >= ((maj) << 16) + (min))\000"
 2180      5F5F203E 
 2180      3D202828 
 2180      6D616A29 
 2180      203C3C20 
 2181              	.LASF145:
 2182 034a 5F5F4442 		.ascii	"__DBL_MAX__ ((double)1.7976931348623157e+308L)\000"
 2182      4C5F4D41 
 2182      585F5F20 
 2182      2828646F 
 2182      75626C65 
 2183              	.LASF363:
 2184 0379 5F504F53 		.ascii	"_POSIX_C_SOURCE\000"
 2184      49585F43 
 2184      5F534F55 
 2184      52434500 
 2185              	.LASF194:
 2186 0389 5F5F5553 		.ascii	"__USFRACT_MIN__ 0.0UHR\000"
 2186      46524143 
 2186      545F4D49 
 2186      4E5F5F20 
 2186      302E3055 
 2187              	.LASF476:
 2188 03a0 494E545F 		.ascii	"INT_FAST64_MIN (-__INT_FAST64_MAX__ - 1)\000"
 2188      46415354 
 2188      36345F4D 
 2188      494E2028 
 2188      2D5F5F49 
 2189              	.LASF76:
 2190 03c9 5F5F5749 		.ascii	"__WINT_MIN__ 0U\000"
 2190      4E545F4D 
ARM GAS  /var/folders/z0/6xlwn_996xz3mwq1cgzkbq4r0000gp/T//ccF2sUVk.s 			page 42


 2190      494E5F5F 
 2190      20305500 
 2191              	.LASF472:
 2192 03d9 55494E54 		.ascii	"UINT_FAST16_MAX (__UINT_FAST16_MAX__)\000"
 2192      5F464153 
 2192      5431365F 
 2192      4D415820 
 2192      285F5F55 
 2193              	.LASF101:
 2194 03ff 5F5F5549 		.ascii	"__UINT_LEAST8_MAX__ 0xff\000"
 2194      4E545F4C 
 2194      45415354 
 2194      385F4D41 
 2194      585F5F20 
 2195              	.LASF3:
 2196 0418 5F5F474E 		.ascii	"__GNUC_MINOR__ 4\000"
 2196      55435F4D 
 2196      494E4F52 
 2196      5F5F2034 
 2196      00
 2197              	.LASF532:
 2198 0429 756E7369 		.ascii	"unsigned int\000"
 2198      676E6564 
 2198      20696E74 
 2198      00
 2199              	.LASF446:
 2200 0436 494E545F 		.ascii	"INT_LEAST8_MIN (-__INT_LEAST8_MAX__ - 1)\000"
 2200      4C454153 
 2200      54385F4D 
 2200      494E2028 
 2200      2D5F5F49 
 2201              	.LASF490:
 2202 045f 57494E54 		.ascii	"WINT_MIN (__WINT_MIN__)\000"
 2202      5F4D494E 
 2202      20285F5F 
 2202      57494E54 
 2202      5F4D494E 
 2203              	.LASF104:
 2204 0477 5F5F5549 		.ascii	"__UINT16_C(c) c\000"
 2204      4E543136 
 2204      5F432863 
 2204      29206300 
 2205              	.LASF361:
 2206 0487 5F504F53 		.ascii	"_POSIX_SOURCE\000"
 2206      49585F53 
 2206      4F555243 
 2206      4500
 2207              	.LASF21:
 2208 0495 5F5F5349 		.ascii	"__SIZEOF_SIZE_T__ 4\000"
 2208      5A454F46 
 2208      5F53495A 
 2208      455F545F 
 2208      5F203400 
 2209              	.LASF36:
 2210 04a9 5F5F4348 		.ascii	"__CHAR16_TYPE__ short unsigned int\000"
 2210      41523136 
 2210      5F545950 
ARM GAS  /var/folders/z0/6xlwn_996xz3mwq1cgzkbq4r0000gp/T//ccF2sUVk.s 			page 43


 2210      455F5F20 
 2210      73686F72 
 2211              	.LASF344:
 2212 04cc 44454255 		.ascii	"DEBUG_ENABLE 1\000"
 2212      475F454E 
 2212      41424C45 
 2212      203100
 2213              	.LASF20:
 2214 04db 5F5F5349 		.ascii	"__SIZEOF_LONG_DOUBLE__ 8\000"
 2214      5A454F46 
 2214      5F4C4F4E 
 2214      475F444F 
 2214      55424C45 
 2215              	.LASF109:
 2216 04f4 5F5F494E 		.ascii	"__INT_FAST8_MAX__ 0x7fffffff\000"
 2216      545F4641 
 2216      5354385F 
 2216      4D41585F 
 2216      5F203078 
 2217              	.LASF25:
 2218 0511 5F5F4F52 		.ascii	"__ORDER_BIG_ENDIAN__ 4321\000"
 2218      4445525F 
 2218      4249475F 
 2218      454E4449 
 2218      414E5F5F 
 2219              	.LASF225:
 2220 052b 5F5F554C 		.ascii	"__ULLFRACT_MAX__ 0XFFFFFFFFFFFFFFFFP-64ULLR\000"
 2220      4C465241 
 2220      43545F4D 
 2220      41585F5F 
 2220      20305846 
 2221              	.LASF183:
 2222 0557 5F5F4445 		.ascii	"__DEC128_MIN__ 1E-6143DL\000"
 2222      43313238 
 2222      5F4D494E 
 2222      5F5F2031 
 2222      452D3631 
 2223              	.LASF399:
 2224 0570 73686F72 		.ascii	"short +1\000"
 2224      74202B31 
 2224      00
 2225              	.LASF301:
 2226 0579 5F5F5554 		.ascii	"__UTA_FBIT__ 64\000"
 2226      415F4642 
 2226      49545F5F 
 2226      20363400 
 2227              	.LASF138:
 2228 0589 5F5F4442 		.ascii	"__DBL_MANT_DIG__ 53\000"
 2228      4C5F4D41 
 2228      4E545F44 
 2228      49475F5F 
 2228      20353300 
 2229              	.LASF54:
 2230 059d 5F5F5549 		.ascii	"__UINT_LEAST64_TYPE__ long long unsigned int\000"
 2230      4E545F4C 
 2230      45415354 
 2230      36345F54 
ARM GAS  /var/folders/z0/6xlwn_996xz3mwq1cgzkbq4r0000gp/T//ccF2sUVk.s 			page 44


 2230      5950455F 
 2231              	.LASF70:
 2232 05ca 5F5F494E 		.ascii	"__INT_MAX__ 0x7fffffff\000"
 2232      545F4D41 
 2232      585F5F20 
 2232      30783766 
 2232      66666666 
 2233              	.LASF9:
 2234 05e1 5F5F4154 		.ascii	"__ATOMIC_RELEASE 3\000"
 2234      4F4D4943 
 2234      5F52454C 
 2234      45415345 
 2234      203300
 2235              	.LASF31:
 2236 05f4 5F5F5054 		.ascii	"__PTRDIFF_TYPE__ int\000"
 2236      52444946 
 2236      465F5459 
 2236      50455F5F 
 2236      20696E74 
 2237              	.LASF306:
 2238 0609 5F5F4348 		.ascii	"__CHAR_UNSIGNED__ 1\000"
 2238      41525F55 
 2238      4E534947 
 2238      4E45445F 
 2238      5F203100 
 2239              	.LASF460:
 2240 061d 55494E54 		.ascii	"UINT_LEAST32_MAX (__UINT_LEAST32_MAX__)\000"
 2240      5F4C4541 
 2240      53543332 
 2240      5F4D4158 
 2240      20285F5F 
 2241              	.LASF40:
 2242 0645 5F5F494E 		.ascii	"__INT16_TYPE__ short int\000"
 2242      5431365F 
 2242      54595045 
 2242      5F5F2073 
 2242      686F7274 
 2243              	.LASF418:
 2244 065e 5F494E54 		.ascii	"_INT8_T_DECLARED \000"
 2244      385F545F 
 2244      4445434C 
 2244      41524544 
 2244      2000
 2245              	.LASF287:
 2246 0670 5F5F4841 		.ascii	"__HA_FBIT__ 7\000"
 2246      5F464249 
 2246      545F5F20 
 2246      3700
 2247              	.LASF153:
 2248 067e 5F5F4C44 		.ascii	"__LDBL_DIG__ 15\000"
 2248      424C5F44 
 2248      49475F5F 
 2248      20313500 
 2249              	.LASF15:
 2250 068e 5F5F5349 		.ascii	"__SIZEOF_LONG__ 4\000"
 2250      5A454F46 
 2250      5F4C4F4E 
ARM GAS  /var/folders/z0/6xlwn_996xz3mwq1cgzkbq4r0000gp/T//ccF2sUVk.s 			page 45


 2250      475F5F20 
 2250      3400
 2251              	.LASF391:
 2252 06a0 756E7369 		.ascii	"unsigned\000"
 2252      676E6564 
 2252      00
 2253              	.LASF258:
 2254 06a9 5F5F4C4C 		.ascii	"__LLACCUM_IBIT__ 32\000"
 2254      41434355 
 2254      4D5F4942 
 2254      49545F5F 
 2254      20333200 
 2255              	.LASF7:
 2256 06bd 5F5F4154 		.ascii	"__ATOMIC_SEQ_CST 5\000"
 2256      4F4D4943 
 2256      5F534551 
 2256      5F435354 
 2256      203500
 2257              	.LASF96:
 2258 06d0 5F5F494E 		.ascii	"__INT16_C(c) c\000"
 2258      5431365F 
 2258      43286329 
 2258      206300
 2259              	.LASF507:
 2260 06df 50415241 		.ascii	"PARAM_SETSTATE(State) ((State == RESET) || (State ="
 2260      4D5F5345 
 2260      54535441 
 2260      54452853 
 2260      74617465 
 2261 0712 3D205345 		.ascii	"= SET))\000"
 2261      54292900 
 2262              	.LASF17:
 2263 071a 5F5F5349 		.ascii	"__SIZEOF_SHORT__ 2\000"
 2263      5A454F46 
 2263      5F53484F 
 2263      52545F5F 
 2263      203200
 2264              	.LASF352:
 2265 072d 5F4E4557 		.ascii	"_NEWLIB_VERSION_H__ 1\000"
 2265      4C49425F 
 2265      56455253 
 2265      494F4E5F 
 2265      485F5F20 
 2266              	.LASF93:
 2267 0743 5F5F494E 		.ascii	"__INT_LEAST8_MAX__ 0x7f\000"
 2267      545F4C45 
 2267      41535438 
 2267      5F4D4158 
 2267      5F5F2030 
 2268              	.LASF303:
 2269 075b 5F5F5245 		.ascii	"__REGISTER_PREFIX__ \000"
 2269      47495354 
 2269      45525F50 
 2269      52454649 
 2269      585F5F20 
 2270              	.LASF82:
 2271 0770 5F5F5549 		.ascii	"__UINTMAX_C(c) c ## ULL\000"
ARM GAS  /var/folders/z0/6xlwn_996xz3mwq1cgzkbq4r0000gp/T//ccF2sUVk.s 			page 46


 2271      4E544D41 
 2271      585F4328 
 2271      63292063 
 2271      20232320 
 2272              	.LASF495:
 2273 0788 494E5433 		.ascii	"INT32_C(x) __INT32_C(x)\000"
 2273      325F4328 
 2273      7829205F 
 2273      5F494E54 
 2273      33325F43 
 2274              	.LASF27:
 2275 07a0 5F5F4259 		.ascii	"__BYTE_ORDER__ __ORDER_LITTLE_ENDIAN__\000"
 2275      54455F4F 
 2275      52444552 
 2275      5F5F205F 
 2275      5F4F5244 
 2276              	.LASF172:
 2277 07c7 5F5F4445 		.ascii	"__DEC32_SUBNORMAL_MIN__ 0.000001E-95DF\000"
 2277      4333325F 
 2277      5355424E 
 2277      4F524D41 
 2277      4C5F4D49 
 2278              	.LASF394:
 2279 07ee 5F5F696E 		.ascii	"__int20\000"
 2279      74323000 
 2280              	.LASF208:
 2281 07f6 5F5F4C46 		.ascii	"__LFRACT_IBIT__ 0\000"
 2281      52414354 
 2281      5F494249 
 2281      545F5F20 
 2281      3000
 2282              	.LASF368:
 2283 0808 5F5F4253 		.ascii	"__BSD_VISIBLE 1\000"
 2283      445F5649 
 2283      5349424C 
 2283      45203100 
 2284              	.LASF327:
 2285 0818 5F5F4152 		.ascii	"__ARM_ARCH 6\000"
 2285      4D5F4152 
 2285      43482036 
 2285      00
 2286              	.LASF422:
 2287 0825 5F55494E 		.ascii	"_UINT16_T_DECLARED \000"
 2287      5431365F 
 2287      545F4445 
 2287      434C4152 
 2287      45442000 
 2288              	.LASF95:
 2289 0839 5F5F494E 		.ascii	"__INT_LEAST16_MAX__ 0x7fff\000"
 2289      545F4C45 
 2289      41535431 
 2289      365F4D41 
 2289      585F5F20 
 2290              	.LASF441:
 2291 0854 494E5450 		.ascii	"INTPTR_MAX (__INTPTR_MAX__)\000"
 2291      54525F4D 
 2291      41582028 
ARM GAS  /var/folders/z0/6xlwn_996xz3mwq1cgzkbq4r0000gp/T//ccF2sUVk.s 			page 47


 2291      5F5F494E 
 2291      54505452 
 2292              	.LASF68:
 2293 0870 5F5F5343 		.ascii	"__SCHAR_MAX__ 0x7f\000"
 2293      4841525F 
 2293      4D41585F 
 2293      5F203078 
 2293      376600
 2294              	.LASF263:
 2295 0883 5F5F554C 		.ascii	"__ULLACCUM_IBIT__ 32\000"
 2295      4C414343 
 2295      554D5F49 
 2295      4249545F 
 2295      5F203332 
 2296              	.LASF186:
 2297 0898 5F5F4445 		.ascii	"__DEC128_SUBNORMAL_MIN__ 0.000000000000000000000000"
 2297      43313238 
 2297      5F535542 
 2297      4E4F524D 
 2297      414C5F4D 
 2298 08cb 30303030 		.ascii	"000000001E-6143DL\000"
 2298      30303030 
 2298      31452D36 
 2298      31343344 
 2298      4C00
 2299              	.LASF223:
 2300 08dd 5F5F554C 		.ascii	"__ULLFRACT_IBIT__ 0\000"
 2300      4C465241 
 2300      43545F49 
 2300      4249545F 
 2300      5F203000 
 2301              	.LASF424:
 2302 08f1 5F494E54 		.ascii	"_INT32_T_DECLARED \000"
 2302      33325F54 
 2302      5F444543 
 2302      4C415245 
 2302      442000
 2303              	.LASF411:
 2304 0904 5F5F4641 		.ascii	"__FAST32 \000"
 2304      53543332 
 2304      2000
 2305              	.LASF6:
 2306 090e 5F5F4154 		.ascii	"__ATOMIC_RELAXED 0\000"
 2306      4F4D4943 
 2306      5F52454C 
 2306      41584544 
 2306      203000
 2307              	.LASF466:
 2308 0921 55494E54 		.ascii	"UINT_LEAST64_MAX (__UINT_LEAST64_MAX__)\000"
 2308      5F4C4541 
 2308      53543634 
 2308      5F4D4158 
 2308      20285F5F 
 2309              	.LASF78:
 2310 0949 5F5F5349 		.ascii	"__SIZE_MAX__ 0xffffffffU\000"
 2310      5A455F4D 
 2310      41585F5F 
ARM GAS  /var/folders/z0/6xlwn_996xz3mwq1cgzkbq4r0000gp/T//ccF2sUVk.s 			page 48


 2310      20307866 
 2310      66666666 
 2311              	.LASF425:
 2312 0962 5F55494E 		.ascii	"_UINT32_T_DECLARED \000"
 2312      5433325F 
 2312      545F4445 
 2312      434C4152 
 2312      45442000 
 2313              	.LASF249:
 2314 0976 5F5F4C41 		.ascii	"__LACCUM_MIN__ (-0X1P31LK-0X1P31LK)\000"
 2314      4343554D 
 2314      5F4D494E 
 2314      5F5F2028 
 2314      2D305831 
 2315              	.LASF265:
 2316 099a 5F5F554C 		.ascii	"__ULLACCUM_MAX__ 0XFFFFFFFFFFFFFFFFP-32ULLK\000"
 2316      4C414343 
 2316      554D5F4D 
 2316      41585F5F 
 2316      20305846 
 2317              	.LASF254:
 2318 09c6 5F5F554C 		.ascii	"__ULACCUM_MIN__ 0.0ULK\000"
 2318      41434355 
 2318      4D5F4D49 
 2318      4E5F5F20 
 2318      302E3055 
 2319              	.LASF136:
 2320 09dd 5F5F464C 		.ascii	"__FLT_HAS_INFINITY__ 1\000"
 2320      545F4841 
 2320      535F494E 
 2320      46494E49 
 2320      54595F5F 
 2321              	.LASF365:
 2322 09f4 5F415446 		.ascii	"_ATFILE_SOURCE\000"
 2322      494C455F 
 2322      534F5552 
 2322      434500
 2323              	.LASF355:
 2324 0a03 5F5F4E45 		.ascii	"__NEWLIB_MINOR__ 4\000"
 2324      574C4942 
 2324      5F4D494E 
 2324      4F525F5F 
 2324      203400
 2325              	.LASF331:
 2326 0a16 5F5F4152 		.ascii	"__ARMEL__ 1\000"
 2326      4D454C5F 
 2326      5F203100 
 2327              	.LASF536:
 2328 0a22 2E2E2F2E 		.ascii	"../../lib/lpc11cx4-library/evt_lib/src/util.c\000"
 2328      2E2F6C69 
 2328      622F6C70 
 2328      63313163 
 2328      78342D6C 
 2329              	.LASF300:
 2330 0a50 5F5F5544 		.ascii	"__UDA_IBIT__ 32\000"
 2330      415F4942 
 2330      49545F5F 
ARM GAS  /var/folders/z0/6xlwn_996xz3mwq1cgzkbq4r0000gp/T//ccF2sUVk.s 			page 49


 2330      20333200 
 2331              	.LASF419:
 2332 0a60 5F55494E 		.ascii	"_UINT8_T_DECLARED \000"
 2332      54385F54 
 2332      5F444543 
 2332      4C415245 
 2332      442000
 2333              	.LASF58:
 2334 0a73 5F5F494E 		.ascii	"__INT_FAST64_TYPE__ long long int\000"
 2334      545F4641 
 2334      53543634 
 2334      5F545950 
 2334      455F5F20 
 2335              	.LASF94:
 2336 0a95 5F5F494E 		.ascii	"__INT8_C(c) c\000"
 2336      54385F43 
 2336      28632920 
 2336      6300
 2337              	.LASF524:
 2338 0aa3 7369676E 		.ascii	"signed char\000"
 2338      65642063 
 2338      68617200 
 2339              	.LASF366:
 2340 0aaf 5F415446 		.ascii	"_ATFILE_SOURCE 1\000"
 2340      494C455F 
 2340      534F5552 
 2340      43452031 
 2340      00
 2341              	.LASF403:
 2342 0ac0 5F494E54 		.ascii	"_INTPTR_EQ_INT \000"
 2342      5054525F 
 2342      45515F49 
 2342      4E542000 
 2343              	.LASF398:
 2344 0ad0 63686172 		.ascii	"char +0\000"
 2344      202B3000 
 2345              	.LASF416:
 2346 0ad8 5F5F4C45 		.ascii	"__LEAST64 \"ll\"\000"
 2346      41535436 
 2346      3420226C 
 2346      6C2200
 2347              	.LASF264:
 2348 0ae7 5F5F554C 		.ascii	"__ULLACCUM_MIN__ 0.0ULLK\000"
 2348      4C414343 
 2348      554D5F4D 
 2348      494E5F5F 
 2348      20302E30 
 2349              	.LASF501:
 2350 0b00 5F474343 		.ascii	"_GCC_WRAP_STDINT_H \000"
 2350      5F575241 
 2350      505F5354 
 2350      44494E54 
 2350      5F482000 
 2351              	.LASF404:
 2352 0b14 5F494E54 		.ascii	"_INT32_EQ_LONG \000"
 2352      33325F45 
 2352      515F4C4F 
ARM GAS  /var/folders/z0/6xlwn_996xz3mwq1cgzkbq4r0000gp/T//ccF2sUVk.s 			page 50


 2352      4E472000 
 2353              	.LASF401:
 2354 0b24 696E7420 		.ascii	"int +2\000"
 2354      2B3200
 2355              	.LASF503:
 2356 0b2b 626F6F6C 		.ascii	"bool _Bool\000"
 2356      205F426F 
 2356      6F6C00
 2357              	.LASF64:
 2358 0b36 5F5F5549 		.ascii	"__UINTPTR_TYPE__ unsigned int\000"
 2358      4E545054 
 2358      525F5459 
 2358      50455F5F 
 2358      20756E73 
 2359              	.LASF417:
 2360 0b54 5F535953 		.ascii	"_SYS__STDINT_H \000"
 2360      5F5F5354 
 2360      44494E54 
 2360      5F482000 
 2361              	.LASF504:
 2362 0b64 74727565 		.ascii	"true 1\000"
 2362      203100
 2363              	.LASF290:
 2364 0b6b 5F5F5341 		.ascii	"__SA_IBIT__ 16\000"
 2364      5F494249 
 2364      545F5F20 
 2364      313600
 2365              	.LASF220:
 2366 0b7a 5F5F4C4C 		.ascii	"__LLFRACT_MAX__ 0X7FFFFFFFFFFFFFFFP-63LLR\000"
 2366      46524143 
 2366      545F4D41 
 2366      585F5F20 
 2366      30583746 
 2367              	.LASF484:
 2368 0ba4 5349475F 		.ascii	"SIG_ATOMIC_MAX (__STDINT_EXP(INT_MAX))\000"
 2368      41544F4D 
 2368      49435F4D 
 2368      41582028 
 2368      5F5F5354 
 2369              	.LASF112:
 2370 0bcb 5F5F494E 		.ascii	"__INT_FAST64_MAX__ 0x7fffffffffffffffLL\000"
 2370      545F4641 
 2370      53543634 
 2370      5F4D4158 
 2370      5F5F2030 
 2371              	.LASF125:
 2372 0bf3 5F5F464C 		.ascii	"__FLT_DIG__ 6\000"
 2372      545F4449 
 2372      475F5F20 
 2372      3600
 2373              	.LASF110:
 2374 0c01 5F5F494E 		.ascii	"__INT_FAST16_MAX__ 0x7fffffff\000"
 2374      545F4641 
 2374      53543136 
 2374      5F4D4158 
 2374      5F5F2030 
 2375              	.LASF342:
ARM GAS  /var/folders/z0/6xlwn_996xz3mwq1cgzkbq4r0000gp/T//ccF2sUVk.s 			page 51


 2376 0c1f 55415254 		.ascii	"UART_BAUD 57600\000"
 2376      5F424155 
 2376      44203537 
 2376      36303000 
 2377              	.LASF510:
 2378 0c2f 5F424954 		.ascii	"_BIT(n) (1 << (n))\000"
 2378      286E2920 
 2378      2831203C 
 2378      3C20286E 
 2378      292900
 2379              	.LASF395:
 2380 0c42 6C6F6E67 		.ascii	"long\000"
 2380      00
 2381              	.LASF291:
 2382 0c47 5F5F4441 		.ascii	"__DA_FBIT__ 31\000"
 2382      5F464249 
 2382      545F5F20 
 2382      333100
 2383              	.LASF323:
 2384 0c56 5F5F4152 		.ascii	"__ARM_SIZEOF_MINIMAL_ENUM 1\000"
 2384      4D5F5349 
 2384      5A454F46 
 2384      5F4D494E 
 2384      494D414C 
 2385              	.LASF341:
 2386 0c72 5F5F5553 		.ascii	"__USES_INITFINI__ 1\000"
 2386      45535F49 
 2386      4E495446 
 2386      494E495F 
 2386      5F203100 
 2387              	.LASF169:
 2388 0c86 5F5F4445 		.ascii	"__DEC32_MIN__ 1E-95DF\000"
 2388      4333325F 
 2388      4D494E5F 
 2388      5F203145 
 2388      2D393544 
 2389              	.LASF396:
 2390 0c9c 7369676E 		.ascii	"signed +0\000"
 2390      6564202B 
 2390      3000
 2391              	.LASF236:
 2392 0ca6 5F5F5553 		.ascii	"__USACCUM_EPSILON__ 0x1P-8UHK\000"
 2392      41434355 
 2392      4D5F4550 
 2392      53494C4F 
 2392      4E5F5F20 
 2393              	.LASF377:
 2394 0cc4 5F5F5F69 		.ascii	"___int8_t_defined 1\000"
 2394      6E74385F 
 2394      745F6465 
 2394      66696E65 
 2394      64203100 
 2395              	.LASF77:
 2396 0cd8 5F5F5054 		.ascii	"__PTRDIFF_MAX__ 0x7fffffff\000"
 2396      52444946 
 2396      465F4D41 
 2396      585F5F20 
ARM GAS  /var/folders/z0/6xlwn_996xz3mwq1cgzkbq4r0000gp/T//ccF2sUVk.s 			page 52


 2396      30783766 
 2397              	.LASF457:
 2398 0cf3 55494E54 		.ascii	"UINT32_MAX (__UINT32_MAX__)\000"
 2398      33325F4D 
 2398      41582028 
 2398      5F5F5549 
 2398      4E543332 
 2399              	.LASF255:
 2400 0d0f 5F5F554C 		.ascii	"__ULACCUM_MAX__ 0XFFFFFFFFFFFFFFFFP-32ULK\000"
 2400      41434355 
 2400      4D5F4D41 
 2400      585F5F20 
 2400      30584646 
 2401              	.LASF205:
 2402 0d39 5F5F5546 		.ascii	"__UFRACT_MAX__ 0XFFFFP-16UR\000"
 2402      52414354 
 2402      5F4D4158 
 2402      5F5F2030 
 2402      58464646 
 2403              	.LASF190:
 2404 0d55 5F5F5346 		.ascii	"__SFRACT_MAX__ 0X7FP-7HR\000"
 2404      52414354 
 2404      5F4D4158 
 2404      5F5F2030 
 2404      58374650 
 2405              	.LASF338:
 2406 0d6e 5F5F4152 		.ascii	"__ARM_EABI__ 1\000"
 2406      4D5F4541 
 2406      42495F5F 
 2406      203100
 2407              	.LASF351:
 2408 0d7d 5F535953 		.ascii	"_SYS_FEATURES_H \000"
 2408      5F464541 
 2408      54555245 
 2408      535F4820 
 2408      00
 2409              	.LASF531:
 2410 0d8e 6C6F6E67 		.ascii	"long long unsigned int\000"
 2410      206C6F6E 
 2410      6720756E 
 2410      7369676E 
 2410      65642069 
 2411              	.LASF519:
 2412 0da5 554E5553 		.ascii	"UNUSED(x) (void)(x)\000"
 2412      45442878 
 2412      29202876 
 2412      6F696429 
 2412      28782900 
 2413              	.LASF88:
 2414 0db9 5F5F494E 		.ascii	"__INT64_MAX__ 0x7fffffffffffffffLL\000"
 2414      5436345F 
 2414      4D41585F 
 2414      5F203078 
 2414      37666666 
 2415              	.LASF85:
 2416 0ddc 5F5F494E 		.ascii	"__INT8_MAX__ 0x7f\000"
 2416      54385F4D 
ARM GAS  /var/folders/z0/6xlwn_996xz3mwq1cgzkbq4r0000gp/T//ccF2sUVk.s 			page 53


 2416      41585F5F 
 2416      20307837 
 2416      6600
 2417              	.LASF216:
 2418 0dee 5F5F554C 		.ascii	"__ULFRACT_EPSILON__ 0x1P-32ULR\000"
 2418      46524143 
 2418      545F4550 
 2418      53494C4F 
 2418      4E5F5F20 
 2419              	.LASF49:
 2420 0e0d 5F5F494E 		.ascii	"__INT_LEAST32_TYPE__ long int\000"
 2420      545F4C45 
 2420      41535433 
 2420      325F5459 
 2420      50455F5F 
 2421              	.LASF213:
 2422 0e2b 5F5F554C 		.ascii	"__ULFRACT_IBIT__ 0\000"
 2422      46524143 
 2422      545F4942 
 2422      49545F5F 
 2422      203000
 2423              	.LASF286:
 2424 0e3e 5F5F5554 		.ascii	"__UTQ_IBIT__ 0\000"
 2424      515F4942 
 2424      49545F5F 
 2424      203000
 2425              	.LASF354:
 2426 0e4d 5F5F4E45 		.ascii	"__NEWLIB__ 2\000"
 2426      574C4942 
 2426      5F5F2032 
 2426      00
 2427              	.LASF107:
 2428 0e5a 5F5F5549 		.ascii	"__UINT_LEAST64_MAX__ 0xffffffffffffffffULL\000"
 2428      4E545F4C 
 2428      45415354 
 2428      36345F4D 
 2428      41585F5F 
 2429              	.LASF123:
 2430 0e85 5F5F464C 		.ascii	"__FLT_RADIX__ 2\000"
 2430      545F5241 
 2430      4449585F 
 2430      5F203200 
 2431              	.LASF224:
 2432 0e95 5F5F554C 		.ascii	"__ULLFRACT_MIN__ 0.0ULLR\000"
 2432      4C465241 
 2432      43545F4D 
 2432      494E5F5F 
 2432      20302E30 
 2433              	.LASF151:
 2434 0eae 5F5F4442 		.ascii	"__DBL_HAS_QUIET_NAN__ 1\000"
 2434      4C5F4841 
 2434      535F5155 
 2434      4945545F 
 2434      4E414E5F 
 2435              	.LASF244:
 2436 0ec6 5F5F5541 		.ascii	"__UACCUM_MIN__ 0.0UK\000"
 2436      4343554D 
ARM GAS  /var/folders/z0/6xlwn_996xz3mwq1cgzkbq4r0000gp/T//ccF2sUVk.s 			page 54


 2436      5F4D494E 
 2436      5F5F2030 
 2436      2E30554B 
 2437              	.LASF211:
 2438 0edb 5F5F4C46 		.ascii	"__LFRACT_EPSILON__ 0x1P-31LR\000"
 2438      52414354 
 2438      5F455053 
 2438      494C4F4E 
 2438      5F5F2030 
 2439              	.LASF55:
 2440 0ef8 5F5F494E 		.ascii	"__INT_FAST8_TYPE__ int\000"
 2440      545F4641 
 2440      5354385F 
 2440      54595045 
 2440      5F5F2069 
 2441              	.LASF353:
 2442 0f0f 5F4E4557 		.ascii	"_NEWLIB_VERSION \"2.4.0\"\000"
 2442      4C49425F 
 2442      56455253 
 2442      494F4E20 
 2442      22322E34 
 2443              	.LASF453:
 2444 0f27 494E545F 		.ascii	"INT_LEAST16_MAX (__INT_LEAST16_MAX__)\000"
 2444      4C454153 
 2444      5431365F 
 2444      4D415820 
 2444      285F5F49 
 2445              	.LASF60:
 2446 0f4d 5F5F5549 		.ascii	"__UINT_FAST16_TYPE__ unsigned int\000"
 2446      4E545F46 
 2446      41535431 
 2446      365F5459 
 2446      50455F5F 
 2447              	.LASF513:
 2448 0f6f 5F424954 		.ascii	"_BITMASK\000"
 2448      4D41534B 
 2448      00
 2449              	.LASF227:
 2450 0f78 5F5F5341 		.ascii	"__SACCUM_FBIT__ 7\000"
 2450      4343554D 
 2450      5F464249 
 2450      545F5F20 
 2450      3700
 2451              	.LASF481:
 2452 0f8a 55494E54 		.ascii	"UINTMAX_MAX (__UINTMAX_MAX__)\000"
 2452      4D41585F 
 2452      4D415820 
 2452      285F5F55 
 2452      494E544D 
 2453              	.LASF325:
 2454 0fa8 5F5F4152 		.ascii	"__ARM_ARCH_PROFILE 77\000"
 2454      4D5F4152 
 2454      43485F50 
 2454      524F4649 
 2454      4C452037 
 2455              	.LASF522:
 2456 0fbe 494E4C49 		.ascii	"INLINE inline\000"
ARM GAS  /var/folders/z0/6xlwn_996xz3mwq1cgzkbq4r0000gp/T//ccF2sUVk.s 			page 55


 2456      4E452069 
 2456      6E6C696E 
 2456      6500
 2457              	.LASF177:
 2458 0fcc 5F5F4445 		.ascii	"__DEC64_MAX__ 9.999999999999999E384DD\000"
 2458      4336345F 
 2458      4D41585F 
 2458      5F20392E 
 2458      39393939 
 2459              	.LASF199:
 2460 0ff2 5F5F4652 		.ascii	"__FRACT_MIN__ (-0.5R-0.5R)\000"
 2460      4143545F 
 2460      4D494E5F 
 2460      5F20282D 
 2460      302E3552 
 2461              	.LASF313:
 2462 100d 5F5F4743 		.ascii	"__GCC_ATOMIC_INT_LOCK_FREE 1\000"
 2462      435F4154 
 2462      4F4D4943 
 2462      5F494E54 
 2462      5F4C4F43 
 2463              	.LASF79:
 2464 102a 5F5F494E 		.ascii	"__INTMAX_MAX__ 0x7fffffffffffffffLL\000"
 2464      544D4158 
 2464      5F4D4158 
 2464      5F5F2030 
 2464      78376666 
 2465              	.LASF428:
 2466 104e 5F55494E 		.ascii	"_UINT64_T_DECLARED \000"
 2466      5436345F 
 2466      545F4445 
 2466      434C4152 
 2466      45442000 
 2467              	.LASF246:
 2468 1062 5F5F5541 		.ascii	"__UACCUM_EPSILON__ 0x1P-16UK\000"
 2468      4343554D 
 2468      5F455053 
 2468      494C4F4E 
 2468      5F5F2030 
 2469              	.LASF238:
 2470 107f 5F5F4143 		.ascii	"__ACCUM_IBIT__ 16\000"
 2470      43554D5F 
 2470      49424954 
 2470      5F5F2031 
 2470      3600
 2471              	.LASF162:
 2472 1091 5F5F4C44 		.ascii	"__LDBL_DENORM_MIN__ 4.9406564584124654e-324L\000"
 2472      424C5F44 
 2472      454E4F52 
 2472      4D5F4D49 
 2472      4E5F5F20 
 2473              	.LASF228:
 2474 10be 5F5F5341 		.ascii	"__SACCUM_IBIT__ 8\000"
 2474      4343554D 
 2474      5F494249 
 2474      545F5F20 
 2474      3800
ARM GAS  /var/folders/z0/6xlwn_996xz3mwq1cgzkbq4r0000gp/T//ccF2sUVk.s 			page 56


 2475              	.LASF322:
 2476 10d0 5F5F5349 		.ascii	"__SIZEOF_PTRDIFF_T__ 4\000"
 2476      5A454F46 
 2476      5F505452 
 2476      44494646 
 2476      5F545F5F 
 2477              	.LASF189:
 2478 10e7 5F5F5346 		.ascii	"__SFRACT_MIN__ (-0.5HR-0.5HR)\000"
 2478      52414354 
 2478      5F4D494E 
 2478      5F5F2028 
 2478      2D302E35 
 2479              	.LASF298:
 2480 1105 5F5F5553 		.ascii	"__USA_IBIT__ 16\000"
 2480      415F4942 
 2480      49545F5F 
 2480      20313600 
 2481              	.LASF218:
 2482 1115 5F5F4C4C 		.ascii	"__LLFRACT_IBIT__ 0\000"
 2482      46524143 
 2482      545F4942 
 2482      49545F5F 
 2482      203000
 2483              	.LASF380:
 2484 1128 5F5F5F69 		.ascii	"___int64_t_defined 1\000"
 2484      6E743634 
 2484      5F745F64 
 2484      6566696E 
 2484      65642031 
 2485              	.LASF180:
 2486 113d 5F5F4445 		.ascii	"__DEC128_MANT_DIG__ 34\000"
 2486      43313238 
 2486      5F4D414E 
 2486      545F4449 
 2486      475F5F20 
 2487              	.LASF493:
 2488 1154 494E5431 		.ascii	"INT16_C(x) __INT16_C(x)\000"
 2488      365F4328 
 2488      7829205F 
 2488      5F494E54 
 2488      31365F43 
 2489              	.LASF349:
 2490 116c 5F535444 		.ascii	"_STDINT_H \000"
 2490      494E545F 
 2490      482000
 2491              	.LASF364:
 2492 1177 5F504F53 		.ascii	"_POSIX_C_SOURCE 200809L\000"
 2492      49585F43 
 2492      5F534F55 
 2492      52434520 
 2492      32303038 
 2493              	.LASF18:
 2494 118f 5F5F5349 		.ascii	"__SIZEOF_FLOAT__ 4\000"
 2494      5A454F46 
 2494      5F464C4F 
 2494      41545F5F 
 2494      203400
ARM GAS  /var/folders/z0/6xlwn_996xz3mwq1cgzkbq4r0000gp/T//ccF2sUVk.s 			page 57


 2495              	.LASF235:
 2496 11a2 5F5F5553 		.ascii	"__USACCUM_MAX__ 0XFFFFP-8UHK\000"
 2496      41434355 
 2496      4D5F4D41 
 2496      585F5F20 
 2496      30584646 
 2497              	.LASF106:
 2498 11bf 5F5F5549 		.ascii	"__UINT32_C(c) c ## UL\000"
 2498      4E543332 
 2498      5F432863 
 2498      29206320 
 2498      23232055 
 2499              	.LASF299:
 2500 11d5 5F5F5544 		.ascii	"__UDA_FBIT__ 32\000"
 2500      415F4642 
 2500      49545F5F 
 2500      20333200 
 2501              	.LASF516:
 2502 11e5 4E454C45 		.ascii	"NELEMENTS(array) (sizeof(array) / sizeof(array[0]))"
 2502      4D454E54 
 2502      53286172 
 2502      72617929 
 2502      20287369 
 2503 1218 00       		.ascii	"\000"
 2504              	.LASF2:
 2505 1219 5F5F474E 		.ascii	"__GNUC__ 5\000"
 2505      55435F5F 
 2505      203500
 2506              	.LASF347:
 2507 1224 5F555449 		.ascii	"_UTIL_H_ \000"
 2507      4C5F485F 
 2507      2000
 2508              	.LASF502:
 2509 122e 5F535444 		.ascii	"_STDBOOL_H \000"
 2509      424F4F4C 
 2509      5F482000 
 2510              	.LASF451:
 2511 123a 55494E54 		.ascii	"UINT16_MAX (__UINT16_MAX__)\000"
 2511      31365F4D 
 2511      41582028 
 2511      5F5F5549 
 2511      4E543136 
 2512              	.LASF332:
 2513 1256 5F5F5448 		.ascii	"__THUMBEL__ 1\000"
 2513      554D4245 
 2513      4C5F5F20 
 2513      3100
 2514              	.LASF429:
 2515 1264 5F5F696E 		.ascii	"__int64_t_defined 1\000"
 2515      7436345F 
 2515      745F6465 
 2515      66696E65 
 2515      64203100 
 2516              	.LASF459:
 2517 1278 494E545F 		.ascii	"INT_LEAST32_MAX (__INT_LEAST32_MAX__)\000"
 2517      4C454153 
 2517      5433325F 
ARM GAS  /var/folders/z0/6xlwn_996xz3mwq1cgzkbq4r0000gp/T//ccF2sUVk.s 			page 58


 2517      4D415820 
 2517      285F5F49 
 2518              	.LASF292:
 2519 129e 5F5F4441 		.ascii	"__DA_IBIT__ 32\000"
 2519      5F494249 
 2519      545F5F20 
 2519      333200
 2520              	.LASF23:
 2521 12ad 5F5F4249 		.ascii	"__BIGGEST_ALIGNMENT__ 8\000"
 2521      47474553 
 2521      545F414C 
 2521      49474E4D 
 2521      454E545F 
 2522              	.LASF248:
 2523 12c5 5F5F4C41 		.ascii	"__LACCUM_IBIT__ 32\000"
 2523      4343554D 
 2523      5F494249 
 2523      545F5F20 
 2523      333200
 2524              	.LASF533:
 2525 12d8 5F426F6F 		.ascii	"_Bool\000"
 2525      6C00
 2526              	.LASF113:
 2527 12de 5F5F5549 		.ascii	"__UINT_FAST8_MAX__ 0xffffffffU\000"
 2527      4E545F46 
 2527      41535438 
 2527      5F4D4158 
 2527      5F5F2030 
 2528              	.LASF24:
 2529 12fd 5F5F4F52 		.ascii	"__ORDER_LITTLE_ENDIAN__ 1234\000"
 2529      4445525F 
 2529      4C495454 
 2529      4C455F45 
 2529      4E444941 
 2530              	.LASF259:
 2531 131a 5F5F4C4C 		.ascii	"__LLACCUM_MIN__ (-0X1P31LLK-0X1P31LLK)\000"
 2531      41434355 
 2531      4D5F4D49 
 2531      4E5F5F20 
 2531      282D3058 
 2532              	.LASF12:
 2533 1341 5F5F4F50 		.ascii	"__OPTIMIZE__ 1\000"
 2533      54494D49 
 2533      5A455F5F 
 2533      203100
 2534              	.LASF289:
 2535 1350 5F5F5341 		.ascii	"__SA_FBIT__ 15\000"
 2535      5F464249 
 2535      545F5F20 
 2535      313500
 2536              	.LASF67:
 2537 135f 5F5F4758 		.ascii	"__GXX_ABI_VERSION 1009\000"
 2537      585F4142 
 2537      495F5645 
 2537      5253494F 
 2537      4E203130 
 2538              	.LASF360:
ARM GAS  /var/folders/z0/6xlwn_996xz3mwq1cgzkbq4r0000gp/T//ccF2sUVk.s 			page 59


 2539 1376 5F444546 		.ascii	"_DEFAULT_SOURCE 1\000"
 2539      41554C54 
 2539      5F534F55 
 2539      52434520 
 2539      3100
 2540              	.LASF231:
 2541 1388 5F5F5341 		.ascii	"__SACCUM_EPSILON__ 0x1P-7HK\000"
 2541      4343554D 
 2541      5F455053 
 2541      494C4F4E 
 2541      5F5F2030 
 2542              	.LASF379:
 2543 13a4 5F5F5F69 		.ascii	"___int32_t_defined 1\000"
 2543      6E743332 
 2543      5F745F64 
 2543      6566696E 
 2543      65642031 
 2544              	.LASF56:
 2545 13b9 5F5F494E 		.ascii	"__INT_FAST16_TYPE__ int\000"
 2545      545F4641 
 2545      53543136 
 2545      5F545950 
 2545      455F5F20 
 2546              	.LASF369:
 2547 13d1 5F5F474E 		.ascii	"__GNU_VISIBLE 0\000"
 2547      555F5649 
 2547      5349424C 
 2547      45203000 
 2548              	.LASF444:
 2549 13e1 494E5438 		.ascii	"INT8_MAX (__INT8_MAX__)\000"
 2549      5F4D4158 
 2549      20285F5F 
 2549      494E5438 
 2549      5F4D4158 
 2550              	.LASF521:
 2551 13f9 4D494E28 		.ascii	"MIN(a,b) (((a) < (b)) ? (a) : (b))\000"
 2551      612C6229 
 2551      20282828 
 2551      6129203C 
 2551      20286229 
 2552              	.LASF44:
 2553 141c 5F5F5549 		.ascii	"__UINT16_TYPE__ short unsigned int\000"
 2553      4E543136 
 2553      5F545950 
 2553      455F5F20 
 2553      73686F72 
 2554              	.LASF308:
 2555 143f 5F5F4743 		.ascii	"__GCC_ATOMIC_CHAR_LOCK_FREE 1\000"
 2555      435F4154 
 2555      4F4D4943 
 2555      5F434841 
 2555      525F4C4F 
 2556              	.LASF280:
 2557 145d 5F5F5548 		.ascii	"__UHQ_IBIT__ 0\000"
 2557      515F4942 
 2557      49545F5F 
 2557      203000
ARM GAS  /var/folders/z0/6xlwn_996xz3mwq1cgzkbq4r0000gp/T//ccF2sUVk.s 			page 60


 2558              	.LASF202:
 2559 146c 5F5F5546 		.ascii	"__UFRACT_FBIT__ 16\000"
 2559      52414354 
 2559      5F464249 
 2559      545F5F20 
 2559      313600
 2560              	.LASF452:
 2561 147f 494E545F 		.ascii	"INT_LEAST16_MIN (-__INT_LEAST16_MAX__ - 1)\000"
 2561      4C454153 
 2561      5431365F 
 2561      4D494E20 
 2561      282D5F5F 
 2562              	.LASF72:
 2563 14aa 5F5F4C4F 		.ascii	"__LONG_LONG_MAX__ 0x7fffffffffffffffLL\000"
 2563      4E475F4C 
 2563      4F4E475F 
 2563      4D41585F 
 2563      5F203078 
 2564              	.LASF412:
 2565 14d1 5F5F4641 		.ascii	"__FAST64 \"ll\"\000"
 2565      53543634 
 2565      20226C6C 
 2565      2200
 2566              	.LASF52:
 2567 14df 5F5F5549 		.ascii	"__UINT_LEAST16_TYPE__ short unsigned int\000"
 2567      4E545F4C 
 2567      45415354 
 2567      31365F54 
 2567      5950455F 
 2568              	.LASF129:
 2569 1508 5F5F464C 		.ascii	"__FLT_MAX_10_EXP__ 38\000"
 2569      545F4D41 
 2569      585F3130 
 2569      5F455850 
 2569      5F5F2033 
 2570              	.LASF410:
 2571 151e 5F5F4641 		.ascii	"__FAST16 \000"
 2571      53543136 
 2571      2000
 2572              	.LASF260:
 2573 1528 5F5F4C4C 		.ascii	"__LLACCUM_MAX__ 0X7FFFFFFFFFFFFFFFP-31LLK\000"
 2573      41434355 
 2573      4D5F4D41 
 2573      585F5F20 
 2573      30583746 
 2574              	.LASF261:
 2575 1552 5F5F4C4C 		.ascii	"__LLACCUM_EPSILON__ 0x1P-31LLK\000"
 2575      41434355 
 2575      4D5F4550 
 2575      53494C4F 
 2575      4E5F5F20 
 2576              	.LASF393:
 2577 1571 73686F72 		.ascii	"short\000"
 2577      7400
 2578              	.LASF491:
 2579 1577 494E5438 		.ascii	"INT8_C(x) __INT8_C(x)\000"
 2579      5F432878 
ARM GAS  /var/folders/z0/6xlwn_996xz3mwq1cgzkbq4r0000gp/T//ccF2sUVk.s 			page 61


 2579      29205F5F 
 2579      494E5438 
 2579      5F432878 
 2580              	.LASF181:
 2581 158d 5F5F4445 		.ascii	"__DEC128_MIN_EXP__ (-6142)\000"
 2581      43313238 
 2581      5F4D494E 
 2581      5F455850 
 2581      5F5F2028 
 2582              	.LASF5:
 2583 15a8 5F5F5645 		.ascii	"__VERSION__ \"5.4.1 20160919 (release) [ARM/embedde"
 2583      5253494F 
 2583      4E5F5F20 
 2583      22352E34 
 2583      2E312032 
 2584 15da 642D352D 		.ascii	"d-5-branch revision 240496]\"\000"
 2584      6272616E 
 2584      63682072 
 2584      65766973 
 2584      696F6E20 
 2585              	.LASF214:
 2586 15f7 5F5F554C 		.ascii	"__ULFRACT_MIN__ 0.0ULR\000"
 2586      46524143 
 2586      545F4D49 
 2586      4E5F5F20 
 2586      302E3055 
 2587              	.LASF124:
 2588 160e 5F5F464C 		.ascii	"__FLT_MANT_DIG__ 24\000"
 2588      545F4D41 
 2588      4E545F44 
 2588      49475F5F 
 2588      20323400 
 2589              	.LASF408:
 2590 1622 5F5F494E 		.ascii	"__INT64 \"ll\"\000"
 2590      54363420 
 2590      226C6C22 
 2590      00
 2591              	.LASF282:
 2592 162f 5F5F5553 		.ascii	"__USQ_IBIT__ 0\000"
 2592      515F4942 
 2592      49545F5F 
 2592      203000
 2593              	.LASF467:
 2594 163e 494E545F 		.ascii	"INT_FAST8_MIN (-__INT_FAST8_MAX__ - 1)\000"
 2594      46415354 
 2594      385F4D49 
 2594      4E20282D 
 2594      5F5F494E 
 2595              	.LASF243:
 2596 1665 5F5F5541 		.ascii	"__UACCUM_IBIT__ 16\000"
 2596      4343554D 
 2596      5F494249 
 2596      545F5F20 
 2596      313600
 2597              	.LASF114:
 2598 1678 5F5F5549 		.ascii	"__UINT_FAST16_MAX__ 0xffffffffU\000"
 2598      4E545F46 
ARM GAS  /var/folders/z0/6xlwn_996xz3mwq1cgzkbq4r0000gp/T//ccF2sUVk.s 			page 62


 2598      41535431 
 2598      365F4D41 
 2598      585F5F20 
 2599              	.LASF141:
 2600 1698 5F5F4442 		.ascii	"__DBL_MIN_10_EXP__ (-307)\000"
 2600      4C5F4D49 
 2600      4E5F3130 
 2600      5F455850 
 2600      5F5F2028 
 2601              	.LASF233:
 2602 16b2 5F5F5553 		.ascii	"__USACCUM_IBIT__ 8\000"
 2602      41434355 
 2602      4D5F4942 
 2602      49545F5F 
 2602      203800
 2603              	.LASF356:
 2604 16c5 5F5F4E45 		.ascii	"__NEWLIB_PATCHLEVEL__ 0\000"
 2604      574C4942 
 2604      5F504154 
 2604      43484C45 
 2604      56454C5F 
 2605              	.LASF518:
 2606 16dd 45585445 		.ascii	"EXTERN extern\000"
 2606      524E2065 
 2606      78746572 
 2606      6E00
 2607              	.LASF335:
 2608 16eb 5F5F5448 		.ascii	"__THUMB_INTERWORK__ 1\000"
 2608      554D425F 
 2608      494E5445 
 2608      52574F52 
 2608      4B5F5F20 
 2609              	.LASF197:
 2610 1701 5F5F4652 		.ascii	"__FRACT_FBIT__ 15\000"
 2610      4143545F 
 2610      46424954 
 2610      5F5F2031 
 2610      3500
 2611              	.LASF384:
 2612 1713 5F5F5F69 		.ascii	"___int_least64_t_defined 1\000"
 2612      6E745F6C 
 2612      65617374 
 2612      36345F74 
 2612      5F646566 
 2613              	.LASF121:
 2614 172e 5F5F464C 		.ascii	"__FLT_EVAL_METHOD__ 0\000"
 2614      545F4556 
 2614      414C5F4D 
 2614      4554484F 
 2614      445F5F20 
 2615              	.LASF473:
 2616 1744 494E545F 		.ascii	"INT_FAST32_MIN (-__INT_FAST32_MAX__ - 1)\000"
 2616      46415354 
 2616      33325F4D 
 2616      494E2028 
 2616      2D5F5F49 
 2617              	.LASF509:
ARM GAS  /var/folders/z0/6xlwn_996xz3mwq1cgzkbq4r0000gp/T//ccF2sUVk.s 			page 63


 2618 176d 5F424954 		.ascii	"_BIT\000"
 2618      00
 2619              	.LASF99:
 2620 1772 5F5F494E 		.ascii	"__INT_LEAST64_MAX__ 0x7fffffffffffffffLL\000"
 2620      545F4C45 
 2620      41535436 
 2620      345F4D41 
 2620      585F5F20 
 2621              	.LASF237:
 2622 179b 5F5F4143 		.ascii	"__ACCUM_FBIT__ 15\000"
 2622      43554D5F 
 2622      46424954 
 2622      5F5F2031 
 2622      3500
 2623              	.LASF311:
 2624 17ad 5F5F4743 		.ascii	"__GCC_ATOMIC_WCHAR_T_LOCK_FREE 1\000"
 2624      435F4154 
 2624      4F4D4943 
 2624      5F574348 
 2624      41525F54 
 2625              	.LASF174:
 2626 17ce 5F5F4445 		.ascii	"__DEC64_MIN_EXP__ (-382)\000"
 2626      4336345F 
 2626      4D494E5F 
 2626      4558505F 
 2626      5F20282D 
 2627              	.LASF253:
 2628 17e7 5F5F554C 		.ascii	"__ULACCUM_IBIT__ 32\000"
 2628      41434355 
 2628      4D5F4942 
 2628      49545F5F 
 2628      20333200 
 2629              	.LASF488:
 2630 17fb 57434841 		.ascii	"WCHAR_MAX (__WCHAR_MAX__)\000"
 2630      525F4D41 
 2630      5820285F 
 2630      5F574348 
 2630      41525F4D 
 2631              	.LASF217:
 2632 1815 5F5F4C4C 		.ascii	"__LLFRACT_FBIT__ 63\000"
 2632      46524143 
 2632      545F4642 
 2632      49545F5F 
 2632      20363300 
 2633              	.LASF414:
 2634 1829 5F5F4C45 		.ascii	"__LEAST16 \"h\"\000"
 2634      41535431 
 2634      36202268 
 2634      2200
 2635              	.LASF297:
 2636 1837 5F5F5553 		.ascii	"__USA_FBIT__ 16\000"
 2636      415F4642 
 2636      49545F5F 
 2636      20313600 
 2637              	.LASF89:
 2638 1847 5F5F5549 		.ascii	"__UINT8_MAX__ 0xff\000"
 2638      4E54385F 
ARM GAS  /var/folders/z0/6xlwn_996xz3mwq1cgzkbq4r0000gp/T//ccF2sUVk.s 			page 64


 2638      4D41585F 
 2638      5F203078 
 2638      666600
 2639              	.LASF90:
 2640 185a 5F5F5549 		.ascii	"__UINT16_MAX__ 0xffff\000"
 2640      4E543136 
 2640      5F4D4158 
 2640      5F5F2030 
 2640      78666666 
 2641              	.LASF458:
 2642 1870 494E545F 		.ascii	"INT_LEAST32_MIN (-__INT_LEAST32_MAX__ - 1)\000"
 2642      4C454153 
 2642      5433325F 
 2642      4D494E20 
 2642      282D5F5F 
 2643              	.LASF463:
 2644 189b 55494E54 		.ascii	"UINT64_MAX (__UINT64_MAX__)\000"
 2644      36345F4D 
 2644      41582028 
 2644      5F5F5549 
 2644      4E543634 
 2645              	.LASF382:
 2646 18b7 5F5F5F69 		.ascii	"___int_least16_t_defined 1\000"
 2646      6E745F6C 
 2646      65617374 
 2646      31365F74 
 2646      5F646566 
 2647              	.LASF170:
 2648 18d2 5F5F4445 		.ascii	"__DEC32_MAX__ 9.999999E96DF\000"
 2648      4333325F 
 2648      4D41585F 
 2648      5F20392E 
 2648      39393939 
 2649              	.LASF119:
 2650 18ee 5F5F4743 		.ascii	"__GCC_IEC_559 0\000"
 2650      435F4945 
 2650      435F3535 
 2650      39203000 
 2651              	.LASF448:
 2652 18fe 55494E54 		.ascii	"UINT_LEAST8_MAX (__UINT_LEAST8_MAX__)\000"
 2652      5F4C4541 
 2652      5354385F 
 2652      4D415820 
 2652      285F5F55 
 2653              	.LASF48:
 2654 1924 5F5F494E 		.ascii	"__INT_LEAST16_TYPE__ short int\000"
 2654      545F4C45 
 2654      41535431 
 2654      365F5459 
 2654      50455F5F 
 2655              	.LASF207:
 2656 1943 5F5F4C46 		.ascii	"__LFRACT_FBIT__ 31\000"
 2656      52414354 
 2656      5F464249 
 2656      545F5F20 
 2656      333100
 2657              	.LASF538:
ARM GAS  /var/folders/z0/6xlwn_996xz3mwq1cgzkbq4r0000gp/T//ccF2sUVk.s 			page 65


 2658 1956 5F5F7265 		.ascii	"__reverse\000"
 2658      76657273 
 2658      6500
 2659              	.LASF139:
 2660 1960 5F5F4442 		.ascii	"__DBL_DIG__ 15\000"
 2660      4C5F4449 
 2660      475F5F20 
 2660      313500
 2661              	.LASF383:
 2662 196f 5F5F5F69 		.ascii	"___int_least32_t_defined 1\000"
 2662      6E745F6C 
 2662      65617374 
 2662      33325F74 
 2662      5F646566 
 2663              	.LASF247:
 2664 198a 5F5F4C41 		.ascii	"__LACCUM_FBIT__ 31\000"
 2664      4343554D 
 2664      5F464249 
 2664      545F5F20 
 2664      333100
 2665              	.LASF378:
 2666 199d 5F5F5F69 		.ascii	"___int16_t_defined 1\000"
 2666      6E743136 
 2666      5F745F64 
 2666      6566696E 
 2666      65642031 
 2667              	.LASF206:
 2668 19b2 5F5F5546 		.ascii	"__UFRACT_EPSILON__ 0x1P-16UR\000"
 2668      52414354 
 2668      5F455053 
 2668      494C4F4E 
 2668      5F5F2030 
 2669              	.LASF314:
 2670 19cf 5F5F4743 		.ascii	"__GCC_ATOMIC_LONG_LOCK_FREE 1\000"
 2670      435F4154 
 2670      4F4D4943 
 2670      5F4C4F4E 
 2670      475F4C4F 
 2671              	.LASF241:
 2672 19ed 5F5F4143 		.ascii	"__ACCUM_EPSILON__ 0x1P-15K\000"
 2672      43554D5F 
 2672      45505349 
 2672      4C4F4E5F 
 2672      5F203078 
 2673              	.LASF283:
 2674 1a08 5F5F5544 		.ascii	"__UDQ_FBIT__ 64\000"
 2674      515F4642 
 2674      49545F5F 
 2674      20363400 
 2675              	.LASF350:
 2676 1a18 5F4D4143 		.ascii	"_MACHINE__DEFAULT_TYPES_H \000"
 2676      48494E45 
 2676      5F5F4445 
 2676      4641554C 
 2676      545F5459 
 2677              	.LASF288:
 2678 1a33 5F5F4841 		.ascii	"__HA_IBIT__ 8\000"
ARM GAS  /var/folders/z0/6xlwn_996xz3mwq1cgzkbq4r0000gp/T//ccF2sUVk.s 			page 66


 2678      5F494249 
 2678      545F5F20 
 2678      3800
 2679              	.LASF330:
 2680 1a41 5F5F4152 		.ascii	"__ARM_ARCH_ISA_THUMB 1\000"
 2680      4D5F4152 
 2680      43485F49 
 2680      53415F54 
 2680      48554D42 
 2681              	.LASF494:
 2682 1a58 55494E54 		.ascii	"UINT16_C(x) __UINT16_C(x)\000"
 2682      31365F43 
 2682      28782920 
 2682      5F5F5549 
 2682      4E543136 
 2683              	.LASF285:
 2684 1a72 5F5F5554 		.ascii	"__UTQ_FBIT__ 128\000"
 2684      515F4642 
 2684      49545F5F 
 2684      20313238 
 2684      00
 2685              	.LASF530:
 2686 1a83 6C6F6E67 		.ascii	"long long int\000"
 2686      206C6F6E 
 2686      6720696E 
 2686      7400
 2687              	.LASF22:
 2688 1a91 5F5F4348 		.ascii	"__CHAR_BIT__ 8\000"
 2688      41525F42 
 2688      49545F5F 
 2688      203800
 2689              	.LASF47:
 2690 1aa0 5F5F494E 		.ascii	"__INT_LEAST8_TYPE__ signed char\000"
 2690      545F4C45 
 2690      41535438 
 2690      5F545950 
 2690      455F5F20 
 2691              	.LASF435:
 2692 1ac0 5F5F696E 		.ascii	"__int_least64_t_defined 1\000"
 2692      745F6C65 
 2692      61737436 
 2692      345F745F 
 2692      64656669 
 2693              	.LASF307:
 2694 1ada 5F5F4743 		.ascii	"__GCC_ATOMIC_BOOL_LOCK_FREE 1\000"
 2694      435F4154 
 2694      4F4D4943 
 2694      5F424F4F 
 2694      4C5F4C4F 
 2695              	.LASF51:
 2696 1af8 5F5F5549 		.ascii	"__UINT_LEAST8_TYPE__ unsigned char\000"
 2696      4E545F4C 
 2696      45415354 
 2696      385F5459 
 2696      50455F5F 
 2697              	.LASF159:
 2698 1b1b 5F5F4C44 		.ascii	"__LDBL_MAX__ 1.7976931348623157e+308L\000"
ARM GAS  /var/folders/z0/6xlwn_996xz3mwq1cgzkbq4r0000gp/T//ccF2sUVk.s 			page 67


 2698      424C5F4D 
 2698      41585F5F 
 2698      20312E37 
 2698      39373639 
 2699              	.LASF13:
 2700 1b41 5F5F4649 		.ascii	"__FINITE_MATH_ONLY__ 0\000"
 2700      4E495445 
 2700      5F4D4154 
 2700      485F4F4E 
 2700      4C595F5F 
 2701              	.LASF230:
 2702 1b58 5F5F5341 		.ascii	"__SACCUM_MAX__ 0X7FFFP-7HK\000"
 2702      4343554D 
 2702      5F4D4158 
 2702      5F5F2030 
 2702      58374646 
 2703              	.LASF326:
 2704 1b73 5F5F6172 		.ascii	"__arm__ 1\000"
 2704      6D5F5F20 
 2704      3100
 2705              	.LASF152:
 2706 1b7d 5F5F4C44 		.ascii	"__LDBL_MANT_DIG__ 53\000"
 2706      424C5F4D 
 2706      414E545F 
 2706      4449475F 
 2706      5F203533 
 2707              	.LASF276:
 2708 1b92 5F5F5451 		.ascii	"__TQ_IBIT__ 0\000"
 2708      5F494249 
 2708      545F5F20 
 2708      3000
 2709              	.LASF295:
 2710 1ba0 5F5F5548 		.ascii	"__UHA_FBIT__ 8\000"
 2710      415F4642 
 2710      49545F5F 
 2710      203800
 2711              	.LASF374:
 2712 1baf 5F5F5356 		.ascii	"__SVID_VISIBLE 1\000"
 2712      49445F56 
 2712      49534942 
 2712      4C452031 
 2712      00
 2713              	.LASF492:
 2714 1bc0 55494E54 		.ascii	"UINT8_C(x) __UINT8_C(x)\000"
 2714      385F4328 
 2714      7829205F 
 2714      5F55494E 
 2714      54385F43 
 2715              	.LASF340:
 2716 1bd8 5F5F454C 		.ascii	"__ELF__ 1\000"
 2716      465F5F20 
 2716      3100
 2717              	.LASF316:
 2718 1be2 5F5F4743 		.ascii	"__GCC_ATOMIC_TEST_AND_SET_TRUEVAL 1\000"
 2718      435F4154 
 2718      4F4D4943 
 2718      5F544553 
ARM GAS  /var/folders/z0/6xlwn_996xz3mwq1cgzkbq4r0000gp/T//ccF2sUVk.s 			page 68


 2718      545F414E 
 2719              	.LASF318:
 2720 1c06 5F5F4743 		.ascii	"__GCC_HAVE_DWARF2_CFI_ASM 1\000"
 2720      435F4841 
 2720      56455F44 
 2720      57415246 
 2720      325F4346 
 2721              	.LASF92:
 2722 1c22 5F5F5549 		.ascii	"__UINT64_MAX__ 0xffffffffffffffffULL\000"
 2722      4E543634 
 2722      5F4D4158 
 2722      5F5F2030 
 2722      78666666 
 2723              	.LASF250:
 2724 1c47 5F5F4C41 		.ascii	"__LACCUM_MAX__ 0X7FFFFFFFFFFFFFFFP-31LK\000"
 2724      4343554D 
 2724      5F4D4158 
 2724      5F5F2030 
 2724      58374646 
 2725              	.LASF111:
 2726 1c6f 5F5F494E 		.ascii	"__INT_FAST32_MAX__ 0x7fffffff\000"
 2726      545F4641 
 2726      53543332 
 2726      5F4D4158 
 2726      5F5F2030 
 2727              	.LASF523:
 2728 1c8d 41525241 		.ascii	"ARRAY_SIZE(foo) (sizeof(foo)/sizeof(foo[0]))\000"
 2728      595F5349 
 2728      5A452866 
 2728      6F6F2920 
 2728      2873697A 
 2729              	.LASF8:
 2730 1cba 5F5F4154 		.ascii	"__ATOMIC_ACQUIRE 2\000"
 2730      4F4D4943 
 2730      5F414351 
 2730      55495245 
 2730      203200
 2731              	.LASF433:
 2732 1ccd 5F5F696E 		.ascii	"__int_least16_t_defined 1\000"
 2732      745F6C65 
 2732      61737431 
 2732      365F745F 
 2732      64656669 
 2733              	.LASF455:
 2734 1ce7 494E5433 		.ascii	"INT32_MIN (-__INT32_MAX__ - 1)\000"
 2734      325F4D49 
 2734      4E20282D 
 2734      5F5F494E 
 2734      5433325F 
 2735              	.LASF438:
 2736 1d06 5F5F696E 		.ascii	"__int_fast32_t_defined 1\000"
 2736      745F6661 
 2736      73743332 
 2736      5F745F64 
 2736      6566696E 
 2737              	.LASF0:
 2738 1d1f 5F5F5354 		.ascii	"__STDC__ 1\000"
ARM GAS  /var/folders/z0/6xlwn_996xz3mwq1cgzkbq4r0000gp/T//ccF2sUVk.s 			page 69


 2738      44435F5F 
 2738      203100
 2739              	.LASF388:
 2740 1d2a 5F5F6861 		.ascii	"__have_longlong64 1\000"
 2740      76655F6C 
 2740      6F6E676C 
 2740      6F6E6736 
 2740      34203100 
 2741              	.LASF242:
 2742 1d3e 5F5F5541 		.ascii	"__UACCUM_FBIT__ 16\000"
 2742      4343554D 
 2742      5F464249 
 2742      545F5F20 
 2742      313600
 2743              	.LASF400:
 2744 1d51 5F5F696E 		.ascii	"__int20 +2\000"
 2744      74323020 
 2744      2B3200
 2745              	.LASF142:
 2746 1d5c 5F5F4442 		.ascii	"__DBL_MAX_EXP__ 1024\000"
 2746      4C5F4D41 
 2746      585F4558 
 2746      505F5F20 
 2746      31303234 
 2747              	.LASF483:
 2748 1d71 5349475F 		.ascii	"SIG_ATOMIC_MIN (-__STDINT_EXP(INT_MAX) - 1)\000"
 2748      41544F4D 
 2748      49435F4D 
 2748      494E2028 
 2748      2D5F5F53 
 2749              	.LASF11:
 2750 1d9d 5F5F4154 		.ascii	"__ATOMIC_CONSUME 1\000"
 2750      4F4D4943 
 2750      5F434F4E 
 2750      53554D45 
 2750      203100
 2751              	.LASF434:
 2752 1db0 5F5F696E 		.ascii	"__int_least32_t_defined 1\000"
 2752      745F6C65 
 2752      61737433 
 2752      325F745F 
 2752      64656669 
 2753              	.LASF470:
 2754 1dca 494E545F 		.ascii	"INT_FAST16_MIN (-__INT_FAST16_MAX__ - 1)\000"
 2754      46415354 
 2754      31365F4D 
 2754      494E2028 
 2754      2D5F5F49 
 2755              	.LASF33:
 2756 1df3 5F5F5749 		.ascii	"__WINT_TYPE__ unsigned int\000"
 2756      4E545F54 
 2756      5950455F 
 2756      5F20756E 
 2756      7369676E 
 2757              	.LASF71:
 2758 1e0e 5F5F4C4F 		.ascii	"__LONG_MAX__ 0x7fffffffL\000"
 2758      4E475F4D 
ARM GAS  /var/folders/z0/6xlwn_996xz3mwq1cgzkbq4r0000gp/T//ccF2sUVk.s 			page 70


 2758      41585F5F 
 2758      20307837 
 2758      66666666 
 2759              	.LASF86:
 2760 1e27 5F5F494E 		.ascii	"__INT16_MAX__ 0x7fff\000"
 2760      5431365F 
 2760      4D41585F 
 2760      5F203078 
 2760      37666666 
 2761              	.LASF212:
 2762 1e3c 5F5F554C 		.ascii	"__ULFRACT_FBIT__ 32\000"
 2762      46524143 
 2762      545F4642 
 2762      49545F5F 
 2762      20333200 
 2763              	.LASF32:
 2764 1e50 5F5F5743 		.ascii	"__WCHAR_TYPE__ unsigned int\000"
 2764      4841525F 
 2764      54595045 
 2764      5F5F2075 
 2764      6E736967 
 2765              	.LASF520:
 2766 1e6c 4D415828 		.ascii	"MAX(a,b) (((a) > (b)) ? (a) : (b))\000"
 2766      612C6229 
 2766      20282828 
 2766      6129203E 
 2766      20286229 
 2767              	.LASF239:
 2768 1e8f 5F5F4143 		.ascii	"__ACCUM_MIN__ (-0X1P15K-0X1P15K)\000"
 2768      43554D5F 
 2768      4D494E5F 
 2768      5F20282D 
 2768      30583150 
 2769              	.LASF19:
 2770 1eb0 5F5F5349 		.ascii	"__SIZEOF_DOUBLE__ 8\000"
 2770      5A454F46 
 2770      5F444F55 
 2770      424C455F 
 2770      5F203800 
 2771              	.LASF4:
 2772 1ec4 5F5F474E 		.ascii	"__GNUC_PATCHLEVEL__ 1\000"
 2772      55435F50 
 2772      41544348 
 2772      4C455645 
 2772      4C5F5F20 
 2773              	.LASF339:
 2774 1eda 5F5F4758 		.ascii	"__GXX_TYPEINFO_EQUALITY_INLINE 0\000"
 2774      585F5459 
 2774      5045494E 
 2774      464F5F45 
 2774      5155414C 
 2775              	.LASF200:
 2776 1efb 5F5F4652 		.ascii	"__FRACT_MAX__ 0X7FFFP-15R\000"
 2776      4143545F 
 2776      4D41585F 
 2776      5F203058 
 2776      37464646 
ARM GAS  /var/folders/z0/6xlwn_996xz3mwq1cgzkbq4r0000gp/T//ccF2sUVk.s 			page 71


 2777              	.LASF42:
 2778 1f15 5F5F494E 		.ascii	"__INT64_TYPE__ long long int\000"
 2778      5436345F 
 2778      54595045 
 2778      5F5F206C 
 2778      6F6E6720 
 2779              	.LASF252:
 2780 1f32 5F5F554C 		.ascii	"__ULACCUM_FBIT__ 32\000"
 2780      41434355 
 2780      4D5F4642 
 2780      49545F5F 
 2780      20333200 
 2781              	.LASF442:
 2782 1f46 55494E54 		.ascii	"UINTPTR_MAX (__UINTPTR_MAX__)\000"
 2782      5054525F 
 2782      4D415820 
 2782      285F5F55 
 2782      494E5450 
 2783              	.LASF204:
 2784 1f64 5F5F5546 		.ascii	"__UFRACT_MIN__ 0.0UR\000"
 2784      52414354 
 2784      5F4D494E 
 2784      5F5F2030 
 2784      2E305552 
 2785              	.LASF405:
 2786 1f79 5F5F494E 		.ascii	"__INT8 \"hh\"\000"
 2786      54382022 
 2786      68682200 
 2787              	.LASF421:
 2788 1f85 5F494E54 		.ascii	"_INT16_T_DECLARED \000"
 2788      31365F54 
 2788      5F444543 
 2788      4C415245 
 2788      442000
 2789              	.LASF496:
 2790 1f98 55494E54 		.ascii	"UINT32_C(x) __UINT32_C(x)\000"
 2790      33325F43 
 2790      28782920 
 2790      5F5F5549 
 2790      4E543332 
 2791              	.LASF198:
 2792 1fb2 5F5F4652 		.ascii	"__FRACT_IBIT__ 0\000"
 2792      4143545F 
 2792      49424954 
 2792      5F5F2030 
 2792      00
 2793              	.LASF160:
 2794 1fc3 5F5F4C44 		.ascii	"__LDBL_MIN__ 2.2250738585072014e-308L\000"
 2794      424C5F4D 
 2794      494E5F5F 
 2794      20322E32 
 2794      32353037 
 2795              	.LASF164:
 2796 1fe9 5F5F4C44 		.ascii	"__LDBL_HAS_INFINITY__ 1\000"
 2796      424C5F48 
 2796      41535F49 
 2796      4E46494E 
ARM GAS  /var/folders/z0/6xlwn_996xz3mwq1cgzkbq4r0000gp/T//ccF2sUVk.s 			page 72


 2796      4954595F 
 2797              	.LASF120:
 2798 2001 5F5F4743 		.ascii	"__GCC_IEC_559_COMPLEX 0\000"
 2798      435F4945 
 2798      435F3535 
 2798      395F434F 
 2798      4D504C45 
 2799              	.LASF91:
 2800 2019 5F5F5549 		.ascii	"__UINT32_MAX__ 0xffffffffUL\000"
 2800      4E543332 
 2800      5F4D4158 
 2800      5F5F2030 
 2800      78666666 
 2801              	.LASF515:
 2802 2035 4E554C4C 		.ascii	"NULL ((void *) 0)\000"
 2802      20282876 
 2802      6F696420 
 2802      2A292030 
 2802      2900
 2803              	.LASF154:
 2804 2047 5F5F4C44 		.ascii	"__LDBL_MIN_EXP__ (-1021)\000"
 2804      424C5F4D 
 2804      494E5F45 
 2804      58505F5F 
 2804      20282D31 
 2805              	.LASF222:
 2806 2060 5F5F554C 		.ascii	"__ULLFRACT_FBIT__ 64\000"
 2806      4C465241 
 2806      43545F46 
 2806      4249545F 
 2806      5F203634 
 2807              	.LASF320:
 2808 2075 5F5F5349 		.ascii	"__SIZEOF_WCHAR_T__ 4\000"
 2808      5A454F46 
 2808      5F574348 
 2808      41525F54 
 2808      5F5F2034 
 2809              	.LASF132:
 2810 208a 5F5F464C 		.ascii	"__FLT_MIN__ 1.1754943508222875e-38F\000"
 2810      545F4D49 
 2810      4E5F5F20 
 2810      312E3137 
 2810      35343934 
 2811              	.LASF28:
 2812 20ae 5F5F464C 		.ascii	"__FLOAT_WORD_ORDER__ __ORDER_LITTLE_ENDIAN__\000"
 2812      4F41545F 
 2812      574F5244 
 2812      5F4F5244 
 2812      45525F5F 
 2813              	.LASF240:
 2814 20db 5F5F4143 		.ascii	"__ACCUM_MAX__ 0X7FFFFFFFP-15K\000"
 2814      43554D5F 
 2814      4D41585F 
 2814      5F203058 
 2814      37464646 
 2815              	.LASF203:
 2816 20f9 5F5F5546 		.ascii	"__UFRACT_IBIT__ 0\000"
ARM GAS  /var/folders/z0/6xlwn_996xz3mwq1cgzkbq4r0000gp/T//ccF2sUVk.s 			page 73


 2816      52414354 
 2816      5F494249 
 2816      545F5F20 
 2816      3000
 2817              	.LASF166:
 2818 210b 5F5F4445 		.ascii	"__DEC32_MANT_DIG__ 7\000"
 2818      4333325F 
 2818      4D414E54 
 2818      5F444947 
 2818      5F5F2037 
 2819              	.LASF413:
 2820 2120 5F5F4C45 		.ascii	"__LEAST8 \"hh\"\000"
 2820      41535438 
 2820      20226868 
 2820      2200
 2821              	.LASF84:
 2822 212e 5F5F5349 		.ascii	"__SIG_ATOMIC_MIN__ (-__SIG_ATOMIC_MAX__ - 1)\000"
 2822      475F4154 
 2822      4F4D4943 
 2822      5F4D494E 
 2822      5F5F2028 
 2823              	.LASF221:
 2824 215b 5F5F4C4C 		.ascii	"__LLFRACT_EPSILON__ 0x1P-63LLR\000"
 2824      46524143 
 2824      545F4550 
 2824      53494C4F 
 2824      4E5F5F20 
 2825              	.LASF157:
 2826 217a 5F5F4C44 		.ascii	"__LDBL_MAX_10_EXP__ 308\000"
 2826      424C5F4D 
 2826      41585F31 
 2826      305F4558 
 2826      505F5F20 
 2827              	.LASF187:
 2828 2192 5F5F5346 		.ascii	"__SFRACT_FBIT__ 7\000"
 2828      52414354 
 2828      5F464249 
 2828      545F5F20 
 2828      3700
 2829              	.LASF37:
 2830 21a4 5F5F4348 		.ascii	"__CHAR32_TYPE__ long unsigned int\000"
 2830      41523332 
 2830      5F545950 
 2830      455F5F20 
 2830      6C6F6E67 
 2831              	.LASF188:
 2832 21c6 5F5F5346 		.ascii	"__SFRACT_IBIT__ 0\000"
 2832      52414354 
 2832      5F494249 
 2832      545F5F20 
 2832      3000
 2833              	.LASF337:
 2834 21d8 5F5F4152 		.ascii	"__ARM_PCS 1\000"
 2834      4D5F5043 
 2834      53203100 
 2835              	.LASF270:
 2836 21e4 5F5F4851 		.ascii	"__HQ_IBIT__ 0\000"
ARM GAS  /var/folders/z0/6xlwn_996xz3mwq1cgzkbq4r0000gp/T//ccF2sUVk.s 			page 74


 2836      5F494249 
 2836      545F5F20 
 2836      3000
 2837              	.LASF437:
 2838 21f2 5F5F696E 		.ascii	"__int_fast16_t_defined 1\000"
 2838      745F6661 
 2838      73743136 
 2838      5F745F64 
 2838      6566696E 
 2839              	.LASF304:
 2840 220b 5F5F5553 		.ascii	"__USER_LABEL_PREFIX__ \000"
 2840      45525F4C 
 2840      4142454C 
 2840      5F505245 
 2840      4649585F 
 2841              	.LASF134:
 2842 2222 5F5F464C 		.ascii	"__FLT_DENORM_MIN__ 1.4012984643248171e-45F\000"
 2842      545F4445 
 2842      4E4F524D 
 2842      5F4D494E 
 2842      5F5F2031 
 2843              	.LASF53:
 2844 224d 5F5F5549 		.ascii	"__UINT_LEAST32_TYPE__ long unsigned int\000"
 2844      4E545F4C 
 2844      45415354 
 2844      33325F54 
 2844      5950455F 
 2845              	.LASF273:
 2846 2275 5F5F4451 		.ascii	"__DQ_FBIT__ 63\000"
 2846      5F464249 
 2846      545F5F20 
 2846      363300
 2847              	.LASF296:
 2848 2284 5F5F5548 		.ascii	"__UHA_IBIT__ 8\000"
 2848      415F4942 
 2848      49545F5F 
 2848      203800
 2849              	.LASF449:
 2850 2293 494E5431 		.ascii	"INT16_MIN (-__INT16_MAX__ - 1)\000"
 2850      365F4D49 
 2850      4E20282D 
 2850      5F5F494E 
 2850      5431365F 
 2851              	.LASF440:
 2852 22b2 494E5450 		.ascii	"INTPTR_MIN (-__INTPTR_MAX__ - 1)\000"
 2852      54525F4D 
 2852      494E2028 
 2852      2D5F5F49 
 2852      4E545054 
 2853              	.LASF358:
 2854 22d3 5F5F474E 		.ascii	"__GNUC_PREREQ__(ma,mi) __GNUC_PREREQ(ma, mi)\000"
 2854      55435F50 
 2854      52455245 
 2854      515F5F28 
 2854      6D612C6D 
 2855              	.LASF409:
 2856 2300 5F5F4641 		.ascii	"__FAST8 \000"
ARM GAS  /var/folders/z0/6xlwn_996xz3mwq1cgzkbq4r0000gp/T//ccF2sUVk.s 			page 75


 2856      53543820 
 2856      00
 2857              	.LASF69:
 2858 2309 5F5F5348 		.ascii	"__SHRT_MAX__ 0x7fff\000"
 2858      52545F4D 
 2858      41585F5F 
 2858      20307837 
 2858      66666600 
 2859              	.LASF26:
 2860 231d 5F5F4F52 		.ascii	"__ORDER_PDP_ENDIAN__ 3412\000"
 2860      4445525F 
 2860      5044505F 
 2860      454E4449 
 2860      414E5F5F 
 2861              	.LASF370:
 2862 2337 5F5F4953 		.ascii	"__ISO_C_VISIBLE 1999\000"
 2862      4F5F435F 
 2862      56495349 
 2862      424C4520 
 2862      31393939 
 2863              	.LASF272:
 2864 234c 5F5F5351 		.ascii	"__SQ_IBIT__ 0\000"
 2864      5F494249 
 2864      545F5F20 
 2864      3000
 2865              	.LASF130:
 2866 235a 5F5F464C 		.ascii	"__FLT_DECIMAL_DIG__ 9\000"
 2866      545F4445 
 2866      43494D41 
 2866      4C5F4449 
 2866      475F5F20 
 2867              	.LASF420:
 2868 2370 5F5F696E 		.ascii	"__int8_t_defined 1\000"
 2868      74385F74 
 2868      5F646566 
 2868      696E6564 
 2868      203100
 2869              	.LASF87:
 2870 2383 5F5F494E 		.ascii	"__INT32_MAX__ 0x7fffffffL\000"
 2870      5433325F 
 2870      4D41585F 
 2870      5F203078 
 2870      37666666 
 2871              	.LASF185:
 2872 239d 5F5F4445 		.ascii	"__DEC128_EPSILON__ 1E-33DL\000"
 2872      43313238 
 2872      5F455053 
 2872      494C4F4E 
 2872      5F5F2031 
 2873              	.LASF277:
 2874 23b8 5F5F5551 		.ascii	"__UQQ_FBIT__ 8\000"
 2874      515F4642 
 2874      49545F5F 
 2874      203800
 2875              	.LASF367:
 2876 23c7 5F5F4154 		.ascii	"__ATFILE_VISIBLE 1\000"
 2876      46494C45 
ARM GAS  /var/folders/z0/6xlwn_996xz3mwq1cgzkbq4r0000gp/T//ccF2sUVk.s 			page 76


 2876      5F564953 
 2876      49424C45 
 2876      203100
 2877              	.LASF423:
 2878 23da 5F5F696E 		.ascii	"__int16_t_defined 1\000"
 2878      7431365F 
 2878      745F6465 
 2878      66696E65 
 2878      64203100 
 2879              	.LASF526:
 2880 23ee 73686F72 		.ascii	"short int\000"
 2880      7420696E 
 2880      7400
 2881              	.LASF245:
 2882 23f8 5F5F5541 		.ascii	"__UACCUM_MAX__ 0XFFFFFFFFP-16UK\000"
 2882      4343554D 
 2882      5F4D4158 
 2882      5F5F2030 
 2882      58464646 
 2883              	.LASF175:
 2884 2418 5F5F4445 		.ascii	"__DEC64_MAX_EXP__ 385\000"
 2884      4336345F 
 2884      4D41585F 
 2884      4558505F 
 2884      5F203338 
 2885              	.LASF279:
 2886 242e 5F5F5548 		.ascii	"__UHQ_FBIT__ 16\000"
 2886      515F4642 
 2886      49545F5F 
 2886      20313600 
 2887              	.LASF41:
 2888 243e 5F5F494E 		.ascii	"__INT32_TYPE__ long int\000"
 2888      5433325F 
 2888      54595045 
 2888      5F5F206C 
 2888      6F6E6720 
 2889              	.LASF506:
 2890 2456 5F5F626F 		.ascii	"__bool_true_false_are_defined 1\000"
 2890      6F6C5F74 
 2890      7275655F 
 2890      66616C73 
 2890      655F6172 
 2891              	.LASF528:
 2892 2476 6C6F6E67 		.ascii	"long int\000"
 2892      20696E74 
 2892      00
 2893              	.LASF426:
 2894 247f 5F5F696E 		.ascii	"__int32_t_defined 1\000"
 2894      7433325F 
 2894      745F6465 
 2894      66696E65 
 2894      64203100 
 2895              	.LASF156:
 2896 2493 5F5F4C44 		.ascii	"__LDBL_MAX_EXP__ 1024\000"
 2896      424C5F4D 
 2896      41585F45 
 2896      58505F5F 
ARM GAS  /var/folders/z0/6xlwn_996xz3mwq1cgzkbq4r0000gp/T//ccF2sUVk.s 			page 77


 2896      20313032 
 2897              	.LASF271:
 2898 24a9 5F5F5351 		.ascii	"__SQ_FBIT__ 31\000"
 2898      5F464249 
 2898      545F5F20 
 2898      333100
 2899              	.LASF376:
 2900 24b8 5F5F4558 		.ascii	"__EXP(x) __ ##x ##__\000"
 2900      50287829 
 2900      205F5F20 
 2900      23237820 
 2900      23235F5F 
 2901              	.LASF232:
 2902 24cd 5F5F5553 		.ascii	"__USACCUM_FBIT__ 8\000"
 2902      41434355 
 2902      4D5F4642 
 2902      49545F5F 
 2902      203800
 2903              	.LASF305:
 2904 24e0 5F5F474E 		.ascii	"__GNUC_GNU_INLINE__ 1\000"
 2904      55435F47 
 2904      4E555F49 
 2904      4E4C494E 
 2904      455F5F20 
 2905              	.LASF182:
 2906 24f6 5F5F4445 		.ascii	"__DEC128_MAX_EXP__ 6145\000"
 2906      43313238 
 2906      5F4D4158 
 2906      5F455850 
 2906      5F5F2036 
 2907              	.LASF171:
 2908 250e 5F5F4445 		.ascii	"__DEC32_EPSILON__ 1E-6DF\000"
 2908      4333325F 
 2908      45505349 
 2908      4C4F4E5F 
 2908      5F203145 
 2909              	.LASF407:
 2910 2527 5F5F494E 		.ascii	"__INT32 \"l\"\000"
 2910      54333220 
 2910      226C2200 
 2911              	.LASF105:
 2912 2533 5F5F5549 		.ascii	"__UINT_LEAST32_MAX__ 0xffffffffUL\000"
 2912      4E545F4C 
 2912      45415354 
 2912      33325F4D 
 2912      41585F5F 
 2913              	.LASF329:
 2914 2555 5F5F7468 		.ascii	"__thumb__ 1\000"
 2914      756D625F 
 2914      5F203100 
 2915              	.LASF390:
 2916 2561 7369676E 		.ascii	"signed\000"
 2916      656400
 2917              	.LASF165:
 2918 2568 5F5F4C44 		.ascii	"__LDBL_HAS_QUIET_NAN__ 1\000"
 2918      424C5F48 
 2918      41535F51 
ARM GAS  /var/folders/z0/6xlwn_996xz3mwq1cgzkbq4r0000gp/T//ccF2sUVk.s 			page 78


 2918      55494554 
 2918      5F4E414E 
 2919              	.LASF39:
 2920 2581 5F5F494E 		.ascii	"__INT8_TYPE__ signed char\000"
 2920      54385F54 
 2920      5950455F 
 2920      5F207369 
 2920      676E6564 
 2921              	.LASF75:
 2922 259b 5F5F5749 		.ascii	"__WINT_MAX__ 0xffffffffU\000"
 2922      4E545F4D 
 2922      41585F5F 
 2922      20307866 
 2922      66666666 
 2923              	.LASF456:
 2924 25b4 494E5433 		.ascii	"INT32_MAX (__INT32_MAX__)\000"
 2924      325F4D41 
 2924      5820285F 
 2924      5F494E54 
 2924      33325F4D 
 2925              	.LASF371:
 2926 25ce 5F5F4C41 		.ascii	"__LARGEFILE_VISIBLE 0\000"
 2926      52474546 
 2926      494C455F 
 2926      56495349 
 2926      424C4520 
 2927              	.LASF477:
 2928 25e4 494E545F 		.ascii	"INT_FAST64_MAX (__INT_FAST64_MAX__)\000"
 2928      46415354 
 2928      36345F4D 
 2928      41582028 
 2928      5F5F494E 
 2929              	.LASF275:
 2930 2608 5F5F5451 		.ascii	"__TQ_FBIT__ 127\000"
 2930      5F464249 
 2930      545F5F20 
 2930      31323700 
 2931              	.LASF196:
 2932 2618 5F5F5553 		.ascii	"__USFRACT_EPSILON__ 0x1P-8UHR\000"
 2932      46524143 
 2932      545F4550 
 2932      53494C4F 
 2932      4E5F5F20 
 2933              	.LASF535:
 2934 2636 474E5520 		.ascii	"GNU C89 5.4.1 20160919 (release) [ARM/embedded-5-br"
 2934      43383920 
 2934      352E342E 
 2934      31203230 
 2934      31363039 
 2935 2669 616E6368 		.ascii	"anch revision 240496] -mcpu=cortex-m0 -mthumb -g -g"
 2935      20726576 
 2935      6973696F 
 2935      6E203234 
 2935      30343936 
 2936 269c 67646233 		.ascii	"gdb3 -O2 -std=gnu90 -ffunction-sections -fdata-sect"
 2936      202D4F32 
 2936      202D7374 
ARM GAS  /var/folders/z0/6xlwn_996xz3mwq1cgzkbq4r0000gp/T//ccF2sUVk.s 			page 79


 2936      643D676E 
 2936      75393020 
 2937 26cf 696F6E73 		.ascii	"ions\000"
 2937      00
 2938              	.LASF537:
 2939 26d4 2F557365 		.ascii	"/Users/tukyab/Documents/MIT/FSAE/csb/charger_shutdo"
 2939      72732F74 
 2939      756B7961 
 2939      622F446F 
 2939      63756D65 
 2940 2707 776E5F62 		.ascii	"wn_board\000"
 2940      6F617264 
 2940      00
 2941              	.LASF116:
 2942 2710 5F5F5549 		.ascii	"__UINT_FAST64_MAX__ 0xffffffffffffffffULL\000"
 2942      4E545F46 
 2942      41535436 
 2942      345F4D41 
 2942      585F5F20 
 2943              	.LASF115:
 2944 273a 5F5F5549 		.ascii	"__UINT_FAST32_MAX__ 0xffffffffU\000"
 2944      4E545F46 
 2944      41535433 
 2944      325F4D41 
 2944      585F5F20 
 2945              	.LASF406:
 2946 275a 5F5F494E 		.ascii	"__INT16 \"h\"\000"
 2946      54313620 
 2946      22682200 
 2947              	.LASF192:
 2948 2766 5F5F5553 		.ascii	"__USFRACT_FBIT__ 8\000"
 2948      46524143 
 2948      545F4642 
 2948      49545F5F 
 2948      203800
 2949              	.LASF100:
 2950 2779 5F5F494E 		.ascii	"__INT64_C(c) c ## LL\000"
 2950      5436345F 
 2950      43286329 
 2950      20632023 
 2950      23204C4C 
 2951              	.LASF269:
 2952 278e 5F5F4851 		.ascii	"__HQ_FBIT__ 15\000"
 2952      5F464249 
 2952      545F5F20 
 2952      313500
 2953              	.LASF73:
 2954 279d 5F5F5743 		.ascii	"__WCHAR_MAX__ 0xffffffffU\000"
 2954      4841525F 
 2954      4D41585F 
 2954      5F203078 
 2954      66666666 
 2955              	.LASF511:
 2956 27b7 5F534246 		.ascii	"_SBF\000"
 2956      00
 2957              	.LASF16:
 2958 27bc 5F5F5349 		.ascii	"__SIZEOF_LONG_LONG__ 8\000"
ARM GAS  /var/folders/z0/6xlwn_996xz3mwq1cgzkbq4r0000gp/T//ccF2sUVk.s 			page 80


 2958      5A454F46 
 2958      5F4C4F4E 
 2958      475F4C4F 
 2958      4E475F5F 
 2959              	.LASF43:
 2960 27d3 5F5F5549 		.ascii	"__UINT8_TYPE__ unsigned char\000"
 2960      4E54385F 
 2960      54595045 
 2960      5F5F2075 
 2960      6E736967 
 2961              	.LASF471:
 2962 27f0 494E545F 		.ascii	"INT_FAST16_MAX (__INT_FAST16_MAX__)\000"
 2962      46415354 
 2962      31365F4D 
 2962      41582028 
 2962      5F5F494E 
 2963              	.LASF462:
 2964 2814 494E5436 		.ascii	"INT64_MAX (__INT64_MAX__)\000"
 2964      345F4D41 
 2964      5820285F 
 2964      5F494E54 
 2964      36345F4D 
 2965              	.LASF133:
 2966 282e 5F5F464C 		.ascii	"__FLT_EPSILON__ 1.1920928955078125e-7F\000"
 2966      545F4550 
 2966      53494C4F 
 2966      4E5F5F20 
 2966      312E3139 
 2967              	.LASF482:
 2968 2855 53495A45 		.ascii	"SIZE_MAX (__SIZE_MAX__)\000"
 2968      5F4D4158 
 2968      20285F5F 
 2968      53495A45 
 2968      5F4D4158 
 2969              	.LASF50:
 2970 286d 5F5F494E 		.ascii	"__INT_LEAST64_TYPE__ long long int\000"
 2970      545F4C45 
 2970      41535436 
 2970      345F5459 
 2970      50455F5F 
 2971              	.LASF500:
 2972 2890 55494E54 		.ascii	"UINTMAX_C(x) __UINTMAX_C(x)\000"
 2972      4D41585F 
 2972      43287829 
 2972      205F5F55 
 2972      494E544D 
 2973              	.LASF45:
 2974 28ac 5F5F5549 		.ascii	"__UINT32_TYPE__ long unsigned int\000"
 2974      4E543332 
 2974      5F545950 
 2974      455F5F20 
 2974      6C6F6E67 
 2975              	.LASF155:
 2976 28ce 5F5F4C44 		.ascii	"__LDBL_MIN_10_EXP__ (-307)\000"
 2976      424C5F4D 
 2976      494E5F31 
 2976      305F4558 
ARM GAS  /var/folders/z0/6xlwn_996xz3mwq1cgzkbq4r0000gp/T//ccF2sUVk.s 			page 81


 2976      505F5F20 
 2977              	.LASF29:
 2978 28e9 5F5F5349 		.ascii	"__SIZEOF_POINTER__ 4\000"
 2978      5A454F46 
 2978      5F504F49 
 2978      4E544552 
 2978      5F5F2034 
 2979              	.LASF334:
 2980 28fe 5F5F5646 		.ascii	"__VFP_FP__ 1\000"
 2980      505F4650 
 2980      5F5F2031 
 2980      00
 2981              	.LASF336:
 2982 290b 5F5F4152 		.ascii	"__ARM_ARCH_6M__ 1\000"
 2982      4D5F4152 
 2982      43485F36 
 2982      4D5F5F20 
 2982      3100
 2983              	.LASF359:
 2984 291d 5F444546 		.ascii	"_DEFAULT_SOURCE\000"
 2984      41554C54 
 2984      5F534F55 
 2984      52434500 
 2985              	.LASF229:
 2986 292d 5F5F5341 		.ascii	"__SACCUM_MIN__ (-0X1P7HK-0X1P7HK)\000"
 2986      4343554D 
 2986      5F4D494E 
 2986      5F5F2028 
 2986      2D305831 
 2987              	.LASF450:
 2988 294f 494E5431 		.ascii	"INT16_MAX (__INT16_MAX__)\000"
 2988      365F4D41 
 2988      5820285F 
 2988      5F494E54 
 2988      31365F4D 
 2989              	.LASF317:
 2990 2969 5F5F4743 		.ascii	"__GCC_ATOMIC_POINTER_LOCK_FREE 1\000"
 2990      435F4154 
 2990      4F4D4943 
 2990      5F504F49 
 2990      4E544552 
 2991              	.LASF108:
 2992 298a 5F5F5549 		.ascii	"__UINT64_C(c) c ## ULL\000"
 2992      4E543634 
 2992      5F432863 
 2992      29206320 
 2992      23232055 
 2993              	.LASF251:
 2994 29a1 5F5F4C41 		.ascii	"__LACCUM_EPSILON__ 0x1P-31LK\000"
 2994      4343554D 
 2994      5F455053 
 2994      494C4F4E 
 2994      5F5F2030 
 2995              	.LASF191:
 2996 29be 5F5F5346 		.ascii	"__SFRACT_EPSILON__ 0x1P-7HR\000"
 2996      52414354 
 2996      5F455053 
ARM GAS  /var/folders/z0/6xlwn_996xz3mwq1cgzkbq4r0000gp/T//ccF2sUVk.s 			page 82


 2996      494C4F4E 
 2996      5F5F2030 
 2997              	.LASF278:
 2998 29da 5F5F5551 		.ascii	"__UQQ_IBIT__ 0\000"
 2998      515F4942 
 2998      49545F5F 
 2998      203000
 2999              	.LASF281:
 3000 29e9 5F5F5553 		.ascii	"__USQ_FBIT__ 32\000"
 3000      515F4642 
 3000      49545F5F 
 3000      20333200 
 3001              	.LASF348:
 3002 29f9 5F5F4C50 		.ascii	"__LPC_TYPES_H_ \000"
 3002      435F5459 
 3002      5045535F 
 3002      485F2000 
 3003              	.LASF529:
 3004 2a09 6C6F6E67 		.ascii	"long unsigned int\000"
 3004      20756E73 
 3004      69676E65 
 3004      6420696E 
 3004      7400
 3005              	.LASF485:
 3006 2a1b 50545244 		.ascii	"PTRDIFF_MAX (__PTRDIFF_MAX__)\000"
 3006      4946465F 
 3006      4D415820 
 3006      285F5F50 
 3006      54524449 
 3007              	.LASF310:
 3008 2a39 5F5F4743 		.ascii	"__GCC_ATOMIC_CHAR32_T_LOCK_FREE 1\000"
 3008      435F4154 
 3008      4F4D4943 
 3008      5F434841 
 3008      5233325F 
 3009              	.LASF475:
 3010 2a5b 55494E54 		.ascii	"UINT_FAST32_MAX (__UINT_FAST32_MAX__)\000"
 3010      5F464153 
 3010      5433325F 
 3010      4D415820 
 3010      285F5F55 
 3011              	.LASF386:
 3012 2a81 5F535953 		.ascii	"_SYS__INTSUP_H \000"
 3012      5F5F494E 
 3012      54535550 
 3012      5F482000 
 3013              	.LASF465:
 3014 2a91 494E545F 		.ascii	"INT_LEAST64_MAX (__INT_LEAST64_MAX__)\000"
 3014      4C454153 
 3014      5436345F 
 3014      4D415820 
 3014      285F5F49 
 3015              	.LASF81:
 3016 2ab7 5F5F5549 		.ascii	"__UINTMAX_MAX__ 0xffffffffffffffffULL\000"
 3016      4E544D41 
 3016      585F4D41 
 3016      585F5F20 
ARM GAS  /var/folders/z0/6xlwn_996xz3mwq1cgzkbq4r0000gp/T//ccF2sUVk.s 			page 83


 3016      30786666 
 3017              	.LASF487:
 3018 2add 57434841 		.ascii	"WCHAR_MIN (__WCHAR_MIN__)\000"
 3018      525F4D49 
 3018      4E20285F 
 3018      5F574348 
 3018      41525F4D 
 3019              	.LASF201:
 3020 2af7 5F5F4652 		.ascii	"__FRACT_EPSILON__ 0x1P-15R\000"
 3020      4143545F 
 3020      45505349 
 3020      4C4F4E5F 
 3020      5F203078 
 3021              	.LASF1:
 3022 2b12 5F5F5354 		.ascii	"__STDC_HOSTED__ 1\000"
 3022      44435F48 
 3022      4F535445 
 3022      445F5F20 
 3022      3100
 3023              	.LASF431:
 3024 2b24 5F55494E 		.ascii	"_UINTPTR_T_DECLARED \000"
 3024      54505452 
 3024      5F545F44 
 3024      45434C41 
 3024      52454420 
 3025              	.LASF469:
 3026 2b39 55494E54 		.ascii	"UINT_FAST8_MAX (__UINT_FAST8_MAX__)\000"
 3026      5F464153 
 3026      54385F4D 
 3026      41582028 
 3026      5F5F5549 
 3027              	.LASF117:
 3028 2b5d 5F5F494E 		.ascii	"__INTPTR_MAX__ 0x7fffffff\000"
 3028      54505452 
 3028      5F4D4158 
 3028      5F5F2030 
 3028      78376666 
 3029              	.LASF65:
 3030 2b77 5F5F6861 		.ascii	"__has_include(STR) __has_include__(STR)\000"
 3030      735F696E 
 3030      636C7564 
 3030      65285354 
 3030      5229205F 
 3031              	.LASF333:
 3032 2b9f 5F5F534F 		.ascii	"__SOFTFP__ 1\000"
 3032      46544650 
 3032      5F5F2031 
 3032      00
 3033              	.LASF146:
 3034 2bac 5F5F4442 		.ascii	"__DBL_MIN__ ((double)2.2250738585072014e-308L)\000"
 3034      4C5F4D49 
 3034      4E5F5F20 
 3034      2828646F 
 3034      75626C65 
 3035              	.LASF387:
 3036 2bdb 5F5F5354 		.ascii	"__STDINT_EXP(x) __ ##x ##__\000"
 3036      44494E54 
ARM GAS  /var/folders/z0/6xlwn_996xz3mwq1cgzkbq4r0000gp/T//ccF2sUVk.s 			page 84


 3036      5F455850 
 3036      28782920 
 3036      5F5F2023 
 3037              	.LASF517:
 3038 2bf7 53544154 		.ascii	"STATIC static\000"
 3038      49432073 
 3038      74617469 
 3038      6300
 3039              	.LASF315:
 3040 2c05 5F5F4743 		.ascii	"__GCC_ATOMIC_LLONG_LOCK_FREE 1\000"
 3040      435F4154 
 3040      4F4D4943 
 3040      5F4C4C4F 
 3040      4E475F4C 
 3041              	.LASF128:
 3042 2c24 5F5F464C 		.ascii	"__FLT_MAX_EXP__ 128\000"
 3042      545F4D41 
 3042      585F4558 
 3042      505F5F20 
 3042      31323800 
 3043              	.LASF514:
 3044 2c38 5F424954 		.ascii	"_BITMASK(field_width) ( _BIT(field_width) - 1)\000"
 3044      4D41534B 
 3044      28666965 
 3044      6C645F77 
 3044      69647468 
 3045              	.LASF10:
 3046 2c67 5F5F4154 		.ascii	"__ATOMIC_ACQ_REL 4\000"
 3046      4F4D4943 
 3046      5F414351 
 3046      5F52454C 
 3046      203400
 3047              	.LASF62:
 3048 2c7a 5F5F5549 		.ascii	"__UINT_FAST64_TYPE__ long long unsigned int\000"
 3048      4E545F46 
 3048      41535436 
 3048      345F5459 
 3048      50455F5F 
 3049              	.LASF525:
 3050 2ca6 756E7369 		.ascii	"unsigned char\000"
 3050      676E6564 
 3050      20636861 
 3050      7200
 3051              	.LASF167:
 3052 2cb4 5F5F4445 		.ascii	"__DEC32_MIN_EXP__ (-94)\000"
 3052      4333325F 
 3052      4D494E5F 
 3052      4558505F 
 3052      5F20282D 
 3053              	.LASF168:
 3054 2ccc 5F5F4445 		.ascii	"__DEC32_MAX_EXP__ 97\000"
 3054      4333325F 
 3054      4D41585F 
 3054      4558505F 
 3054      5F203937 
 3055              	.LASF372:
 3056 2ce1 5F5F4D49 		.ascii	"__MISC_VISIBLE 1\000"
ARM GAS  /var/folders/z0/6xlwn_996xz3mwq1cgzkbq4r0000gp/T//ccF2sUVk.s 			page 85


 3056      53435F56 
 3056      49534942 
 3056      4C452031 
 3056      00
 3057              	.LASF161:
 3058 2cf2 5F5F4C44 		.ascii	"__LDBL_EPSILON__ 2.2204460492503131e-16L\000"
 3058      424C5F45 
 3058      5053494C 
 3058      4F4E5F5F 
 3058      20322E32 
 3059              	.LASF63:
 3060 2d1b 5F5F494E 		.ascii	"__INTPTR_TYPE__ int\000"
 3060      54505452 
 3060      5F545950 
 3060      455F5F20 
 3060      696E7400 
 3061              	.LASF122:
 3062 2d2f 5F5F4445 		.ascii	"__DEC_EVAL_METHOD__ 2\000"
 3062      435F4556 
 3062      414C5F4D 
 3062      4554484F 
 3062      445F5F20 
 3063              	.LASF234:
 3064 2d45 5F5F5553 		.ascii	"__USACCUM_MIN__ 0.0UHK\000"
 3064      41434355 
 3064      4D5F4D49 
 3064      4E5F5F20 
 3064      302E3055 
 3065              	.LASF478:
 3066 2d5c 55494E54 		.ascii	"UINT_FAST64_MAX (__UINT_FAST64_MAX__)\000"
 3066      5F464153 
 3066      5436345F 
 3066      4D415820 
 3066      285F5F55 
 3067              	.LASF193:
 3068 2d82 5F5F5553 		.ascii	"__USFRACT_IBIT__ 0\000"
 3068      46524143 
 3068      545F4942 
 3068      49545F5F 
 3068      203000
 3069              	.LASF454:
 3070 2d95 55494E54 		.ascii	"UINT_LEAST16_MAX (__UINT_LEAST16_MAX__)\000"
 3070      5F4C4541 
 3070      53543136 
 3070      5F4D4158 
 3070      20285F5F 
 3071              	.LASF61:
 3072 2dbd 5F5F5549 		.ascii	"__UINT_FAST32_TYPE__ unsigned int\000"
 3072      4E545F46 
 3072      41535433 
 3072      325F5459 
 3072      50455F5F 
 3073              	.LASF415:
 3074 2ddf 5F5F4C45 		.ascii	"__LEAST32 \"l\"\000"
 3074      41535433 
 3074      3220226C 
 3074      2200
ARM GAS  /var/folders/z0/6xlwn_996xz3mwq1cgzkbq4r0000gp/T//ccF2sUVk.s 			page 86


 3075              	.LASF274:
 3076 2ded 5F5F4451 		.ascii	"__DQ_IBIT__ 0\000"
 3076      5F494249 
 3076      545F5F20 
 3076      3000
 3077              	.LASF30:
 3078 2dfb 5F5F5349 		.ascii	"__SIZE_TYPE__ unsigned int\000"
 3078      5A455F54 
 3078      5950455F 
 3078      5F20756E 
 3078      7369676E 
 3079              	.LASF262:
 3080 2e16 5F5F554C 		.ascii	"__ULLACCUM_FBIT__ 32\000"
 3080      4C414343 
 3080      554D5F46 
 3080      4249545F 
 3080      5F203332 
 3081              	.LASF385:
 3082 2e2b 5F5F4558 		.ascii	"__EXP\000"
 3082      5000
 3083              	.LASF497:
 3084 2e31 494E5436 		.ascii	"INT64_C(x) __INT64_C(x)\000"
 3084      345F4328 
 3084      7829205F 
 3084      5F494E54 
 3084      36345F43 
 3085              	.LASF312:
 3086 2e49 5F5F4743 		.ascii	"__GCC_ATOMIC_SHORT_LOCK_FREE 1\000"
 3086      435F4154 
 3086      4F4D4943 
 3086      5F53484F 
 3086      52545F4C 
 3087              	.LASF362:
 3088 2e68 5F504F53 		.ascii	"_POSIX_SOURCE 1\000"
 3088      49585F53 
 3088      4F555243 
 3088      45203100 
 3089              	.LASF381:
 3090 2e78 5F5F5F69 		.ascii	"___int_least8_t_defined 1\000"
 3090      6E745F6C 
 3090      65617374 
 3090      385F745F 
 3090      64656669 
 3091              	.LASF474:
 3092 2e92 494E545F 		.ascii	"INT_FAST32_MAX (__INT_FAST32_MAX__)\000"
 3092      46415354 
 3092      33325F4D 
 3092      41582028 
 3092      5F5F494E 
 3093              	.LASF397:
 3094 2eb6 756E7369 		.ascii	"unsigned +0\000"
 3094      676E6564 
 3094      202B3000 
 3095              	.LASF127:
 3096 2ec2 5F5F464C 		.ascii	"__FLT_MIN_10_EXP__ (-37)\000"
 3096      545F4D49 
 3096      4E5F3130 
ARM GAS  /var/folders/z0/6xlwn_996xz3mwq1cgzkbq4r0000gp/T//ccF2sUVk.s 			page 87


 3096      5F455850 
 3096      5F5F2028 
 3097              	.LASF74:
 3098 2edb 5F5F5743 		.ascii	"__WCHAR_MIN__ 0U\000"
 3098      4841525F 
 3098      4D494E5F 
 3098      5F203055 
 3098      00
 3099              	.LASF150:
 3100 2eec 5F5F4442 		.ascii	"__DBL_HAS_INFINITY__ 1\000"
 3100      4C5F4841 
 3100      535F494E 
 3100      46494E49 
 3100      54595F5F 
 3101              	.LASF57:
 3102 2f03 5F5F494E 		.ascii	"__INT_FAST32_TYPE__ int\000"
 3102      545F4641 
 3102      53543332 
 3102      5F545950 
 3102      455F5F20 
 3103              	.LASF137:
 3104 2f1b 5F5F464C 		.ascii	"__FLT_HAS_QUIET_NAN__ 1\000"
 3104      545F4841 
 3104      535F5155 
 3104      4945545F 
 3104      4E414E5F 
 3105              	.LASF14:
 3106 2f33 5F5F5349 		.ascii	"__SIZEOF_INT__ 4\000"
 3106      5A454F46 
 3106      5F494E54 
 3106      5F5F2034 
 3106      00
 3107              	.LASF34:
 3108 2f44 5F5F494E 		.ascii	"__INTMAX_TYPE__ long long int\000"
 3108      544D4158 
 3108      5F545950 
 3108      455F5F20 
 3108      6C6F6E67 
 3109              	.LASF147:
 3110 2f62 5F5F4442 		.ascii	"__DBL_EPSILON__ ((double)2.2204460492503131e-16L)\000"
 3110      4C5F4550 
 3110      53494C4F 
 3110      4E5F5F20 
 3110      2828646F 
 3111              	.LASF80:
 3112 2f94 5F5F494E 		.ascii	"__INTMAX_C(c) c ## LL\000"
 3112      544D4158 
 3112      5F432863 
 3112      29206320 
 3112      2323204C 
 3113              	.LASF328:
 3114 2faa 5F5F4150 		.ascii	"__APCS_32__ 1\000"
 3114      43535F33 
 3114      325F5F20 
 3114      3100
 3115              	.LASF461:
 3116 2fb8 494E5436 		.ascii	"INT64_MIN (-__INT64_MAX__ - 1)\000"
ARM GAS  /var/folders/z0/6xlwn_996xz3mwq1cgzkbq4r0000gp/T//ccF2sUVk.s 			page 88


 3116      345F4D49 
 3116      4E20282D 
 3116      5F5F494E 
 3116      5436345F 
 3117              	.LASF499:
 3118 2fd7 494E544D 		.ascii	"INTMAX_C(x) __INTMAX_C(x)\000"
 3118      41585F43 
 3118      28782920 
 3118      5F5F494E 
 3118      544D4158 
 3119              	.LASF148:
 3120 2ff1 5F5F4442 		.ascii	"__DBL_DENORM_MIN__ ((double)4.9406564584124654e-324"
 3120      4C5F4445 
 3120      4E4F524D 
 3120      5F4D494E 
 3120      5F5F2028 
 3121 3024 4C2900   		.ascii	"L)\000"
 3122              	.LASF46:
 3123 3027 5F5F5549 		.ascii	"__UINT64_TYPE__ long long unsigned int\000"
 3123      4E543634 
 3123      5F545950 
 3123      455F5F20 
 3123      6C6F6E67 
 3124              	.LASF479:
 3125 304e 494E544D 		.ascii	"INTMAX_MAX (__INTMAX_MAX__)\000"
 3125      41585F4D 
 3125      41582028 
 3125      5F5F494E 
 3125      544D4158 
 3126              	.LASF512:
 3127 306a 5F534246 		.ascii	"_SBF(f,v) ((v) << (f))\000"
 3127      28662C76 
 3127      29202828 
 3127      7629203C 
 3127      3C202866 
 3128              	.LASF143:
 3129 3081 5F5F4442 		.ascii	"__DBL_MAX_10_EXP__ 308\000"
 3129      4C5F4D41 
 3129      585F3130 
 3129      5F455850 
 3129      5F5F2033 
 3130              	.LASF527:
 3131 3098 73686F72 		.ascii	"short unsigned int\000"
 3131      7420756E 
 3131      7369676E 
 3131      65642069 
 3131      6E7400
 3132              	.LASF534:
 3133 30ab 62656769 		.ascii	"begin\000"
 3133      6E00
 3134              	.LASF294:
 3135 30b1 5F5F5441 		.ascii	"__TA_IBIT__ 64\000"
 3135      5F494249 
 3135      545F5F20 
 3135      363400
 3136              	.LASF343:
 3137 30c0 434F5245 		.ascii	"CORE_M0 1\000"
ARM GAS  /var/folders/z0/6xlwn_996xz3mwq1cgzkbq4r0000gp/T//ccF2sUVk.s 			page 89


 3137      5F4D3020 
 3137      3100
 3138              	.LASF508:
 3139 30ca 50415241 		.ascii	"PARAM_FUNCTIONALSTATE(State) ((State == DISABLE) ||"
 3139      4D5F4655 
 3139      4E435449 
 3139      4F4E414C 
 3139      53544154 
 3140 30fd 20285374 		.ascii	" (State == ENABLE))\000"
 3140      61746520 
 3140      3D3D2045 
 3140      4E41424C 
 3140      45292900 
 3141              	.LASF439:
 3142 3111 5F5F696E 		.ascii	"__int_fast64_t_defined 1\000"
 3142      745F6661 
 3142      73743634 
 3142      5F745F64 
 3142      6566696E 
 3143              	.LASF430:
 3144 312a 5F494E54 		.ascii	"_INTPTR_T_DECLARED \000"
 3144      5054525F 
 3144      545F4445 
 3144      434C4152 
 3144      45442000 
 3145              	.LASF468:
 3146 313e 494E545F 		.ascii	"INT_FAST8_MAX (__INT_FAST8_MAX__)\000"
 3146      46415354 
 3146      385F4D41 
 3146      5820285F 
 3146      5F494E54 
 3147              	.LASF486:
 3148 3160 50545244 		.ascii	"PTRDIFF_MIN (-PTRDIFF_MAX - 1)\000"
 3148      4946465F 
 3148      4D494E20 
 3148      282D5054 
 3148      52444946 
 3149              	.LASF126:
 3150 317f 5F5F464C 		.ascii	"__FLT_MIN_EXP__ (-125)\000"
 3150      545F4D49 
 3150      4E5F4558 
 3150      505F5F20 
 3150      282D3132 
 3151              	.LASF184:
 3152 3196 5F5F4445 		.ascii	"__DEC128_MAX__ 9.999999999999999999999999999999999E"
 3152      43313238 
 3152      5F4D4158 
 3152      5F5F2039 
 3152      2E393939 
 3153 31c9 36313434 		.ascii	"6144DL\000"
 3153      444C00
 3154              	.LASF489:
 3155 31d0 57494E54 		.ascii	"WINT_MAX (__WINT_MAX__)\000"
 3155      5F4D4158 
 3155      20285F5F 
 3155      57494E54 
 3155      5F4D4158 
ARM GAS  /var/folders/z0/6xlwn_996xz3mwq1cgzkbq4r0000gp/T//ccF2sUVk.s 			page 90


 3156              	.LASF158:
 3157 31e8 5F5F4445 		.ascii	"__DECIMAL_DIG__ 17\000"
 3157      43494D41 
 3157      4C5F4449 
 3157      475F5F20 
 3157      313700
 3158              	.LASF98:
 3159 31fb 5F5F494E 		.ascii	"__INT32_C(c) c ## L\000"
 3159      5433325F 
 3159      43286329 
 3159      20632023 
 3159      23204C00 
 3160              	.LASF427:
 3161 320f 5F494E54 		.ascii	"_INT64_T_DECLARED \000"
 3161      36345F54 
 3161      5F444543 
 3161      4C415245 
 3161      442000
 3162              	.LASF118:
 3163 3222 5F5F5549 		.ascii	"__UINTPTR_MAX__ 0xffffffffU\000"
 3163      4E545054 
 3163      525F4D41 
 3163      585F5F20 
 3163      30786666 
 3164              	.LASF149:
 3165 323e 5F5F4442 		.ascii	"__DBL_HAS_DENORM__ 1\000"
 3165      4C5F4841 
 3165      535F4445 
 3165      4E4F524D 
 3165      5F5F2031 
 3166              	.LASF215:
 3167 3253 5F5F554C 		.ascii	"__ULFRACT_MAX__ 0XFFFFFFFFP-32ULR\000"
 3167      46524143 
 3167      545F4D41 
 3167      585F5F20 
 3167      30584646 
 3168              	.LASF445:
 3169 3275 55494E54 		.ascii	"UINT8_MAX (__UINT8_MAX__)\000"
 3169      385F4D41 
 3169      5820285F 
 3169      5F55494E 
 3169      54385F4D 
 3170              	.LASF302:
 3171 328f 5F5F5554 		.ascii	"__UTA_IBIT__ 64\000"
 3171      415F4942 
 3171      49545F5F 
 3171      20363400 
 3172              	.LASF443:
 3173 329f 494E5438 		.ascii	"INT8_MIN (-__INT8_MAX__ - 1)\000"
 3173      5F4D494E 
 3173      20282D5F 
 3173      5F494E54 
 3173      385F4D41 
 3174              	.LASF267:
 3175 32bc 5F5F5151 		.ascii	"__QQ_FBIT__ 7\000"
 3175      5F464249 
 3175      545F5F20 
ARM GAS  /var/folders/z0/6xlwn_996xz3mwq1cgzkbq4r0000gp/T//ccF2sUVk.s 			page 91


 3175      3700
 3176              	.LASF210:
 3177 32ca 5F5F4C46 		.ascii	"__LFRACT_MAX__ 0X7FFFFFFFP-31LR\000"
 3177      52414354 
 3177      5F4D4158 
 3177      5F5F2030 
 3177      58374646 
 3178              	.LASF346:
 3179 32ea 43414E5F 		.ascii	"CAN_ARCHITECTURE_ARM 1\000"
 3179      41524348 
 3179      49544543 
 3179      54555245 
 3179      5F41524D 
 3180              	.LASF345:
 3181 3301 46534145 		.ascii	"FSAE_DRIVERS 1\000"
 3181      5F445249 
 3181      56455253 
 3181      203100
 3182              	.LASF505:
 3183 3310 66616C73 		.ascii	"false 0\000"
 3183      65203000 
 3184              	.LASF97:
 3185 3318 5F5F494E 		.ascii	"__INT_LEAST32_MAX__ 0x7fffffffL\000"
 3185      545F4C45 
 3185      41535433 
 3185      325F4D41 
 3185      585F5F20 
 3186              	.LASF257:
 3187 3338 5F5F4C4C 		.ascii	"__LLACCUM_FBIT__ 31\000"
 3187      41434355 
 3187      4D5F4642 
 3187      49545F5F 
 3187      20333100 
 3188              	.LASF176:
 3189 334c 5F5F4445 		.ascii	"__DEC64_MIN__ 1E-383DD\000"
 3189      4336345F 
 3189      4D494E5F 
 3189      5F203145 
 3189      2D333833 
 3190              	.LASF402:
 3191 3363 6C6F6E67 		.ascii	"long +4\000"
 3191      202B3400 
 3192              	.LASF432:
 3193 336b 5F5F696E 		.ascii	"__int_least8_t_defined 1\000"
 3193      745F6C65 
 3193      61737438 
 3193      5F745F64 
 3193      6566696E 
 3194              	.LASF319:
 3195 3384 5F5F5052 		.ascii	"__PRAGMA_REDEFINE_EXTNAME 1\000"
 3195      41474D41 
 3195      5F524544 
 3195      4546494E 
 3195      455F4558 
 3196              	.LASF38:
 3197 33a0 5F5F5349 		.ascii	"__SIG_ATOMIC_TYPE__ int\000"
 3197      475F4154 
ARM GAS  /var/folders/z0/6xlwn_996xz3mwq1cgzkbq4r0000gp/T//ccF2sUVk.s 			page 92


 3197      4F4D4943 
 3197      5F545950 
 3197      455F5F20 
 3198              	.LASF219:
 3199 33b8 5F5F4C4C 		.ascii	"__LLFRACT_MIN__ (-0.5LLR-0.5LLR)\000"
 3199      46524143 
 3199      545F4D49 
 3199      4E5F5F20 
 3199      282D302E 
 3200              	.LASF226:
 3201 33d9 5F5F554C 		.ascii	"__ULLFRACT_EPSILON__ 0x1P-64ULLR\000"
 3201      4C465241 
 3201      43545F45 
 3201      5053494C 
 3201      4F4E5F5F 
 3202              	.LASF163:
 3203 33fa 5F5F4C44 		.ascii	"__LDBL_HAS_DENORM__ 1\000"
 3203      424C5F48 
 3203      41535F44 
 3203      454E4F52 
 3203      4D5F5F20 
 3204              	.LASF103:
 3205 3410 5F5F5549 		.ascii	"__UINT_LEAST16_MAX__ 0xffff\000"
 3205      4E545F4C 
 3205      45415354 
 3205      31365F4D 
 3205      41585F5F 
 3206              	.LASF266:
 3207 342c 5F5F554C 		.ascii	"__ULLACCUM_EPSILON__ 0x1P-32ULLK\000"
 3207      4C414343 
 3207      554D5F45 
 3207      5053494C 
 3207      4F4E5F5F 
 3208              	.LASF173:
 3209 344d 5F5F4445 		.ascii	"__DEC64_MANT_DIG__ 16\000"
 3209      4336345F 
 3209      4D414E54 
 3209      5F444947 
 3209      5F5F2031 
 3210              	.LASF135:
 3211 3463 5F5F464C 		.ascii	"__FLT_HAS_DENORM__ 1\000"
 3211      545F4841 
 3211      535F4445 
 3211      4E4F524D 
 3211      5F5F2031 
 3212              		.ident	"GCC: (GNU Tools for ARM Embedded Processors) 5.4.1 20160919 (release) [ARM/embedded-5-bran
ARM GAS  /var/folders/z0/6xlwn_996xz3mwq1cgzkbq4r0000gp/T//ccF2sUVk.s 			page 93


DEFINED SYMBOLS
                            *ABS*:0000000000000000 util.c
/var/folders/z0/6xlwn_996xz3mwq1cgzkbq4r0000gp/T//ccF2sUVk.s:79     .text.__reverse:0000000000000000 $t
/var/folders/z0/6xlwn_996xz3mwq1cgzkbq4r0000gp/T//ccF2sUVk.s:84     .text.__reverse:0000000000000000 __reverse
                     .debug_frame:0000000000000010 $d
                           .group:0000000000000000 wm4.0.875846967d3f9b39cda0d496d1540481
                           .group:0000000000000000 wm4._newlib_version.h.4.ad342815780c8db09778091a421b5b5b
                           .group:0000000000000000 wm4.features.h.33.863f3be0b2e521e624fcc7d6fa31d2ca
                           .group:0000000000000000 wm4._default_types.h.15.933e8edd27a65e0b69af4a865eb623d2
                           .group:0000000000000000 wm4._intsup.h.10.b82bf99f69d6a5c085fc866de0d3eb9b
                           .group:0000000000000000 wm4._stdint.h.10.7a5f60e6741af4a5594a3867d347e1f9
                           .group:0000000000000000 wm4.stdint.h.23.373a9d32a9e4c2e88fd347156532d281
                           .group:0000000000000000 wm4.stdbool.h.29.07dce69c3b78884144b7f7bd19483461
                           .group:0000000000000000 wm4.lpc_types.h.63.860ba57581a002825766a7c2ac00d549

NO UNDEFINED SYMBOLS
